(lp0
(dp1
S'image'
p2
S'../../../data/emanuela/activity-recognition/images/NTCIR-Lifelog-256/u3/2015-07-25/b00001118_21i79q_20150725_144635e.jpg'
p3
sS'result'
p4
(lp5
(cnumpy.core.multiarray
scalar
p6
(cnumpy
dtype
p7
(S'S16'
p8
I0
I1
tp9
Rp10
(I3
S'|'
p11
NNNI16
I1
I0
tp12
bS'public transport'
p13
tp14
Rp15
g6
(g7
(S'f4'
p16
I0
I1
tp17
Rp18
(I3
S'<'
p19
NNNI-1
I-1
I0
tp20
bS'{\xb2~?'
p21
tp22
Rp23
tp24
a(g6
(g7
(S'S15'
p25
I0
I1
tp26
Rp27
(I3
S'|'
p28
NNNI15
I1
I0
tp29
bS'walking outdoor'
p30
tp31
Rp32
g6
(g18
S'\xf5N\xb3:'
p33
tp34
Rp35
tp36
a(g6
(g7
(S'S6'
p37
I0
I1
tp38
Rp39
(I3
S'|'
p40
NNNI6
I1
I0
tp41
bS'mobile'
p42
tp43
Rp44
g6
(g18
S'\xf4i\xb1:'
p45
tp46
Rp47
tp48
a(g6
(g7
(S'S7'
p49
I0
I1
tp50
Rp51
(I3
S'|'
p52
NNNI7
I1
I0
tp53
bS'resting'
p54
tp55
Rp56
g6
(g18
S'Z9U:'
p57
tp58
Rp59
tp60
a(g6
(g7
(S'S7'
p61
I0
I1
tp62
Rp63
(I3
S'|'
p64
NNNI7
I1
I0
tp65
bS'reading'
p66
tp67
Rp68
g6
(g18
S'\tI\xc49'
p69
tp70
Rp71
tp72
asS'label'
p73
g15
sa(dp74
g2
S'../../../data/emanuela/activity-recognition/images/NTCIR-Lifelog-256/u3/2015-08-01/b00006119_21i79q_20150801_122646e.jpg'
p75
sg4
(lp76
(g15
g6
(g18
S'\xd4\xf6F?'
p77
tp78
Rp79
tp80
a(g44
g6
(g18
S'\xa4\xc4G>'
p81
tp82
Rp83
tp84
a(g6
(g7
(S'S24'
p85
I0
I1
tp86
Rp87
(I3
S'|'
p88
NNNI24
I1
I0
tp89
bS'having drinks/meal alone'
p90
tp91
Rp92
g6
(g18
S'T\xd2\xe9;'
p93
tp94
Rp95
tp96
a(g6
(g7
(S'S27'
p97
I0
I1
tp98
Rp99
(I3
S'|'
p100
NNNI27
I1
I0
tp101
bS'having drinks with somebody'
p102
tp103
Rp104
g6
(g18
S'\xc8\xaf\xa7;'
p105
tp106
Rp107
tp108
a(g6
(g7
(S'S25'
p109
I0
I1
tp110
Rp111
(I3
S'|'
p112
NNNI25
I1
I0
tp113
bS'having meal with somebody'
p114
tp115
Rp116
g6
(g18
S'\x08\xa3\x19;'
p117
tp118
Rp119
tp120
asg73
g15
sa(dp121
g2
S'../../../data/emanuela/activity-recognition/images/NTCIR-Lifelog-256/u1/2015-02-24/b00000215_21i6bq_20150224_085054e.jpg'
p122
sg4
(lp123
(g15
g6
(g18
S'\xaaB??'
p124
tp125
Rp126
tp127
a(g6
(g7
(S'S14'
p128
I0
I1
tp129
Rp130
(I3
S'|'
p131
NNNI14
I1
I0
tp132
bS'walking indoor'
p133
tp134
Rp135
g6
(g18
S'\x1cQ\x84='
p136
tp137
Rp138
tp139
a(g44
g6
(g18
S'm\xa24='
p140
tp141
Rp142
tp143
a(g92
g6
(g18
S'\xdd\x99\xaf<'
p144
tp145
Rp146
tp147
a(g104
g6
(g18
S'\xa8\xc9\xaa<'
p148
tp149
Rp150
tp151
asg73
g15
sa(dp152
g2
S'../../../data/emanuela/activity-recognition/images/NTCIR-Lifelog-256/u2/2015-05-03/b00004038_21i7lf_20150503_172430e.jpg'
p153
sg4
(lp154
(g15
g6
(g18
S'v\x83A?'
p155
tp156
Rp157
tp158
a(g44
g6
(g18
S'\x18f\xeb='
p159
tp160
Rp161
tp162
a(g68
g6
(g18
S'\xae\xa7G='
p163
tp164
Rp165
tp166
a(g6
(g7
(S'S7'
p167
I0
I1
tp168
Rp169
(I3
S'|'
p170
NNNI7
I1
I0
tp171
bS'driving'
p172
tp173
Rp174
g6
(g18
S'w/\xf3<'
p175
tp176
Rp177
tp178
a(g32
g6
(g18
S'\x113\xa5<'
p179
tp180
Rp181
tp182
asg73
g15
sa(dp183
g2
S'../../../data/emanuela/activity-recognition/images/NTCIR-Lifelog-256/u2/2015-06-20/b00004241_21i7lf_20150620_092308e.jpg'
p184
sg4
(lp185
(g15
g6
(g18
S'\xb5\x80%?'
p186
tp187
Rp188
tp189
a(g104
g6
(g18
S'L\xb1\x15>'
p190
tp191
Rp192
tp193
a(g6
(g7
(S'S11'
p194
I0
I1
tp195
Rp196
(I3
S'|'
p197
NNNI11
I1
I0
tp198
bS'socializing'
p199
tp200
Rp201
g6
(g18
S'\x87=\xcd='
p202
tp203
Rp204
tp205
a(g116
g6
(g18
S'^\xbfc='
p206
tp207
Rp208
tp209
a(g135
g6
(g18
S'-\x17\xaa<'
p210
tp211
Rp212
tp213
asg73
g15
sa(dp214
g2
S'../../../data/emanuela/activity-recognition/images/NTCIR-Lifelog-256/u3/2015-07-28/b00002993_21i79q_20150728_143829e.jpg'
p215
sg4
(lp216
(g15
g6
(g18
S'\x8cYx?'
p217
tp218
Rp219
tp220
a(g201
g6
(g18
S'\xc9t\x00<'
p221
tp222
Rp223
tp224
a(g104
g6
(g18
S'Cw\xb9;'
p225
tp226
Rp227
tp228
a(g44
g6
(g18
S'\x83\x13\x9a;'
p229
tp230
Rp231
tp232
a(g135
g6
(g18
S'\x9cA$;'
p233
tp234
Rp235
tp236
asg73
g15
sa(dp237
g2
S'../../../data/emanuela/activity-recognition/images/NTCIR-Lifelog-256/u3/2015-07-11/b00001673_21i79q_20150711_231146e.jpg'
p238
sg4
(lp239
(g15
g6
(g18
S'\xc6T]?'
p240
tp241
Rp242
tp243
a(g201
g6
(g18
S'B\xf8\xab='
p244
tp245
Rp246
tp247
a(g135
g6
(g18
S'\xe9e\x88<'
p248
tp249
Rp250
tp251
a(g104
g6
(g18
S'\xcd\xe9\x86<'
p252
tp253
Rp254
tp255
a(g32
g6
(g18
S'\xb1\x0e\xda;'
p256
tp257
Rp258
tp259
asg73
g15
sa(dp260
g2
S'../../../data/emanuela/activity-recognition/images/NTCIR-Lifelog-256/u3/2015-07-11/b00000067_21i79q_20150711_071736e.jpg'
p261
sg4
(lp262
(g15
g6
(g18
S'\x8f\xbbo?'
p263
tp264
Rp265
tp266
a(g6
(g7
(S'S5'
p267
I0
I1
tp268
Rp269
(I3
S'|'
p270
NNNI5
I1
I0
tp271
bS'plane'
p272
tp273
Rp274
g6
(g18
S'\x8a\xe10='
p275
tp276
Rp277
tp278
a(g68
g6
(g18
S'T\xfdG<'
p279
tp280
Rp281
tp282
a(g135
g6
(g18
S'N\xbdJ;'
p283
tp284
Rp285
tp286
a(g6
(g7
(S'S7'
p287
I0
I1
tp288
Rp289
(I3
S'|'
p290
NNNI7
I1
I0
tp291
bS'cooking'
p292
tp293
Rp294
g6
(g18
S'|E\x94:'
p295
tp296
Rp297
tp298
asg73
g15
sa(dp299
g2
S'../../../data/emanuela/activity-recognition/images/NTCIR-Lifelog-256/u3/2015-07-29/b00003971_21i79q_20150729_134627e.jpg'
p300
sg4
(lp301
(g15
g6
(g18
S'\xe6|y?'
p302
tp303
Rp304
tp305
a(g201
g6
(g18
S'4\xea\x0e<'
p306
tp307
Rp308
tp309
a(g135
g6
(g18
S'\xfbM\xc4;'
p310
tp311
Rp312
tp313
a(g32
g6
(g18
S'\xa8\xd9\xa0;'
p314
tp315
Rp316
tp317
a(g44
g6
(g18
S'\x0c\xff";'
p318
tp319
Rp320
tp321
asg73
g15
sa(dp322
g2
S'../../../data/emanuela/activity-recognition/images/NTCIR-Lifelog-256/u3/2015-07-28/b00002980_21i79q_20150728_143025e.jpg'
p323
sg4
(lp324
(g32
g6
(g18
S'W=\xa7>'
p325
tp326
Rp327
tp328
a(g15
g6
(g18
S'\xc9^!>'
p329
tp330
Rp331
tp332
a(g56
g6
(g18
S'\xc0[\xd9='
p333
tp334
Rp335
tp336
a(g135
g6
(g18
S'\xd5\x02\x9d='
p337
tp338
Rp339
tp340
a(g201
g6
(g18
S';\x8d\x99='
p341
tp342
Rp343
tp344
asg73
g15
sa(dp345
g2
S'../../../data/emanuela/activity-recognition/images/NTCIR-Lifelog-256/u2/2015-06-19/b00002948_21i7lf_20150619_064018e.jpg'
p346
sg4
(lp347
(g15
g6
(g18
S'#bz?'
p348
tp349
Rp350
tp351
a(g135
g6
(g18
S'\xd3yX<'
p352
tp353
Rp354
tp355
a(g6
(g7
(S'S8'
p356
I0
I1
tp357
Rp358
(I3
S'|'
p359
NNNI8
I1
I0
tp360
bS'shopping'
p361
tp362
Rp363
g6
(g18
S'\xb9\x9f|;'
p364
tp365
Rp366
tp367
a(g32
g6
(g18
S'xP\x19;'
p368
tp369
Rp370
tp371
a(g201
g6
(g18
S'\x96$\x96:'
p372
tp373
Rp374
tp375
asg73
g15
sa(dp376
g2
S'../../../data/emanuela/activity-recognition/images/NTCIR-Lifelog-256/u3/2015-07-11/b00000123_21i79q_20150711_075149e.jpg'
p377
sg4
(lp378
(g15
g6
(g18
S'\x19um?'
p379
tp380
Rp381
tp382
a(g274
g6
(g18
S'\xa3\x1eE='
p383
tp384
Rp385
tp386
a(g68
g6
(g18
S'\xfe~\x00<'
p387
tp388
Rp389
tp390
a(g294
g6
(g18
S'\xd68{;'
p391
tp392
Rp393
tp394
a(g174
g6
(g18
S'\xcd\x10+;'
p395
tp396
Rp397
tp398
asg73
g15
sa(dp399
g2
S'../../../data/emanuela/activity-recognition/images/NTCIR-Lifelog-256/u3/2015-07-15/b00000302_21i79q_20150715_145801e.jpg'
p400
sg4
(lp401
(g15
g6
(g18
S'4pZ?'
p402
tp403
Rp404
tp405
a(g201
g6
(g18
S'\xccwz='
p406
tp407
Rp408
tp409
a(g116
g6
(g18
S']\x8a0='
p410
tp411
Rp412
tp413
a(g6
(g7
(S'S19'
p414
I0
I1
tp415
Rp416
(I3
S'|'
p417
NNNI19
I1
I0
tp418
bS'cleaning and chores'
p419
tp420
Rp421
g6
(g18
S'9\xed/<'
p422
tp423
Rp424
tp425
a(g104
g6
(g18
S'\x0bi%<'
p426
tp427
Rp428
tp429
asg73
g15
sa(dp430
g2
S'../../../data/emanuela/activity-recognition/images/NTCIR-Lifelog-256/u3/2015-07-28/b00003782_21i79q_20150728_221826e.jpg'
p431
sg4
(lp432
(g15
g6
(g18
S'\xdcn-?'
p433
tp434
Rp435
tp436
a(g44
g6
(g18
S'\x7f\x01\x94>'
p437
tp438
Rp439
tp440
a(g32
g6
(g18
S'p5\x82<'
p441
tp442
Rp443
tp444
a(g68
g6
(g18
S'"\xcb\xaf;'
p445
tp446
Rp447
tp448
a(g135
g6
(g18
S'\xfae\xa5;'
p449
tp450
Rp451
tp452
asg73
g15
sa(dp453
g2
S'../../../data/emanuela/activity-recognition/images/NTCIR-Lifelog-256/u1/2015-03-17/b00001028_21i6bq_20150317_181623e.jpg'
p454
sg4
(lp455
(g15
g6
(g18
S'\xcc\xbb\xf5>'
p456
tp457
Rp458
tp459
a(g44
g6
(g18
S'\x9c)\xbf>'
p460
tp461
Rp462
tp463
a(g274
g6
(g18
S'\r\xda\\='
p464
tp465
Rp466
tp467
a(g68
g6
(g18
S'\x03m\xf0<'
p468
tp469
Rp470
tp471
a(g135
g6
(g18
S'VK\x8c<'
p472
tp473
Rp474
tp475
asg73
g15
sa(dp476
g2
S'../../../data/emanuela/activity-recognition/images/NTCIR-Lifelog-256/u3/2015-07-11/b00000210_21i79q_20150711_084554e.jpg'
p477
sg4
(lp478
(g15
g6
(g18
S'\x14\x0fp?'
p479
tp480
Rp481
tp482
a(g274
g6
(g18
S'E\xcfN='
p483
tp484
Rp485
tp486
a(g68
g6
(g18
S'82\x89;'
p487
tp488
Rp489
tp490
a(g135
g6
(g18
S'~;V;'
p491
tp492
Rp493
tp494
a(g294
g6
(g18
S'\xe5\xb5\x8b:'
p495
tp496
Rp497
tp498
asg73
g15
sa(dp499
g2
S'../../../data/emanuela/activity-recognition/images/NTCIR-Lifelog-256/u3/2015-07-18/b00000129_21i79q_20150718_123922e.jpg'
p500
sg4
(lp501
(g15
g6
(g18
S'\x05T\x96>'
p502
tp503
Rp504
tp505
a(g92
g6
(g18
S'|J\x87>'
p506
tp507
Rp508
tp509
a(g421
g6
(g18
S'7\xb4\xc5='
p510
tp511
Rp512
tp513
a(g68
g6
(g18
S'q~\x8c='
p514
tp515
Rp516
tp517
a(g104
g6
(g18
S'7.:='
p518
tp519
Rp520
tp521
asg73
g15
sa(dp522
g2
S'../../../data/emanuela/activity-recognition/images/NTCIR-Lifelog-256/u3/2015-07-11/b00000172_21i79q_20150711_082125e.jpg'
p523
sg4
(lp524
(g15
g6
(g18
S'G?)?'
p525
tp526
Rp527
tp528
a(g274
g6
(g18
S'5ho>'
p529
tp530
Rp531
tp532
a(g68
g6
(g18
S'\xa5\xaf2='
p533
tp534
Rp535
tp536
a(g174
g6
(g18
S'\xcc\x92\xd0<'
p537
tp538
Rp539
tp540
a(g135
g6
(g18
S'\x95\xb6P<'
p541
tp542
Rp543
tp544
asg73
g15
sa(dp545
g2
S'../../../data/emanuela/activity-recognition/images/NTCIR-Lifelog-256/u2/2015-06-16/b00001335_21i7lf_20150616_071150e.jpg'
p546
sg4
(lp547
(g15
g6
(g18
S"'\xdbw?"
p548
tp549
Rp550
tp551
a(g135
g6
(g18
S'\xef\xa9\x14<'
p552
tp553
Rp554
tp555
a(g201
g6
(g18
S'\xd9\xdb\xc5;'
p556
tp557
Rp558
tp559
a(g44
g6
(g18
S'\xddP\xad;'
p560
tp561
Rp562
tp563
a(g32
g6
(g18
S'J\xdd\xa6;'
p564
tp565
Rp566
tp567
asg73
g15
sa(dp568
g2
S'../../../data/emanuela/activity-recognition/images/NTCIR-Lifelog-256/u3/2015-07-11/b00000161_21i79q_20150711_081447e.jpg'
p569
sg4
(lp570
(g15
g6
(g18
S'\n\xa0z?'
p571
tp572
Rp573
tp574
a(g274
g6
(g18
S'@\xebk<'
p575
tp576
Rp577
tp578
a(g174
g6
(g18
S'^oG;'
p579
tp580
Rp581
tp582
a(g68
g6
(g18
S'\x1cE\xe3:'
p583
tp584
Rp585
tp586
a(g32
g6
(g18
S'\xec\xf8\r:'
p587
tp588
Rp589
tp590
asg73
g15
sa(dp591
g2
S'../../../data/emanuela/activity-recognition/images/NTCIR-Lifelog-256/u3/2015-07-11/b00000152_21i79q_20150711_080954e.jpg'
p592
sg4
(lp593
(g15
g6
(g18
S'\x9d\xefs?'
p594
tp595
Rp596
tp597
a(g274
g6
(g18
S'{P\x18='
p598
tp599
Rp600
tp601
a(g68
g6
(g18
S'c\n\x87;'
p602
tp603
Rp604
tp605
a(g174
g6
(g18
S'\xf3\xe6\xff:'
p606
tp607
Rp608
tp609
a(g294
g6
(g18
S' N\xad:'
p610
tp611
Rp612
tp613
asg73
g15
sa(dp614
g2
S'../../../data/emanuela/activity-recognition/images/NTCIR-Lifelog-256/u1/2015-02-24/b00001277_21i6bq_20150224_194021e.jpg'
p615
sg4
(lp616
(g15
g6
(g18
S'\x8cFq?'
p617
tp618
Rp619
tp620
a(g44
g6
(g18
S'\x98\xd1e='
p621
tp622
Rp623
tp624
a(g32
g6
(g18
S'\x1c(\xee9'
p625
tp626
Rp627
tp628
a(g135
g6
(g18
S't\xd8\x879'
p629
tp630
Rp631
tp632
a(g104
g6
(g18
S'\x97\x05?9'
p633
tp634
Rp635
tp636
asg73
g15
sa(dp637
g2
S'../../../data/emanuela/activity-recognition/images/NTCIR-Lifelog-256/u2/2015-06-18/b00002830_21i7lf_20150618_122625e.jpg'
p638
sg4
(lp639
(g15
g6
(g18
S'\x9a\xd9\xd2>'
p640
tp641
Rp642
tp643
a(g201
g6
(g18
S'\xe8\x7f\xab>'
p644
tp645
Rp646
tp647
a(g104
g6
(g18
S'\xa7\xcdP>'
p648
tp649
Rp650
tp651
a(g116
g6
(g18
S'\x19\x87\xd6<'
p652
tp653
Rp654
tp655
a(g363
g6
(g18
S'\xb1R\x14<'
p656
tp657
Rp658
tp659
asg73
g15
sa(dp660
g2
S'../../../data/emanuela/activity-recognition/images/NTCIR-Lifelog-256/u3/2015-07-28/b00003734_21i79q_20150728_214958e.jpg'
p661
sg4
(lp662
(g15
g6
(g18
S'\xcb\x086?'
p663
tp664
Rp665
tp666
a(g44
g6
(g18
S'\x0e\xa9b>'
p667
tp668
Rp669
tp670
a(g104
g6
(g18
S'\xd6\x00C='
p671
tp672
Rp673
tp674
a(g92
g6
(g18
S'\xf8\xbe\xbc;'
p675
tp676
Rp677
tp678
a(g201
g6
(g18
S'\x0e\xca\x16;'
p679
tp680
Rp681
tp682
asg73
g15
sa(dp683
g2
S'../../../data/emanuela/activity-recognition/images/NTCIR-Lifelog-256/u3/2015-07-11/b00000804_21i79q_20150711_142747e.jpg'
p684
sg4
(lp685
(g15
g6
(g18
S'o\xa3A?'
p686
tp687
Rp688
tp689
a(g201
g6
(g18
S'Vs\xbd='
p690
tp691
Rp692
tp693
a(g135
g6
(g18
S'\xfa|\x9b='
p694
tp695
Rp696
tp697
a(g104
g6
(g18
S'\xa0\x8b\xe7<'
p698
tp699
Rp700
tp701
a(g116
g6
(g18
S'\x97 \x8f<'
p702
tp703
Rp704
tp705
asg73
g15
sa(dp706
g2
S'../../../data/emanuela/activity-recognition/images/NTCIR-Lifelog-256/u1/2015-03-16/b00002708_21i6bq_20150316_174423e.jpg'
p707
sg4
(lp708
(g44
g6
(g18
S'N\x04e?'
p709
tp710
Rp711
tp712
a(g15
g6
(g18
S'\x14\xb5\x83='
p713
tp714
Rp715
tp716
a(g68
g6
(g18
S'\xbf\xaf<<'
p717
tp718
Rp719
tp720
a(g135
g6
(g18
S'aX\x1b<'
p721
tp722
Rp723
tp724
a(g6
(g7
(S'S7'
p725
I0
I1
tp726
Rp727
(I3
S'|'
p728
NNNI7
I1
I0
tp729
bS'working'
p730
tp731
Rp732
g6
(g18
S'\xb7\xcf\xa9;'
p733
tp734
Rp735
tp736
asg73
g15
sa(dp737
g2
S'../../../data/emanuela/activity-recognition/images/NTCIR-Lifelog-256/u2/2015-05-03/b00003794_21i7lf_20150503_145136e (1).jpg'
p738
sg4
(lp739
(g135
g6
(g18
S'\x1b\r#?'
p740
tp741
Rp742
tp743
a(g44
g6
(g18
S'Zv\xe1='
p744
tp745
Rp746
tp747
a(g92
g6
(g18
S'\x9b\xd7\xc9='
p748
tp749
Rp750
tp751
a(g421
g6
(g18
S'\x14\x85f='
p752
tp753
Rp754
tp755
a(g32
g6
(g18
S'/\\\xc1<'
p756
tp757
Rp758
tp759
asg73
g15
sa(dp760
g2
S'../../../data/emanuela/activity-recognition/images/NTCIR-Lifelog-256/u3/2015-07-11/b00001676_21i79q_20150711_231333e.jpg'
p761
sg4
(lp762
(g15
g6
(g18
S'\x03[|?'
p763
tp764
Rp765
tp766
a(g104
g6
(g18
S'\xda\x0eV;'
p767
tp768
Rp769
tp770
a(g135
g6
(g18
S'\xe2\xe0I;'
p771
tp772
Rp773
tp774
a(g274
g6
(g18
S'\xaa\xff\xfd:'
p775
tp776
Rp777
tp778
a(g201
g6
(g18
S'\xae)\xdf:'
p779
tp780
Rp781
tp782
asg73
g15
sa(dp783
g2
S'../../../data/emanuela/activity-recognition/images/NTCIR-Lifelog-256/u2/2015-05-03/b00003782_21i7lf_20150503_144430e.jpg'
p784
sg4
(lp785
(g15
g6
(g18
S'\xde\xab\x7f?'
p786
tp787
Rp788
tp789
a(g104
g6
(g18
S'\xb1v\xb99'
p790
tp791
Rp792
tp793
a(g92
g6
(g18
S'a\xe7R9'
p794
tp795
Rp796
tp797
a(g68
g6
(g18
S'D\xae\x1f9'
p798
tp799
Rp800
tp801
a(g201
g6
(g18
S'\x1d\xd2\x0c9'
p802
tp803
Rp804
tp805
asg73
g15
sa(dp806
g2
S'../../../data/emanuela/activity-recognition/images/NTCIR-Lifelog-256/u3/2015-07-11/b00000163_21i79q_20150711_081605e.jpg'
p807
sg4
(lp808
(g15
g6
(g18
S'\xaf\xa5[?'
p809
tp810
Rp811
tp812
a(g274
g6
(g18
S'P"\xe5='
p813
tp814
Rp815
tp816
a(g68
g6
(g18
S'*\xd2\xa0<'
p817
tp818
Rp819
tp820
a(g174
g6
(g18
S'\x16\xf2\x18;'
p821
tp822
Rp823
tp824
a(g294
g6
(g18
S'\x9d\r\x17;'
p825
tp826
Rp827
tp828
asg73
g15
sa(dp829
g2
S'../../../data/emanuela/activity-recognition/images/NTCIR-Lifelog-256/u3/2015-07-28/b00003079_21i79q_20150728_152850e.jpg'
p830
sg4
(lp831
(g15
g6
(g18
S'\xfe\x0f~?'
p832
tp833
Rp834
tp835
a(g92
g6
(g18
S'\x9f\xef\x07;'
p836
tp837
Rp838
tp839
a(g135
g6
(g18
S'\x99\x0f\xb9:'
p840
tp841
Rp842
tp843
a(g32
g6
(g18
S'JDr:'
p844
tp845
Rp846
tp847
a(g104
g6
(g18
S'\xf9\x9dM:'
p848
tp849
Rp850
tp851
asg73
g15
sa(dp852
g2
S'../../../data/emanuela/activity-recognition/images/NTCIR-Lifelog-256/u3/2015-07-18/b00000152_21i79q_20150718_124756e.jpg'
p853
sg4
(lp854
(g15
g6
(g18
S'\x83=U?'
p855
tp856
Rp857
tp858
a(g56
g6
(g18
S'.\xcd>='
p859
tp860
Rp861
tp862
a(g201
g6
(g18
S'C\xca\xbf<'
p863
tp864
Rp865
tp866
a(g174
g6
(g18
S'\x95\xfe\x98<'
p867
tp868
Rp869
tp870
a(g6
(g7
(S'S7'
p871
I0
I1
tp872
Rp873
(I3
S'|'
p874
NNNI7
I1
I0
tp875
bS'talking'
p876
tp877
Rp878
g6
(g18
S'y\xc2\x8b<'
p879
tp880
Rp881
tp882
asg73
g15
sa(dp883
g2
S'../../../data/emanuela/activity-recognition/images/NTCIR-Lifelog-256/u1/2015-03-16/b00002705_21i6bq_20150316_174236e.jpg'
p884
sg4
(lp885
(g44
g6
(g18
S'\xa7\x8d{?'
p886
tp887
Rp888
tp889
a(g15
g6
(g18
S'\xaf:_<'
p890
tp891
Rp892
tp893
a(g135
g6
(g18
S'T\xb9\xa9:'
p894
tp895
Rp896
tp897
a(g68
g6
(g18
S'\xfa\xf2%:'
p898
tp899
Rp900
tp901
a(g56
g6
(g18
S'\xf6{\xba9'
p902
tp903
Rp904
tp905
asg73
g15
sa(dp906
g2
S'../../../data/emanuela/activity-recognition/images/NTCIR-Lifelog-256/u2/2015-06-18/b00002834_21i7lf_20150618_122848e.jpg'
p907
sg4
(lp908
(g15
g6
(g18
S'\xdb\x9eq?'
p909
tp910
Rp911
tp912
a(g201
g6
(g18
S'H$\xe2<'
p913
tp914
Rp915
tp916
a(g104
g6
(g18
S'x\xe9\xc1<'
p917
tp918
Rp919
tp920
a(g44
g6
(g18
S'e\x8d\x8b:'
p921
tp922
Rp923
tp924
a(g135
g6
(g18
S'\xbf&\x85:'
p925
tp926
Rp927
tp928
asg73
g15
sa(dp929
g2
S'../../../data/emanuela/activity-recognition/images/NTCIR-Lifelog-256/u3/2015-07-29/b00004148_21i79q_20150729_155217e.jpg'
p930
sg4
(lp931
(g15
g6
(g18
S"b'J?"
p932
tp933
Rp934
tp935
a(g92
g6
(g18
S'6\x8c\x8d='
p936
tp937
Rp938
tp939
a(g201
g6
(g18
S'\xb4\xe4\xf7<'
p940
tp941
Rp942
tp943
a(g104
g6
(g18
S'U]\xf6<'
p944
tp945
Rp946
tp947
a(g44
g6
(g18
S'k\xc3\xb3<'
p948
tp949
Rp950
tp951
asg73
g15
sa(dp952
g2
S'../../../data/emanuela/activity-recognition/images/NTCIR-Lifelog-256/u3/2015-07-18/b00000014_21i79q_20150718_112929e.jpg'
p953
sg4
(lp954
(g15
g6
(g18
S'\x7f&\xa8>'
p955
tp956
Rp957
tp958
a(g201
g6
(g18
S'\xb8\xec\x1c>'
p959
tp960
Rp961
tp962
a(g92
g6
(g18
S'\xfb\x89\x0b>'
p963
tp964
Rp965
tp966
a(g135
g6
(g18
S'\xc0\x91\xbb='
p967
tp968
Rp969
tp970
a(g104
g6
(g18
S'\xa0\xff|='
p971
tp972
Rp973
tp974
asg73
g15
sa(dp975
g2
S'../../../data/emanuela/activity-recognition/images/NTCIR-Lifelog-256/u3/2015-07-25/b00001090_21i79q_20150725_143035e.jpg'
p976
sg4
(lp977
(g15
g6
(g18
S'T\xd4y?'
p978
tp979
Rp980
tp981
a(g44
g6
(g18
S'\xce\xc5u<'
p982
tp983
Rp984
tp985
a(g201
g6
(g18
S'+@\xe6:'
p986
tp987
Rp988
tp989
a(g104
g6
(g18
S'\x9a\xce\x9f:'
p990
tp991
Rp992
tp993
a(g92
g6
(g18
S'ht\x82:'
p994
tp995
Rp996
tp997
asg73
g15
sa(dp998
g2
S'../../../data/emanuela/activity-recognition/images/NTCIR-Lifelog-256/u3/2015-07-11/b00000238_21i79q_20150711_090228e.jpg'
p999
sg4
(lp1000
(g274
g6
(g18
S'd\xad`>'
p1001
tp1002
Rp1003
tp1004
a(g15
g6
(g18
S'hqA>'
p1005
tp1006
Rp1007
tp1008
a(g294
g6
(g18
S'\xa1\x02+>'
p1009
tp1010
Rp1011
tp1012
a(g174
g6
(g18
S'%\xbd\n>'
p1013
tp1014
Rp1015
tp1016
a(g421
g6
(g18
S'\xc7s\xa4='
p1017
tp1018
Rp1019
tp1020
asg73
g15
sa(dp1021
g2
S'../../../data/emanuela/activity-recognition/images/NTCIR-Lifelog-256/u3/2015-07-27/b00001847_21i79q_20150727_112052e.jpg'
p1022
sg4
(lp1023
(g15
g6
(g18
S't\x9cq?'
p1024
tp1025
Rp1026
tp1027
a(g44
g6
(g18
S'f\xf4\x85<'
p1028
tp1029
Rp1030
tp1031
a(g201
g6
(g18
S'\x89\xf69<'
p1032
tp1033
Rp1034
tp1035
a(g92
g6
(g18
S'\xb9\x12\xb0;'
p1036
tp1037
Rp1038
tp1039
a(g116
g6
(g18
S'wK\x96;'
p1040
tp1041
Rp1042
tp1043
asg73
g15
sa(dp1044
g2
S'../../../data/emanuela/activity-recognition/images/NTCIR-Lifelog-256/u3/2015-07-28/b00002673_21i79q_20150728_093111e.jpg'
p1045
sg4
(lp1046
(g15
g6
(g18
S'\xa2\x14~?'
p1047
tp1048
Rp1049
tp1050
a(g201
g6
(g18
S'.\x92\xb7:'
p1051
tp1052
Rp1053
tp1054
a(g32
g6
(g18
S'\xcd\x06\x8f:'
p1055
tp1056
Rp1057
tp1058
a(g135
g6
(g18
S'\xf1\xf3V:'
p1059
tp1060
Rp1061
tp1062
a(g104
g6
(g18
S'hNQ:'
p1063
tp1064
Rp1065
tp1066
asg73
g15
sa(dp1067
g2
S'../../../data/emanuela/activity-recognition/images/NTCIR-Lifelog-256/u3/2015-07-18/b00000063_21i79q_20150718_120018e.jpg'
p1068
sg4
(lp1069
(g15
g6
(g18
S'\xa0L\x15?'
p1070
tp1071
Rp1072
tp1073
a(g201
g6
(g18
S'?v\xd1='
p1074
tp1075
Rp1076
tp1077
a(g56
g6
(g18
S'\x05t\xa6='
p1078
tp1079
Rp1080
tp1081
a(g32
g6
(g18
S'>\xe2i='
p1082
tp1083
Rp1084
tp1085
a(g878
g6
(g18
S'\xbaL/='
p1086
tp1087
Rp1088
tp1089
asg73
g15
sa(dp1090
g2
S'../../../data/emanuela/activity-recognition/images/NTCIR-Lifelog-256/u3/2015-08-03/b00000094_21i79q_20150803_124904e.jpg'
p1091
sg4
(lp1092
(g15
g6
(g18
S'\xe5.\x03?'
p1093
tp1094
Rp1095
tp1096
a(g44
g6
(g18
S'\xae\xfc\xf1>'
p1097
tp1098
Rp1099
tp1100
a(g68
g6
(g18
S'U{\x9e;'
p1101
tp1102
Rp1103
tp1104
a(g135
g6
(g18
S'\xe0&\xdd:'
p1105
tp1106
Rp1107
tp1108
a(g92
g6
(g18
S'\x0cE\xce:'
p1109
tp1110
Rp1111
tp1112
asg73
g15
sa(dp1113
g2
S'../../../data/emanuela/activity-recognition/images/NTCIR-Lifelog-256/u3/2015-07-11/b00000260_21i79q_20150711_091447e.jpg'
p1114
sg4
(lp1115
(g15
g6
(g18
S'\xc1Bx?'
p1116
tp1117
Rp1118
tp1119
a(g274
g6
(g18
S'y\x1d\x96<'
p1120
tp1121
Rp1122
tp1123
a(g68
g6
(g18
S'\x80?2;'
p1124
tp1125
Rp1126
tp1127
a(g294
g6
(g18
S'\x1b\xd7.;'
p1128
tp1129
Rp1130
tp1131
a(g421
g6
(g18
S'\x8e\xdf ;'
p1132
tp1133
Rp1134
tp1135
asg73
g15
sa(dp1136
g2
S'../../../data/emanuela/activity-recognition/images/NTCIR-Lifelog-256/u3/2015-07-15/b00000297_21i79q_20150715_145515e.jpg'
p1137
sg4
(lp1138
(g15
g6
(g18
S'\x8e\xfcc?'
p1139
tp1140
Rp1141
tp1142
a(g135
g6
(g18
S'\x0cl\\='
p1143
tp1144
Rp1145
tp1146
a(g32
g6
(g18
S'\xa2\x0e\xd5<'
p1147
tp1148
Rp1149
tp1150
a(g363
g6
(g18
S'\xd6\xe5L<'
p1151
tp1152
Rp1153
tp1154
a(g201
g6
(g18
S'\x12;\x15<'
p1155
tp1156
Rp1157
tp1158
asg73
g15
sa(dp1159
g2
S'../../../data/emanuela/activity-recognition/images/NTCIR-Lifelog-256/u1/2015-03-16/b00002577_21i6bq_20150316_171338e.jpg'
p1160
sg4
(lp1161
(g15
g6
(g18
S'\x9d%W?'
p1162
tp1163
Rp1164
tp1165
a(g201
g6
(g18
S'\xae\x8bx='
p1166
tp1167
Rp1168
tp1169
a(g135
g6
(g18
S'\xaf\xcd\x1e='
p1170
tp1171
Rp1172
tp1173
a(g104
g6
(g18
S'\xec\xf2\xfd<'
p1174
tp1175
Rp1176
tp1177
a(g878
g6
(g18
S'\xf0\x16E<'
p1178
tp1179
Rp1180
tp1181
asg73
g15
sa(dp1182
g2
S'../../../data/emanuela/activity-recognition/images/NTCIR-Lifelog-256/u3/2015-07-11/b00001677_21i79q_20150711_231408e.jpg'
p1183
sg4
(lp1184
(g15
g6
(g18
S'`\xefY?'
p1185
tp1186
Rp1187
tp1188
a(g135
g6
(g18
S'Y[o='
p1189
tp1190
Rp1191
tp1192
a(g32
g6
(g18
S'\xa8\x80\t='
p1193
tp1194
Rp1195
tp1196
a(g44
g6
(g18
S'\xdd\xebF<'
p1197
tp1198
Rp1199
tp1200
a(g104
g6
(g18
S'qu2<'
p1201
tp1202
Rp1203
tp1204
asg73
g15
sa(dp1205
g2
S'../../../data/emanuela/activity-recognition/images/NTCIR-Lifelog-256/u2/2015-05-03/b00003790_21i7lf_20150503_144913e.jpg'
p1206
sg4
(lp1207
(g15
g6
(g18
S'\xa3W\x7f?'
p1208
tp1209
Rp1210
tp1211
a(g104
g6
(g18
S'\x1d U:'
p1212
tp1213
Rp1214
tp1215
a(g201
g6
(g18
S'j\x13\xe49'
p1216
tp1217
Rp1218
tp1219
a(g92
g6
(g18
S'\xb9\x8eB9'
p1220
tp1221
Rp1222
tp1223
a(g116
g6
(g18
S'\x1e9/9'
p1224
tp1225
Rp1226
tp1227
asg73
g15
sa(dp1228
g2
S'../../../data/emanuela/activity-recognition/images/NTCIR-Lifelog-256/u3/2015-07-28/b00003029_21i79q_20150728_145914e.jpg'
p1229
sg4
(lp1230
(g15
g6
(g18
S'\x8a-\x7f?'
p1231
tp1232
Rp1233
tp1234
a(g92
g6
(g18
S'9v1:'
p1235
tp1236
Rp1237
tp1238
a(g44
g6
(g18
S'\x96\xd2\xcf9'
p1239
tp1240
Rp1241
tp1242
a(g135
g6
(g18
S'P\xbf\xcc9'
p1243
tp1244
Rp1245
tp1246
a(g32
g6
(g18
S'a\xe3\xc39'
p1247
tp1248
Rp1249
tp1250
asg73
g15
sa(dp1251
g2
S'../../../data/emanuela/activity-recognition/images/NTCIR-Lifelog-256/u3/2015-07-18/b00000159_21i79q_20150718_125158e.jpg'
p1252
sg4
(lp1253
(g15
g6
(g18
S'\xb9\xe2t?'
p1254
tp1255
Rp1256
tp1257
a(g44
g6
(g18
S'O\xece<'
p1258
tp1259
Rp1260
tp1261
a(g274
g6
(g18
S'96\x18<'
p1262
tp1263
Rp1264
tp1265
a(g68
g6
(g18
S'\xc6\xbf\x98;'
p1266
tp1267
Rp1268
tp1269
a(g732
g6
(g18
S'#\x93\x1d;'
p1270
tp1271
Rp1272
tp1273
asg73
g15
sa(dp1274
g2
S'../../../data/emanuela/activity-recognition/images/NTCIR-Lifelog-256/u3/2015-07-18/b00000101_21i79q_20150718_122312e.jpg'
p1275
sg4
(lp1276
(g15
g6
(g18
S'\xf9\x02\xdf>'
p1277
tp1278
Rp1279
tp1280
a(g68
g6
(g18
S'\xd8\x9b\xfa='
p1281
tp1282
Rp1283
tp1284
a(g92
g6
(g18
S'\xb3\x10\xe7='
p1285
tp1286
Rp1287
tp1288
a(g274
g6
(g18
S'o\x98\x9b='
p1289
tp1290
Rp1291
tp1292
a(g56
g6
(g18
S'\x07\xb33='
p1293
tp1294
Rp1295
tp1296
asg73
g15
sa(dp1297
g2
S'../../../data/emanuela/activity-recognition/images/NTCIR-Lifelog-256/u3/2015-07-11/b00000809_21i79q_20150711_142827e.jpg'
p1298
sg4
(lp1299
(g15
g6
(g18
S'\xa7\xf0e?'
p1300
tp1301
Rp1302
tp1303
a(g135
g6
(g18
S'\xbd\xc9J='
p1304
tp1305
Rp1306
tp1307
a(g201
g6
(g18
S'\x87\xbb\\<'
p1308
tp1309
Rp1310
tp1311
a(g363
g6
(g18
S'\xf8W\xd1;'
p1312
tp1313
Rp1314
tp1315
a(g878
g6
(g18
S'\xc3\x88\xc9;'
p1316
tp1317
Rp1318
tp1319
asg73
g15
sa(dp1320
g2
S'../../../data/emanuela/activity-recognition/images/NTCIR-Lifelog-256/u3/2015-07-11/b00000212_21i79q_20150711_084712e.jpg'
p1321
sg4
(lp1322
(g15
g6
(g18
S'\x84\x9bp?'
p1323
tp1324
Rp1325
tp1326
a(g274
g6
(g18
S'\xcb@\x1c='
p1327
tp1328
Rp1329
tp1330
a(g68
g6
(g18
S'\xc1\x04\xd6;'
p1331
tp1332
Rp1333
tp1334
a(g174
g6
(g18
S'\x19=\x8c;'
p1335
tp1336
Rp1337
tp1338
a(g135
g6
(g18
S'\x8e\x88[;'
p1339
tp1340
Rp1341
tp1342
asg73
g15
sa(dp1343
g2
S'../../../data/emanuela/activity-recognition/images/NTCIR-Lifelog-256/u3/2015-07-11/b00000219_21i79q_20150711_085119e.jpg'
p1344
sg4
(lp1345
(g15
g6
(g18
S'\xe5dy?'
p1346
tp1347
Rp1348
tp1349
a(g274
g6
(g18
S'l)\xc5<'
p1350
tp1351
Rp1352
tp1353
a(g135
g6
(g18
S'\xb3\xdcA:'
p1354
tp1355
Rp1356
tp1357
a(g68
g6
(g18
S'\x96\xc3\xe89'
p1358
tp1359
Rp1360
tp1361
a(g56
g6
(g18
S'\xf7\xe0;9'
p1362
tp1363
Rp1364
tp1365
asg73
g15
sa(dp1366
g2
S'../../../data/emanuela/activity-recognition/images/NTCIR-Lifelog-256/u3/2015-08-03/b00000096_21i79q_20150803_125015e.jpg'
p1367
sg4
(lp1368
(g15
g6
(g18
S'N\x90x?'
p1369
tp1370
Rp1371
tp1372
a(g68
g6
(g18
S'Mv\x85<'
p1373
tp1374
Rp1375
tp1376
a(g56
g6
(g18
S'\xee\x1a\xec;'
p1377
tp1378
Rp1379
tp1380
a(g44
g6
(g18
S'/\xa0\xf0:'
p1381
tp1382
Rp1383
tp1384
a(g32
g6
(g18
S'\x13;\xb6:'
p1385
tp1386
Rp1387
tp1388
asg73
g15
sa(dp1389
g2
S'../../../data/emanuela/activity-recognition/images/NTCIR-Lifelog-256/u3/2015-07-18/b00000023_21i79q_20150718_113446e.jpg'
p1390
sg4
(lp1391
(g44
g6
(g18
S'@c\xfe>'
p1392
tp1393
Rp1394
tp1395
a(g15
g6
(g18
S'\x9b3\xb7>'
p1396
tp1397
Rp1398
tp1399
a(g732
g6
(g18
S'\xaf<\xd2<'
p1400
tp1401
Rp1402
tp1403
a(g92
g6
(g18
S'\x9c\xd6\xbf<'
p1404
tp1405
Rp1406
tp1407
a(g68
g6
(g18
S'\x07\xc0\xad<'
p1408
tp1409
Rp1410
tp1411
asg73
g15
sa(dp1412
g2
S'../../../data/emanuela/activity-recognition/images/NTCIR-Lifelog-256/u3/2015-07-18/b00000060_21i79q_20150718_115826e.jpg'
p1413
sg4
(lp1414
(g15
g6
(g18
S'o\x88\xdd>'
p1415
tp1416
Rp1417
tp1418
a(g44
g6
(g18
S'\x05\x8c\xcf>'
p1419
tp1420
Rp1421
tp1422
a(g32
g6
(g18
S'\x11\xc4\x03='
p1423
tp1424
Rp1425
tp1426
a(g104
g6
(g18
S'\x96\x87\xbe<'
p1427
tp1428
Rp1429
tp1430
a(g92
g6
(g18
S'\xe8\xa9\x92<'
p1431
tp1432
Rp1433
tp1434
asg73
g15
sa(dp1435
g2
S'../../../data/emanuela/activity-recognition/images/NTCIR-Lifelog-256/u3/2015-08-03/b00000138_21i79q_20150803_131603e.jpg'
p1436
sg4
(lp1437
(g15
g6
(g18
S'\xc9Mu?'
p1438
tp1439
Rp1440
tp1441
a(g135
g6
(g18
S'&\xe0\x10<'
p1442
tp1443
Rp1444
tp1445
a(g421
g6
(g18
S'\xaf5\xf8;'
p1446
tp1447
Rp1448
tp1449
a(g44
g6
(g18
S'\x96\n\xad;'
p1450
tp1451
Rp1452
tp1453
a(g32
g6
(g18
S'\xf8\xec\x9c;'
p1454
tp1455
Rp1456
tp1457
asg73
g15
sa(dp1458
g2
S'../../../data/emanuela/activity-recognition/images/NTCIR-Lifelog-256/u3/2015-07-28/b00002995_21i79q_20150728_143945e.jpg'
p1459
sg4
(lp1460
(g15
g6
(g18
S'\xd8\xfdg?'
p1461
tp1462
Rp1463
tp1464
a(g32
g6
(g18
S'\nj\xf8<'
p1465
tp1466
Rp1467
tp1468
a(g44
g6
(g18
S'`\xaf\x81<'
p1469
tp1470
Rp1471
tp1472
a(g135
g6
(g18
S'h@~<'
p1473
tp1474
Rp1475
tp1476
a(g363
g6
(g18
S'\xea7\xf9;'
p1477
tp1478
Rp1479
tp1480
asg73
g15
sa(dp1481
g2
S'../../../data/emanuela/activity-recognition/images/NTCIR-Lifelog-256/u3/2015-08-03/b00000116_21i79q_20150803_130216e.jpg'
p1482
sg4
(lp1483
(g15
g6
(g18
S'\x95\x10^?'
p1484
tp1485
Rp1486
tp1487
a(g135
g6
(g18
S'&M\x9e<'
p1488
tp1489
Rp1490
tp1491
a(g32
g6
(g18
S'(}\x97<'
p1492
tp1493
Rp1494
tp1495
a(g878
g6
(g18
S'\xd6Q\x95<'
p1496
tp1497
Rp1498
tp1499
a(g92
g6
(g18
S'\xea/\x8a<'
p1500
tp1501
Rp1502
tp1503
asg73
g15
sa(dp1504
g2
S'../../../data/emanuela/activity-recognition/images/NTCIR-Lifelog-256/u3/2015-07-18/b00000086_21i79q_20150718_121357e.jpg'
p1505
sg4
(lp1506
(g15
g6
(g18
S'\xa8\xc3\x17?'
p1507
tp1508
Rp1509
tp1510
a(g56
g6
(g18
S'\x93\x94\xb4='
p1511
tp1512
Rp1513
tp1514
a(g174
g6
(g18
S'`V\xab='
p1515
tp1516
Rp1517
tp1518
a(g201
g6
(g18
S'9"\x90='
p1519
tp1520
Rp1521
tp1522
a(g878
g6
(g18
S'\xc6\x913='
p1523
tp1524
Rp1525
tp1526
asg73
g15
sa(dp1527
g2
S'../../../data/emanuela/activity-recognition/images/NTCIR-Lifelog-256/u3/2015-07-11/b00000213_21i79q_20150711_084750e.jpg'
p1528
sg4
(lp1529
(g15
g6
(g18
S'\xc7\x18t?'
p1530
tp1531
Rp1532
tp1533
a(g274
g6
(g18
S"\xa63'="
p1534
tp1535
Rp1536
tp1537
a(g68
g6
(g18
S'\xd8I:;'
p1538
tp1539
Rp1540
tp1541
a(g174
g6
(g18
S'\xa3Dj:'
p1542
tp1543
Rp1544
tp1545
a(g135
g6
(g18
S'\xa7>#:'
p1546
tp1547
Rp1548
tp1549
asg73
g15
sa(dp1550
g2
S'../../../data/emanuela/activity-recognition/images/NTCIR-Lifelog-256/u3/2015-07-11/b00000130_21i79q_20150711_075555e.jpg'
p1551
sg4
(lp1552
(g15
g6
(g18
S't\x13q?'
p1553
tp1554
Rp1555
tp1556
a(g274
g6
(g18
S'\x8fwQ='
p1557
tp1558
Rp1559
tp1560
a(g68
g6
(g18
S"' E;"
p1561
tp1562
Rp1563
tp1564
a(g135
g6
(g18
S'\\\x12\x9d:'
p1565
tp1566
Rp1567
tp1568
a(g174
g6
(g18
S'\xb3~~:'
p1569
tp1570
Rp1571
tp1572
asg73
g15
sa(dp1573
g2
S'../../../data/emanuela/activity-recognition/images/NTCIR-Lifelog-256/u2/2015-05-03/b00003778_21i7lf_20150503_144156e.jpg'
p1574
sg4
(lp1575
(g15
g6
(g18
S'/4\x7f?'
p1576
tp1577
Rp1578
tp1579
a(g104
g6
(g18
S'\x9c\xf5$:'
p1580
tp1581
Rp1582
tp1583
a(g68
g6
(g18
S'l\xa6\xd49'
p1584
tp1585
Rp1586
tp1587
a(g201
g6
(g18
S'\xedd\xa39'
p1588
tp1589
Rp1590
tp1591
a(g56
g6
(g18
S'|V\xa39'
p1592
tp1593
Rp1594
tp1595
asg73
g15
sa(dp1596
g2
S'../../../data/emanuela/activity-recognition/images/NTCIR-Lifelog-256/u3/2015-07-18/b00000144_21i79q_20150718_124322e.jpg'
p1597
sg4
(lp1598
(g92
g6
(g18
S'"Z\xcc>'
p1599
tp1600
Rp1601
tp1602
a(g174
g6
(g18
S'\xf3^\x97>'
p1603
tp1604
Rp1605
tp1606
a(g44
g6
(g18
S'3\xbbS='
p1607
tp1608
Rp1609
tp1610
a(g421
g6
(g18
S'\xc4\x80S='
p1611
tp1612
Rp1613
tp1614
a(g732
g6
(g18
S'\xec=1='
p1615
tp1616
Rp1617
tp1618
asg73
g15
sa(dp1619
g2
S'../../../data/emanuela/activity-recognition/images/NTCIR-Lifelog-256/u3/2015-07-18/b00000183_21i79q_20150718_130721e.jpg'
p1620
sg4
(lp1621
(g44
g6
(g18
S"\xe2\x80'?"
p1622
tp1623
Rp1624
tp1625
a(g15
g6
(g18
S'/\xaeS>'
p1626
tp1627
Rp1628
tp1629
a(g732
g6
(g18
S'R$\xd0<'
p1630
tp1631
Rp1632
tp1633
a(g68
g6
(g18
S'0G\x99<'
p1634
tp1635
Rp1636
tp1637
a(g92
g6
(g18
S'\x1c\x1f\x93<'
p1638
tp1639
Rp1640
tp1641
asg73
g15
sa(dp1642
g2
S'../../../data/emanuela/activity-recognition/images/NTCIR-Lifelog-256/u3/2015-07-11/b00000254_21i79q_20150711_091122e.jpg'
p1643
sg4
(lp1644
(g15
g6
(g18
S'\xb7aU?'
p1645
tp1646
Rp1647
tp1648
a(g274
g6
(g18
S'\xf5\xdc\x8f='
p1649
tp1650
Rp1651
tp1652
a(g294
g6
(g18
S'|\xda\xfb<'
p1653
tp1654
Rp1655
tp1656
a(g68
g6
(g18
S'\xc0\x02\xd3<'
p1657
tp1658
Rp1659
tp1660
a(g421
g6
(g18
S'\xc6T\x98<'
p1661
tp1662
Rp1663
tp1664
asg73
g15
sa(dp1665
g2
S'../../../data/emanuela/activity-recognition/images/NTCIR-Lifelog-256/u3/2015-07-28/b00003135_21i79q_20150728_160257e.jpg'
p1666
sg4
(lp1667
(g92
g6
(g18
S'\x1aK\x0c?'
p1668
tp1669
Rp1670
tp1671
a(g116
g6
(g18
S'\x06\x84\xc7='
p1672
tp1673
Rp1674
tp1675
a(g68
g6
(g18
S'7\x84\xb3='
p1676
tp1677
Rp1678
tp1679
a(g104
g6
(g18
S'\x9a\xfb\x97='
p1680
tp1681
Rp1682
tp1683
a(g15
g6
(g18
S',\xdda='
p1684
tp1685
Rp1686
tp1687
asg73
g15
sa(dp1688
g2
S'../../../data/emanuela/activity-recognition/images/NTCIR-Lifelog-256/u3/2015-07-18/b00000029_21i79q_20150718_113820e.jpg'
p1689
sg4
(lp1690
(g15
g6
(g18
S'\x0e\x9f`?'
p1691
tp1692
Rp1693
tp1694
a(g44
g6
(g18
S'C\xd7_='
p1695
tp1696
Rp1697
tp1698
a(g92
g6
(g18
S'\xf4\x7f\x01<'
p1699
tp1700
Rp1701
tp1702
a(g174
g6
(g18
S'\xb0\x04\xf6;'
p1703
tp1704
Rp1705
tp1706
a(g104
g6
(g18
S'y`\xc1;'
p1707
tp1708
Rp1709
tp1710
asg73
g15
sa(dp1711
g2
S'../../../data/emanuela/activity-recognition/images/NTCIR-Lifelog-256/u3/2015-07-11/b00000087_21i79q_20150711_073133e.jpg'
p1712
sg4
(lp1713
(g15
g6
(g18
S'>\xe5\xe7>'
p1714
tp1715
Rp1716
tp1717
a(g274
g6
(g18
S'\x181\x8d>'
p1718
tp1719
Rp1720
tp1721
a(g68
g6
(g18
S'6\xaf%>'
p1722
tp1723
Rp1724
tp1725
a(g135
g6
(g18
S'\xa5o\x04='
p1726
tp1727
Rp1728
tp1729
a(g294
g6
(g18
S'+P\xb2<'
p1730
tp1731
Rp1732
tp1733
asg73
g15
sa(dp1734
g2
S'../../../data/emanuela/activity-recognition/images/NTCIR-Lifelog-256/u3/2015-07-11/b00001665_21i79q_20150711_230705e.jpg'
p1735
sg4
(lp1736
(g15
g6
(g18
S'\xdc\xd9]?'
p1737
tp1738
Rp1739
tp1740
a(g201
g6
(g18
S'\x87\xcd\xb4='
p1741
tp1742
Rp1743
tp1744
a(g104
g6
(g18
S'5]\x9e<'
p1745
tp1746
Rp1747
tp1748
a(g44
g6
(g18
S'\xc8\x0f/<'
p1749
tp1750
Rp1751
tp1752
a(g878
g6
(g18
S'\x04\xf9\x91;'
p1753
tp1754
Rp1755
tp1756
asg73
g15
sa(dp1757
g2
S'../../../data/emanuela/activity-recognition/images/NTCIR-Lifelog-256/u3/2015-07-28/b00003015_21i79q_20150728_145129e.jpg'
p1758
sg4
(lp1759
(g92
g6
(g18
S'4e\xcf>'
p1760
tp1761
Rp1762
tp1763
a(g15
g6
(g18
S'a\x03\x8a>'
p1764
tp1765
Rp1766
tp1767
a(g116
g6
(g18
S'L\x8a\x15>'
p1768
tp1769
Rp1770
tp1771
a(g104
g6
(g18
S'\\\xa0\x81='
p1772
tp1773
Rp1774
tp1775
a(g421
g6
(g18
S'\xb7\x83D='
p1776
tp1777
Rp1778
tp1779
asg73
g15
sa(dp1780
g2
S'../../../data/emanuela/activity-recognition/images/NTCIR-Lifelog-256/u3/2015-07-28/b00003017_21i79q_20150728_145238e.jpg'
p1781
sg4
(lp1782
(g15
g6
(g18
S'\xc3\x84v?'
p1783
tp1784
Rp1785
tp1786
a(g92
g6
(g18
S'\x99\xe98<'
p1787
tp1788
Rp1789
tp1790
a(g116
g6
(g18
S'\xcf\xbc\xe5;'
p1791
tp1792
Rp1793
tp1794
a(g421
g6
(g18
S'\x11\xb7@;'
p1795
tp1796
Rp1797
tp1798
a(g135
g6
(g18
S':l7;'
p1799
tp1800
Rp1801
tp1802
asg73
g15
sa(dp1803
g2
S'../../../data/emanuela/activity-recognition/images/NTCIR-Lifelog-256/u3/2015-07-11/b00000030_21i79q_20150711_065508e.jpg'
p1804
sg4
(lp1805
(g15
g6
(g18
S'\xc2zu?'
p1806
tp1807
Rp1808
tp1809
a(g68
g6
(g18
S'\x8aS\xc6<'
p1810
tp1811
Rp1812
tp1813
a(g421
g6
(g18
S'\xc0\xa2\xdf;'
p1814
tp1815
Rp1816
tp1817
a(g56
g6
(g18
S'\x0e;K;'
p1818
tp1819
Rp1820
tp1821
a(g274
g6
(g18
S's\xc2\n;'
p1822
tp1823
Rp1824
tp1825
asg73
g15
sa(dp1826
g2
S'../../../data/emanuela/activity-recognition/images/NTCIR-Lifelog-256/u3/2015-07-18/b00000118_21i79q_20150718_123316e.jpg'
p1827
sg4
(lp1828
(g15
g6
(g18
S'\x13@\xf5>'
p1829
tp1830
Rp1831
tp1832
a(g56
g6
(g18
S'\xbbT\x89>'
p1833
tp1834
Rp1835
tp1836
a(g878
g6
(g18
S'\xee6K='
p1837
tp1838
Rp1839
tp1840
a(g201
g6
(g18
S'i|*='
p1841
tp1842
Rp1843
tp1844
a(g174
g6
(g18
S'\xe6H\x12='
p1845
tp1846
Rp1847
tp1848
asg73
g15
sa(dp1849
g2
S'../../../data/emanuela/activity-recognition/images/NTCIR-Lifelog-256/u1/2015-03-06/b00000235_21i6bq_20150306_075124e.jpg'
p1850
sg4
(lp1851
(g15
g6
(g18
S'\xb1\xba\xcc>'
p1852
tp1853
Rp1854
tp1855
a(g68
g6
(g18
S'!"^>'
p1856
tp1857
Rp1858
tp1859
a(g56
g6
(g18
S'\x91\xcf\x10>'
p1860
tp1861
Rp1862
tp1863
a(g174
g6
(g18
S'C\x80\x85='
p1864
tp1865
Rp1866
tp1867
a(g274
g6
(g18
S'OFO='
p1868
tp1869
Rp1870
tp1871
asg73
g15
sa(dp1872
g2
S'../../../data/emanuela/activity-recognition/images/NTCIR-Lifelog-256/u3/2015-07-11/b00001137_21i79q_20150711_175040e.jpg'
p1873
sg4
(lp1874
(g878
g6
(g18
S',\xe5t?'
p1875
tp1876
Rp1877
tp1878
a(g201
g6
(g18
S'\xcc99<'
p1879
tp1880
Rp1881
tp1882
a(g135
g6
(g18
S'\x18\xef\x03<'
p1883
tp1884
Rp1885
tp1886
a(g15
g6
(g18
S'\xb97\xe7;'
p1887
tp1888
Rp1889
tp1890
a(g6
(g7
(S'S7'
p1891
I0
I1
tp1892
Rp1893
(I3
S'|'
p1894
NNNI7
I1
I0
tp1895
bS'meeting'
p1896
tp1897
Rp1898
g6
(g18
S'\xfc\x90\x9c;'
p1899
tp1900
Rp1901
tp1902
asg73
g15
sa(dp1903
g2
S'../../../data/emanuela/activity-recognition/images/NTCIR-Lifelog-256/u3/2015-07-11/b00000124_21i79q_20150711_075223e.jpg'
p1904
sg4
(lp1905
(g15
g6
(g18
S'P,q?'
p1906
tp1907
Rp1908
tp1909
a(g274
g6
(g18
S'\r\x9fN='
p1910
tp1911
Rp1912
tp1913
a(g68
g6
(g18
S'\xe2Xu;'
p1914
tp1915
Rp1916
tp1917
a(g174
g6
(g18
S'\xa8X\x88:'
p1918
tp1919
Rp1920
tp1921
a(g294
g6
(g18
S'KW6:'
p1922
tp1923
Rp1924
tp1925
asg73
g15
sa(dp1926
g2
S'../../../data/emanuela/activity-recognition/images/NTCIR-Lifelog-256/u3/2015-08-01/b00006484_21i79q_20150801_202958e.jpg'
p1927
sg4
(lp1928
(g15
g6
(g18
S'\x04>r?'
p1929
tp1930
Rp1931
tp1932
a(g44
g6
(g18
S'\x17D\x80<'
p1933
tp1934
Rp1935
tp1936
a(g92
g6
(g18
S'\x05\xd0\xfe;'
p1937
tp1938
Rp1939
tp1940
a(g421
g6
(g18
S'\xbf\xda\xfb;'
p1941
tp1942
Rp1943
tp1944
a(g56
g6
(g18
S'Od\xe9;'
p1945
tp1946
Rp1947
tp1948
asg73
g15
sa(dp1949
g2
S'../../../data/emanuela/activity-recognition/images/NTCIR-Lifelog-256/u3/2015-07-11/b00000009_21i79q_20150711_064322e.jpg'
p1950
sg4
(lp1951
(g15
g6
(g18
S'\xca\x91v?'
p1952
tp1953
Rp1954
tp1955
a(g68
g6
(g18
S'^w\xf8<'
p1956
tp1957
Rp1958
tp1959
a(g274
g6
(g18
S'O\x0e3;'
p1960
tp1961
Rp1962
tp1963
a(g421
g6
(g18
S'D\x9b\xbd:'
p1964
tp1965
Rp1966
tp1967
a(g56
g6
(g18
S'\x03;L:'
p1968
tp1969
Rp1970
tp1971
asg73
g15
sa(dp1972
g2
S'../../../data/emanuela/activity-recognition/images/NTCIR-Lifelog-256/u2/2015-06-20/b00004623_21i7lf_20150620_125419e.jpg'
p1973
sg4
(lp1974
(g135
g6
(g18
S'\xc7\x1d>?'
p1975
tp1976
Rp1977
tp1978
a(g15
g6
(g18
S'%\xd5x='
p1979
tp1980
Rp1981
tp1982
a(g32
g6
(g18
S'\x88\xc4=='
p1983
tp1984
Rp1985
tp1986
a(g878
g6
(g18
S"\xb8\x10'="
p1987
tp1988
Rp1989
tp1990
a(g201
g6
(g18
S'b\xaf\xc6<'
p1991
tp1992
Rp1993
tp1994
asg73
g15
sa(dp1995
g2
S'../../../data/emanuela/activity-recognition/images/NTCIR-Lifelog-256/u3/2015-07-25/b00001095_21i79q_20150725_143345e.jpg'
p1996
sg4
(lp1997
(g15
g6
(g18
S'q\xd29?'
p1998
tp1999
Rp2000
tp2001
a(g44
g6
(g18
S'\x1a\x8fa>'
p2002
tp2003
Rp2004
tp2005
a(g92
g6
(g18
S'\xee\x06\x0f<'
p2006
tp2007
Rp2008
tp2009
a(g274
g6
(g18
S'"$\xef;'
p2010
tp2011
Rp2012
tp2013
a(g104
g6
(g18
S'\x8dh\xe8;'
p2014
tp2015
Rp2016
tp2017
asg73
g15
sa(dp2018
g2
S'../../../data/emanuela/activity-recognition/images/NTCIR-Lifelog-256/u2/2015-06-16/b00001343_21i7lf_20150616_071648e.jpg'
p2019
sg4
(lp2020
(g15
g6
(g18
S'\x99+\x7f?'
p2021
tp2022
Rp2023
tp2024
a(g32
g6
(g18
S'\xd0q\xd8:'
p2025
tp2026
Rp2027
tp2028
a(g135
g6
(g18
S'\x1d\r\x85:'
p2029
tp2030
Rp2031
tp2032
a(g44
g6
(g18
S'@(\xa89'
p2033
tp2034
Rp2035
tp2036
a(g201
g6
(g18
S'\x96\x91\xab8'
p2037
tp2038
Rp2039
tp2040
asg73
g15
sa(dp2041
g2
S'../../../data/emanuela/activity-recognition/images/NTCIR-Lifelog-256/u2/2015-06-18/b00002841_21i7lf_20150618_123442e.jpg'
p2042
sg4
(lp2043
(g15
g6
(g18
S'\x16\xa7\xee>'
p2044
tp2045
Rp2046
tp2047
a(g135
g6
(g18
S'B\xdbZ>'
p2048
tp2049
Rp2050
tp2051
a(g363
g6
(g18
S'\xa8^;>'
p2052
tp2053
Rp2054
tp2055
a(g32
g6
(g18
S'q\xce\xfb='
p2056
tp2057
Rp2058
tp2059
a(g274
g6
(g18
S'\x8c\x91z;'
p2060
tp2061
Rp2062
tp2063
asg73
g15
sa(dp2064
g2
S'../../../data/emanuela/activity-recognition/images/NTCIR-Lifelog-256/u3/2015-08-03/b00000127_21i79q_20150803_130935e.jpg'
p2065
sg4
(lp2066
(g15
g6
(g18
S'P\xe4\xfc>'
p2067
tp2068
Rp2069
tp2070
a(g44
g6
(g18
S';N\x01>'
p2071
tp2072
Rp2073
tp2074
a(g201
g6
(g18
S'}\x0c\x9c='
p2075
tp2076
Rp2077
tp2078
a(g116
g6
(g18
S'\xac\xf9\x8e='
p2079
tp2080
Rp2081
tp2082
a(g92
g6
(g18
S'\xbb3\x14='
p2083
tp2084
Rp2085
tp2086
asg73
g15
sa(dp2087
g2
S'../../../data/emanuela/activity-recognition/images/NTCIR-Lifelog-256/u3/2015-07-25/b00001120_21i79q_20150725_144735e.jpg'
p2088
sg4
(lp2089
(g15
g6
(g18
S'\xc3z~?'
p2090
tp2091
Rp2092
tp2093
a(g44
g6
(g18
S'\x10\xb0\xdb:'
p2094
tp2095
Rp2096
tp2097
a(g56
g6
(g18
S'P\xcc\xad:'
p2098
tp2099
Rp2100
tp2101
a(g68
g6
(g18
S'`\xae::'
p2102
tp2103
Rp2104
tp2105
a(g32
g6
(g18
S'8\xfb!:'
p2106
tp2107
Rp2108
tp2109
asg73
g15
sa(dp2110
g2
S'../../../data/emanuela/activity-recognition/images/NTCIR-Lifelog-256/u2/2015-05-03/b00003769_21i7lf_20150503_143624e.jpg'
p2111
sg4
(lp2112
(g15
g6
(g18
S'\x1a\xb5~?'
p2113
tp2114
Rp2115
tp2116
a(g68
g6
(g18
S'N\xe9\x0f;'
p2117
tp2118
Rp2119
tp2120
a(g201
g6
(g18
S'N>\n:'
p2121
tp2122
Rp2123
tp2124
a(g92
g6
(g18
S'Ft\xf99'
p2125
tp2126
Rp2127
tp2128
a(g421
g6
(g18
S'\x8d!\xb29'
p2129
tp2130
Rp2131
tp2132
asg73
g15
sa(dp2133
g2
S'../../../data/emanuela/activity-recognition/images/NTCIR-Lifelog-256/u2/2015-06-18/b00002603_21i7lf_20150618_095746e.jpg'
p2134
sg4
(lp2135
(g15
g6
(g18
S'\xd9\xc2x?'
p2136
tp2137
Rp2138
tp2139
a(g135
g6
(g18
S'\xe7\xbc\xd0<'
p2140
tp2141
Rp2142
tp2143
a(g363
g6
(g18
S'\x85\xa7\xe4:'
p2144
tp2145
Rp2146
tp2147
a(g32
g6
(g18
S'4\x8c*:'
p2148
tp2149
Rp2150
tp2151
a(g44
g6
(g18
S'\x1c\xd2\x179'
p2152
tp2153
Rp2154
tp2155
asg73
g15
sa(dp2156
g2
S'../../../data/emanuela/activity-recognition/images/NTCIR-Lifelog-256/u3/2015-07-27/b00001801_21i79q_20150727_105455e.jpg'
p2157
sg4
(lp2158
(g15
g6
(g18
S'\xf4\x10]?'
p2159
tp2160
Rp2161
tp2162
a(g44
g6
(g18
S'\xecJ\xce<'
p2163
tp2164
Rp2165
tp2166
a(g32
g6
(g18
S'\xa3F\xae<'
p2167
tp2168
Rp2169
tp2170
a(g135
g6
(g18
S'^6\xab<'
p2171
tp2172
Rp2173
tp2174
a(g68
g6
(g18
S'\x03/\x85<'
p2175
tp2176
Rp2177
tp2178
asg73
g15
sa(dp2179
g2
S'../../../data/emanuela/activity-recognition/images/NTCIR-Lifelog-256/u3/2015-08-01/b00006141_21i79q_20150801_123838e.jpg'
p2180
sg4
(lp2181
(g15
g6
(g18
S'\x91#~?'
p2182
tp2183
Rp2184
tp2185
a(g44
g6
(g18
S'\x89\xba\x9e;'
p2186
tp2187
Rp2188
tp2189
a(g201
g6
(g18
S'\xe9\xb9`:'
p2190
tp2191
Rp2192
tp2193
a(g104
g6
(g18
S'\x17\xd9z9'
p2194
tp2195
Rp2196
tp2197
a(g32
g6
(g18
S'\xa2\x0fo9'
p2198
tp2199
Rp2200
tp2201
asg73
g15
sa(dp2202
g2
S'../../../data/emanuela/activity-recognition/images/NTCIR-Lifelog-256/u3/2015-07-28/b00003036_21i79q_20150728_150325e.jpg'
p2203
sg4
(lp2204
(g15
g6
(g18
S'K\xa2}?'
p2205
tp2206
Rp2207
tp2208
a(g68
g6
(g18
S'\xb8\xf1\x13;'
p2209
tp2210
Rp2211
tp2212
a(g135
g6
(g18
S'\x01<\xc4:'
p2213
tp2214
Rp2215
tp2216
a(g92
g6
(g18
S'\xdb\x0e\x9d:'
p2217
tp2218
Rp2219
tp2220
a(g421
g6
(g18
S'\x0fB\x86:'
p2221
tp2222
Rp2223
tp2224
asg73
g15
sa(dp2225
g2
S'../../../data/emanuela/activity-recognition/images/NTCIR-Lifelog-256/u3/2015-07-18/b00000050_21i79q_20150718_115303e.jpg'
p2226
sg4
(lp2227
(g15
g6
(g18
S'\xb7\xbd^?'
p2228
tp2229
Rp2230
tp2231
a(g878
g6
(g18
S'\xc3\x7f\xc8<'
p2232
tp2233
Rp2234
tp2235
a(g32
g6
(g18
S'B\x11\xa9<'
p2236
tp2237
Rp2238
tp2239
a(g201
g6
(g18
S'\x81\xf1\x98<'
p2240
tp2241
Rp2242
tp2243
a(g174
g6
(g18
S'\x1d\xf32<'
p2244
tp2245
Rp2246
tp2247
asg73
g15
sa(dp2248
g2
S'../../../data/emanuela/activity-recognition/images/NTCIR-Lifelog-256/u3/2015-07-18/b00000190_21i79q_20150718_131132e.jpg'
p2249
sg4
(lp2250
(g15
g6
(g18
S'\x0e\xc74?'
p2251
tp2252
Rp2253
tp2254
a(g56
g6
(g18
S'\xf8s\x1e>'
p2255
tp2256
Rp2257
tp2258
a(g878
g6
(g18
S'Qm3='
p2259
tp2260
Rp2261
tp2262
a(g201
g6
(g18
S'\xb6\xac\x86<'
p2263
tp2264
Rp2265
tp2266
a(g32
g6
(g18
S'\x1f\xe2\x82<'
p2267
tp2268
Rp2269
tp2270
asg73
g15
sa(dp2271
g2
S'../../../data/emanuela/activity-recognition/images/NTCIR-Lifelog-256/u3/2015-07-18/b00000069_21i79q_20150718_120356e.jpg'
p2272
sg4
(lp2273
(g15
g6
(g18
S'L\xe0T?'
p2274
tp2275
Rp2276
tp2277
a(g44
g6
(g18
S'<\xca\x1d='
p2278
tp2279
Rp2280
tp2281
a(g174
g6
(g18
S'\x9f\x01\xf3<'
p2282
tp2283
Rp2284
tp2285
a(g274
g6
(g18
S'J\x88\xd7<'
p2286
tp2287
Rp2288
tp2289
a(g92
g6
(g18
S'\xf8 \x91<'
p2290
tp2291
Rp2292
tp2293
asg73
g15
sa(dp2294
g2
S'../../../data/emanuela/activity-recognition/images/NTCIR-Lifelog-256/u3/2015-08-01/b00006091_21i79q_20150801_121132e.jpg'
p2295
sg4
(lp2296
(g15
g6
(g18
S'\xf5\xa4{?'
p2297
tp2298
Rp2299
tp2300
a(g44
g6
(g18
S'g\xb9F<'
p2301
tp2302
Rp2303
tp2304
a(g201
g6
(g18
S'z\x1cA:'
p2305
tp2306
Rp2307
tp2308
a(g116
g6
(g18
S'\x93\xa50:'
p2309
tp2310
Rp2311
tp2312
a(g421
g6
(g18
S'\xe4>\xe79'
p2313
tp2314
Rp2315
tp2316
asg73
g15
sa(dp2317
g2
S'../../../data/emanuela/activity-recognition/images/NTCIR-Lifelog-256/u3/2015-07-25/b00001731_21i79q_20150725_233558e.jpg'
p2318
sg4
(lp2319
(g15
g6
(g18
S'\xe5(l?'
p2320
tp2321
Rp2322
tp2323
a(g44
g6
(g18
S'\x19l\x84='
p2324
tp2325
Rp2326
tp2327
a(g92
g6
(g18
S'$sZ;'
p2328
tp2329
Rp2330
tp2331
a(g104
g6
(g18
S'\xf4\x814;'
p2332
tp2333
Rp2334
tp2335
a(g274
g6
(g18
S"'K\xca:"
p2336
tp2337
Rp2338
tp2339
asg73
g15
sa(dp2340
g2
S'../../../data/emanuela/activity-recognition/images/NTCIR-Lifelog-256/u3/2015-07-18/b00000085_21i79q_20150718_121322e.jpg'
p2341
sg4
(lp2342
(g15
g6
(g18
S'\xf6\x87\xbd>'
p2343
tp2344
Rp2345
tp2346
a(g56
g6
(g18
S'S&U>'
p2347
tp2348
Rp2349
tp2350
a(g201
g6
(g18
S'\xd5\r?>'
p2351
tp2352
Rp2353
tp2354
a(g878
g6
(g18
S')v\xa3='
p2355
tp2356
Rp2357
tp2358
a(g32
g6
(g18
S'/\xb5|='
p2359
tp2360
Rp2361
tp2362
asg73
g15
sa(dp2363
g2
S'../../../data/emanuela/activity-recognition/images/NTCIR-Lifelog-256/u3/2015-07-28/b00003137_21i79q_20150728_160413e.jpg'
p2364
sg4
(lp2365
(g15
g6
(g18
S'"\x11T?'
p2366
tp2367
Rp2368
tp2369
a(g92
g6
(g18
S'8[\x8b='
p2370
tp2371
Rp2372
tp2373
a(g104
g6
(g18
S'\x11\xd5\x0f='
p2374
tp2375
Rp2376
tp2377
a(g68
g6
(g18
S'\x03\xf5/<'
p2378
tp2379
Rp2380
tp2381
a(g174
g6
(g18
S']n+<'
p2382
tp2383
Rp2384
tp2385
asg73
g15
sa(dp2386
g2
S'../../../data/emanuela/activity-recognition/images/NTCIR-Lifelog-256/u3/2015-07-11/b00001629_21i79q_20150711_224608e.jpg'
p2387
sg4
(lp2388
(g44
g6
(g18
S'\x7f\xa4^?'
p2389
tp2390
Rp2391
tp2392
a(g15
g6
(g18
S'A=\xef='
p2393
tp2394
Rp2395
tp2396
a(g104
g6
(g18
S'\x80Qc;'
p2397
tp2398
Rp2399
tp2400
a(g32
g6
(g18
S'Z\x8a`;'
p2401
tp2402
Rp2403
tp2404
a(g92
g6
(g18
S'9\x95.;'
p2405
tp2406
Rp2407
tp2408
asg73
g15
sa(dp2409
g2
S'../../../data/emanuela/activity-recognition/images/NTCIR-Lifelog-256/u3/2015-07-28/b00002969_21i79q_20150728_142350e.jpg'
p2410
sg4
(lp2411
(g15
g6
(g18
S':a~?'
p2412
tp2413
Rp2414
tp2415
a(g56
g6
(g18
S'^\x15\x0e;'
p2416
tp2417
Rp2418
tp2419
a(g44
g6
(g18
S'\xc7\x82\x9c:'
p2420
tp2421
Rp2422
tp2423
a(g274
g6
(g18
S'>]L:'
p2424
tp2425
Rp2426
tp2427
a(g68
g6
(g18
S'\tI\x0e:'
p2428
tp2429
Rp2430
tp2431
asg73
g15
sa(dp2432
g2
S'../../../data/emanuela/activity-recognition/images/NTCIR-Lifelog-256/u3/2015-07-15/b00000200_21i79q_20150715_135527e.jpg'
p2433
sg4
(lp2434
(g15
g6
(g18
S'\xa3\xe9\x11?'
p2435
tp2436
Rp2437
tp2438
a(g274
g6
(g18
S'\xd4\x8a,>'
p2439
tp2440
Rp2441
tp2442
a(g68
g6
(g18
S'\xb9\xf2\xd7='
p2443
tp2444
Rp2445
tp2446
a(g174
g6
(g18
S'\x05d\x19='
p2447
tp2448
Rp2449
tp2450
a(g56
g6
(g18
S'\xddi\x9e<'
p2451
tp2452
Rp2453
tp2454
asg73
g15
sa(dp2455
g2
S'../../../data/emanuela/activity-recognition/images/NTCIR-Lifelog-256/u3/2015-07-29/b00003946_21i79q_20150729_133202e.jpg'
p2456
sg4
(lp2457
(g15
g6
(g18
S'+2S?'
p2458
tp2459
Rp2460
tp2461
a(g135
g6
(g18
S'\xe4f\xd4='
p2462
tp2463
Rp2464
tp2465
a(g201
g6
(g18
S'\xa3\xf0\x8f<'
p2466
tp2467
Rp2468
tp2469
a(g32
g6
(g18
S'#\xf7f<'
p2470
tp2471
Rp2472
tp2473
a(g878
g6
(g18
S'}\\F<'
p2474
tp2475
Rp2476
tp2477
asg73
g15
sa(dp2478
g2
S'../../../data/emanuela/activity-recognition/images/NTCIR-Lifelog-256/u1/2015-03-16/b00002573_21i6bq_20150316_171336e.jpg'
p2479
sg4
(lp2480
(g15
g6
(g18
S'o\x15(?'
p2481
tp2482
Rp2483
tp2484
a(g135
g6
(g18
S'\xe9\x96\xb0='
p2485
tp2486
Rp2487
tp2488
a(g201
g6
(g18
S'\x9dz\x9d='
p2489
tp2490
Rp2491
tp2492
a(g32
g6
(g18
S'\xe9\\\x91='
p2493
tp2494
Rp2495
tp2496
a(g878
g6
(g18
S'(\xe5*='
p2497
tp2498
Rp2499
tp2500
asg73
g15
sa(dp2501
g2
S'../../../data/emanuela/activity-recognition/images/NTCIR-Lifelog-256/u3/2015-07-11/b00001132_21i79q_20150711_174744e.jpg'
p2502
sg4
(lp2503
(g15
g6
(g18
S'x_$?'
p2504
tp2505
Rp2506
tp2507
a(g878
g6
(g18
S'\xc9\x96\x08>'
p2508
tp2509
Rp2510
tp2511
a(g135
g6
(g18
S'\x80T\x8d='
p2512
tp2513
Rp2514
tp2515
a(g32
g6
(g18
S'"!\xda<'
p2516
tp2517
Rp2518
tp2519
a(g421
g6
(g18
S'l\x81\xc5<'
p2520
tp2521
Rp2522
tp2523
asg73
g15
sa(dp2524
g2
S'../../../data/emanuela/activity-recognition/images/NTCIR-Lifelog-256/u3/2015-07-18/b00000147_21i79q_20150718_124512e.jpg'
p2525
sg4
(lp2526
(g15
g6
(g18
S'\x9a\x9ab?'
p2527
tp2528
Rp2529
tp2530
a(g274
g6
(g18
S'\x1a\x95M='
p2531
tp2532
Rp2533
tp2534
a(g44
g6
(g18
S'\xb7\xb0\x8b<'
p2535
tp2536
Rp2537
tp2538
a(g68
g6
(g18
S'?7w<'
p2539
tp2540
Rp2541
tp2542
a(g135
g6
(g18
S'\x97\\\xb8;'
p2543
tp2544
Rp2545
tp2546
asg73
g15
sa(dp2547
g2
S'../../../data/emanuela/activity-recognition/images/NTCIR-Lifelog-256/u1/2015-03-06/b00000232_21i6bq_20150306_074924e.jpg'
p2548
sg4
(lp2549
(g15
g6
(g18
S'6\xd78?'
p2550
tp2551
Rp2552
tp2553
a(g68
g6
(g18
S'S6\xb3='
p2554
tp2555
Rp2556
tp2557
a(g274
g6
(g18
S'\x8f\x90C='
p2558
tp2559
Rp2560
tp2561
a(g56
g6
(g18
S'F\xb4)='
p2562
tp2563
Rp2564
tp2565
a(g174
g6
(g18
S'5)\x08='
p2566
tp2567
Rp2568
tp2569
asg73
g15
sa(dp2570
g2
S'../../../data/emanuela/activity-recognition/images/NTCIR-Lifelog-256/u3/2015-07-29/b00003947_21i79q_20150729_133240e.jpg'
p2571
sg4
(lp2572
(g15
g6
(g18
S'A\x95r?'
p2573
tp2574
Rp2575
tp2576
a(g135
g6
(g18
S'\x13\xc7\xa0<'
p2577
tp2578
Rp2579
tp2580
a(g32
g6
(g18
S'\xb5u\xf3;'
p2581
tp2582
Rp2583
tp2584
a(g421
g6
(g18
S'\x05\x18\xd2;'
p2585
tp2586
Rp2587
tp2588
a(g201
g6
(g18
S'gY\xb3;'
p2589
tp2590
Rp2591
tp2592
asg73
g15
sa(dp2593
g2
S'../../../data/emanuela/activity-recognition/images/NTCIR-Lifelog-256/u1/2015-03-08/b00000567_21i6bq_20150308_135006e.jpg'
p2594
sg4
(lp2595
(g15
g6
(g18
S'S\xed7?'
p2596
tp2597
Rp2598
tp2599
a(g274
g6
(g18
S'\x9aF\xa3='
p2600
tp2601
Rp2602
tp2603
a(g135
g6
(g18
S'T{\x87='
p2604
tp2605
Rp2606
tp2607
a(g68
g6
(g18
S'\xa9\xe1E='
p2608
tp2609
Rp2610
tp2611
a(g56
g6
(g18
S'\xee\t\xe2<'
p2612
tp2613
Rp2614
tp2615
asg73
g15
sa(dp2616
g2
S'../../../data/emanuela/activity-recognition/images/NTCIR-Lifelog-256/u3/2015-07-18/b00000051_21i79q_20150718_115341e.jpg'
p2617
sg4
(lp2618
(g15
g6
(g18
S'\x1e\x80\xde>'
p2619
tp2620
Rp2621
tp2622
a(g201
g6
(g18
S'\xae}\x06>'
p2623
tp2624
Rp2625
tp2626
a(g878
g6
(g18
S'eQ\xef='
p2627
tp2628
Rp2629
tp2630
a(g174
g6
(g18
S'\x1a\x11\x9f='
p2631
tp2632
Rp2633
tp2634
a(g56
g6
(g18
S' <j='
p2635
tp2636
Rp2637
tp2638
asg73
g15
sa(dp2639
g2
S'../../../data/emanuela/activity-recognition/images/NTCIR-Lifelog-256/u1/2015-03-16/b00002583_21i6bq_20150316_171424e.jpg'
p2640
sg4
(lp2641
(g15
g6
(g18
S'\xf6\x85\x1b?'
p2642
tp2643
Rp2644
tp2645
a(g135
g6
(g18
S'\xd0J\x11>'
p2646
tp2647
Rp2648
tp2649
a(g878
g6
(g18
S'\x1d\x1e\xbd='
p2650
tp2651
Rp2652
tp2653
a(g104
g6
(g18
S'\xe7\x0c\x99='
p2654
tp2655
Rp2656
tp2657
a(g201
g6
(g18
S'!\xde!='
p2658
tp2659
Rp2660
tp2661
asg73
g15
sa(dp2662
g2
S'../../../data/emanuela/activity-recognition/images/NTCIR-Lifelog-256/u3/2015-07-11/b00000018_21i79q_20150711_064820e.jpg'
p2663
sg4
(lp2664
(g15
g6
(g18
S'F\xdaL?'
p2665
tp2666
Rp2667
tp2668
a(g421
g6
(g18
S'\x98\xb5\x1f>'
p2669
tp2670
Rp2671
tp2672
a(g68
g6
(g18
S'\x93\xbb@<'
p2673
tp2674
Rp2675
tp2676
a(g56
g6
(g18
S'@\x0b/<'
p2677
tp2678
Rp2679
tp2680
a(g274
g6
(g18
S'YV\xf1;'
p2681
tp2682
Rp2683
tp2684
asg73
g15
sa(dp2685
g2
S'../../../data/emanuela/activity-recognition/images/NTCIR-Lifelog-256/u3/2015-07-11/b00000269_21i79q_20150711_092007e.jpg'
p2686
sg4
(lp2687
(g15
g6
(g18
S'\xfe\x8f2?'
p2688
tp2689
Rp2690
tp2691
a(g294
g6
(g18
S'6X\xc6='
p2692
tp2693
Rp2694
tp2695
a(g274
g6
(g18
S'\x0f.\x8a='
p2696
tp2697
Rp2698
tp2699
a(g68
g6
(g18
S'\x07ID='
p2700
tp2701
Rp2702
tp2703
a(g92
g6
(g18
S'(x\x18='
p2704
tp2705
Rp2706
tp2707
asg73
g15
sa(dp2708
g2
S'../../../data/emanuela/activity-recognition/images/NTCIR-Lifelog-256/u3/2015-07-18/b00000169_21i79q_20150718_125847e.jpg'
p2709
sg4
(lp2710
(g15
g6
(g18
S"'%{?"
p2711
tp2712
Rp2713
tp2714
a(g274
g6
(g18
S'\xed:\xdc;'
p2715
tp2716
Rp2717
tp2718
a(g44
g6
(g18
S'\x9aE\x84;'
p2719
tp2720
Rp2721
tp2722
a(g174
g6
(g18
S'B\xd3-;'
p2723
tp2724
Rp2725
tp2726
a(g68
g6
(g18
S'\x03\xab}:'
p2727
tp2728
Rp2729
tp2730
asg73
g15
sa(dp2731
g2
S'../../../data/emanuela/activity-recognition/images/NTCIR-Lifelog-256/u3/2015-06-21/b00000652_21i79q_20150621_184310e.jpg'
p2732
sg4
(lp2733
(g15
g6
(g18
S'\xb8E\xf5>'
p2734
tp2735
Rp2736
tp2737
a(g878
g6
(g18
S'uIh>'
p2738
tp2739
Rp2740
tp2741
a(g135
g6
(g18
S'\xe6\xd0\x1e>'
p2742
tp2743
Rp2744
tp2745
a(g201
g6
(g18
S'\xae[\x8c='
p2746
tp2747
Rp2748
tp2749
a(g104
g6
(g18
S"\x19'\xc0<"
p2750
tp2751
Rp2752
tp2753
asg73
g15
sa(dp2754
g2
S'../../../data/emanuela/activity-recognition/images/NTCIR-Lifelog-256/u3/2015-07-28/b00002692_21i79q_20150728_094211e.jpg'
p2755
sg4
(lp2756
(g15
g6
(g18
S'\xf7\xb8u?'
p2757
tp2758
Rp2759
tp2760
a(g92
g6
(g18
S'n\x84\x14<'
p2761
tp2762
Rp2763
tp2764
a(g104
g6
(g18
S'\xbb\xa3\xa7;'
p2765
tp2766
Rp2767
tp2768
a(g201
g6
(g18
S'\xe7\xea\x83;'
p2769
tp2770
Rp2771
tp2772
a(g116
g6
(g18
S'\xce^};'
p2773
tp2774
Rp2775
tp2776
asg73
g15
sa(dp2777
g2
S'../../../data/emanuela/activity-recognition/images/NTCIR-Lifelog-256/u3/2015-07-28/b00003141_21i79q_20150728_160625e.jpg'
p2778
sg4
(lp2779
(g15
g6
(g18
S'\xe52\r?'
p2780
tp2781
Rp2782
tp2783
a(g44
g6
(g18
S'\xc7\xcc\t>'
p2784
tp2785
Rp2786
tp2787
a(g732
g6
(g18
S'\x96\xf7\xb1='
p2788
tp2789
Rp2790
tp2791
a(g68
g6
(g18
S';2K='
p2792
tp2793
Rp2794
tp2795
a(g92
g6
(g18
S'\xe8z1='
p2796
tp2797
Rp2798
tp2799
asg73
g15
sa(dp2800
g2
S'../../../data/emanuela/activity-recognition/images/NTCIR-Lifelog-256/u3/2015-07-11/b00000055_21i79q_20150711_071043e.jpg'
p2801
sg4
(lp2802
(g294
g6
(g18
S's9r>'
p2803
tp2804
Rp2805
tp2806
a(g15
g6
(g18
S'\x96<+>'
p2807
tp2808
Rp2809
tp2810
a(g421
g6
(g18
S'\x1fd\x02>'
p2811
tp2812
Rp2813
tp2814
a(g92
g6
(g18
S'@<\xc3='
p2815
tp2816
Rp2817
tp2818
a(g104
g6
(g18
S')\x83z='
p2819
tp2820
Rp2821
tp2822
asg73
g15
sa(dp2823
g2
S'../../../data/emanuela/activity-recognition/images/NTCIR-Lifelog-256/u3/2015-07-29/b00004134_21i79q_20150729_154354e.jpg'
p2824
sg4
(lp2825
(g15
g6
(g18
S'\xd6\xa2}?'
p2826
tp2827
Rp2828
tp2829
a(g44
g6
(g18
S'FU\n<'
p2830
tp2831
Rp2832
tp2833
a(g68
g6
(g18
S'\x0c\xdc\\9'
p2834
tp2835
Rp2836
tp2837
a(g274
g6
(g18
S'\x81\x9d\xde8'
p2838
tp2839
Rp2840
tp2841
a(g92
g6
(g18
S'\x12\xaa\xaf8'
p2842
tp2843
Rp2844
tp2845
asg73
g15
sa(dp2846
g2
S'../../../data/emanuela/activity-recognition/images/NTCIR-Lifelog-256/u3/2015-07-11/b00001618_21i79q_20150711_223942e.jpg'
p2847
sg4
(lp2848
(g15
g6
(g18
S'\xdd\x98P?'
p2849
tp2850
Rp2851
tp2852
a(g135
g6
(g18
S'\xa5Y\x98='
p2853
tp2854
Rp2855
tp2856
a(g44
g6
(g18
S'\xd9\x9f\x15='
p2857
tp2858
Rp2859
tp2860
a(g32
g6
(g18
S')uo<'
p2861
tp2862
Rp2863
tp2864
a(g363
g6
(g18
S'\x12\x1fV<'
p2865
tp2866
Rp2867
tp2868
asg73
g15
sa(dp2869
g2
S'../../../data/emanuela/activity-recognition/images/NTCIR-Lifelog-256/u3/2015-08-03/b00000140_21i79q_20150803_131719e.jpg'
p2870
sg4
(lp2871
(g274
g6
(g18
S'=\xf3L?'
p2872
tp2873
Rp2874
tp2875
a(g174
g6
(g18
S'\xf0;\xc4='
p2876
tp2877
Rp2878
tp2879
a(g68
g6
(g18
S'\x01E1='
p2880
tp2881
Rp2882
tp2883
a(g15
g6
(g18
S'\x14\x93\xa0<'
p2884
tp2885
Rp2886
tp2887
a(g732
g6
(g18
S'\x9b\xf1 <'
p2888
tp2889
Rp2890
tp2891
asg73
g15
sa(dp2892
g2
S'../../../data/emanuela/activity-recognition/images/NTCIR-Lifelog-256/u3/2015-07-28/b00003745_21i79q_20150728_215623e.jpg'
p2893
sg4
(lp2894
(g15
g6
(g18
S'\x88g\xbc>'
p2895
tp2896
Rp2897
tp2898
a(g104
g6
(g18
S'\xe0jP>'
p2899
tp2900
Rp2901
tp2902
a(g92
g6
(g18
S'\x0e\xbd">'
p2903
tp2904
Rp2905
tp2906
a(g201
g6
(g18
S'F\xe8\x88='
p2907
tp2908
Rp2909
tp2910
a(g44
g6
(g18
S'z\x9at='
p2911
tp2912
Rp2913
tp2914
asg73
g15
sa(dp2915
g2
S'../../../data/emanuela/activity-recognition/images/NTCIR-Lifelog-256/u3/2015-07-11/b00000201_21i79q_20150711_084042e.jpg'
p2916
sg4
(lp2917
(g15
g6
(g18
S'+X{?'
p2918
tp2919
Rp2920
tp2921
a(g274
g6
(g18
S'\x8e\xff\x88<'
p2922
tp2923
Rp2924
tp2925
a(g68
g6
(g18
S'\x98\xbb-:'
p2926
tp2927
Rp2928
tp2929
a(g174
g6
(g18
S'\xb0HQ9'
p2930
tp2931
Rp2932
tp2933
a(g135
g6
(g18
S'L\x91#9'
p2934
tp2935
Rp2936
tp2937
asg73
g15
sa(dp2938
g2
S'../../../data/emanuela/activity-recognition/images/NTCIR-Lifelog-256/u3/2015-07-18/b00000176_21i79q_20150718_130317e.jpg'
p2939
sg4
(lp2940
(g15
g6
(g18
S' \x9dm?'
p2941
tp2942
Rp2943
tp2944
a(g44
g6
(g18
S'7\xe3C<'
p2945
tp2946
Rp2947
tp2948
a(g274
g6
(g18
S'\x897;<'
p2949
tp2950
Rp2951
tp2952
a(g174
g6
(g18
S'\xbf\x81\x10<'
p2953
tp2954
Rp2955
tp2956
a(g56
g6
(g18
S'L\xb2\x06<'
p2957
tp2958
Rp2959
tp2960
asg73
g15
sa(dp2961
g2
S'../../../data/emanuela/activity-recognition/images/NTCIR-Lifelog-256/u2/2015-06-16/b00001315_21i7lf_20150616_070022e.jpg'
p2962
sg4
(lp2963
(g15
g6
(g18
S'>Q\x04?'
p2964
tp2965
Rp2966
tp2967
a(g44
g6
(g18
S'"\x04\xf2>'
p2968
tp2969
Rp2970
tp2971
a(g135
g6
(g18
S'\xa4\x15\x03;'
p2972
tp2973
Rp2974
tp2975
a(g732
g6
(g18
S'\xef \xf7:'
p2976
tp2977
Rp2978
tp2979
a(g68
g6
(g18
S'\xedg\x8c:'
p2980
tp2981
Rp2982
tp2983
asg73
g15
sa(dp2984
g2
S'../../../data/emanuela/activity-recognition/images/NTCIR-Lifelog-256/u3/2015-07-11/b00000798_21i79q_20150711_142653e.jpg'
p2985
sg4
(lp2986
(g15
g6
(g18
S';BO?'
p2987
tp2988
Rp2989
tp2990
a(g135
g6
(g18
S's\x86\xdf='
p2991
tp2992
Rp2993
tp2994
a(g201
g6
(g18
S'\x08\xb9*='
p2995
tp2996
Rp2997
tp2998
a(g32
g6
(g18
S'ZM\x12<'
p2999
tp3000
Rp3001
tp3002
a(g878
g6
(g18
S'\xd8\xae\x00<'
p3003
tp3004
Rp3005
tp3006
asg73
g15
sa(dp3007
g2
S'../../../data/emanuela/activity-recognition/images/NTCIR-Lifelog-256/u3/2015-07-11/b00000257_21i79q_20150711_091302e.jpg'
p3008
sg4
(lp3009
(g294
g6
(g18
S'\x088\x8f>'
p3010
tp3011
Rp3012
tp3013
a(g15
g6
(g18
S'\x8d\x1e;>'
p3014
tp3015
Rp3016
tp3017
a(g68
g6
(g18
S'\xd8\xac6>'
p3018
tp3019
Rp3020
tp3021
a(g421
g6
(g18
S'\xef\xd6\xac='
p3022
tp3023
Rp3024
tp3025
a(g274
g6
(g18
S'@S\x9f='
p3026
tp3027
Rp3028
tp3029
asg73
g15
sa(dp3030
g2
S'../../../data/emanuela/activity-recognition/images/NTCIR-Lifelog-256/u3/2015-07-18/b00000089_21i79q_20150718_121543e.jpg'
p3031
sg4
(lp3032
(g15
g6
(g18
S'\xd0\x04c?'
p3033
tp3034
Rp3035
tp3036
a(g44
g6
(g18
S'\xc9i\xf4<'
p3037
tp3038
Rp3039
tp3040
a(g174
g6
(g18
S'\xce4{<'
p3041
tp3042
Rp3043
tp3044
a(g104
g6
(g18
S'\xe7\xf4Z<'
p3045
tp3046
Rp3047
tp3048
a(g92
g6
(g18
S'\xd4D\xdd;'
p3049
tp3050
Rp3051
tp3052
asg73
g15
sa(dp3053
g2
S'../../../data/emanuela/activity-recognition/images/NTCIR-Lifelog-256/u3/2015-07-18/b00000007_21i79q_20150718_112523e.jpg'
p3054
sg4
(lp3055
(g92
g6
(g18
S'?\xa4\x95>'
p3056
tp3057
Rp3058
tp3059
a(g104
g6
(g18
S'\xcd\xbf\x82>'
p3060
tp3061
Rp3062
tp3063
a(g15
g6
(g18
S'\xd3\x1e\t>'
p3064
tp3065
Rp3066
tp3067
a(g363
g6
(g18
S'.^\xa1='
p3068
tp3069
Rp3070
tp3071
a(g116
g6
(g18
S'>\xb2T='
p3072
tp3073
Rp3074
tp3075
asg73
g15
sa(dp3076
g2
S'../../../data/emanuela/activity-recognition/images/NTCIR-Lifelog-256/u3/2015-07-18/b00000094_21i79q_20150718_121845e.jpg'
p3077
sg4
(lp3078
(g15
g6
(g18
S'}vA?'
p3079
tp3080
Rp3081
tp3082
a(g44
g6
(g18
S'c\xe5)>'
p3083
tp3084
Rp3085
tp3086
a(g174
g6
(g18
S'\xb1b\x93<'
p3087
tp3088
Rp3089
tp3090
a(g104
g6
(g18
S'\xbf"A<'
p3091
tp3092
Rp3093
tp3094
a(g878
g6
(g18
S't\x0e\xec;'
p3095
tp3096
Rp3097
tp3098
asg73
g15
sa(dp3099
g2
S'../../../data/emanuela/activity-recognition/images/NTCIR-Lifelog-256/u2/2015-06-20/b00004236_21i7lf_20150620_091557e.jpg'
p3100
sg4
(lp3101
(g44
g6
(g18
S'S\x82Z?'
p3102
tp3103
Rp3104
tp3105
a(g15
g6
(g18
S'@\xcc\xf7='
p3106
tp3107
Rp3108
tp3109
a(g104
g6
(g18
S'H0\xb1;'
p3110
tp3111
Rp3112
tp3113
a(g92
g6
(g18
S'\xc4\x87\xa8;'
p3114
tp3115
Rp3116
tp3117
a(g274
g6
(g18
S"\x12'\x9c;"
p3118
tp3119
Rp3120
tp3121
asg73
g15
sa(dp3122
g2
S'../../../data/emanuela/activity-recognition/images/NTCIR-Lifelog-256/u3/2015-07-18/b00000103_21i79q_20150718_122422e.jpg'
p3123
sg4
(lp3124
(g92
g6
(g18
S'\xa6t\xc4>'
p3125
tp3126
Rp3127
tp3128
a(g68
g6
(g18
S'\xf5\x15\x0e>'
p3129
tp3130
Rp3131
tp3132
a(g15
g6
(g18
S'\x1a\xfc\xbd='
p3133
tp3134
Rp3135
tp3136
a(g201
g6
(g18
S':\xc2\x87='
p3137
tp3138
Rp3139
tp3140
a(g421
g6
(g18
S'\x12,\x87='
p3141
tp3142
Rp3143
tp3144
asg73
g15
sa(dp3145
g2
S'../../../data/emanuela/activity-recognition/images/NTCIR-Lifelog-256/u3/2015-07-25/b00001099_21i79q_20150725_143602e.jpg'
p3146
sg4
(lp3147
(g15
g6
(g18
S'\xdfdn?'
p3148
tp3149
Rp3150
tp3151
a(g44
g6
(g18
S'$\xe0\x83='
p3152
tp3153
Rp3154
tp3155
a(g274
g6
(g18
S';\x9e\x8c:'
p3156
tp3157
Rp3158
tp3159
a(g104
g6
(g18
S'\x01\xab\r:'
p3160
tp3161
Rp3162
tp3163
a(g32
g6
(g18
S'\xef\xd1\x08:'
p3164
tp3165
Rp3166
tp3167
asg73
g15
sa(dp3168
g2
S'../../../data/emanuela/activity-recognition/images/NTCIR-Lifelog-256/u2/2015-05-03/b00003788_21i7lf_20150503_144759e.jpg'
p3169
sg4
(lp3170
(g15
g6
(g18
S'\x85\xdf~?'
p3171
tp3172
Rp3173
tp3174
a(g201
g6
(g18
S'9\xb4\xae:'
p3175
tp3176
Rp3177
tp3178
a(g104
g6
(g18
S'\xaf\xa3~:'
p3179
tp3180
Rp3181
tp3182
a(g32
g6
(g18
S'\xf6D\xba9'
p3183
tp3184
Rp3185
tp3186
a(g44
g6
(g18
S'rJ\xb69'
p3187
tp3188
Rp3189
tp3190
asg73
g15
sa(dp3191
g2
S'../../../data/emanuela/activity-recognition/images/NTCIR-Lifelog-256/u3/2015-07-11/b00000265_21i79q_20150711_091743e.jpg'
p3192
sg4
(lp3193
(g15
g6
(g18
S'\xba\xffS?'
p3194
tp3195
Rp3196
tp3197
a(g274
g6
(g18
S'\xb7c\x84='
p3198
tp3199
Rp3200
tp3201
a(g174
g6
(g18
S'9\xca=='
p3202
tp3203
Rp3204
tp3205
a(g294
g6
(g18
S'\xf3\xd8\x99<'
p3206
tp3207
Rp3208
tp3209
a(g68
g6
(g18
S'=T;<'
p3210
tp3211
Rp3212
tp3213
asg73
g15
sa(dp3214
g2
S'../../../data/emanuela/activity-recognition/images/NTCIR-Lifelog-256/u3/2015-07-18/b00000012_21i79q_20150718_112810e.jpg'
p3215
sg4
(lp3216
(g44
g6
(g18
S'h\xcb\xdd>'
p3217
tp3218
Rp3219
tp3220
a(g15
g6
(g18
S'\xd4ff>'
p3221
tp3222
Rp3223
tp3224
a(g104
g6
(g18
S'\xf5)\x01>'
p3225
tp3226
Rp3227
tp3228
a(g92
g6
(g18
S'\x01J\xa7='
p3229
tp3230
Rp3231
tp3232
a(g32
g6
(g18
S'r\x0e\xe9<'
p3233
tp3234
Rp3235
tp3236
asg73
g15
sa(dp3237
g2
S'../../../data/emanuela/activity-recognition/images/NTCIR-Lifelog-256/u3/2015-08-03/b00000103_21i79q_20150803_125436e.jpg'
p3238
sg4
(lp3239
(g15
g6
(g18
S'\xe9\x15}?'
p3240
tp3241
Rp3242
tp3243
a(g68
g6
(g18
S'H\x1dt;'
p3244
tp3245
Rp3246
tp3247
a(g201
g6
(g18
S'\xf3#\xe1:'
p3248
tp3249
Rp3250
tp3251
a(g32
g6
(g18
S'*\x00\xd0:'
p3252
tp3253
Rp3254
tp3255
a(g56
g6
(g18
S'\xd9\xbak:'
p3256
tp3257
Rp3258
tp3259
asg73
g15
sa(dp3260
g2
S'../../../data/emanuela/activity-recognition/images/NTCIR-Lifelog-256/u3/2015-07-28/b00003737_21i79q_20150728_215146e.jpg'
p3261
sg4
(lp3262
(g15
g6
(g18
S'\x97\xa9\r?'
p3263
tp3264
Rp3265
tp3266
a(g44
g6
(g18
S'\x19>z>'
p3267
tp3268
Rp3269
tp3270
a(g104
g6
(g18
S'\xd7h\xad='
p3271
tp3272
Rp3273
tp3274
a(g92
g6
(g18
S'\xafx\xed<'
p3275
tp3276
Rp3277
tp3278
a(g201
g6
(g18
S'\xb1\xd2\xde<'
p3279
tp3280
Rp3281
tp3282
asg73
g15
sa(dp3283
g2
S'../../../data/emanuela/activity-recognition/images/NTCIR-Lifelog-256/u3/2015-07-11/b00000061_21i79q_20150711_071408e.jpg'
p3284
sg4
(lp3285
(g15
g6
(g18
S'\xf7\xa7z?'
p3286
tp3287
Rp3288
tp3289
a(g274
g6
(g18
S'\xf7\xf3\x93<'
p3290
tp3291
Rp3292
tp3293
a(g68
g6
(g18
S'\xf5\x83\x9f:'
p3294
tp3295
Rp3296
tp3297
a(g174
g6
(g18
S'\xce\xbf0:'
p3298
tp3299
Rp3300
tp3301
a(g135
g6
(g18
S'qN]9'
p3302
tp3303
Rp3304
tp3305
asg73
g15
sa(dp3306
g2
S'../../../data/emanuela/activity-recognition/images/NTCIR-Lifelog-256/u3/2015-07-28/b00003730_21i79q_20150728_214746e.jpg'
p3307
sg4
(lp3308
(g15
g6
(g18
S'2\xdcV?'
p3309
tp3310
Rp3311
tp3312
a(g44
g6
(g18
S'\x0c8\xcd='
p3313
tp3314
Rp3315
tp3316
a(g104
g6
(g18
S'}\x89\x1d='
p3317
tp3318
Rp3319
tp3320
a(g201
g6
(g18
S'\x96\xd9\xfc;'
p3321
tp3322
Rp3323
tp3324
a(g92
g6
(g18
S'h?\x8d;'
p3325
tp3326
Rp3327
tp3328
asg73
g15
sa(dp3329
g2
S'../../../data/emanuela/activity-recognition/images/NTCIR-Lifelog-256/u3/2015-07-15/b00000206_21i79q_20150715_135857e.jpg'
p3330
sg4
(lp3331
(g15
g6
(g18
S"\xd0\x9a'?"
p3332
tp3333
Rp3334
tp3335
a(g274
g6
(g18
S'\xed~\x1f>'
p3336
tp3337
Rp3338
tp3339
a(g68
g6
(g18
S'\xa1 \xbe='
p3340
tp3341
Rp3342
tp3343
a(g44
g6
(g18
S'\xa8\x01n<'
p3344
tp3345
Rp3346
tp3347
a(g174
g6
(g18
S'OGY<'
p3348
tp3349
Rp3350
tp3351
asg73
g15
sa(dp3352
g2
S'../../../data/emanuela/activity-recognition/images/NTCIR-Lifelog-256/u3/2015-07-11/b00000088_21i79q_20150711_073207e.jpg'
p3353
sg4
(lp3354
(g15
g6
(g18
S'\x9c\xf8\x0c?'
p3355
tp3356
Rp3357
tp3358
a(g274
g6
(g18
S'\xe4\xe8\x83>'
p3359
tp3360
Rp3361
tp3362
a(g68
g6
(g18
S'\xc7"\xee='
p3363
tp3364
Rp3365
tp3366
a(g135
g6
(g18
S'$\x96\xa5<'
p3367
tp3368
Rp3369
tp3370
a(g174
g6
(g18
S'\xc11\x84<'
p3371
tp3372
Rp3373
tp3374
asg73
g15
sa(dp3375
g2
S'../../../data/emanuela/activity-recognition/images/NTCIR-Lifelog-256/u3/2015-07-27/b00001810_21i79q_20150727_105955e.jpg'
p3376
sg4
(lp3377
(g15
g6
(g18
S'&\xd3Q?'
p3378
tp3379
Rp3380
tp3381
a(g44
g6
(g18
S'\x02\x82\x89='
p3382
tp3383
Rp3384
tp3385
a(g32
g6
(g18
S'\xdft\xa4<'
p3386
tp3387
Rp3388
tp3389
a(g56
g6
(g18
S'.\xebm<'
p3390
tp3391
Rp3392
tp3393
a(g135
g6
(g18
S'\x11\xeba<'
p3394
tp3395
Rp3396
tp3397
asg73
g15
sa(dp3398
g2
S'../../../data/emanuela/activity-recognition/images/NTCIR-Lifelog-256/u2/2015-05-03/b00003781_21i7lf_20150503_144348e.jpg'
p3399
sg4
(lp3400
(g15
g6
(g18
S'g\xf8~?'
p3401
tp3402
Rp3403
tp3404
a(g201
g6
(g18
S'\x06\xbd\xcc:'
p3405
tp3406
Rp3407
tp3408
a(g104
g6
(g18
S'\x8f}>:'
p3409
tp3410
Rp3411
tp3412
a(g116
g6
(g18
S'j\x94(:'
p3413
tp3414
Rp3415
tp3416
a(g92
g6
(g18
S'\x13\xf0\x9c9'
p3417
tp3418
Rp3419
tp3420
asg73
g15
sa(dp3421
g2
S'../../../data/emanuela/activity-recognition/images/NTCIR-Lifelog-256/u3/2015-07-11/b00001672_21i79q_20150711_231106e.jpg'
p3422
sg4
(lp3423
(g15
g6
(g18
S'UGl?'
p3424
tp3425
Rp3426
tp3427
a(g201
g6
(g18
S'`^\x03='
p3428
tp3429
Rp3430
tp3431
a(g135
g6
(g18
S'\xb0\x18\x86<'
p3432
tp3433
Rp3434
tp3435
a(g104
g6
(g18
S'B[\x1d<'
p3436
tp3437
Rp3438
tp3439
a(g32
g6
(g18
S'\xfex\xd7;'
p3440
tp3441
Rp3442
tp3443
asg73
g15
sa(dp3444
g2
S'../../../data/emanuela/activity-recognition/images/NTCIR-Lifelog-256/u3/2015-07-18/b00000117_21i79q_20150718_123238e.jpg'
p3445
sg4
(lp3446
(g15
g6
(g18
S'\x1f\xa4\xa9>'
p3447
tp3448
Rp3449
tp3450
a(g56
g6
(g18
S'\x98\xb8\x9e>'
p3451
tp3452
Rp3453
tp3454
a(g201
g6
(g18
S'\xf1d\xa9='
p3455
tp3456
Rp3457
tp3458
a(g174
g6
(g18
S'\xbccd='
p3459
tp3460
Rp3461
tp3462
a(g32
g6
(g18
S'\x84\xba9='
p3463
tp3464
Rp3465
tp3466
asg73
g15
sa(dp3467
g2
S'../../../data/emanuela/activity-recognition/images/NTCIR-Lifelog-256/u3/2015-07-28/b00002661_21i79q_20150728_092352e.jpg'
p3468
sg4
(lp3469
(g15
g6
(g18
S'\xb3z\x04?'
p3470
tp3471
Rp3472
tp3473
a(g421
g6
(g18
S',a\xdf='
p3474
tp3475
Rp3476
tp3477
a(g44
g6
(g18
S'&+\xc3='
p3478
tp3479
Rp3480
tp3481
a(g56
g6
(g18
S'vx,='
p3482
tp3483
Rp3484
tp3485
a(g92
g6
(g18
S'\x82/\x06='
p3486
tp3487
Rp3488
tp3489
asg73
g15
sa(dp3490
g2
S'../../../data/emanuela/activity-recognition/images/NTCIR-Lifelog-256/u3/2015-07-11/b00000261_21i79q_20150711_091526e.jpg'
p3491
sg4
(lp3492
(g15
g6
(g18
S'\xbe\x1f\xb6>'
p3493
tp3494
Rp3495
tp3496
a(g274
g6
(g18
S'\xc1\xd4\x87>'
p3497
tp3498
Rp3499
tp3500
a(g294
g6
(g18
S'\xb5\xf6\xf3='
p3501
tp3502
Rp3503
tp3504
a(g421
g6
(g18
S';\xd0\xb6='
p3505
tp3506
Rp3507
tp3508
a(g68
g6
(g18
S'\x03H\xae='
p3509
tp3510
Rp3511
tp3512
asg73
g15
sa(dp3513
g2
S'../../../data/emanuela/activity-recognition/images/NTCIR-Lifelog-256/u1/2015-03-16/b00002572_21i6bq_20150316_171244e.jpg'
p3514
sg4
(lp3515
(g15
g6
(g18
S'O\xc6\x1c?'
p3516
tp3517
Rp3518
tp3519
a(g135
g6
(g18
S'A\xde1>'
p3520
tp3521
Rp3522
tp3523
a(g878
g6
(g18
S'\x02E\xa2='
p3524
tp3525
Rp3526
tp3527
a(g104
g6
(g18
S'\xee:\xe9<'
p3528
tp3529
Rp3530
tp3531
a(g32
g6
(g18
S'\xb7\x98\xda<'
p3532
tp3533
Rp3534
tp3535
asg73
g15
sa(dp3536
g2
S'../../../data/emanuela/activity-recognition/images/NTCIR-Lifelog-256/u2/2015-06-16/b00001329_21i7lf_20150616_070831e.jpg'
p3537
sg4
(lp3538
(g15
g6
(g18
S'\xf0\xadC?'
p3539
tp3540
Rp3541
tp3542
a(g44
g6
(g18
S'\xb1\xc4\x1d>'
p3543
tp3544
Rp3545
tp3546
a(g135
g6
(g18
S'\xce\xbc\xb1<'
p3547
tp3548
Rp3549
tp3550
a(g201
g6
(g18
S'\xbb\x8f\xad<'
p3551
tp3552
Rp3553
tp3554
a(g878
g6
(g18
S'\xbaF\x17<'
p3555
tp3556
Rp3557
tp3558
asg73
g15
sa(dp3559
g2
S'../../../data/emanuela/activity-recognition/images/NTCIR-Lifelog-256/u3/2015-07-25/b00001750_21i79q_20150725_234816e.jpg'
p3560
sg4
(lp3561
(g15
g6
(g18
S'\x83\x93W?'
p3562
tp3563
Rp3564
tp3565
a(g104
g6
(g18
S'L\xab\xa9='
p3566
tp3567
Rp3568
tp3569
a(g201
g6
(g18
S'\x9b]0='
p3570
tp3571
Rp3572
tp3573
a(g116
g6
(g18
S'\xe3\x83\xf6;'
p3574
tp3575
Rp3576
tp3577
a(g135
g6
(g18
S't)\xbc;'
p3578
tp3579
Rp3580
tp3581
asg73
g15
sa(dp3582
g2
S'../../../data/emanuela/activity-recognition/images/NTCIR-Lifelog-256/u3/2015-07-11/b00001637_21i79q_20150711_225049e.jpg'
p3583
sg4
(lp3584
(g15
g6
(g18
S'p1n?'
p3585
tp3586
Rp3587
tp3588
a(g135
g6
(g18
S'\xf3\x08\xfe<'
p3589
tp3590
Rp3591
tp3592
a(g44
g6
(g18
S'\xca\x90:<'
p3593
tp3594
Rp3595
tp3596
a(g32
g6
(g18
S'\n\x02\x1d<'
p3597
tp3598
Rp3599
tp3600
a(g56
g6
(g18
S'\x9a\xab\xb3;'
p3601
tp3602
Rp3603
tp3604
asg73
g15
sa(dp3605
g2
S'../../../data/emanuela/activity-recognition/images/NTCIR-Lifelog-256/u2/2015-06-16/b00001324_21i7lf_20150616_070533e.jpg'
p3606
sg4
(lp3607
(g15
g6
(g18
S'\x9d\x01M?'
p3608
tp3609
Rp3610
tp3611
a(g44
g6
(g18
S'\xe5E9>'
p3612
tp3613
Rp3614
tp3615
a(g68
g6
(g18
S'@\x9d\xb4;'
p3616
tp3617
Rp3618
tp3619
a(g135
g6
(g18
S'\xe7\x979;'
p3620
tp3621
Rp3622
tp3623
a(g274
g6
(g18
S'\xb5$\t;'
p3624
tp3625
Rp3626
tp3627
asg73
g15
sa(dp3628
g2
S'../../../data/emanuela/activity-recognition/images/NTCIR-Lifelog-256/u3/2015-07-28/b00003743_21i79q_20150728_215512e.jpg'
p3629
sg4
(lp3630
(g15
g6
(g18
S'\xe1l\\?'
p3631
tp3632
Rp3633
tp3634
a(g104
g6
(g18
S'R\x901='
p3635
tp3636
Rp3637
tp3638
a(g92
g6
(g18
S'*\x14t<'
p3639
tp3640
Rp3641
tp3642
a(g44
g6
(g18
S'\x08(i<'
p3643
tp3644
Rp3645
tp3646
a(g116
g6
(g18
S'\xbbY6<'
p3647
tp3648
Rp3649
tp3650
asg73
g15
sa(dp3651
g2
S'../../../data/emanuela/activity-recognition/images/NTCIR-Lifelog-256/u1/2015-03-17/b00001088_21i6bq_20150317_183837e.jpg'
p3652
sg4
(lp3653
(g135
g6
(g18
S'\xe8\xb6\x08?'
p3654
tp3655
Rp3656
tp3657
a(g15
g6
(g18
S'\x16\x0e\x86>'
p3658
tp3659
Rp3660
tp3661
a(g32
g6
(g18
S'1\xc2\x1c>'
p3662
tp3663
Rp3664
tp3665
a(g104
g6
(g18
S'XO\x9c<'
p3666
tp3667
Rp3668
tp3669
a(g363
g6
(g18
S'\x16J$<'
p3670
tp3671
Rp3672
tp3673
asg73
g15
sa(dp3674
g2
S'../../../data/emanuela/activity-recognition/images/NTCIR-Lifelog-256/u1/2015-02-24/b00001296_21i6bq_20150224_195143e.jpg'
p3675
sg4
(lp3676
(g15
g6
(g18
S'^\x8ex?'
p3677
tp3678
Rp3679
tp3680
a(g274
g6
(g18
S'\xa0^G<'
p3681
tp3682
Rp3683
tp3684
a(g44
g6
(g18
S'\xf65+<'
p3685
tp3686
Rp3687
tp3688
a(g363
g6
(g18
S'\t<\x86:'
p3689
tp3690
Rp3691
tp3692
a(g135
g6
(g18
S'\xe6\x87`:'
p3693
tp3694
Rp3695
tp3696
asg73
g15
sa(dp3697
g2
S'../../../data/emanuela/activity-recognition/images/NTCIR-Lifelog-256/u3/2015-07-25/b00001130_21i79q_20150725_145304e.jpg'
p3698
sg4
(lp3699
(g15
g6
(g18
S'\xf0\x8a{?'
p3700
tp3701
Rp3702
tp3703
a(g44
g6
(g18
S'U9\xa1;'
p3704
tp3705
Rp3706
tp3707
a(g32
g6
(g18
S'\x0f\xad:;'
p3708
tp3709
Rp3710
tp3711
a(g56
g6
(g18
S'\x04G8;'
p3712
tp3713
Rp3714
tp3715
a(g68
g6
(g18
S'\xdd\x86\xe1:'
p3716
tp3717
Rp3718
tp3719
asg73
g15
sa(dp3720
g2
S'../../../data/emanuela/activity-recognition/images/NTCIR-Lifelog-256/u2/2015-06-16/b00001337_21i7lf_20150616_071258e.jpg'
p3721
sg4
(lp3722
(g15
g6
(g18
S'j\xfeP?'
p3723
tp3724
Rp3725
tp3726
a(g44
g6
(g18
S'dK6>'
p3727
tp3728
Rp3729
tp3730
a(g135
g6
(g18
S'\xed"(;'
p3731
tp3732
Rp3733
tp3734
a(g32
g6
(g18
S'\x8cK\xc0:'
p3735
tp3736
Rp3737
tp3738
a(g201
g6
(g18
S'W\xc4\xc79'
p3739
tp3740
Rp3741
tp3742
asg73
g15
sa(dp3743
g2
S'../../../data/emanuela/activity-recognition/images/NTCIR-Lifelog-256/u2/2015-06-20/b00004224_21i7lf_20150620_090015e.jpg'
p3744
sg4
(lp3745
(g15
g6
(g18
S'\xcc\xc6\x08?'
p3746
tp3747
Rp3748
tp3749
a(g135
g6
(g18
S'\x049\x9c>'
p3750
tp3751
Rp3752
tp3753
a(g274
g6
(g18
S'\xb4\x9bj='
p3754
tp3755
Rp3756
tp3757
a(g32
g6
(g18
S'\xd1\xa9/='
p3758
tp3759
Rp3760
tp3761
a(g44
g6
(g18
S'\x10\xbcl<'
p3762
tp3763
Rp3764
tp3765
asg73
g15
sa(dp3766
g2
S'../../../data/emanuela/activity-recognition/images/NTCIR-Lifelog-256/u2/2015-05-03/b00003770_21i7lf_20150503_143704e.jpg'
p3767
sg4
(lp3768
(g15
g6
(g18
S'\x0c\x0c}?'
p3769
tp3770
Rp3771
tp3772
a(g44
g6
(g18
S'\x93\x12\xa3;'
p3773
tp3774
Rp3775
tp3776
a(g201
g6
(g18
S'\x15\xc7\x01;'
p3777
tp3778
Rp3779
tp3780
a(g68
g6
(g18
S'I<\xb4:'
p3781
tp3782
Rp3783
tp3784
a(g104
g6
(g18
S'd\x86W:'
p3785
tp3786
Rp3787
tp3788
asg73
g15
sa(dp3789
g2
S'../../../data/emanuela/activity-recognition/images/NTCIR-Lifelog-256/u3/2015-07-18/b00000124_21i79q_20150718_123634e.jpg'
p3790
sg4
(lp3791
(g15
g6
(g18
S'\xa5\x12\xb9>'
p3792
tp3793
Rp3794
tp3795
a(g56
g6
(g18
S'\xeeh.>'
p3796
tp3797
Rp3798
tp3799
a(g201
g6
(g18
S'\xbfV\xd3='
p3800
tp3801
Rp3802
tp3803
a(g421
g6
(g18
S'\xf8@\x9b='
p3804
tp3805
Rp3806
tp3807
a(g174
g6
(g18
S'0\x00>='
p3808
tp3809
Rp3810
tp3811
asg73
g15
sa(dp3812
g2
S'../../../data/emanuela/activity-recognition/images/NTCIR-Lifelog-256/u3/2015-07-18/b00000028_21i79q_20150718_113742e.jpg'
p3813
sg4
(lp3814
(g15
g6
(g18
S'\xba,X?'
p3815
tp3816
Rp3817
tp3818
a(g44
g6
(g18
S'\x17S\xa7='
p3819
tp3820
Rp3821
tp3822
a(g174
g6
(g18
S'\xe0\x0e\x11<'
p3823
tp3824
Rp3825
tp3826
a(g68
g6
(g18
S']k\n<'
p3827
tp3828
Rp3829
tp3830
a(g92
g6
(g18
S'\xf4\xb1\xf3;'
p3831
tp3832
Rp3833
tp3834
asg73
g15
sa(dp3835
g2
S'../../../data/emanuela/activity-recognition/images/NTCIR-Lifelog-256/u3/2015-07-11/b00000272_21i79q_20150711_092159e.jpg'
p3836
sg4
(lp3837
(g274
g6
(g18
S'o\xed\xac>'
p3838
tp3839
Rp3840
tp3841
a(g15
g6
(g18
S'\xb2\x16J>'
p3842
tp3843
Rp3844
tp3845
a(g68
g6
(g18
S'\x86-\x0f>'
p3846
tp3847
Rp3848
tp3849
a(g294
g6
(g18
S'\x83\xa4\xc8='
p3850
tp3851
Rp3852
tp3853
a(g421
g6
(g18
S'7\xb2\xbc='
p3854
tp3855
Rp3856
tp3857
asg73
g15
sa(dp3858
g2
S'../../../data/emanuela/activity-recognition/images/NTCIR-Lifelog-256/u3/2015-07-11/b00000021_21i79q_20150711_065009e.jpg'
p3859
sg4
(lp3860
(g15
g6
(g18
S'\xa5\x1fm?'
p3861
tp3862
Rp3863
tp3864
a(g421
g6
(g18
S'<\x0b\x10='
p3865
tp3866
Rp3867
tp3868
a(g68
g6
(g18
S'p\x1a\x81<'
p3869
tp3870
Rp3871
tp3872
a(g56
g6
(g18
S'\x81/)<'
p3873
tp3874
Rp3875
tp3876
a(g274
g6
(g18
S'\xf2%\x9e;'
p3877
tp3878
Rp3879
tp3880
asg73
g15
sa(dp3881
g2
S'../../../data/emanuela/activity-recognition/images/NTCIR-Lifelog-256/u2/2015-04-21/b00000845_21i7lf_20150421_183153e.jpg'
p3882
sg4
(lp3883
(g15
g6
(g18
S'\xc3\xdc-?'
p3884
tp3885
Rp3886
tp3887
a(g201
g6
(g18
S'0\x0bL>'
p3888
tp3889
Rp3890
tp3891
a(g104
g6
(g18
S'vq\xa5='
p3892
tp3893
Rp3894
tp3895
a(g878
g6
(g18
S'o<\x01='
p3896
tp3897
Rp3898
tp3899
a(g116
g6
(g18
S'\xcc\xeag;'
p3900
tp3901
Rp3902
tp3903
asg73
g15
sa(dp3904
g2
S'../../../data/emanuela/activity-recognition/images/NTCIR-Lifelog-256/u2/2015-06-18/b00002828_21i7lf_20150618_122510e.jpg'
p3905
sg4
(lp3906
(g15
g6
(g18
S'\xd4\x11\xee>'
p3907
tp3908
Rp3909
tp3910
a(g201
g6
(g18
S'\x87\xd5\xb3>'
p3911
tp3912
Rp3913
tp3914
a(g104
g6
(g18
S'\xca\xbe\xf9='
p3915
tp3916
Rp3917
tp3918
a(g116
g6
(g18
S'\xbd\x8f\xbc<'
p3919
tp3920
Rp3921
tp3922
a(g135
g6
(g18
S'\xb5Vf<'
p3923
tp3924
Rp3925
tp3926
asg73
g15
sa(dp3927
g2
S'../../../data/emanuela/activity-recognition/images/NTCIR-Lifelog-256/u3/2015-07-25/b00001144_21i79q_20150725_150042e.jpg'
p3928
sg4
(lp3929
(g15
g6
(g18
S'\x13Kq?'
p3930
tp3931
Rp3932
tp3933
a(g135
g6
(g18
S'Pb\x11='
p3934
tp3935
Rp3936
tp3937
a(g32
g6
(g18
S'\xc8\t\x7f<'
p3938
tp3939
Rp3940
tp3941
a(g104
g6
(g18
S'\xb9\x93\xdc:'
p3942
tp3943
Rp3944
tp3945
a(g201
g6
(g18
S'\x86\xbe\xa8:'
p3946
tp3947
Rp3948
tp3949
asg73
g15
sa(dp3950
g2
S'../../../data/emanuela/activity-recognition/images/NTCIR-Lifelog-256/u3/2015-08-01/b00006098_21i79q_20150801_121528e.jpg'
p3951
sg4
(lp3952
(g15
g6
(g18
S'Y[w?'
p3953
tp3954
Rp3955
tp3956
a(g44
g6
(g18
S"\x8e'\x00="
p3957
tp3958
Rp3959
tp3960
a(g104
g6
(g18
S'\xf7v):'
p3961
tp3962
Rp3963
tp3964
a(g32
g6
(g18
S'\xf4U\xc09'
p3965
tp3966
Rp3967
tp3968
a(g135
g6
(g18
S'\x9c\xeb\xa49'
p3969
tp3970
Rp3971
tp3972
asg73
g15
sa(dp3973
g2
S'../../../data/emanuela/activity-recognition/images/NTCIR-Lifelog-256/u2/2015-05-03/b00004035_21i7lf_20150503_172227e.jpg'
p3974
sg4
(lp3975
(g15
g6
(g18
S'\x9c\xe7A?'
p3976
tp3977
Rp3978
tp3979
a(g44
g6
(g18
S'\xda+0>'
p3980
tp3981
Rp3982
tp3983
a(g32
g6
(g18
S'\xcb\xb2}<'
p3984
tp3985
Rp3986
tp3987
a(g174
g6
(g18
S'fah<'
p3988
tp3989
Rp3990
tp3991
a(g201
g6
(g18
S'\xd7^\t<'
p3992
tp3993
Rp3994
tp3995
asg73
g15
sa(dp3996
g2
S'../../../data/emanuela/activity-recognition/images/NTCIR-Lifelog-256/u3/2015-08-01/b00006149_21i79q_20150801_124318e.jpg'
p3997
sg4
(lp3998
(g15
g6
(g18
S'\x82\x9c\x04?'
p3999
tp4000
Rp4001
tp4002
a(g878
g6
(g18
S'L\x82Z>'
p4003
tp4004
Rp4005
tp4006
a(g201
g6
(g18
S'dw\xfb='
p4007
tp4008
Rp4009
tp4010
a(g135
g6
(g18
S'\xc3\xe8H='
p4011
tp4012
Rp4013
tp4014
a(g104
g6
(g18
S'?C\x02='
p4015
tp4016
Rp4017
tp4018
asg73
g15
sa(dp4019
g2
S'../../../data/emanuela/activity-recognition/images/NTCIR-Lifelog-256/u3/2015-07-27/b00001793_21i79q_20150727_105038e.jpg'
p4020
sg4
(lp4021
(g15
g6
(g18
S'\xfb\xa8b?'
p4022
tp4023
Rp4024
tp4025
a(g44
g6
(g18
S'\x14\xf1\xe0<'
p4026
tp4027
Rp4028
tp4029
a(g68
g6
(g18
S'D\xe8\x95<'
p4030
tp4031
Rp4032
tp4033
a(g56
g6
(g18
S'\xa7#\x92<'
p4034
tp4035
Rp4036
tp4037
a(g135
g6
(g18
S'\xd9\xa8F<'
p4038
tp4039
Rp4040
tp4041
asg73
g15
sa(dp4042
g2
S'../../../data/emanuela/activity-recognition/images/NTCIR-Lifelog-256/u3/2015-07-15/b00000304_21i79q_20150715_145912e.jpg'
p4043
sg4
(lp4044
(g15
g6
(g18
S'x\x9cg?'
p4045
tp4046
Rp4047
tp4048
a(g116
g6
(g18
S'\x1b\xac\xc9<'
p4049
tp4050
Rp4051
tp4052
a(g363
g6
(g18
S'\xde\xd0\x8e<'
p4053
tp4054
Rp4055
tp4056
a(g92
g6
(g18
S'\xb5\xaaF<'
p4057
tp4058
Rp4059
tp4060
a(g201
g6
(g18
S'\xa3^\x08<'
p4061
tp4062
Rp4063
tp4064
asg73
g15
sa(dp4065
g2
S'../../../data/emanuela/activity-recognition/images/NTCIR-Lifelog-256/u3/2015-07-18/b00000042_21i79q_20150718_114845e.jpg'
p4066
sg4
(lp4067
(g15
g6
(g18
S'v\xaer>'
p4068
tp4069
Rp4070
tp4071
a(g32
g6
(g18
S'W\x1ar>'
p4072
tp4073
Rp4074
tp4075
a(g363
g6
(g18
S'?\\Y>'
p4076
tp4077
Rp4078
tp4079
a(g201
g6
(g18
S'hW\xbb='
p4080
tp4081
Rp4082
tp4083
a(g135
g6
(g18
S'Q\x13D='
p4084
tp4085
Rp4086
tp4087
asg73
g15
sa(dp4088
g2
S'../../../data/emanuela/activity-recognition/images/NTCIR-Lifelog-256/u3/2015-07-15/b00000296_21i79q_20150715_145437e.jpg'
p4089
sg4
(lp4090
(g15
g6
(g18
S'Zyw?'
p4091
tp4092
Rp4093
tp4094
a(g135
g6
(g18
S'"g@<'
p4095
tp4096
Rp4097
tp4098
a(g32
g6
(g18
S'J-\x00<'
p4099
tp4100
Rp4101
tp4102
a(g201
g6
(g18
S'2L\xd7;'
p4103
tp4104
Rp4105
tp4106
a(g104
g6
(g18
S'\xaaS5;'
p4107
tp4108
Rp4109
tp4110
asg73
g15
sa(dp4111
g2
S'../../../data/emanuela/activity-recognition/images/NTCIR-Lifelog-256/u2/2015-06-16/b00001347_21i7lf_20150616_071914e.jpg'
p4112
sg4
(lp4113
(g15
g6
(g18
S'\x9a9\x7f?'
p4114
tp4115
Rp4116
tp4117
a(g32
g6
(g18
S'\x17\xef\xfb:'
p4118
tp4119
Rp4120
tp4121
a(g135
g6
(g18
S'+\xc3\xf19'
p4122
tp4123
Rp4124
tp4125
a(g44
g6
(g18
S',\xd9\xa89'
p4126
tp4127
Rp4128
tp4129
a(g201
g6
(g18
S'f\xabJ9'
p4130
tp4131
Rp4132
tp4133
asg73
g15
sa(dp4134
g2
S'../../../data/emanuela/activity-recognition/images/NTCIR-Lifelog-256/u3/2015-07-18/b00000061_21i79q_20150718_115906e.jpg'
p4135
sg4
(lp4136
(g15
g6
(g18
S'J\xab\xd0>'
p4137
tp4138
Rp4139
tp4140
a(g44
g6
(g18
S'\x9a\xfd>>'
p4141
tp4142
Rp4143
tp4144
a(g201
g6
(g18
S'\xb2\xaa\x9a='
p4145
tp4146
Rp4147
tp4148
a(g104
g6
(g18
S'\xecu\x90='
p4149
tp4150
Rp4151
tp4152
a(g878
g6
(g18
S'+u\x8f='
p4153
tp4154
Rp4155
tp4156
asg73
g15
sa(dp4157
g2
S'../../../data/emanuela/activity-recognition/images/NTCIR-Lifelog-256/u3/2015-07-18/b00000015_21i79q_20150718_113006e.jpg'
p4158
sg4
(lp4159
(g44
g6
(g18
S'\xc2m\xd5>'
p4160
tp4161
Rp4162
tp4163
a(g15
g6
(g18
S'\x04\x16\xd1>'
p4164
tp4165
Rp4166
tp4167
a(g274
g6
(g18
S'\xd2@\x1a='
p4168
tp4169
Rp4170
tp4171
a(g92
g6
(g18
S'\xbe$\xd7<'
p4172
tp4173
Rp4174
tp4175
a(g104
g6
(g18
S'\xbd\xec\xa0<'
p4176
tp4177
Rp4178
tp4179
asg73
g15
sa(dp4180
g2
S'../../../data/emanuela/activity-recognition/images/NTCIR-Lifelog-256/u3/2015-07-18/b00000088_21i79q_20150718_121501e.jpg'
p4181
sg4
(lp4182
(g15
g6
(g18
S'\xb6][?'
p4183
tp4184
Rp4185
tp4186
a(g44
g6
(g18
S'jT\xc7='
p4187
tp4188
Rp4189
tp4190
a(g174
g6
(g18
S'C4\xf0;'
p4191
tp4192
Rp4193
tp4194
a(g274
g6
(g18
S'\x92\xc3\xb3;'
p4195
tp4196
Rp4197
tp4198
a(g104
g6
(g18
S'~\xae\x86;'
p4199
tp4200
Rp4201
tp4202
asg73
g15
sa(dp4203
g2
S'../../../data/emanuela/activity-recognition/images/NTCIR-Lifelog-256/u3/2015-07-28/b00003147_21i79q_20150728_160940e.jpg'
p4204
sg4
(lp4205
(g15
g6
(g18
S'Z3[?'
p4206
tp4207
Rp4208
tp4209
a(g44
g6
(g18
S'\x05\xf0\x12='
p4210
tp4211
Rp4212
tp4213
a(g92
g6
(g18
S'\xea\x94\xa7<'
p4214
tp4215
Rp4216
tp4217
a(g68
g6
(g18
S'\xc0F\x81<'
p4218
tp4219
Rp4220
tp4221
a(g56
g6
(g18
S"J'{<"
p4222
tp4223
Rp4224
tp4225
asg73
g15
sa(dp4226
g2
S'../../../data/emanuela/activity-recognition/images/NTCIR-Lifelog-256/u3/2015-07-28/b00003732_21i79q_20150728_214851e.jpg'
p4227
sg4
(lp4228
(g15
g6
(g18
S'\r\xcbR?'
p4229
tp4230
Rp4231
tp4232
a(g44
g6
(g18
S'\xad\xbc\x1e>'
p4233
tp4234
Rp4235
tp4236
a(g104
g6
(g18
S'\xe3t\xfd;'
p4237
tp4238
Rp4239
tp4240
a(g274
g6
(g18
S'+\x12\x10;'
p4241
tp4242
Rp4243
tp4244
a(g92
g6
(g18
S'0E\xf9:'
p4245
tp4246
Rp4247
tp4248
asg73
g15
sa(dp4249
g2
S'../../../data/emanuela/activity-recognition/images/NTCIR-Lifelog-256/u3/2015-07-29/b00003959_21i79q_20150729_133951e.jpg'
p4250
sg4
(lp4251
(g15
g6
(g18
S'z\xf0$?'
p4252
tp4253
Rp4254
tp4255
a(g201
g6
(g18
S"\x7f'&>"
p4256
tp4257
Rp4258
tp4259
a(g135
g6
(g18
S')\x87)='
p4260
tp4261
Rp4262
tp4263
a(g32
g6
(g18
S'ql$='
p4264
tp4265
Rp4266
tp4267
a(g104
g6
(g18
S'\x83F\x07='
p4268
tp4269
Rp4270
tp4271
asg73
g15
sa(dp4272
g2
S'../../../data/emanuela/activity-recognition/images/NTCIR-Lifelog-256/u3/2015-07-25/b00001111_21i79q_20150725_144248e.jpg'
p4273
sg4
(lp4274
(g15
g6
(g18
S'\x051|?'
p4275
tp4276
Rp4277
tp4278
a(g44
g6
(g18
S'd\xa3\x85;'
p4279
tp4280
Rp4281
tp4282
a(g56
g6
(g18
S'\x87W\x1d;'
p4283
tp4284
Rp4285
tp4286
a(g68
g6
(g18
S'\xe7\x99\xde:'
p4287
tp4288
Rp4289
tp4290
a(g32
g6
(g18
S'\x1e\xdf\xcf:'
p4291
tp4292
Rp4293
tp4294
asg73
g15
sa(dp4295
g2
S'../../../data/emanuela/activity-recognition/images/NTCIR-Lifelog-256/u3/2015-07-28/b00003152_21i79q_20150728_161243e.jpg'
p4296
sg4
(lp4297
(g15
g6
(g18
S'P\x05]?'
p4298
tp4299
Rp4300
tp4301
a(g92
g6
(g18
S'\xef\xd1&='
p4302
tp4303
Rp4304
tp4305
a(g421
g6
(g18
S';y\xbb<'
p4306
tp4307
Rp4308
tp4309
a(g44
g6
(g18
S'4\xcei<'
p4310
tp4311
Rp4312
tp4313
a(g32
g6
(g18
S'\x98dV<'
p4314
tp4315
Rp4316
tp4317
asg73
g15
sa(dp4318
g2
S'../../../data/emanuela/activity-recognition/images/NTCIR-Lifelog-256/u3/2015-07-11/b00000216_21i79q_20150711_084936e.jpg'
p4319
sg4
(lp4320
(g15
g6
(g18
S'\xa7\\r?'
p4321
tp4322
Rp4323
tp4324
a(g274
g6
(g18
S'\x92\xebD='
p4325
tp4326
Rp4327
tp4328
a(g68
g6
(g18
S'B\x80\x05;'
p4329
tp4330
Rp4331
tp4332
a(g174
g6
(g18
S'h\x8e}:'
p4333
tp4334
Rp4335
tp4336
a(g294
g6
(g18
S'f\xd8):'
p4337
tp4338
Rp4339
tp4340
asg73
g15
sa(dp4341
g2
S'../../../data/emanuela/activity-recognition/images/NTCIR-Lifelog-256/u3/2015-07-11/b00000029_21i79q_20150711_065439e.jpg'
p4342
sg4
(lp4343
(g15
g6
(g18
S'BX|?'
p4344
tp4345
Rp4346
tp4347
a(g68
g6
(g18
S'\xaak#<'
p4348
tp4349
Rp4350
tp4351
a(g421
g6
(g18
S'\xc2\xd8\xca:'
p4352
tp4353
Rp4354
tp4355
a(g274
g6
(g18
S'\rh\xb6:'
p4356
tp4357
Rp4358
tp4359
a(g56
g6
(g18
S'3\x88\xc59'
p4360
tp4361
Rp4362
tp4363
asg73
g15
sa(dp4364
g2
S'../../../data/emanuela/activity-recognition/images/NTCIR-Lifelog-256/u3/2015-07-18/b00000009_21i79q_20150718_112632e.jpg'
p4365
sg4
(lp4366
(g92
g6
(g18
S'\x12\xc8T?'
p4367
tp4368
Rp4369
tp4370
a(g116
g6
(g18
S'\xf1wH='
p4371
tp4372
Rp4373
tp4374
a(g104
g6
(g18
S'y\x8f&='
p4375
tp4376
Rp4377
tp4378
a(g294
g6
(g18
S'\xc2\xec\xee<'
p4379
tp4380
Rp4381
tp4382
a(g421
g6
(g18
S'\x15\xae\x8e<'
p4383
tp4384
Rp4385
tp4386
asg73
g15
sa(dp4387
g2
S'../../../data/emanuela/activity-recognition/images/NTCIR-Lifelog-256/u2/2015-06-20/b00004625_21i7lf_20150620_125532e.jpg'
p4388
sg4
(lp4389
(g92
g6
(g18
S'\x8e\xac\x91>'
p4390
tp4391
Rp4392
tp4393
a(g421
g6
(g18
S'\xd7Y\x07>'
p4394
tp4395
Rp4396
tp4397
a(g294
g6
(g18
S'\xc0\x0c\xce='
p4398
tp4399
Rp4400
tp4401
a(g68
g6
(g18
S'{#\xa1='
p4402
tp4403
Rp4404
tp4405
a(g135
g6
(g18
S'bB\xa0='
p4406
tp4407
Rp4408
tp4409
asg73
g15
sa(dp4410
g2
S'../../../data/emanuela/activity-recognition/images/NTCIR-Lifelog-256/u3/2015-07-11/b00000225_21i79q_20150711_085443e.jpg'
p4411
sg4
(lp4412
(g15
g6
(g18
S'\x13\xf3[?'
p4413
tp4414
Rp4415
tp4416
a(g274
g6
(g18
S'\xf9\xa4\t>'
p4417
tp4418
Rp4419
tp4420
a(g68
g6
(g18
S'\xfcJ\x8a;'
p4421
tp4422
Rp4423
tp4424
a(g174
g6
(g18
S'\xd5\x1f+:'
p4425
tp4426
Rp4427
tp4428
a(g135
g6
(g18
S'\x7f{\x1a:'
p4429
tp4430
Rp4431
tp4432
asg73
g15
sa(dp4433
g2
S'../../../data/emanuela/activity-recognition/images/NTCIR-Lifelog-256/u3/2015-07-11/b00001664_21i79q_20150711_230630e.jpg'
p4434
sg4
(lp4435
(g15
g6
(g18
S'Z\xd1S?'
p4436
tp4437
Rp4438
tp4439
a(g44
g6
(g18
S'Tb\xb1='
p4440
tp4441
Rp4442
tp4443
a(g201
g6
(g18
S'6\xf0\r='
p4444
tp4445
Rp4446
tp4447
a(g104
g6
(g18
S'\x81t\x7f<'
p4448
tp4449
Rp4450
tp4451
a(g135
g6
(g18
S'\xb0\x9dK<'
p4452
tp4453
Rp4454
tp4455
asg73
g15
sa(dp4456
g2
S'../../../data/emanuela/activity-recognition/images/NTCIR-Lifelog-256/u3/2015-08-03/b00000141_21i79q_20150803_131754e.jpg'
p4457
sg4
(lp4458
(g15
g6
(g18
S'\xa8\xb4}>'
p4459
tp4460
Rp4461
tp4462
a(g6
(g7
(S'S19'
p4463
I0
I1
tp4464
Rp4465
(I3
S'|'
p4466
NNNI19
I1
I0
tp4467
bS'attending a seminar'
p4468
tp4469
Rp4470
g6
(g18
S'\xa2e\x1e>'
p4471
tp4472
Rp4473
tp4474
a(g274
g6
(g18
S'\xca\xf1\t>'
p4475
tp4476
Rp4477
tp4478
a(g135
g6
(g18
S'h2\xd8='
p4479
tp4480
Rp4481
tp4482
a(g421
g6
(g18
S'\xc3i\xb2='
p4483
tp4484
Rp4485
tp4486
asg73
g15
sa(dp4487
g2
S'../../../data/emanuela/activity-recognition/images/NTCIR-Lifelog-256/u3/2015-07-25/b00001114_21i79q_20150725_144433e.jpg'
p4488
sg4
(lp4489
(g15
g6
(g18
S'C5\x7f?'
p4490
tp4491
Rp4492
tp4493
a(g68
g6
(g18
S'\xff\xbe\x80:'
p4494
tp4495
Rp4496
tp4497
a(g32
g6
(g18
S'\x94\xbc\xf19'
p4498
tp4499
Rp4500
tp4501
a(g44
g6
(g18
S'\xa7\x17\xda9'
p4502
tp4503
Rp4504
tp4505
a(g201
g6
(g18
S'\xaf\xd4\xc49'
p4506
tp4507
Rp4508
tp4509
asg73
g15
sa(dp4510
g2
S'../../../data/emanuela/activity-recognition/images/NTCIR-Lifelog-256/u2/2015-05-03/b00003768_21i7lf_20150503_143546e.jpg'
p4511
sg4
(lp4512
(g15
g6
(g18
S'd\xa3\x7f?'
p4513
tp4514
Rp4515
tp4516
a(g92
g6
(g18
S'v\x9e\xa39'
p4517
tp4518
Rp4519
tp4520
a(g68
g6
(g18
S'\xfe\xbe\x839'
p4521
tp4522
Rp4523
tp4524
a(g201
g6
(g18
S'\xa6$q9'
p4525
tp4526
Rp4527
tp4528
a(g104
g6
(g18
S'\xaa\xee:9'
p4529
tp4530
Rp4531
tp4532
asg73
g15
sa(dp4533
g2
S'../../../data/emanuela/activity-recognition/images/NTCIR-Lifelog-256/u2/2015-06-17/b00002414_21i7lf_20150617_135200e.jpg'
p4534
sg4
(lp4535
(g15
g6
(g18
S'@\xbc3?'
p4536
tp4537
Rp4538
tp4539
a(g201
g6
(g18
S'\xd2\x83\x0f>'
p4540
tp4541
Rp4542
tp4543
a(g32
g6
(g18
S'\x89\x08\x06='
p4544
tp4545
Rp4546
tp4547
a(g104
g6
(g18
S'\xa4\x1d\x01='
p4548
tp4549
Rp4550
tp4551
a(g1898
g6
(g18
S'\xee\n\xfc<'
p4552
tp4553
Rp4554
tp4555
asg73
g15
sa(dp4556
g2
S'../../../data/emanuela/activity-recognition/images/NTCIR-Lifelog-256/u3/2015-07-28/b00002983_21i79q_20150728_143216e.jpg'
p4557
sg4
(lp4558
(g201
g6
(g18
S'Xc\xc6>'
p4559
tp4560
Rp4561
tp4562
a(g15
g6
(g18
S'5E\xa5>'
p4563
tp4564
Rp4565
tp4566
a(g878
g6
(g18
S'\x04;D>'
p4567
tp4568
Rp4569
tp4570
a(g135
g6
(g18
S'"+\x14='
p4571
tp4572
Rp4573
tp4574
a(g92
g6
(g18
S'\xd2Qv<'
p4575
tp4576
Rp4577
tp4578
asg73
g15
sa(dp4579
g2
S'../../../data/emanuela/activity-recognition/images/NTCIR-Lifelog-256/u3/2015-07-28/b00002670_21i79q_20150728_092933e.jpg'
p4580
sg4
(lp4581
(g15
g6
(g18
S'\x0e\xcex?'
p4582
tp4583
Rp4584
tp4585
a(g135
g6
(g18
S'\x81\xd6\x10<'
p4586
tp4587
Rp4588
tp4589
a(g201
g6
(g18
S'\xd7\x0b\xae;'
p4590
tp4591
Rp4592
tp4593
a(g32
g6
(g18
S'\x8f\x0e,;'
p4594
tp4595
Rp4596
tp4597
a(g104
g6
(g18
S"\x1e'\x1e;"
p4598
tp4599
Rp4600
tp4601
asg73
g15
sa(dp4602
g2
S'../../../data/emanuela/activity-recognition/images/NTCIR-Lifelog-256/u3/2015-07-11/b00000108_21i79q_20150711_074314e.jpg'
p4603
sg4
(lp4604
(g15
g6
(g18
S'\x8beY?'
p4605
tp4606
Rp4607
tp4608
a(g274
g6
(g18
S'\x1a\xe3\xc2='
p4609
tp4610
Rp4611
tp4612
a(g44
g6
(g18
S'\x9f\xb0\x0e='
p4613
tp4614
Rp4615
tp4616
a(g68
g6
(g18
S'\x87\xdd_<'
p4617
tp4618
Rp4619
tp4620
a(g174
g6
(g18
S'\xebr\x01;'
p4621
tp4622
Rp4623
tp4624
asg73
g15
sa(dp4625
g2
S'../../../data/emanuela/activity-recognition/images/NTCIR-Lifelog-256/u1/2015-03-16/b00002709_21i6bq_20150316_174500e.jpg'
p4626
sg4
(lp4627
(g421
g6
(g18
S'.\xdc\xa6>'
p4628
tp4629
Rp4630
tp4631
a(g135
g6
(g18
S'\xc6/q>'
p4632
tp4633
Rp4634
tp4635
a(g56
g6
(g18
S'@\xdf=>'
p4636
tp4637
Rp4638
tp4639
a(g15
g6
(g18
S'X?\xb8='
p4640
tp4641
Rp4642
tp4643
a(g68
g6
(g18
S'p\x89\x1d='
p4644
tp4645
Rp4646
tp4647
asg73
g15
sa(dp4648
g2
S'../../../data/emanuela/activity-recognition/images/NTCIR-Lifelog-256/u3/2015-08-03/b00000097_21i79q_20150803_125045e.jpg'
p4649
sg4
(lp4650
(g15
g6
(g18
S'c\xf2|?'
p4651
tp4652
Rp4653
tp4654
a(g68
g6
(g18
S'\xb6\x93\x85;'
p4655
tp4656
Rp4657
tp4658
a(g56
g6
(g18
S'\x17\x88m;'
p4659
tp4660
Rp4661
tp4662
a(g44
g6
(g18
S'\xbfR\xe3:'
p4663
tp4664
Rp4665
tp4666
a(g32
g6
(g18
S'\xbbF^:'
p4667
tp4668
Rp4669
tp4670
asg73
g15
sa(dp4671
g2
S'../../../data/emanuela/activity-recognition/images/NTCIR-Lifelog-256/u3/2015-07-15/b00000201_21i79q_20150715_135604e.jpg'
p4672
sg4
(lp4673
(g15
g6
(g18
S'\xdeaR?'
p4674
tp4675
Rp4676
tp4677
a(g274
g6
(g18
S'\xe6<\x81='
p4678
tp4679
Rp4680
tp4681
a(g56
g6
(g18
S'"S\xeb<'
p4682
tp4683
Rp4684
tp4685
a(g68
g6
(g18
S'D\x18\x9b<'
p4686
tp4687
Rp4688
tp4689
a(g44
g6
(g18
S'p\x02n<'
p4690
tp4691
Rp4692
tp4693
asg73
g15
sa(dp4694
g2
S'../../../data/emanuela/activity-recognition/images/NTCIR-Lifelog-256/u3/2015-07-11/b00000020_21i79q_20150711_064931e.jpg'
p4695
sg4
(lp4696
(g15
g6
(g18
S'\x99pv?'
p4697
tp4698
Rp4699
tp4700
a(g421
g6
(g18
S'\x08\x1c\xa6<'
p4701
tp4702
Rp4703
tp4704
a(g68
g6
(g18
S'\x84\xce\x19<'
p4705
tp4706
Rp4707
tp4708
a(g274
g6
(g18
S'\x149B;'
p4709
tp4710
Rp4711
tp4712
a(g56
g6
(g18
S'\x7f"\x0b;'
p4713
tp4714
Rp4715
tp4716
asg73
g15
sa(dp4717
g2
S'../../../data/emanuela/activity-recognition/images/NTCIR-Lifelog-256/u3/2015-08-03/b00000132_21i79q_20150803_131226e.jpg'
p4718
sg4
(lp4719
(g15
g6
(g18
S'9\xe7\t?'
p4720
tp4721
Rp4722
tp4723
a(g44
g6
(g18
S'\xcaMG>'
p4724
tp4725
Rp4726
tp4727
a(g92
g6
(g18
S'\xb8\xa7Z='
p4728
tp4729
Rp4730
tp4731
a(g104
g6
(g18
S'fp#='
p4732
tp4733
Rp4734
tp4735
a(g421
g6
(g18
S'\t/\x18='
p4736
tp4737
Rp4738
tp4739
asg73
g15
sa(dp4740
g2
S'../../../data/emanuela/activity-recognition/images/NTCIR-Lifelog-256/u1/2015-03-16/b00002720_21i6bq_20150316_175120e.jpg'
p4741
sg4
(lp4742
(g15
g6
(g18
S'\xe6\x9a\xd1>'
p4743
tp4744
Rp4745
tp4746
a(g68
g6
(g18
S'V\xae\x8f>'
p4747
tp4748
Rp4749
tp4750
a(g56
g6
(g18
S'\x85\x96\t>'
p4751
tp4752
Rp4753
tp4754
a(g274
g6
(g18
S'\xb6\xc7\x1d='
p4755
tp4756
Rp4757
tp4758
a(g135
g6
(g18
S'\x0fv\x06='
p4759
tp4760
Rp4761
tp4762
asg73
g15
sa(dp4763
g2
S'../../../data/emanuela/activity-recognition/images/NTCIR-Lifelog-256/u3/2015-07-11/b00001652_21i79q_20150711_225946e.jpg'
p4764
sg4
(lp4765
(g15
g6
(g18
S'\xd48G?'
p4766
tp4767
Rp4768
tp4769
a(g44
g6
(g18
S'\xfb_\x1f>'
p4770
tp4771
Rp4772
tp4773
a(g201
g6
(g18
S'\x1a\xa5\xf1<'
p4774
tp4775
Rp4776
tp4777
a(g32
g6
(g18
S"\x08'd<"
p4778
tp4779
Rp4780
tp4781
a(g135
g6
(g18
S'\xb9\xb0\xa8;'
p4782
tp4783
Rp4784
tp4785
asg73
g15
sa(dp4786
g2
S'../../../data/emanuela/activity-recognition/images/NTCIR-Lifelog-256/u3/2015-07-11/b00000188_21i79q_20150711_083038e.jpg'
p4787
sg4
(lp4788
(g15
g6
(g18
S'%\x1b\xbe>'
p4789
tp4790
Rp4791
tp4792
a(g104
g6
(g18
S'\xb5\x98]>'
p4793
tp4794
Rp4795
tp4796
a(g201
g6
(g18
S'\xfdF\x91='
p4797
tp4798
Rp4799
tp4800
a(g421
g6
(g18
S'\x0fz\x83='
p4801
tp4802
Rp4803
tp4804
a(g274
g6
(g18
S'q\xa9\x1c='
p4805
tp4806
Rp4807
tp4808
asg73
g15
sa(dp4809
g2
S'../../../data/emanuela/activity-recognition/images/NTCIR-Lifelog-256/u3/2015-07-18/b00000116_21i79q_20150718_123208e.jpg'
p4810
sg4
(lp4811
(g15
g6
(g18
S'Pn\x0f?'
p4812
tp4813
Rp4814
tp4815
a(g56
g6
(g18
S'\xc3u\x14>'
p4816
tp4817
Rp4818
tp4819
a(g174
g6
(g18
S'\x87\x1a\x80='
p4820
tp4821
Rp4822
tp4823
a(g878
g6
(g18
S'#\xb3S='
p4824
tp4825
Rp4826
tp4827
a(g201
g6
(g18
S'X\x92C='
p4828
tp4829
Rp4830
tp4831
asg73
g15
sa(dp4832
g2
S'../../../data/emanuela/activity-recognition/images/NTCIR-Lifelog-256/u3/2015-07-28/b00003075_21i79q_20150728_152626e.jpg'
p4833
sg4
(lp4834
(g15
g6
(g18
S'\x0c4y?'
p4835
tp4836
Rp4837
tp4838
a(g135
g6
(g18
S'\xd9\x14\xc5;'
p4839
tp4840
Rp4841
tp4842
a(g32
g6
(g18
S'\xfa[q;'
p4843
tp4844
Rp4845
tp4846
a(g44
g6
(g18
S'\x9cQ*;'
p4847
tp4848
Rp4849
tp4850
a(g363
g6
(g18
S'\x83\xd5\x1c;'
p4851
tp4852
Rp4853
tp4854
asg73
g15
sa(dp4855
g2
S'../../../data/emanuela/activity-recognition/images/NTCIR-Lifelog-256/u3/2015-08-01/b00006486_21i79q_20150801_203111e.jpg'
p4856
sg4
(lp4857
(g15
g6
(g18
S'\xb3\xd4w?'
p4858
tp4859
Rp4860
tp4861
a(g44
g6
(g18
S'\x1e\xf0\x95<'
p4862
tp4863
Rp4864
tp4865
a(g56
g6
(g18
S'\xf8\x97J;'
p4866
tp4867
Rp4868
tp4869
a(g32
g6
(g18
S'\x18\xd3\x18;'
p4870
tp4871
Rp4872
tp4873
a(g201
g6
(g18
S'\xf0\xa2\xba:'
p4874
tp4875
Rp4876
tp4877
asg73
g15
sa(dp4878
g2
S'../../../data/emanuela/activity-recognition/images/NTCIR-Lifelog-256/u3/2015-07-18/b00000187_21i79q_20150718_130939e.jpg'
p4879
sg4
(lp4880
(g15
g6
(g18
S'\x89\xfdk?'
p4881
tp4882
Rp4883
tp4884
a(g274
g6
(g18
S'\x92\xe3\x0c='
p4885
tp4886
Rp4887
tp4888
a(g44
g6
(g18
S'\x18\xa5\xa0<'
p4889
tp4890
Rp4891
tp4892
a(g68
g6
(g18
S'\xf4\x9b\x8a;'
p4893
tp4894
Rp4895
tp4896
a(g32
g6
(g18
S'>\x87\x86;'
p4897
tp4898
Rp4899
tp4900
asg73
g15
sa(dp4901
g2
S'../../../data/emanuela/activity-recognition/images/NTCIR-Lifelog-256/u2/2015-06-19/b00002947_21i7lf_20150619_063936e.jpg'
p4902
sg4
(lp4903
(g15
g6
(g18
S'\xa9_v?'
p4904
tp4905
Rp4906
tp4907
a(g135
g6
(g18
S'\x85Lx<'
p4908
tp4909
Rp4910
tp4911
a(g201
g6
(g18
S'\x94<\xd4;'
p4912
tp4913
Rp4914
tp4915
a(g363
g6
(g18
S'\xf2\x0c\xb5;'
p4916
tp4917
Rp4918
tp4919
a(g32
g6
(g18
S'Bv\x8a;'
p4920
tp4921
Rp4922
tp4923
asg73
g15
sa(dp4924
g2
S'../../../data/emanuela/activity-recognition/images/NTCIR-Lifelog-256/u3/2015-07-25/b00001138_21i79q_20150725_145717e.jpg'
p4925
sg4
(lp4926
(g44
g6
(g18
S'\x07k\x00?'
p4927
tp4928
Rp4929
tp4930
a(g15
g6
(g18
S'\xe4\xc0\xa7>'
p4931
tp4932
Rp4933
tp4934
a(g92
g6
(g18
S'\xdc\xce\xb9='
p4935
tp4936
Rp4937
tp4938
a(g104
g6
(g18
S'7M\x89<'
p4939
tp4940
Rp4941
tp4942
a(g68
g6
(g18
S'\xf1+F<'
p4943
tp4944
Rp4945
tp4946
asg73
g15
sa(dp4947
g2
S'../../../data/emanuela/activity-recognition/images/NTCIR-Lifelog-256/u3/2015-08-01/b00006111_21i79q_20150801_122223e.jpg'
p4948
sg4
(lp4949
(g15
g6
(g18
S'n\x9bh?'
p4950
tp4951
Rp4952
tp4953
a(g44
g6
(g18
S'\x89^z='
p4954
tp4955
Rp4956
tp4957
a(g104
g6
(g18
S'?\x1c,<'
p4958
tp4959
Rp4960
tp4961
a(g201
g6
(g18
S'\x0bfv;'
p4962
tp4963
Rp4964
tp4965
a(g92
g6
(g18
S'\x81\x7fc;'
p4966
tp4967
Rp4968
tp4969
asg73
g15
sa(dp4970
g2
S'../../../data/emanuela/activity-recognition/images/NTCIR-Lifelog-256/u2/2015-04-24/b00002787_21i7lf_20150424_182609e.jpg'
p4971
sg4
(lp4972
(g15
g6
(g18
S'\xbb\x7fJ?'
p4973
tp4974
Rp4975
tp4976
a(g32
g6
(g18
S'\x12\xe9\xf8='
p4977
tp4978
Rp4979
tp4980
a(g44
g6
(g18
S'\xf4\xa5\x15='
p4981
tp4982
Rp4983
tp4984
a(g135
g6
(g18
S'\x17K\xfd<'
p4985
tp4986
Rp4987
tp4988
a(g6
(g7
(S'S6'
p4989
I0
I1
tp4990
Rp4991
(I3
S'|'
p4992
NNNI6
I1
I0
tp4993
bS'biking'
p4994
tp4995
Rp4996
g6
(g18
S'x=\xb8;'
p4997
tp4998
Rp4999
tp5000
asg73
g15
sa(dp5001
g2
S'../../../data/emanuela/activity-recognition/images/NTCIR-Lifelog-256/u3/2015-07-28/b00003020_21i79q_20150728_145413e.jpg'
p5002
sg4
(lp5003
(g15
g6
(g18
S'\x7f=|?'
p5004
tp5005
Rp5006
tp5007
a(g92
g6
(g18
S'3s\x8a;'
p5008
tp5009
Rp5010
tp5011
a(g104
g6
(g18
S'\x88Z#;'
p5012
tp5013
Rp5014
tp5015
a(g116
g6
(g18
S'=\xb7\x03;'
p5016
tp5017
Rp5018
tp5019
a(g44
g6
(g18
S'\x90\xd7\xc2:'
p5020
tp5021
Rp5022
tp5023
asg73
g15
sa(dp5024
g2
S'../../../data/emanuela/activity-recognition/images/NTCIR-Lifelog-256/u2/2015-06-16/b00001341_21i7lf_20150616_071528e.jpg'
p5025
sg4
(lp5026
(g15
g6
(g18
S'\xf7\x14}?'
p5027
tp5028
Rp5029
tp5030
a(g32
g6
(g18
S'\x9c\x85\xdb;'
p5031
tp5032
Rp5033
tp5034
a(g201
g6
(g18
S'B\xaa\x01;'
p5035
tp5036
Rp5037
tp5038
a(g135
g6
(g18
S'K,\xa4:'
p5039
tp5040
Rp5041
tp5042
a(g44
g6
(g18
S'\xa7M#:'
p5043
tp5044
Rp5045
tp5046
asg73
g15
sa(dp5047
g2
S'../../../data/emanuela/activity-recognition/images/NTCIR-Lifelog-256/u1/2015-02-24/b00001291_21i6bq_20150224_194840e.jpg'
p5048
sg4
(lp5049
(g15
g6
(g18
S'\x0c0s?'
p5050
tp5051
Rp5052
tp5053
a(g44
g6
(g18
S'!W\x17='
p5054
tp5055
Rp5056
tp5057
a(g201
g6
(g18
S'\x05KU;'
p5058
tp5059
Rp5060
tp5061
a(g135
g6
(g18
S'F@\x02;'
p5062
tp5063
Rp5064
tp5065
a(g32
g6
(g18
S'[>\xfb:'
p5066
tp5067
Rp5068
tp5069
asg73
g15
sa(dp5070
g2
S'../../../data/emanuela/activity-recognition/images/NTCIR-Lifelog-256/u3/2015-07-18/b00000110_21i79q_20150718_122836e.jpg'
p5071
sg4
(lp5072
(g15
g6
(g18
S'&A9?'
p5073
tp5074
Rp5075
tp5076
a(g56
g6
(g18
S'\xf9I\xd0='
p5077
tp5078
Rp5079
tp5080
a(g174
g6
(g18
S'\xd3\x0f\x0f='
p5081
tp5082
Rp5083
tp5084
a(g32
g6
(g18
S'\xea\xfc\n='
p5085
tp5086
Rp5087
tp5088
a(g201
g6
(g18
S'b\xf7\xab<'
p5089
tp5090
Rp5091
tp5092
asg73
g15
sa(dp5093
g2
S'../../../data/emanuela/activity-recognition/images/NTCIR-Lifelog-256/u3/2015-08-01/b00006474_21i79q_20150801_202313e.jpg'
p5094
sg4
(lp5095
(g15
g6
(g18
S'\x94mk?'
p5096
tp5097
Rp5098
tp5099
a(g44
g6
(g18
S'\x15#\x81<'
p5100
tp5101
Rp5102
tp5103
a(g32
g6
(g18
S'\x00\x86Z<'
p5104
tp5105
Rp5106
tp5107
a(g201
g6
(g18
S"'\xceM<"
p5108
tp5109
Rp5110
tp5111
a(g104
g6
(g18
S'@v\x07<'
p5112
tp5113
Rp5114
tp5115
asg73
g15
sa(dp5116
g2
S'../../../data/emanuela/activity-recognition/images/NTCIR-Lifelog-256/u3/2015-07-25/b00001753_21i79q_20150725_235638e.jpg'
p5117
sg4
(lp5118
(g15
g6
(g18
S'q\xf5z?'
p5119
tp5120
Rp5121
tp5122
a(g104
g6
(g18
S'*\xe1\xb0;'
p5123
tp5124
Rp5125
tp5126
a(g135
g6
(g18
S'\x8e\xef\x83;'
p5127
tp5128
Rp5129
tp5130
a(g201
g6
(g18
S'\xa58\xff:'
p5131
tp5132
Rp5133
tp5134
a(g363
g6
(g18
S'I\x03\xda:'
p5135
tp5136
Rp5137
tp5138
asg73
g15
sa(dp5139
g2
S'../../../data/emanuela/activity-recognition/images/NTCIR-Lifelog-256/u3/2015-07-28/b00003777_21i79q_20150728_221545e.jpg'
p5140
sg4
(lp5141
(g15
g6
(g18
S'+\xf2a?'
p5142
tp5143
Rp5144
tp5145
a(g44
g6
(g18
S'\x1cH\x94='
p5146
tp5147
Rp5148
tp5149
a(g56
g6
(g18
S'3\xf6\x10<'
p5150
tp5151
Rp5152
tp5153
a(g135
g6
(g18
S'\x1c\xe2\xfd;'
p5154
tp5155
Rp5156
tp5157
a(g32
g6
(g18
S']z\xd7;'
p5158
tp5159
Rp5160
tp5161
asg73
g15
sa(dp5162
g2
S'../../../data/emanuela/activity-recognition/images/NTCIR-Lifelog-256/u3/2015-07-11/b00000059_21i79q_20150711_071304e.jpg'
p5163
sg4
(lp5164
(g15
g6
(g18
S'Ge{?'
p5165
tp5166
Rp5167
tp5168
a(g274
g6
(g18
S'\xc3\xc2\x7f<'
p5169
tp5170
Rp5171
tp5172
a(g68
g6
(g18
S'\xcf\x9a\xba:'
p5173
tp5174
Rp5175
tp5176
a(g174
g6
(g18
S' \xdc\xa69'
p5177
tp5178
Rp5179
tp5180
a(g294
g6
(g18
S'\xe9\x0c\x1c9'
p5181
tp5182
Rp5183
tp5184
asg73
g15
sa(dp5185
g2
S'../../../data/emanuela/activity-recognition/images/NTCIR-Lifelog-256/u3/2015-07-11/b00000097_21i79q_20150711_073651e.jpg'
p5186
sg4
(lp5187
(g15
g6
(g18
S'2\x953?'
p5188
tp5189
Rp5190
tp5191
a(g44
g6
(g18
S'\xe1S\x86>'
p5192
tp5193
Rp5194
tp5195
a(g274
g6
(g18
S'o\x97\x8f<'
p5196
tp5197
Rp5198
tp5199
a(g174
g6
(g18
S'.\xc9\xec;'
p5200
tp5201
Rp5202
tp5203
a(g32
g6
(g18
S'g\x89\x1d;'
p5204
tp5205
Rp5206
tp5207
asg73
g15
sa(dp5208
g2
S'../../../data/emanuela/activity-recognition/images/NTCIR-Lifelog-256/u3/2015-07-18/b00000181_21i79q_20150718_130614e.jpg'
p5209
sg4
(lp5210
(g15
g6
(g18
S'd"m?'
p5211
tp5212
Rp5213
tp5214
a(g274
g6
(g18
S'(j\xb6<'
p5215
tp5216
Rp5217
tp5218
a(g44
g6
(g18
S'8#[<'
p5219
tp5220
Rp5221
tp5222
a(g56
g6
(g18
S'w\xf8\xdf;'
p5223
tp5224
Rp5225
tp5226
a(g68
g6
(g18
S'Q\xa7\xc2;'
p5227
tp5228
Rp5229
tp5230
asg73
g15
sa(dp5231
g2
S'../../../data/emanuela/activity-recognition/images/NTCIR-Lifelog-256/u1/2015-02-25/b00000113_21i6bq_20150225_070244e.jpg'
p5232
sg4
(lp5233
(g15
g6
(g18
S'/cm?'
p5234
tp5235
Rp5236
tp5237
a(g421
g6
(g18
S'\xc21\xca<'
p5238
tp5239
Rp5240
tp5241
a(g294
g6
(g18
S'\xc4\x0e><'
p5242
tp5243
Rp5244
tp5245
a(g92
g6
(g18
S'\x96\x8b\x0f<'
p5246
tp5247
Rp5248
tp5249
a(g116
g6
(g18
S'\xb4\x98\xb2;'
p5250
tp5251
Rp5252
tp5253
asg73
g15
sa(dp5254
g2
S'../../../data/emanuela/activity-recognition/images/NTCIR-Lifelog-256/u3/2015-07-29/b00003986_21i79q_20150729_135446e.jpg'
p5255
sg4
(lp5256
(g15
g6
(g18
S'\x17w|?'
p5257
tp5258
Rp5259
tp5260
a(g201
g6
(g18
S'\xca\x12\xc7;'
p5261
tp5262
Rp5263
tp5264
a(g32
g6
(g18
S'2qr;'
p5265
tp5266
Rp5267
tp5268
a(g135
g6
(g18
S'b0\xe3:'
p5269
tp5270
Rp5271
tp5272
a(g44
g6
(g18
S'\x9drC:'
p5273
tp5274
Rp5275
tp5276
asg73
g15
sa(dp5277
g2
S'../../../data/emanuela/activity-recognition/images/NTCIR-Lifelog-256/u2/2015-05-03/b00003784_21i7lf_20150503_144535e.jpg'
p5278
sg4
(lp5279
(g15
g6
(g18
S'K\xf9~?'
p5280
tp5281
Rp5282
tp5283
a(g104
g6
(g18
S'\xfd\x1cJ:'
p5284
tp5285
Rp5286
tp5287
a(g201
g6
(g18
S'\x8d\xaa2:'
p5288
tp5289
Rp5290
tp5291
a(g92
g6
(g18
S'H\xb9,:'
p5292
tp5293
Rp5294
tp5295
a(g44
g6
(g18
S'\xb9I\xcb9'
p5296
tp5297
Rp5298
tp5299
asg73
g15
sa(dp5300
g2
S'../../../data/emanuela/activity-recognition/images/NTCIR-Lifelog-256/u3/2015-07-15/b00000220_21i79q_20150715_140714e.jpg'
p5301
sg4
(lp5302
(g15
g6
(g18
S'\xed,^?'
p5303
tp5304
Rp5305
tp5306
a(g135
g6
(g18
S'\x97|\x8b='
p5307
tp5308
Rp5309
tp5310
a(g32
g6
(g18
S'V\xc25='
p5311
tp5312
Rp5313
tp5314
a(g44
g6
(g18
S'\xe0\xf2><'
p5315
tp5316
Rp5317
tp5318
a(g201
g6
(g18
S'\x7f,\x7f;'
p5319
tp5320
Rp5321
tp5322
asg73
g15
sa(dp5323
g2
S'../../../data/emanuela/activity-recognition/images/NTCIR-Lifelog-256/u3/2015-07-11/b00000118_21i79q_20150711_074902e.jpg'
p5324
sg4
(lp5325
(g15
g6
(g18
S'\xc5\xf2s?'
p5326
tp5327
Rp5328
tp5329
a(g274
g6
(g18
S'Y\xd1%='
p5330
tp5331
Rp5332
tp5333
a(g68
g6
(g18
S'0[";'
p5334
tp5335
Rp5336
tp5337
a(g174
g6
(g18
S'\xf2{\xc3:'
p5338
tp5339
Rp5340
tp5341
a(g135
g6
(g18
S'tS\xbc:'
p5342
tp5343
Rp5344
tp5345
asg73
g15
sa(dp5346
g2
S'../../../data/emanuela/activity-recognition/images/NTCIR-Lifelog-256/u2/2015-06-20/b00004616_21i7lf_20150620_125005e.jpg'
p5347
sg4
(lp5348
(g274
g6
(g18
S'\xb9xA?'
p5349
tp5350
Rp5351
tp5352
a(g68
g6
(g18
S'\x16\x8c\xf0='
p5353
tp5354
Rp5355
tp5356
a(g732
g6
(g18
S'1\xe8v='
p5357
tp5358
Rp5359
tp5360
a(g135
g6
(g18
S'\x11\xf3\x9f<'
p5361
tp5362
Rp5363
tp5364
a(g174
g6
(g18
S':p\x88<'
p5365
tp5366
Rp5367
tp5368
asg73
g15
sa(dp5369
g2
S'../../../data/emanuela/activity-recognition/images/NTCIR-Lifelog-256/u3/2015-07-28/b00003749_21i79q_20150728_215837e.jpg'
p5370
sg4
(lp5371
(g15
g6
(g18
S'r!\xf5>'
p5372
tp5373
Rp5374
tp5375
a(g44
g6
(g18
S'\xc6\\\xe7>'
p5376
tp5377
Rp5378
tp5379
a(g878
g6
(g18
S'\xda]\x88<'
p5380
tp5381
Rp5382
tp5383
a(g104
g6
(g18
S'\x7f<$<'
p5384
tp5385
Rp5386
tp5387
a(g56
g6
(g18
S'\xf0R\xcf;'
p5388
tp5389
Rp5390
tp5391
asg73
g15
sa(dp5392
g2
S'../../../data/emanuela/activity-recognition/images/NTCIR-Lifelog-256/u3/2015-08-01/b00006148_21i79q_20150801_124241e.jpg'
p5393
sg4
(lp5394
(g15
g6
(g18
S'\x98\xddV?'
p5395
tp5396
Rp5397
tp5398
a(g44
g6
(g18
S'\xf0\x19\x08>'
p5399
tp5400
Rp5401
tp5402
a(g201
g6
(g18
S'P\xf7"<'
p5403
tp5404
Rp5405
tp5406
a(g104
g6
(g18
S'"\xde\xeb;'
p5407
tp5408
Rp5409
tp5410
a(g116
g6
(g18
S'\xf58\x1a;'
p5411
tp5412
Rp5413
tp5414
asg73
g15
sa(dp5415
g2
S'../../../data/emanuela/activity-recognition/images/NTCIR-Lifelog-256/u3/2015-07-25/b00001087_21i79q_20150725_142843e.jpg'
p5416
sg4
(lp5417
(g15
g6
(g18
S'\xc6\xebe?'
p5418
tp5419
Rp5420
tp5421
a(g44
g6
(g18
S'\xd9o\xb0='
p5422
tp5423
Rp5424
tp5425
a(g32
g6
(g18
S'pk\x8f;'
p5426
tp5427
Rp5428
tp5429
a(g363
g6
(g18
S'\xe7\xe5.;'
p5430
tp5431
Rp5432
tp5433
a(g135
g6
(g18
S'*\xc2);'
p5434
tp5435
Rp5436
tp5437
asg73
g15
sa(dp5438
g2
S'../../../data/emanuela/activity-recognition/images/NTCIR-Lifelog-256/u3/2015-07-11/b00001674_21i79q_20150711_231220e.jpg'
p5439
sg4
(lp5440
(g15
g6
(g18
S'\xdcza?'
p5441
tp5442
Rp5443
tp5444
a(g201
g6
(g18
S'>\xde\xc8='
p5445
tp5446
Rp5447
tp5448
a(g104
g6
(g18
S'\xb73\x16<'
p5449
tp5450
Rp5451
tp5452
a(g32
g6
(g18
S'\x0cO\x89;'
p5453
tp5454
Rp5455
tp5456
a(g135
g6
(g18
S'w\xbat;'
p5457
tp5458
Rp5459
tp5460
asg73
g15
sa(dp5461
g2
S'../../../data/emanuela/activity-recognition/images/NTCIR-Lifelog-256/u3/2015-07-28/b00003756_21i79q_20150728_220241e.jpg'
p5462
sg4
(lp5463
(g15
g6
(g18
S'\xf3\x0bE?'
p5464
tp5465
Rp5466
tp5467
a(g68
g6
(g18
S'\xeb\xcc;='
p5468
tp5469
Rp5470
tp5471
a(g56
g6
(g18
S'^\xdc\x0c='
p5472
tp5473
Rp5474
tp5475
a(g92
g6
(g18
S'Ez\x08='
p5476
tp5477
Rp5478
tp5479
a(g44
g6
(g18
S'\x1c\x93\xd7<'
p5480
tp5481
Rp5482
tp5483
asg73
g15
sa(dp5484
g2
S'../../../data/emanuela/activity-recognition/images/NTCIR-Lifelog-256/u3/2015-07-11/b00000193_21i79q_20150711_083404e.jpg'
p5485
sg4
(lp5486
(g15
g6
(g18
S'e\xe9|?'
p5487
tp5488
Rp5489
tp5490
a(g274
g6
(g18
S'\xa1\x9a\xf2;'
p5491
tp5492
Rp5493
tp5494
a(g68
g6
(g18
S'\x92\xdc\xd0:'
p5495
tp5496
Rp5497
tp5498
a(g294
g6
(g18
S'\x94D\x90:'
p5499
tp5500
Rp5501
tp5502
a(g174
g6
(g18
S'\xfe\x89Z:'
p5503
tp5504
Rp5505
tp5506
asg73
g15
sa(dp5507
g2
S'../../../data/emanuela/activity-recognition/images/NTCIR-Lifelog-256/u2/2015-06-18/b00002838_21i7lf_20150618_123242e.jpg'
p5508
sg4
(lp5509
(g135
g6
(g18
S'[\xaa"?'
p5510
tp5511
Rp5512
tp5513
a(g274
g6
(g18
S'5\x0c\x17>'
p5514
tp5515
Rp5516
tp5517
a(g15
g6
(g18
S'\x8e\xd5\xb4='
p5518
tp5519
Rp5520
tp5521
a(g32
g6
(g18
S'\xed\xda\x08='
p5522
tp5523
Rp5524
tp5525
a(g68
g6
(g18
S'.\xec\xfe<'
p5526
tp5527
Rp5528
tp5529
asg73
g15
sa(dp5530
g2
S'../../../data/emanuela/activity-recognition/images/NTCIR-Lifelog-256/u3/2015-07-29/b00003943_21i79q_20150729_133017e.jpg'
p5531
sg4
(lp5532
(g15
g6
(g18
S'M\xd3\x11?'
p5533
tp5534
Rp5535
tp5536
a(g201
g6
(g18
S'.\x9d\x9f='
p5537
tp5538
Rp5539
tp5540
a(g32
g6
(g18
S'~\x18\x81='
p5541
tp5542
Rp5543
tp5544
a(g92
g6
(g18
S'8\xafw='
p5545
tp5546
Rp5547
tp5548
a(g104
g6
(g18
S'\xe7=6='
p5549
tp5550
Rp5551
tp5552
asg73
g15
sa(dp5553
g2
S'../../../data/emanuela/activity-recognition/images/NTCIR-Lifelog-256/u3/2015-07-18/b00000165_21i79q_20150718_125613e.jpg'
p5554
sg4
(lp5555
(g15
g6
(g18
S'\n\xda\x04?'
p5556
tp5557
Rp5558
tp5559
a(g44
g6
(g18
S'R\xf9N>'
p5560
tp5561
Rp5562
tp5563
a(g732
g6
(g18
S'f!W='
p5564
tp5565
Rp5566
tp5567
a(g56
g6
(g18
S'\xd0m\x18='
p5568
tp5569
Rp5570
tp5571
a(g68
g6
(g18
S'8\xa2\t='
p5572
tp5573
Rp5574
tp5575
asg73
g15
sa(dp5576
g2
S'../../../data/emanuela/activity-recognition/images/NTCIR-Lifelog-256/u3/2015-07-28/b00003003_21i79q_20150728_144422e.jpg'
p5577
sg4
(lp5578
(g15
g6
(g18
S'\xdb\xcd}?'
p5579
tp5580
Rp5581
tp5582
a(g44
g6
(g18
S'\xb4\xcf\xdd:'
p5583
tp5584
Rp5585
tp5586
a(g135
g6
(g18
S'za\xc8:'
p5587
tp5588
Rp5589
tp5590
a(g104
g6
(g18
S'\xbfe\xb1:'
p5591
tp5592
Rp5593
tp5594
a(g32
g6
(g18
S'\x9a%\x8b:'
p5595
tp5596
Rp5597
tp5598
asg73
g15
sa(dp5599
g2
S'../../../data/emanuela/activity-recognition/images/NTCIR-Lifelog-256/u2/2015-06-16/b00001342_21i7lf_20150616_071607e.jpg'
p5600
sg4
(lp5601
(g15
g6
(g18
S'\xd5&\x7f?'
p5602
tp5603
Rp5604
tp5605
a(g32
g6
(g18
S'\xb7a\x13;'
p5606
tp5607
Rp5608
tp5609
a(g135
g6
(g18
S'|\x1f5:'
p5610
tp5611
Rp5612
tp5613
a(g44
g6
(g18
S'\xa6g\x929'
p5614
tp5615
Rp5616
tp5617
a(g201
g6
(g18
S'\xb7\xf0\xbd7'
p5618
tp5619
Rp5620
tp5621
asg73
g15
sa(dp5622
g2
S'../../../data/emanuela/activity-recognition/images/NTCIR-Lifelog-256/u3/2015-07-18/b00000058_21i79q_20150718_115725e.jpg'
p5623
sg4
(lp5624
(g15
g6
(g18
S'\xbb$\x06?'
p5625
tp5626
Rp5627
tp5628
a(g201
g6
(g18
S'\xbfk\xb2='
p5629
tp5630
Rp5631
tp5632
a(g732
g6
(g18
S'\x05/\x8a='
p5633
tp5634
Rp5635
tp5636
a(g44
g6
(g18
S'\xc4ps='
p5637
tp5638
Rp5639
tp5640
a(g104
g6
(g18
S'\xe6\xadW='
p5641
tp5642
Rp5643
tp5644
asg73
g15
sa.