(lp0
(dp1
S'image'
p2
S'../../../data/emanuela/activity-recognition/images/NTCIR-Lifelog-256/u1/2015-03-11/b00000905_21i6bq_20150311_161850e.jpg'
p3
sS'result'
p4
(lp5
(cnumpy.core.multiarray
scalar
p6
(cnumpy
dtype
p7
(S'S7'
p8
I0
I1
tp9
Rp10
(I3
S'|'
p11
NNNI7
I1
I0
tp12
bS'meeting'
p13
tp14
Rp15
g6
(g7
(S'f4'
p16
I0
I1
tp17
Rp18
(I3
S'<'
p19
NNNI-1
I-1
I0
tp20
bS'\xe2\xb8v?'
p21
tp22
Rp23
tp24
a(g6
(g7
(S'S7'
p25
I0
I1
tp26
Rp27
(I3
S'|'
p28
NNNI7
I1
I0
tp29
bS'talking'
p30
tp31
Rp32
g6
(g18
S'\x86w\xdb<'
p33
tp34
Rp35
tp36
a(g6
(g7
(S'S19'
p37
I0
I1
tp38
Rp39
(I3
S'|'
p40
NNNI19
I1
I0
tp41
bS'attending a seminar'
p42
tp43
Rp44
g6
(g18
S'\x0bxu;'
p45
tp46
Rp47
tp48
a(g6
(g7
(S'S14'
p49
I0
I1
tp50
Rp51
(I3
S'|'
p52
NNNI14
I1
I0
tp53
bS'walking indoor'
p54
tp55
Rp56
g6
(g18
S'\xa4\xad*;'
p57
tp58
Rp59
tp60
a(g6
(g7
(S'S24'
p61
I0
I1
tp62
Rp63
(I3
S'|'
p64
NNNI24
I1
I0
tp65
bS'having drinks/meal alone'
p66
tp67
Rp68
g6
(g18
S'\xbc-R:'
p69
tp70
Rp71
tp72
asS'label'
p73
g15
sa(dp74
g2
S'../../../data/emanuela/activity-recognition/images/NTCIR-Lifelog-256/u2/2015-05-06/b00006630_21i7lf_20150506_124556e.jpg'
p75
sg4
(lp76
(g32
g6
(g18
S'Sh\xf5>'
p77
tp78
Rp79
tp80
a(g15
g6
(g18
S'\x15S\x9c>'
p81
tp82
Rp83
tp84
a(g6
(g7
(S'S11'
p85
I0
I1
tp86
Rp87
(I3
S'|'
p88
NNNI11
I1
I0
tp89
bS'socializing'
p90
tp91
Rp92
g6
(g18
S'\xdd\xfd\xd5='
p93
tp94
Rp95
tp96
a(g6
(g7
(S'S8'
p97
I0
I1
tp98
Rp99
(I3
S'|'
p100
NNNI8
I1
I0
tp101
bS'shopping'
p102
tp103
Rp104
g6
(g18
S'\x8a#q='
p105
tp106
Rp107
tp108
a(g44
g6
(g18
S' \xb6\x9d<'
p109
tp110
Rp111
tp112
asg73
g15
sa(dp113
g2
S'../../../data/emanuela/activity-recognition/images/NTCIR-Lifelog-256/u1/2015-03-11/b00000950_21i6bq_20150311_165006e.jpg'
p114
sg4
(lp115
(g15
g6
(g18
S'\xb4\xbek?'
p116
tp117
Rp118
tp119
a(g32
g6
(g18
S'\x7f\xdb~='
p120
tp121
Rp122
tp123
a(g44
g6
(g18
S"Pq'<"
p124
tp125
Rp126
tp127
a(g92
g6
(g18
S'xZ_;'
p128
tp129
Rp130
tp131
a(g56
g6
(g18
S'/\xb0\xa5:'
p132
tp133
Rp134
tp135
asg73
g15
sa(dp136
g2
S'../../../data/emanuela/activity-recognition/images/NTCIR-Lifelog-256/u1/2015-03-05/b00000244_21i6bq_20150305_084332e.jpg'
p137
sg4
(lp138
(g15
g6
(g18
S'\xca\x17q?'
p139
tp140
Rp141
tp142
a(g32
g6
(g18
S'tu\xde<'
p143
tp144
Rp145
tp146
a(g56
g6
(g18
S'\x13\xb4l<'
p147
tp148
Rp149
tp150
a(g6
(g7
(S'S7'
p151
I0
I1
tp152
Rp153
(I3
S'|'
p154
NNNI7
I1
I0
tp155
bS'reading'
p156
tp157
Rp158
g6
(g18
S'\xfa\xad\x8b;'
p159
tp160
Rp161
tp162
a(g104
g6
(g18
S'bD$;'
p163
tp164
Rp165
tp166
asg73
g15
sa(dp167
g2
S'../../../data/emanuela/activity-recognition/images/NTCIR-Lifelog-256/u1/2015-03-05/b00000269_21i6bq_20150305_085851e.jpg'
p168
sg4
(lp169
(g15
g6
(g18
S'\xfd\x05y?'
p170
tp171
Rp172
tp173
a(g32
g6
(g18
S'\x96\x10\xbc<'
p174
tp175
Rp176
tp177
a(g6
(g7
(S'S27'
p178
I0
I1
tp179
Rp180
(I3
S'|'
p181
NNNI27
I1
I0
tp182
bS'having drinks with somebody'
p183
tp184
Rp185
g6
(g18
S'\x08v\x81:'
p186
tp187
Rp188
tp189
a(g104
g6
(g18
S'\xee\xa5o:'
p190
tp191
Rp192
tp193
a(g6
(g7
(S'S25'
p194
I0
I1
tp195
Rp196
(I3
S'|'
p197
NNNI25
I1
I0
tp198
bS'having meal with somebody'
p199
tp200
Rp201
g6
(g18
S'\xa2\xd4=:'
p202
tp203
Rp204
tp205
asg73
g15
sa(dp206
g2
S'../../../data/emanuela/activity-recognition/images/NTCIR-Lifelog-256/u1/2015-03-05/b00000689_21i6bq_20150305_134301e.jpg'
p207
sg4
(lp208
(g201
g6
(g18
S'[\xe8\xd9>'
p209
tp210
Rp211
tp212
a(g44
g6
(g18
S';Q\x1a>'
p213
tp214
Rp215
tp216
a(g68
g6
(g18
S'\r\xa1\xf6='
p217
tp218
Rp219
tp220
a(g92
g6
(g18
S'\xe6s\x9f='
p221
tp222
Rp223
tp224
a(g32
g6
(g18
S'\xa5\xe5c='
p225
tp226
Rp227
tp228
asg73
g15
sa(dp229
g2
S'../../../data/emanuela/activity-recognition/images/NTCIR-Lifelog-256/u1/2015-02-27/b00000313_21i6bq_20150227_102414e.jpg'
p230
sg4
(lp231
(g15
g6
(g18
S'\x89\xee\x0e?'
p232
tp233
Rp234
tp235
a(g32
g6
(g18
S'\xf5a\x81>'
p236
tp237
Rp238
tp239
a(g92
g6
(g18
S's\x96\x00>'
p240
tp241
Rp242
tp243
a(g185
g6
(g18
S'kM\xcd<'
p244
tp245
Rp246
tp247
a(g201
g6
(g18
S'\xa8\x83\x96<'
p248
tp249
Rp250
tp251
asg73
g15
sa(dp252
g2
S'../../../data/emanuela/activity-recognition/images/NTCIR-Lifelog-256/u2/2015-04-22/b00000162_21i7lf_20150422_142509e.jpg'
p253
sg4
(lp254
(g15
g6
(g18
S'\x1d1r?'
p255
tp256
Rp257
tp258
a(g44
g6
(g18
S'\xf4?\xf3<'
p259
tp260
Rp261
tp262
a(g32
g6
(g18
S'\xf1+\x02<'
p263
tp264
Rp265
tp266
a(g201
g6
(g18
S'\x08\xd8\xa7;'
p267
tp268
Rp269
tp270
a(g56
g6
(g18
S'\x87/\xa6;'
p271
tp272
Rp273
tp274
asg73
g15
sa(dp275
g2
S'../../../data/emanuela/activity-recognition/images/NTCIR-Lifelog-256/u2/2015-05-01/b00002020_21i7lf_20150501_113327e.jpg'
p276
sg4
(lp277
(g15
g6
(g18
S'y\xe9,?'
p278
tp279
Rp280
tp281
a(g44
g6
(g18
S'\xe1\xb7U>'
p282
tp283
Rp284
tp285
a(g32
g6
(g18
S'a\r\xb0='
p286
tp287
Rp288
tp289
a(g56
g6
(g18
S'\x85SD<'
p290
tp291
Rp292
tp293
a(g6
(g7
(S'S7'
p294
I0
I1
tp295
Rp296
(I3
S'|'
p297
NNNI7
I1
I0
tp298
bS'working'
p299
tp300
Rp301
g6
(g18
S'\x11;\xac;'
p302
tp303
Rp304
tp305
asg73
g15
sa(dp306
g2
S'../../../data/emanuela/activity-recognition/images/NTCIR-Lifelog-256/u2/2015-05-07/b00008056_21i7lf_20150507_184611e.jpg'
p307
sg4
(lp308
(g15
g6
(g18
S'\x99\x96!?'
p309
tp310
Rp311
tp312
a(g32
g6
(g18
S'![_>'
p313
tp314
Rp315
tp316
a(g92
g6
(g18
S'mT\x8f='
p317
tp318
Rp319
tp320
a(g56
g6
(g18
S'qY\xb4<'
p321
tp322
Rp323
tp324
a(g44
g6
(g18
S'\xde\xd4\xa7<'
p325
tp326
Rp327
tp328
asg73
g15
sa(dp329
g2
S'../../../data/emanuela/activity-recognition/images/NTCIR-Lifelog-256/u1/2015-03-11/b00000849_21i6bq_20150311_153918e.jpg'
p330
sg4
(lp331
(g15
g6
(g18
S'F\\P?'
p332
tp333
Rp334
tp335
a(g44
g6
(g18
S'\x04\xdc\x9e='
p336
tp337
Rp338
tp339
a(g32
g6
(g18
S'\xb8\xce|='
p340
tp341
Rp342
tp343
a(g56
g6
(g18
S'g\xa5\x8d<'
p344
tp345
Rp346
tp347
a(g301
g6
(g18
S'\x08\xab\t<'
p348
tp349
Rp350
tp351
asg73
g15
sa(dp352
g2
S'../../../data/emanuela/activity-recognition/images/NTCIR-Lifelog-256/u1/2015-03-05/b00000741_21i6bq_20150305_141450e.jpg'
p353
sg4
(lp354
(g32
g6
(g18
S'\xef\x1am>'
p355
tp356
Rp357
tp358
a(g104
g6
(g18
S'\x98~4>'
p359
tp360
Rp361
tp362
a(g92
g6
(g18
S'd\x9b\xfc='
p363
tp364
Rp365
tp366
a(g185
g6
(g18
S'sX\xfb='
p367
tp368
Rp369
tp370
a(g68
g6
(g18
S'~M\xca='
p371
tp372
Rp373
tp374
asg73
g15
sa(dp375
g2
S'../../../data/emanuela/activity-recognition/images/NTCIR-Lifelog-256/u1/2015-03-12/b00000702_21i6bq_20150312_150441e.jpg'
p376
sg4
(lp377
(g15
g6
(g18
S'3\xd6P?'
p378
tp379
Rp380
tp381
a(g32
g6
(g18
S'\x19\x8a\xa3='
p382
tp383
Rp384
tp385
a(g92
g6
(g18
S'\xef\xd1\xeb<'
p386
tp387
Rp388
tp389
a(g104
g6
(g18
S'\x91\xeb\xac<'
p390
tp391
Rp392
tp393
a(g56
g6
(g18
S'f|\xa2<'
p394
tp395
Rp396
tp397
asg73
g15
sa(dp398
g2
S'../../../data/emanuela/activity-recognition/images/NTCIR-Lifelog-256/u1/2015-03-02/b00000626_21i6bq_20150302_134017e.jpg'
p399
sg4
(lp400
(g15
g6
(g18
S"'Kx?"
p401
tp402
Rp403
tp404
a(g32
g6
(g18
S'1\xae\xba<'
p405
tp406
Rp407
tp408
a(g44
g6
(g18
S'1\xaf=;'
p409
tp410
Rp411
tp412
a(g158
g6
(g18
S'}\xad\xa7:'
p413
tp414
Rp415
tp416
a(g201
g6
(g18
S'\xe2\xf4P:'
p417
tp418
Rp419
tp420
asg73
g15
sa(dp421
g2
S'../../../data/emanuela/activity-recognition/images/NTCIR-Lifelog-256/u2/2015-05-07/b00007792_21i7lf_20150507_160441e.jpg'
p422
sg4
(lp423
(g15
g6
(g18
S'\x99\x04V?'
p424
tp425
Rp426
tp427
a(g301
g6
(g18
S'\xbfJM='
p428
tp429
Rp430
tp431
a(g44
g6
(g18
S'\xd7\xf4.='
p432
tp433
Rp434
tp435
a(g68
g6
(g18
S'Q\x11\xed<'
p436
tp437
Rp438
tp439
a(g158
g6
(g18
S'\xef\xfb\x00<'
p440
tp441
Rp442
tp443
asg73
g15
sa(dp444
g2
S'../../../data/emanuela/activity-recognition/images/NTCIR-Lifelog-256/u2/2015-05-07/b00007988_21i7lf_20150507_180537e.jpg'
p445
sg4
(lp446
(g301
g6
(g18
S'\xf2N\xfb>'
p447
tp448
Rp449
tp450
a(g15
g6
(g18
S'e\x0c\xeb>'
p451
tp452
Rp453
tp454
a(g44
g6
(g18
S'\x07*\xef<'
p455
tp456
Rp457
tp458
a(g158
g6
(g18
S'\xb9d\x1e<'
p459
tp460
Rp461
tp462
a(g32
g6
(g18
S'S\x16t;'
p463
tp464
Rp465
tp466
asg73
g15
sa(dp467
g2
S'../../../data/emanuela/activity-recognition/images/NTCIR-Lifelog-256/u1/2015-03-10/b00000309_21i6bq_20150310_161147e.jpg'
p468
sg4
(lp469
(g92
g6
(g18
S'H\xd5\xcf>'
p470
tp471
Rp472
tp473
a(g32
g6
(g18
S'\x8a@\x8f>'
p474
tp475
Rp476
tp477
a(g15
g6
(g18
S'Fz\x1f>'
p478
tp479
Rp480
tp481
a(g56
g6
(g18
S'z\x1cY='
p482
tp483
Rp484
tp485
a(g44
g6
(g18
S'|\x85\x04='
p486
tp487
Rp488
tp489
asg73
g15
sa(dp490
g2
S'../../../data/emanuela/activity-recognition/images/NTCIR-Lifelog-256/u2/2015-05-01/b00001998_21i7lf_20150501_112017e.jpg'
p491
sg4
(lp492
(g32
g6
(g18
S'\x9f\x98\xb9>'
p493
tp494
Rp495
tp496
a(g15
g6
(g18
S'\xf9\x08\xb7>'
p497
tp498
Rp499
tp500
a(g44
g6
(g18
S'\xaf\xd40>'
p501
tp502
Rp503
tp504
a(g56
g6
(g18
S'\xe5\xf5L='
p505
tp506
Rp507
tp508
a(g92
g6
(g18
S'$\n\xd6<'
p509
tp510
Rp511
tp512
asg73
g15
sa(dp513
g2
S'../../../data/emanuela/activity-recognition/images/NTCIR-Lifelog-256/u1/2015-03-10/b00000125_21i6bq_20150310_140729e.jpg'
p514
sg4
(lp515
(g15
g6
(g18
S'\xcdfx?'
p516
tp517
Rp518
tp519
a(g44
g6
(g18
S'\xfa\xb7\x8c<'
p520
tp521
Rp522
tp523
a(g32
g6
(g18
S'\x18\xff\xca;'
p524
tp525
Rp526
tp527
a(g301
g6
(g18
S'6\xb4\x88;'
p528
tp529
Rp530
tp531
a(g158
g6
(g18
S'\x00\x89\xb5:'
p532
tp533
Rp534
tp535
asg73
g15
sa(dp536
g2
S'../../../data/emanuela/activity-recognition/images/NTCIR-Lifelog-256/u1/2015-03-12/b00000744_21i6bq_20150312_153008e.jpg'
p537
sg4
(lp538
(g15
g6
(g18
S'\xac\x91`?'
p539
tp540
Rp541
tp542
a(g32
g6
(g18
S'fa\x83='
p543
tp544
Rp545
tp546
a(g56
g6
(g18
S'J\x12y<'
p547
tp548
Rp549
tp550
a(g104
g6
(g18
S'\xa6\x0f_<'
p551
tp552
Rp553
tp554
a(g185
g6
(g18
S'Q\xe8\x0b<'
p555
tp556
Rp557
tp558
asg73
g15
sa(dp559
g2
S'../../../data/emanuela/activity-recognition/images/NTCIR-Lifelog-256/u1/2015-03-11/b00000860_21i6bq_20150311_154808e.jpg'
p560
sg4
(lp561
(g15
g6
(g18
S'K\xfez?'
p562
tp563
Rp564
tp565
a(g32
g6
(g18
S'g\xbce<'
p566
tp567
Rp568
tp569
a(g44
g6
(g18
S'I:{;'
p570
tp571
Rp572
tp573
a(g92
g6
(g18
S'@\xdf\x01:'
p574
tp575
Rp576
tp577
a(g56
g6
(g18
S'\x06X\xea9'
p578
tp579
Rp580
tp581
asg73
g15
sa(dp582
g2
S'../../../data/emanuela/activity-recognition/images/NTCIR-Lifelog-256/u2/2015-05-06/b00006633_21i7lf_20150506_124751e.jpg'
p583
sg4
(lp584
(g15
g6
(g18
S'\xb0K\xd4>'
p585
tp586
Rp587
tp588
a(g32
g6
(g18
S'%+\xc9>'
p589
tp590
Rp591
tp592
a(g44
g6
(g18
S'\x8b)%>'
p593
tp594
Rp595
tp596
a(g92
g6
(g18
S'SQi<'
p597
tp598
Rp599
tp600
a(g201
g6
(g18
S'\xf3\x13\xd4;'
p601
tp602
Rp603
tp604
asg73
g15
sa(dp605
g2
S'../../../data/emanuela/activity-recognition/images/NTCIR-Lifelog-256/u2/2015-04-27/b00005272_21i7lf_20150427_121202e.jpg'
p606
sg4
(lp607
(g32
g6
(g18
S'\xd4\x1d\x1a?'
p608
tp609
Rp610
tp611
a(g15
g6
(g18
S'\x01S\x93>'
p612
tp613
Rp614
tp615
a(g56
g6
(g18
S'-\xbb\xf9<'
p616
tp617
Rp618
tp619
a(g44
g6
(g18
S'\x07\x8e\xa4<'
p620
tp621
Rp622
tp623
a(g68
g6
(g18
S'\xdeW\xa0<'
p624
tp625
Rp626
tp627
asg73
g15
sa(dp628
g2
S'../../../data/emanuela/activity-recognition/images/NTCIR-Lifelog-256/u2/2015-04-27/b00005297_21i7lf_20150427_122710e.jpg'
p629
sg4
(lp630
(g15
g6
(g18
S"\xfe)'?"
p631
tp632
Rp633
tp634
a(g44
g6
(g18
S'\x8a\\F>'
p635
tp636
Rp637
tp638
a(g56
g6
(g18
S'\xd9\xed\xe0='
p639
tp640
Rp641
tp642
a(g32
g6
(g18
S'8hX<'
p643
tp644
Rp645
tp646
a(g104
g6
(g18
S'^\xfd&<'
p647
tp648
Rp649
tp650
asg73
g15
sa(dp651
g2
S'../../../data/emanuela/activity-recognition/images/NTCIR-Lifelog-256/u2/2015-04-20/b00000088_21i7lf_20150420_102744e.jpg'
p652
sg4
(lp653
(g15
g6
(g18
S'\xe2\xdb5?'
p654
tp655
Rp656
tp657
a(g32
g6
(g18
S' \xdb\x07>'
p658
tp659
Rp660
tp661
a(g301
g6
(g18
S'\xa5\xbc)='
p662
tp663
Rp664
tp665
a(g68
g6
(g18
S'\xa5o)='
p666
tp667
Rp668
tp669
a(g201
g6
(g18
S'\x03\xa9\xdc<'
p670
tp671
Rp672
tp673
asg73
g15
sa(dp674
g2
S'../../../data/emanuela/activity-recognition/images/NTCIR-Lifelog-256/u2/2015-05-07/b00007791_21i7lf_20150507_160404e.jpg'
p675
sg4
(lp676
(g15
g6
(g18
S'4\x05/?'
p677
tp678
Rp679
tp680
a(g68
g6
(g18
S'\x18\xad\x01>'
p681
tp682
Rp683
tp684
a(g301
g6
(g18
S']\x9a\xcc='
p685
tp686
Rp687
tp688
a(g6
(g7
(S'S6'
p689
I0
I1
tp690
Rp691
(I3
S'|'
p692
NNNI6
I1
I0
tp693
bS'mobile'
p694
tp695
Rp696
g6
(g18
S'3C+='
p697
tp698
Rp699
tp700
a(g32
g6
(g18
S't\xd2\x86<'
p701
tp702
Rp703
tp704
asg73
g15
sa(dp705
g2
S'../../../data/emanuela/activity-recognition/images/NTCIR-Lifelog-256/u1/2015-03-11/b00000874_21i6bq_20150311_155919e.jpg'
p706
sg4
(lp707
(g15
g6
(g18
S'\xcf@z?'
p708
tp709
Rp710
tp711
a(g44
g6
(g18
S'p\x97@<'
p712
tp713
Rp714
tp715
a(g32
g6
(g18
S'{\xaf\r<'
p716
tp717
Rp718
tp719
a(g56
g6
(g18
S'O\x88P:'
p720
tp721
Rp722
tp723
a(g92
g6
(g18
S'\x98\xbd\n:'
p724
tp725
Rp726
tp727
asg73
g15
sa(dp728
g2
S'../../../data/emanuela/activity-recognition/images/NTCIR-Lifelog-256/u1/2015-02-25/b00001121_21i6bq_20150225_174051e.jpg'
p729
sg4
(lp730
(g32
g6
(g18
S'n\x904?'
p731
tp732
Rp733
tp734
a(g15
g6
(g18
S'\xa6\x80A>'
p735
tp736
Rp737
tp738
a(g56
g6
(g18
S'.\xf0R='
p739
tp740
Rp741
tp742
a(g68
g6
(g18
S'q\xf6\xbb<'
p743
tp744
Rp745
tp746
a(g201
g6
(g18
S'\r;\xc3;'
p747
tp748
Rp749
tp750
asg73
g15
sa(dp751
g2
S'../../../data/emanuela/activity-recognition/images/NTCIR-Lifelog-256/u1/2015-03-10/b00001918_21i6bq_20150310_105043e.jpg'
p752
sg4
(lp753
(g15
g6
(g18
S'\xa0+l?'
p754
tp755
Rp756
tp757
a(g301
g6
(g18
S'\xec\x9c6='
p758
tp759
Rp760
tp761
a(g32
g6
(g18
S'\xf6\x80\xe4<'
p762
tp763
Rp764
tp765
a(g158
g6
(g18
S'\x8e\x9e\xca:'
p766
tp767
Rp768
tp769
a(g68
g6
(g18
S'\x17C\xaa:'
p770
tp771
Rp772
tp773
asg73
g15
sa(dp774
g2
S'../../../data/emanuela/activity-recognition/images/NTCIR-Lifelog-256/u2/2015-05-06/b00006880_21i7lf_20150506_152256e.jpg'
p775
sg4
(lp776
(g15
g6
(g18
S'/_~?'
p777
tp778
Rp779
tp780
a(g32
g6
(g18
S'n\xe1\xcd;'
p781
tp782
Rp783
tp784
a(g44
g6
(g18
S',a\xec7'
p785
tp786
Rp787
tp788
a(g301
g6
(g18
S'*\x13\x817'
p789
tp790
Rp791
tp792
a(g201
g6
(g18
S'\xb9^\x807'
p793
tp794
Rp795
tp796
asg73
g15
sa(dp797
g2
S'../../../data/emanuela/activity-recognition/images/NTCIR-Lifelog-256/u1/2015-02-27/b00000321_21i6bq_20150227_102831e.jpg'
p798
sg4
(lp799
(g15
g6
(g18
S'\x93\xb4\x08?'
p800
tp801
Rp802
tp803
a(g32
g6
(g18
S'O\xcc\xd1>'
p804
tp805
Rp806
tp807
a(g92
g6
(g18
S'L\x11\xef<'
p808
tp809
Rp810
tp811
a(g201
g6
(g18
S'\x82\xf3(<'
p812
tp813
Rp814
tp815
a(g185
g6
(g18
S'O\xbd\xd4;'
p816
tp817
Rp818
tp819
asg73
g15
sa(dp820
g2
S'../../../data/emanuela/activity-recognition/images/NTCIR-Lifelog-256/u2/2015-05-01/b00002299_21i7lf_20150501_142739e.jpg'
p821
sg4
(lp822
(g15
g6
(g18
S'w\x83T?'
p823
tp824
Rp825
tp826
a(g158
g6
(g18
S'\x87\xee\xb3='
p827
tp828
Rp829
tp830
a(g201
g6
(g18
S'\xb32+='
p831
tp832
Rp833
tp834
a(g44
g6
(g18
S')\x85\x92<'
p835
tp836
Rp837
tp838
a(g32
g6
(g18
S'\xc2{R<'
p839
tp840
Rp841
tp842
asg73
g15
sa(dp843
g2
S'../../../data/emanuela/activity-recognition/images/NTCIR-Lifelog-256/u1/2015-03-10/b00000175_21i6bq_20150310_144209e.jpg'
p844
sg4
(lp845
(g158
g6
(g18
S'\xb1F\xc3>'
p846
tp847
Rp848
tp849
a(g15
g6
(g18
S'\xe93\xc2>'
p850
tp851
Rp852
tp853
a(g44
g6
(g18
S'[\xcb9>'
p854
tp855
Rp856
tp857
a(g696
g6
(g18
S'g\x01\x18='
p858
tp859
Rp860
tp861
a(g32
g6
(g18
S'\x01>\x17<'
p862
tp863
Rp864
tp865
asg73
g15
sa(dp866
g2
S'../../../data/emanuela/activity-recognition/images/NTCIR-Lifelog-256/u1/2015-03-02/b00000670_21i6bq_20150302_140943e.jpg'
p867
sg4
(lp868
(g15
g6
(g18
S'y\xf6-?'
p869
tp870
Rp871
tp872
a(g32
g6
(g18
S'*\xed\x82>'
p873
tp874
Rp875
tp876
a(g92
g6
(g18
S'\x86uN='
p877
tp878
Rp879
tp880
a(g201
g6
(g18
S'\xed\xb1\xb8;'
p881
tp882
Rp883
tp884
a(g185
g6
(g18
S'\xf7\xf2\xaa;'
p885
tp886
Rp887
tp888
asg73
g15
sa(dp889
g2
S'../../../data/emanuela/activity-recognition/images/NTCIR-Lifelog-256/u1/2015-03-12/b00000658_21i6bq_20150312_143721e.jpg'
p890
sg4
(lp891
(g15
g6
(g18
S'{\x01Y?'
p892
tp893
Rp894
tp895
a(g32
g6
(g18
S'1Y\xb9='
p896
tp897
Rp898
tp899
a(g56
g6
(g18
S'\x8c\xbb\xde<'
p900
tp901
Rp902
tp903
a(g104
g6
(g18
S'\xb8\x11\xa5<'
p904
tp905
Rp906
tp907
a(g68
g6
(g18
S'\xdc\x96d;'
p908
tp909
Rp910
tp911
asg73
g15
sa(dp912
g2
S'../../../data/emanuela/activity-recognition/images/NTCIR-Lifelog-256/u1/2015-03-11/b00000983_21i6bq_20150311_171113e.jpg'
p913
sg4
(lp914
(g15
g6
(g18
S'\xd6\r\xf2>'
p915
tp916
Rp917
tp918
a(g44
g6
(g18
S'\xf9\xd0\xe8>'
p919
tp920
Rp921
tp922
a(g201
g6
(g18
S'\xcfZ\xd0<'
p923
tp924
Rp925
tp926
a(g32
g6
(g18
S'GJr<'
p927
tp928
Rp929
tp930
a(g56
g6
(g18
S'\xcd\xd73<'
p931
tp932
Rp933
tp934
asg73
g15
sa(dp935
g2
S'../../../data/emanuela/activity-recognition/images/NTCIR-Lifelog-256/u1/2015-03-12/b00000682_21i6bq_20150312_145214e.jpg'
p936
sg4
(lp937
(g15
g6
(g18
S'\xdbUd?'
p938
tp939
Rp940
tp941
a(g32
g6
(g18
S'\n\x80]='
p942
tp943
Rp944
tp945
a(g185
g6
(g18
S'\x10\xf4\x9f<'
p946
tp947
Rp948
tp949
a(g201
g6
(g18
S'\xf5~}<'
p950
tp951
Rp952
tp953
a(g56
g6
(g18
S'\x1a\xabr;'
p954
tp955
Rp956
tp957
asg73
g15
sa(dp958
g2
S'../../../data/emanuela/activity-recognition/images/NTCIR-Lifelog-256/u1/2015-03-02/b00000809_21i6bq_20150302_154149e.jpg'
p959
sg4
(lp960
(g44
g6
(g18
S'\xb6\xbcV?'
p961
tp962
Rp963
tp964
a(g15
g6
(g18
S'\xc0\xdf\xc4='
p965
tp966
Rp967
tp968
a(g56
g6
(g18
S'zhM='
p969
tp970
Rp971
tp972
a(g32
g6
(g18
S'}\xbb\xd7;'
p973
tp974
Rp975
tp976
a(g104
g6
(g18
S'\x85\xb2\x06;'
p977
tp978
Rp979
tp980
asg73
g15
sa(dp981
g2
S'../../../data/emanuela/activity-recognition/images/NTCIR-Lifelog-256/u2/2015-04-22/b00000117_21i7lf_20150422_135658e.jpg'
p982
sg4
(lp983
(g15
g6
(g18
S'\x16\x87f?'
p984
tp985
Rp986
tp987
a(g32
g6
(g18
S'\x00\xbew='
p988
tp989
Rp990
tp991
a(g44
g6
(g18
S'q\xb9\x8f<'
p992
tp993
Rp994
tp995
a(g301
g6
(g18
S'\x9c4\xfe;'
p996
tp997
Rp998
tp999
a(g56
g6
(g18
S'\x7f\xaeB;'
p1000
tp1001
Rp1002
tp1003
asg73
g15
sa(dp1004
g2
S'../../../data/emanuela/activity-recognition/images/NTCIR-Lifelog-256/u1/2015-03-02/b00000639_21i6bq_20150302_134901e.jpg'
p1005
sg4
(lp1006
(g15
g6
(g18
S'\xeb\x12m?'
p1007
tp1008
Rp1009
tp1010
a(g32
g6
(g18
S'\xad\xe1;='
p1011
tp1012
Rp1013
tp1014
a(g301
g6
(g18
S'N\xcd\x87<'
p1015
tp1016
Rp1017
tp1018
a(g158
g6
(g18
S'qj\x91;'
p1019
tp1020
Rp1021
tp1022
a(g44
g6
(g18
S'\xe8\xdaU;'
p1023
tp1024
Rp1025
tp1026
asg73
g15
sa(dp1027
g2
S'../../../data/emanuela/activity-recognition/images/NTCIR-Lifelog-256/u1/2015-03-12/b00000732_21i6bq_20150312_152247e.jpg'
p1028
sg4
(lp1029
(g15
g6
(g18
S"\x97,'?"
p1030
tp1031
Rp1032
tp1033
a(g104
g6
(g18
S'\xe4\x89\x0e>'
p1034
tp1035
Rp1036
tp1037
a(g32
g6
(g18
S'\xb72\xad='
p1038
tp1039
Rp1040
tp1041
a(g56
g6
(g18
S'a\xdam='
p1042
tp1043
Rp1044
tp1045
a(g696
g6
(g18
S'\xe8\xc9n<'
p1046
tp1047
Rp1048
tp1049
asg73
g15
sa(dp1050
g2
S'../../../data/emanuela/activity-recognition/images/NTCIR-Lifelog-256/u1/2015-03-02/b00000831_21i6bq_20150302_155458e.jpg'
p1051
sg4
(lp1052
(g32
g6
(g18
S'\xfc<~>'
p1053
tp1054
Rp1055
tp1056
a(g201
g6
(g18
S'\xfd%e>'
p1057
tp1058
Rp1059
tp1060
a(g92
g6
(g18
S'\x88\xc1Z>'
p1061
tp1062
Rp1063
tp1064
a(g15
g6
(g18
S'E\xf1\xd9='
p1065
tp1066
Rp1067
tp1068
a(g185
g6
(g18
S'\xb0;\xd9='
p1069
tp1070
Rp1071
tp1072
asg73
g15
sa(dp1073
g2
S'../../../data/emanuela/activity-recognition/images/NTCIR-Lifelog-256/u2/2015-05-01/b00002312_21i7lf_20150501_143533e.jpg'
p1074
sg4
(lp1075
(g15
g6
(g18
S'_ts?'
p1076
tp1077
Rp1078
tp1079
a(g32
g6
(g18
S'\xf2\x8c\x12='
p1080
tp1081
Rp1082
tp1083
a(g201
g6
(g18
S'\t\x10#<'
p1084
tp1085
Rp1086
tp1087
a(g68
g6
(g18
S'\xf2Rp:'
p1088
tp1089
Rp1090
tp1091
a(g44
g6
(g18
S'\x82~\\:'
p1092
tp1093
Rp1094
tp1095
asg73
g15
sa(dp1096
g2
S'../../../data/emanuela/activity-recognition/images/NTCIR-Lifelog-256/u1/2015-02-27/b00000847_21i6bq_20150227_162053e.jpg'
p1097
sg4
(lp1098
(g32
g6
(g18
S'\x98\x9a\x91>'
p1099
tp1100
Rp1101
tp1102
a(g56
g6
(g18
S'V\xec\x90>'
p1103
tp1104
Rp1105
tp1106
a(g15
g6
(g18
S'9\n\x14>'
p1107
tp1108
Rp1109
tp1110
a(g92
g6
(g18
S'\xab\xa9\x06>'
p1111
tp1112
Rp1113
tp1114
a(g6
(g7
(S'S16'
p1115
I0
I1
tp1116
Rp1117
(I3
S'|'
p1118
NNNI16
I1
I0
tp1119
bS'public transport'
p1120
tp1121
Rp1122
g6
(g18
S"L\xaf'="
p1123
tp1124
Rp1125
tp1126
asg73
g15
sa(dp1127
g2
S'../../../data/emanuela/activity-recognition/images/NTCIR-Lifelog-256/u2/2015-04-24/b00002099_21i7lf_20150424_105419e.jpg'
p1128
sg4
(lp1129
(g15
g6
(g18
S'\x01iw?'
p1130
tp1131
Rp1132
tp1133
a(g32
g6
(g18
S't\x18r<'
p1134
tp1135
Rp1136
tp1137
a(g201
g6
(g18
S'M\x15m<'
p1138
tp1139
Rp1140
tp1141
a(g56
g6
(g18
S'\xff\x99\x9a:'
p1142
tp1143
Rp1144
tp1145
a(g68
g6
(g18
S'\xfb)t:'
p1146
tp1147
Rp1148
tp1149
asg73
g15
sa(dp1150
g2
S'../../../data/emanuela/activity-recognition/images/NTCIR-Lifelog-256/u1/2015-03-10/b00001850_21i6bq_20150310_100445e.jpg'
p1151
sg4
(lp1152
(g15
g6
(g18
S',\x1cs?'
p1153
tp1154
Rp1155
tp1156
a(g301
g6
(g18
S'\xe3\xc5\x9a<'
p1157
tp1158
Rp1159
tp1160
a(g44
g6
(g18
S'\xa9\xa5)<'
p1161
tp1162
Rp1163
tp1164
a(g158
g6
(g18
S'\xa93\x16<'
p1165
tp1166
Rp1167
tp1168
a(g32
g6
(g18
S'I\x10\xdf;'
p1169
tp1170
Rp1171
tp1172
asg73
g15
sa(dp1173
g2
S'../../../data/emanuela/activity-recognition/images/NTCIR-Lifelog-256/u2/2015-05-07/b00008038_21i7lf_20150507_183516e.jpg'
p1174
sg4
(lp1175
(g15
g6
(g18
S'\x05\xecf?'
p1176
tp1177
Rp1178
tp1179
a(g44
g6
(g18
S'\xd2F\x89='
p1180
tp1181
Rp1182
tp1183
a(g56
g6
(g18
S'\xef\x89\x9c<'
p1184
tp1185
Rp1186
tp1187
a(g6
(g7
(S'S7'
p1188
I0
I1
tp1189
Rp1190
(I3
S'|'
p1191
NNNI7
I1
I0
tp1192
bS'resting'
p1193
tp1194
Rp1195
g6
(g18
S'\x8a\xbb\x9e;'
p1196
tp1197
Rp1198
tp1199
a(g32
g6
(g18
S'\xeb?P;'
p1200
tp1201
Rp1202
tp1203
asg73
g15
sa(dp1204
g2
S'../../../data/emanuela/activity-recognition/images/NTCIR-Lifelog-256/u1/2015-03-04/b00000389_21i6bq_20150304_104530e.jpg'
p1205
sg4
(lp1206
(g15
g6
(g18
S'@\x0cG?'
p1207
tp1208
Rp1209
tp1210
a(g32
g6
(g18
S'E\xf0\x9a='
p1211
tp1212
Rp1213
tp1214
a(g301
g6
(g18
S'p\x97L='
p1215
tp1216
Rp1217
tp1218
a(g56
g6
(g18
S'm\xeb\xf3<'
p1219
tp1220
Rp1221
tp1222
a(g158
g6
(g18
S'\x8dV\xc2<'
p1223
tp1224
Rp1225
tp1226
asg73
g15
sa(dp1227
g2
S'../../../data/emanuela/activity-recognition/images/NTCIR-Lifelog-256/u2/2015-04-27/b00005679_21i7lf_20150427_162457e.jpg'
p1228
sg4
(lp1229
(g56
g6
(g18
S'\xe6:\xe4>'
p1230
tp1231
Rp1232
tp1233
a(g15
g6
(g18
S'\xd0\x9e\x90>'
p1234
tp1235
Rp1236
tp1237
a(g32
g6
(g18
S'TP\x00>'
p1238
tp1239
Rp1240
tp1241
a(g104
g6
(g18
S'J\xd57='
p1242
tp1243
Rp1244
tp1245
a(g185
g6
(g18
S'\xbag\xcc<'
p1246
tp1247
Rp1248
tp1249
asg73
g15
sa(dp1250
g2
S'../../../data/emanuela/activity-recognition/images/NTCIR-Lifelog-256/u2/2015-04-29/b00000829_21i7lf_20150429_160534e.jpg'
p1251
sg4
(lp1252
(g32
g6
(g18
S'\x99\x05\xaf>'
p1253
tp1254
Rp1255
tp1256
a(g56
g6
(g18
S'\xc0#=>'
p1257
tp1258
Rp1259
tp1260
a(g15
g6
(g18
S'\xb7\xc16>'
p1261
tp1262
Rp1263
tp1264
a(g68
g6
(g18
S'\x8bq!>'
p1265
tp1266
Rp1267
tp1268
a(g201
g6
(g18
S'?\xf39='
p1269
tp1270
Rp1271
tp1272
asg73
g15
sa(dp1273
g2
S'../../../data/emanuela/activity-recognition/images/NTCIR-Lifelog-256/u2/2015-05-01/b00002038_21i7lf_20150501_114432e.jpg'
p1274
sg4
(lp1275
(g15
g6
(g18
S'3HT?'
p1276
tp1277
Rp1278
tp1279
a(g32
g6
(g18
S'`$\xc1='
p1280
tp1281
Rp1282
tp1283
a(g56
g6
(g18
S'\xde\xd8\xd2<'
p1284
tp1285
Rp1286
tp1287
a(g44
g6
(g18
S'\xd3;\xc1<'
p1288
tp1289
Rp1290
tp1291
a(g92
g6
(g18
S'\x7f+\xc7;'
p1292
tp1293
Rp1294
tp1295
asg73
g15
sa(dp1296
g2
S'../../../data/emanuela/activity-recognition/images/NTCIR-Lifelog-256/u2/2015-05-01/b00002317_21i7lf_20150501_143831e.jpg'
p1297
sg4
(lp1298
(g15
g6
(g18
S'\xf7\x83,?'
p1299
tp1300
Rp1301
tp1302
a(g32
g6
(g18
S'\xc2\xe7N>'
p1303
tp1304
Rp1305
tp1306
a(g92
g6
(g18
S'\x16\x8e|='
p1307
tp1308
Rp1309
tp1310
a(g201
g6
(g18
S's\xc7\x95<'
p1311
tp1312
Rp1313
tp1314
a(g185
g6
(g18
S't\xa3\x83<'
p1315
tp1316
Rp1317
tp1318
asg73
g15
sa(dp1319
g2
S'../../../data/emanuela/activity-recognition/images/NTCIR-Lifelog-256/u1/2015-02-27/b00000307_21i6bq_20150227_102058e.jpg'
p1320
sg4
(lp1321
(g92
g6
(g18
S'\xb1\x98\xc8>'
p1322
tp1323
Rp1324
tp1325
a(g15
g6
(g18
S'?\x0e\x91>'
p1326
tp1327
Rp1328
tp1329
a(g32
g6
(g18
S'#\x14\x83>'
p1330
tp1331
Rp1332
tp1333
a(g44
g6
(g18
S'\x97\xd7\xa5<'
p1334
tp1335
Rp1336
tp1337
a(g185
g6
(g18
S'%\x8e\xa3<'
p1338
tp1339
Rp1340
tp1341
asg73
g15
sa(dp1342
g2
S'../../../data/emanuela/activity-recognition/images/NTCIR-Lifelog-256/u2/2015-04-27/b00005230_21i7lf_20150427_114707e.jpg'
p1343
sg4
(lp1344
(g15
g6
(g18
S'\xfe9[?'
p1345
tp1346
Rp1347
tp1348
a(g44
g6
(g18
S'\xf6\xf2\xfc<'
p1349
tp1350
Rp1351
tp1352
a(g68
g6
(g18
S'AF\xed<'
p1353
tp1354
Rp1355
tp1356
a(g301
g6
(g18
S'Vv\xd0<'
p1357
tp1358
Rp1359
tp1360
a(g56
g6
(g18
S'\xec\x8f{<'
p1361
tp1362
Rp1363
tp1364
asg73
g15
sa(dp1365
g2
S'../../../data/emanuela/activity-recognition/images/NTCIR-Lifelog-256/u2/2015-04-20/b00000055_21i7lf_20150420_100715e.jpg'
p1366
sg4
(lp1367
(g696
g6
(g18
S'\xe6\xb4\xff>'
p1368
tp1369
Rp1370
tp1371
a(g15
g6
(g18
S'\xcfM\x11>'
p1372
tp1373
Rp1374
tp1375
a(g32
g6
(g18
S'\xbb\xee\x8a='
p1376
tp1377
Rp1378
tp1379
a(g68
g6
(g18
S'\xba\xb7|='
p1380
tp1381
Rp1382
tp1383
a(g44
g6
(g18
S'\xbc\x07f='
p1384
tp1385
Rp1386
tp1387
asg73
g15
sa(dp1388
g2
S'../../../data/emanuela/activity-recognition/images/NTCIR-Lifelog-256/u1/2015-03-05/b00000246_21i6bq_20150305_084440e.jpg'
p1389
sg4
(lp1390
(g15
g6
(g18
S'9\xa1z?'
p1391
tp1392
Rp1393
tp1394
a(g32
g6
(g18
S'\xdd\x03\x97<'
p1395
tp1396
Rp1397
tp1398
a(g56
g6
(g18
S'\xc4\xa1\x96:'
p1399
tp1400
Rp1401
tp1402
a(g158
g6
(g18
S'\x02\xa1\xf49'
p1403
tp1404
Rp1405
tp1406
a(g44
g6
(g18
S'|\x95\x989'
p1407
tp1408
Rp1409
tp1410
asg73
g15
sa(dp1411
g2
S'../../../data/emanuela/activity-recognition/images/NTCIR-Lifelog-256/u2/2015-04-22/b00000102_21i7lf_20150422_134743e.jpg'
p1412
sg4
(lp1413
(g301
g6
(g18
S'\xb9d\x86>'
p1414
tp1415
Rp1416
tp1417
a(g15
g6
(g18
S'`\xbed>'
p1418
tp1419
Rp1420
tp1421
a(g68
g6
(g18
S'\xebW\xf3='
p1422
tp1423
Rp1424
tp1425
a(g158
g6
(g18
S'\x12\xa3\xcd='
p1426
tp1427
Rp1428
tp1429
a(g185
g6
(g18
S'\xbb\xe6T='
p1430
tp1431
Rp1432
tp1433
asg73
g15
sa(dp1434
g2
S'../../../data/emanuela/activity-recognition/images/NTCIR-Lifelog-256/u2/2015-04-24/b00002132_21i7lf_20150424_111446e.jpg'
p1435
sg4
(lp1436
(g15
g6
(g18
S'-\x18Z?'
p1437
tp1438
Rp1439
tp1440
a(g32
g6
(g18
S'\xf9M\xb6='
p1441
tp1442
Rp1443
tp1444
a(g92
g6
(g18
S'\x8f\xd2\x0e='
p1445
tp1446
Rp1447
tp1448
a(g201
g6
(g18
S'\x98L0<'
p1449
tp1450
Rp1451
tp1452
a(g185
g6
(g18
S'\xe2\x97#<'
p1453
tp1454
Rp1455
tp1456
asg73
g15
sa(dp1457
g2
S'../../../data/emanuela/activity-recognition/images/NTCIR-Lifelog-256/u1/2015-03-06/b00000919_21i6bq_20150306_145445e.jpg'
p1458
sg4
(lp1459
(g92
g6
(g18
S'\xfc\xf7\xca>'
p1460
tp1461
Rp1462
tp1463
a(g44
g6
(g18
S'\x029\xc4>'
p1464
tp1465
Rp1466
tp1467
a(g56
g6
(g18
S'#j\xb5='
p1468
tp1469
Rp1470
tp1471
a(g104
g6
(g18
S'\x911-='
p1472
tp1473
Rp1474
tp1475
a(g15
g6
(g18
S'.Z\xed<'
p1476
tp1477
Rp1478
tp1479
asg73
g15
sa(dp1480
g2
S'../../../data/emanuela/activity-recognition/images/NTCIR-Lifelog-256/u1/2015-02-28/b00000950_21i6bq_20150228_155600e.jpg'
p1481
sg4
(lp1482
(g32
g6
(g18
S'\xeb\xd2m?'
p1483
tp1484
Rp1485
tp1486
a(g15
g6
(g18
S'\xd39=='
p1487
tp1488
Rp1489
tp1490
a(g92
g6
(g18
S'\xa8r\x80<'
p1491
tp1492
Rp1493
tp1494
a(g56
g6
(g18
S'\xae`\xc3;'
p1495
tp1496
Rp1497
tp1498
a(g201
g6
(g18
S'\xd2\xe2\x90:'
p1499
tp1500
Rp1501
tp1502
asg73
g15
sa(dp1503
g2
S'../../../data/emanuela/activity-recognition/images/NTCIR-Lifelog-256/u1/2015-03-18/b00000355_21i6bq_20150318_112954e.jpg'
p1504
sg4
(lp1505
(g201
g6
(g18
S'\x04!v>'
p1506
tp1507
Rp1508
tp1509
a(g104
g6
(g18
S'\xba\xc7e>'
p1510
tp1511
Rp1512
tp1513
a(g32
g6
(g18
S'K\xebM>'
p1514
tp1515
Rp1516
tp1517
a(g92
g6
(g18
S'J\xe2\x15>'
p1518
tp1519
Rp1520
tp1521
a(g185
g6
(g18
S'\xae["='
p1522
tp1523
Rp1524
tp1525
asg73
g15
sa(dp1526
g2
S'../../../data/emanuela/activity-recognition/images/NTCIR-Lifelog-256/u2/2015-04-27/b00005252_21i7lf_20150427_115949e.jpg'
p1527
sg4
(lp1528
(g15
g6
(g18
S'[z\x04?'
p1529
tp1530
Rp1531
tp1532
a(g44
g6
(g18
S'E\xac\x8f>'
p1533
tp1534
Rp1535
tp1536
a(g1195
g6
(g18
S'Z\xd9\x8a='
p1537
tp1538
Rp1539
tp1540
a(g56
g6
(g18
S'P\x02=='
p1541
tp1542
Rp1543
tp1544
a(g68
g6
(g18
S'-\xb7\xb0<'
p1545
tp1546
Rp1547
tp1548
asg73
g15
sa(dp1549
g2
S'../../../data/emanuela/activity-recognition/images/NTCIR-Lifelog-256/u1/2015-03-05/b00000278_21i6bq_20150305_090428e.jpg'
p1550
sg4
(lp1551
(g15
g6
(g18
S'\x8a\xd4q?'
p1552
tp1553
Rp1554
tp1555
a(g32
g6
(g18
S'\xc3\xc8\x13='
p1556
tp1557
Rp1558
tp1559
a(g56
g6
(g18
S'M\xc4\x95;'
p1560
tp1561
Rp1562
tp1563
a(g104
g6
(g18
S'\xb2N\x85;'
p1564
tp1565
Rp1566
tp1567
a(g92
g6
(g18
S'\xe5\xf9\x07;'
p1568
tp1569
Rp1570
tp1571
asg73
g15
sa(dp1572
g2
S'../../../data/emanuela/activity-recognition/images/NTCIR-Lifelog-256/u1/2015-03-11/b00000800_21i6bq_20150311_150431e.jpg'
p1573
sg4
(lp1574
(g15
g6
(g18
S'\xc1\xfdl?'
p1575
tp1576
Rp1577
tp1578
a(g44
g6
(g18
S':\xfa\x11='
p1579
tp1580
Rp1581
tp1582
a(g32
g6
(g18
S"'\xfb\xf5<"
p1583
tp1584
Rp1585
tp1586
a(g56
g6
(g18
S'\xb4\xf8\x1e;'
p1587
tp1588
Rp1589
tp1590
a(g201
g6
(g18
S'\xff\x0c\xc5:'
p1591
tp1592
Rp1593
tp1594
asg73
g15
sa(dp1595
g2
S'../../../data/emanuela/activity-recognition/images/NTCIR-Lifelog-256/u1/2015-03-10/b00001887_21i6bq_20150310_103152e.jpg'
p1596
sg4
(lp1597
(g15
g6
(g18
S'\x81.k?'
p1598
tp1599
Rp1600
tp1601
a(g44
g6
(g18
S'%\x93\x90='
p1602
tp1603
Rp1604
tp1605
a(g158
g6
(g18
S'\xcc2\x96;'
p1606
tp1607
Rp1608
tp1609
a(g301
g6
(g18
S'ER`;'
p1610
tp1611
Rp1612
tp1613
a(g32
g6
(g18
S'\xcc\xa1\x9b:'
p1614
tp1615
Rp1616
tp1617
asg73
g15
sa(dp1618
g2
S'../../../data/emanuela/activity-recognition/images/NTCIR-Lifelog-256/u1/2015-03-18/b00000672_21i6bq_20150318_151515e.jpg'
p1619
sg4
(lp1620
(g15
g6
(g18
S'\x19@m?'
p1621
tp1622
Rp1623
tp1624
a(g32
g6
(g18
S'\x81P+='
p1625
tp1626
Rp1627
tp1628
a(g56
g6
(g18
S'\xce\xcd<<'
p1629
tp1630
Rp1631
tp1632
a(g696
g6
(g18
S'M\x9d\x8e;'
p1633
tp1634
Rp1635
tp1636
a(g1195
g6
(g18
S'\xd7\xbfx;'
p1637
tp1638
Rp1639
tp1640
asg73
g15
sa(dp1641
g2
S'../../../data/emanuela/activity-recognition/images/NTCIR-Lifelog-256/u1/2015-03-04/b00000398_21i6bq_20150304_105045e.jpg'
p1642
sg4
(lp1643
(g15
g6
(g18
S'\xf7z\\?'
p1644
tp1645
Rp1646
tp1647
a(g32
g6
(g18
S'Q\xdf\xb0='
p1648
tp1649
Rp1650
tp1651
a(g301
g6
(g18
S'\x89\xee\xd3<'
p1652
tp1653
Rp1654
tp1655
a(g56
g6
(g18
S'\x96L3<'
p1656
tp1657
Rp1658
tp1659
a(g158
g6
(g18
S'\x98\xe7\xa6;'
p1660
tp1661
Rp1662
tp1663
asg73
g15
sa(dp1664
g2
S'../../../data/emanuela/activity-recognition/images/NTCIR-Lifelog-256/u1/2015-02-27/b00000309_21i6bq_20150227_102205e.jpg'
p1665
sg4
(lp1666
(g15
g6
(g18
S'\xe3\x83$?'
p1667
tp1668
Rp1669
tp1670
a(g32
g6
(g18
S'\xab\xe7\x81>'
p1671
tp1672
Rp1673
tp1674
a(g92
g6
(g18
S'\xc0\x10\xa0='
p1675
tp1676
Rp1677
tp1678
a(g201
g6
(g18
S':^\x01<'
p1679
tp1680
Rp1681
tp1682
a(g185
g6
(g18
S'6\xdbu;'
p1683
tp1684
Rp1685
tp1686
asg73
g15
sa(dp1687
g2
S'../../../data/emanuela/activity-recognition/images/NTCIR-Lifelog-256/u2/2015-05-01/b00002026_21i7lf_20150501_113709e.jpg'
p1688
sg4
(lp1689
(g15
g6
(g18
S'\xb2Cx?'
p1690
tp1691
Rp1692
tp1693
a(g44
g6
(g18
S'\x9b\xb6\xb5<'
p1694
tp1695
Rp1696
tp1697
a(g32
g6
(g18
S'\xce\x9a\x11;'
p1698
tp1699
Rp1700
tp1701
a(g68
g6
(g18
S'\xd2\xde\x00;'
p1702
tp1703
Rp1704
tp1705
a(g6
(g7
(S'S2'
p1706
I0
I1
tp1707
Rp1708
(I3
S'|'
p1709
NNNI2
I1
I0
tp1710
bS'tv'
p1711
tp1712
Rp1713
g6
(g18
S'\x01&n:'
p1714
tp1715
Rp1716
tp1717
asg73
g15
sa(dp1718
g2
S'../../../data/emanuela/activity-recognition/images/NTCIR-Lifelog-256/u2/2015-05-01/b00002318_21i7lf_20150501_143912e.jpg'
p1719
sg4
(lp1720
(g15
g6
(g18
S'f}|?'
p1721
tp1722
Rp1723
tp1724
a(g32
g6
(g18
S'@\xb2G<'
p1725
tp1726
Rp1727
tp1728
a(g201
g6
(g18
S'\x1f\xc9a:'
p1729
tp1730
Rp1731
tp1732
a(g104
g6
(g18
S'\xe0\x13\xa99'
p1733
tp1734
Rp1735
tp1736
a(g185
g6
(g18
S'\xb9\xcc\xd98'
p1737
tp1738
Rp1739
tp1740
asg73
g15
sa(dp1741
g2
S'../../../data/emanuela/activity-recognition/images/NTCIR-Lifelog-256/u1/2015-03-02/b00000783_21i6bq_20150302_152623e.jpg'
p1742
sg4
(lp1743
(g15
g6
(g18
S'\x0fS%?'
p1744
tp1745
Rp1746
tp1747
a(g44
g6
(g18
S'\xb5E\x83>'
p1748
tp1749
Rp1750
tp1751
a(g32
g6
(g18
S'\xedz\x8d='
p1752
tp1753
Rp1754
tp1755
a(g56
g6
(g18
S'\xad\xb68<'
p1756
tp1757
Rp1758
tp1759
a(g104
g6
(g18
S'\xe7[\x7f;'
p1760
tp1761
Rp1762
tp1763
asg73
g15
sa(dp1764
g2
S'../../../data/emanuela/activity-recognition/images/NTCIR-Lifelog-256/u1/2015-03-12/b00000691_21i6bq_20150312_145750e.jpg'
p1765
sg4
(lp1766
(g15
g6
(g18
S'\xb0\x0b\x05?'
p1767
tp1768
Rp1769
tp1770
a(g185
g6
(g18
S'\x8eKT>'
p1771
tp1772
Rp1773
tp1774
a(g32
g6
(g18
S'\xc8\x9a\xc8='
p1775
tp1776
Rp1777
tp1778
a(g201
g6
(g18
S')`V='
p1779
tp1780
Rp1781
tp1782
a(g104
g6
(g18
S'\x113\x13='
p1783
tp1784
Rp1785
tp1786
asg73
g15
sa(dp1787
g2
S'../../../data/emanuela/activity-recognition/images/NTCIR-Lifelog-256/u2/2015-05-07/b00008057_21i7lf_20150507_184650e.jpg'
p1788
sg4
(lp1789
(g15
g6
(g18
S'\x890\xfc>'
p1790
tp1791
Rp1792
tp1793
a(g56
g6
(g18
S'U=\xb2>'
p1794
tp1795
Rp1796
tp1797
a(g32
g6
(g18
S'+\x86(='
p1798
tp1799
Rp1800
tp1801
a(g92
g6
(g18
S'"A\xf5<'
p1802
tp1803
Rp1804
tp1805
a(g104
g6
(g18
S'\xfb\xc3\xf4<'
p1806
tp1807
Rp1808
tp1809
asg73
g15
sa(dp1810
g2
S'../../../data/emanuela/activity-recognition/images/NTCIR-Lifelog-256/u2/2015-05-01/b00002075_21i7lf_20150501_120728e.jpg'
p1811
sg4
(lp1812
(g15
g6
(g18
S'_G\xc7>'
p1813
tp1814
Rp1815
tp1816
a(g32
g6
(g18
S'\xb0<\xbb>'
p1817
tp1818
Rp1819
tp1820
a(g56
g6
(g18
S'\xba\xd1\xfd='
p1821
tp1822
Rp1823
tp1824
a(g92
g6
(g18
S'\xbf\x0c5='
p1825
tp1826
Rp1827
tp1828
a(g104
g6
(g18
S'UO\xdf<'
p1829
tp1830
Rp1831
tp1832
asg73
g15
sa(dp1833
g2
S'../../../data/emanuela/activity-recognition/images/NTCIR-Lifelog-256/u2/2015-04-22/b00000174_21i7lf_20150422_143221e.jpg'
p1834
sg4
(lp1835
(g15
g6
(g18
S'l\x97i?'
p1836
tp1837
Rp1838
tp1839
a(g32
g6
(g18
S'\x15\xdd\x8e='
p1840
tp1841
Rp1842
tp1843
a(g301
g6
(g18
S'C\x17#<'
p1844
tp1845
Rp1846
tp1847
a(g44
g6
(g18
S'w\xb9\xca;'
p1848
tp1849
Rp1850
tp1851
a(g56
g6
(g18
S'"\xbc\x11:'
p1852
tp1853
Rp1854
tp1855
asg73
g15
sa(dp1856
g2
S'../../../data/emanuela/activity-recognition/images/NTCIR-Lifelog-256/u2/2015-05-06/b00006941_21i7lf_20150506_160203e.jpg'
p1857
sg4
(lp1858
(g15
g6
(g18
S',\xc2e?'
p1859
tp1860
Rp1861
tp1862
a(g32
g6
(g18
S'\x8cnc='
p1863
tp1864
Rp1865
tp1866
a(g301
g6
(g18
S'\xd4\x9c\xc9<'
p1867
tp1868
Rp1869
tp1870
a(g68
g6
(g18
S'\xef\xf7\x9a;'
p1871
tp1872
Rp1873
tp1874
a(g44
g6
(g18
S'_\xf0\x8f;'
p1875
tp1876
Rp1877
tp1878
asg73
g15
sa(dp1879
g2
S'../../../data/emanuela/activity-recognition/images/NTCIR-Lifelog-256/u2/2015-04-27/b00005225_21i7lf_20150427_114350e.jpg'
p1880
sg4
(lp1881
(g15
g6
(g18
S'\x00\xc8\x08?'
p1882
tp1883
Rp1884
tp1885
a(g1195
g6
(g18
S'D0;>'
p1886
tp1887
Rp1888
tp1889
a(g56
g6
(g18
S'g\x8a\xdc='
p1890
tp1891
Rp1892
tp1893
a(g44
g6
(g18
S'\x8bJ>='
p1894
tp1895
Rp1896
tp1897
a(g301
g6
(g18
S'\xae\xdf\x05='
p1898
tp1899
Rp1900
tp1901
asg73
g15
sa(dp1902
g2
S'../../../data/emanuela/activity-recognition/images/NTCIR-Lifelog-256/u2/2015-05-01/b00002056_21i7lf_20150501_115549e.jpg'
p1903
sg4
(lp1904
(g15
g6
(g18
S',\xfe\x96>'
p1905
tp1906
Rp1907
tp1908
a(g301
g6
(g18
S'\x99\xd3W>'
p1909
tp1910
Rp1911
tp1912
a(g68
g6
(g18
S'\xc5s0>'
p1913
tp1914
Rp1915
tp1916
a(g1713
g6
(g18
S'\xd6r\xf6='
p1917
tp1918
Rp1919
tp1920
a(g158
g6
(g18
S'\xac\x9f\xd7='
p1921
tp1922
Rp1923
tp1924
asg73
g15
sa(dp1925
g2
S'../../../data/emanuela/activity-recognition/images/NTCIR-Lifelog-256/u1/2015-03-05/b00000184_21i6bq_20150305_080713e.jpg'
p1926
sg4
(lp1927
(g15
g6
(g18
S'\xc6\x86\xe1>'
p1928
tp1929
Rp1930
tp1931
a(g158
g6
(g18
S'_\xa8\xb7>'
p1932
tp1933
Rp1934
tp1935
a(g44
g6
(g18
S'A\xf4\x86='
p1936
tp1937
Rp1938
tp1939
a(g92
g6
(g18
S'J\xa7?='
p1940
tp1941
Rp1942
tp1943
a(g32
g6
(g18
S'e\xf4\x0e='
p1944
tp1945
Rp1946
tp1947
asg73
g15
sa(dp1948
g2
S'../../../data/emanuela/activity-recognition/images/NTCIR-Lifelog-256/u1/2015-03-04/b00000397_21i6bq_20150304_105012e.jpg'
p1949
sg4
(lp1950
(g15
g6
(g18
S'`sq?'
p1951
tp1952
Rp1953
tp1954
a(g32
g6
(g18
S'\xd3\xa4\x13='
p1955
tp1956
Rp1957
tp1958
a(g301
g6
(g18
S'\xdd\xc8\x1e<'
p1959
tp1960
Rp1961
tp1962
a(g56
g6
(g18
S'9b\x83;'
p1963
tp1964
Rp1965
tp1966
a(g158
g6
(g18
S'~\xc3!;'
p1967
tp1968
Rp1969
tp1970
asg73
g15
sa(dp1971
g2
S'../../../data/emanuela/activity-recognition/images/NTCIR-Lifelog-256/u1/2015-03-02/b00000792_21i6bq_20150302_153145e.jpg'
p1972
sg4
(lp1973
(g56
g6
(g18
S'\xc5\x95\xd3>'
p1974
tp1975
Rp1976
tp1977
a(g44
g6
(g18
S'\xb6=\xcd>'
p1978
tp1979
Rp1980
tp1981
a(g15
g6
(g18
S'8\x99\t>'
p1982
tp1983
Rp1984
tp1985
a(g32
g6
(g18
S'\xe8\xd1\xc9<'
p1986
tp1987
Rp1988
tp1989
a(g1195
g6
(g18
S'\xd7|\xf0;'
p1990
tp1991
Rp1992
tp1993
asg73
g15
sa(dp1994
g2
S'../../../data/emanuela/activity-recognition/images/NTCIR-Lifelog-256/u2/2015-05-01/b00001967_21i7lf_20150501_110135e.jpg'
p1995
sg4
(lp1996
(g696
g6
(g18
S'\xb1\x9a\xe9>'
p1997
tp1998
Rp1999
tp2000
a(g15
g6
(g18
S'\x10n7>'
p2001
tp2002
Rp2003
tp2004
a(g68
g6
(g18
S'H_\x11>'
p2005
tp2006
Rp2007
tp2008
a(g301
g6
(g18
S'\xac\xde\xe1='
p2009
tp2010
Rp2011
tp2012
a(g32
g6
(g18
S'zs\x14='
p2013
tp2014
Rp2015
tp2016
asg73
g15
sa(dp2017
g2
S'../../../data/emanuela/activity-recognition/images/NTCIR-Lifelog-256/u1/2015-03-18/b00000329_21i6bq_20150318_111456e.jpg'
p2018
sg4
(lp2019
(g15
g6
(g18
S'}`\xf6>'
p2020
tp2021
Rp2022
tp2023
a(g32
g6
(g18
S'\xca\xc5\xc2>'
p2024
tp2025
Rp2026
tp2027
a(g92
g6
(g18
S'v;\x96='
p2028
tp2029
Rp2030
tp2031
a(g44
g6
(g18
S'\xa1J`='
p2032
tp2033
Rp2034
tp2035
a(g201
g6
(g18
S'\x87\x05\xac;'
p2036
tp2037
Rp2038
tp2039
asg73
g15
sa(dp2040
g2
S'../../../data/emanuela/activity-recognition/images/NTCIR-Lifelog-256/u2/2015-04-27/b00005282_21i7lf_20150427_121805e.jpg'
p2041
sg4
(lp2042
(g15
g6
(g18
S'(\x84\\?'
p2043
tp2044
Rp2045
tp2046
a(g56
g6
(g18
S'\xc4\xac\x81='
p2047
tp2048
Rp2049
tp2050
a(g44
g6
(g18
S'92#='
p2051
tp2052
Rp2053
tp2054
a(g68
g6
(g18
S'i\xef\x82<'
p2055
tp2056
Rp2057
tp2058
a(g32
g6
(g18
S'\xa7\xf2\xcf;'
p2059
tp2060
Rp2061
tp2062
asg73
g15
sa(dp2063
g2
S'../../../data/emanuela/activity-recognition/images/NTCIR-Lifelog-256/u2/2015-05-07/b00007786_21i7lf_20150507_160105e.jpg'
p2064
sg4
(lp2065
(g15
g6
(g18
S'\x97?n?'
p2066
tp2067
Rp2068
tp2069
a(g301
g6
(g18
S'tQ%='
p2070
tp2071
Rp2072
tp2073
a(g44
g6
(g18
S'\xfa|\x91<'
p2074
tp2075
Rp2076
tp2077
a(g32
g6
(g18
S'\x11\xb2\xb1;'
p2078
tp2079
Rp2080
tp2081
a(g158
g6
(g18
S'\x10\xf4\t;'
p2082
tp2083
Rp2084
tp2085
asg73
g15
sa(dp2086
g2
S'../../../data/emanuela/activity-recognition/images/NTCIR-Lifelog-256/u2/2015-04-20/b00000052_21i7lf_20150420_100521e.jpg'
p2087
sg4
(lp2088
(g301
g6
(g18
S'k\rM?'
p2089
tp2090
Rp2091
tp2092
a(g15
g6
(g18
S'Z`%>'
p2093
tp2094
Rp2095
tp2096
a(g68
g6
(g18
S'h\xb6\x8f<'
p2097
tp2098
Rp2099
tp2100
a(g32
g6
(g18
S'\xa8K\xf2;'
p2101
tp2102
Rp2103
tp2104
a(g158
g6
(g18
S'\x8f\xe4{;'
p2105
tp2106
Rp2107
tp2108
asg73
g15
sa(dp2109
g2
S'../../../data/emanuela/activity-recognition/images/NTCIR-Lifelog-256/u1/2015-03-05/b00000276_21i6bq_20150305_090315e.jpg'
p2110
sg4
(lp2111
(g15
g6
(g18
S'\x94\x8f}>'
p2112
tp2113
Rp2114
tp2115
a(g32
g6
(g18
S'%\x04g>'
p2116
tp2117
Rp2118
tp2119
a(g92
g6
(g18
S'\xfc\xf9!>'
p2120
tp2121
Rp2122
tp2123
a(g56
g6
(g18
S'?\x91\xb2='
p2124
tp2125
Rp2126
tp2127
a(g201
g6
(g18
S'g\xf4\x8b='
p2128
tp2129
Rp2130
tp2131
asg73
g15
sa(dp2132
g2
S'../../../data/emanuela/activity-recognition/images/NTCIR-Lifelog-256/u2/2015-04-22/b00000169_21i7lf_20150422_142922e.jpg'
p2133
sg4
(lp2134
(g15
g6
(g18
S'\xf6\x9e)?'
p2135
tp2136
Rp2137
tp2138
a(g32
g6
(g18
S'\xd6\xd1L>'
p2139
tp2140
Rp2141
tp2142
a(g92
g6
(g18
S'\x00\x06C='
p2143
tp2144
Rp2145
tp2146
a(g201
g6
(g18
S'\xf3A\t='
p2147
tp2148
Rp2149
tp2150
a(g56
g6
(g18
S'i\x0e\x95<'
p2151
tp2152
Rp2153
tp2154
asg73
g15
sa(dp2155
g2
S'../../../data/emanuela/activity-recognition/images/NTCIR-Lifelog-256/u1/2015-03-18/b00000357_21i6bq_20150318_113104e.jpg'
p2156
sg4
(lp2157
(g32
g6
(g18
S'\xfb\x14\x18?'
p2158
tp2159
Rp2160
tp2161
a(g15
g6
(g18
S"'\x9f4>"
p2162
tp2163
Rp2164
tp2165
a(g92
g6
(g18
S'*\xcc\xbd='
p2166
tp2167
Rp2168
tp2169
a(g201
g6
(g18
S'-JC='
p2170
tp2171
Rp2172
tp2173
a(g104
g6
(g18
S' \xa13='
p2174
tp2175
Rp2176
tp2177
asg73
g15
sa(dp2178
g2
S'../../../data/emanuela/activity-recognition/images/NTCIR-Lifelog-256/u1/2015-03-04/b00000347_21i6bq_20150304_101854e.jpg'
p2179
sg4
(lp2180
(g15
g6
(g18
S'\x07\xb0l?'
p2181
tp2182
Rp2183
tp2184
a(g32
g6
(g18
S'#\x00\x88='
p2185
tp2186
Rp2187
tp2188
a(g201
g6
(g18
S'3"?;'
p2189
tp2190
Rp2191
tp2192
a(g92
g6
(g18
S'\xbb\xa9\x04;'
p2193
tp2194
Rp2195
tp2196
a(g56
g6
(g18
S'\rl\xff:'
p2197
tp2198
Rp2199
tp2200
asg73
g15
sa(dp2201
g2
S'../../../data/emanuela/activity-recognition/images/NTCIR-Lifelog-256/u1/2015-03-05/b00000250_21i6bq_20150305_084714e.jpg'
p2202
sg4
(lp2203
(g15
g6
(g18
S'\x15\x97}?'
p2204
tp2205
Rp2206
tp2207
a(g32
g6
(g18
S'\xaf\xc5\xc3;'
p2208
tp2209
Rp2210
tp2211
a(g56
g6
(g18
S'\xd3\xf2t:'
p2212
tp2213
Rp2214
tp2215
a(g158
g6
(g18
S'\x085n:'
p2216
tp2217
Rp2218
tp2219
a(g201
g6
(g18
S'\xee\xc7\xf49'
p2220
tp2221
Rp2222
tp2223
asg73
g15
sa(dp2224
g2
S'../../../data/emanuela/activity-recognition/images/NTCIR-Lifelog-256/u2/2015-04-29/b00000828_21i7lf_20150429_160503e.jpg'
p2225
sg4
(lp2226
(g68
g6
(g18
S'\xb8\x82\x8f>'
p2227
tp2228
Rp2229
tp2230
a(g56
g6
(g18
S'\x943G>'
p2231
tp2232
Rp2233
tp2234
a(g201
g6
(g18
S'\xc8v\x10>'
p2235
tp2236
Rp2237
tp2238
a(g32
g6
(g18
S'Ig\xfc='
p2239
tp2240
Rp2241
tp2242
a(g104
g6
(g18
S'\xcd\xdc\xa9='
p2243
tp2244
Rp2245
tp2246
asg73
g15
sa(dp2247
g2
S'../../../data/emanuela/activity-recognition/images/NTCIR-Lifelog-256/u1/2015-03-02/b00000803_21i6bq_20150302_153819e.jpg'
p2248
sg4
(lp2249
(g44
g6
(g18
S'\xbe\xf4@?'
p2250
tp2251
Rp2252
tp2253
a(g15
g6
(g18
S'_\xc5\x18>'
p2254
tp2255
Rp2256
tp2257
a(g56
g6
(g18
S'rT\xf2<'
p2258
tp2259
Rp2260
tp2261
a(g32
g6
(g18
S' \xa8\xe0<'
p2262
tp2263
Rp2264
tp2265
a(g104
g6
(g18
S'\xcf\xb7\xa7<'
p2266
tp2267
Rp2268
tp2269
asg73
g15
sa(dp2270
g2
S'../../../data/emanuela/activity-recognition/images/NTCIR-Lifelog-256/u2/2015-05-07/b00007927_21i7lf_20150507_172800e.jpg'
p2271
sg4
(lp2272
(g15
g6
(g18
S'\xba\xe1R?'
p2273
tp2274
Rp2275
tp2276
a(g301
g6
(g18
S'1E\xd1='
p2277
tp2278
Rp2279
tp2280
a(g44
g6
(g18
S'\xc6\xac\x16='
p2281
tp2282
Rp2283
tp2284
a(g158
g6
(g18
S'\xa7L\xa7<'
p2285
tp2286
Rp2287
tp2288
a(g56
g6
(g18
S'y\x9d\xb9;'
p2289
tp2290
Rp2291
tp2292
asg73
g15
sa(dp2293
g2
S'../../../data/emanuela/activity-recognition/images/NTCIR-Lifelog-256/u2/2015-05-06/b00006632_21i7lf_20150506_124712e.jpg'
p2294
sg4
(lp2295
(g32
g6
(g18
S'\xccc\xf0>'
p2296
tp2297
Rp2298
tp2299
a(g15
g6
(g18
S's\xe37>'
p2300
tp2301
Rp2302
tp2303
a(g92
g6
(g18
S'-\xf5\x10>'
p2304
tp2305
Rp2306
tp2307
a(g44
g6
(g18
S'\xec^\xde='
p2308
tp2309
Rp2310
tp2311
a(g104
g6
(g18
S'\xeax&='
p2312
tp2313
Rp2314
tp2315
asg73
g15
sa(dp2316
g2
S'../../../data/emanuela/activity-recognition/images/NTCIR-Lifelog-256/u2/2015-05-01/b00002007_21i7lf_20150501_112538e.jpg'
p2317
sg4
(lp2318
(g15
g6
(g18
S'\xd2\x84"?'
p2319
tp2320
Rp2321
tp2322
a(g44
g6
(g18
S'\xbc\xa3v>'
p2323
tp2324
Rp2325
tp2326
a(g1713
g6
(g18
S'\xf1*\x81='
p2327
tp2328
Rp2329
tp2330
a(g68
g6
(g18
S'\xcco\xcf<'
p2331
tp2332
Rp2333
tp2334
a(g92
g6
(g18
S'\xc1\xf96<'
p2335
tp2336
Rp2337
tp2338
asg73
g15
sa(dp2339
g2
S'../../../data/emanuela/activity-recognition/images/NTCIR-Lifelog-256/u1/2015-03-11/b00000824_21i6bq_20150311_152322e.jpg'
p2340
sg4
(lp2341
(g15
g6
(g18
S'f\xdf^?'
p2342
tp2343
Rp2344
tp2345
a(g185
g6
(g18
S'\xf0p\x01='
p2346
tp2347
Rp2348
tp2349
a(g92
g6
(g18
S'\x16\x98\xf6<'
p2350
tp2351
Rp2352
tp2353
a(g32
g6
(g18
S'\x06\x07\xe3<'
p2354
tp2355
Rp2356
tp2357
a(g201
g6
(g18
S'\xbc{\x8b<'
p2358
tp2359
Rp2360
tp2361
asg73
g15
sa(dp2362
g2
S'../../../data/emanuela/activity-recognition/images/NTCIR-Lifelog-256/u1/2015-03-12/b00000679_21i6bq_20150312_145019e.jpg'
p2363
sg4
(lp2364
(g15
g6
(g18
S'\xe4v$?'
p2365
tp2366
Rp2367
tp2368
a(g32
g6
(g18
S'\xc6\x02;>'
p2369
tp2370
Rp2371
tp2372
a(g104
g6
(g18
S'?\t$='
p2373
tp2374
Rp2375
tp2376
a(g185
g6
(g18
S'\xcc\xdb!='
p2377
tp2378
Rp2379
tp2380
a(g201
g6
(g18
S'\x86R\x1a='
p2381
tp2382
Rp2383
tp2384
asg73
g15
sa(dp2385
g2
S'../../../data/emanuela/activity-recognition/images/NTCIR-Lifelog-256/u1/2015-03-04/b00000361_21i6bq_20150304_102729e.jpg'
p2386
sg4
(lp2387
(g15
g6
(g18
S'\x13\x10W?'
p2388
tp2389
Rp2390
tp2391
a(g32
g6
(g18
S'\x91dQ='
p2392
tp2393
Rp2394
tp2395
a(g56
g6
(g18
S'Q\x00\x1c='
p2396
tp2397
Rp2398
tp2399
a(g158
g6
(g18
S'\x97\xb8\xda<'
p2400
tp2401
Rp2402
tp2403
a(g68
g6
(g18
S'\xcb\x1e6<'
p2404
tp2405
Rp2406
tp2407
asg73
g15
sa(dp2408
g2
S'../../../data/emanuela/activity-recognition/images/NTCIR-Lifelog-256/u2/2015-05-01/b00001990_21i7lf_20150501_111527e.jpg'
p2409
sg4
(lp2410
(g15
g6
(g18
S'\xc0\xa2Q?'
p2411
tp2412
Rp2413
tp2414
a(g44
g6
(g18
S'\x81\x84\xee='
p2415
tp2416
Rp2417
tp2418
a(g68
g6
(g18
S'\xe7*\x82<'
p2419
tp2420
Rp2421
tp2422
a(g301
g6
(g18
S'\xd6\x04r<'
p2423
tp2424
Rp2425
tp2426
a(g1713
g6
(g18
S'\x1f[5<'
p2427
tp2428
Rp2429
tp2430
asg73
g15
sa(dp2431
g2
S'../../../data/emanuela/activity-recognition/images/NTCIR-Lifelog-256/u2/2015-05-07/b00008065_21i7lf_20150507_185126e.jpg'
p2432
sg4
(lp2433
(g44
g6
(g18
S'I\x07\r?'
p2434
tp2435
Rp2436
tp2437
a(g15
g6
(g18
S'"\x06a>'
p2438
tp2439
Rp2440
tp2441
a(g56
g6
(g18
S'\x9cYV>'
p2442
tp2443
Rp2444
tp2445
a(g68
g6
(g18
S'V3\xf2;'
p2446
tp2447
Rp2448
tp2449
a(g32
g6
(g18
S'\xe5\xbe\x93;'
p2450
tp2451
Rp2452
tp2453
asg73
g15
sa(dp2454
g2
S'../../../data/emanuela/activity-recognition/images/NTCIR-Lifelog-256/u1/2015-02-27/b00000563_21i6bq_20150227_131118e.jpg'
p2455
sg4
(lp2456
(g201
g6
(g18
S'\xb1\x96\x0c?'
p2457
tp2458
Rp2459
tp2460
a(g68
g6
(g18
S'f\x86\x9a>'
p2461
tp2462
Rp2463
tp2464
a(g92
g6
(g18
S"':\x99="
p2465
tp2466
Rp2467
tp2468
a(g44
g6
(g18
S"'\xe8\xde<"
p2469
tp2470
Rp2471
tp2472
a(g185
g6
(g18
S'\x1cYv<'
p2473
tp2474
Rp2475
tp2476
asg73
g15
sa(dp2477
g2
S'../../../data/emanuela/activity-recognition/images/NTCIR-Lifelog-256/u2/2015-05-07/b00007756_21i7lf_20150507_154245e.jpg'
p2478
sg4
(lp2479
(g15
g6
(g18
S'_ms?'
p2480
tp2481
Rp2482
tp2483
a(g44
g6
(g18
S'A}\x87<'
p2484
tp2485
Rp2486
tp2487
a(g301
g6
(g18
S'\xbe\xc6\xea;'
p2488
tp2489
Rp2490
tp2491
a(g158
g6
(g18
S'\xa4\xbf\xd9;'
p2492
tp2493
Rp2494
tp2495
a(g32
g6
(g18
S'vH\x98;'
p2496
tp2497
Rp2498
tp2499
asg73
g15
sa(dp2500
g2
S'../../../data/emanuela/activity-recognition/images/NTCIR-Lifelog-256/u1/2015-03-10/b00000314_21i6bq_20150310_161506e.jpg'
p2501
sg4
(lp2502
(g92
g6
(g18
S'\xfbM\xae>'
p2503
tp2504
Rp2505
tp2506
a(g32
g6
(g18
S'\xc0t\xa5>'
p2507
tp2508
Rp2509
tp2510
a(g15
g6
(g18
S'r\x8b\xf8='
p2511
tp2512
Rp2513
tp2514
a(g201
g6
(g18
S'\xb1W\xe2='
p2515
tp2516
Rp2517
tp2518
a(g185
g6
(g18
S'\xf9\xf1O='
p2519
tp2520
Rp2521
tp2522
asg73
g15
sa(dp2523
g2
S'../../../data/emanuela/activity-recognition/images/NTCIR-Lifelog-256/u2/2015-04-22/b00000129_21i7lf_20150422_140434e.jpg'
p2524
sg4
(lp2525
(g15
g6
(g18
S'\x93\x13??'
p2526
tp2527
Rp2528
tp2529
a(g301
g6
(g18
S'\x9a\xfbb>'
p2530
tp2531
Rp2532
tp2533
a(g158
g6
(g18
S'KY\xb2<'
p2534
tp2535
Rp2536
tp2537
a(g44
g6
(g18
S'\xf5C\xae;'
p2538
tp2539
Rp2540
tp2541
a(g32
g6
(g18
S'_=\x04;'
p2542
tp2543
Rp2544
tp2545
asg73
g15
sa(dp2546
g2
S'../../../data/emanuela/activity-recognition/images/NTCIR-Lifelog-256/u1/2015-03-11/b00000953_21i6bq_20150311_165149e.jpg'
p2547
sg4
(lp2548
(g15
g6
(g18
S'\xe6\xfeq?'
p2549
tp2550
Rp2551
tp2552
a(g32
g6
(g18
S'\xbca\xc2<'
p2553
tp2554
Rp2555
tp2556
a(g44
g6
(g18
S'\x1a=\x89<'
p2557
tp2558
Rp2559
tp2560
a(g92
g6
(g18
S'\x99\x1e\xba;'
p2561
tp2562
Rp2563
tp2564
a(g56
g6
(g18
S'\xd7\x9bY;'
p2565
tp2566
Rp2567
tp2568
asg73
g15
sa(dp2569
g2
S'../../../data/emanuela/activity-recognition/images/NTCIR-Lifelog-256/u1/2015-03-12/b00000676_21i6bq_20150312_144830e.jpg'
p2570
sg4
(lp2571
(g15
g6
(g18
S'\xfaio?'
p2572
tp2573
Rp2574
tp2575
a(g32
g6
(g18
S'R\x88P='
p2576
tp2577
Rp2578
tp2579
a(g201
g6
(g18
S'\xa6\x97\xc5;'
p2580
tp2581
Rp2582
tp2583
a(g92
g6
(g18
S'\xb1\xf0\x06;'
p2584
tp2585
Rp2586
tp2587
a(g185
g6
(g18
S'GZ\xf7:'
p2588
tp2589
Rp2590
tp2591
asg73
g15
sa(dp2592
g2
S'../../../data/emanuela/activity-recognition/images/NTCIR-Lifelog-256/u2/2015-04-24/b00002091_21i7lf_20150424_104929e.jpg'
p2593
sg4
(lp2594
(g15
g6
(g18
S'\x1d\xcf}?'
p2595
tp2596
Rp2597
tp2598
a(g32
g6
(g18
S'x\x13\xc3;'
p2599
tp2600
Rp2601
tp2602
a(g185
g6
(g18
S'\xce\xda\xb4:'
p2603
tp2604
Rp2605
tp2606
a(g92
g6
(g18
S'O\xe7\x16:'
p2607
tp2608
Rp2609
tp2610
a(g201
g6
(g18
S'<\xa3\xd29'
p2611
tp2612
Rp2613
tp2614
asg73
g15
sa(dp2615
g2
S'../../../data/emanuela/activity-recognition/images/NTCIR-Lifelog-256/u1/2015-03-11/b00000957_21i6bq_20150311_165454e.jpg'
p2616
sg4
(lp2617
(g15
g6
(g18
S'\xc0\xc5q?'
p2618
tp2619
Rp2620
tp2621
a(g32
g6
(g18
S'<\xc3\xd9<'
p2622
tp2623
Rp2624
tp2625
a(g56
g6
(g18
S'\x13\xe4\r<'
p2626
tp2627
Rp2628
tp2629
a(g44
g6
(g18
S'R\xd0\xf2;'
p2630
tp2631
Rp2632
tp2633
a(g201
g6
(g18
S'\xfc=\x82;'
p2634
tp2635
Rp2636
tp2637
asg73
g15
sa(dp2638
g2
S'../../../data/emanuela/activity-recognition/images/NTCIR-Lifelog-256/u1/2015-02-25/b00001119_21i6bq_20150225_173935e.jpg'
p2639
sg4
(lp2640
(g32
g6
(g18
S'\xce*\xd6>'
p2641
tp2642
Rp2643
tp2644
a(g15
g6
(g18
S'\x9ai\xbc>'
p2645
tp2646
Rp2647
tp2648
a(g56
g6
(g18
S'?\xa6\xc0='
p2649
tp2650
Rp2651
tp2652
a(g68
g6
(g18
S'\x17\x11[='
p2653
tp2654
Rp2655
tp2656
a(g201
g6
(g18
S'@U\xbc<'
p2657
tp2658
Rp2659
tp2660
asg73
g15
sa(dp2661
g2
S'../../../data/emanuela/activity-recognition/images/NTCIR-Lifelog-256/u1/2015-03-04/b00000821_21i6bq_20150304_152419e.jpg'
p2662
sg4
(lp2663
(g32
g6
(g18
S'\xec<\x1b?'
p2664
tp2665
Rp2666
tp2667
a(g15
g6
(g18
S'\x82\x93\xbe>'
p2668
tp2669
Rp2670
tp2671
a(g92
g6
(g18
S'\x1f\xf4?<'
p2672
tp2673
Rp2674
tp2675
a(g201
g6
(g18
S'\x12\x80x;'
p2676
tp2677
Rp2678
tp2679
a(g56
g6
(g18
S'\xcb\xc5\xcb:'
p2680
tp2681
Rp2682
tp2683
asg73
g15
sa(dp2684
g2
S'../../../data/emanuela/activity-recognition/images/NTCIR-Lifelog-256/u2/2015-05-01/b00002072_21i7lf_20150501_120534e.jpg'
p2685
sg4
(lp2686
(g15
g6
(g18
S'$\x04s?'
p2687
tp2688
Rp2689
tp2690
a(g201
g6
(g18
S'\x93\xc9><'
p2691
tp2692
Rp2693
tp2694
a(g68
g6
(g18
S'v\x833<'
p2695
tp2696
Rp2697
tp2698
a(g32
g6
(g18
S'\x01\xaf-<'
p2699
tp2700
Rp2701
tp2702
a(g44
g6
(g18
S'\xec\x0e\xcd;'
p2703
tp2704
Rp2705
tp2706
asg73
g15
sa(dp2707
g2
S'../../../data/emanuela/activity-recognition/images/NTCIR-Lifelog-256/u1/2015-03-05/b00000237_21i6bq_20150305_083921e.jpg'
p2708
sg4
(lp2709
(g15
g6
(g18
S'$\x93g?'
p2710
tp2711
Rp2712
tp2713
a(g158
g6
(g18
S'U\xf0\x03='
p2714
tp2715
Rp2716
tp2717
a(g32
g6
(g18
S'_\xbf\x95<'
p2718
tp2719
Rp2720
tp2721
a(g1122
g6
(g18
S'\xd7\xba\x87<'
p2722
tp2723
Rp2724
tp2725
a(g185
g6
(g18
S'\xe66P<'
p2726
tp2727
Rp2728
tp2729
asg73
g15
sa(dp2730
g2
S'../../../data/emanuela/activity-recognition/images/NTCIR-Lifelog-256/u2/2015-04-27/b00005209_21i7lf_20150427_113354e.jpg'
p2731
sg4
(lp2732
(g15
g6
(g18
S'\xc4\xc5B?'
p2733
tp2734
Rp2735
tp2736
a(g32
g6
(g18
S'\x9dn\xb3='
p2737
tp2738
Rp2739
tp2740
a(g301
g6
(g18
S'\x98\x9aJ='
p2741
tp2742
Rp2743
tp2744
a(g44
g6
(g18
S'J\xca\xcd<'
p2745
tp2746
Rp2747
tp2748
a(g68
g6
(g18
S'\x9d5\xa6<'
p2749
tp2750
Rp2751
tp2752
asg73
g15
sa(dp2753
g2
S'../../../data/emanuela/activity-recognition/images/NTCIR-Lifelog-256/u1/2015-03-10/b00000151_21i6bq_20150310_142652e.jpg'
p2754
sg4
(lp2755
(g44
g6
(g18
S'\x7f\xbfm?'
p2756
tp2757
Rp2758
tp2759
a(g15
g6
(g18
S'\x19rT='
p2760
tp2761
Rp2762
tp2763
a(g32
g6
(g18
S'\xc3\x07,<'
p2764
tp2765
Rp2766
tp2767
a(g92
g6
(g18
S'^\xfd\xc2;'
p2768
tp2769
Rp2770
tp2771
a(g68
g6
(g18
S'\xdaA0:'
p2772
tp2773
Rp2774
tp2775
asg73
g15
sa(dp2776
g2
S'../../../data/emanuela/activity-recognition/images/NTCIR-Lifelog-256/u1/2015-03-05/b00000284_21i6bq_20150305_090812e.jpg'
p2777
sg4
(lp2778
(g15
g6
(g18
S'\xcfAx?'
p2779
tp2780
Rp2781
tp2782
a(g32
g6
(g18
S'\x1e\xc0\xd3<'
p2783
tp2784
Rp2785
tp2786
a(g56
g6
(g18
S'F\x86\xf8:'
p2787
tp2788
Rp2789
tp2790
a(g104
g6
(g18
S'\x8b#\r:'
p2791
tp2792
Rp2793
tp2794
a(g301
g6
(g18
S'\xdd\xc1\xaf9'
p2795
tp2796
Rp2797
tp2798
asg73
g15
sa(dp2799
g2
S'../../../data/emanuela/activity-recognition/images/NTCIR-Lifelog-256/u1/2015-03-05/b00000190_21i6bq_20150305_081059e.jpg'
p2800
sg4
(lp2801
(g15
g6
(g18
S'\x87\x81e?'
p2802
tp2803
Rp2804
tp2805
a(g32
g6
(g18
S'\xb9aw='
p2806
tp2807
Rp2808
tp2809
a(g56
g6
(g18
S'\x8f:\x82<'
p2810
tp2811
Rp2812
tp2813
a(g104
g6
(g18
S'\xfct$<'
p2814
tp2815
Rp2816
tp2817
a(g201
g6
(g18
S'\xdf\xae\x82;'
p2818
tp2819
Rp2820
tp2821
asg73
g15
sa(dp2822
g2
S'../../../data/emanuela/activity-recognition/images/NTCIR-Lifelog-256/u1/2015-03-10/b00000170_21i6bq_20150310_143907e.jpg'
p2823
sg4
(lp2824
(g15
g6
(g18
S'\xef\xd0C?'
p2825
tp2826
Rp2827
tp2828
a(g44
g6
(g18
S'}\xe1">'
p2829
tp2830
Rp2831
tp2832
a(g158
g6
(g18
S'\x9a\t2='
p2833
tp2834
Rp2835
tp2836
a(g301
g6
(g18
S'\x18*\xdd<'
p2837
tp2838
Rp2839
tp2840
a(g32
g6
(g18
S'\x0e\x10\x9d;'
p2841
tp2842
Rp2843
tp2844
asg73
g15
sa(dp2845
g2
S'../../../data/emanuela/activity-recognition/images/NTCIR-Lifelog-256/u2/2015-05-01/b00002039_21i7lf_20150501_114513e.jpg'
p2846
sg4
(lp2847
(g15
g6
(g18
S'287?'
p2848
tp2849
Rp2850
tp2851
a(g32
g6
(g18
S'j\x18!>'
p2852
tp2853
Rp2854
tp2855
a(g56
g6
(g18
S'A"\x1c='
p2856
tp2857
Rp2858
tp2859
a(g44
g6
(g18
S'\xe5I\x0b='
p2860
tp2861
Rp2862
tp2863
a(g92
g6
(g18
S'\x0cU\xa1<'
p2864
tp2865
Rp2866
tp2867
asg73
g15
sa(dp2868
g2
S'../../../data/emanuela/activity-recognition/images/NTCIR-Lifelog-256/u1/2015-03-10/b00000317_21i6bq_20150310_161658e.jpg'
p2869
sg4
(lp2870
(g32
g6
(g18
S'\xde\xb90?'
p2871
tp2872
Rp2873
tp2874
a(g15
g6
(g18
S'\xe7\xfbU>'
p2875
tp2876
Rp2877
tp2878
a(g92
g6
(g18
S'~\x84\x8d='
p2879
tp2880
Rp2881
tp2882
a(g201
g6
(g18
S'-\x8f\xa8<'
p2883
tp2884
Rp2885
tp2886
a(g185
g6
(g18
S'\xbef\xaf;'
p2887
tp2888
Rp2889
tp2890
asg73
g15
sa(dp2891
g2
S'../../../data/emanuela/activity-recognition/images/NTCIR-Lifelog-256/u1/2015-02-26/b00000441_21i6bq_20150226_110951e.jpg'
p2892
sg4
(lp2893
(g32
g6
(g18
S'\x80Wu?'
p2894
tp2895
Rp2896
tp2897
a(g15
g6
(g18
S'\x12\xea\x19='
p2898
tp2899
Rp2900
tp2901
a(g56
g6
(g18
S'\x9dm\xaa:'
p2902
tp2903
Rp2904
tp2905
a(g92
g6
(g18
S'\x1fI\x80:'
p2906
tp2907
Rp2908
tp2909
a(g158
g6
(g18
S'\xaf\xa5]:'
p2910
tp2911
Rp2912
tp2913
asg73
g15
sa(dp2914
g2
S'../../../data/emanuela/activity-recognition/images/NTCIR-Lifelog-256/u2/2015-05-06/b00006919_21i7lf_20150506_154658e.jpg'
p2915
sg4
(lp2916
(g15
g6
(g18
S'V\xb0}?'
p2917
tp2918
Rp2919
tp2920
a(g32
g6
(g18
S'\xe3\xb8\x0e<'
p2921
tp2922
Rp2923
tp2924
a(g301
g6
(g18
S'<\xab\x9b8'
p2925
tp2926
Rp2927
tp2928
a(g201
g6
(g18
S'\xe9i\x8e8'
p2929
tp2930
Rp2931
tp2932
a(g44
g6
(g18
S'3\x0218'
p2933
tp2934
Rp2935
tp2936
asg73
g15
sa(dp2937
g2
S'../../../data/emanuela/activity-recognition/images/NTCIR-Lifelog-256/u2/2015-04-27/b00005649_21i7lf_20150427_160714e.jpg'
p2938
sg4
(lp2939
(g15
g6
(g18
S'\xa9\xd7J?'
p2940
tp2941
Rp2942
tp2943
a(g32
g6
(g18
S'\xd9\xa7\x02>'
p2944
tp2945
Rp2946
tp2947
a(g201
g6
(g18
S'\x1d.\xb8<'
p2948
tp2949
Rp2950
tp2951
a(g104
g6
(g18
S'4\xe3\xb5<'
p2952
tp2953
Rp2954
tp2955
a(g56
g6
(g18
S'\x15\xd6f<'
p2956
tp2957
Rp2958
tp2959
asg73
g15
sa(dp2960
g2
S'../../../data/emanuela/activity-recognition/images/NTCIR-Lifelog-256/u2/2015-04-20/b00000077_21i7lf_20150420_102056e.jpg'
p2961
sg4
(lp2962
(g15
g6
(g18
S'\xb2\xc5K?'
p2963
tp2964
Rp2965
tp2966
a(g32
g6
(g18
S'P8\xf8='
p2967
tp2968
Rp2969
tp2970
a(g44
g6
(g18
S'\xa0\x9c\x19='
p2971
tp2972
Rp2973
tp2974
a(g92
g6
(g18
S'E\x1c]<'
p2975
tp2976
Rp2977
tp2978
a(g201
g6
(g18
S'\xd3CY<'
p2979
tp2980
Rp2981
tp2982
asg73
g15
sa(dp2983
g2
S'../../../data/emanuela/activity-recognition/images/NTCIR-Lifelog-256/u2/2015-05-07/b00007969_21i7lf_20150507_175346e.jpg'
p2984
sg4
(lp2985
(g15
g6
(g18
S'E\xacH?'
p2986
tp2987
Rp2988
tp2989
a(g301
g6
(g18
S'\x83PD>'
p2990
tp2991
Rp2992
tp2993
a(g32
g6
(g18
S'\x13\xb9P<'
p2994
tp2995
Rp2996
tp2997
a(g44
g6
(g18
S'\xf4\x93\xb0;'
p2998
tp2999
Rp3000
tp3001
a(g68
g6
(g18
S'e\xf3\xcf:'
p3002
tp3003
Rp3004
tp3005
asg73
g15
sa(dp3006
g2
S'../../../data/emanuela/activity-recognition/images/NTCIR-Lifelog-256/u2/2015-04-27/b00005220_21i7lf_20150427_114033e.jpg'
p3007
sg4
(lp3008
(g15
g6
(g18
S'\x02\xb2=?'
p3009
tp3010
Rp3011
tp3012
a(g1195
g6
(g18
S'y\xb0\x11>'
p3013
tp3014
Rp3015
tp3016
a(g32
g6
(g18
S'\xeb(o='
p3017
tp3018
Rp3019
tp3020
a(g44
g6
(g18
S'\xed\x0bJ<'
p3021
tp3022
Rp3023
tp3024
a(g68
g6
(g18
S'\x1b\x81\x0f<'
p3025
tp3026
Rp3027
tp3028
asg73
g15
sa(dp3029
g2
S'../../../data/emanuela/activity-recognition/images/NTCIR-Lifelog-256/u1/2015-03-05/b00000693_21i6bq_20150305_134520e.jpg'
p3030
sg4
(lp3031
(g15
g6
(g18
S'_\x97t?'
p3032
tp3033
Rp3034
tp3035
a(g32
g6
(g18
S'Z\x10!='
p3036
tp3037
Rp3038
tp3039
a(g158
g6
(g18
S'\xa3\x1b\xc7:'
p3040
tp3041
Rp3042
tp3043
a(g56
g6
(g18
S',g\x9a:'
p3044
tp3045
Rp3046
tp3047
a(g1195
g6
(g18
S'\x14\xd5L:'
p3048
tp3049
Rp3050
tp3051
asg73
g15
sa(dp3052
g2
S'../../../data/emanuela/activity-recognition/images/NTCIR-Lifelog-256/u1/2015-03-02/b00000248_21i6bq_20150302_092731e.jpg'
p3053
sg4
(lp3054
(g92
g6
(g18
S'\xff\xab0?'
p3055
tp3056
Rp3057
tp3058
a(g32
g6
(g18
S'w\xbe\xb5='
p3059
tp3060
Rp3061
tp3062
a(g15
g6
(g18
S'^\xee\x9d='
p3063
tp3064
Rp3065
tp3066
a(g185
g6
(g18
S'\x9f<E='
p3067
tp3068
Rp3069
tp3070
a(g1122
g6
(g18
S'\x88PB='
p3071
tp3072
Rp3073
tp3074
asg73
g15
sa(dp3075
g2
S'../../../data/emanuela/activity-recognition/images/NTCIR-Lifelog-256/u1/2015-02-28/b00001017_21i6bq_20150228_170752e.jpg'
p3076
sg4
(lp3077
(g32
g6
(g18
S"\xf7'@?"
p3078
tp3079
Rp3080
tp3081
a(g92
g6
(g18
S'\xc5\xa6e='
p3082
tp3083
Rp3084
tp3085
a(g15
g6
(g18
S'L\xedX='
p3086
tp3087
Rp3088
tp3089
a(g56
g6
(g18
S'\xae\x88G='
p3090
tp3091
Rp3092
tp3093
a(g185
g6
(g18
S'\xfa\xd5@='
p3094
tp3095
Rp3096
tp3097
asg73
g15
sa(dp3098
g2
S'../../../data/emanuela/activity-recognition/images/NTCIR-Lifelog-256/u1/2015-03-05/b00000881_21i6bq_20150305_154214e.jpg'
p3099
sg4
(lp3100
(g15
g6
(g18
S'g<\xbd>'
p3101
tp3102
Rp3103
tp3104
a(g44
g6
(g18
S'(\xb6F>'
p3105
tp3106
Rp3107
tp3108
a(g32
g6
(g18
S'_[3>'
p3109
tp3110
Rp3111
tp3112
a(g92
g6
(g18
S'@\xfa\x18>'
p3113
tp3114
Rp3115
tp3116
a(g185
g6
(g18
S'`\x18b='
p3117
tp3118
Rp3119
tp3120
asg73
g15
sa(dp3121
g2
S'../../../data/emanuela/activity-recognition/images/NTCIR-Lifelog-256/u1/2015-03-10/b00001899_21i6bq_20150310_103921e.jpg'
p3122
sg4
(lp3123
(g15
g6
(g18
S'\xe0i\x07?'
p3124
tp3125
Rp3126
tp3127
a(g301
g6
(g18
S'\xe1\x12\xeb>'
p3128
tp3129
Rp3130
tp3131
a(g32
g6
(g18
S'qJ\xbd;'
p3132
tp3133
Rp3134
tp3135
a(g158
g6
(g18
S'\xb9-J;'
p3136
tp3137
Rp3138
tp3139
a(g44
g6
(g18
S'\xcd\xf6\x93:'
p3140
tp3141
Rp3142
tp3143
asg73
g15
sa(dp3144
g2
S'../../../data/emanuela/activity-recognition/images/NTCIR-Lifelog-256/u2/2015-05-01/b00002005_21i7lf_20150501_112434e.jpg'
p3145
sg4
(lp3146
(g15
g6
(g18
S'*cl?'
p3147
tp3148
Rp3149
tp3150
a(g44
g6
(g18
S'\x7f+\xb8<'
p3151
tp3152
Rp3153
tp3154
a(g1713
g6
(g18
S'EwV<'
p3155
tp3156
Rp3157
tp3158
a(g68
g6
(g18
S'\x11aP<'
p3159
tp3160
Rp3161
tp3162
a(g92
g6
(g18
S'b\x16\xab;'
p3163
tp3164
Rp3165
tp3166
asg73
g15
sa(dp3167
g2
S'../../../data/emanuela/activity-recognition/images/NTCIR-Lifelog-256/u2/2015-05-01/b00002326_21i7lf_20150501_144354e.jpg'
p3168
sg4
(lp3169
(g15
g6
(g18
S'\n\xc0r?'
p3170
tp3171
Rp3172
tp3173
a(g201
g6
(g18
S'\xd1\xba\xd2<'
p3174
tp3175
Rp3176
tp3177
a(g158
g6
(g18
S'\xeb\x00y<'
p3178
tp3179
Rp3180
tp3181
a(g32
g6
(g18
S'\xfc\x1f\x94;'
p3182
tp3183
Rp3184
tp3185
a(g92
g6
(g18
S'\x1fe);'
p3186
tp3187
Rp3188
tp3189
asg73
g15
sa(dp3190
g2
S'../../../data/emanuela/activity-recognition/images/NTCIR-Lifelog-256/u2/2015-05-07/b00008122_21i7lf_20150507_192719e.jpg'
p3191
sg4
(lp3192
(g15
g6
(g18
S'B\xc2\xfe>'
p3193
tp3194
Rp3195
tp3196
a(g301
g6
(g18
S'\x03/\xe8>'
p3197
tp3198
Rp3199
tp3200
a(g44
g6
(g18
S'\x00q\x89<'
p3201
tp3202
Rp3203
tp3204
a(g158
g6
(g18
S'\xe2(\x81<'
p3205
tp3206
Rp3207
tp3208
a(g32
g6
(g18
S'<\xab\x14<'
p3209
tp3210
Rp3211
tp3212
asg73
g15
sa(dp3213
g2
S'../../../data/emanuela/activity-recognition/images/NTCIR-Lifelog-256/u2/2015-05-01/b00002353_21i7lf_20150501_150013e.jpg'
p3214
sg4
(lp3215
(g15
g6
(g18
S'q\x07d?'
p3216
tp3217
Rp3218
tp3219
a(g32
g6
(g18
S'x\xe3M='
p3220
tp3221
Rp3222
tp3223
a(g92
g6
(g18
S'\x12\xa2\x05='
p3224
tp3225
Rp3226
tp3227
a(g185
g6
(g18
S'\xb1\xdfs<'
p3228
tp3229
Rp3230
tp3231
a(g201
g6
(g18
S'\xc5\xea\xec;'
p3232
tp3233
Rp3234
tp3235
asg73
g15
sa(dp3236
g2
S'../../../data/emanuela/activity-recognition/images/NTCIR-Lifelog-256/u1/2015-03-10/b00000178_21i6bq_20150310_144352e.jpg'
p3237
sg4
(lp3238
(g32
g6
(g18
S'l\xe9\x18?'
p3239
tp3240
Rp3241
tp3242
a(g44
g6
(g18
S'7\x92/>'
p3243
tp3244
Rp3245
tp3246
a(g15
g6
(g18
S'\x04>\x05>'
p3247
tp3248
Rp3249
tp3250
a(g92
g6
(g18
S'sM\xa5='
p3251
tp3252
Rp3253
tp3254
a(g201
g6
(g18
S'\x00\xf6V<'
p3255
tp3256
Rp3257
tp3258
asg73
g15
sa(dp3259
g2
S'../../../data/emanuela/activity-recognition/images/NTCIR-Lifelog-256/u1/2015-03-03/b00000714_21i6bq_20150303_144046e.jpg'
p3260
sg4
(lp3261
(g15
g6
(g18
S'\xa0\x140?'
p3262
tp3263
Rp3264
tp3265
a(g44
g6
(g18
S'\xfcy\x91>'
p3266
tp3267
Rp3268
tp3269
a(g32
g6
(g18
S'\xdd\x84\x81<'
p3270
tp3271
Rp3272
tp3273
a(g158
g6
(g18
S']"\xe0;'
p3274
tp3275
Rp3276
tp3277
a(g301
g6
(g18
S'\xaa&\x98;'
p3278
tp3279
Rp3280
tp3281
asg73
g15
sa(dp3282
g2
S'../../../data/emanuela/activity-recognition/images/NTCIR-Lifelog-256/u1/2015-03-10/b00001930_21i6bq_20150310_105808e.jpg'
p3283
sg4
(lp3284
(g15
g6
(g18
S'\xdf\x16m?'
p3285
tp3286
Rp3287
tp3288
a(g301
g6
(g18
S'\xf0F9='
p3289
tp3290
Rp3291
tp3292
a(g32
g6
(g18
S'1\r\x83<'
p3293
tp3294
Rp3295
tp3296
a(g158
g6
(g18
S'\x9c\x92\x8b;'
p3297
tp3298
Rp3299
tp3300
a(g44
g6
(g18
S'\xab{=;'
p3301
tp3302
Rp3303
tp3304
asg73
g15
sa(dp3305
g2
S'../../../data/emanuela/activity-recognition/images/NTCIR-Lifelog-256/u1/2015-03-04/b00000338_21i6bq_20150304_101340e.jpg'
p3306
sg4
(lp3307
(g15
g6
(g18
S'\x80$y?'
p3308
tp3309
Rp3310
tp3311
a(g32
g6
(g18
S'w\xd7\xbf<'
p3312
tp3313
Rp3314
tp3315
a(g56
g6
(g18
S'\xfd\xa2\r;'
p3316
tp3317
Rp3318
tp3319
a(g68
g6
(g18
S'P@\x8b9'
p3320
tp3321
Rp3322
tp3323
a(g201
g6
(g18
S'\x9d)u9'
p3324
tp3325
Rp3326
tp3327
asg73
g15
sa(dp3328
g2
S'../../../data/emanuela/activity-recognition/images/NTCIR-Lifelog-256/u1/2015-03-11/b00000848_21i6bq_20150311_153839e.jpg'
p3329
sg4
(lp3330
(g44
g6
(g18
S'\xfeV\x0f?'
p3331
tp3332
Rp3333
tp3334
a(g15
g6
(g18
S'N\xcb\xd5>'
p3335
tp3336
Rp3337
tp3338
a(g158
g6
(g18
S'"\xe7+<'
p3339
tp3340
Rp3341
tp3342
a(g32
g6
(g18
S'\xf1\x16\x94;'
p3343
tp3344
Rp3345
tp3346
a(g301
g6
(g18
S"\x9cv';"
p3347
tp3348
Rp3349
tp3350
asg73
g15
sa(dp3351
g2
S'../../../data/emanuela/activity-recognition/images/NTCIR-Lifelog-256/u1/2015-03-10/b00000323_21i6bq_20150310_162055e.jpg'
p3352
sg4
(lp3353
(g201
g6
(g18
S'b\x8f\xf4>'
p3354
tp3355
Rp3356
tp3357
a(g32
g6
(g18
S'\x81)w>'
p3358
tp3359
Rp3360
tp3361
a(g15
g6
(g18
S'\xfc\xd1\x1b>'
p3362
tp3363
Rp3364
tp3365
a(g92
g6
(g18
S'\xb4\x13\xba='
p3366
tp3367
Rp3368
tp3369
a(g185
g6
(g18
S'Z\x9b\xc2<'
p3370
tp3371
Rp3372
tp3373
asg73
g15
sa(dp3374
g2
S'../../../data/emanuela/activity-recognition/images/NTCIR-Lifelog-256/u1/2015-03-18/b00000703_21i6bq_20150318_153347e.jpg'
p3375
sg4
(lp3376
(g15
g6
(g18
S'00i?'
p3377
tp3378
Rp3379
tp3380
a(g32
g6
(g18
S'\xdf\x93\x87='
p3381
tp3382
Rp3383
tp3384
a(g56
g6
(g18
S'3\xa4#<'
p3385
tp3386
Rp3387
tp3388
a(g1195
g6
(g18
S'\xc0\x98Z;'
p3389
tp3390
Rp3391
tp3392
a(g44
g6
(g18
S'\xf8\xb0!;'
p3393
tp3394
Rp3395
tp3396
asg73
g15
sa(dp3397
g2
S'../../../data/emanuela/activity-recognition/images/NTCIR-Lifelog-256/u1/2015-03-10/b00001915_21i6bq_20150310_104852e.jpg'
p3398
sg4
(lp3399
(g15
g6
(g18
S'\x94\xdd|?'
p3400
tp3401
Rp3402
tp3403
a(g32
g6
(g18
S'\xa7,\xa6;'
p3404
tp3405
Rp3406
tp3407
a(g44
g6
(g18
S'\xf89j;'
p3408
tp3409
Rp3410
tp3411
a(g301
g6
(g18
S'\xc7k<:'
p3412
tp3413
Rp3414
tp3415
a(g68
g6
(g18
S'\xf0\xc93:'
p3416
tp3417
Rp3418
tp3419
asg73
g15
sa(dp3420
g2
S'../../../data/emanuela/activity-recognition/images/NTCIR-Lifelog-256/u2/2015-04-27/b00005236_21i7lf_20150427_115043e.jpg'
p3421
sg4
(lp3422
(g1195
g6
(g18
S'\x0b\x1f\x1c?'
p3423
tp3424
Rp3425
tp3426
a(g15
g6
(g18
S'&\xd8h>'
p3427
tp3428
Rp3429
tp3430
a(g32
g6
(g18
S'\xb6(\xad='
p3431
tp3432
Rp3433
tp3434
a(g56
g6
(g18
S'b\xc2\xdc<'
p3435
tp3436
Rp3437
tp3438
a(g158
g6
(g18
S"1',<"
p3439
tp3440
Rp3441
tp3442
asg73
g15
sa(dp3443
g2
S'../../../data/emanuela/activity-recognition/images/NTCIR-Lifelog-256/u1/2015-03-10/b00001854_21i6bq_20150310_100701e.jpg'
p3444
sg4
(lp3445
(g68
g6
(g18
S'\xc0{5?'
p3446
tp3447
Rp3448
tp3449
a(g201
g6
(g18
S'S\xbb\x94>'
p3450
tp3451
Rp3452
tp3453
a(g104
g6
(g18
S'\xe5q\x879'
p3454
tp3455
Rp3456
tp3457
a(g185
g6
(g18
S'@\xc5s9'
p3458
tp3459
Rp3460
tp3461
a(g6
(g7
(S'S7'
p3462
I0
I1
tp3463
Rp3464
(I3
S'|'
p3465
NNNI7
I1
I0
tp3466
bS'cooking'
p3467
tp3468
Rp3469
g6
(g18
S'K\x05A8'
p3470
tp3471
Rp3472
tp3473
asg73
g15
sa(dp3474
g2
S'../../../data/emanuela/activity-recognition/images/NTCIR-Lifelog-256/u1/2015-03-12/b00000394_21i6bq_20150312_112117e.jpg'
p3475
sg4
(lp3476
(g301
g6
(g18
S'Y\xe0F?'
p3477
tp3478
Rp3479
tp3480
a(g15
g6
(g18
S'\xe5E">'
p3481
tp3482
Rp3483
tp3484
a(g44
g6
(g18
S'\x92\x838='
p3485
tp3486
Rp3487
tp3488
a(g32
g6
(g18
S'\x7f\xdc\\<'
p3489
tp3490
Rp3491
tp3492
a(g158
g6
(g18
S't\xd1];'
p3493
tp3494
Rp3495
tp3496
asg73
g15
sa(dp3497
g2
S'../../../data/emanuela/activity-recognition/images/NTCIR-Lifelog-256/u1/2015-03-02/b00000631_21i6bq_20150302_134414e.jpg'
p3498
sg4
(lp3499
(g92
g6
(g18
S'+\x85;?'
p3500
tp3501
Rp3502
tp3503
a(g32
g6
(g18
S'\xe6\xe4\x00>'
p3504
tp3505
Rp3506
tp3507
a(g15
g6
(g18
S'gj\xeb='
p3508
tp3509
Rp3510
tp3511
a(g185
g6
(g18
S'\xd0y\x8a<'
p3512
tp3513
Rp3514
tp3515
a(g201
g6
(g18
S'\xabN\xb1;'
p3516
tp3517
Rp3518
tp3519
asg73
g15
sa(dp3520
g2
S'../../../data/emanuela/activity-recognition/images/NTCIR-Lifelog-256/u1/2015-03-02/b00000810_21i6bq_20150302_154221e.jpg'
p3521
sg4
(lp3522
(g15
g6
(g18
S'\xce\xfe\xea>'
p3523
tp3524
Rp3525
tp3526
a(g44
g6
(g18
S'$p\x8c>'
p3527
tp3528
Rp3529
tp3530
a(g56
g6
(g18
S'\xaar\x1a>'
p3531
tp3532
Rp3533
tp3534
a(g32
g6
(g18
S'z7\x9f='
p3535
tp3536
Rp3537
tp3538
a(g201
g6
(g18
S'\x85`;<'
p3539
tp3540
Rp3541
tp3542
asg73
g15
sa(dp3543
g2
S'../../../data/emanuela/activity-recognition/images/NTCIR-Lifelog-256/u1/2015-03-03/b00000688_21i6bq_20150303_141551e.jpg'
p3544
sg4
(lp3545
(g15
g6
(g18
S'\x81\xd7J?'
p3546
tp3547
Rp3548
tp3549
a(g32
g6
(g18
S'\xc7\xd8\xe8='
p3550
tp3551
Rp3552
tp3553
a(g44
g6
(g18
S'\xbc&\xb2='
p3554
tp3555
Rp3556
tp3557
a(g301
g6
(g18
S'\xe8\xff\x13;'
p3558
tp3559
Rp3560
tp3561
a(g201
g6
(g18
S'\xads\xfb:'
p3562
tp3563
Rp3564
tp3565
asg73
g15
sa(dp3566
g2
S'../../../data/emanuela/activity-recognition/images/NTCIR-Lifelog-256/u1/2015-03-18/b00000718_21i6bq_20150318_154239e.jpg'
p3567
sg4
(lp3568
(g15
g6
(g18
S'\xd3E&?'
p3569
tp3570
Rp3571
tp3572
a(g32
g6
(g18
S'E\xf7?>'
p3573
tp3574
Rp3575
tp3576
a(g3469
g6
(g18
S'\x98\x15\x1c='
p3577
tp3578
Rp3579
tp3580
a(g301
g6
(g18
S'\x0f_\t='
p3581
tp3582
Rp3583
tp3584
a(g44
g6
(g18
S'Mk\x8e<'
p3585
tp3586
Rp3587
tp3588
asg73
g15
sa(dp3589
g2
S'../../../data/emanuela/activity-recognition/images/NTCIR-Lifelog-256/u1/2015-03-02/b00000638_21i6bq_20150302_134829e.jpg'
p3590
sg4
(lp3591
(g15
g6
(g18
S'v\t`?'
p3592
tp3593
Rp3594
tp3595
a(g301
g6
(g18
S'\x00\xd3N='
p3596
tp3597
Rp3598
tp3599
a(g32
g6
(g18
S')~3='
p3600
tp3601
Rp3602
tp3603
a(g158
g6
(g18
S'\x81\xf0\x89<'
p3604
tp3605
Rp3606
tp3607
a(g44
g6
(g18
S'\x85\x12\xd4;'
p3608
tp3609
Rp3610
tp3611
asg73
g15
sa(dp3612
g2
S'../../../data/emanuela/activity-recognition/images/NTCIR-Lifelog-256/u1/2015-02-26/b00000471_21i6bq_20150226_112709e.jpg'
p3613
sg4
(lp3614
(g15
g6
(g18
S'<5L?'
p3615
tp3616
Rp3617
tp3618
a(g32
g6
(g18
S'\x16\x05\x15>'
p3619
tp3620
Rp3621
tp3622
a(g44
g6
(g18
S'\xa0\x03W<'
p3623
tp3624
Rp3625
tp3626
a(g56
g6
(g18
S'\xc4\x91/<'
p3627
tp3628
Rp3629
tp3630
a(g301
g6
(g18
S'\xf8\x84\xde;'
p3631
tp3632
Rp3633
tp3634
asg73
g15
sa(dp3635
g2
S'../../../data/emanuela/activity-recognition/images/NTCIR-Lifelog-256/u1/2015-03-11/b00000961_21i6bq_20150311_165720e.jpg'
p3636
sg4
(lp3637
(g15
g6
(g18
S'g\xeaE?'
p3638
tp3639
Rp3640
tp3641
a(g32
g6
(g18
S'\x02\xb6\xd3='
p3642
tp3643
Rp3644
tp3645
a(g56
g6
(g18
S'(\t\xc6<'
p3646
tp3647
Rp3648
tp3649
a(g201
g6
(g18
S'\xcdY\x87<'
p3650
tp3651
Rp3652
tp3653
a(g3469
g6
(g18
S'\xab\xaez<'
p3654
tp3655
Rp3656
tp3657
asg73
g15
sa(dp3658
g2
S'../../../data/emanuela/activity-recognition/images/NTCIR-Lifelog-256/u2/2015-04-24/b00002140_21i7lf_20150424_111940e.jpg'
p3659
sg4
(lp3660
(g15
g6
(g18
S'\xf1\xab|?'
p3661
tp3662
Rp3663
tp3664
a(g32
g6
(g18
S'\xf3\x9e\x1d<'
p3665
tp3666
Rp3667
tp3668
a(g201
g6
(g18
S'\xa76\t;'
p3669
tp3670
Rp3671
tp3672
a(g92
g6
(g18
S'w\x80\xfa9'
p3673
tp3674
Rp3675
tp3676
a(g185
g6
(g18
S'\x8aL\xe29'
p3677
tp3678
Rp3679
tp3680
asg73
g15
sa(dp3681
g2
S'../../../data/emanuela/activity-recognition/images/NTCIR-Lifelog-256/u2/2015-04-27/b00005283_21i7lf_20150427_121846e.jpg'
p3682
sg4
(lp3683
(g15
g6
(g18
S'\xa8\x10\xf5>'
p3684
tp3685
Rp3686
tp3687
a(g56
g6
(g18
S'\x19\xd1\x88>'
p3688
tp3689
Rp3690
tp3691
a(g44
g6
(g18
S'\x97*\xd3='
p3692
tp3693
Rp3694
tp3695
a(g32
g6
(g18
S'\x1fL\xc3='
p3696
tp3697
Rp3698
tp3699
a(g1195
g6
(g18
S"'\x8f\x85<"
p3700
tp3701
Rp3702
tp3703
asg73
g15
sa(dp3704
g2
S'../../../data/emanuela/activity-recognition/images/NTCIR-Lifelog-256/u1/2015-03-11/b00000913_21i6bq_20150311_162504e.jpg'
p3705
sg4
(lp3706
(g15
g6
(g18
S'\xc1YJ?'
p3707
tp3708
Rp3709
tp3710
a(g32
g6
(g18
S'M\x03\xee='
p3711
tp3712
Rp3713
tp3714
a(g68
g6
(g18
S'oe\x91<'
p3715
tp3716
Rp3717
tp3718
a(g44
g6
(g18
S'\xb7\x85?<'
p3719
tp3720
Rp3721
tp3722
a(g301
g6
(g18
S'\x88\xf2><'
p3723
tp3724
Rp3725
tp3726
asg73
g15
sa(dp3727
g2
S'../../../data/emanuela/activity-recognition/images/NTCIR-Lifelog-256/u2/2015-05-06/b00006959_21i7lf_20150506_161301e.jpg'
p3728
sg4
(lp3729
(g68
g6
(g18
S'\xbb\xa3\x19?'
p3730
tp3731
Rp3732
tp3733
a(g301
g6
(g18
S'|\r\xaa='
p3734
tp3735
Rp3736
tp3737
a(g158
g6
(g18
S'\xe8B\x9c='
p3738
tp3739
Rp3740
tp3741
a(g15
g6
(g18
S'\xa5\x0b\x8f='
p3742
tp3743
Rp3744
tp3745
a(g185
g6
(g18
S'^\x8e<='
p3746
tp3747
Rp3748
tp3749
asg73
g15
sa(dp3750
g2
S'../../../data/emanuela/activity-recognition/images/NTCIR-Lifelog-256/u1/2015-03-05/b00000766_21i6bq_20150305_143006e.jpg'
p3751
sg4
(lp3752
(g32
g6
(g18
S'-_\xf3>'
p3753
tp3754
Rp3755
tp3756
a(g15
g6
(g18
S'\xf9l\x9a>'
p3757
tp3758
Rp3759
tp3760
a(g158
g6
(g18
S'\xe2e\x10>'
p3761
tp3762
Rp3763
tp3764
a(g104
g6
(g18
S'\x8e=\xeb<'
p3765
tp3766
Rp3767
tp3768
a(g56
g6
(g18
S'\xa9\xb4\xba<'
p3769
tp3770
Rp3771
tp3772
asg73
g15
sa(dp3773
g2
S'../../../data/emanuela/activity-recognition/images/NTCIR-Lifelog-256/u1/2015-02-27/b00000857_21i6bq_20150227_162535e.jpg'
p3774
sg4
(lp3775
(g15
g6
(g18
S'\x8e\xec\x00?'
p3776
tp3777
Rp3778
tp3779
a(g32
g6
(g18
S'\xf9V\x8f>'
p3780
tp3781
Rp3782
tp3783
a(g56
g6
(g18
S'\xe9>\n>'
p3784
tp3785
Rp3786
tp3787
a(g92
g6
(g18
S'A\\ ='
p3788
tp3789
Rp3790
tp3791
a(g1122
g6
(g18
S'\r%\x9a<'
p3792
tp3793
Rp3794
tp3795
asg73
g15
sa(dp3796
g2
S'../../../data/emanuela/activity-recognition/images/NTCIR-Lifelog-256/u1/2015-03-10/b00000180_21i6bq_20150310_144501e.jpg'
p3797
sg4
(lp3798
(g15
g6
(g18
S'\xb7\xe6\\?'
p3799
tp3800
Rp3801
tp3802
a(g158
g6
(g18
S'\x814\xb0='
p3803
tp3804
Rp3805
tp3806
a(g44
g6
(g18
S"kR'="
p3807
tp3808
Rp3809
tp3810
a(g32
g6
(g18
S'v2\xe8;'
p3811
tp3812
Rp3813
tp3814
a(g201
g6
(g18
S'dx\xc1:'
p3815
tp3816
Rp3817
tp3818
asg73
g15
sa(dp3819
g2
S'../../../data/emanuela/activity-recognition/images/NTCIR-Lifelog-256/u1/2015-03-05/b00000215_21i6bq_20150305_082618e.jpg'
p3820
sg4
(lp3821
(g15
g6
(g18
S'.:D?'
p3822
tp3823
Rp3824
tp3825
a(g32
g6
(g18
S'\xcc\x8aP>'
p3826
tp3827
Rp3828
tp3829
a(g56
g6
(g18
S')U\xcc;'
p3830
tp3831
Rp3832
tp3833
a(g185
g6
(g18
S'-\xdf\xbb;'
p3834
tp3835
Rp3836
tp3837
a(g201
g6
(g18
S'\xacC\xa7;'
p3838
tp3839
Rp3840
tp3841
asg73
g15
sa(dp3842
g2
S'../../../data/emanuela/activity-recognition/images/NTCIR-Lifelog-256/u2/2015-05-07/b00007903_21i7lf_20150507_171344e.jpg'
p3843
sg4
(lp3844
(g15
g6
(g18
S'\xa6}y?'
p3845
tp3846
Rp3847
tp3848
a(g301
g6
(g18
S'/a\xa3<'
p3849
tp3850
Rp3851
tp3852
a(g32
g6
(g18
S'\x1a\xc3\x05;'
p3853
tp3854
Rp3855
tp3856
a(g68
g6
(g18
S'\x95#\x85:'
p3857
tp3858
Rp3859
tp3860
a(g44
g6
(g18
S'S\n`:'
p3861
tp3862
Rp3863
tp3864
asg73
g15
sa(dp3865
g2
S'../../../data/emanuela/activity-recognition/images/NTCIR-Lifelog-256/u1/2015-03-02/b00000643_21i6bq_20150302_135127e.jpg'
p3866
sg4
(lp3867
(g15
g6
(g18
S'\xbe\x91z?'
p3868
tp3869
Rp3870
tp3871
a(g32
g6
(g18
S'\x90_\xe6;'
p3872
tp3873
Rp3874
tp3875
a(g301
g6
(g18
S'}\x9b\xc9;'
p3876
tp3877
Rp3878
tp3879
a(g44
g6
(g18
S'b8e;'
p3880
tp3881
Rp3882
tp3883
a(g158
g6
(g18
S'\x97\x06\x0f;'
p3884
tp3885
Rp3886
tp3887
asg73
g15
sa(dp3888
g2
S'../../../data/emanuela/activity-recognition/images/NTCIR-Lifelog-256/u2/2015-04-24/b00002124_21i7lf_20150424_110952e.jpg'
p3889
sg4
(lp3890
(g15
g6
(g18
S'Qzj?'
p3891
tp3892
Rp3893
tp3894
a(g32
g6
(g18
S'\x85UB='
p3895
tp3896
Rp3897
tp3898
a(g201
g6
(g18
S'V~i<'
p3899
tp3900
Rp3901
tp3902
a(g68
g6
(g18
S'\x08\xdf\xb0;'
p3903
tp3904
Rp3905
tp3906
a(g92
g6
(g18
S'\x01\x03\xac;'
p3907
tp3908
Rp3909
tp3910
asg73
g15
sa(dp3911
g2
S'../../../data/emanuela/activity-recognition/images/NTCIR-Lifelog-256/u2/2015-05-01/b00002354_21i7lf_20150501_150054e.jpg'
p3912
sg4
(lp3913
(g15
g6
(g18
S'\xabjv?'
p3914
tp3915
Rp3916
tp3917
a(g201
g6
(g18
S'Q\x14\xd7<'
p3918
tp3919
Rp3920
tp3921
a(g32
g6
(g18
S'\xd3\x1d\x93;'
p3922
tp3923
Rp3924
tp3925
a(g92
g6
(g18
S'\xa1\xf3.;'
p3926
tp3927
Rp3928
tp3929
a(g185
g6
(g18
S"\xe4\xca';"
p3930
tp3931
Rp3932
tp3933
asg73
g15
sa(dp3934
g2
S'../../../data/emanuela/activity-recognition/images/NTCIR-Lifelog-256/u1/2015-03-18/b00000341_21i6bq_20150318_112152e.jpg'
p3935
sg4
(lp3936
(g15
g6
(g18
S'\xe3.\xee>'
p3937
tp3938
Rp3939
tp3940
a(g32
g6
(g18
S'Hh\xc4>'
p3941
tp3942
Rp3943
tp3944
a(g92
g6
(g18
S'\xd4\xc7\x9e='
p3945
tp3946
Rp3947
tp3948
a(g44
g6
(g18
S'0\xce\x8b='
p3949
tp3950
Rp3951
tp3952
a(g201
g6
(g18
S'\x83\xe0(;'
p3953
tp3954
Rp3955
tp3956
asg73
g15
sa(dp3957
g2
S'../../../data/emanuela/activity-recognition/images/NTCIR-Lifelog-256/u2/2015-05-01/b00002329_21i7lf_20150501_144548e.jpg'
p3958
sg4
(lp3959
(g15
g6
(g18
S'\x9b={?'
p3960
tp3961
Rp3962
tp3963
a(g68
g6
(g18
S'\xd4{\xbe;'
p3964
tp3965
Rp3966
tp3967
a(g32
g6
(g18
S'\xfa\x92o;'
p3968
tp3969
Rp3970
tp3971
a(g158
g6
(g18
S'\xf0IU;'
p3972
tp3973
Rp3974
tp3975
a(g201
g6
(g18
S'2\xde\x01;'
p3976
tp3977
Rp3978
tp3979
asg73
g15
sa(dp3980
g2
S'../../../data/emanuela/activity-recognition/images/NTCIR-Lifelog-256/u2/2015-05-01/b00002018_21i7lf_20150501_113207e.jpg'
p3981
sg4
(lp3982
(g15
g6
(g18
S'\\\x90c?'
p3983
tp3984
Rp3985
tp3986
a(g44
g6
(g18
S'\xe5\x90\x02='
p3987
tp3988
Rp3989
tp3990
a(g301
g6
(g18
S'\xb4\xf0\xc1<'
p3991
tp3992
Rp3993
tp3994
a(g32
g6
(g18
S'S\xc6\xb7<'
p3995
tp3996
Rp3997
tp3998
a(g1713
g6
(g18
S'\xa6`J<'
p3999
tp4000
Rp4001
tp4002
asg73
g15
sa(dp4003
g2
S'../../../data/emanuela/activity-recognition/images/NTCIR-Lifelog-256/u1/2015-03-12/b00000408_21i6bq_20150312_113239e.jpg'
p4004
sg4
(lp4005
(g15
g6
(g18
S'\xa1ws?'
p4006
tp4007
Rp4008
tp4009
a(g44
g6
(g18
S'\t\xa9\xc4<'
p4010
tp4011
Rp4012
tp4013
a(g301
g6
(g18
S'j\x8fC<'
p4014
tp4015
Rp4016
tp4017
a(g32
g6
(g18
S'\xe7a\x02<'
p4018
tp4019
Rp4020
tp4021
a(g68
g6
(g18
S'\xd0\xd9\xac:'
p4022
tp4023
Rp4024
tp4025
asg73
g15
sa(dp4026
g2
S'../../../data/emanuela/activity-recognition/images/NTCIR-Lifelog-256/u2/2015-05-01/b00002302_21i7lf_20150501_142926e.jpg'
p4027
sg4
(lp4028
(g15
g6
(g18
S'X\xd4}?'
p4029
tp4030
Rp4031
tp4032
a(g158
g6
(g18
S'5\xe3\x84;'
p4033
tp4034
Rp4035
tp4036
a(g32
g6
(g18
S'C\xe3_;'
p4037
tp4038
Rp4039
tp4040
a(g44
g6
(g18
S'\xe2\x8b,:'
p4041
tp4042
Rp4043
tp4044
a(g201
g6
(g18
S'7#\x9f9'
p4045
tp4046
Rp4047
tp4048
asg73
g15
sa(dp4049
g2
S'../../../data/emanuela/activity-recognition/images/NTCIR-Lifelog-256/u2/2015-04-27/b00005288_21i7lf_20150427_122142e.jpg'
p4050
sg4
(lp4051
(g15
g6
(g18
S'\xaf\xfac?'
p4052
tp4053
Rp4054
tp4055
a(g32
g6
(g18
S'\xe2I\x19='
p4056
tp4057
Rp4058
tp4059
a(g56
g6
(g18
S'*\x9c\xcf<'
p4060
tp4061
Rp4062
tp4063
a(g44
g6
(g18
S'\xcf\x1d\xbe<'
p4064
tp4065
Rp4066
tp4067
a(g185
g6
(g18
S'dS\x0e<'
p4068
tp4069
Rp4070
tp4071
asg73
g15
sa(dp4072
g2
S'../../../data/emanuela/activity-recognition/images/NTCIR-Lifelog-256/u1/2015-03-05/b00000271_21i6bq_20150305_085959e.jpg'
p4073
sg4
(lp4074
(g15
g6
(g18
S'\x99]o?'
p4075
tp4076
Rp4077
tp4078
a(g32
g6
(g18
S'\xb0MP='
p4079
tp4080
Rp4081
tp4082
a(g104
g6
(g18
S'\xf7\xdc|;'
p4083
tp4084
Rp4085
tp4086
a(g201
g6
(g18
S'\xcd\xfaR;'
p4087
tp4088
Rp4089
tp4090
a(g56
g6
(g18
S'\xb1\x9e\x03;'
p4091
tp4092
Rp4093
tp4094
asg73
g15
sa(dp4095
g2
S'../../../data/emanuela/activity-recognition/images/NTCIR-Lifelog-256/u1/2015-03-10/b00000313_21i6bq_20150310_161425e.jpg'
p4096
sg4
(lp4097
(g32
g6
(g18
S'Z\xd4\xb8>'
p4098
tp4099
Rp4100
tp4101
a(g201
g6
(g18
S'\xd0\xc4X>'
p4102
tp4103
Rp4104
tp4105
a(g15
g6
(g18
S'\xde5H>'
p4106
tp4107
Rp4108
tp4109
a(g92
g6
(g18
S'j^\x19>'
p4110
tp4111
Rp4112
tp4113
a(g185
g6
(g18
S'\xfd\xa5m='
p4114
tp4115
Rp4116
tp4117
asg73
g15
sa(dp4118
g2
S'../../../data/emanuela/activity-recognition/images/NTCIR-Lifelog-256/u1/2015-03-11/b00000911_21i6bq_20150311_162304e.jpg'
p4119
sg4
(lp4120
(g15
g6
(g18
S'\xae\xf8\\?'
p4121
tp4122
Rp4123
tp4124
a(g44
g6
(g18
S'\xab\x96\xaf='
p4125
tp4126
Rp4127
tp4128
a(g32
g6
(g18
S'v\xda\x11='
p4129
tp4130
Rp4131
tp4132
a(g56
g6
(g18
S'\xd8\x1f\xb3;'
p4133
tp4134
Rp4135
tp4136
a(g92
g6
(g18
S'\xf9&\x9c;'
p4137
tp4138
Rp4139
tp4140
asg73
g15
sa(dp4141
g2
S'../../../data/emanuela/activity-recognition/images/NTCIR-Lifelog-256/u1/2015-03-12/b00000733_21i6bq_20150312_152325e.jpg'
p4142
sg4
(lp4143
(g15
g6
(g18
S'\xb5D&?'
p4144
tp4145
Rp4146
tp4147
a(g104
g6
(g18
S'\x93o\x1f>'
p4148
tp4149
Rp4150
tp4151
a(g32
g6
(g18
S'\x83)\xc9='
p4152
tp4153
Rp4154
tp4155
a(g56
g6
(g18
S"\xfd\xbe'="
p4156
tp4157
Rp4158
tp4159
a(g301
g6
(g18
S'\xcf?{<'
p4160
tp4161
Rp4162
tp4163
asg73
g15
sa(dp4164
g2
S'../../../data/emanuela/activity-recognition/images/NTCIR-Lifelog-256/u1/2015-03-05/b00000261_21i6bq_20150305_085339e.jpg'
p4165
sg4
(lp4166
(g15
g6
(g18
S'"\xb6x?'
p4167
tp4168
Rp4169
tp4170
a(g32
g6
(g18
S'\xd7\xff\xda<'
p4171
tp4172
Rp4173
tp4174
a(g104
g6
(g18
S"\xc3\xd4':"
p4175
tp4176
Rp4177
tp4178
a(g201
g6
(g18
S'\xc6\x1e\x8b9'
p4179
tp4180
Rp4181
tp4182
a(g185
g6
(g18
S'"N\x879'
p4183
tp4184
Rp4185
tp4186
asg73
g15
sa(dp4187
g2
S'../../../data/emanuela/activity-recognition/images/NTCIR-Lifelog-256/u2/2015-04-27/b00005290_21i7lf_20150427_122256e.jpg'
p4188
sg4
(lp4189
(g32
g6
(g18
S'\x15{\xb4>'
p4190
tp4191
Rp4192
tp4193
a(g15
g6
(g18
S'j,\x91>'
p4194
tp4195
Rp4196
tp4197
a(g696
g6
(g18
S'S\x19\xfa='
p4198
tp4199
Rp4200
tp4201
a(g301
g6
(g18
S'G\x1b\xd7='
p4202
tp4203
Rp4204
tp4205
a(g68
g6
(g18
S'\x16\xad|='
p4206
tp4207
Rp4208
tp4209
asg73
g15
sa(dp4210
g2
S'../../../data/emanuela/activity-recognition/images/NTCIR-Lifelog-256/u2/2015-05-01/b00002349_21i7lf_20150501_145747e.jpg'
p4211
sg4
(lp4212
(g15
g6
(g18
S'\x9e\xfdE?'
p4213
tp4214
Rp4215
tp4216
a(g185
g6
(g18
S'G-\x1d>'
p4217
tp4218
Rp4219
tp4220
a(g92
g6
(g18
S'\xb0\xbb\xdb<'
p4221
tp4222
Rp4223
tp4224
a(g201
g6
(g18
S'\xdd\xe0\x93<'
p4225
tp4226
Rp4227
tp4228
a(g32
g6
(g18
S'!\xc9)<'
p4229
tp4230
Rp4231
tp4232
asg73
g15
sa(dp4233
g2
S'../../../data/emanuela/activity-recognition/images/NTCIR-Lifelog-256/u1/2015-03-11/b00000844_21i6bq_20150311_153632e.jpg'
p4234
sg4
(lp4235
(g15
g6
(g18
S'\xbf!+?'
p4236
tp4237
Rp4238
tp4239
a(g32
g6
(g18
S'\x85Da>'
p4240
tp4241
Rp4242
tp4243
a(g201
g6
(g18
S"'.x="
p4244
tp4245
Rp4246
tp4247
a(g92
g6
(g18
S'\x9ebU<'
p4248
tp4249
Rp4250
tp4251
a(g68
g6
(g18
S'\xab\xd9A<'
p4252
tp4253
Rp4254
tp4255
asg73
g15
sa(dp4256
g2
S'../../../data/emanuela/activity-recognition/images/NTCIR-Lifelog-256/u1/2015-03-18/b00000684_21i6bq_20150318_152226e.jpg'
p4257
sg4
(lp4258
(g15
g6
(g18
S'\xf1\xc7U?'
p4259
tp4260
Rp4261
tp4262
a(g32
g6
(g18
S'O\xc8%>'
p4263
tp4264
Rp4265
tp4266
a(g201
g6
(g18
S'\x90\x07R:'
p4267
tp4268
Rp4269
tp4270
a(g44
g6
(g18
S'\x98\xb2\x01:'
p4271
tp4272
Rp4273
tp4274
a(g56
g6
(g18
S'g\xe8\xb79'
p4275
tp4276
Rp4277
tp4278
asg73
g15
sa(dp4279
g2
S'../../../data/emanuela/activity-recognition/images/NTCIR-Lifelog-256/u1/2015-03-05/b00000879_21i6bq_20150305_154100e.jpg'
p4280
sg4
(lp4281
(g32
g6
(g18
S'\xacc\xb7>'
p4282
tp4283
Rp4284
tp4285
a(g15
g6
(g18
S'PO\x9c>'
p4286
tp4287
Rp4288
tp4289
a(g92
g6
(g18
S'\xd7ZH>'
p4290
tp4291
Rp4292
tp4293
a(g44
g6
(g18
S'|\x1c\x80='
p4294
tp4295
Rp4296
tp4297
a(g185
g6
(g18
S'\x9c\xa1\x07='
p4298
tp4299
Rp4300
tp4301
asg73
g15
sa(dp4302
g2
S'../../../data/emanuela/activity-recognition/images/NTCIR-Lifelog-256/u2/2015-05-01/b00001986_21i7lf_20150501_111307e.jpg'
p4303
sg4
(lp4304
(g15
g6
(g18
S'\xe9 \x07?'
p4305
tp4306
Rp4307
tp4308
a(g301
g6
(g18
S'\xb2\x11\xc0>'
p4309
tp4310
Rp4311
tp4312
a(g158
g6
(g18
S'{%\x05='
p4313
tp4314
Rp4315
tp4316
a(g32
g6
(g18
S'Z\x1b\xd2<'
p4317
tp4318
Rp4319
tp4320
a(g68
g6
(g18
S'\x06\xa0\x1e<'
p4321
tp4322
Rp4323
tp4324
asg73
g15
sa(dp4325
g2
S'../../../data/emanuela/activity-recognition/images/NTCIR-Lifelog-256/u1/2015-03-10/b00000149_21i6bq_20150310_142538e.jpg'
p4326
sg4
(lp4327
(g44
g6
(g18
S'\xc9!G?'
p4328
tp4329
Rp4330
tp4331
a(g15
g6
(g18
S'\xd1\xcdX>'
p4332
tp4333
Rp4334
tp4335
a(g32
g6
(g18
S'\xcdk\x19<'
p4336
tp4337
Rp4338
tp4339
a(g92
g6
(g18
S'\xd1\x91/:'
p4340
tp4341
Rp4342
tp4343
a(g201
g6
(g18
S'E\x8em9'
p4344
tp4345
Rp4346
tp4347
asg73
g15
sa(dp4348
g2
S'../../../data/emanuela/activity-recognition/images/NTCIR-Lifelog-256/u2/2015-04-27/b00005356_21i7lf_20150427_130341e.jpg'
p4349
sg4
(lp4350
(g15
g6
(g18
S'\xaa\x10x?'
p4351
tp4352
Rp4353
tp4354
a(g44
g6
(g18
S'\x8a\x9f><'
p4355
tp4356
Rp4357
tp4358
a(g301
g6
(g18
S'm\xb5,<'
p4359
tp4360
Rp4361
tp4362
a(g32
g6
(g18
S'g\x8b\xb7;'
p4363
tp4364
Rp4365
tp4366
a(g158
g6
(g18
S'\xbaW\x7f:'
p4367
tp4368
Rp4369
tp4370
asg73
g15
sa(dp4371
g2
S'../../../data/emanuela/activity-recognition/images/NTCIR-Lifelog-256/u2/2015-05-01/b00002342_21i7lf_20150501_145342e.jpg'
p4372
sg4
(lp4373
(g15
g6
(g18
S'\xa9\x8cw?'
p4374
tp4375
Rp4376
tp4377
a(g32
g6
(g18
S'z\xf8\x03='
p4378
tp4379
Rp4380
tp4381
a(g201
g6
(g18
S'k\xd1\x1a:'
p4382
tp4383
Rp4384
tp4385
a(g104
g6
(g18
S'x\x03u8'
p4386
tp4387
Rp4388
tp4389
a(g44
g6
(g18
S'j\x1aI8'
p4390
tp4391
Rp4392
tp4393
asg73
g15
sa(dp4394
g2
S'../../../data/emanuela/activity-recognition/images/NTCIR-Lifelog-256/u1/2015-03-10/b00001920_21i6bq_20150310_105145e.jpg'
p4395
sg4
(lp4396
(g15
g6
(g18
S'\xb5jt?'
p4397
tp4398
Rp4399
tp4400
a(g301
g6
(g18
S'\xfb\xba\x0f='
p4401
tp4402
Rp4403
tp4404
a(g32
g6
(g18
S'\x87\x05\r<'
p4405
tp4406
Rp4407
tp4408
a(g158
g6
(g18
S'\x84\xed\xad9'
p4409
tp4410
Rp4411
tp4412
a(g696
g6
(g18
S'\x9dx\xa99'
p4413
tp4414
Rp4415
tp4416
asg73
g15
sa(dp4417
g2
S'../../../data/emanuela/activity-recognition/images/NTCIR-Lifelog-256/u1/2015-03-12/b00000672_21i6bq_20150312_144559e.jpg'
p4418
sg4
(lp4419
(g15
g6
(g18
S']\xf6V?'
p4420
tp4421
Rp4422
tp4423
a(g185
g6
(g18
S'i\xfe4='
p4424
tp4425
Rp4426
tp4427
a(g32
g6
(g18
S'8\xfb(='
p4428
tp4429
Rp4430
tp4431
a(g56
g6
(g18
S'\xf7M\x9f<'
p4432
tp4433
Rp4434
tp4435
a(g1122
g6
(g18
S'+\x9f\x95<'
p4436
tp4437
Rp4438
tp4439
asg73
g15
sa(dp4440
g2
S'../../../data/emanuela/activity-recognition/images/NTCIR-Lifelog-256/u1/2015-03-04/b00000822_21i6bq_20150304_152459e.jpg'
p4441
sg4
(lp4442
(g32
g6
(g18
S'\xaez\r?'
p4443
tp4444
Rp4445
tp4446
a(g15
g6
(g18
S'\xae\xed\xbb>'
p4447
tp4448
Rp4449
tp4450
a(g92
g6
(g18
S'\x84\xb1\xd2<'
p4451
tp4452
Rp4453
tp4454
a(g56
g6
(g18
S'$\xf4\xc9<'
p4455
tp4456
Rp4457
tp4458
a(g104
g6
(g18
S'\x8fm\x1a<'
p4459
tp4460
Rp4461
tp4462
asg73
g15
sa(dp4463
g2
S'../../../data/emanuela/activity-recognition/images/NTCIR-Lifelog-256/u1/2015-03-04/b00000405_21i6bq_20150304_105437e.jpg'
p4464
sg4
(lp4465
(g15
g6
(g18
S'\x1f7[?'
p4466
tp4467
Rp4468
tp4469
a(g32
g6
(g18
S'\xc1k\xd4='
p4470
tp4471
Rp4472
tp4473
a(g56
g6
(g18
S'cP\x88<'
p4474
tp4475
Rp4476
tp4477
a(g158
g6
(g18
S'\xec\xcc\xb4;'
p4478
tp4479
Rp4480
tp4481
a(g104
g6
(g18
S'l\xe6\x95;'
p4482
tp4483
Rp4484
tp4485
asg73
g15
sa(dp4486
g2
S'../../../data/emanuela/activity-recognition/images/NTCIR-Lifelog-256/u2/2015-05-07/b00007902_21i7lf_20150507_171311e.jpg'
p4487
sg4
(lp4488
(g15
g6
(g18
S'D\xc9h?'
p4489
tp4490
Rp4491
tp4492
a(g44
g6
(g18
S'\xfb=]='
p4493
tp4494
Rp4495
tp4496
a(g301
g6
(g18
S'\x18j\xd9<'
p4497
tp4498
Rp4499
tp4500
a(g158
g6
(g18
S'H\x0c\x8c;'
p4501
tp4502
Rp4503
tp4504
a(g32
g6
(g18
S'zQA;'
p4505
tp4506
Rp4507
tp4508
asg73
g15
sa(dp4509
g2
S'../../../data/emanuela/activity-recognition/images/NTCIR-Lifelog-256/u1/2015-03-12/b00000692_21i6bq_20150312_145825e.jpg'
p4510
sg4
(lp4511
(g15
g6
(g18
S'\xe3\x1bY?'
p4512
tp4513
Rp4514
tp4515
a(g32
g6
(g18
S'm\xe4l='
p4516
tp4517
Rp4518
tp4519
a(g185
g6
(g18
S'jb.='
p4520
tp4521
Rp4522
tp4523
a(g201
g6
(g18
S'\xfd"\xbe<'
p4524
tp4525
Rp4526
tp4527
a(g56
g6
(g18
S'\xd3,4<'
p4528
tp4529
Rp4530
tp4531
asg73
g15
sa(dp4532
g2
S'../../../data/emanuela/activity-recognition/images/NTCIR-Lifelog-256/u2/2015-04-27/b00005304_21i7lf_20150427_123130e.jpg'
p4533
sg4
(lp4534
(g44
g6
(g18
S'\x0c\xe7$?'
p4535
tp4536
Rp4537
tp4538
a(g15
g6
(g18
S'\x8d\xf6p>'
p4539
tp4540
Rp4541
tp4542
a(g56
g6
(g18
S'\x93i\xc7='
p4543
tp4544
Rp4545
tp4546
a(g68
g6
(g18
S'\x9d\xc7\xcc;'
p4547
tp4548
Rp4549
tp4550
a(g32
g6
(g18
S'N\xd7\xad;'
p4551
tp4552
Rp4553
tp4554
asg73
g15
sa(dp4555
g2
S'../../../data/emanuela/activity-recognition/images/NTCIR-Lifelog-256/u2/2015-05-06/b00006904_21i7lf_20150506_153738e.jpg'
p4556
sg4
(lp4557
(g15
g6
(g18
S'uuZ?'
p4558
tp4559
Rp4560
tp4561
a(g185
g6
(g18
S'\xf1<\xb3='
p4562
tp4563
Rp4564
tp4565
a(g68
g6
(g18
S'\xb0`\xa1<'
p4566
tp4567
Rp4568
tp4569
a(g32
g6
(g18
S'\x1b\t_<'
p4570
tp4571
Rp4572
tp4573
a(g92
g6
(g18
S'\xff\xf73<'
p4574
tp4575
Rp4576
tp4577
asg73
g15
sa(dp4578
g2
S'../../../data/emanuela/activity-recognition/images/NTCIR-Lifelog-256/u2/2015-04-27/b00005205_21i7lf_20150427_113120e.jpg'
p4579
sg4
(lp4580
(g15
g6
(g18
S'\xc4u\x1e?'
p4581
tp4582
Rp4583
tp4584
a(g1195
g6
(g18
S'\x05\xc2]>'
p4585
tp4586
Rp4587
tp4588
a(g44
g6
(g18
S'\x18\xc2\x92='
p4589
tp4590
Rp4591
tp4592
a(g301
g6
(g18
S'\xd8\x8d\xce<'
p4593
tp4594
Rp4595
tp4596
a(g32
g6
(g18
S'\xae=\xc2<'
p4597
tp4598
Rp4599
tp4600
asg73
g15
sa(dp4601
g2
S'../../../data/emanuela/activity-recognition/images/NTCIR-Lifelog-256/u1/2015-03-05/b00000273_21i6bq_20150305_090115e.jpg'
p4602
sg4
(lp4603
(g15
g6
(g18
S'\x0e({?'
p4604
tp4605
Rp4606
tp4607
a(g32
g6
(g18
S'\n\xe8\x88<'
p4608
tp4609
Rp4610
tp4611
a(g185
g6
(g18
S'~*\xa79'
p4612
tp4613
Rp4614
tp4615
a(g104
g6
(g18
S'\xbf%\x9f9'
p4616
tp4617
Rp4618
tp4619
a(g56
g6
(g18
S'\xde\xe3\x9e9'
p4620
tp4621
Rp4622
tp4623
asg73
g15
sa(dp4624
g2
S'../../../data/emanuela/activity-recognition/images/NTCIR-Lifelog-256/u1/2015-03-11/b00000837_21i6bq_20150311_153201e.jpg'
p4625
sg4
(lp4626
(g15
g6
(g18
S'\xcc\xc4n?'
p4627
tp4628
Rp4629
tp4630
a(g32
g6
(g18
S'\xc6\xbe\x01='
p4631
tp4632
Rp4633
tp4634
a(g44
g6
(g18
S'\x0f\x12\xaf<'
p4635
tp4636
Rp4637
tp4638
a(g201
g6
(g18
S'\x1f\x80\xaf;'
p4639
tp4640
Rp4641
tp4642
a(g92
g6
(g18
S'\xd9\xe5e;'
p4643
tp4644
Rp4645
tp4646
asg73
g15
sa(dp4647
g2
S'../../../data/emanuela/activity-recognition/images/NTCIR-Lifelog-256/u2/2015-05-01/b00002004_21i7lf_20150501_112359e.jpg'
p4648
sg4
(lp4649
(g15
g6
(g18
S'\rQl?'
p4650
tp4651
Rp4652
tp4653
a(g44
g6
(g18
S'Qq\xa1<'
p4654
tp4655
Rp4656
tp4657
a(g68
g6
(g18
S'LQw<'
p4658
tp4659
Rp4660
tp4661
a(g1713
g6
(g18
S'\x08Zd<'
p4662
tp4663
Rp4664
tp4665
a(g201
g6
(g18
S'S\xe6\xca;'
p4666
tp4667
Rp4668
tp4669
asg73
g15
sa(dp4670
g2
S'../../../data/emanuela/activity-recognition/images/NTCIR-Lifelog-256/u2/2015-04-22/b00000138_21i7lf_20150422_141007e.jpg'
p4671
sg4
(lp4672
(g15
g6
(g18
S'\xb3\x8cX?'
p4673
tp4674
Rp4675
tp4676
a(g32
g6
(g18
S'4\xb8\x0c>'
p4677
tp4678
Rp4679
tp4680
a(g44
g6
(g18
S'\x8c\x1b\xa8;'
p4681
tp4682
Rp4683
tp4684
a(g56
g6
(g18
S'\x16\xc7\xa3;'
p4685
tp4686
Rp4687
tp4688
a(g301
g6
(g18
S'\x9b\x04\xce:'
p4689
tp4690
Rp4691
tp4692
asg73
g15
sa(dp4693
g2
S'../../../data/emanuela/activity-recognition/images/NTCIR-Lifelog-256/u2/2015-04-27/b00005677_21i7lf_20150427_162341e.jpg'
p4694
sg4
(lp4695
(g15
g6
(g18
S't9\xd5>'
p4696
tp4697
Rp4698
tp4699
a(g56
g6
(g18
S'\xc2\xe3\x7f>'
p4700
tp4701
Rp4702
tp4703
a(g32
g6
(g18
S'l]\xe4='
p4704
tp4705
Rp4706
tp4707
a(g68
g6
(g18
S'S\xe2\x9e='
p4708
tp4709
Rp4710
tp4711
a(g201
g6
(g18
S'\x98\xa7\x1a='
p4712
tp4713
Rp4714
tp4715
asg73
g15
sa(dp4716
g2
S'../../../data/emanuela/activity-recognition/images/NTCIR-Lifelog-256/u1/2015-03-11/b00000925_21i6bq_20150311_163319e.jpg'
p4717
sg4
(lp4718
(g15
g6
(g18
S'S\x95r?'
p4719
tp4720
Rp4721
tp4722
a(g32
g6
(g18
S'X\x13\xe4<'
p4723
tp4724
Rp4725
tp4726
a(g56
g6
(g18
S'\xfaM\xe2;'
p4727
tp4728
Rp4729
tp4730
a(g1195
g6
(g18
S'\x97\x19\xc0;'
p4731
tp4732
Rp4733
tp4734
a(g44
g6
(g18
S'\xc1\x12r;'
p4735
tp4736
Rp4737
tp4738
asg73
g15
sa(dp4739
g2
S'../../../data/emanuela/activity-recognition/images/NTCIR-Lifelog-256/u1/2015-03-03/b00000690_21i6bq_20150303_141659e.jpg'
p4740
sg4
(lp4741
(g15
g6
(g18
S'\x16\xa0 ?'
p4742
tp4743
Rp4744
tp4745
a(g44
g6
(g18
S'\x94\xee\xa6>'
p4746
tp4747
Rp4748
tp4749
a(g32
g6
(g18
S'\x19l0='
p4750
tp4751
Rp4752
tp4753
a(g201
g6
(g18
S'R\x10\xaa:'
p4754
tp4755
Rp4756
tp4757
a(g158
g6
(g18
S']\x12\x8d:'
p4758
tp4759
Rp4760
tp4761
asg73
g15
sa(dp4762
g2
S'../../../data/emanuela/activity-recognition/images/NTCIR-Lifelog-256/u1/2015-02-25/b00000902_21i6bq_20150225_152517e.jpg'
p4763
sg4
(lp4764
(g56
g6
(g18
S'&5\xd9>'
p4765
tp4766
Rp4767
tp4768
a(g68
g6
(g18
S'SA\xa0>'
p4769
tp4770
Rp4771
tp4772
a(g696
g6
(g18
S'z\xb2\x8e='
p4773
tp4774
Rp4775
tp4776
a(g6
(g7
(S'S15'
p4777
I0
I1
tp4778
Rp4779
(I3
S'|'
p4780
NNNI15
I1
I0
tp4781
bS'walking outdoor'
p4782
tp4783
Rp4784
g6
(g18
S'\xb9\xdaI='
p4785
tp4786
Rp4787
tp4788
a(g1122
g6
(g18
S'\xebL\xda<'
p4789
tp4790
Rp4791
tp4792
asg73
g15
sa(dp4793
g2
S'../../../data/emanuela/activity-recognition/images/NTCIR-Lifelog-256/u2/2015-05-01/b00002321_21i7lf_20150501_144057e.jpg'
p4794
sg4
(lp4795
(g15
g6
(g18
S'\x91(\xc6>'
p4796
tp4797
Rp4798
tp4799
a(g158
g6
(g18
S'HL\x82>'
p4800
tp4801
Rp4802
tp4803
a(g301
g6
(g18
S'\xa6\xbf\x1b>'
p4804
tp4805
Rp4806
tp4807
a(g32
g6
(g18
S'v+m='
p4808
tp4809
Rp4810
tp4811
a(g56
g6
(g18
S'mk\x1f='
p4812
tp4813
Rp4814
tp4815
asg73
g15
sa(dp4816
g2
S'../../../data/emanuela/activity-recognition/images/NTCIR-Lifelog-256/u1/2015-03-05/b00000239_21i6bq_20150305_084032e.jpg'
p4817
sg4
(lp4818
(g15
g6
(g18
S'\x12\xcc=?'
p4819
tp4820
Rp4821
tp4822
a(g32
g6
(g18
S'\x1b\x86\x07>'
p4823
tp4824
Rp4825
tp4826
a(g104
g6
(g18
S'\x03\x99\xd8<'
p4827
tp4828
Rp4829
tp4830
a(g158
g6
(g18
S'\x8co\xc2<'
p4831
tp4832
Rp4833
tp4834
a(g185
g6
(g18
S'\xf2\\\x8b<'
p4835
tp4836
Rp4837
tp4838
asg73
g15
sa(dp4839
g2
S'../../../data/emanuela/activity-recognition/images/NTCIR-Lifelog-256/u1/2015-03-02/b00000655_21i6bq_20150302_140000e.jpg'
p4840
sg4
(lp4841
(g92
g6
(g18
S'\x9dh\xd2>'
p4842
tp4843
Rp4844
tp4845
a(g32
g6
(g18
S'\x11\xa2\xb1>'
p4846
tp4847
Rp4848
tp4849
a(g15
g6
(g18
S'dZ\x15>'
p4850
tp4851
Rp4852
tp4853
a(g185
g6
(g18
S'\xaf\xbb\xcb<'
p4854
tp4855
Rp4856
tp4857
a(g696
g6
(g18
S'\x17X\x8c<'
p4858
tp4859
Rp4860
tp4861
asg73
g15
sa(dp4862
g2
S'../../../data/emanuela/activity-recognition/images/NTCIR-Lifelog-256/u2/2015-05-07/b00008123_21i7lf_20150507_192750e.jpg'
p4863
sg4
(lp4864
(g15
g6
(g18
S'\xf5\x1b\\?'
p4865
tp4866
Rp4867
tp4868
a(g301
g6
(g18
S'\xec\xfd\xff='
p4869
tp4870
Rp4871
tp4872
a(g32
g6
(g18
S'V\xf6\xca;'
p4873
tp4874
Rp4875
tp4876
a(g68
g6
(g18
S'.?!;'
p4877
tp4878
Rp4879
tp4880
a(g158
g6
(g18
S'\xe1\x89\x16;'
p4881
tp4882
Rp4883
tp4884
asg73
g15
sa(dp4885
g2
S'../../../data/emanuela/activity-recognition/images/NTCIR-Lifelog-256/u1/2015-02-27/b00000314_21i6bq_20150227_102444e.jpg'
p4886
sg4
(lp4887
(g15
g6
(g18
S'\xf5\x18\t?'
p4888
tp4889
Rp4890
tp4891
a(g32
g6
(g18
S'$\x83\x9a>'
p4892
tp4893
Rp4894
tp4895
a(g92
g6
(g18
S'\xfb\xda\xe3='
p4896
tp4897
Rp4898
tp4899
a(g185
g6
(g18
S'\xa1\xaa\x9a<'
p4900
tp4901
Rp4902
tp4903
a(g201
g6
(g18
S'l\xdfM<'
p4904
tp4905
Rp4906
tp4907
asg73
g15
sa(dp4908
g2
S'../../../data/emanuela/activity-recognition/images/NTCIR-Lifelog-256/u1/2015-03-04/b00000400_21i6bq_20150304_105147e.jpg'
p4909
sg4
(lp4910
(g15
g6
(g18
S'\xc06X?'
p4911
tp4912
Rp4913
tp4914
a(g32
g6
(g18
S'\x1d=\xb1='
p4915
tp4916
Rp4917
tp4918
a(g301
g6
(g18
S'jm\x01='
p4919
tp4920
Rp4921
tp4922
a(g158
g6
(g18
S'\x9c\x88\x94<'
p4923
tp4924
Rp4925
tp4926
a(g56
g6
(g18
S'\xaf\xfa\xc4;'
p4927
tp4928
Rp4929
tp4930
asg73
g15
sa(dp4931
g2
S'../../../data/emanuela/activity-recognition/images/NTCIR-Lifelog-256/u1/2015-03-18/b00000344_21i6bq_20150318_112342e.jpg'
p4932
sg4
(lp4933
(g15
g6
(g18
S'\x8d\xf9\x06?'
p4934
tp4935
Rp4936
tp4937
a(g32
g6
(g18
S'2\x04\xc6>'
p4938
tp4939
Rp4940
tp4941
a(g92
g6
(g18
S'x\x9c\x1e='
p4942
tp4943
Rp4944
tp4945
a(g44
g6
(g18
S'\xe5U\x1a='
p4946
tp4947
Rp4948
tp4949
a(g201
g6
(g18
S'\xbcQJ;'
p4950
tp4951
Rp4952
tp4953
asg73
g15
sa(dp4954
g2
S'../../../data/emanuela/activity-recognition/images/NTCIR-Lifelog-256/u1/2015-03-10/b00001853_21i6bq_20150310_100627e.jpg'
p4955
sg4
(lp4956
(g15
g6
(g18
S'lGe?'
p4957
tp4958
Rp4959
tp4960
a(g44
g6
(g18
S'/;\xcc='
p4961
tp4962
Rp4963
tp4964
a(g32
g6
(g18
S'\x08m];'
p4965
tp4966
Rp4967
tp4968
a(g158
g6
(g18
S'\xcf-\x1f:'
p4969
tp4970
Rp4971
tp4972
a(g56
g6
(g18
S'\x8d\xd739'
p4973
tp4974
Rp4975
tp4976
asg73
g15
sa(dp4977
g2
S'../../../data/emanuela/activity-recognition/images/NTCIR-Lifelog-256/u1/2015-03-02/b00000832_21i6bq_20150302_155534e.jpg'
p4978
sg4
(lp4979
(g32
g6
(g18
S'\x1e\xabU?'
p4980
tp4981
Rp4982
tp4983
a(g56
g6
(g18
S')\xb1\x8a='
p4984
tp4985
Rp4986
tp4987
a(g15
g6
(g18
S'\xbc\xb49='
p4988
tp4989
Rp4990
tp4991
a(g104
g6
(g18
S'\x15\xa2\xc5<'
p4992
tp4993
Rp4994
tp4995
a(g92
g6
(g18
S'\xd6^6<'
p4996
tp4997
Rp4998
tp4999
asg73
g15
sa(dp5000
g2
S'../../../data/emanuela/activity-recognition/images/NTCIR-Lifelog-256/u1/2015-02-27/b00000850_21i6bq_20150227_162252e.jpg'
p5001
sg4
(lp5002
(g15
g6
(g18
S'\x1cdK?'
p5003
tp5004
Rp5005
tp5006
a(g32
g6
(g18
S'm\x1a!>'
p5007
tp5008
Rp5009
tp5010
a(g56
g6
(g18
S'*\xed\x05='
p5011
tp5012
Rp5013
tp5014
a(g92
g6
(g18
S'\x95?\xc2;'
p5015
tp5016
Rp5017
tp5018
a(g44
g6
(g18
S'k\xe4];'
p5019
tp5020
Rp5021
tp5022
asg73
g15
sa(dp5023
g2
S'../../../data/emanuela/activity-recognition/images/NTCIR-Lifelog-256/u1/2015-02-28/b00001019_21i6bq_20150228_170949e.jpg'
p5024
sg4
(lp5025
(g32
g6
(g18
S'\xadE\xc8>'
p5026
tp5027
Rp5028
tp5029
a(g104
g6
(g18
S'\x99\xc9 >'
p5030
tp5031
Rp5032
tp5033
a(g56
g6
(g18
S'\x9b\xde\x1e>'
p5034
tp5035
Rp5036
tp5037
a(g185
g6
(g18
S's\xc4\x87='
p5038
tp5039
Rp5040
tp5041
a(g92
g6
(g18
S'\x0e\xda\x84='
p5042
tp5043
Rp5044
tp5045
asg73
g15
sa(dp5046
g2
S'../../../data/emanuela/activity-recognition/images/NTCIR-Lifelog-256/u2/2015-04-27/b00005219_21i7lf_20150427_113958e.jpg'
p5047
sg4
(lp5048
(g15
g6
(g18
S'c8\x93>'
p5049
tp5050
Rp5051
tp5052
a(g56
g6
(g18
S'w~:>'
p5053
tp5054
Rp5055
tp5056
a(g1195
g6
(g18
S'\r7\x11>'
p5057
tp5058
Rp5059
tp5060
a(g44
g6
(g18
S'A\xa6\xe7='
p5061
tp5062
Rp5063
tp5064
a(g32
g6
(g18
S'\xb4_\xc1='
p5065
tp5066
Rp5067
tp5068
asg73
g15
sa(dp5069
g2
S'../../../data/emanuela/activity-recognition/images/NTCIR-Lifelog-256/u1/2015-03-05/b00000230_21i6bq_20150305_083507e.jpg'
p5070
sg4
(lp5071
(g15
g6
(g18
S'\x1c\xa5|?'
p5072
tp5073
Rp5074
tp5075
a(g32
g6
(g18
S"\x8b='<"
p5076
tp5077
Rp5078
tp5079
a(g44
g6
(g18
S'\xc9\x90\x8e:'
p5080
tp5081
Rp5082
tp5083
a(g158
g6
(g18
S'\xf3tx:'
p5084
tp5085
Rp5086
tp5087
a(g56
g6
(g18
S'\xd0\xa1\x8f9'
p5088
tp5089
Rp5090
tp5091
asg73
g15
sa(dp5092
g2
S'../../../data/emanuela/activity-recognition/images/NTCIR-Lifelog-256/u1/2015-03-18/b00000320_21i6bq_20150318_110924e.jpg'
p5093
sg4
(lp5094
(g92
g6
(g18
S'\xc7\x04\xe1>'
p5095
tp5096
Rp5097
tp5098
a(g15
g6
(g18
S'\x8e\r\x81>'
p5099
tp5100
Rp5101
tp5102
a(g32
g6
(g18
S'C\xe3}>'
p5103
tp5104
Rp5105
tp5106
a(g44
g6
(g18
S'\xf6\xd01='
p5107
tp5108
Rp5109
tp5110
a(g201
g6
(g18
S'\xab\xbb\x94;'
p5111
tp5112
Rp5113
tp5114
asg73
g15
sa(dp5115
g2
S'../../../data/emanuela/activity-recognition/images/NTCIR-Lifelog-256/u1/2015-03-04/b00000333_21i6bq_20150304_101032e.jpg'
p5116
sg4
(lp5117
(g15
g6
(g18
S'\x87\xb7n?'
p5118
tp5119
Rp5120
tp5121
a(g32
g6
(g18
S'\xb1\xf9z='
p5122
tp5123
Rp5124
tp5125
a(g56
g6
(g18
S'x\x1b\x8a;'
p5126
tp5127
Rp5128
tp5129
a(g68
g6
(g18
S'\xf5\xc7\x15:'
p5130
tp5131
Rp5132
tp5133
a(g104
g6
(g18
S'\xc4\xbd\xa99'
p5134
tp5135
Rp5136
tp5137
asg73
g15
sa(dp5138
g2
S'../../../data/emanuela/activity-recognition/images/NTCIR-Lifelog-256/u2/2015-04-24/b00002110_21i7lf_20150424_110100e.jpg'
p5139
sg4
(lp5140
(g15
g6
(g18
S'\xd5[\xa5>'
p5141
tp5142
Rp5143
tp5144
a(g185
g6
(g18
S'\x1d\x15\x8e>'
p5145
tp5146
Rp5147
tp5148
a(g201
g6
(g18
S'\xb0S\x89>'
p5149
tp5150
Rp5151
tp5152
a(g68
g6
(g18
S'\xe5\x1b\x97='
p5153
tp5154
Rp5155
tp5156
a(g92
g6
(g18
S'\x0bz\x96<'
p5157
tp5158
Rp5159
tp5160
asg73
g15
sa(dp5161
g2
S'../../../data/emanuela/activity-recognition/images/NTCIR-Lifelog-256/u2/2015-05-01/b00002025_21i7lf_20150501_113634e.jpg'
p5162
sg4
(lp5163
(g15
g6
(g18
S'\xca\xbft?'
p5164
tp5165
Rp5166
tp5167
a(g44
g6
(g18
S';P\x98<'
p5168
tp5169
Rp5170
tp5171
a(g68
g6
(g18
S'\x06\xed\xd9;'
p5172
tp5173
Rp5174
tp5175
a(g32
g6
(g18
S'\x95K\xbc;'
p5176
tp5177
Rp5178
tp5179
a(g301
g6
(g18
S'@6{;'
p5180
tp5181
Rp5182
tp5183
asg73
g15
sa(dp5184
g2
S'../../../data/emanuela/activity-recognition/images/NTCIR-Lifelog-256/u2/2015-05-06/b00006972_21i7lf_20150506_162301e.jpg'
p5185
sg4
(lp5186
(g56
g6
(g18
S'\xd7\x9bA>'
p5187
tp5188
Rp5189
tp5190
a(g185
g6
(g18
S'\t\xf3\xf0='
p5191
tp5192
Rp5193
tp5194
a(g1122
g6
(g18
S'\xc0\x93\xe9='
p5195
tp5196
Rp5197
tp5198
a(g32
g6
(g18
S'\xf4\xd3\xde='
p5199
tp5200
Rp5201
tp5202
a(g92
g6
(g18
S'\xab2\xd8='
p5203
tp5204
Rp5205
tp5206
asg73
g15
sa(dp5207
g2
S'../../../data/emanuela/activity-recognition/images/NTCIR-Lifelog-256/u1/2015-03-18/b00000678_21i6bq_20150318_151845e.jpg'
p5208
sg4
(lp5209
(g15
g6
(g18
S'\x86\x98;?'
p5210
tp5211
Rp5212
tp5213
a(g32
g6
(g18
S'Y\xa3\x83>'
p5214
tp5215
Rp5216
tp5217
a(g201
g6
(g18
S'\xdd\x8c\x1c;'
p5218
tp5219
Rp5220
tp5221
a(g56
g6
(g18
S'\x00H\xd7:'
p5222
tp5223
Rp5224
tp5225
a(g158
g6
(g18
S'K(\xbc:'
p5226
tp5227
Rp5228
tp5229
asg73
g15
sa(dp5230
g2
S'../../../data/emanuela/activity-recognition/images/NTCIR-Lifelog-256/u2/2015-04-24/b00002136_21i7lf_20150424_111700e.jpg'
p5231
sg4
(lp5232
(g15
g6
(g18
S'\x89\x10l?'
p5233
tp5234
Rp5235
tp5236
a(g185
g6
(g18
S'\xf2\x90,='
p5237
tp5238
Rp5239
tp5240
a(g32
g6
(g18
S'\x95\xb6i<'
p5241
tp5242
Rp5243
tp5244
a(g201
g6
(g18
S'\xc1R\xe0;'
p5245
tp5246
Rp5247
tp5248
a(g92
g6
(g18
S'\xa6F\xe0;'
p5249
tp5250
Rp5251
tp5252
asg73
g15
sa(dp5253
g2
S'../../../data/emanuela/activity-recognition/images/NTCIR-Lifelog-256/u2/2015-04-24/b00002088_21i7lf_20150424_104736e.jpg'
p5254
sg4
(lp5255
(g15
g6
(g18
S'\xa0\xcf~?'
p5256
tp5257
Rp5258
tp5259
a(g32
g6
(g18
S'\x13\xdc8;'
p5260
tp5261
Rp5262
tp5263
a(g201
g6
(g18
S'H r:'
p5264
tp5265
Rp5266
tp5267
a(g185
g6
(g18
S';-\xf09'
p5268
tp5269
Rp5270
tp5271
a(g92
g6
(g18
S's\xdd\xb19'
p5272
tp5273
Rp5274
tp5275
asg73
g15
sa(dp5276
g2
S'../../../data/emanuela/activity-recognition/images/NTCIR-Lifelog-256/u1/2015-03-02/b00000634_21i6bq_20150302_134600e.jpg'
p5277
sg4
(lp5278
(g15
g6
(g18
S"'e\xf4>"
p5279
tp5280
Rp5281
tp5282
a(g301
g6
(g18
S'e#\x7f>'
p5283
tp5284
Rp5285
tp5286
a(g68
g6
(g18
S'\x9ap\xd2='
p5287
tp5288
Rp5289
tp5290
a(g158
g6
(g18
S'\x17K"='
p5291
tp5292
Rp5293
tp5294
a(g696
g6
(g18
S'\x9d\x03\xf9<'
p5295
tp5296
Rp5297
tp5298
asg73
g15
sa(dp5299
g2
S'../../../data/emanuela/activity-recognition/images/NTCIR-Lifelog-256/u2/2015-04-27/b00005332_21i7lf_20150427_124845e.jpg'
p5300
sg4
(lp5301
(g15
g6
(g18
S'\x896q?'
p5302
tp5303
Rp5304
tp5305
a(g44
g6
(g18
S'\x17k\x0e='
p5306
tp5307
Rp5308
tp5309
a(g158
g6
(g18
S'\xb5\x88\x81<'
p5310
tp5311
Rp5312
tp5313
a(g301
g6
(g18
S']\x9d\xd6:'
p5314
tp5315
Rp5316
tp5317
a(g56
g6
(g18
S'\xd91\xc0:'
p5318
tp5319
Rp5320
tp5321
asg73
g15
sa(dp5322
g2
S'../../../data/emanuela/activity-recognition/images/NTCIR-Lifelog-256/u2/2015-04-22/b00000126_21i7lf_20150422_140241e.jpg'
p5323
sg4
(lp5324
(g15
g6
(g18
S'\x97(t?'
p5325
tp5326
Rp5327
tp5328
a(g301
g6
(g18
S'\xaa\xc7\xbd<'
p5329
tp5330
Rp5331
tp5332
a(g44
g6
(g18
S'\xc0\x99\xbc;'
p5333
tp5334
Rp5335
tp5336
a(g32
g6
(g18
S'[\x94\x9d;'
p5337
tp5338
Rp5339
tp5340
a(g1713
g6
(g18
S'\xb6\x01\x85;'
p5341
tp5342
Rp5343
tp5344
asg73
g15
sa(dp5345
g2
S'../../../data/emanuela/activity-recognition/images/NTCIR-Lifelog-256/u2/2015-05-01/b00002322_21i7lf_20150501_144138e.jpg'
p5346
sg4
(lp5347
(g15
g6
(g18
S'e\xe4|?'
p5348
tp5349
Rp5350
tp5351
a(g32
g6
(g18
S'h\xd2\x1c<'
p5352
tp5353
Rp5354
tp5355
a(g201
g6
(g18
S'D\x06\x03;'
p5356
tp5357
Rp5358
tp5359
a(g68
g6
(g18
S'\xe8\x10K9'
p5360
tp5361
Rp5362
tp5363
a(g185
g6
(g18
S'7~\x179'
p5364
tp5365
Rp5366
tp5367
asg73
g15
sa(dp5368
g2
S'../../../data/emanuela/activity-recognition/images/NTCIR-Lifelog-256/u1/2015-03-05/b00000877_21i6bq_20150305_153954e.jpg'
p5369
sg4
(lp5370
(g15
g6
(g18
S'\xe8\x0br>'
p5371
tp5372
Rp5373
tp5374
a(g32
g6
(g18
S'\x94\xeeo>'
p5375
tp5376
Rp5377
tp5378
a(g92
g6
(g18
S'\x14\x1dR>'
p5379
tp5380
Rp5381
tp5382
a(g44
g6
(g18
S'\xf2\x17\x10>'
p5383
tp5384
Rp5385
tp5386
a(g185
g6
(g18
S'\xf32\x89='
p5387
tp5388
Rp5389
tp5390
asg73
g15
sa(dp5391
g2
S'../../../data/emanuela/activity-recognition/images/NTCIR-Lifelog-256/u2/2015-05-01/b00001968_21i7lf_20150501_110209e.jpg'
p5392
sg4
(lp5393
(g15
g6
(g18
S'\x08\x01K?'
p5394
tp5395
Rp5396
tp5397
a(g32
g6
(g18
S'Zx\x1b>'
p5398
tp5399
Rp5400
tp5401
a(g185
g6
(g18
S'\xd2\xc7\x86<'
p5402
tp5403
Rp5404
tp5405
a(g301
g6
(g18
S'g\xab_<'
p5406
tp5407
Rp5408
tp5409
a(g696
g6
(g18
S'\x8dRA<'
p5410
tp5411
Rp5412
tp5413
asg73
g15
sa(dp5414
g2
S'../../../data/emanuela/activity-recognition/images/NTCIR-Lifelog-256/u1/2015-03-18/b00000327_21i6bq_20150318_111344e.jpg'
p5415
sg4
(lp5416
(g15
g6
(g18
S'\xc1\xa2\x13?'
p5417
tp5418
Rp5419
tp5420
a(g32
g6
(g18
S'O\xd6O>'
p5421
tp5422
Rp5423
tp5424
a(g44
g6
(g18
S"j\x13'>"
p5425
tp5426
Rp5427
tp5428
a(g92
g6
(g18
S'\x90\x1aY='
p5429
tp5430
Rp5431
tp5432
a(g201
g6
(g18
S'\xdc\xa7\x1c;'
p5433
tp5434
Rp5435
tp5436
asg73
g15
sa(dp5437
g2
S'../../../data/emanuela/activity-recognition/images/NTCIR-Lifelog-256/u1/2015-03-12/b00000694_21i6bq_20150312_145941e.jpg'
p5438
sg4
(lp5439
(g15
g6
(g18
S'\x8a\xa6^?'
p5440
tp5441
Rp5442
tp5443
a(g32
g6
(g18
S'\xafu@='
p5444
tp5445
Rp5446
tp5447
a(g201
g6
(g18
S'+o\xc4<'
p5448
tp5449
Rp5450
tp5451
a(g56
g6
(g18
S'\xce\x87\x85<'
p5452
tp5453
Rp5454
tp5455
a(g185
g6
(g18
S'\x06\xb28<'
p5456
tp5457
Rp5458
tp5459
asg73
g15
sa(dp5460
g2
S'../../../data/emanuela/activity-recognition/images/NTCIR-Lifelog-256/u1/2015-03-04/b00000355_21i6bq_20150304_102350e.jpg'
p5461
sg4
(lp5462
(g15
g6
(g18
S'\xb8m\\?'
p5463
tp5464
Rp5465
tp5466
a(g32
g6
(g18
S'\xaf=\xb9='
p5467
tp5468
Rp5469
tp5470
a(g56
g6
(g18
S'\xf5^\x00='
p5471
tp5472
Rp5473
tp5474
a(g104
g6
(g18
S'\x14\x9a\x85;'
p5475
tp5476
Rp5477
tp5478
a(g201
g6
(g18
S'\xc4\xda~;'
p5479
tp5480
Rp5481
tp5482
asg73
g15
sa(dp5483
g2
S'../../../data/emanuela/activity-recognition/images/NTCIR-Lifelog-256/u1/2015-03-02/b00000316_21i6bq_20150302_100917e.jpg'
p5484
sg4
(lp5485
(g32
g6
(g18
S'\x12m\t?'
p5486
tp5487
Rp5488
tp5489
a(g15
g6
(g18
S'\x16\xa0\xbd>'
p5490
tp5491
Rp5492
tp5493
a(g92
g6
(g18
S'\x84\x15j='
p5494
tp5495
Rp5496
tp5497
a(g201
g6
(g18
S'z\xd3#<'
p5498
tp5499
Rp5500
tp5501
a(g44
g6
(g18
S'\xcb\x17\x15<'
p5502
tp5503
Rp5504
tp5505
asg73
g15
sa(dp5506
g2
S'../../../data/emanuela/activity-recognition/images/NTCIR-Lifelog-256/u2/2015-04-22/b00000096_21i7lf_20150422_134359e.jpg'
p5507
sg4
(lp5508
(g15
g6
(g18
S'v^z?'
p5509
tp5510
Rp5511
tp5512
a(g44
g6
(g18
S'\xc8b\xe5;'
p5513
tp5514
Rp5515
tp5516
a(g32
g6
(g18
S'~Y\x88;'
p5517
tp5518
Rp5519
tp5520
a(g68
g6
(g18
S'j\x9d\x81;'
p5521
tp5522
Rp5523
tp5524
a(g301
g6
(g18
S'0~ ;'
p5525
tp5526
Rp5527
tp5528
asg73
g15
sa(dp5529
g2
S'../../../data/emanuela/activity-recognition/images/NTCIR-Lifelog-256/u2/2015-05-07/b00007900_21i7lf_20150507_171153e.jpg'
p5530
sg4
(lp5531
(g15
g6
(g18
S'\x0c\x10h?'
p5532
tp5533
Rp5534
tp5535
a(g44
g6
(g18
S'\x0b\xb6X='
p5536
tp5537
Rp5538
tp5539
a(g301
g6
(g18
S'H\x19\xc9<'
p5540
tp5541
Rp5542
tp5543
a(g158
g6
(g18
S'\x95M)<'
p5544
tp5545
Rp5546
tp5547
a(g32
g6
(g18
S'w\\\xe7:'
p5548
tp5549
Rp5550
tp5551
asg73
g15
sa(dp5552
g2
S'../../../data/emanuela/activity-recognition/images/NTCIR-Lifelog-256/u1/2015-03-11/b00000865_21i6bq_20150311_155124e.jpg'
p5553
sg4
(lp5554
(g15
g6
(g18
S'\x11\x1bS?'
p5555
tp5556
Rp5557
tp5558
a(g44
g6
(g18
S'\x1e\xae$>'
p5559
tp5560
Rp5561
tp5562
a(g32
g6
(g18
S'7\xf80<'
p5563
tp5564
Rp5565
tp5566
a(g56
g6
(g18
S'\xfdY\xb8:'
p5567
tp5568
Rp5569
tp5570
a(g201
g6
(g18
S'\xc6\xfbw:'
p5571
tp5572
Rp5573
tp5574
asg73
g15
sa(dp5575
g2
S'../../../data/emanuela/activity-recognition/images/NTCIR-Lifelog-256/u1/2015-03-02/b00000663_21i6bq_20150302_140441e.jpg'
p5576
sg4
(lp5577
(g15
g6
(g18
S'<\xfe\xf2>'
p5578
tp5579
Rp5580
tp5581
a(g32
g6
(g18
S'B}\xa3>'
p5582
tp5583
Rp5584
tp5585
a(g92
g6
(g18
S'\xb6Q\x1f>'
p5586
tp5587
Rp5588
tp5589
a(g44
g6
(g18
S'\x99\x8b\x97<'
p5590
tp5591
Rp5592
tp5593
a(g201
g6
(g18
S'\x9fq-<'
p5594
tp5595
Rp5596
tp5597
asg73
g15
sa(dp5598
g2
S'../../../data/emanuela/activity-recognition/images/NTCIR-Lifelog-256/u2/2015-05-01/b00002019_21i7lf_20150501_113246e.jpg'
p5599
sg4
(lp5600
(g15
g6
(g18
S'\x9a\x99j?'
p5601
tp5602
Rp5603
tp5604
a(g44
g6
(g18
S'\xe7\xf04='
p5605
tp5606
Rp5607
tp5608
a(g32
g6
(g18
S'#t\xc5<'
p5609
tp5610
Rp5611
tp5612
a(g92
g6
(g18
S'I-\x80;'
p5613
tp5614
Rp5615
tp5616
a(g68
g6
(g18
S'\xd4\xeaJ;'
p5617
tp5618
Rp5619
tp5620
asg73
g15
sa(dp5621
g2
S'../../../data/emanuela/activity-recognition/images/NTCIR-Lifelog-256/u2/2015-04-22/b00000123_21i7lf_20150422_140052e.jpg'
p5622
sg4
(lp5623
(g15
g6
(g18
S'\xfa3d?'
p5624
tp5625
Rp5626
tp5627
a(g301
g6
(g18
S'\xaa~\x83='
p5628
tp5629
Rp5630
tp5631
a(g44
g6
(g18
S'#2\xa0<'
p5632
tp5633
Rp5634
tp5635
a(g158
g6
(g18
S'\xb2\x9dz<'
p5636
tp5637
Rp5638
tp5639
a(g32
g6
(g18
S'\x01\x19\xc5;'
p5640
tp5641
Rp5642
tp5643
asg73
g15
sa(dp5644
g2
S'../../../data/emanuela/activity-recognition/images/NTCIR-Lifelog-256/u1/2015-03-18/b00000332_21i6bq_20150318_111643e.jpg'
p5645
sg4
(lp5646
(g32
g6
(g18
S'\xbe\x12\xb1>'
p5647
tp5648
Rp5649
tp5650
a(g15
g6
(g18
S'@\xe2\xa0>'
p5651
tp5652
Rp5653
tp5654
a(g92
g6
(g18
S'\xb7\xfd >'
p5655
tp5656
Rp5657
tp5658
a(g44
g6
(g18
S'\xbf!\x1b>'
p5659
tp5660
Rp5661
tp5662
a(g104
g6
(g18
S'\x979-<'
p5663
tp5664
Rp5665
tp5666
asg73
g15
sa(dp5667
g2
S'../../../data/emanuela/activity-recognition/images/NTCIR-Lifelog-256/u1/2015-03-05/b00000746_21i6bq_20150305_141755e.jpg'
p5668
sg4
(lp5669
(g15
g6
(g18
S'A\xa0\xea>'
p5670
tp5671
Rp5672
tp5673
a(g32
g6
(g18
S'jL\xb7>'
p5674
tp5675
Rp5676
tp5677
a(g44
g6
(g18
S'\xfe\xc8\xef='
p5678
tp5679
Rp5680
tp5681
a(g56
g6
(g18
S'\xcbA\x04='
p5682
tp5683
Rp5684
tp5685
a(g92
g6
(g18
S'\xf9\x93\x9f<'
p5686
tp5687
Rp5688
tp5689
asg73
g15
sa(dp5690
g2
S'../../../data/emanuela/activity-recognition/images/NTCIR-Lifelog-256/u2/2015-04-24/b00002146_21i7lf_20150424_112317e.jpg'
p5691
sg4
(lp5692
(g15
g6
(g18
S'\xe6]d?'
p5693
tp5694
Rp5695
tp5696
a(g32
g6
(g18
S'\xb6\xa0\xff<'
p5697
tp5698
Rp5699
tp5700
a(g185
g6
(g18
S'\xfa\x15\xe9<'
p5701
tp5702
Rp5703
tp5704
a(g68
g6
(g18
S';/5<'
p5705
tp5706
Rp5707
tp5708
a(g301
g6
(g18
S'\xff\x92\xfd;'
p5709
tp5710
Rp5711
tp5712
asg73
g15
sa(dp5713
g2
S'../../../data/emanuela/activity-recognition/images/NTCIR-Lifelog-256/u1/2015-03-18/b00000333_21i6bq_20150318_111714e.jpg'
p5714
sg4
(lp5715
(g15
g6
(g18
S'\xee\xcd\xf0>'
p5716
tp5717
Rp5718
tp5719
a(g32
g6
(g18
S'h\xea\xc5>'
p5720
tp5721
Rp5722
tp5723
a(g92
g6
(g18
S'lH\xb6='
p5724
tp5725
Rp5726
tp5727
a(g44
g6
(g18
S'o\x9f\x00='
p5728
tp5729
Rp5730
tp5731
a(g201
g6
(g18
S'>4\x1c<'
p5732
tp5733
Rp5734
tp5735
asg73
g15
sa(dp5736
g2
S'../../../data/emanuela/activity-recognition/images/NTCIR-Lifelog-256/u1/2015-03-10/b00001877_21i6bq_20150310_102537e.jpg'
p5737
sg4
(lp5738
(g15
g6
(g18
S'\x97>g?'
p5739
tp5740
Rp5741
tp5742
a(g32
g6
(g18
S'\x15\x0b)='
p5743
tp5744
Rp5745
tp5746
a(g44
g6
(g18
S'$\xc4!='
p5747
tp5748
Rp5749
tp5750
a(g301
g6
(g18
S'\xff|\x08<'
p5751
tp5752
Rp5753
tp5754
a(g68
g6
(g18
S'\xc40\xf5:'
p5755
tp5756
Rp5757
tp5758
asg73
g15
sa(dp5759
g2
S'../../../data/emanuela/activity-recognition/images/NTCIR-Lifelog-256/u2/2015-05-07/b00008089_21i7lf_20150507_190600e.jpg'
p5760
sg4
(lp5761
(g15
g6
(g18
S'Y\xcaH?'
p5762
tp5763
Rp5764
tp5765
a(g301
g6
(g18
S'}o:>'
p5766
tp5767
Rp5768
tp5769
a(g44
g6
(g18
S'K\x12:<'
p5770
tp5771
Rp5772
tp5773
a(g32
g6
(g18
S'\x80\xe6\x03<'
p5774
tp5775
Rp5776
tp5777
a(g158
g6
(g18
S'\x07g\xfb;'
p5778
tp5779
Rp5780
tp5781
asg73
g15
sa(dp5782
g2
S'../../../data/emanuela/activity-recognition/images/NTCIR-Lifelog-256/u2/2015-04-24/b00002109_21i7lf_20150424_110027e.jpg'
p5783
sg4
(lp5784
(g15
g6
(g18
S'\xce\xdf~?'
p5785
tp5786
Rp5787
tp5788
a(g32
g6
(g18
S'}[\x89;'
p5789
tp5790
Rp5791
tp5792
a(g201
g6
(g18
S'\xf7\xcf\xd88'
p5793
tp5794
Rp5795
tp5796
a(g56
g6
(g18
S'Q\xa0\xa77'
p5797
tp5798
Rp5799
tp5800
a(g185
g6
(g18
S'I\xca\x9a7'
p5801
tp5802
Rp5803
tp5804
asg73
g15
sa(dp5805
g2
S'../../../data/emanuela/activity-recognition/images/NTCIR-Lifelog-256/u2/2015-05-07/b00007977_21i7lf_20150507_175838e.jpg'
p5806
sg4
(lp5807
(g15
g6
(g18
S'\xc4\xf5d?'
p5808
tp5809
Rp5810
tp5811
a(g44
g6
(g18
S'\x9e@D='
p5812
tp5813
Rp5814
tp5815
a(g32
g6
(g18
S'f\xbc\x0b='
p5816
tp5817
Rp5818
tp5819
a(g56
g6
(g18
S'0\xc0K<'
p5820
tp5821
Rp5822
tp5823
a(g301
g6
(g18
S'\xde\x0f\x83;'
p5824
tp5825
Rp5826
tp5827
asg73
g15
sa(dp5828
g2
S'../../../data/emanuela/activity-recognition/images/NTCIR-Lifelog-256/u1/2015-03-02/b00000613_21i6bq_20150302_133220e.jpg'
p5829
sg4
(lp5830
(g15
g6
(g18
S'\xab\x96/?'
p5831
tp5832
Rp5833
tp5834
a(g32
g6
(g18
S'0\xb0h>'
p5835
tp5836
Rp5837
tp5838
a(g301
g6
(g18
S'C\xad\xeb<'
p5839
tp5840
Rp5841
tp5842
a(g44
g6
(g18
S'\xd5:v<'
p5843
tp5844
Rp5845
tp5846
a(g158
g6
(g18
S'\xee\x95*<'
p5847
tp5848
Rp5849
tp5850
asg73
g15
sa(dp5851
g2
S'../../../data/emanuela/activity-recognition/images/NTCIR-Lifelog-256/u1/2015-03-18/b00000701_21i6bq_20150318_153233e.jpg'
p5852
sg4
(lp5853
(g15
g6
(g18
S'.Bc?'
p5854
tp5855
Rp5856
tp5857
a(g32
g6
(g18
S'\xd7\x84\xcd='
p5858
tp5859
Rp5860
tp5861
a(g56
g6
(g18
S'\xcc\x10\xa0;'
p5862
tp5863
Rp5864
tp5865
a(g44
g6
(g18
S'R\xcf\xb2:'
p5866
tp5867
Rp5868
tp5869
a(g301
g6
(g18
S'\xe10\x97:'
p5870
tp5871
Rp5872
tp5873
asg73
g15
sa(dp5874
g2
S'../../../data/emanuela/activity-recognition/images/NTCIR-Lifelog-256/u1/2015-03-05/b00000644_21i6bq_20150305_131353e.jpg'
p5875
sg4
(lp5876
(g32
g6
(g18
S'\xb2\x93K?'
p5877
tp5878
Rp5879
tp5880
a(g15
g6
(g18
S'I\xbc\xec='
p5881
tp5882
Rp5883
tp5884
a(g92
g6
(g18
S'ji\x10='
p5885
tp5886
Rp5887
tp5888
a(g44
g6
(g18
S'L\x01\xe6<'
p5889
tp5890
Rp5891
tp5892
a(g201
g6
(g18
S'`\x14\xf4;'
p5893
tp5894
Rp5895
tp5896
asg73
g15
sa(dp5897
g2
S'../../../data/emanuela/activity-recognition/images/NTCIR-Lifelog-256/u1/2015-03-10/b00000312_21i6bq_20150310_161346e.jpg'
p5898
sg4
(lp5899
(g92
g6
(g18
S'\xf8\x17\x01?'
p5900
tp5901
Rp5902
tp5903
a(g201
g6
(g18
S' +\x89>'
p5904
tp5905
Rp5906
tp5907
a(g32
g6
(g18
S'\x1b|\x05>'
p5908
tp5909
Rp5910
tp5911
a(g185
g6
(g18
S't$Q='
p5912
tp5913
Rp5914
tp5915
a(g15
g6
(g18
S'\x94f\xf9<'
p5916
tp5917
Rp5918
tp5919
asg73
g15
sa(dp5920
g2
S'../../../data/emanuela/activity-recognition/images/NTCIR-Lifelog-256/u1/2015-03-05/b00000683_21i6bq_20150305_133613e.jpg'
p5921
sg4
(lp5922
(g15
g6
(g18
S'\x8e\x1f~?'
p5923
tp5924
Rp5925
tp5926
a(g32
g6
(g18
S'\xa4\xb4\xe8;'
p5927
tp5928
Rp5929
tp5930
a(g44
g6
(g18
S'\xb5\x12\x9f8'
p5931
tp5932
Rp5933
tp5934
a(g56
g6
(g18
S'r\xad]8'
p5935
tp5936
Rp5937
tp5938
a(g158
g6
(g18
S'\xcd\x89\x178'
p5939
tp5940
Rp5941
tp5942
asg73
g15
sa(dp5943
g2
S'../../../data/emanuela/activity-recognition/images/NTCIR-Lifelog-256/u1/2015-03-12/b00000661_21i6bq_20150312_143920e.jpg'
p5944
sg4
(lp5945
(g15
g6
(g18
S'%7\xac>'
p5946
tp5947
Rp5948
tp5949
a(g185
g6
(g18
S'\x1d\xd7C>'
p5950
tp5951
Rp5952
tp5953
a(g104
g6
(g18
S'\xd7*\x08>'
p5954
tp5955
Rp5956
tp5957
a(g32
g6
(g18
S'\xd9\x7f\xe3='
p5958
tp5959
Rp5960
tp5961
a(g56
g6
(g18
S'\xa3\x81\x82='
p5962
tp5963
Rp5964
tp5965
asg73
g15
sa(dp5966
g2
S'../../../data/emanuela/activity-recognition/images/NTCIR-Lifelog-256/u1/2015-03-10/b00000165_21i6bq_20150310_143614e.jpg'
p5967
sg4
(lp5968
(g15
g6
(g18
S'q-v?'
p5969
tp5970
Rp5971
tp5972
a(g158
g6
(g18
S'%\xc9\xa7<'
p5973
tp5974
Rp5975
tp5976
a(g44
g6
(g18
S'\xd3s\x91<'
p5977
tp5978
Rp5979
tp5980
a(g32
g6
(g18
S'\x1e\xc3\xab8'
p5981
tp5982
Rp5983
tp5984
a(g301
g6
(g18
S'\xf48\xd87'
p5985
tp5986
Rp5987
tp5988
asg73
g15
sa(dp5989
g2
S'../../../data/emanuela/activity-recognition/images/NTCIR-Lifelog-256/u2/2015-04-27/b00005680_21i7lf_20150427_162532e.jpg'
p5990
sg4
(lp5991
(g15
g6
(g18
S'\xff\xb25?'
p5992
tp5993
Rp5994
tp5995
a(g32
g6
(g18
S'\xcbb\x0c>'
p5996
tp5997
Rp5998
tp5999
a(g56
g6
(g18
S'e\xc4\xd3='
p6000
tp6001
Rp6002
tp6003
a(g104
g6
(g18
S'f8\x97<'
p6004
tp6005
Rp6006
tp6007
a(g201
g6
(g18
S'\x00\xf2\x0c<'
p6008
tp6009
Rp6010
tp6011
asg73
g15
sa(dp6012
g2
S'../../../data/emanuela/activity-recognition/images/NTCIR-Lifelog-256/u1/2015-02-27/b00000320_21i6bq_20150227_102800e.jpg'
p6013
sg4
(lp6014
(g15
g6
(g18
S'>\x12\xe4>'
p6015
tp6016
Rp6017
tp6018
a(g32
g6
(g18
S'\xbdW\xcc>'
p6019
tp6020
Rp6021
tp6022
a(g92
g6
(g18
S'\xba\x1a\xd5='
p6023
tp6024
Rp6025
tp6026
a(g44
g6
(g18
S']r\x97<'
p6027
tp6028
Rp6029
tp6030
a(g201
g6
(g18
S'^V@<'
p6031
tp6032
Rp6033
tp6034
asg73
g15
sa(dp6035
g2
S'../../../data/emanuela/activity-recognition/images/NTCIR-Lifelog-256/u2/2015-04-27/b00005358_21i7lf_20150427_130453e.jpg'
p6036
sg4
(lp6037
(g15
g6
(g18
S'\xacp|?'
p6038
tp6039
Rp6040
tp6041
a(g32
g6
(g18
S'\x9da\xdb;'
p6042
tp6043
Rp6044
tp6045
a(g44
g6
(g18
S'\xc0\xec\xc4;'
p6046
tp6047
Rp6048
tp6049
a(g301
g6
(g18
S"\xc7\xf5':"
p6050
tp6051
Rp6052
tp6053
a(g56
g6
(g18
S'Z\xc4\x189'
p6054
tp6055
Rp6056
tp6057
asg73
g15
sa(dp6058
g2
S'../../../data/emanuela/activity-recognition/images/NTCIR-Lifelog-256/u1/2015-03-12/b00000381_21i6bq_20150312_111205e.jpg'
p6059
sg4
(lp6060
(g44
g6
(g18
S'\xb5\x105?'
p6061
tp6062
Rp6063
tp6064
a(g15
g6
(g18
S'\xf4\xd6j>'
p6065
tp6066
Rp6067
tp6068
a(g56
g6
(g18
S'M\x01\xd6<'
p6069
tp6070
Rp6071
tp6072
a(g32
g6
(g18
S'\xc3O\xad<'
p6073
tp6074
Rp6075
tp6076
a(g68
g6
(g18
S'\x10\xad\xc3;'
p6077
tp6078
Rp6079
tp6080
asg73
g15
sa(dp6081
g2
S'../../../data/emanuela/activity-recognition/images/NTCIR-Lifelog-256/u1/2015-02-26/b00000464_21i6bq_20150226_112311e.jpg'
p6082
sg4
(lp6083
(g15
g6
(g18
S'\xb1J\\?'
p6084
tp6085
Rp6086
tp6087
a(g32
g6
(g18
S'\xb4\x15\xca='
p6088
tp6089
Rp6090
tp6091
a(g44
g6
(g18
S'v\xd4.<'
p6092
tp6093
Rp6094
tp6095
a(g56
g6
(g18
S'H\x16\x06<'
p6096
tp6097
Rp6098
tp6099
a(g92
g6
(g18
S'\xb2l\xb9;'
p6100
tp6101
Rp6102
tp6103
asg73
g15
sa(dp6104
g2
S'../../../data/emanuela/activity-recognition/images/NTCIR-Lifelog-256/u1/2015-03-05/b00000203_21i6bq_20150305_081852e.jpg'
p6105
sg4
(lp6106
(g15
g6
(g18
S'\xe5\xebv?'
p6107
tp6108
Rp6109
tp6110
a(g32
g6
(g18
S'\xfb+\x00='
p6111
tp6112
Rp6113
tp6114
a(g56
g6
(g18
S'%\x12\xad:'
p6115
tp6116
Rp6117
tp6118
a(g104
g6
(g18
S'\xb1\x0by:'
p6119
tp6120
Rp6121
tp6122
a(g301
g6
(g18
S'\x10\xdb\xc49'
p6123
tp6124
Rp6125
tp6126
asg73
g15
sa(dp6127
g2
S'../../../data/emanuela/activity-recognition/images/NTCIR-Lifelog-256/u2/2015-05-07/b00008128_21i7lf_20150507_193052e.jpg'
p6128
sg4
(lp6129
(g301
g6
(g18
S'n\\n?'
p6130
tp6131
Rp6132
tp6133
a(g15
g6
(g18
S'\x9b!V='
p6134
tp6135
Rp6136
tp6137
a(g32
g6
(g18
S'\xd0\x9c{;'
p6138
tp6139
Rp6140
tp6141
a(g158
g6
(g18
S'\x84\xd8p;'
p6142
tp6143
Rp6144
tp6145
a(g68
g6
(g18
S'\xe5\xd4_;'
p6146
tp6147
Rp6148
tp6149
asg73
g15
sa(dp6150
g2
S'../../../data/emanuela/activity-recognition/images/NTCIR-Lifelog-256/u1/2015-03-11/b00000986_21i6bq_20150311_171318e.jpg'
p6151
sg4
(lp6152
(g15
g6
(g18
S'\x8f\x17a?'
p6153
tp6154
Rp6155
tp6156
a(g44
g6
(g18
S'c4\xb2='
p6157
tp6158
Rp6159
tp6160
a(g32
g6
(g18
S'\x93\xab\xb9<'
p6161
tp6162
Rp6163
tp6164
a(g92
g6
(g18
S'\xaf\x97h;'
p6165
tp6166
Rp6167
tp6168
a(g201
g6
(g18
S'\x86\xda1;'
p6169
tp6170
Rp6171
tp6172
asg73
g15
sa(dp6173
g2
S'../../../data/emanuela/activity-recognition/images/NTCIR-Lifelog-256/u2/2015-05-06/b00006943_21i7lf_20150506_160323e.jpg'
p6174
sg4
(lp6175
(g15
g6
(g18
S'\xd4\xa7T?'
p6176
tp6177
Rp6178
tp6179
a(g32
g6
(g18
S'\xb6\x0e!>'
p6180
tp6181
Rp6182
tp6183
a(g201
g6
(g18
S'q4\x82;'
p6184
tp6185
Rp6186
tp6187
a(g92
g6
(g18
S'#P2;'
p6188
tp6189
Rp6190
tp6191
a(g185
g6
(g18
S'\xd1\x1a0;'
p6192
tp6193
Rp6194
tp6195
asg73
g15
sa(dp6196
g2
S'../../../data/emanuela/activity-recognition/images/NTCIR-Lifelog-256/u2/2015-05-06/b00006912_21i7lf_20150506_154251e.jpg'
p6197
sg4
(lp6198
(g15
g6
(g18
S'\x8b;\x7f?'
p6199
tp6200
Rp6201
tp6202
a(g32
g6
(g18
S'\xd0\xa07;'
p6203
tp6204
Rp6205
tp6206
a(g301
g6
(g18
S'\x168\xaa8'
p6207
tp6208
Rp6209
tp6210
a(g158
g6
(g18
S'\xd3\x0238'
p6211
tp6212
Rp6213
tp6214
a(g44
g6
(g18
S"\x9f'\x0f8"
p6215
tp6216
Rp6217
tp6218
asg73
g15
sa(dp6219
g2
S'../../../data/emanuela/activity-recognition/images/NTCIR-Lifelog-256/u1/2015-03-10/b00001926_21i6bq_20150310_105551e.jpg'
p6220
sg4
(lp6221
(g15
g6
(g18
S'\xe2%i?'
p6222
tp6223
Rp6224
tp6225
a(g301
g6
(g18
S'2\xa1}='
p6226
tp6227
Rp6228
tp6229
a(g158
g6
(g18
S'yi\x01<'
p6230
tp6231
Rp6232
tp6233
a(g44
g6
(g18
S'\xa1\x81\xf8;'
p6234
tp6235
Rp6236
tp6237
a(g696
g6
(g18
S'\xdf5\xc1;'
p6238
tp6239
Rp6240
tp6241
asg73
g15
sa(dp6242
g2
S'../../../data/emanuela/activity-recognition/images/NTCIR-Lifelog-256/u2/2015-04-27/b00005274_21i7lf_20150427_121319e.jpg'
p6243
sg4
(lp6244
(g15
g6
(g18
S'\xc6P@?'
p6245
tp6246
Rp6247
tp6248
a(g56
g6
(g18
S'J\x17\xb1='
p6249
tp6250
Rp6251
tp6252
a(g68
g6
(g18
S'\xa9t"='
p6253
tp6254
Rp6255
tp6256
a(g44
g6
(g18
S'\xf8c\xf9<'
p6257
tp6258
Rp6259
tp6260
a(g301
g6
(g18
S'\xd8\x98\xc5<'
p6261
tp6262
Rp6263
tp6264
asg73
g15
sa(dp6265
g2
S'../../../data/emanuela/activity-recognition/images/NTCIR-Lifelog-256/u1/2015-03-10/b00000154_21i6bq_20150310_142830e.jpg'
p6266
sg4
(lp6267
(g44
g6
(g18
S'\xd8tR?'
p6268
tp6269
Rp6270
tp6271
a(g15
g6
(g18
S'w\x05\xb0='
p6272
tp6273
Rp6274
tp6275
a(g32
g6
(g18
S'\xbe\xb7p='
p6276
tp6277
Rp6278
tp6279
a(g92
g6
(g18
S'\xf0\xf5\xc5<'
p6280
tp6281
Rp6282
tp6283
a(g1713
g6
(g18
S'\xd8"\x10;'
p6284
tp6285
Rp6286
tp6287
asg73
g15
sa(dp6288
g2
S'../../../data/emanuela/activity-recognition/images/NTCIR-Lifelog-256/u2/2015-04-22/b00000105_21i7lf_20150422_134936e.jpg'
p6289
sg4
(lp6290
(g15
g6
(g18
S'\xe97{?'
p6291
tp6292
Rp6293
tp6294
a(g301
g6
(g18
S'\xae\xd1\xc7;'
p6295
tp6296
Rp6297
tp6298
a(g32
g6
(g18
S'\xbf\xaa\x94;'
p6299
tp6300
Rp6301
tp6302
a(g44
g6
(g18
S'\xfd\xab\x86;'
p6303
tp6304
Rp6305
tp6306
a(g68
g6
(g18
S'?\xf6\xb8:'
p6307
tp6308
Rp6309
tp6310
asg73
g15
sa(dp6311
g2
S'../../../data/emanuela/activity-recognition/images/NTCIR-Lifelog-256/u1/2015-03-12/b00000689_21i6bq_20150312_145630e.jpg'
p6312
sg4
(lp6313
(g15
g6
(g18
S'e\x93X?'
p6314
tp6315
Rp6316
tp6317
a(g32
g6
(g18
S'Ku\x89='
p6318
tp6319
Rp6320
tp6321
a(g185
g6
(g18
S'\x0c~\xee<'
p6322
tp6323
Rp6324
tp6325
a(g56
g6
(g18
S'\x1cG\xa1<'
p6326
tp6327
Rp6328
tp6329
a(g201
g6
(g18
S'v\xe1(<'
p6330
tp6331
Rp6332
tp6333
asg73
g15
sa(dp6334
g2
S'../../../data/emanuela/activity-recognition/images/NTCIR-Lifelog-256/u2/2015-05-06/b00006634_21i7lf_20150506_124826e.jpg'
p6335
sg4
(lp6336
(g44
g6
(g18
S'\x1az\xb5>'
p6337
tp6338
Rp6339
tp6340
a(g32
g6
(g18
S'%n\x9d>'
p6341
tp6342
Rp6343
tp6344
a(g15
g6
(g18
S'v5M>'
p6345
tp6346
Rp6347
tp6348
a(g92
g6
(g18
S'"\xfct='
p6349
tp6350
Rp6351
tp6352
a(g104
g6
(g18
S"'>\xce<"
p6353
tp6354
Rp6355
tp6356
asg73
g15
sa(dp6357
g2
S'../../../data/emanuela/activity-recognition/images/NTCIR-Lifelog-256/u1/2015-03-11/b00000835_21i6bq_20150311_153049e.jpg'
p6358
sg4
(lp6359
(g15
g6
(g18
S'g\xb3Q?'
p6360
tp6361
Rp6362
tp6363
a(g32
g6
(g18
S'!\xdb\x99='
p6364
tp6365
Rp6366
tp6367
a(g201
g6
(g18
S'\xaa\x8eC='
p6368
tp6369
Rp6370
tp6371
a(g92
g6
(g18
S'?\xfd\xa7<'
p6372
tp6373
Rp6374
tp6375
a(g56
g6
(g18
S'\xdd0\xf1;'
p6376
tp6377
Rp6378
tp6379
asg73
g15
sa(dp6380
g2
S'../../../data/emanuela/activity-recognition/images/NTCIR-Lifelog-256/u2/2015-04-22/b00000098_21i7lf_20150422_134515e.jpg'
p6381
sg4
(lp6382
(g15
g6
(g18
S'`ia?'
p6383
tp6384
Rp6385
tp6386
a(g1713
g6
(g18
S'\xddY-='
p6387
tp6388
Rp6389
tp6390
a(g44
g6
(g18
S'\xabI\xab<'
p6391
tp6392
Rp6393
tp6394
a(g68
g6
(g18
S'g\xa9\xa8<'
p6395
tp6396
Rp6397
tp6398
a(g185
g6
(g18
S'\xa7\xc2Q<'
p6399
tp6400
Rp6401
tp6402
asg73
g15
sa(dp6403
g2
S'../../../data/emanuela/activity-recognition/images/NTCIR-Lifelog-256/u2/2015-05-08/b00008737_21i7lf_20150508_095725e.jpg'
p6404
sg4
(lp6405
(g68
g6
(g18
S"\xcc'\xa6>"
p6406
tp6407
Rp6408
tp6409
a(g6
(g7
(S'S19'
p6410
I0
I1
tp6411
Rp6412
(I3
S'|'
p6413
NNNI19
I1
I0
tp6414
bS'cleaning and chores'
p6415
tp6416
Rp6417
g6
(g18
S'\xd7\x02r>'
p6418
tp6419
Rp6420
tp6421
a(g15
g6
(g18
S'\xd0\x97\x18>'
p6422
tp6423
Rp6424
tp6425
a(g32
g6
(g18
S'\xdaDn='
p6426
tp6427
Rp6428
tp6429
a(g696
g6
(g18
S'\xbc=(='
p6430
tp6431
Rp6432
tp6433
asg73
g15
sa.