(lp0
(dp1
S'image'
p2
S'../../../data/emanuela/activity-recognition/images/NTCIR-Lifelog-256/u2/2015-05-07/b00007716_21i7lf_20150507_151807e.jpg'
p3
sS'result'
p4
(lp5
(cnumpy.core.multiarray
scalar
p6
(cnumpy
dtype
p7
(S'S7'
p8
I0
I1
tp9
Rp10
(I3
S'|'
p11
NNNI7
I1
I0
tp12
bS'reading'
p13
tp14
Rp15
g6
(g7
(S'f4'
p16
I0
I1
tp17
Rp18
(I3
S'<'
p19
NNNI-1
I-1
I0
tp20
bS'\x99\xc0L?'
p21
tp22
Rp23
tp24
a(g6
(g7
(S'S7'
p25
I0
I1
tp26
Rp27
(I3
S'|'
p28
NNNI7
I1
I0
tp29
bS'working'
p30
tp31
Rp32
g6
(g18
S'\x88\x99\xf0='
p33
tp34
Rp35
tp36
a(g6
(g7
(S'S14'
p37
I0
I1
tp38
Rp39
(I3
S'|'
p40
NNNI14
I1
I0
tp41
bS'walking indoor'
p42
tp43
Rp44
g6
(g18
S'\xeda\xbe<'
p45
tp46
Rp47
tp48
a(g6
(g7
(S'S7'
p49
I0
I1
tp50
Rp51
(I3
S'|'
p52
NNNI7
I1
I0
tp53
bS'meeting'
p54
tp55
Rp56
g6
(g18
S'u\xca\xbc<'
p57
tp58
Rp59
tp60
a(g6
(g7
(S'S7'
p61
I0
I1
tp62
Rp63
(I3
S'|'
p64
NNNI7
I1
I0
tp65
bS'talking'
p66
tp67
Rp68
g6
(g18
S'\xf4\x18\x81<'
p69
tp70
Rp71
tp72
asS'label'
p73
g15
sa(dp74
g2
S'../../../data/emanuela/activity-recognition/images/NTCIR-Lifelog-256/u2/2015-04-27/b00005530_21i7lf_20150427_145505e.jpg'
p75
sg4
(lp76
(g15
g6
(g18
S'\xdf\xc1z?'
p77
tp78
Rp79
tp80
a(g32
g6
(g18
S't\x96\xa4<'
p81
tp82
Rp83
tp84
a(g6
(g7
(S'S19'
p85
I0
I1
tp86
Rp87
(I3
S'|'
p88
NNNI19
I1
I0
tp89
bS'attending a seminar'
p90
tp91
Rp92
g6
(g18
S'\xc0\xb3\xae9'
p93
tp94
Rp95
tp96
a(g6
(g7
(S'S24'
p97
I0
I1
tp98
Rp99
(I3
S'|'
p100
NNNI24
I1
I0
tp101
bS'having drinks/meal alone'
p102
tp103
Rp104
g6
(g18
S'3\n\xb77'
p105
tp106
Rp107
tp108
a(g56
g6
(g18
S'\xde\xb5\x187'
p109
tp110
Rp111
tp112
asg73
g15
sa(dp113
g2
S'../../../data/emanuela/activity-recognition/images/NTCIR-Lifelog-256/u1/2015-03-19/b00002280_21i6bq_20150319_143909e.jpg'
p114
sg4
(lp115
(g15
g6
(g18
S'\x02\xfc|?'
p116
tp117
Rp118
tp119
a(g32
g6
(g18
S'0I\xe5;'
p120
tp121
Rp122
tp123
a(g56
g6
(g18
S'\xe0\x0c\xe5:'
p124
tp125
Rp126
tp127
a(g6
(g7
(S'S5'
p128
I0
I1
tp129
Rp130
(I3
S'|'
p131
NNNI5
I1
I0
tp132
bS'plane'
p133
tp134
Rp135
g6
(g18
S'\xcc._:'
p136
tp137
Rp138
tp139
a(g6
(g7
(S'S16'
p140
I0
I1
tp141
Rp142
(I3
S'|'
p143
NNNI16
I1
I0
tp144
bS'public transport'
p145
tp146
Rp147
g6
(g18
S'9\xc7\xda9'
p148
tp149
Rp150
tp151
asg73
g15
sa(dp152
g2
S'../../../data/emanuela/activity-recognition/images/NTCIR-Lifelog-256/u1/2015-03-08/b00001169_21i6bq_20150308_214957e.jpg'
p153
sg4
(lp154
(g15
g6
(g18
S'\xa9\xbe\xb9>'
p155
tp156
Rp157
tp158
a(g6
(g7
(S'S15'
p159
I0
I1
tp160
Rp161
(I3
S'|'
p162
NNNI15
I1
I0
tp163
bS'walking outdoor'
p164
tp165
Rp166
g6
(g18
S'\xb6\xdex>'
p167
tp168
Rp169
tp170
a(g6
(g7
(S'S7'
p171
I0
I1
tp172
Rp173
(I3
S'|'
p174
NNNI7
I1
I0
tp175
bS'resting'
p176
tp177
Rp178
g6
(g18
S'\xdf\x8c\x03>'
p179
tp180
Rp181
tp182
a(g6
(g7
(S'S7'
p183
I0
I1
tp184
Rp185
(I3
S'|'
p186
NNNI7
I1
I0
tp187
bS'driving'
p188
tp189
Rp190
g6
(g18
S'e \xd3='
p191
tp192
Rp193
tp194
a(g68
g6
(g18
S'x\rq='
p195
tp196
Rp197
tp198
asg73
g15
sa(dp199
g2
S'../../../data/emanuela/activity-recognition/images/NTCIR-Lifelog-256/u1/2015-03-19/b00002306_21i6bq_20150319_145454e.jpg'
p200
sg4
(lp201
(g15
g6
(g18
S'\tri?'
p202
tp203
Rp204
tp205
a(g135
g6
(g18
S'\xd0#\xb1='
p206
tp207
Rp208
tp209
a(g147
g6
(g18
S'\xa9\xef$:'
p210
tp211
Rp212
tp213
a(g32
g6
(g18
S'\xf2\x04\xd49'
p214
tp215
Rp216
tp217
a(g6
(g7
(S'S8'
p218
I0
I1
tp219
Rp220
(I3
S'|'
p221
NNNI8
I1
I0
tp222
bS'shopping'
p223
tp224
Rp225
g6
(g18
S'\x8a5#9'
p226
tp227
Rp228
tp229
asg73
g15
sa(dp230
g2
S'../../../data/emanuela/activity-recognition/images/NTCIR-Lifelog-256/u1/2015-03-16/b00002515_21i6bq_20150316_164808e.jpg'
p231
sg4
(lp232
(g15
g6
(g18
S'\x9e\xc2m?'
p233
tp234
Rp235
tp236
a(g135
g6
(g18
S'D.\x1a='
p237
tp238
Rp239
tp240
a(g147
g6
(g18
S'\xb5u\xfd;'
p241
tp242
Rp243
tp244
a(g6
(g7
(S'S19'
p245
I0
I1
tp246
Rp247
(I3
S'|'
p248
NNNI19
I1
I0
tp249
bS'cleaning and chores'
p250
tp251
Rp252
g6
(g18
S'\xa0\xf9\xca;'
p253
tp254
Rp255
tp256
a(g6
(g7
(S'S6'
p257
I0
I1
tp258
Rp259
(I3
S'|'
p260
NNNI6
I1
I0
tp261
bS'mobile'
p262
tp263
Rp264
g6
(g18
S'A\xd9\x91;'
p265
tp266
Rp267
tp268
asg73
g15
sa(dp269
g2
S'../../../data/emanuela/activity-recognition/images/NTCIR-Lifelog-256/u1/2015-02-25/b00001410_21i6bq_20150225_203729e.jpg'
p270
sg4
(lp271
(g15
g6
(g18
S'\xed\x9f4?'
p272
tp273
Rp274
tp275
a(g178
g6
(g18
S'\n\xb9\x88>'
p276
tp277
Rp278
tp279
a(g6
(g7
(S'S2'
p280
I0
I1
tp281
Rp282
(I3
S'|'
p283
NNNI2
I1
I0
tp284
bS'tv'
p285
tp286
Rp287
g6
(g18
S'\x7f\n\xf6;'
p288
tp289
Rp290
tp291
a(g264
g6
(g18
S'\x08\x93\xb6;'
p292
tp293
Rp294
tp295
a(g104
g6
(g18
S'\x807\xa6;'
p296
tp297
Rp298
tp299
asg73
g15
sa(dp300
g2
S'../../../data/emanuela/activity-recognition/images/NTCIR-Lifelog-256/u2/2015-04-27/b00005446_21i7lf_20150427_140132e.jpg'
p301
sg4
(lp302
(g15
g6
(g18
S'\x87\x8by?'
p303
tp304
Rp305
tp306
a(g32
g6
(g18
S'\xe7\n\x80<'
p307
tp308
Rp309
tp310
a(g56
g6
(g18
S'\xac\x92v;'
p311
tp312
Rp313
tp314
a(g92
g6
(g18
S'.\x1eH;'
p315
tp316
Rp317
tp318
a(g104
g6
(g18
S'\x02\xa2\xb3:'
p319
tp320
Rp321
tp322
asg73
g15
sa(dp323
g2
S'../../../data/emanuela/activity-recognition/images/NTCIR-Lifelog-256/u2/2015-04-27/b00005554_21i7lf_20150427_150929e.jpg'
p324
sg4
(lp325
(g15
g6
(g18
S'\xed\xa2}?'
p326
tp327
Rp328
tp329
a(g56
g6
(g18
S'\x0bgl;'
p330
tp331
Rp332
tp333
a(g32
g6
(g18
S'\x1ei);'
p334
tp335
Rp336
tp337
a(g92
g6
(g18
S'\xce\xb6\x16;'
p338
tp339
Rp340
tp341
a(g104
g6
(g18
S'\xbf\x80e9'
p342
tp343
Rp344
tp345
asg73
g15
sa(dp346
g2
S'../../../data/emanuela/activity-recognition/images/NTCIR-Lifelog-256/u1/2015-03-06/b00001600_21i6bq_20150306_215513e.jpg'
p347
sg4
(lp348
(g15
g6
(g18
S'\xcb\xc5\x7f?'
p349
tp350
Rp351
tp352
a(g92
g6
(g18
S'\xb7\xc2\xa19'
p353
tp354
Rp355
tp356
a(g166
g6
(g18
S'yl\xa09'
p357
tp358
Rp359
tp360
a(g56
g6
(g18
S'\xf3$\xb68'
p361
tp362
Rp363
tp364
a(g44
g6
(g18
S'u\xe1@8'
p365
tp366
Rp367
tp368
asg73
g15
sa(dp369
g2
S'../../../data/emanuela/activity-recognition/images/NTCIR-Lifelog-256/u1/2015-02-25/b00001412_21i6bq_20150225_203837e.jpg'
p370
sg4
(lp371
(g15
g6
(g18
S'\x19\xf3\x7f?'
p372
tp373
Rp374
tp375
a(g264
g6
(g18
S'\xb8,D8'
p376
tp377
Rp378
tp379
a(g178
g6
(g18
S'\x08~\xfb7'
p380
tp381
Rp382
tp383
a(g92
g6
(g18
S's\xaf\xbc7'
p384
tp385
Rp386
tp387
a(g104
g6
(g18
S'\xf9av7'
p388
tp389
Rp390
tp391
asg73
g15
sa(dp392
g2
S'../../../data/emanuela/activity-recognition/images/NTCIR-Lifelog-256/u2/2015-04-20/b00000531_21i7lf_20150420_151210e.jpg'
p393
sg4
(lp394
(g15
g6
(g18
S'i7{?'
p395
tp396
Rp397
tp398
a(g166
g6
(g18
S'+W\x9d;'
p399
tp400
Rp401
tp402
a(g178
g6
(g18
S'`\xf6\xf3:'
p403
tp404
Rp405
tp406
a(g56
g6
(g18
S'\xa2\xb5\xec:'
p407
tp408
Rp409
tp410
a(g92
g6
(g18
S'\x93F\xcd:'
p411
tp412
Rp413
tp414
asg73
g15
sa(dp415
g2
S'../../../data/emanuela/activity-recognition/images/NTCIR-Lifelog-256/u1/2015-02-25/b00000178_21i6bq_20150225_075027e.jpg'
p416
sg4
(lp417
(g15
g6
(g18
S'_\xdd\x7f?'
p418
tp419
Rp420
tp421
a(g166
g6
(g18
S'.4\x169'
p422
tp423
Rp424
tp425
a(g56
g6
(g18
S'\xe9\xc3\xf48'
p426
tp427
Rp428
tp429
a(g44
g6
(g18
S'\xcc\xd7\xce8'
p430
tp431
Rp432
tp433
a(g92
g6
(g18
S'+\xaf@8'
p434
tp435
Rp436
tp437
asg73
g15
sa(dp438
g2
S'../../../data/emanuela/activity-recognition/images/NTCIR-Lifelog-256/u1/2015-02-25/b00000198_21i6bq_20150225_080556e.jpg'
p439
sg4
(lp440
(g15
g6
(g18
S'\x10\x05\x0e?'
p441
tp442
Rp443
tp444
a(g178
g6
(g18
S'\xb3\x8a\x00>'
p445
tp446
Rp447
tp448
a(g32
g6
(g18
S'(=\x88='
p449
tp450
Rp451
tp452
a(g92
g6
(g18
S'l=\x0f='
p453
tp454
Rp455
tp456
a(g252
g6
(g18
S'n\xc2\r='
p457
tp458
Rp459
tp460
asg73
g15
sa(dp461
g2
S'../../../data/emanuela/activity-recognition/images/NTCIR-Lifelog-256/u2/2015-04-20/b00000517_21i7lf_20150420_150351e.jpg'
p462
sg4
(lp463
(g15
g6
(g18
S'\t\x9a~?'
p464
tp465
Rp466
tp467
a(g92
g6
(g18
S'W\xa1,;'
p468
tp469
Rp470
tp471
a(g56
g6
(g18
S'\x8e\x03\xa2:'
p472
tp473
Rp474
tp475
a(g6
(g7
(S'S11'
p476
I0
I1
tp477
Rp478
(I3
S'|'
p479
NNNI11
I1
I0
tp480
bS'socializing'
p481
tp482
Rp483
g6
(g18
S'\x14\x9a>:'
p484
tp485
Rp486
tp487
a(g6
(g7
(S'S25'
p488
I0
I1
tp489
Rp490
(I3
S'|'
p491
NNNI25
I1
I0
tp492
bS'having meal with somebody'
p493
tp494
Rp495
g6
(g18
S'\xce\x98\x959'
p496
tp497
Rp498
tp499
asg73
g15
sa(dp500
g2
S'../../../data/emanuela/activity-recognition/images/NTCIR-Lifelog-256/u1/2015-03-07/b00000113_21i6bq_20150307_082946e.jpg'
p501
sg4
(lp502
(g15
g6
(g18
S'\xb4\xc8\x7f?'
p503
tp504
Rp505
tp506
a(g92
g6
(g18
S'\xafK\xab9'
p507
tp508
Rp509
tp510
a(g56
g6
(g18
S'Aq\x129'
p511
tp512
Rp513
tp514
a(g68
g6
(g18
S'\x8e\xde\xbe8'
p515
tp516
Rp517
tp518
a(g483
g6
(g18
S'\x1f\xad|8'
p519
tp520
Rp521
tp522
asg73
g15
sa(dp523
g2
S'../../../data/emanuela/activity-recognition/images/NTCIR-Lifelog-256/u1/2015-03-01/b00001271_21i6bq_20150301_193826e.jpg'
p524
sg4
(lp525
(g15
g6
(g18
S'}\xdd\x7f?'
p526
tp527
Rp528
tp529
a(g92
g6
(g18
S'[\x17\xc89'
p530
tp531
Rp532
tp533
a(g56
g6
(g18
S'\x1a/\xa38'
p534
tp535
Rp536
tp537
a(g32
g6
(g18
S'\xa4^\t8'
p538
tp539
Rp540
tp541
a(g483
g6
(g18
S'\x8d/\x1c7'
p542
tp543
Rp544
tp545
asg73
g15
sa(dp546
g2
S'../../../data/emanuela/activity-recognition/images/NTCIR-Lifelog-256/u1/2015-02-25/b00000169_21i6bq_20150225_074457e.jpg'
p547
sg4
(lp548
(g178
g6
(g18
S'\xbb\x98\xa5>'
p549
tp550
Rp551
tp552
a(g15
g6
(g18
S'&\x80\x18>'
p553
tp554
Rp555
tp556
a(g104
g6
(g18
S'\xdd\xa6\xb0='
p557
tp558
Rp559
tp560
a(g287
g6
(g18
S'\xe7\x02\x96='
p561
tp562
Rp563
tp564
a(g483
g6
(g18
S'\xde\x0c\x95='
p565
tp566
Rp567
tp568
asg73
g15
sa(dp569
g2
S'../../../data/emanuela/activity-recognition/images/NTCIR-Lifelog-256/u2/2015-05-03/b00003651_21i7lf_20150503_132506e.jpg'
p570
sg4
(lp571
(g15
g6
(g18
S'^\xc4\t?'
p572
tp573
Rp574
tp575
a(g32
g6
(g18
S'}\x12\x80>'
p576
tp577
Rp578
tp579
a(g56
g6
(g18
S'|\x8d\t>'
p580
tp581
Rp582
tp583
a(g264
g6
(g18
S'\x03\xeb\x87<'
p584
tp585
Rp586
tp587
a(g104
g6
(g18
S'\xa2`r<'
p588
tp589
Rp590
tp591
asg73
g15
sa(dp592
g2
S'../../../data/emanuela/activity-recognition/images/NTCIR-Lifelog-256/u1/2015-03-06/b00000525_21i6bq_20150306_110029e.jpg'
p593
sg4
(lp594
(g495
g6
(g18
S'\xfd\x01C?'
p595
tp596
Rp597
tp598
a(g68
g6
(g18
S'\xca,8>'
p599
tp600
Rp601
tp602
a(g15
g6
(g18
S'\xce3\x84<'
p603
tp604
Rp605
tp606
a(g483
g6
(g18
S'\xda\x15i<'
p607
tp608
Rp609
tp610
a(g6
(g7
(S'S27'
p611
I0
I1
tp612
Rp613
(I3
S'|'
p614
NNNI27
I1
I0
tp615
bS'having drinks with somebody'
p616
tp617
Rp618
g6
(g18
S'\x9e\xd28<'
p619
tp620
Rp621
tp622
asg73
g15
sa(dp623
g2
S'../../../data/emanuela/activity-recognition/images/NTCIR-Lifelog-256/u1/2015-02-25/b00001538_21i6bq_20150225_214953e.jpg'
p624
sg4
(lp625
(g15
g6
(g18
S'\xdb\xbcw?'
p626
tp627
Rp628
tp629
a(g178
g6
(g18
S'5\xd0\xba<'
p630
tp631
Rp632
tp633
a(g44
g6
(g18
S'\xeb\x10\x0c;'
p634
tp635
Rp636
tp637
a(g264
g6
(g18
S'KN\xe7:'
p638
tp639
Rp640
tp641
a(g56
g6
(g18
S'\xb0=\xd4:'
p642
tp643
Rp644
tp645
asg73
g15
sa(dp646
g2
S'../../../data/emanuela/activity-recognition/images/NTCIR-Lifelog-256/u1/2015-02-26/b00001448_21i6bq_20150226_231607e.jpg'
p647
sg4
(lp648
(g15
g6
(g18
S'_Hi?'
p649
tp650
Rp651
tp652
a(g68
g6
(g18
S'\xd5\xda`<'
p653
tp654
Rp655
tp656
a(g483
g6
(g18
S'\x87H`<'
p657
tp658
Rp659
tp660
a(g178
g6
(g18
S'^U\x0b<'
p661
tp662
Rp663
tp664
a(g264
g6
(g18
S'\x96\x94\x04<'
p665
tp666
Rp667
tp668
asg73
g15
sa(dp669
g2
S'../../../data/emanuela/activity-recognition/images/NTCIR-Lifelog-256/u1/2015-03-16/b00002416_21i6bq_20150316_155013e.jpg'
p670
sg4
(lp671
(g15
g6
(g18
S'\xd7\xc1\x7f?'
p672
tp673
Rp674
tp675
a(g56
g6
(g18
S'\x8c\x8d\x0e:'
p676
tp677
Rp678
tp679
a(g92
g6
(g18
S'\xbe~\x839'
p680
tp681
Rp682
tp683
a(g32
g6
(g18
S'b\x9d\xb38'
p684
tp685
Rp686
tp687
a(g264
g6
(g18
S'Jq\x9d7'
p688
tp689
Rp690
tp691
asg73
g15
sa(dp692
g2
S'../../../data/emanuela/activity-recognition/images/NTCIR-Lifelog-256/u1/2015-02-25/b00000298_21i6bq_20150225_090402e.jpg'
p693
sg4
(lp694
(g15
g6
(g18
S'|/l?'
p695
tp696
Rp697
tp698
a(g44
g6
(g18
S'\xb3P\x11='
p699
tp700
Rp701
tp702
a(g166
g6
(g18
S'\xd5:5<'
p703
tp704
Rp705
tp706
a(g56
g6
(g18
S'p\xf2\x0b<'
p707
tp708
Rp709
tp710
a(g104
g6
(g18
S'\x9b\x99\xcd;'
p711
tp712
Rp713
tp714
asg73
g15
sa(dp715
g2
S'../../../data/emanuela/activity-recognition/images/NTCIR-Lifelog-256/u1/2015-02-25/b00000177_21i6bq_20150225_074947e.jpg'
p716
sg4
(lp717
(g178
g6
(g18
S'7-\xb3>'
p718
tp719
Rp720
tp721
a(g68
g6
(g18
S'Pw\x9c>'
p722
tp723
Rp724
tp725
a(g483
g6
(g18
S'{\xb3\xfc='
p726
tp727
Rp728
tp729
a(g44
g6
(g18
S'o\xe8\x83='
p730
tp731
Rp732
tp733
a(g104
g6
(g18
S'\xe5\xaa\t='
p734
tp735
Rp736
tp737
asg73
g15
sa(dp738
g2
S'../../../data/emanuela/activity-recognition/images/NTCIR-Lifelog-256/u1/2015-02-26/b00001423_21i6bq_20150226_225702e.jpg'
p739
sg4
(lp740
(g15
g6
(g18
S'\xfe\x8c\x7f?'
p741
tp742
Rp743
tp744
a(g264
g6
(g18
S'\x7f?\xea9'
p745
tp746
Rp747
tp748
a(g166
g6
(g18
S'\x0c\xbc\xab9'
p749
tp750
Rp751
tp752
a(g92
g6
(g18
S'+L\x839'
p753
tp754
Rp755
tp756
a(g190
g6
(g18
S'\xff\xa0\x809'
p757
tp758
Rp759
tp760
asg73
g15
sa(dp761
g2
S'../../../data/emanuela/activity-recognition/images/NTCIR-Lifelog-256/u1/2015-02-26/b00001417_21i6bq_20150226_225116e.jpg'
p762
sg4
(lp763
(g15
g6
(g18
S'\xa1\xed\x7f?'
p764
tp765
Rp766
tp767
a(g92
g6
(g18
S'\x9c8\xba8'
p768
tp769
Rp770
tp771
a(g178
g6
(g18
S'\x9dS\x1e8'
p772
tp773
Rp774
tp775
a(g56
g6
(g18
S'3|\xd87'
p776
tp777
Rp778
tp779
a(g68
g6
(g18
S'\x9eO\xbb7'
p780
tp781
Rp782
tp783
asg73
g15
sa(dp784
g2
S'../../../data/emanuela/activity-recognition/images/NTCIR-Lifelog-256/u2/2015-04-20/b00000573_21i7lf_20150420_153817e.jpg'
p785
sg4
(lp786
(g15
g6
(g18
S'u\xaa\x7f?'
p787
tp788
Rp789
tp790
a(g92
g6
(g18
S'\xc1\xe8\x0b:'
p791
tp792
Rp793
tp794
a(g483
g6
(g18
S'\x8b\xc3\x829'
p795
tp796
Rp797
tp798
a(g166
g6
(g18
S'\xecP\x029'
p799
tp800
Rp801
tp802
a(g56
g6
(g18
S'gD\xdd8'
p803
tp804
Rp805
tp806
asg73
g15
sa(dp807
g2
S'../../../data/emanuela/activity-recognition/images/NTCIR-Lifelog-256/u1/2015-02-25/b00000308_21i6bq_20150225_091035e.jpg'
p808
sg4
(lp809
(g104
g6
(g18
S'\x94?\x9c>'
p810
tp811
Rp812
tp813
a(g15
g6
(g18
S'9,\x92>'
p814
tp815
Rp816
tp817
a(g252
g6
(g18
S'n\x05\xc5='
p818
tp819
Rp820
tp821
a(g44
g6
(g18
S'\xcc\x19\x87='
p822
tp823
Rp824
tp825
a(g495
g6
(g18
S'Q\x8aQ='
p826
tp827
Rp828
tp829
asg73
g15
sa(dp830
g2
S'../../../data/emanuela/activity-recognition/images/NTCIR-Lifelog-256/u1/2015-03-02/b00001260_21i6bq_20150302_202523e.jpg'
p831
sg4
(lp832
(g15
g6
(g18
S'y_\x7f?'
p833
tp834
Rp835
tp836
a(g92
g6
(g18
S'\xb2\xce\x93:'
p837
tp838
Rp839
tp840
a(g56
g6
(g18
S'!\xe9\x8b:'
p841
tp842
Rp843
tp844
a(g32
g6
(g18
S'S(g8'
p845
tp846
Rp847
tp848
a(g495
g6
(g18
S'(\xaeS8'
p849
tp850
Rp851
tp852
asg73
g15
sa(dp853
g2
S'../../../data/emanuela/activity-recognition/images/NTCIR-Lifelog-256/u2/2015-04-20/b00000526_21i7lf_20150420_150907e.jpg'
p854
sg4
(lp855
(g15
g6
(g18
S'g\xc5\x7f?'
p856
tp857
Rp858
tp859
a(g92
g6
(g18
S'J\x92\x849'
p860
tp861
Rp862
tp863
a(g166
g6
(g18
S'XD/9'
p864
tp865
Rp866
tp867
a(g264
g6
(g18
S'\xff\xc1\x009'
p868
tp869
Rp870
tp871
a(g32
g6
(g18
S'\x08d\xbc8'
p872
tp873
Rp874
tp875
asg73
g15
sa(dp876
g2
S'../../../data/emanuela/activity-recognition/images/NTCIR-Lifelog-256/u1/2015-03-19/b00002294_21i6bq_20150319_144743e.jpg'
p877
sg4
(lp878
(g15
g6
(g18
S'\xacj}?'
p879
tp880
Rp881
tp882
a(g135
g6
(g18
S'[\x90"<'
p883
tp884
Rp885
tp886
a(g32
g6
(g18
S'\xeb\x10\xd78'
p887
tp888
Rp889
tp890
a(g147
g6
(g18
S'\xf1\xffR8'
p891
tp892
Rp893
tp894
a(g190
g6
(g18
S'\xb70\x846'
p895
tp896
Rp897
tp898
asg73
g15
sa(dp899
g2
S'../../../data/emanuela/activity-recognition/images/NTCIR-Lifelog-256/u2/2015-04-27/b00005551_21i7lf_20150427_150738e.jpg'
p900
sg4
(lp901
(g32
g6
(g18
S'\x07\x8c\xdc>'
p902
tp903
Rp904
tp905
a(g15
g6
(g18
S'5<G>'
p906
tp907
Rp908
tp909
a(g104
g6
(g18
S'\xbb\x8e\xee='
p910
tp911
Rp912
tp913
a(g56
g6
(g18
S'\x8a\xfa\x86='
p914
tp915
Rp916
tp917
a(g264
g6
(g18
S'\xdd\x89?='
p918
tp919
Rp920
tp921
asg73
g15
sa(dp922
g2
S'../../../data/emanuela/activity-recognition/images/NTCIR-Lifelog-256/u1/2015-03-08/b00001262_21i6bq_20150308_224434e.jpg'
p923
sg4
(lp924
(g15
g6
(g18
S'\xba\xe7\x7f?'
p925
tp926
Rp927
tp928
a(g92
g6
(g18
S"\x7f\xc3'9"
p929
tp930
Rp931
tp932
a(g166
g6
(g18
S'\x10\x05\xe58'
p933
tp934
Rp935
tp936
a(g56
g6
(g18
S'\xce\x06\xeb7'
p937
tp938
Rp939
tp940
a(g178
g6
(g18
S'\x01k\xb67'
p941
tp942
Rp943
tp944
asg73
g15
sa(dp945
g2
S'../../../data/emanuela/activity-recognition/images/NTCIR-Lifelog-256/u2/2015-04-27/b00005464_21i7lf_20150427_141401e.jpg'
p946
sg4
(lp947
(g15
g6
(g18
S'\x84\xaf}?'
p948
tp949
Rp950
tp951
a(g32
g6
(g18
S'\x18\x11\xb2;'
p952
tp953
Rp954
tp955
a(g104
g6
(g18
S'!\x89\xb9:'
p956
tp957
Rp958
tp959
a(g92
g6
(g18
S'\xa8\xff\x1c:'
p960
tp961
Rp962
tp963
a(g56
g6
(g18
S'\xab\xe0\x10:'
p964
tp965
Rp966
tp967
asg73
g15
sa(dp968
g2
S'../../../data/emanuela/activity-recognition/images/NTCIR-Lifelog-256/u2/2015-04-27/b00005443_21i7lf_20150427_135939e.jpg'
p969
sg4
(lp970
(g15
g6
(g18
S'\xafaJ?'
p971
tp972
Rp973
tp974
a(g32
g6
(g18
S'\xb9\xd1\xe3='
p975
tp976
Rp977
tp978
a(g104
g6
(g18
S'\xf3\xfc\xc7<'
p979
tp980
Rp981
tp982
a(g56
g6
(g18
S'\xd1^b<'
p983
tp984
Rp985
tp986
a(g68
g6
(g18
S'\xae\xd7!<'
p987
tp988
Rp989
tp990
asg73
g15
sa(dp991
g2
S'../../../data/emanuela/activity-recognition/images/NTCIR-Lifelog-256/u1/2015-03-08/b00000614_21i6bq_20150308_154926e.jpg'
p992
sg4
(lp993
(g15
g6
(g18
S'm\x92\x7f?'
p994
tp995
Rp996
tp997
a(g135
g6
(g18
S'\x99X\x8e:'
p998
tp999
Rp1000
tp1001
a(g32
g6
(g18
S'9d\xeb9'
p1002
tp1003
Rp1004
tp1005
a(g264
g6
(g18
S'?C88'
p1006
tp1007
Rp1008
tp1009
a(g92
g6
(g18
S'\x13\x91+8'
p1010
tp1011
Rp1012
tp1013
asg73
g15
sa(dp1014
g2
S'../../../data/emanuela/activity-recognition/images/NTCIR-Lifelog-256/u1/2015-03-17/b00000351_21i6bq_20150317_115557e.jpg'
p1015
sg4
(lp1016
(g15
g6
(g18
S'{Qk?'
p1017
tp1018
Rp1019
tp1020
a(g190
g6
(g18
S'\x8b;\x1f='
p1021
tp1022
Rp1023
tp1024
a(g104
g6
(g18
S'U_\x19<'
p1025
tp1026
Rp1027
tp1028
a(g166
g6
(g18
S'\xd5\xb0\xea;'
p1029
tp1030
Rp1031
tp1032
a(g495
g6
(g18
S'\xd1q\xdf;'
p1033
tp1034
Rp1035
tp1036
asg73
g15
sa(dp1037
g2
S'../../../data/emanuela/activity-recognition/images/NTCIR-Lifelog-256/u1/2015-03-18/b00000801_21i6bq_20150318_163347e.jpg'
p1038
sg4
(lp1039
(g15
g6
(g18
S'#Op?'
p1040
tp1041
Rp1042
tp1043
a(g56
g6
(g18
S'\x12\xa5\xc4<'
p1044
tp1045
Rp1046
tp1047
a(g32
g6
(g18
S'\x06\xac#<'
p1048
tp1049
Rp1050
tp1051
a(g178
g6
(g18
S'\xe9H\x0c<'
p1052
tp1053
Rp1054
tp1055
a(g264
g6
(g18
S'j\x99\t<'
p1056
tp1057
Rp1058
tp1059
asg73
g15
sa(dp1060
g2
S'../../../data/emanuela/activity-recognition/images/NTCIR-Lifelog-256/u2/2015-04-27/b00005450_21i7lf_20150427_140411e.jpg'
p1061
sg4
(lp1062
(g32
g6
(g18
S'&\xdb4?'
p1063
tp1064
Rp1065
tp1066
a(g56
g6
(g18
S':W\xd6='
p1067
tp1068
Rp1069
tp1070
a(g15
g6
(g18
S'\x9a\xbf\xcb='
p1071
tp1072
Rp1073
tp1074
a(g104
g6
(g18
S'\x0f\x94\x0e='
p1075
tp1076
Rp1077
tp1078
a(g68
g6
(g18
S'\xc1\xd4\x88<'
p1079
tp1080
Rp1081
tp1082
asg73
g15
sa(dp1083
g2
S'../../../data/emanuela/activity-recognition/images/NTCIR-Lifelog-256/u1/2015-03-02/b00001290_21i6bq_20150302_204325e.jpg'
p1084
sg4
(lp1085
(g15
g6
(g18
S'\xe1U\x7f?'
p1086
tp1087
Rp1088
tp1089
a(g92
g6
(g18
S'\xe5\x8e\xb2:'
p1090
tp1091
Rp1092
tp1093
a(g56
g6
(g18
S's&$:'
p1094
tp1095
Rp1096
tp1097
a(g32
g6
(g18
S']>?9'
p1098
tp1099
Rp1100
tp1101
a(g166
g6
(g18
S'\x10\xe1<9'
p1102
tp1103
Rp1104
tp1105
asg73
g15
sa(dp1106
g2
S'../../../data/emanuela/activity-recognition/images/NTCIR-Lifelog-256/u2/2015-04-20/b00000676_21i7lf_20150420_164231e.jpg'
p1107
sg4
(lp1108
(g15
g6
(g18
S'?\x01{?'
p1109
tp1110
Rp1111
tp1112
a(g68
g6
(g18
S'_\xf2\x9e;'
p1113
tp1114
Rp1115
tp1116
a(g483
g6
(g18
S'\xa0\xe2F;'
p1117
tp1118
Rp1119
tp1120
a(g44
g6
(g18
S'\xa3\xec\r;'
p1121
tp1122
Rp1123
tp1124
a(g264
g6
(g18
S'\xdb\xa6\xf3:'
p1125
tp1126
Rp1127
tp1128
asg73
g15
sa(dp1129
g2
S'../../../data/emanuela/activity-recognition/images/NTCIR-Lifelog-256/u2/2015-04-20/b00000532_21i7lf_20150420_151245e.jpg'
p1130
sg4
(lp1131
(g15
g6
(g18
S'B\xc3\x7f?'
p1132
tp1133
Rp1134
tp1135
a(g166
g6
(g18
S'\x07\xa4\x8a9'
p1136
tp1137
Rp1138
tp1139
a(g92
g6
(g18
S'\x9f\x1f 9'
p1140
tp1141
Rp1142
tp1143
a(g483
g6
(g18
S'/\xa2\t9'
p1144
tp1145
Rp1146
tp1147
a(g56
g6
(g18
S'-\x15\xb08'
p1148
tp1149
Rp1150
tp1151
asg73
g15
sa(dp1152
g2
S'../../../data/emanuela/activity-recognition/images/NTCIR-Lifelog-256/u1/2015-02-24/b00001455_21i6bq_20150224_213000e.jpg'
p1153
sg4
(lp1154
(g15
g6
(g18
S'\x1bc\xec>'
p1155
tp1156
Rp1157
tp1158
a(g178
g6
(g18
S'\x00\x08\xc2>'
p1159
tp1160
Rp1161
tp1162
a(g287
g6
(g18
S"\xbb\xe5'="
p1163
tp1164
Rp1165
tp1166
a(g264
g6
(g18
S'""\'='
p1167
tp1168
Rp1169
tp1170
a(g68
g6
(g18
S'(`\x10='
p1171
tp1172
Rp1173
tp1174
asg73
g15
sa(dp1175
g2
S'../../../data/emanuela/activity-recognition/images/NTCIR-Lifelog-256/u2/2015-04-27/b00005477_21i7lf_20150427_142245e.jpg'
p1176
sg4
(lp1177
(g15
g6
(g18
S'd\x9du?'
p1178
tp1179
Rp1180
tp1181
a(g32
g6
(g18
S'S{\xd2<'
p1182
tp1183
Rp1184
tp1185
a(g56
g6
(g18
S'\xc1\xf3\xe8;'
p1186
tp1187
Rp1188
tp1189
a(g92
g6
(g18
S'\xd9o\x94;'
p1190
tp1191
Rp1192
tp1193
a(g104
g6
(g18
S'\xa1\x8f=:'
p1194
tp1195
Rp1196
tp1197
asg73
g15
sa(dp1198
g2
S'../../../data/emanuela/activity-recognition/images/NTCIR-Lifelog-256/u1/2015-02-25/b00001547_21i6bq_20150225_215701e.jpg'
p1199
sg4
(lp1200
(g15
g6
(g18
S'\xd1\x8d\x7f?'
p1201
tp1202
Rp1203
tp1204
a(g92
g6
(g18
S'\xfb\xcb9:'
p1205
tp1206
Rp1207
tp1208
a(g32
g6
(g18
S'\x81\xf7\x919'
p1209
tp1210
Rp1211
tp1212
a(g178
g6
(g18
S'8u\x059'
p1213
tp1214
Rp1215
tp1216
a(g56
g6
(g18
S'\xa6$\xae8'
p1217
tp1218
Rp1219
tp1220
asg73
g15
sa(dp1221
g2
S'../../../data/emanuela/activity-recognition/images/NTCIR-Lifelog-256/u1/2015-03-19/b00002182_21i6bq_20150319_133223e.jpg'
p1222
sg4
(lp1223
(g15
g6
(g18
S'I:}?'
p1224
tp1225
Rp1226
tp1227
a(g135
g6
(g18
S'\xfe\x8e(<'
p1228
tp1229
Rp1230
tp1231
a(g32
g6
(g18
S'\xa4\xcc\xc89'
p1232
tp1233
Rp1234
tp1235
a(g44
g6
(g18
S'\xc5_\x838'
p1236
tp1237
Rp1238
tp1239
a(g104
g6
(g18
S'\xed?\x0e8'
p1240
tp1241
Rp1242
tp1243
asg73
g15
sa(dp1244
g2
S'../../../data/emanuela/activity-recognition/images/NTCIR-Lifelog-256/u2/2015-06-16/b00001621_21i7lf_20150616_101901e.jpg'
p1245
sg4
(lp1246
(g15
g6
(g18
S'\xda\x87\x7f?'
p1247
tp1248
Rp1249
tp1250
a(g135
g6
(g18
S'\x18*\xd2:'
p1251
tp1252
Rp1253
tp1254
a(g190
g6
(g18
S'\xc9\xfc\x9d8'
p1255
tp1256
Rp1257
tp1258
a(g264
g6
(g18
S'\xf8 L8'
p1259
tp1260
Rp1261
tp1262
a(g32
g6
(g18
S'+4\xa97'
p1263
tp1264
Rp1265
tp1266
asg73
g15
sa(dp1267
g2
S'../../../data/emanuela/activity-recognition/images/NTCIR-Lifelog-256/u2/2015-04-20/b00000694_21i7lf_20150420_165333e.jpg'
p1268
sg4
(lp1269
(g15
g6
(g18
S'S\\\xd2>'
p1270
tp1271
Rp1272
tp1273
a(g32
g6
(g18
S'\x18\x19\xa7>'
p1274
tp1275
Rp1276
tp1277
a(g56
g6
(g18
S'`\xeb\xec='
p1278
tp1279
Rp1280
tp1281
a(g264
g6
(g18
S'zip='
p1282
tp1283
Rp1284
tp1285
a(g104
g6
(g18
S'\xe3\x9f\xe0<'
p1286
tp1287
Rp1288
tp1289
asg73
g15
sa(dp1290
g2
S'../../../data/emanuela/activity-recognition/images/NTCIR-Lifelog-256/u1/2015-03-01/b00001404_21i6bq_20150301_205949e.jpg'
p1291
sg4
(lp1292
(g15
g6
(g18
S'\x14\xf9\x7f?'
p1293
tp1294
Rp1295
tp1296
a(g92
g6
(g18
S'i\xfd\x868'
p1297
tp1298
Rp1299
tp1300
a(g56
g6
(g18
S'2.\t8'
p1301
tp1302
Rp1303
tp1304
a(g166
g6
(g18
S'\xc0\x93W6'
p1305
tp1306
Rp1307
tp1308
a(g32
g6
(g18
S'\xf3\x1286'
p1309
tp1310
Rp1311
tp1312
asg73
g15
sa(dp1313
g2
S'../../../data/emanuela/activity-recognition/images/NTCIR-Lifelog-256/u1/2015-03-08/b00001261_21i6bq_20150308_224400e.jpg'
p1314
sg4
(lp1315
(g15
g6
(g18
S'3\xf3\x7f?'
p1316
tp1317
Rp1318
tp1319
a(g92
g6
(g18
S'\x11\xbe\xb58'
p1320
tp1321
Rp1322
tp1323
a(g56
g6
(g18
S'\xb4\x92"8'
p1324
tp1325
Rp1326
tp1327
a(g166
g6
(g18
S'\x1c\xe9\xe87'
p1328
tp1329
Rp1330
tp1331
a(g264
g6
(g18
S'V\xdd\x057'
p1332
tp1333
Rp1334
tp1335
asg73
g15
sa(dp1336
g2
S'../../../data/emanuela/activity-recognition/images/NTCIR-Lifelog-256/u1/2015-03-01/b00001293_21i6bq_20150301_195157e.jpg'
p1337
sg4
(lp1338
(g15
g6
(g18
S'\xe41~?'
p1339
tp1340
Rp1341
tp1342
a(g32
g6
(g18
S'Z1\xe6:'
p1343
tp1344
Rp1345
tp1346
a(g104
g6
(g18
S'\x12\xaf\xde:'
p1347
tp1348
Rp1349
tp1350
a(g92
g6
(g18
S'\x0f\\l:'
p1351
tp1352
Rp1353
tp1354
a(g495
g6
(g18
S'\x12\x84`:'
p1355
tp1356
Rp1357
tp1358
asg73
g15
sa(dp1359
g2
S'../../../data/emanuela/activity-recognition/images/NTCIR-Lifelog-256/u1/2015-03-09/b00001461_21i6bq_20150309_221219e.jpg'
p1360
sg4
(lp1361
(g15
g6
(g18
S'\x01\t}?'
p1362
tp1363
Rp1364
tp1365
a(g92
g6
(g18
S'\x8c\x9b\x17;'
p1366
tp1367
Rp1368
tp1369
a(g68
g6
(g18
S'E\xbe\x06;'
p1370
tp1371
Rp1372
tp1373
a(g264
g6
(g18
S'\xbd7\xe3:'
p1374
tp1375
Rp1376
tp1377
a(g56
g6
(g18
S'\x9a|\x89:'
p1378
tp1379
Rp1380
tp1381
asg73
g15
sa(dp1382
g2
S'../../../data/emanuela/activity-recognition/images/NTCIR-Lifelog-256/u1/2015-02-25/b00000286_21i6bq_20150225_085653e.jpg'
p1383
sg4
(lp1384
(g15
g6
(g18
S'\xf3\xce\x1f?'
p1385
tp1386
Rp1387
tp1388
a(g104
g6
(g18
S'\x06\xb7;>'
p1389
tp1390
Rp1391
tp1392
a(g56
g6
(g18
S'\x14\xb2\xa2='
p1393
tp1394
Rp1395
tp1396
a(g32
g6
(g18
S'\xfb\x9a\xec<'
p1397
tp1398
Rp1399
tp1400
a(g495
g6
(g18
S'\x98\x9c\x86<'
p1401
tp1402
Rp1403
tp1404
asg73
g15
sa(dp1405
g2
S'../../../data/emanuela/activity-recognition/images/NTCIR-Lifelog-256/u2/2015-04-27/b00005567_21i7lf_20150427_151722e.jpg'
p1406
sg4
(lp1407
(g15
g6
(g18
S'\x9e\xecp?'
p1408
tp1409
Rp1410
tp1411
a(g32
g6
(g18
S'\xc0\xe7\x9c<'
p1412
tp1413
Rp1414
tp1415
a(g56
g6
(g18
S'.\x18\x98<'
p1416
tp1417
Rp1418
tp1419
a(g104
g6
(g18
S'cks<'
p1420
tp1421
Rp1422
tp1423
a(g92
g6
(g18
S'\x8eN\x99:'
p1424
tp1425
Rp1426
tp1427
asg73
g15
sa(dp1428
g2
S'../../../data/emanuela/activity-recognition/images/NTCIR-Lifelog-256/u2/2015-04-27/b00005442_21i7lf_20150427_135904e.jpg'
p1429
sg4
(lp1430
(g15
g6
(g18
S':\x15n?'
p1431
tp1432
Rp1433
tp1434
a(g104
g6
(g18
S'\xfd\xf5\x9a<'
p1435
tp1436
Rp1437
tp1438
a(g495
g6
(g18
S'\x80\xa0\\<'
p1439
tp1440
Rp1441
tp1442
a(g618
g6
(g18
S'\x08\x88\xe2;'
p1443
tp1444
Rp1445
tp1446
a(g92
g6
(g18
S'\x97\x84\xb9;'
p1447
tp1448
Rp1449
tp1450
asg73
g15
sa(dp1451
g2
S'../../../data/emanuela/activity-recognition/images/NTCIR-Lifelog-256/u1/2015-03-01/b00000357_21i6bq_20150301_102415e.jpg'
p1452
sg4
(lp1453
(g15
g6
(g18
S'\xecO\x16?'
p1454
tp1455
Rp1456
tp1457
a(g178
g6
(g18
S'\xcb\xd0Q>'
p1458
tp1459
Rp1460
tp1461
a(g264
g6
(g18
S':\xe6O='
p1462
tp1463
Rp1464
tp1465
a(g252
g6
(g18
S'\xd5\x86\x19='
p1466
tp1467
Rp1468
tp1469
a(g104
g6
(g18
S'\xca\x88\xbf<'
p1470
tp1471
Rp1472
tp1473
asg73
g15
sa(dp1474
g2
S'../../../data/emanuela/activity-recognition/images/NTCIR-Lifelog-256/u1/2015-03-16/b00002528_21i6bq_20150316_165530e.jpg'
p1475
sg4
(lp1476
(g15
g6
(g18
S'x\x97z?'
p1477
tp1478
Rp1479
tp1480
a(g135
g6
(g18
S'\xbd\xad\xef;'
p1481
tp1482
Rp1483
tp1484
a(g147
g6
(g18
S'\x1b\xb0s;'
p1485
tp1486
Rp1487
tp1488
a(g32
g6
(g18
S'mL\x10;'
p1489
tp1490
Rp1491
tp1492
a(g190
g6
(g18
S'\xe5f\xd9:'
p1493
tp1494
Rp1495
tp1496
asg73
g15
sa(dp1497
g2
S'../../../data/emanuela/activity-recognition/images/NTCIR-Lifelog-256/u1/2015-03-06/b00000527_21i6bq_20150306_110140e.jpg'
p1498
sg4
(lp1499
(g56
g6
(g18
S'f\xec\x9e>'
p1500
tp1501
Rp1502
tp1503
a(g104
g6
(g18
S'\xb7\x02<>'
p1504
tp1505
Rp1506
tp1507
a(g495
g6
(g18
S'_\x0f\x1d>'
p1508
tp1509
Rp1510
tp1511
a(g15
g6
(g18
S'\xd7\xdd\x1b>'
p1512
tp1513
Rp1514
tp1515
a(g32
g6
(g18
S'c\xb2t='
p1516
tp1517
Rp1518
tp1519
asg73
g15
sa(dp1520
g2
S'../../../data/emanuela/activity-recognition/images/NTCIR-Lifelog-256/u1/2015-03-06/b00000513_21i6bq_20150306_105314e.jpg'
p1521
sg4
(lp1522
(g495
g6
(g18
S'\xae\xe2T?'
p1523
tp1524
Rp1525
tp1526
a(g68
g6
(g18
S'\x04\xb7\xf3='
p1527
tp1528
Rp1529
tp1530
a(g56
g6
(g18
S'\xd9\x85\xe4<'
p1531
tp1532
Rp1533
tp1534
a(g483
g6
(g18
S'\xc0\xdc#<'
p1535
tp1536
Rp1537
tp1538
a(g618
g6
(g18
S'#.\x07<'
p1539
tp1540
Rp1541
tp1542
asg73
g15
sa(dp1543
g2
S'../../../data/emanuela/activity-recognition/images/NTCIR-Lifelog-256/u2/2015-04-27/b00005439_21i7lf_20150427_135709e.jpg'
p1544
sg4
(lp1545
(g32
g6
(g18
S'B\x81\x11?'
p1546
tp1547
Rp1548
tp1549
a(g104
g6
(g18
S'\xef\xd3*>'
p1550
tp1551
Rp1552
tp1553
a(g56
g6
(g18
S'\x7f8\xc2='
p1554
tp1555
Rp1556
tp1557
a(g15
g6
(g18
S'\xb89\xa0='
p1558
tp1559
Rp1560
tp1561
a(g92
g6
(g18
S'\x0c\xe9\xe6<'
p1562
tp1563
Rp1564
tp1565
asg73
g15
sa(dp1566
g2
S'../../../data/emanuela/activity-recognition/images/NTCIR-Lifelog-256/u1/2015-03-03/b00000318_21i6bq_20150303_092008e.jpg'
p1567
sg4
(lp1568
(g15
g6
(g18
S'!\xfbs?'
p1569
tp1570
Rp1571
tp1572
a(g56
g6
(g18
S'zF\x1b='
p1573
tp1574
Rp1575
tp1576
a(g32
g6
(g18
S'\x1egK;'
p1577
tp1578
Rp1579
tp1580
a(g68
g6
(g18
S'\x15>\xf7:'
p1581
tp1582
Rp1583
tp1584
a(g92
g6
(g18
S'\x8c\xe1\xb6:'
p1585
tp1586
Rp1587
tp1588
asg73
g15
sa(dp1589
g2
S'../../../data/emanuela/activity-recognition/images/NTCIR-Lifelog-256/u2/2015-04-27/b00005559_21i7lf_20150427_151226e.jpg'
p1590
sg4
(lp1591
(g32
g6
(g18
S'\x9eK\x11?'
p1592
tp1593
Rp1594
tp1595
a(g15
g6
(g18
S'y\x19e>'
p1596
tp1597
Rp1598
tp1599
a(g68
g6
(g18
S'&\x03\n>'
p1600
tp1601
Rp1602
tp1603
a(g56
g6
(g18
S'\x83\xb4\x1a='
p1604
tp1605
Rp1606
tp1607
a(g92
g6
(g18
S'\x80N\x93<'
p1608
tp1609
Rp1610
tp1611
asg73
g15
sa(dp1612
g2
S'../../../data/emanuela/activity-recognition/images/NTCIR-Lifelog-256/u2/2015-04-20/b00000643_21i7lf_20150420_162214e.jpg'
p1613
sg4
(lp1614
(g15
g6
(g18
S'9\xc2\x7f?'
p1615
tp1616
Rp1617
tp1618
a(g92
g6
(g18
S'6Xd9'
p1619
tp1620
Rp1621
tp1622
a(g264
g6
(g18
S'-\x89:9'
p1623
tp1624
Rp1625
tp1626
a(g166
g6
(g18
S'\x97\xf5\x0b9'
p1627
tp1628
Rp1629
tp1630
a(g32
g6
(g18
S'`\x9a\xfb8'
p1631
tp1632
Rp1633
tp1634
asg73
g15
sa(dp1635
g2
S'../../../data/emanuela/activity-recognition/images/NTCIR-Lifelog-256/u1/2015-03-03/b00000687_21i6bq_20150303_141512e.jpg'
p1636
sg4
(lp1637
(g15
g6
(g18
S'\xe5u\x07?'
p1638
tp1639
Rp1640
tp1641
a(g92
g6
(g18
S'\x8c\x84\xc3>'
p1642
tp1643
Rp1644
tp1645
a(g32
g6
(g18
S'(Q1='
p1646
tp1647
Rp1648
tp1649
a(g56
g6
(g18
S'tz\x13='
p1650
tp1651
Rp1652
tp1653
a(g68
g6
(g18
S'\xa2\xee\xe8;'
p1654
tp1655
Rp1656
tp1657
asg73
g15
sa(dp1658
g2
S'../../../data/emanuela/activity-recognition/images/NTCIR-Lifelog-256/u1/2015-03-06/b00000518_21i6bq_20150306_105612e.jpg'
p1659
sg4
(lp1660
(g15
g6
(g18
S'\xa9\xfcl?'
p1661
tp1662
Rp1663
tp1664
a(g104
g6
(g18
S'<\xd8\x8e<'
p1665
tp1666
Rp1667
tp1668
a(g92
g6
(g18
S'\xff\x8c\x10<'
p1669
tp1670
Rp1671
tp1672
a(g178
g6
(g18
S'p\xdd\xf4;'
p1673
tp1674
Rp1675
tp1676
a(g252
g6
(g18
S'qA\xf3;'
p1677
tp1678
Rp1679
tp1680
asg73
g15
sa(dp1681
g2
S'../../../data/emanuela/activity-recognition/images/NTCIR-Lifelog-256/u1/2015-02-26/b00000311_21i6bq_20150226_093317e.jpg'
p1682
sg4
(lp1683
(g15
g6
(g18
S'_\x1e`?'
p1684
tp1685
Rp1686
tp1687
a(g104
g6
(g18
S'#\xdc\xa8<'
p1688
tp1689
Rp1690
tp1691
a(g495
g6
(g18
S'\xfck\xa5<'
p1692
tp1693
Rp1694
tp1695
a(g56
g6
(g18
S'\xf0\xd4\x8d<'
p1696
tp1697
Rp1698
tp1699
a(g178
g6
(g18
S'\xc1\x1b\x89<'
p1700
tp1701
Rp1702
tp1703
asg73
g15
sa(dp1704
g2
S'../../../data/emanuela/activity-recognition/images/NTCIR-Lifelog-256/u1/2015-03-10/b00000833_21i6bq_20150310_220344e.jpg'
p1705
sg4
(lp1706
(g15
g6
(g18
S'\x1eDN?'
p1707
tp1708
Rp1709
tp1710
a(g264
g6
(g18
S'\xfe)L='
p1711
tp1712
Rp1713
tp1714
a(g190
g6
(g18
S'\x7f\xee\x16='
p1715
tp1716
Rp1717
tp1718
a(g104
g6
(g18
S'\xe3\x9b\xf8<'
p1719
tp1720
Rp1721
tp1722
a(g495
g6
(g18
S'\x9f\xcfz<'
p1723
tp1724
Rp1725
tp1726
asg73
g15
sa(dp1727
g2
S'../../../data/emanuela/activity-recognition/images/NTCIR-Lifelog-256/u1/2015-03-06/b00000344_21i6bq_20150306_090704e.jpg'
p1728
sg4
(lp1729
(g15
g6
(g18
S'~\xc2u?'
p1730
tp1731
Rp1732
tp1733
a(g104
g6
(g18
S'2h\xab<'
p1734
tp1735
Rp1736
tp1737
a(g32
g6
(g18
S'v%\xde;'
p1738
tp1739
Rp1740
tp1741
a(g44
g6
(g18
S'\x93\xa7i;'
p1742
tp1743
Rp1744
tp1745
a(g92
g6
(g18
S'9d\xa8:'
p1746
tp1747
Rp1748
tp1749
asg73
g15
sa(dp1750
g2
S'../../../data/emanuela/activity-recognition/images/NTCIR-Lifelog-256/u1/2015-03-19/b00002293_21i6bq_20150319_144705e.jpg'
p1751
sg4
(lp1752
(g15
g6
(g18
S'xo\x7f?'
p1753
tp1754
Rp1755
tp1756
a(g135
g6
(g18
S'_|\x03;'
p1757
tp1758
Rp1759
tp1760
a(g32
g6
(g18
S'\x1e\x02\x1a9'
p1761
tp1762
Rp1763
tp1764
a(g147
g6
(g18
S'\x01\x91?7'
p1765
tp1766
Rp1767
tp1768
a(g190
g6
(g18
S'\xd2>57'
p1769
tp1770
Rp1771
tp1772
asg73
g15
sa(dp1773
g2
S'../../../data/emanuela/activity-recognition/images/NTCIR-Lifelog-256/u1/2015-03-06/b00000213_21i6bq_20150306_073754e.jpg'
p1774
sg4
(lp1775
(g166
g6
(g18
S'\xa0\x13\xab>'
p1776
tp1777
Rp1778
tp1779
a(g483
g6
(g18
S'\x19\xc7\x95>'
p1780
tp1781
Rp1782
tp1783
a(g68
g6
(g18
S'\xd9]\x85>'
p1784
tp1785
Rp1786
tp1787
a(g15
g6
(g18
S']\x8ae='
p1788
tp1789
Rp1790
tp1791
a(g44
g6
(g18
S'\x10{\xb6<'
p1792
tp1793
Rp1794
tp1795
asg73
g15
sa(dp1796
g2
S'../../../data/emanuela/activity-recognition/images/NTCIR-Lifelog-256/u1/2015-03-08/b00000616_21i6bq_20150308_155033e.jpg'
p1797
sg4
(lp1798
(g15
g6
(g18
S'\xca+}?'
p1799
tp1800
Rp1801
tp1802
a(g135
g6
(g18
S'S\xc7\x1b<'
p1803
tp1804
Rp1805
tp1806
a(g32
g6
(g18
S'\xd9\xe2\x1c:'
p1807
tp1808
Rp1809
tp1810
a(g104
g6
(g18
S'd\xc5\x9a9'
p1811
tp1812
Rp1813
tp1814
a(g264
g6
(g18
S',\xa4.9'
p1815
tp1816
Rp1817
tp1818
asg73
g15
sa(dp1819
g2
S'../../../data/emanuela/activity-recognition/images/NTCIR-Lifelog-256/u1/2015-03-02/b00001236_21i6bq_20150302_200148e.jpg'
p1820
sg4
(lp1821
(g15
g6
(g18
S'\xa3\xa5}?'
p1822
tp1823
Rp1824
tp1825
a(g56
g6
(g18
S'\x8f\xb5\xa1;'
p1826
tp1827
Rp1828
tp1829
a(g92
g6
(g18
S'\xa1\x9e\x19;'
p1830
tp1831
Rp1832
tp1833
a(g32
g6
(g18
S'\x84\x9dy:'
p1834
tp1835
Rp1836
tp1837
a(g483
g6
(g18
S'\xd2\x19\x8f9'
p1838
tp1839
Rp1840
tp1841
asg73
g15
sa(dp1842
g2
S'../../../data/emanuela/activity-recognition/images/NTCIR-Lifelog-256/u1/2015-02-23/b00001367_21i6bq_20150223_214813e.jpg'
p1843
sg4
(lp1844
(g15
g6
(g18
S'@\x01\x7f?'
p1845
tp1846
Rp1847
tp1848
a(g178
g6
(g18
S'\xd8Uw:'
p1849
tp1850
Rp1851
tp1852
a(g264
g6
(g18
S"r\x96':"
p1853
tp1854
Rp1855
tp1856
a(g104
g6
(g18
S'_\xb5\xf19'
p1857
tp1858
Rp1859
tp1860
a(g190
g6
(g18
S'\xec\x8b\xbc9'
p1861
tp1862
Rp1863
tp1864
asg73
g15
sa(dp1865
g2
S'../../../data/emanuela/activity-recognition/images/NTCIR-Lifelog-256/u1/2015-02-26/b00000168_21i6bq_20150226_075005e.jpg'
p1866
sg4
(lp1867
(g15
g6
(g18
S'\x99\x8em?'
p1868
tp1869
Rp1870
tp1871
a(g32
g6
(g18
S'\xaf\x8a\xf0<'
p1872
tp1873
Rp1874
tp1875
a(g56
g6
(g18
S'\xa1\xa4\xa5<'
p1876
tp1877
Rp1878
tp1879
a(g68
g6
(g18
S'\x9fv\x18<'
p1880
tp1881
Rp1882
tp1883
a(g92
g6
(g18
S'I\xa3\xa9;'
p1884
tp1885
Rp1886
tp1887
asg73
g15
sa(dp1888
g2
S'../../../data/emanuela/activity-recognition/images/NTCIR-Lifelog-256/u2/2015-04-20/b00000575_21i7lf_20150420_153936e.jpg'
p1889
sg4
(lp1890
(g178
g6
(g18
S'/\xb75?'
p1891
tp1892
Rp1893
tp1894
a(g15
g6
(g18
S'\xa5\x98\x86>'
p1895
tp1896
Rp1897
tp1898
a(g264
g6
(g18
S'\xe3Uc<'
p1899
tp1900
Rp1901
tp1902
a(g252
g6
(g18
S'Y\xd7B;'
p1903
tp1904
Rp1905
tp1906
a(g495
g6
(g18
S':\xf2\x1e;'
p1907
tp1908
Rp1909
tp1910
asg73
g15
sa(dp1911
g2
S'../../../data/emanuela/activity-recognition/images/NTCIR-Lifelog-256/u1/2015-03-06/b00000339_21i6bq_20150306_090403e.jpg'
p1912
sg4
(lp1913
(g15
g6
(g18
S'\xd7H\x00?'
p1914
tp1915
Rp1916
tp1917
a(g104
g6
(g18
S'\x90\x84\xa2>'
p1918
tp1919
Rp1920
tp1921
a(g252
g6
(g18
S'yj\x8c='
p1922
tp1923
Rp1924
tp1925
a(g495
g6
(g18
S'zMd='
p1926
tp1927
Rp1928
tp1929
a(g178
g6
(g18
S'\xbb7`<'
p1930
tp1931
Rp1932
tp1933
asg73
g15
sa(dp1934
g2
S'../../../data/emanuela/activity-recognition/images/NTCIR-Lifelog-256/u1/2015-03-02/b00001249_21i6bq_20150302_201738e.jpg'
p1935
sg4
(lp1936
(g15
g6
(g18
S'\xad\xaa~?'
p1937
tp1938
Rp1939
tp1940
a(g166
g6
(g18
S'\x1f\x07\x03;'
p1941
tp1942
Rp1943
tp1944
a(g44
g6
(g18
S'\x1f\x1e*:'
p1945
tp1946
Rp1947
tp1948
a(g56
g6
(g18
S'\xf8\xf8":'
p1949
tp1950
Rp1951
tp1952
a(g92
g6
(g18
S'*,\xe39'
p1953
tp1954
Rp1955
tp1956
asg73
g15
sa(dp1957
g2
S'../../../data/emanuela/activity-recognition/images/NTCIR-Lifelog-256/u1/2015-03-16/b00002440_21i6bq_20150316_160451e.jpg'
p1958
sg4
(lp1959
(g15
g6
(g18
S'\xc5\x9f)?'
p1960
tp1961
Rp1962
tp1963
a(g104
g6
(g18
S'\xee\xe7\x01>'
p1964
tp1965
Rp1966
tp1967
a(g495
g6
(g18
S'\xfe\x9d\xda='
p1968
tp1969
Rp1970
tp1971
a(g135
g6
(g18
S'\x13\x03?='
p1972
tp1973
Rp1974
tp1975
a(g264
g6
(g18
S'\xf8iq<'
p1976
tp1977
Rp1978
tp1979
asg73
g15
sa(dp1980
g2
S'../../../data/emanuela/activity-recognition/images/NTCIR-Lifelog-256/u1/2015-02-24/b00001460_21i6bq_20150224_213252e.jpg'
p1981
sg4
(lp1982
(g15
g6
(g18
S'%F\x7f?'
p1983
tp1984
Rp1985
tp1986
a(g264
g6
(g18
S'g\xf3-:'
p1987
tp1988
Rp1989
tp1990
a(g190
g6
(g18
S'>f\xbb9'
p1991
tp1992
Rp1993
tp1994
a(g92
g6
(g18
S'\x80\xd5\xab9'
p1995
tp1996
Rp1997
tp1998
a(g495
g6
(g18
S'\xed$\x959'
p1999
tp2000
Rp2001
tp2002
asg73
g15
sa(dp2003
g2
S'../../../data/emanuela/activity-recognition/images/NTCIR-Lifelog-256/u1/2015-02-25/b00000316_21i6bq_20150225_091528e.jpg'
p2004
sg4
(lp2005
(g15
g6
(g18
S'\x1e\x87^?'
p2006
tp2007
Rp2008
tp2009
a(g56
g6
(g18
S"7\xaa'="
p2010
tp2011
Rp2012
tp2013
a(g32
g6
(g18
S'<\x1e\xdd<'
p2014
tp2015
Rp2016
tp2017
a(g92
g6
(g18
S'0\x92\x92<'
p2018
tp2019
Rp2020
tp2021
a(g104
g6
(g18
S'\xcf\x85\x8f<'
p2022
tp2023
Rp2024
tp2025
asg73
g15
sa(dp2026
g2
S'../../../data/emanuela/activity-recognition/images/NTCIR-Lifelog-256/u1/2015-03-02/b00001246_21i6bq_20150302_201545e.jpg'
p2027
sg4
(lp2028
(g15
g6
(g18
S'\xbe\xe6\x7f?'
p2029
tp2030
Rp2031
tp2032
a(g92
g6
(g18
S'U\xbc\x059'
p2033
tp2034
Rp2035
tp2036
a(g56
g6
(g18
S'\xb2]<8'
p2037
tp2038
Rp2039
tp2040
a(g166
g6
(g18
S'\xc0\xab(8'
p2041
tp2042
Rp2043
tp2044
a(g147
g6
(g18
S'^\xbb!8'
p2045
tp2046
Rp2047
tp2048
asg73
g15
sa(dp2049
g2
S'../../../data/emanuela/activity-recognition/images/NTCIR-Lifelog-256/u1/2015-03-08/b00000632_21i6bq_20150308_155939e.jpg'
p2050
sg4
(lp2051
(g15
g6
(g18
S'\xb8+n?'
p2052
tp2053
Rp2054
tp2055
a(g135
g6
(g18
S'\xfd\xfbw='
p2056
tp2057
Rp2058
tp2059
a(g32
g6
(g18
S'\xf3[?;'
p2060
tp2061
Rp2062
tp2063
a(g44
g6
(g18
S'\xb3\xaa ;'
p2064
tp2065
Rp2066
tp2067
a(g104
g6
(g18
S'T\xff\x8c:'
p2068
tp2069
Rp2070
tp2071
asg73
g15
sa(dp2072
g2
S'../../../data/emanuela/activity-recognition/images/NTCIR-Lifelog-256/u2/2015-04-20/b00000533_21i7lf_20150420_151319e.jpg'
p2073
sg4
(lp2074
(g15
g6
(g18
S'\xbc\xb8\x7f?'
p2075
tp2076
Rp2077
tp2078
a(g166
g6
(g18
S'\xb5[a9'
p2079
tp2080
Rp2081
tp2082
a(g92
g6
(g18
S'\xf1\xe2F9'
p2083
tp2084
Rp2085
tp2086
a(g495
g6
(g18
S']\xc9\x109'
p2087
tp2088
Rp2089
tp2090
a(g483
g6
(g18
S'`d\xda8'
p2091
tp2092
Rp2093
tp2094
asg73
g15
sa(dp2095
g2
S'../../../data/emanuela/activity-recognition/images/NTCIR-Lifelog-256/u1/2015-02-23/b00001364_21i6bq_20150223_214618e.jpg'
p2096
sg4
(lp2097
(g15
g6
(g18
S'!\x02\x7f?'
p2098
tp2099
Rp2100
tp2101
a(g264
g6
(g18
S'\roE:'
p2102
tp2103
Rp2104
tp2105
a(g44
g6
(g18
S'\x98\xfd\xd59'
p2106
tp2107
Rp2108
tp2109
a(g178
g6
(g18
S'\x05\xe0\xd09'
p2110
tp2111
Rp2112
tp2113
a(g92
g6
(g18
S'\xd2\xa3\xcd9'
p2114
tp2115
Rp2116
tp2117
asg73
g15
sa(dp2118
g2
S'../../../data/emanuela/activity-recognition/images/NTCIR-Lifelog-256/u2/2015-04-20/b00000553_21i7lf_20150420_152536e.jpg'
p2119
sg4
(lp2120
(g15
g6
(g18
S'\x90e~?'
p2121
tp2122
Rp2123
tp2124
a(g264
g6
(g18
S'\x94_:;'
p2125
tp2126
Rp2127
tp2128
a(g32
g6
(g18
S'\xc7\xd2%:'
p2129
tp2130
Rp2131
tp2132
a(g68
g6
(g18
S';\x8e\x0b:'
p2133
tp2134
Rp2135
tp2136
a(g178
g6
(g18
S'\xa90\xd79'
p2137
tp2138
Rp2139
tp2140
asg73
g15
sa(dp2141
g2
S'../../../data/emanuela/activity-recognition/images/NTCIR-Lifelog-256/u1/2015-03-10/b00000854_21i6bq_20150310_221354e.jpg'
p2142
sg4
(lp2143
(g15
g6
(g18
S'\xfc\x7f\x7f?'
p2144
tp2145
Rp2146
tp2147
a(g264
g6
(g18
S'\xcf,\xf79'
p2148
tp2149
Rp2150
tp2151
a(g68
g6
(g18
S'\x9a\xe7\xa89'
p2152
tp2153
Rp2154
tp2155
a(g178
g6
(g18
S'\xf3\x83\x879'
p2156
tp2157
Rp2158
tp2159
a(g166
g6
(g18
S'-\x0c)9'
p2160
tp2161
Rp2162
tp2163
asg73
g15
sa(dp2164
g2
S'../../../data/emanuela/activity-recognition/images/NTCIR-Lifelog-256/u1/2015-03-06/b00000515_21i6bq_20150306_105427e.jpg'
p2165
sg4
(lp2166
(g68
g6
(g18
S'bPW?'
p2167
tp2168
Rp2169
tp2170
a(g495
g6
(g18
S'\xbc\x08\x96='
p2171
tp2172
Rp2173
tp2174
a(g483
g6
(g18
S'?l\x84='
p2175
tp2176
Rp2177
tp2178
a(g56
g6
(g18
S'F\x88\x18<'
p2179
tp2180
Rp2181
tp2182
a(g15
g6
(g18
S'\xfdtM;'
p2183
tp2184
Rp2185
tp2186
asg73
g15
sa(dp2187
g2
S'../../../data/emanuela/activity-recognition/images/NTCIR-Lifelog-256/u1/2015-03-07/b00000119_21i6bq_20150307_083335e.jpg'
p2188
sg4
(lp2189
(g15
g6
(g18
S'K\xd6\x7f?'
p2190
tp2191
Rp2192
tp2193
a(g92
g6
(g18
S'\xabD@9'
p2194
tp2195
Rp2196
tp2197
a(g56
g6
(g18
S'&+\x169'
p2198
tp2199
Rp2200
tp2201
a(g68
g6
(g18
S'`\x1b\xa98'
p2202
tp2203
Rp2204
tp2205
a(g483
g6
(g18
S'\xa6\xaed8'
p2206
tp2207
Rp2208
tp2209
asg73
g15
sa(dp2210
g2
S'../../../data/emanuela/activity-recognition/images/NTCIR-Lifelog-256/u2/2015-05-07/b00007712_21i7lf_20150507_151535e.jpg'
p2211
sg4
(lp2212
(g15
g6
(g18
S'\xb0,g?'
p2213
tp2214
Rp2215
tp2216
a(g56
g6
(g18
S'\xa9\xdeY='
p2217
tp2218
Rp2219
tp2220
a(g32
g6
(g18
S'\xdf\xc4\x90<'
p2221
tp2222
Rp2223
tp2224
a(g92
g6
(g18
S'{\xfd\x11<'
p2225
tp2226
Rp2227
tp2228
a(g44
g6
(g18
S'\xfd\xb0\xe8;'
p2229
tp2230
Rp2231
tp2232
asg73
g15
sa(dp2233
g2
S'../../../data/emanuela/activity-recognition/images/NTCIR-Lifelog-256/u1/2015-03-16/b00002507_21i6bq_20150316_164350e.jpg'
p2234
sg4
(lp2235
(g15
g6
(g18
S'\xb0z{?'
p2236
tp2237
Rp2238
tp2239
a(g135
g6
(g18
S'\xd45\xdd;'
p2240
tp2241
Rp2242
tp2243
a(g264
g6
(g18
S'K\xcd\x1f;'
p2244
tp2245
Rp2246
tp2247
a(g495
g6
(g18
S'1\xcb\xe9:'
p2248
tp2249
Rp2250
tp2251
a(g104
g6
(g18
S'\n(\xcf:'
p2252
tp2253
Rp2254
tp2255
asg73
g15
sa(dp2256
g2
S'../../../data/emanuela/activity-recognition/images/NTCIR-Lifelog-256/u3/2015-07-14/b00003631_21i79q_20150714_170435e.jpg'
p2257
sg4
(lp2258
(g15
g6
(g18
S'4z\x07?'
p2259
tp2260
Rp2261
tp2262
a(g32
g6
(g18
S'\x9e\xbf\x12>'
p2263
tp2264
Rp2265
tp2266
a(g104
g6
(g18
S'\xb2\xb6\x01>'
p2267
tp2268
Rp2269
tp2270
a(g264
g6
(g18
S'C\xb1y='
p2271
tp2272
Rp2273
tp2274
a(g68
g6
(g18
S'\xb0\x93\x03='
p2275
tp2276
Rp2277
tp2278
asg73
g15
sa(dp2279
g2
S'../../../data/emanuela/activity-recognition/images/NTCIR-Lifelog-256/u1/2015-03-01/b00000434_21i6bq_20150301_111449e.jpg'
p2280
sg4
(lp2281
(g15
g6
(g18
S'\xb5\x8b\x7f?'
p2282
tp2283
Rp2284
tp2285
a(g190
g6
(g18
S'\xc31\xe4:'
p2286
tp2287
Rp2288
tp2289
a(g166
g6
(g18
S'rl\xf96'
p2290
tp2291
Rp2292
tp2293
a(g135
g6
(g18
S'\xd6\xac\x7f6'
p2294
tp2295
Rp2296
tp2297
a(g147
g6
(g18
S'\x00\x0b\x7f6'
p2298
tp2299
Rp2300
tp2301
asg73
g15
sa(dp2302
g2
S'../../../data/emanuela/activity-recognition/images/NTCIR-Lifelog-256/u2/2015-04-20/b00000635_21i7lf_20150420_161718e.jpg'
p2303
sg4
(lp2304
(g15
g6
(g18
S'\xfb\xef\x7f?'
p2305
tp2306
Rp2307
tp2308
a(g92
g6
(g18
S'\n\xbd\xff8'
p2309
tp2310
Rp2311
tp2312
a(g56
g6
(g18
S'&u\xd87'
p2313
tp2314
Rp2315
tp2316
a(g166
g6
(g18
S'9P\xaa7'
p2317
tp2318
Rp2319
tp2320
a(g32
g6
(g18
S'\x18!\x997'
p2321
tp2322
Rp2323
tp2324
asg73
g15
sa(dp2325
g2
S'../../../data/emanuela/activity-recognition/images/NTCIR-Lifelog-256/u1/2015-03-06/b00000336_21i6bq_20150306_090212e.jpg'
p2326
sg4
(lp2327
(g104
g6
(g18
S't\xb4#?'
p2328
tp2329
Rp2330
tp2331
a(g15
g6
(g18
S'\xdd\xe9#>'
p2332
tp2333
Rp2334
tp2335
a(g495
g6
(g18
S'\xf7\xde\x15>'
p2336
tp2337
Rp2338
tp2339
a(g618
g6
(g18
S'\x8c\xd6\xb8<'
p2340
tp2341
Rp2342
tp2343
a(g190
g6
(g18
S'\x982\x16<'
p2344
tp2345
Rp2346
tp2347
asg73
g15
sa(dp2348
g2
S'../../../data/emanuela/activity-recognition/images/NTCIR-Lifelog-256/u1/2015-02-26/b00001413_21i6bq_20150226_224847e.jpg'
p2349
sg4
(lp2350
(g15
g6
(g18
S'h\xa0Z?'
p2351
tp2352
Rp2353
tp2354
a(g178
g6
(g18
S'^[\x98='
p2355
tp2356
Rp2357
tp2358
a(g264
g6
(g18
S'>\xa6O='
p2359
tp2360
Rp2361
tp2362
a(g104
g6
(g18
S'\xddu\x98;'
p2363
tp2364
Rp2365
tp2366
a(g68
g6
(g18
S'\x05KM;'
p2367
tp2368
Rp2369
tp2370
asg73
g15
sa(dp2371
g2
S'../../../data/emanuela/activity-recognition/images/NTCIR-Lifelog-256/u1/2015-03-06/b00001639_21i6bq_20150306_221831e.jpg'
p2372
sg4
(lp2373
(g15
g6
(g18
S',\xfay?'
p2374
tp2375
Rp2376
tp2377
a(g264
g6
(g18
S'\x87\xa5\xa1;'
p2378
tp2379
Rp2380
tp2381
a(g104
g6
(g18
S'\xb1\x80};'
p2382
tp2383
Rp2384
tp2385
a(g495
g6
(g18
S'\x97"&;'
p2386
tp2387
Rp2388
tp2389
a(g178
g6
(g18
S'\xa6.\x17;'
p2390
tp2391
Rp2392
tp2393
asg73
g15
sa(dp2394
g2
S'../../../data/emanuela/activity-recognition/images/NTCIR-Lifelog-256/u1/2015-03-01/b00001413_21i6bq_20150301_210533e.jpg'
p2395
sg4
(lp2396
(g15
g6
(g18
S'G\xe4\x7f?'
p2397
tp2398
Rp2399
tp2400
a(g92
g6
(g18
S'\x03\xa3~9'
p2401
tp2402
Rp2403
tp2404
a(g56
g6
(g18
S'L\xb1O8'
p2405
tp2406
Rp2407
tp2408
a(g495
g6
(g18
S'\xc2\x8c"8'
p2409
tp2410
Rp2411
tp2412
a(g32
g6
(g18
S'\x1b\xfc\xcb7'
p2413
tp2414
Rp2415
tp2416
asg73
g15
sa(dp2417
g2
S'../../../data/emanuela/activity-recognition/images/NTCIR-Lifelog-256/u1/2015-03-10/b00000909_21i6bq_20150310_224720e.jpg'
p2418
sg4
(lp2419
(g15
g6
(g18
S'@\xd7\x7f?'
p2420
tp2421
Rp2422
tp2423
a(g264
g6
(g18
S'\x90\xab~9'
p2424
tp2425
Rp2426
tp2427
a(g92
g6
(g18
S'\xa7E\x1e9'
p2428
tp2429
Rp2430
tp2431
a(g166
g6
(g18
S'\xb2\x91\x129'
p2432
tp2433
Rp2434
tp2435
a(g56
g6
(g18
S'\x99\x88\xbd7'
p2436
tp2437
Rp2438
tp2439
asg73
g15
sa(dp2440
g2
S'../../../data/emanuela/activity-recognition/images/NTCIR-Lifelog-256/u1/2015-03-03/b00000317_21i6bq_20150303_091934e.jpg'
p2441
sg4
(lp2442
(g15
g6
(g18
S'\xfcCI?'
p2443
tp2444
Rp2445
tp2446
a(g56
g6
(g18
S'c\xdf\xb6='
p2447
tp2448
Rp2449
tp2450
a(g32
g6
(g18
S'y__='
p2451
tp2452
Rp2453
tp2454
a(g44
g6
(g18
S'\xa5\x94\xd2<'
p2455
tp2456
Rp2457
tp2458
a(g92
g6
(g18
S'(\xf2n<'
p2459
tp2460
Rp2461
tp2462
asg73
g15
sa(dp2463
g2
S'../../../data/emanuela/activity-recognition/images/NTCIR-Lifelog-256/u1/2015-03-16/b00002518_21i6bq_20150316_164941e.jpg'
p2464
sg4
(lp2465
(g15
g6
(g18
S'd\xa3p?'
p2466
tp2467
Rp2468
tp2469
a(g135
g6
(g18
S'I\x14\xdd<'
p2470
tp2471
Rp2472
tp2473
a(g252
g6
(g18
S'\xc1|\xd6;'
p2474
tp2475
Rp2476
tp2477
a(g104
g6
(g18
S'\xf7&\xa8;'
p2478
tp2479
Rp2480
tp2481
a(g264
g6
(g18
S'F\xbe\xa3;'
p2482
tp2483
Rp2484
tp2485
asg73
g15
sa(dp2486
g2
S'../../../data/emanuela/activity-recognition/images/NTCIR-Lifelog-256/u1/2015-03-02/b00001287_21i6bq_20150302_204126e.jpg'
p2487
sg4
(lp2488
(g15
g6
(g18
S'o\xb3\x7f?'
p2489
tp2490
Rp2491
tp2492
a(g56
g6
(g18
S'\xc6M1:'
p2493
tp2494
Rp2495
tp2496
a(g92
g6
(g18
S'\xd4M\x919'
p2497
tp2498
Rp2499
tp2500
a(g166
g6
(g18
S'\x92\xfc\x9f8'
p2501
tp2502
Rp2503
tp2504
a(g32
g6
(g18
S'\x18\xcb\x188'
p2505
tp2506
Rp2507
tp2508
asg73
g15
sa(dp2509
g2
S'../../../data/emanuela/activity-recognition/images/NTCIR-Lifelog-256/u1/2015-02-26/b00001455_21i6bq_20150226_232144e.jpg'
p2510
sg4
(lp2511
(g15
g6
(g18
S'\x1e,\x7f?'
p2512
tp2513
Rp2514
tp2515
a(g178
g6
(g18
S'bT\x92:'
p2516
tp2517
Rp2518
tp2519
a(g190
g6
(g18
S'\x93\x00\xea9'
p2520
tp2521
Rp2522
tp2523
a(g264
g6
(g18
S'9j\xe19'
p2524
tp2525
Rp2526
tp2527
a(g68
g6
(g18
S'\x02]\xb09'
p2528
tp2529
Rp2530
tp2531
asg73
g15
sa(dp2532
g2
S'../../../data/emanuela/activity-recognition/images/NTCIR-Lifelog-256/u1/2015-03-01/b00000411_21i6bq_20150301_110047e.jpg'
p2533
sg4
(lp2534
(g15
g6
(g18
S's\xe5\x7f?'
p2535
tp2536
Rp2537
tp2538
a(g190
g6
(g18
S'\xb5\x7f\xc19'
p2539
tp2540
Rp2541
tp2542
a(g166
g6
(g18
S'\nG\x907'
p2543
tp2544
Rp2545
tp2546
a(g147
g6
(g18
S'.\xf8\x8f6'
p2547
tp2548
Rp2549
tp2550
a(g32
g6
(g18
S'5\xd8F6'
p2551
tp2552
Rp2553
tp2554
asg73
g15
sa(dp2555
g2
S'../../../data/emanuela/activity-recognition/images/NTCIR-Lifelog-256/u2/2015-04-27/b00005455_21i7lf_20150427_140727e.jpg'
p2556
sg4
(lp2557
(g32
g6
(g18
S'q\xce\xca>'
p2558
tp2559
Rp2560
tp2561
a(g15
g6
(g18
S'\xff\xb9\xbd>'
p2562
tp2563
Rp2564
tp2565
a(g56
g6
(g18
S'\xd8F`>'
p2566
tp2567
Rp2568
tp2569
a(g264
g6
(g18
S'Zr\xbe;'
p2570
tp2571
Rp2572
tp2573
a(g104
g6
(g18
S'\x91\n>;'
p2574
tp2575
Rp2576
tp2577
asg73
g15
sa(dp2578
g2
S'../../../data/emanuela/activity-recognition/images/NTCIR-Lifelog-256/u1/2015-03-09/b00001470_21i6bq_20150309_221832e.jpg'
p2579
sg4
(lp2580
(g15
g6
(g18
S'c$\x7f?'
p2581
tp2582
Rp2583
tp2584
a(g56
g6
(g18
S'\x8e\xf3\xa1:'
p2585
tp2586
Rp2587
tp2588
a(g92
g6
(g18
S'8p=:'
p2589
tp2590
Rp2591
tp2592
a(g166
g6
(g18
S'}"\xc99'
p2593
tp2594
Rp2595
tp2596
a(g32
g6
(g18
S'\xa9\xd5\xa29'
p2597
tp2598
Rp2599
tp2600
asg73
g15
sa(dp2601
g2
S'../../../data/emanuela/activity-recognition/images/NTCIR-Lifelog-256/u1/2015-02-25/b00000293_21i6bq_20150225_090102e.jpg'
p2602
sg4
(lp2603
(g15
g6
(g18
S'\xd9\xef"?'
p2604
tp2605
Rp2606
tp2607
a(g104
g6
(g18
S'1C\x8d='
p2608
tp2609
Rp2610
tp2611
a(g44
g6
(g18
S'\xd3b\x85='
p2612
tp2613
Rp2614
tp2615
a(g252
g6
(g18
S'*\x03a='
p2616
tp2617
Rp2618
tp2619
a(g495
g6
(g18
S'\xfcBA='
p2620
tp2621
Rp2622
tp2623
asg73
g15
sa(dp2624
g2
S'../../../data/emanuela/activity-recognition/images/NTCIR-Lifelog-256/u1/2015-03-16/b00002406_21i6bq_20150316_154411e.jpg'
p2625
sg4
(lp2626
(g15
g6
(g18
S'\x97\xc1u?'
p2627
tp2628
Rp2629
tp2630
a(g495
g6
(g18
S'\xfclT<'
p2631
tp2632
Rp2633
tp2634
a(g56
g6
(g18
S'w\xdb\xf0;'
p2635
tp2636
Rp2637
tp2638
a(g104
g6
(g18
S'\xb4~\xb9;'
p2639
tp2640
Rp2641
tp2642
a(g92
g6
(g18
S'Jl,;'
p2643
tp2644
Rp2645
tp2646
asg73
g15
sa(dp2647
g2
S'../../../data/emanuela/activity-recognition/images/NTCIR-Lifelog-256/u1/2015-03-02/b00001302_21i6bq_20150302_205057e.jpg'
p2648
sg4
(lp2649
(g15
g6
(g18
S'\xf7H}?'
p2650
tp2651
Rp2652
tp2653
a(g166
g6
(g18
S'\xf6\x04\x8d;'
p2654
tp2655
Rp2656
tp2657
a(g56
g6
(g18
S'\x0c\xfb\xec:'
p2658
tp2659
Rp2660
tp2661
a(g190
g6
(g18
S'\xf9x\x80:'
p2662
tp2663
Rp2664
tp2665
a(g92
g6
(g18
S';\xe8F:'
p2666
tp2667
Rp2668
tp2669
asg73
g15
sa(dp2670
g2
S'../../../data/emanuela/activity-recognition/images/NTCIR-Lifelog-256/u2/2015-04-27/b00005476_21i7lf_20150427_142208e.jpg'
p2671
sg4
(lp2672
(g15
g6
(g18
S'\x0e\x8dz?'
p2673
tp2674
Rp2675
tp2676
a(g32
g6
(g18
S'\xa1\xbe\xa4<'
p2677
tp2678
Rp2679
tp2680
a(g92
g6
(g18
S'w+\xe39'
p2681
tp2682
Rp2683
tp2684
a(g56
g6
(g18
S'\xbe^\xdf9'
p2685
tp2686
Rp2687
tp2688
a(g166
g6
(g18
S'\xbbH\xa88'
p2689
tp2690
Rp2691
tp2692
asg73
g15
sa(dp2693
g2
S'../../../data/emanuela/activity-recognition/images/NTCIR-Lifelog-256/u1/2015-03-06/b00000530_21i6bq_20150306_110329e.jpg'
p2694
sg4
(lp2695
(g495
g6
(g18
S'\xa7[8?'
p2696
tp2697
Rp2698
tp2699
a(g15
g6
(g18
S'\td\xda='
p2700
tp2701
Rp2702
tp2703
a(g56
g6
(g18
S'\xcc\x1f\x90='
p2704
tp2705
Rp2706
tp2707
a(g483
g6
(g18
S'\xff\xd9e='
p2708
tp2709
Rp2710
tp2711
a(g68
g6
(g18
S'\x9a\x98\x88<'
p2712
tp2713
Rp2714
tp2715
asg73
g15
sa(dp2716
g2
S'../../../data/emanuela/activity-recognition/images/NTCIR-Lifelog-256/u2/2015-04-27/b00005520_21i7lf_20150427_144837e.jpg'
p2717
sg4
(lp2718
(g15
g6
(g18
S'\x0c\xf0\x1e?'
p2719
tp2720
Rp2721
tp2722
a(g32
g6
(g18
S']:Q>'
p2723
tp2724
Rp2725
tp2726
a(g104
g6
(g18
S'\x89LL='
p2727
tp2728
Rp2729
tp2730
a(g56
g6
(g18
S'4\x1e;='
p2731
tp2732
Rp2733
tp2734
a(g264
g6
(g18
S'\xc0\x02\xf4<'
p2735
tp2736
Rp2737
tp2738
asg73
g15
sa(dp2739
g2
S'../../../data/emanuela/activity-recognition/images/NTCIR-Lifelog-256/u1/2015-03-08/b00001168_21i6bq_20150308_214920e.jpg'
p2740
sg4
(lp2741
(g15
g6
(g18
S'K\xaa\x7f?'
p2742
tp2743
Rp2744
tp2745
a(g166
g6
(g18
S'\xa6\xa34:'
p2746
tp2747
Rp2748
tp2749
a(g264
g6
(g18
S'\xa1%89'
p2750
tp2751
Rp2752
tp2753
a(g56
g6
(g18
S'\xa1u\xaf8'
p2754
tp2755
Rp2756
tp2757
a(g92
g6
(g18
S'\xec\xea\xad8'
p2758
tp2759
Rp2760
tp2761
asg73
g15
sa(dp2762
g2
S'../../../data/emanuela/activity-recognition/images/NTCIR-Lifelog-256/u1/2015-03-10/b00000903_21i6bq_20150310_224340e.jpg'
p2763
sg4
(lp2764
(g15
g6
(g18
S'o\xf4\x7f?'
p2765
tp2766
Rp2767
tp2768
a(g92
g6
(g18
S'\xb1\xe5\xee8'
p2769
tp2770
Rp2771
tp2772
a(g166
g6
(g18
S'\xc1\xeb\x887'
p2773
tp2774
Rp2775
tp2776
a(g56
g6
(g18
S'\xa1\x97{7'
p2777
tp2778
Rp2779
tp2780
a(g495
g6
(g18
S"\xad\xab'7"
p2781
tp2782
Rp2783
tp2784
asg73
g15
sa(dp2785
g2
S'../../../data/emanuela/activity-recognition/images/NTCIR-Lifelog-256/u1/2015-03-16/b00002501_21i6bq_20150316_164040e.jpg'
p2786
sg4
(lp2787
(g15
g6
(g18
S'9\x9fx?'
p2788
tp2789
Rp2790
tp2791
a(g135
g6
(g18
S'\x98\x04\x03<'
p2792
tp2793
Rp2794
tp2795
a(g495
g6
(g18
S'z=\x8a;'
p2796
tp2797
Rp2798
tp2799
a(g104
g6
(g18
S'\x81\xd4Z;'
p2800
tp2801
Rp2802
tp2803
a(g252
g6
(g18
S'\xcb\x03*;'
p2804
tp2805
Rp2806
tp2807
asg73
g15
sa(dp2808
g2
S'../../../data/emanuela/activity-recognition/images/NTCIR-Lifelog-256/u1/2015-03-13/b00000224_21i6bq_20150313_075013e.jpg'
p2809
sg4
(lp2810
(g15
g6
(g18
S'\xef\x18\x7f?'
p2811
tp2812
Rp2813
tp2814
a(g92
g6
(g18
S'"[[;'
p2815
tp2816
Rp2817
tp2818
a(g56
g6
(g18
S'O\xc3\xf88'
p2819
tp2820
Rp2821
tp2822
a(g32
g6
(g18
S"\xee\xd0'8"
p2823
tp2824
Rp2825
tp2826
a(g166
g6
(g18
S'\xecr\xcc6'
p2827
tp2828
Rp2829
tp2830
asg73
g15
sa(dp2831
g2
S'../../../data/emanuela/activity-recognition/images/NTCIR-Lifelog-256/u1/2015-03-09/b00001251_21i6bq_20150309_200733e.jpg'
p2832
sg4
(lp2833
(g15
g6
(g18
S'\x0c\x11\x7f?'
p2834
tp2835
Rp2836
tp2837
a(g56
g6
(g18
S'\xc4\xbb\xd3:'
p2838
tp2839
Rp2840
tp2841
a(g92
g6
(g18
S'\x15\x9e\xa3:'
p2842
tp2843
Rp2844
tp2845
a(g32
g6
(g18
S'\xb8CU9'
p2846
tp2847
Rp2848
tp2849
a(g483
g6
(g18
S'@\xf1\x069'
p2850
tp2851
Rp2852
tp2853
asg73
g15
sa(dp2854
g2
S'../../../data/emanuela/activity-recognition/images/NTCIR-Lifelog-256/u2/2015-04-27/b00005544_21i7lf_20150427_150318e.jpg'
p2855
sg4
(lp2856
(g15
g6
(g18
S'>\x7f~?'
p2857
tp2858
Rp2859
tp2860
a(g32
g6
(g18
S'\xfb\xda\x81;'
p2861
tp2862
Rp2863
tp2864
a(g92
g6
(g18
S'\xab\xfa\x91:'
p2865
tp2866
Rp2867
tp2868
a(g56
g6
(g18
S'y*\xa09'
p2869
tp2870
Rp2871
tp2872
a(g44
g6
(g18
S'\xca\x07\t9'
p2873
tp2874
Rp2875
tp2876
asg73
g15
sa(dp2877
g2
S'../../../data/emanuela/activity-recognition/images/NTCIR-Lifelog-256/u1/2015-03-09/b00001261_21i6bq_20150309_201330e.jpg'
p2878
sg4
(lp2879
(g15
g6
(g18
S'\x92@}?'
p2880
tp2881
Rp2882
tp2883
a(g56
g6
(g18
S'\xaf\xaa\xe8;'
p2884
tp2885
Rp2886
tp2887
a(g92
g6
(g18
S"'\x11\x93:"
p2888
tp2889
Rp2890
tp2891
a(g32
g6
(g18
S'e\xbfo:'
p2892
tp2893
Rp2894
tp2895
a(g68
g6
(g18
S'\xab\xbe\x889'
p2896
tp2897
Rp2898
tp2899
asg73
g15
sa(dp2900
g2
S'../../../data/emanuela/activity-recognition/images/NTCIR-Lifelog-256/u1/2015-03-10/b00000845_21i6bq_20150310_220819e.jpg'
p2901
sg4
(lp2902
(g15
g6
(g18
S'\xa0F@?'
p2903
tp2904
Rp2905
tp2906
a(g178
g6
(g18
S'|i\xef='
p2907
tp2908
Rp2909
tp2910
a(g264
g6
(g18
S'\xa1z\x86='
p2911
tp2912
Rp2913
tp2914
a(g287
g6
(g18
S'Q\xf7\x83<'
p2915
tp2916
Rp2917
tp2918
a(g68
g6
(g18
S'\x12;\x80<'
p2919
tp2920
Rp2921
tp2922
asg73
g15
sa(dp2923
g2
S'../../../data/emanuela/activity-recognition/images/NTCIR-Lifelog-256/u1/2015-02-26/b00001429_21i6bq_20150226_230133e.jpg'
p2924
sg4
(lp2925
(g15
g6
(g18
S'cr\x7f?'
p2926
tp2927
Rp2928
tp2929
a(g264
g6
(g18
S'U\x9dV:'
p2930
tp2931
Rp2932
tp2933
a(g178
g6
(g18
S'\xef+\xb49'
p2934
tp2935
Rp2936
tp2937
a(g32
g6
(g18
S'F\x92\x8f9'
p2938
tp2939
Rp2940
tp2941
a(g190
g6
(g18
S'\x8e9-9'
p2942
tp2943
Rp2944
tp2945
asg73
g15
sa(dp2946
g2
S'../../../data/emanuela/activity-recognition/images/NTCIR-Lifelog-256/u1/2015-03-08/b00000617_21i6bq_20150308_155104e.jpg'
p2947
sg4
(lp2948
(g15
g6
(g18
S'\xb2\xe9|?'
p2949
tp2950
Rp2951
tp2952
a(g135
g6
(g18
S'\xf9@\x1f<'
p2953
tp2954
Rp2955
tp2956
a(g32
g6
(g18
S'\x97(/:'
p2957
tp2958
Rp2959
tp2960
a(g104
g6
(g18
S'\xc7\x9d\xfd9'
p2961
tp2962
Rp2963
tp2964
a(g264
g6
(g18
S'\xddM\x919'
p2965
tp2966
Rp2967
tp2968
asg73
g15
sa(dp2969
g2
S'../../../data/emanuela/activity-recognition/images/NTCIR-Lifelog-256/u1/2015-03-01/b00000410_21i6bq_20150301_110009e.jpg'
p2970
sg4
(lp2971
(g15
g6
(g18
S'Zx\x7f?'
p2972
tp2973
Rp2974
tp2975
a(g190
g6
(g18
S'g\x14<:'
p2976
tp2977
Rp2978
tp2979
a(g32
g6
(g18
S'\xae\xf8x9'
p2980
tp2981
Rp2982
tp2983
a(g56
g6
(g18
S'\xea\x9bv9'
p2984
tp2985
Rp2986
tp2987
a(g264
g6
(g18
S'9X99'
p2988
tp2989
Rp2990
tp2991
asg73
g15
sa(dp2992
g2
S'../../../data/emanuela/activity-recognition/images/NTCIR-Lifelog-256/u2/2015-04-27/b00005555_21i7lf_20150427_151004e.jpg'
p2993
sg4
(lp2994
(g15
g6
(g18
S'~\tw?'
p2995
tp2996
Rp2997
tp2998
a(g92
g6
(g18
S'\x19\xeb\x93<'
p2999
tp3000
Rp3001
tp3002
a(g56
g6
(g18
S'\x1d\x00.<'
p3003
tp3004
Rp3005
tp3006
a(g32
g6
(g18
S'\xfd\xdfO;'
p3007
tp3008
Rp3009
tp3010
a(g104
g6
(g18
S'#\x8d\xa5:'
p3011
tp3012
Rp3013
tp3014
asg73
g15
sa(dp3015
g2
S'../../../data/emanuela/activity-recognition/images/NTCIR-Lifelog-256/u1/2015-02-26/b00001449_21i6bq_20150226_231647e.jpg'
p3016
sg4
(lp3017
(g15
g6
(g18
S'\xf2\x9d\x7f?'
p3018
tp3019
Rp3020
tp3021
a(g178
g6
(g18
S'\xfa\x14J:'
p3022
tp3023
Rp3024
tp3025
a(g44
g6
(g18
S'\xeb\x97\x9a9'
p3026
tp3027
Rp3028
tp3029
a(g190
g6
(g18
S'\xac\\\xf38'
p3030
tp3031
Rp3032
tp3033
a(g166
g6
(g18
S'W \x8a8'
p3034
tp3035
Rp3036
tp3037
asg73
g15
sa(dp3038
g2
S'../../../data/emanuela/activity-recognition/images/NTCIR-Lifelog-256/u1/2015-03-19/b00002275_21i6bq_20150319_143611e.jpg'
p3039
sg4
(lp3040
(g15
g6
(g18
S'4F|?'
p3041
tp3042
Rp3043
tp3044
a(g147
g6
(g18
S'\xbd\x9d\xc4;'
p3045
tp3046
Rp3047
tp3048
a(g135
g6
(g18
S'\xa8\n=;'
p3049
tp3050
Rp3051
tp3052
a(g32
g6
(g18
S'\xdff\xee:'
p3053
tp3054
Rp3055
tp3056
a(g44
g6
(g18
S'V\xc7\xc3:'
p3057
tp3058
Rp3059
tp3060
asg73
g15
sa(dp3061
g2
S'../../../data/emanuela/activity-recognition/images/NTCIR-Lifelog-256/u1/2015-02-26/b00000169_21i6bq_20150226_075044e.jpg'
p3062
sg4
(lp3063
(g15
g6
(g18
S'\xd5~\xc6>'
p3064
tp3065
Rp3066
tp3067
a(g104
g6
(g18
S'\xc9\x80}>'
p3068
tp3069
Rp3070
tp3071
a(g495
g6
(g18
S'T\xfb\xcf='
p3072
tp3073
Rp3074
tp3075
a(g68
g6
(g18
S'\xd9\xb5\x83='
p3076
tp3077
Rp3078
tp3079
a(g56
g6
(g18
S']z2='
p3080
tp3081
Rp3082
tp3083
asg73
g15
sa(dp3084
g2
S'../../../data/emanuela/activity-recognition/images/NTCIR-Lifelog-256/u1/2015-03-16/b00002429_21i6bq_20150316_155815e.jpg'
p3085
sg4
(lp3086
(g15
g6
(g18
S'\xcev\x7f?'
p3087
tp3088
Rp3089
tp3090
a(g495
g6
(g18
S'5s-:'
p3091
tp3092
Rp3093
tp3094
a(g56
g6
(g18
S'^\xc8\xe29'
p3095
tp3096
Rp3097
tp3098
a(g92
g6
(g18
S'\xd3q\xd99'
p3099
tp3100
Rp3101
tp3102
a(g104
g6
(g18
S'\x83<\t9'
p3103
tp3104
Rp3105
tp3106
asg73
g15
sa(dp3107
g2
S'../../../data/emanuela/activity-recognition/images/NTCIR-Lifelog-256/u2/2015-05-03/b00003575_21i7lf_20150503_123055e.jpg'
p3108
sg4
(lp3109
(g15
g6
(g18
S'\xa8@H?'
p3110
tp3111
Rp3112
tp3113
a(g68
g6
(g18
S'\x95\x84\xae='
p3114
tp3115
Rp3116
tp3117
a(g483
g6
(g18
S'\\\xf1\x0c='
p3118
tp3119
Rp3120
tp3121
a(g56
g6
(g18
S'\xa1W\xd0<'
p3122
tp3123
Rp3124
tp3125
a(g32
g6
(g18
S'\xe2)\x88<'
p3126
tp3127
Rp3128
tp3129
asg73
g15
sa(dp3130
g2
S'../../../data/emanuela/activity-recognition/images/NTCIR-Lifelog-256/u1/2015-03-09/b00001262_21i6bq_20150309_201404e.jpg'
p3131
sg4
(lp3132
(g15
g6
(g18
S'\x822{?'
p3133
tp3134
Rp3135
tp3136
a(g56
g6
(g18
S'\xb9%\r<'
p3137
tp3138
Rp3139
tp3140
a(g92
g6
(g18
S'\xf2\xe5\xd6;'
p3141
tp3142
Rp3143
tp3144
a(g44
g6
(g18
S']-\xa2:'
p3145
tp3146
Rp3147
tp3148
a(g178
g6
(g18
S'\xdd\xad#:'
p3149
tp3150
Rp3151
tp3152
asg73
g15
sa(dp3153
g2
S'../../../data/emanuela/activity-recognition/images/NTCIR-Lifelog-256/u1/2015-03-06/b00001606_21i6bq_20150306_215852e.jpg'
p3154
sg4
(lp3155
(g15
g6
(g18
S'"\xaf\x7f?'
p3156
tp3157
Rp3158
tp3159
a(g166
g6
(g18
S'Hy\xc79'
p3160
tp3161
Rp3162
tp3163
a(g92
g6
(g18
S'\x94"\xb19'
p3164
tp3165
Rp3166
tp3167
a(g56
g6
(g18
S'3\x84\xec8'
p3168
tp3169
Rp3170
tp3171
a(g178
g6
(g18
S'M\x98\xcb8'
p3172
tp3173
Rp3174
tp3175
asg73
g15
sa(dp3176
g2
S'../../../data/emanuela/activity-recognition/images/NTCIR-Lifelog-256/u2/2015-04-20/b00000600_21i7lf_20150420_155455e.jpg'
p3177
sg4
(lp3178
(g104
g6
(g18
S'\xb9\xf1\xf2>'
p3179
tp3180
Rp3181
tp3182
a(g252
g6
(g18
S'L\xae4>'
p3183
tp3184
Rp3185
tp3186
a(g32
g6
(g18
S'\xc3\xc7\x0b>'
p3187
tp3188
Rp3189
tp3190
a(g15
g6
(g18
S'\xb3\xbf\xa6='
p3191
tp3192
Rp3193
tp3194
a(g44
g6
(g18
S'\xe8\x8f\xcc<'
p3195
tp3196
Rp3197
tp3198
asg73
g15
sa(dp3199
g2
S'../../../data/emanuela/activity-recognition/images/NTCIR-Lifelog-256/u1/2015-02-26/b00000214_21i6bq_20150226_082438e.jpg'
p3200
sg4
(lp3201
(g15
g6
(g18
S'oSb?'
p3202
tp3203
Rp3204
tp3205
a(g178
g6
(g18
S'd%\xee<'
p3206
tp3207
Rp3208
tp3209
a(g92
g6
(g18
S'X\xaa`<'
p3210
tp3211
Rp3212
tp3213
a(g264
g6
(g18
S'\xd5\xefY<'
p3214
tp3215
Rp3216
tp3217
a(g32
g6
(g18
S'\xef\xceH<'
p3218
tp3219
Rp3220
tp3221
asg73
g15
sa(dp3222
g2
S'../../../data/emanuela/activity-recognition/images/NTCIR-Lifelog-256/u1/2015-03-16/b00002410_21i6bq_20150316_154641e.jpg'
p3223
sg4
(lp3224
(g15
g6
(g18
S'B\xf0~?'
p3225
tp3226
Rp3227
tp3228
a(g495
g6
(g18
S'w\xb8\xd0:'
p3229
tp3230
Rp3231
tp3232
a(g135
g6
(g18
S"\xed\xa2':"
p3233
tp3234
Rp3235
tp3236
a(g92
g6
(g18
S'3@\xf09'
p3237
tp3238
Rp3239
tp3240
a(g6
(g7
(S'S7'
p3241
I0
I1
tp3242
Rp3243
(I3
S'|'
p3244
NNNI7
I1
I0
tp3245
bS'cooking'
p3246
tp3247
Rp3248
g6
(g18
S'\xfb\xd5\xa19'
p3249
tp3250
Rp3251
tp3252
asg73
g15
sa(dp3253
g2
S'../../../data/emanuela/activity-recognition/images/NTCIR-Lifelog-256/u1/2015-03-02/b00001237_21i6bq_20150302_200220e.jpg'
p3254
sg4
(lp3255
(g15
g6
(g18
S'\x11\xfby?'
p3256
tp3257
Rp3258
tp3259
a(g56
g6
(g18
S't8\x03<'
p3260
tp3261
Rp3262
tp3263
a(g32
g6
(g18
S'U-q;'
p3264
tp3265
Rp3266
tp3267
a(g92
g6
(g18
S'_\x02`;'
p3268
tp3269
Rp3270
tp3271
a(g483
g6
(g18
S'\xec\x85\xda:'
p3272
tp3273
Rp3274
tp3275
asg73
g15
sa(dp3276
g2
S'../../../data/emanuela/activity-recognition/images/NTCIR-Lifelog-256/u2/2015-06-16/b00001592_21i7lf_20150616_100125e.jpg'
p3277
sg4
(lp3278
(g15
g6
(g18
S'\xa4\x1a@?'
p3279
tp3280
Rp3281
tp3282
a(g135
g6
(g18
S',\xb2\xfe='
p3283
tp3284
Rp3285
tp3286
a(g104
g6
(g18
S'~\xc0\x81='
p3287
tp3288
Rp3289
tp3290
a(g495
g6
(g18
S'`i\x9e<'
p3291
tp3292
Rp3293
tp3294
a(g3248
g6
(g18
S'f\x1f\x9c<'
p3295
tp3296
Rp3297
tp3298
asg73
g15
sa(dp3299
g2
S'../../../data/emanuela/activity-recognition/images/NTCIR-Lifelog-256/u1/2015-03-08/b00001259_21i6bq_20150308_224248e.jpg'
p3300
sg4
(lp3301
(g15
g6
(g18
S'8\x1e\x7f?'
p3302
tp3303
Rp3304
tp3305
a(g264
g6
(g18
S'j\xd2\xbb:'
p3306
tp3307
Rp3308
tp3309
a(g92
g6
(g18
S'?B\xe59'
p3310
tp3311
Rp3312
tp3313
a(g190
g6
(g18
S'\xcbf\xd59'
p3314
tp3315
Rp3316
tp3317
a(g68
g6
(g18
S'\xb8\x8ev9'
p3318
tp3319
Rp3320
tp3321
asg73
g15
sa(dp3322
g2
S'../../../data/emanuela/activity-recognition/images/NTCIR-Lifelog-256/u1/2015-03-17/b00000353_21i6bq_20150317_115709e.jpg'
p3323
sg4
(lp3324
(g15
g6
(g18
S'~\x8c~?'
p3325
tp3326
Rp3327
tp3328
a(g264
g6
(g18
S'\n\xe2\xb2:'
p3329
tp3330
Rp3331
tp3332
a(g32
g6
(g18
S'Gv\xa4:'
p3333
tp3334
Rp3335
tp3336
a(g92
g6
(g18
S"'\xcf\x8a:"
p3337
tp3338
Rp3339
tp3340
a(g190
g6
(g18
S'\x04\xc3S:'
p3341
tp3342
Rp3343
tp3344
asg73
g15
sa(dp3345
g2
S'../../../data/emanuela/activity-recognition/images/NTCIR-Lifelog-256/u1/2015-02-26/b00001403_21i6bq_20150226_224247e.jpg'
p3346
sg4
(lp3347
(g15
g6
(g18
S'?\xd4\x7f?'
p3348
tp3349
Rp3350
tp3351
a(g264
g6
(g18
S'Y\x10"9'
p3352
tp3353
Rp3354
tp3355
a(g92
g6
(g18
S'\xc0\x90\xf98'
p3356
tp3357
Rp3358
tp3359
a(g190
g6
(g18
S'h\x88n8'
p3360
tp3361
Rp3362
tp3363
a(g32
g6
(g18
S'`<J8'
p3364
tp3365
Rp3366
tp3367
asg73
g15
sa(dp3368
g2
S'../../../data/emanuela/activity-recognition/images/NTCIR-Lifelog-256/u1/2015-03-16/b00002453_21i6bq_20150316_161318e.jpg'
p3369
sg4
(lp3370
(g15
g6
(g18
S'z\xaf^?'
p3371
tp3372
Rp3373
tp3374
a(g92
g6
(g18
S'\r\xa0\xa1='
p3375
tp3376
Rp3377
tp3378
a(g495
g6
(g18
S'\xa2^{<'
p3379
tp3380
Rp3381
tp3382
a(g56
g6
(g18
S'\xd56G<'
p3383
tp3384
Rp3385
tp3386
a(g104
g6
(g18
S'\xfc@\x93;'
p3387
tp3388
Rp3389
tp3390
asg73
g15
sa(dp3391
g2
S'../../../data/emanuela/activity-recognition/images/NTCIR-Lifelog-256/u2/2015-04-20/b00000698_21i7lf_20150420_165607e.jpg'
p3392
sg4
(lp3393
(g15
g6
(g18
S'\xa3\xe0\x17?'
p3394
tp3395
Rp3396
tp3397
a(g32
g6
(g18
S'\xcc\xd5f>'
p3398
tp3399
Rp3400
tp3401
a(g264
g6
(g18
S'\xac+\xcf='
p3402
tp3403
Rp3404
tp3405
a(g104
g6
(g18
S'V9e='
p3406
tp3407
Rp3408
tp3409
a(g495
g6
(g18
S'\xad\xe3Y;'
p3410
tp3411
Rp3412
tp3413
asg73
g15
sa(dp3414
g2
S'../../../data/emanuela/activity-recognition/images/NTCIR-Lifelog-256/u1/2015-02-25/b00000200_21i6bq_20150225_080713e.jpg'
p3415
sg4
(lp3416
(g68
g6
(g18
S'xt\x10?'
p3417
tp3418
Rp3419
tp3420
a(g104
g6
(g18
S'\xbf\x87\t>'
p3421
tp3422
Rp3423
tp3424
a(g56
g6
(g18
S'xV\x8b='
p3425
tp3426
Rp3427
tp3428
a(g178
g6
(g18
S'CB\x08='
p3429
tp3430
Rp3431
tp3432
a(g15
g6
(g18
S'\x13\xc3\x00='
p3433
tp3434
Rp3435
tp3436
asg73
g15
sa(dp3437
g2
S'../../../data/emanuela/activity-recognition/images/NTCIR-Lifelog-256/u1/2015-03-03/b00000681_21i6bq_20150303_140949e.jpg'
p3438
sg4
(lp3439
(g56
g6
(g18
S'\xdc\xc3\xfb>'
p3440
tp3441
Rp3442
tp3443
a(g15
g6
(g18
S'd\x10\xc2>'
p3444
tp3445
Rp3446
tp3447
a(g92
g6
(g18
S'\xd2\xa7\xe3='
p3448
tp3449
Rp3450
tp3451
a(g32
g6
(g18
S'\x96\x17 <'
p3452
tp3453
Rp3454
tp3455
a(g68
g6
(g18
S'\xd2"~;'
p3456
tp3457
Rp3458
tp3459
asg73
g15
sa(dp3460
g2
S'../../../data/emanuela/activity-recognition/images/NTCIR-Lifelog-256/u1/2015-03-10/b00000852_21i6bq_20150310_221240e.jpg'
p3461
sg4
(lp3462
(g15
g6
(g18
S'x\rz?'
p3463
tp3464
Rp3465
tp3466
a(g178
g6
(g18
S'A\xc4&<'
p3467
tp3468
Rp3469
tp3470
a(g68
g6
(g18
S'\xfbii;'
p3471
tp3472
Rp3473
tp3474
a(g264
g6
(g18
S'\x97q];'
p3475
tp3476
Rp3477
tp3478
a(g190
g6
(g18
S'\xd7\xc9\xf4:'
p3479
tp3480
Rp3481
tp3482
asg73
g15
sa(dp3483
g2
S'../../../data/emanuela/activity-recognition/images/NTCIR-Lifelog-256/u1/2015-03-01/b00001301_21i6bq_20150301_195641e.jpg'
p3484
sg4
(lp3485
(g15
g6
(g18
S'\x8aF~?'
p3486
tp3487
Rp3488
tp3489
a(g56
g6
(g18
S'\x93\xd7\xb7:'
p3490
tp3491
Rp3492
tp3493
a(g92
g6
(g18
S'\x88.\xb6:'
p3494
tp3495
Rp3496
tp3497
a(g32
g6
(g18
S'\x97j\xb4:'
p3498
tp3499
Rp3500
tp3501
a(g495
g6
(g18
S'\xeae\x16:'
p3502
tp3503
Rp3504
tp3505
asg73
g15
sa(dp3506
g2
S'../../../data/emanuela/activity-recognition/images/NTCIR-Lifelog-256/u1/2015-03-07/b00000116_21i6bq_20150307_083143e.jpg'
p3507
sg4
(lp3508
(g15
g6
(g18
S'x\xf8\x7f?'
p3509
tp3510
Rp3511
tp3512
a(g92
g6
(g18
S'k\x95\x918'
p3513
tp3514
Rp3515
tp3516
a(g166
g6
(g18
S'$\xae27'
p3517
tp3518
Rp3519
tp3520
a(g56
g6
(g18
S'\xdb\x91\x1c7'
p3521
tp3522
Rp3523
tp3524
a(g264
g6
(g18
S'=\xda\x147'
p3525
tp3526
Rp3527
tp3528
asg73
g15
sa(dp3529
g2
S'../../../data/emanuela/activity-recognition/images/NTCIR-Lifelog-256/u2/2015-04-20/b00000599_21i7lf_20150420_155422e.jpg'
p3530
sg4
(lp3531
(g56
g6
(g18
S'+\x06\x8c>'
p3532
tp3533
Rp3534
tp3535
a(g68
g6
(g18
S'\xef>v>'
p3536
tp3537
Rp3538
tp3539
a(g104
g6
(g18
S'\x01\xc6\x16>'
p3540
tp3541
Rp3542
tp3543
a(g32
g6
(g18
S'\x92\xdf\xbc='
p3544
tp3545
Rp3546
tp3547
a(g264
g6
(g18
S'\xd3\xa3\xb8='
p3548
tp3549
Rp3550
tp3551
asg73
g15
sa(dp3552
g2
S'../../../data/emanuela/activity-recognition/images/NTCIR-Lifelog-256/u2/2015-04-20/b00000640_21i7lf_20150420_162027e.jpg'
p3553
sg4
(lp3554
(g15
g6
(g18
S'\x1c\xa9\x7f?'
p3555
tp3556
Rp3557
tp3558
a(g92
g6
(g18
S'\xcd+\xcf9'
p3559
tp3560
Rp3561
tp3562
a(g32
g6
(g18
S'p}V9'
p3563
tp3564
Rp3565
tp3566
a(g264
g6
(g18
S'\xad\xc0\x149'
p3567
tp3568
Rp3569
tp3570
a(g166
g6
(g18
S'Y\xce\xdd8'
p3571
tp3572
Rp3573
tp3574
asg73
g15
sa(dp3575
g2
S'../../../data/emanuela/activity-recognition/images/NTCIR-Lifelog-256/u1/2015-03-01/b00001273_21i6bq_20150301_193941e.jpg'
p3576
sg4
(lp3577
(g15
g6
(g18
S'A\xf6h?'
p3578
tp3579
Rp3580
tp3581
a(g56
g6
(g18
S'D\xff\xfd<'
p3582
tp3583
Rp3584
tp3585
a(g32
g6
(g18
S'#\xab\x0c<'
p3586
tp3587
Rp3588
tp3589
a(g178
g6
(g18
S'{\x9c\xf3;'
p3590
tp3591
Rp3592
tp3593
a(g68
g6
(g18
S'\x90\x9e\xd2;'
p3594
tp3595
Rp3596
tp3597
asg73
g15
sa(dp3598
g2
S'../../../data/emanuela/activity-recognition/images/NTCIR-Lifelog-256/u1/2015-03-06/b00000520_21i6bq_20150306_105723e.jpg'
p3599
sg4
(lp3600
(g495
g6
(g18
S'5Nh?'
p3601
tp3602
Rp3603
tp3604
a(g68
g6
(g18
S'\xdd\x7f\xc6<'
p3605
tp3606
Rp3607
tp3608
a(g15
g6
(g18
S'|8\xa2<'
p3609
tp3610
Rp3611
tp3612
a(g56
g6
(g18
S'\xa9(7<'
p3613
tp3614
Rp3615
tp3616
a(g104
g6
(g18
S']d\x0c<'
p3617
tp3618
Rp3619
tp3620
asg73
g15
sa(dp3621
g2
S'../../../data/emanuela/activity-recognition/images/NTCIR-Lifelog-256/u1/2015-02-25/b00000314_21i6bq_20150225_091413e.jpg'
p3622
sg4
(lp3623
(g104
g6
(g18
S'i\xd1\xf3>'
p3624
tp3625
Rp3626
tp3627
a(g32
g6
(g18
S'\x86\x0e<>'
p3628
tp3629
Rp3630
tp3631
a(g15
g6
(g18
S'\x9f\xea\xde='
p3632
tp3633
Rp3634
tp3635
a(g495
g6
(g18
S'Fq\x15='
p3636
tp3637
Rp3638
tp3639
a(g68
g6
(g18
S'V\xa9\x07='
p3640
tp3641
Rp3642
tp3643
asg73
g15
sa(dp3644
g2
S'../../../data/emanuela/activity-recognition/images/NTCIR-Lifelog-256/u2/2015-04-20/b00000647_21i7lf_20150420_162438e.jpg'
p3645
sg4
(lp3646
(g32
g6
(g18
S'\xdf\xb2\x15?'
p3647
tp3648
Rp3649
tp3650
a(g15
g6
(g18
S'p\xe5x>'
p3651
tp3652
Rp3653
tp3654
a(g56
g6
(g18
S'\xecO\xac='
p3655
tp3656
Rp3657
tp3658
a(g264
g6
(g18
S'\x89\x82\xf3<'
p3659
tp3660
Rp3661
tp3662
a(g104
g6
(g18
S'R$\xa9<'
p3663
tp3664
Rp3665
tp3666
asg73
g15
sa(dp3667
g2
S'../../../data/emanuela/activity-recognition/images/NTCIR-Lifelog-256/u2/2015-04-27/b00005457_21i7lf_20150427_140914e.jpg'
p3668
sg4
(lp3669
(g15
g6
(g18
S'\x80\x8f!?'
p3670
tp3671
Rp3672
tp3673
a(g56
g6
(g18
S'^\x81\x0e>'
p3674
tp3675
Rp3676
tp3677
a(g32
g6
(g18
S'A\xe6\xba='
p3678
tp3679
Rp3680
tp3681
a(g104
g6
(g18
S's\xe8\x8a='
p3682
tp3683
Rp3684
tp3685
a(g264
g6
(g18
S'&\xb8\x9c<'
p3686
tp3687
Rp3688
tp3689
asg73
g15
sa(dp3690
g2
S'../../../data/emanuela/activity-recognition/images/NTCIR-Lifelog-256/u1/2015-03-08/b00000621_21i6bq_20150308_155324e.jpg'
p3691
sg4
(lp3692
(g15
g6
(g18
S'\x8f\x0ed?'
p3693
tp3694
Rp3695
tp3696
a(g135
g6
(g18
S'\x1ce\xb6='
p3697
tp3698
Rp3699
tp3700
a(g104
g6
(g18
S',\xd1\xb7;'
p3701
tp3702
Rp3703
tp3704
a(g32
g6
(g18
S'\xe9S\x8d;'
p3705
tp3706
Rp3707
tp3708
a(g3248
g6
(g18
S'\x86\xc7(;'
p3709
tp3710
Rp3711
tp3712
asg73
g15
sa(dp3713
g2
S'../../../data/emanuela/activity-recognition/images/NTCIR-Lifelog-256/u1/2015-03-16/b00002442_21i6bq_20150316_160605e.jpg'
p3714
sg4
(lp3715
(g15
g6
(g18
S'F\x04u?'
p3716
tp3717
Rp3718
tp3719
a(g135
g6
(g18
S'\xc6\xe0\xc7<'
p3720
tp3721
Rp3722
tp3723
a(g264
g6
(g18
S'\xfc$\xd5;'
p3724
tp3725
Rp3726
tp3727
a(g495
g6
(g18
S'\x95\x9a\x1c;'
p3728
tp3729
Rp3730
tp3731
a(g252
g6
(g18
S'\xf0\xf3\x19;'
p3732
tp3733
Rp3734
tp3735
asg73
g15
sa(dp3736
g2
S'../../../data/emanuela/activity-recognition/images/NTCIR-Lifelog-256/u1/2015-03-16/b00002519_21i6bq_20150316_165012e.jpg'
p3737
sg4
(lp3738
(g15
g6
(g18
S'\x12\xcaq?'
p3739
tp3740
Rp3741
tp3742
a(g135
g6
(g18
S'\xe6\xd3\x16='
p3743
tp3744
Rp3745
tp3746
a(g147
g6
(g18
S'\x92t\x8a;'
p3747
tp3748
Rp3749
tp3750
a(g252
g6
(g18
S'y\xc6G;'
p3751
tp3752
Rp3753
tp3754
a(g264
g6
(g18
S'\xf5\x96\x18;'
p3755
tp3756
Rp3757
tp3758
asg73
g15
sa(dp3759
g2
S'../../../data/emanuela/activity-recognition/images/NTCIR-Lifelog-256/u1/2015-02-26/b00001433_21i6bq_20150226_230516e.jpg'
p3760
sg4
(lp3761
(g15
g6
(g18
S'8\xd3\x7f?'
p3762
tp3763
Rp3764
tp3765
a(g264
g6
(g18
S'\x07\xbf\x899'
p3766
tp3767
Rp3768
tp3769
a(g92
g6
(g18
S'\\\xd3\\9'
p3770
tp3771
Rp3772
tp3773
a(g56
g6
(g18
S'K\xcf\x178'
p3774
tp3775
Rp3776
tp3777
a(g166
g6
(g18
S'66\xd47'
p3778
tp3779
Rp3780
tp3781
asg73
g15
sa(dp3782
g2
S'../../../data/emanuela/activity-recognition/images/NTCIR-Lifelog-256/u1/2015-03-09/b00001254_21i6bq_20150309_200931e.jpg'
p3783
sg4
(lp3784
(g15
g6
(g18
S'\xc1\x14\x7f?'
p3785
tp3786
Rp3787
tp3788
a(g56
g6
(g18
S'Cr\x93:'
p3789
tp3790
Rp3791
tp3792
a(g92
g6
(g18
S'O\xb0e:'
p3793
tp3794
Rp3795
tp3796
a(g166
g6
(g18
S']p\x969'
p3797
tp3798
Rp3799
tp3800
a(g483
g6
(g18
S'\x07\xc6\x849'
p3801
tp3802
Rp3803
tp3804
asg73
g15
sa(dp3805
g2
S'../../../data/emanuela/activity-recognition/images/NTCIR-Lifelog-256/u1/2015-03-09/b00001234_21i6bq_20150309_195708e.jpg'
p3806
sg4
(lp3807
(g15
g6
(g18
S'\x06\x01w?'
p3808
tp3809
Rp3810
tp3811
a(g92
g6
(g18
S'0\xe7\x8c<'
p3812
tp3813
Rp3814
tp3815
a(g56
g6
(g18
S'\x86\xa38<'
p3816
tp3817
Rp3818
tp3819
a(g32
g6
(g18
S'\x8f\x16<;'
p3820
tp3821
Rp3822
tp3823
a(g68
g6
(g18
S'3\x1a\x8f:'
p3824
tp3825
Rp3826
tp3827
asg73
g15
sa(dp3828
g2
S'../../../data/emanuela/activity-recognition/images/NTCIR-Lifelog-256/u1/2015-03-19/b00002281_21i6bq_20150319_143948e.jpg'
p3829
sg4
(lp3830
(g15
g6
(g18
S'*\xb0s?'
p3831
tp3832
Rp3833
tp3834
a(g135
g6
(g18
S'a\x1d\x8a<'
p3835
tp3836
Rp3837
tp3838
a(g147
g6
(g18
S'\xa8\x13<<'
p3839
tp3840
Rp3841
tp3842
a(g32
g6
(g18
S'D\xca.<'
p3843
tp3844
Rp3845
tp3846
a(g44
g6
(g18
S'm\x1e\xa4;'
p3847
tp3848
Rp3849
tp3850
asg73
g15
sa(dp3851
g2
S'../../../data/emanuela/activity-recognition/images/NTCIR-Lifelog-256/u2/2015-04-21/b00000452_21i7lf_20150421_143035e.jpg'
p3852
sg4
(lp3853
(g32
g6
(g18
S'\xb0\xe1z?'
p3854
tp3855
Rp3856
tp3857
a(g15
g6
(g18
S'\xeaY\x83<'
p3858
tp3859
Rp3860
tp3861
a(g104
g6
(g18
S'\xe47\xc2:'
p3862
tp3863
Rp3864
tp3865
a(g68
g6
(g18
S'\xb4\xb9X:'
p3866
tp3867
Rp3868
tp3869
a(g264
g6
(g18
S'\x93\xfe\xc49'
p3870
tp3871
Rp3872
tp3873
asg73
g15
sa(dp3874
g2
S'../../../data/emanuela/activity-recognition/images/NTCIR-Lifelog-256/u1/2015-03-01/b00001304_21i6bq_20150301_195827e.jpg'
p3875
sg4
(lp3876
(g15
g6
(g18
S'\x15\xe5\x7f?'
p3877
tp3878
Rp3879
tp3880
a(g166
g6
(g18
S'\xf2\xf1\x1e9'
p3881
tp3882
Rp3883
tp3884
a(g92
g6
(g18
S'\x91\xad\xa68'
p3885
tp3886
Rp3887
tp3888
a(g56
g6
(g18
S'l\xae\x9d8'
p3889
tp3890
Rp3891
tp3892
a(g147
g6
(g18
S'\x96\x18\xc27'
p3893
tp3894
Rp3895
tp3896
asg73
g15
sa(dp3897
g2
S'../../../data/emanuela/activity-recognition/images/NTCIR-Lifelog-256/u2/2015-04-20/b00000546_21i7lf_20150420_152103e.jpg'
p3898
sg4
(lp3899
(g15
g6
(g18
S'\xfc)e?'
p3900
tp3901
Rp3902
tp3903
a(g178
g6
(g18
S'\xf7\xca\xdc<'
p3904
tp3905
Rp3906
tp3907
a(g166
g6
(g18
S'qP\xd4<'
p3908
tp3909
Rp3910
tp3911
a(g44
g6
(g18
S'|\xc6x<'
p3912
tp3913
Rp3914
tp3915
a(g68
g6
(g18
S'\xbe\xd5\xfd;'
p3916
tp3917
Rp3918
tp3919
asg73
g15
sa(dp3920
g2
S'../../../data/emanuela/activity-recognition/images/NTCIR-Lifelog-256/u1/2015-03-01/b00000409_21i6bq_20150301_105934e.jpg'
p3921
sg4
(lp3922
(g15
g6
(g18
S'0\xdf\x7f?'
p3923
tp3924
Rp3925
tp3926
a(g190
g6
(g18
S'J\xfa\xfb9'
p3927
tp3928
Rp3929
tp3930
a(g166
g6
(g18
S'\x80\x88\x147'
p3931
tp3932
Rp3933
tp3934
a(g147
g6
(g18
S'\xd5A\x1b6'
p3935
tp3936
Rp3937
tp3938
a(g32
g6
(g18
S'w\x7f\x186'
p3939
tp3940
Rp3941
tp3942
asg73
g15
sa(dp3943
g2
S'../../../data/emanuela/activity-recognition/images/NTCIR-Lifelog-256/u1/2015-02-23/b00000094_21i6bq_20150223_080316e.jpg'
p3944
sg4
(lp3945
(g15
g6
(g18
S'\x13l\xf7>'
p3946
tp3947
Rp3948
tp3949
a(g178
g6
(g18
S';\x81\xcb>'
p3950
tp3951
Rp3952
tp3953
a(g166
g6
(g18
S'C \x98='
p3954
tp3955
Rp3956
tp3957
a(g264
g6
(g18
S'"\t\xa5<'
p3958
tp3959
Rp3960
tp3961
a(g68
g6
(g18
S'4[\xbc;'
p3962
tp3963
Rp3964
tp3965
asg73
g15
sa(dp3966
g2
S'../../../data/emanuela/activity-recognition/images/NTCIR-Lifelog-256/u1/2015-03-09/b00001238_21i6bq_20150309_195936e.jpg'
p3967
sg4
(lp3968
(g15
g6
(g18
S'\xc8\xfb~?'
p3969
tp3970
Rp3971
tp3972
a(g56
g6
(g18
S'\x06\xbd\t;'
p3973
tp3974
Rp3975
tp3976
a(g92
g6
(g18
S'M&\xa3:'
p3977
tp3978
Rp3979
tp3980
a(g32
g6
(g18
S'\xab\xc599'
p3981
tp3982
Rp3983
tp3984
a(g68
g6
(g18
S'+\xfc\t9'
p3985
tp3986
Rp3987
tp3988
asg73
g15
sa(dp3989
g2
S'../../../data/emanuela/activity-recognition/images/NTCIR-Lifelog-256/u1/2015-03-06/b00001632_21i6bq_20150306_221427e.jpg'
p3990
sg4
(lp3991
(g15
g6
(g18
S'\t\xa4\x7f?'
p3992
tp3993
Rp3994
tp3995
a(g264
g6
(g18
S'\xcd\xf2\x1f:'
p3996
tp3997
Rp3998
tp3999
a(g104
g6
(g18
S'\x0b!;9'
p4000
tp4001
Rp4002
tp4003
a(g495
g6
(g18
S'>R\x149'
p4004
tp4005
Rp4006
tp4007
a(g92
g6
(g18
S'\x9a\xec\x109'
p4008
tp4009
Rp4010
tp4011
asg73
g15
sa(dp4012
g2
S'../../../data/emanuela/activity-recognition/images/NTCIR-Lifelog-256/u2/2015-04-27/b00005459_21i7lf_20150427_141049e.jpg'
p4013
sg4
(lp4014
(g15
g6
(g18
S'\xe9\x95t?'
p4015
tp4016
Rp4017
tp4018
a(g56
g6
(g18
S'\x7f7\xdc<'
p4019
tp4020
Rp4021
tp4022
a(g104
g6
(g18
S'Eb\x01<'
p4023
tp4024
Rp4025
tp4026
a(g32
g6
(g18
S'\x03"\xa9;'
p4027
tp4028
Rp4029
tp4030
a(g92
g6
(g18
S'\xb3\xf0\x97:'
p4031
tp4032
Rp4033
tp4034
asg73
g15
sa(dp4035
g2
S'../../../data/emanuela/activity-recognition/images/NTCIR-Lifelog-256/u1/2015-03-18/b00000964_21i6bq_20150318_181932e.jpg'
p4036
sg4
(lp4037
(g15
g6
(g18
S'\xaapv?'
p4038
tp4039
Rp4040
tp4041
a(g92
g6
(g18
S'4\x9a\x86<'
p4042
tp4043
Rp4044
tp4045
a(g56
g6
(g18
S'\x87\x8f\x1f<'
p4046
tp4047
Rp4048
tp4049
a(g32
g6
(g18
S'\xb9\xd0\x10<'
p4050
tp4051
Rp4052
tp4053
a(g264
g6
(g18
S'\x83\xc7(:'
p4054
tp4055
Rp4056
tp4057
asg73
g15
sa(dp4058
g2
S'../../../data/emanuela/activity-recognition/images/NTCIR-Lifelog-256/u1/2015-02-24/b00000267_21i6bq_20150224_092235e.jpg'
p4059
sg4
(lp4060
(g32
g6
(g18
S'O\xee\x8b>'
p4061
tp4062
Rp4063
tp4064
a(g15
g6
(g18
S'\xed:\x8b>'
p4065
tp4066
Rp4067
tp4068
a(g68
g6
(g18
S'\xd3\xd5?>'
p4069
tp4070
Rp4071
tp4072
a(g44
g6
(g18
S'\xb3H)>'
p4073
tp4074
Rp4075
tp4076
a(g56
g6
(g18
S'\xfa\x9d\x92='
p4077
tp4078
Rp4079
tp4080
asg73
g15
sa(dp4081
g2
S'../../../data/emanuela/activity-recognition/images/NTCIR-Lifelog-256/u1/2015-03-01/b00001253_21i6bq_20150301_192607e.jpg'
p4082
sg4
(lp4083
(g15
g6
(g18
S'\xa2\xb4\x7f?'
p4084
tp4085
Rp4086
tp4087
a(g92
g6
(g18
S'c\x1a\x04:'
p4088
tp4089
Rp4090
tp4091
a(g56
g6
(g18
S'\xe0\xee\xf59'
p4092
tp4093
Rp4094
tp4095
a(g32
g6
(g18
S'%^J8'
p4096
tp4097
Rp4098
tp4099
a(g166
g6
(g18
S'\xb01\t8'
p4100
tp4101
Rp4102
tp4103
asg73
g15
sa(dp4104
g2
S'../../../data/emanuela/activity-recognition/images/NTCIR-Lifelog-256/u1/2015-03-10/b00000908_21i6bq_20150310_224645e.jpg'
p4105
sg4
(lp4106
(g15
g6
(g18
S'!\x9c\x7f?'
p4107
tp4108
Rp4109
tp4110
a(g264
g6
(g18
S'_>\xb49'
p4111
tp4112
Rp4113
tp4114
a(g92
g6
(g18
S'd\x0b\xaf9'
p4115
tp4116
Rp4117
tp4118
a(g178
g6
(g18
S'\xf3\xf1\n9'
p4119
tp4120
Rp4121
tp4122
a(g166
g6
(g18
S'#\x04\x069'
p4123
tp4124
Rp4125
tp4126
asg73
g15
sa(dp4127
g2
S'../../../data/emanuela/activity-recognition/images/NTCIR-Lifelog-256/u1/2015-03-16/b00002428_21i6bq_20150316_155742e.jpg'
p4128
sg4
(lp4129
(g15
g6
(g18
S'\x96\xd8\x7f?'
p4130
tp4131
Rp4132
tp4133
a(g56
g6
(g18
S'e{z9'
p4134
tp4135
Rp4136
tp4137
a(g495
g6
(g18
S'\x9eY\x149'
p4138
tp4139
Rp4140
tp4141
a(g92
g6
(g18
S'\x03\x8a\xdd8'
p4142
tp4143
Rp4144
tp4145
a(g147
g6
(g18
S'W\xf8\xd87'
p4146
tp4147
Rp4148
tp4149
asg73
g15
sa(dp4150
g2
S'../../../data/emanuela/activity-recognition/images/NTCIR-Lifelog-256/u1/2015-02-26/b00001390_21i6bq_20150226_223321e.jpg'
p4151
sg4
(lp4152
(g15
g6
(g18
S'\t\xcc\x7f?'
p4153
tp4154
Rp4155
tp4156
a(g190
g6
(g18
S'j079'
p4157
tp4158
Rp4159
tp4160
a(g92
g6
(g18
S'f\x94)9'
p4161
tp4162
Rp4163
tp4164
a(g264
g6
(g18
S'\x03\x01\xc58'
p4165
tp4166
Rp4167
tp4168
a(g104
g6
(g18
S'\xc6po8'
p4169
tp4170
Rp4171
tp4172
asg73
g15
sa(dp4173
g2
S'../../../data/emanuela/activity-recognition/images/NTCIR-Lifelog-256/u1/2015-03-01/b00001255_21i6bq_20150301_192719e.jpg'
p4174
sg4
(lp4175
(g15
g6
(g18
S'\x93\x05n?'
p4176
tp4177
Rp4178
tp4179
a(g178
g6
(g18
S'\xf2\x80\x06='
p4180
tp4181
Rp4182
tp4183
a(g44
g6
(g18
S'3&=<'
p4184
tp4185
Rp4186
tp4187
a(g252
g6
(g18
S's\xb5\x13<'
p4188
tp4189
Rp4190
tp4191
a(g166
g6
(g18
S'\xf1*1;'
p4192
tp4193
Rp4194
tp4195
asg73
g15
sa(dp4196
g2
S'../../../data/emanuela/activity-recognition/images/NTCIR-Lifelog-256/u1/2015-03-06/b00000350_21i6bq_20150306_091050e.jpg'
p4197
sg4
(lp4198
(g15
g6
(g18
S'\xcb\xc8z?'
p4199
tp4200
Rp4201
tp4202
a(g32
g6
(g18
S'\xd4\xc2\xac;'
p4203
tp4204
Rp4205
tp4206
a(g92
g6
(g18
S'\x1d\x0f\x8f;'
p4207
tp4208
Rp4209
tp4210
a(g104
g6
(g18
S'j\x95H;'
p4211
tp4212
Rp4213
tp4214
a(g483
g6
(g18
S'A\x00\xcc:'
p4215
tp4216
Rp4217
tp4218
asg73
g15
sa(dp4219
g2
S'../../../data/emanuela/activity-recognition/images/NTCIR-Lifelog-256/u2/2015-04-20/b00000542_21i7lf_20150420_151845e.jpg'
p4220
sg4
(lp4221
(g15
g6
(g18
S'\x1e\x12|?'
p4222
tp4223
Rp4224
tp4225
a(g178
g6
(g18
S'\x1e[\xe2;'
p4226
tp4227
Rp4228
tp4229
a(g68
g6
(g18
S'\x8a\xf9\xdc:'
p4230
tp4231
Rp4232
tp4233
a(g264
g6
(g18
S'FB\x83:'
p4234
tp4235
Rp4236
tp4237
a(g166
g6
(g18
S'\xb8\xe3n:'
p4238
tp4239
Rp4240
tp4241
asg73
g15
sa(dp4242
g2
S'../../../data/emanuela/activity-recognition/images/NTCIR-Lifelog-256/u1/2015-03-10/b00000843_21i6bq_20150310_220707e.jpg'
p4243
sg4
(lp4244
(g15
g6
(g18
S'J\x91\x7f?'
p4245
tp4246
Rp4247
tp4248
a(g264
g6
(g18
S'\xde\xbb\x11:'
p4249
tp4250
Rp4251
tp4252
a(g166
g6
(g18
S'\xf4\x04\x8c9'
p4253
tp4254
Rp4255
tp4256
a(g178
g6
(g18
S'\xde\xcd\x849'
p4257
tp4258
Rp4259
tp4260
a(g92
g6
(g18
S'<a/9'
p4261
tp4262
Rp4263
tp4264
asg73
g15
sa(dp4265
g2
S'../../../data/emanuela/activity-recognition/images/NTCIR-Lifelog-256/u1/2015-03-06/b00000516_21i6bq_20150306_105506e.jpg'
p4266
sg4
(lp4267
(g68
g6
(g18
S'\xf2&=?'
p4268
tp4269
Rp4270
tp4271
a(g495
g6
(g18
S'\xf97#>'
p4272
tp4273
Rp4274
tp4275
a(g56
g6
(g18
S'\xf5\xbaD='
p4276
tp4277
Rp4278
tp4279
a(g483
g6
(g18
S'\x7fw\xde<'
p4280
tp4281
Rp4282
tp4283
a(g618
g6
(g18
S'\xb0\xcb\xef;'
p4284
tp4285
Rp4286
tp4287
asg73
g15
sa(dp4288
g2
S'../../../data/emanuela/activity-recognition/images/NTCIR-Lifelog-256/u1/2015-03-06/b00000351_21i6bq_20150306_091126e.jpg'
p4289
sg4
(lp4290
(g15
g6
(g18
S'V\x1e|?'
p4291
tp4292
Rp4293
tp4294
a(g32
g6
(g18
S'\x86\xc4\xdf;'
p4295
tp4296
Rp4297
tp4298
a(g92
g6
(g18
S'\xc8\x12\x17;'
p4299
tp4300
Rp4301
tp4302
a(g56
g6
(g18
S'\x85\xdd\xd6:'
p4303
tp4304
Rp4305
tp4306
a(g264
g6
(g18
S'\x14\xa2\xab:'
p4307
tp4308
Rp4309
tp4310
asg73
g15
sa(dp4311
g2
S'../../../data/emanuela/activity-recognition/images/NTCIR-Lifelog-256/u1/2015-02-26/b00000210_21i6bq_20150226_082204e.jpg'
p4312
sg4
(lp4313
(g15
g6
(g18
S'\x93\xe3x?'
p4314
tp4315
Rp4316
tp4317
a(g104
g6
(g18
S'\xa1\x1b\xc3;'
p4318
tp4319
Rp4320
tp4321
a(g56
g6
(g18
S'\xec\xf2\xbd;'
p4322
tp4323
Rp4324
tp4325
a(g92
g6
(g18
S'.D\xaa;'
p4326
tp4327
Rp4328
tp4329
a(g483
g6
(g18
S'\x05cr;'
p4330
tp4331
Rp4332
tp4333
asg73
g15
sa(dp4334
g2
S'../../../data/emanuela/activity-recognition/images/NTCIR-Lifelog-256/u2/2015-04-20/b00000690_21i7lf_20150420_165111e.jpg'
p4335
sg4
(lp4336
(g15
g6
(g18
S' \xeam?'
p4337
tp4338
Rp4339
tp4340
a(g56
g6
(g18
S'#\x13\x8e<'
p4341
tp4342
Rp4343
tp4344
a(g495
g6
(g18
S'J5V<'
p4345
tp4346
Rp4347
tp4348
a(g104
g6
(g18
S'\xbav8<'
p4349
tp4350
Rp4351
tp4352
a(g92
g6
(g18
S'\xa1\x931<'
p4353
tp4354
Rp4355
tp4356
asg73
g15
sa(dp4357
g2
S'../../../data/emanuela/activity-recognition/images/NTCIR-Lifelog-256/u1/2015-03-16/b00002516_21i6bq_20150316_164839e.jpg'
p4358
sg4
(lp4359
(g15
g6
(g18
S'B\xd8h?'
p4360
tp4361
Rp4362
tp4363
a(g135
g6
(g18
S'\x88dz='
p4364
tp4365
Rp4366
tp4367
a(g147
g6
(g18
S'\xc6\x03\xd2;'
p4368
tp4369
Rp4370
tp4371
a(g252
g6
(g18
S'\xbf\x8b\xb2;'
p4372
tp4373
Rp4374
tp4375
a(g104
g6
(g18
S'\xce\xe6p;'
p4376
tp4377
Rp4378
tp4379
asg73
g15
sa(dp4380
g2
S'../../../data/emanuela/activity-recognition/images/NTCIR-Lifelog-256/u1/2015-02-25/b00000326_21i6bq_20150225_092133e.jpg'
p4381
sg4
(lp4382
(g15
g6
(g18
S'\x80\xf3v?'
p4383
tp4384
Rp4385
tp4386
a(g32
g6
(g18
S'\xc0V\x99<'
p4387
tp4388
Rp4389
tp4390
a(g92
g6
(g18
S'P\xfd\x81;'
p4391
tp4392
Rp4393
tp4394
a(g104
g6
(g18
S'\xe3Q\x07;'
p4395
tp4396
Rp4397
tp4398
a(g264
g6
(g18
S'\x92/\xfc:'
p4399
tp4400
Rp4401
tp4402
asg73
g15
sa(dp4403
g2
S'../../../data/emanuela/activity-recognition/images/NTCIR-Lifelog-256/u2/2015-04-20/b00000536_21i7lf_20150420_151513e.jpg'
p4404
sg4
(lp4405
(g15
g6
(g18
S'r\x95{?'
p4406
tp4407
Rp4408
tp4409
a(g166
g6
(g18
S"\xbb'\x13<"
p4410
tp4411
Rp4412
tp4413
a(g92
g6
(g18
S'A\t\x9a:'
p4414
tp4415
Rp4416
tp4417
a(g68
g6
(g18
S'\xfc\x93\x83:'
p4418
tp4419
Rp4420
tp4421
a(g56
g6
(g18
S'+\xbel:'
p4422
tp4423
Rp4424
tp4425
asg73
g15
sa(dp4426
g2
S'../../../data/emanuela/activity-recognition/images/NTCIR-Lifelog-256/u2/2015-04-20/b00000659_21i7lf_20150420_163152e.jpg'
p4427
sg4
(lp4428
(g15
g6
(g18
S'`\xdc|?'
p4429
tp4430
Rp4431
tp4432
a(g264
g6
(g18
S'4\x85,;'
p4433
tp4434
Rp4435
tp4436
a(g483
g6
(g18
S'\x87\x97\xc5:'
p4437
tp4438
Rp4439
tp4440
a(g68
g6
(g18
S'm\x90\xb5:'
p4441
tp4442
Rp4443
tp4444
a(g166
g6
(g18
S'\xdcI\x94:'
p4445
tp4446
Rp4447
tp4448
asg73
g15
sa(dp4449
g2
S'../../../data/emanuela/activity-recognition/images/NTCIR-Lifelog-256/u1/2015-02-26/b00000343_21i6bq_20150226_100137e.jpg'
p4450
sg4
(lp4451
(g92
g6
(g18
S'\xf8\xf9\x08?'
p4452
tp4453
Rp4454
tp4455
a(g56
g6
(g18
S'r\xa1:>'
p4456
tp4457
Rp4458
tp4459
a(g68
g6
(g18
S'\xb6\xb4%>'
p4460
tp4461
Rp4462
tp4463
a(g15
g6
(g18
S'\xe0\xf1\xf4<'
p4464
tp4465
Rp4466
tp4467
a(g44
g6
(g18
S"\xd3'\xda<"
p4468
tp4469
Rp4470
tp4471
asg73
g15
sa(dp4472
g2
S'../../../data/emanuela/activity-recognition/images/NTCIR-Lifelog-256/u2/2015-04-20/b00000565_21i7lf_20150420_153312e.jpg'
p4473
sg4
(lp4474
(g15
g6
(g18
S'\xc7\xcd{?'
p4475
tp4476
Rp4477
tp4478
a(g264
g6
(g18
S'(\xe27;'
p4479
tp4480
Rp4481
tp4482
a(g166
g6
(g18
S'J6\xde:'
p4483
tp4484
Rp4485
tp4486
a(g147
g6
(g18
S'i|\xd1:'
p4487
tp4488
Rp4489
tp4490
a(g495
g6
(g18
S'\xd8\x9f\xcc:'
p4491
tp4492
Rp4493
tp4494
asg73
g15
sa.