(lp0
(dp1
S'image'
p2
S'../../../data/emanuela/activity-recognition/images/NTCIR-Lifelog-256/u3/2015-07-24/b00000639_21i79q_20150724_173750e.jpg'
p3
sS'result'
p4
(lp5
(cnumpy.core.multiarray
scalar
p6
(cnumpy
dtype
p7
(S'S2'
p8
I0
I1
tp9
Rp10
(I3
S'|'
p11
NNNI2
I1
I0
tp12
bS'tv'
p13
tp14
Rp15
g6
(g7
(S'f4'
p16
I0
I1
tp17
Rp18
(I3
S'<'
p19
NNNI-1
I-1
I0
tp20
bS'\xb44\x7f?'
p21
tp22
Rp23
tp24
a(g6
(g7
(S'S11'
p25
I0
I1
tp26
Rp27
(I3
S'|'
p28
NNNI11
I1
I0
tp29
bS'socializing'
p30
tp31
Rp32
g6
(g18
S'\xf6\xc3\xc5:'
p33
tp34
Rp35
tp36
a(g6
(g7
(S'S24'
p37
I0
I1
tp38
Rp39
(I3
S'|'
p40
NNNI24
I1
I0
tp41
bS'having drinks/meal alone'
p42
tp43
Rp44
g6
(g18
S"\xb3y':"
p45
tp46
Rp47
tp48
a(g6
(g7
(S'S7'
p49
I0
I1
tp50
Rp51
(I3
S'|'
p52
NNNI7
I1
I0
tp53
bS'talking'
p54
tp55
Rp56
g6
(g18
S'O\x92\xd89'
p57
tp58
Rp59
tp60
a(g6
(g7
(S'S7'
p61
I0
I1
tp62
Rp63
(I3
S'|'
p64
NNNI7
I1
I0
tp65
bS'resting'
p66
tp67
Rp68
g6
(g18
S'\xe6\x80U9'
p69
tp70
Rp71
tp72
asS'label'
p73
g15
sa(dp74
g2
S'../../../data/emanuela/activity-recognition/images/NTCIR-Lifelog-256/u3/2015-07-01/b00000410_21i79q_20150701_162555e.jpg'
p75
sg4
(lp76
(g44
g6
(g18
S'@=c?'
p77
tp78
Rp79
tp80
a(g6
(g7
(S'S25'
p81
I0
I1
tp82
Rp83
(I3
S'|'
p84
NNNI25
I1
I0
tp85
bS'having meal with somebody'
p86
tp87
Rp88
g6
(g18
S'\xb7\x1aW='
p89
tp90
Rp91
tp92
a(g15
g6
(g18
S'\xc8%\xc2<'
p93
tp94
Rp95
tp96
a(g6
(g7
(S'S27'
p97
I0
I1
tp98
Rp99
(I3
S'|'
p100
NNNI27
I1
I0
tp101
bS'having drinks with somebody'
p102
tp103
Rp104
g6
(g18
S'\x9b8\x81<'
p105
tp106
Rp107
tp108
a(g32
g6
(g18
S'7\xfa\x02<'
p109
tp110
Rp111
tp112
asg73
g15
sa(dp113
g2
S'../../../data/emanuela/activity-recognition/images/NTCIR-Lifelog-256/u3/2015-06-15/b00000986_21i79q_20150615_175248e.jpg'
p114
sg4
(lp115
(g15
g6
(g18
S'\xd8ys?'
p116
tp117
Rp118
tp119
a(g44
g6
(g18
S'\xb6-\x02='
p120
tp121
Rp122
tp123
a(g104
g6
(g18
S'\xb7\xd9\x06<'
p124
tp125
Rp126
tp127
a(g32
g6
(g18
S'>r\x05;'
p128
tp129
Rp130
tp131
a(g88
g6
(g18
S'4J\xef:'
p132
tp133
Rp134
tp135
asg73
g15
sa(dp136
g2
S'../../../data/emanuela/activity-recognition/images/NTCIR-Lifelog-256/u1/2015-03-01/b00000140_21i6bq_20150301_081349e.jpg'
p137
sg4
(lp138
(g15
g6
(g18
S'\x83=y?'
p139
tp140
Rp141
tp142
a(g32
g6
(g18
S'n\x07n<'
p143
tp144
Rp145
tp146
a(g44
g6
(g18
S'\x1bn\xd2;'
p147
tp148
Rp149
tp150
a(g56
g6
(g18
S'\x82\xcf%;'
p151
tp152
Rp153
tp154
a(g6
(g7
(S'S7'
p155
I0
I1
tp156
Rp157
(I3
S'|'
p158
NNNI7
I1
I0
tp159
bS'working'
p160
tp161
Rp162
g6
(g18
S'\xf4^i:'
p163
tp164
Rp165
tp166
asg73
g15
sa(dp167
g2
S'../../../data/emanuela/activity-recognition/images/NTCIR-Lifelog-256/u1/2015-03-05/b00000062_21i6bq_20150305_064353e.jpg'
p168
sg4
(lp169
(g15
g6
(g18
S'Xe}?'
p170
tp171
Rp172
tp173
a(g6
(g7
(S'S6'
p174
I0
I1
tp175
Rp176
(I3
S'|'
p177
NNNI6
I1
I0
tp178
bS'mobile'
p179
tp180
Rp181
g6
(g18
S'\xd1\x94\n;'
p182
tp183
Rp184
tp185
a(g44
g6
(g18
S'\xa8\xe1\xbc:'
p186
tp187
Rp188
tp189
a(g162
g6
(g18
S'\xb4\xa5\x94:'
p190
tp191
Rp192
tp193
a(g32
g6
(g18
S'@\xc8k:'
p194
tp195
Rp196
tp197
asg73
g15
sa(dp198
g2
S'../../../data/emanuela/activity-recognition/images/NTCIR-Lifelog-256/u3/2015-07-12/b00001995_21i79q_20150712_173231e.jpg'
p199
sg4
(lp200
(g15
g6
(g18
S'\x19h\xef>'
p201
tp202
Rp203
tp204
a(g6
(g7
(S'S19'
p205
I0
I1
tp206
Rp207
(I3
S'|'
p208
NNNI19
I1
I0
tp209
bS'cleaning and chores'
p210
tp211
Rp212
g6
(g18
S'\xe7\xbb\xa0>'
p213
tp214
Rp215
tp216
a(g44
g6
(g18
S'\xe5\xee\x0c>'
p217
tp218
Rp219
tp220
a(g6
(g7
(S'S7'
p221
I0
I1
tp222
Rp223
(I3
S'|'
p224
NNNI7
I1
I0
tp225
bS'cooking'
p226
tp227
Rp228
g6
(g18
S'C\xe7\xe3<'
p229
tp230
Rp231
tp232
a(g162
g6
(g18
S'e\x85\x98<'
p233
tp234
Rp235
tp236
asg73
g15
sa(dp237
g2
S'../../../data/emanuela/activity-recognition/images/NTCIR-Lifelog-256/u3/2015-07-01/b00000927_21i79q_20150701_211623e.jpg'
p238
sg4
(lp239
(g15
g6
(g18
S'\xf8\xa3l?'
p240
tp241
Rp242
tp243
a(g104
g6
(g18
S'3?\xe8<'
p244
tp245
Rp246
tp247
a(g44
g6
(g18
S'\x13\x82\xe6<'
p248
tp249
Rp250
tp251
a(g68
g6
(g18
S'\xaa9\x83;'
p252
tp253
Rp254
tp255
a(g88
g6
(g18
S'\xae\xd8p;'
p256
tp257
Rp258
tp259
asg73
g15
sa(dp260
g2
S'../../../data/emanuela/activity-recognition/images/NTCIR-Lifelog-256/u1/2015-03-05/b00000072_21i6bq_20150305_064622e.jpg'
p261
sg4
(lp262
(g15
g6
(g18
S'\xef^l?'
p263
tp264
Rp265
tp266
a(g162
g6
(g18
S'\xed\xaf\x12='
p267
tp268
Rp269
tp270
a(g212
g6
(g18
S'\xb6s=<'
p271
tp272
Rp273
tp274
a(g44
g6
(g18
S'\x88+\xba;'
p275
tp276
Rp277
tp278
a(g6
(g7
(S'S7'
p279
I0
I1
tp280
Rp281
(I3
S'|'
p282
NNNI7
I1
I0
tp283
bS'reading'
p284
tp285
Rp286
g6
(g18
S'\xad\xf3\xb6;'
p287
tp288
Rp289
tp290
asg73
g15
sa(dp291
g2
S'../../../data/emanuela/activity-recognition/images/NTCIR-Lifelog-256/u1/2015-02-25/b00001277_21i6bq_20150225_192654e.jpg'
p292
sg4
(lp293
(g15
g6
(g18
S'\xc6\xdf\x7f?'
p294
tp295
Rp296
tp297
a(g68
g6
(g18
S'\xe3<59'
p298
tp299
Rp300
tp301
a(g162
g6
(g18
S'\xdf#\xe48'
p302
tp303
Rp304
tp305
a(g44
g6
(g18
S'8\xca\xcb8'
p306
tp307
Rp308
tp309
a(g6
(g7
(S'S14'
p310
I0
I1
tp311
Rp312
(I3
S'|'
p313
NNNI14
I1
I0
tp314
bS'walking indoor'
p315
tp316
Rp317
g6
(g18
S'\xad"\x1f8'
p318
tp319
Rp320
tp321
asg73
g15
sa(dp322
g2
S'../../../data/emanuela/activity-recognition/images/NTCIR-Lifelog-256/u1/2015-03-13/b00000091_21i6bq_20150313_063401e.jpg'
p323
sg4
(lp324
(g15
g6
(g18
S'D\xbf\x7f?'
p325
tp326
Rp327
tp328
a(g44
g6
(g18
S'El\xe49'
p329
tp330
Rp331
tp332
a(g162
g6
(g18
S'kkf9'
p333
tp334
Rp335
tp336
a(g68
g6
(g18
S'\xf7\xc5T9'
p337
tp338
Rp339
tp340
a(g212
g6
(g18
S'K\xd6\xc07'
p341
tp342
Rp343
tp344
asg73
g15
sa(dp345
g2
S'../../../data/emanuela/activity-recognition/images/NTCIR-Lifelog-256/u1/2015-03-16/b00001655_21i6bq_20150316_081226e.jpg'
p346
sg4
(lp347
(g15
g6
(g18
S'J\xcc~?'
p348
tp349
Rp350
tp351
a(g44
g6
(g18
S'HN\xf4:'
p352
tp353
Rp354
tp355
a(g68
g6
(g18
S'o\x9d\xe6:'
p356
tp357
Rp358
tp359
a(g162
g6
(g18
S'\xf8>\xf09'
p360
tp361
Rp362
tp363
a(g212
g6
(g18
S'\x0br:9'
p364
tp365
Rp366
tp367
asg73
g15
sa(dp368
g2
S'../../../data/emanuela/activity-recognition/images/NTCIR-Lifelog-256/u1/2015-03-15/b00000104_21i6bq_20150315_084449e.jpg'
p369
sg4
(lp370
(g15
g6
(g18
S'b\x86z?'
p371
tp372
Rp373
tp374
a(g44
g6
(g18
S'fa\xa6<'
p375
tp376
Rp377
tp378
a(g68
g6
(g18
S'~\xf3\xc89'
p379
tp380
Rp381
tp382
a(g162
g6
(g18
S'\xbc\x11\x839'
p383
tp384
Rp385
tp386
a(g32
g6
(g18
S'KH\x049'
p387
tp388
Rp389
tp390
asg73
g15
sa(dp391
g2
S'../../../data/emanuela/activity-recognition/images/NTCIR-Lifelog-256/u1/2015-03-16/b00001653_21i6bq_20150316_081123e.jpg'
p392
sg4
(lp393
(g15
g6
(g18
S'\x85\xb3\x7f?'
p394
tp395
Rp396
tp397
a(g44
g6
(g18
S';O9:'
p398
tp399
Rp400
tp401
a(g68
g6
(g18
S'\x9b\x0e\x849'
p402
tp403
Rp404
tp405
a(g212
g6
(g18
S'\x0fJ]8'
p406
tp407
Rp408
tp409
a(g162
g6
(g18
S'k\xf0N8'
p410
tp411
Rp412
tp413
asg73
g15
sa(dp414
g2
S'../../../data/emanuela/activity-recognition/images/NTCIR-Lifelog-256/u3/2015-07-01/b00000677_21i79q_20150701_185433e.jpg'
p415
sg4
(lp416
(g15
g6
(g18
S'\x00\xd4t?'
p417
tp418
Rp419
tp420
a(g44
g6
(g18
S'\xab$\x0b='
p421
tp422
Rp423
tp424
a(g32
g6
(g18
S'\x1d\xael;'
p425
tp426
Rp427
tp428
a(g104
g6
(g18
S'H\xbeV;'
p429
tp430
Rp431
tp432
a(g181
g6
(g18
S'\x18Ew:'
p433
tp434
Rp435
tp436
asg73
g15
sa(dp437
g2
S'../../../data/emanuela/activity-recognition/images/NTCIR-Lifelog-256/u1/2015-02-26/b00000063_21i6bq_20150226_064244e.jpg'
p438
sg4
(lp439
(g15
g6
(g18
S'\xa0\xdf\x7f?'
p440
tp441
Rp442
tp443
a(g44
g6
(g18
S'"\xdf@9'
p444
tp445
Rp446
tp447
a(g162
g6
(g18
S'\xe2\xcb\x159'
p448
tp449
Rp450
tp451
a(g68
g6
(g18
S'\xc7T\x7f8'
p452
tp453
Rp454
tp455
a(g212
g6
(g18
S'\\\x83\xca7'
p456
tp457
Rp458
tp459
asg73
g15
sa(dp460
g2
S'../../../data/emanuela/activity-recognition/images/NTCIR-Lifelog-256/u1/2015-03-01/b00000937_21i6bq_20150301_162003e.jpg'
p461
sg4
(lp462
(g15
g6
(g18
S'8\x81\xfa>'
p463
tp464
Rp465
tp466
a(g162
g6
(g18
S'OY\xe9>'
p467
tp468
Rp469
tp470
a(g286
g6
(g18
S'\xe3\xcc\\<'
p471
tp472
Rp473
tp474
a(g56
g6
(g18
S'\n%V<'
p475
tp476
Rp477
tp478
a(g44
g6
(g18
S'\xd2\xad=<'
p479
tp480
Rp481
tp482
asg73
g15
sa(dp483
g2
S'../../../data/emanuela/activity-recognition/images/NTCIR-Lifelog-256/u3/2015-07-01/b00000890_21i79q_20150701_210043e.jpg'
p484
sg4
(lp485
(g15
g6
(g18
S'\x7f\xe6v?'
p486
tp487
Rp488
tp489
a(g32
g6
(g18
S'\xd2\xc0\x90<'
p490
tp491
Rp492
tp493
a(g44
g6
(g18
S'K\xf2/<'
p494
tp495
Rp496
tp497
a(g104
g6
(g18
S'\x1e\xc6O;'
p498
tp499
Rp500
tp501
a(g88
g6
(g18
S'1\xfb\xdb:'
p502
tp503
Rp504
tp505
asg73
g15
sa(dp506
g2
S'../../../data/emanuela/activity-recognition/images/NTCIR-Lifelog-256/u1/2015-02-25/b00001350_21i6bq_20150225_200421e.jpg'
p507
sg4
(lp508
(g15
g6
(g18
S's\xef\x7f?'
p509
tp510
Rp511
tp512
a(g68
g6
(g18
S'E\x91\x019'
p513
tp514
Rp515
tp516
a(g44
g6
(g18
S'\xb7\xf868'
p517
tp518
Rp519
tp520
a(g162
g6
(g18
S'\xa7\x06\x108'
p521
tp522
Rp523
tp524
a(g317
g6
(g18
S'1\x11\x987'
p525
tp526
Rp527
tp528
asg73
g15
sa(dp529
g2
S'../../../data/emanuela/activity-recognition/images/NTCIR-Lifelog-256/u1/2015-03-19/b00001451_21i6bq_20150319_054750e.jpg'
p530
sg4
(lp531
(g15
g6
(g18
S'Q\x12y?'
p532
tp533
Rp534
tp535
a(g68
g6
(g18
S'{\xff$<'
p536
tp537
Rp538
tp539
a(g162
g6
(g18
S'2t\xa5;'
p540
tp541
Rp542
tp543
a(g286
g6
(g18
S'\x14z_;'
p544
tp545
Rp546
tp547
a(g6
(g7
(S'S19'
p548
I0
I1
tp549
Rp550
(I3
S'|'
p551
NNNI19
I1
I0
tp552
bS'attending a seminar'
p553
tp554
Rp555
g6
(g18
S's\x13\xee:'
p556
tp557
Rp558
tp559
asg73
g15
sa(dp560
g2
S'../../../data/emanuela/activity-recognition/images/NTCIR-Lifelog-256/u1/2015-02-25/b00001315_21i6bq_20150225_194614e.jpg'
p561
sg4
(lp562
(g15
g6
(g18
S'\xc9\xd5\x7f?'
p563
tp564
Rp565
tp566
a(g162
g6
(g18
S'U2h9'
p567
tp568
Rp569
tp570
a(g68
g6
(g18
S'I\xe1\x1c9'
p571
tp572
Rp573
tp574
a(g44
g6
(g18
S'\xe1\x83\xd88'
p575
tp576
Rp577
tp578
a(g317
g6
(g18
S'\xc2La8'
p579
tp580
Rp581
tp582
asg73
g15
sa(dp583
g2
S'../../../data/emanuela/activity-recognition/images/NTCIR-Lifelog-256/u1/2015-02-26/b00000041_21i6bq_20150226_063103e.jpg'
p584
sg4
(lp585
(g15
g6
(g18
S'\xb2\x03D?'
p586
tp587
Rp588
tp589
a(g68
g6
(g18
S'\xe6\xf7\x1b>'
p590
tp591
Rp592
tp593
a(g56
g6
(g18
S',\xf1\xc2<'
p594
tp595
Rp596
tp597
a(g32
g6
(g18
S'\xaf\xfa\xa5<'
p598
tp599
Rp600
tp601
a(g286
g6
(g18
S'\xbcjl<'
p602
tp603
Rp604
tp605
asg73
g15
sa(dp606
g2
S'../../../data/emanuela/activity-recognition/images/NTCIR-Lifelog-256/u3/2015-07-01/b00000940_21i79q_20150701_212245e.jpg'
p607
sg4
(lp608
(g15
g6
(g18
S'\x1d\x97u?'
p609
tp610
Rp611
tp612
a(g44
g6
(g18
S'>\xcfh<'
p613
tp614
Rp615
tp616
a(g104
g6
(g18
S'\x1d\x03%<'
p617
tp618
Rp619
tp620
a(g32
g6
(g18
S'\xcd\t\x14<'
p621
tp622
Rp623
tp624
a(g88
g6
(g18
S'\x07gY;'
p625
tp626
Rp627
tp628
asg73
g15
sa(dp629
g2
S'../../../data/emanuela/activity-recognition/images/NTCIR-Lifelog-256/u3/2015-06-15/b00001062_21i79q_20150615_183057e.jpg'
p630
sg4
(lp631
(g15
g6
(g18
S'\x95\xe0r?'
p632
tp633
Rp634
tp635
a(g44
g6
(g18
S't\xc8\xc9<'
p636
tp637
Rp638
tp639
a(g104
g6
(g18
S'5\xc6m<'
p640
tp641
Rp642
tp643
a(g32
g6
(g18
S' \x87K;'
p644
tp645
Rp646
tp647
a(g88
g6
(g18
S'\xe7kF;'
p648
tp649
Rp650
tp651
asg73
g15
sa(dp652
g2
S'../../../data/emanuela/activity-recognition/images/NTCIR-Lifelog-256/u1/2015-03-19/b00001465_21i6bq_20150319_055500e.jpg'
p653
sg4
(lp654
(g15
g6
(g18
S'\xe4\xbdx?'
p655
tp656
Rp657
tp658
a(g68
g6
(g18
S'\x19\x16K<'
p659
tp660
Rp661
tp662
a(g162
g6
(g18
S'\xfc\x9d\x8d;'
p663
tp664
Rp665
tp666
a(g286
g6
(g18
S'\xcf\xc5T;'
p667
tp668
Rp669
tp670
a(g56
g6
(g18
S'\x93\xba\xd3:'
p671
tp672
Rp673
tp674
asg73
g15
sa(dp675
g2
S'../../../data/emanuela/activity-recognition/images/NTCIR-Lifelog-256/u1/2015-03-15/b00000114_21i6bq_20150315_085038e.jpg'
p676
sg4
(lp677
(g15
g6
(g18
S'I\xcd|?'
p678
tp679
Rp680
tp681
a(g44
g6
(g18
S'N5H<'
p682
tp683
Rp684
tp685
a(g162
g6
(g18
S'\x1f\x82\xf28'
p686
tp687
Rp688
tp689
a(g68
g6
(g18
S'\xbb\x80]8'
p690
tp691
Rp692
tp693
a(g32
g6
(g18
S'\x1a=\x118'
p694
tp695
Rp696
tp697
asg73
g15
sa(dp698
g2
S'../../../data/emanuela/activity-recognition/images/NTCIR-Lifelog-256/u3/2015-07-22/b00000476_21i79q_20150722_144029e.jpg'
p699
sg4
(lp700
(g15
g6
(g18
S'\xfdt{?'
p701
tp702
Rp703
tp704
a(g44
g6
(g18
S'\xa9\xca\xad;'
p705
tp706
Rp707
tp708
a(g68
g6
(g18
S'6\xa0f;'
p709
tp710
Rp711
tp712
a(g181
g6
(g18
S'\xa7\x1c6;'
p713
tp714
Rp715
tp716
a(g32
g6
(g18
S'T\x10(;'
p717
tp718
Rp719
tp720
asg73
g15
sa(dp721
g2
S'../../../data/emanuela/activity-recognition/images/NTCIR-Lifelog-256/u3/2015-07-01/b00000529_21i79q_20150701_173319e.jpg'
p722
sg4
(lp723
(g15
g6
(g18
S'\xfc\x86\x1b?'
p724
tp725
Rp726
tp727
a(g44
g6
(g18
S'\xe7\xfe\xbb>'
p728
tp729
Rp730
tp731
a(g88
g6
(g18
S'1$K<'
p732
tp733
Rp734
tp735
a(g228
g6
(g18
S'\xdf\xc9\x92;'
p736
tp737
Rp738
tp739
a(g212
g6
(g18
S'"60;'
p740
tp741
Rp742
tp743
asg73
g15
sa(dp744
g2
S'../../../data/emanuela/activity-recognition/images/NTCIR-Lifelog-256/u3/2015-07-24/b00000707_21i79q_20150724_181455e.jpg'
p745
sg4
(lp746
(g15
g6
(g18
S'\xf3\x14\x7f?'
p747
tp748
Rp749
tp750
a(g32
g6
(g18
S'J\x14\xbf:'
p751
tp752
Rp753
tp754
a(g162
g6
(g18
S'0N!:'
p755
tp756
Rp757
tp758
a(g44
g6
(g18
S'\x9df\x1f:'
p759
tp760
Rp761
tp762
a(g56
g6
(g18
S'8\xc4\xb79'
p763
tp764
Rp765
tp766
asg73
g15
sa(dp767
g2
S'../../../data/emanuela/activity-recognition/images/NTCIR-Lifelog-256/u1/2015-03-01/b00000974_21i6bq_20150301_163222e.jpg'
p768
sg4
(lp769
(g56
g6
(g18
S'*\xe1\xc1>'
p770
tp771
Rp772
tp773
a(g317
g6
(g18
S'\x81x;>'
p774
tp775
Rp776
tp777
a(g32
g6
(g18
S'\xa2a\xdd='
p778
tp779
Rp780
tp781
a(g555
g6
(g18
S'C\xf5\xc2='
p782
tp783
Rp784
tp785
a(g44
g6
(g18
S'\xda\xaaC='
p786
tp787
Rp788
tp789
asg73
g15
sa(dp790
g2
S'../../../data/emanuela/activity-recognition/images/NTCIR-Lifelog-256/u1/2015-03-01/b00000154_21i6bq_20150301_082149e.jpg'
p791
sg4
(lp792
(g15
g6
(g18
S'x\xd1\xd1>'
p793
tp794
Rp795
tp796
a(g56
g6
(g18
S'\x1d\x94\xc5>'
p797
tp798
Rp799
tp800
a(g162
g6
(g18
S'\xb8o^='
p801
tp802
Rp803
tp804
a(g32
g6
(g18
S'c\xf1@='
p805
tp806
Rp807
tp808
a(g286
g6
(g18
S'\xf0]\xac<'
p809
tp810
Rp811
tp812
asg73
g15
sa(dp813
g2
S'../../../data/emanuela/activity-recognition/images/NTCIR-Lifelog-256/u3/2015-07-18/b00001064_21i79q_20150718_213351e.jpg'
p814
sg4
(lp815
(g15
g6
(g18
S'\xc6\xd4\x9c>'
p816
tp817
Rp818
tp819
a(g32
g6
(g18
S'1\xf6\x8f>'
p820
tp821
Rp822
tp823
a(g555
g6
(g18
S'\xc7\xdf\x15>'
p824
tp825
Rp826
tp827
a(g44
g6
(g18
S'&A\xc0='
p828
tp829
Rp830
tp831
a(g104
g6
(g18
S'\x95\xee!='
p832
tp833
Rp834
tp835
asg73
g15
sa(dp836
g2
S'../../../data/emanuela/activity-recognition/images/NTCIR-Lifelog-256/u3/2015-07-24/b00000721_21i79q_20150724_182306e.jpg'
p837
sg4
(lp838
(g15
g6
(g18
S'\xd7\x89z?'
p839
tp840
Rp841
tp842
a(g56
g6
(g18
S'_\xc1\xca;'
p843
tp844
Rp845
tp846
a(g162
g6
(g18
S'\xec\xdd\x91;'
p847
tp848
Rp849
tp850
a(g32
g6
(g18
S'\x91\x7fb;'
p851
tp852
Rp853
tp854
a(g44
g6
(g18
S'{\x0cY;'
p855
tp856
Rp857
tp858
asg73
g15
sa(dp859
g2
S'../../../data/emanuela/activity-recognition/images/NTCIR-Lifelog-256/u1/2015-03-05/b00000077_21i6bq_20150305_065041e.jpg'
p860
sg4
(lp861
(g15
g6
(g18
S'\xa5\x99u?'
p862
tp863
Rp864
tp865
a(g162
g6
(g18
S'\x18\xe64<'
p866
tp867
Rp868
tp869
a(g212
g6
(g18
S'\x19\xb4\xd0;'
p870
tp871
Rp872
tp873
a(g44
g6
(g18
S'pA\x8c;'
p874
tp875
Rp876
tp877
a(g317
g6
(g18
S'\xc0\x95\x86;'
p878
tp879
Rp880
tp881
asg73
g15
sa(dp882
g2
S'../../../data/emanuela/activity-recognition/images/NTCIR-Lifelog-256/u3/2015-06-15/b00001117_21i79q_20150615_185837e.jpg'
p883
sg4
(lp884
(g15
g6
(g18
S'\x98\x15p?'
p885
tp886
Rp887
tp888
a(g44
g6
(g18
S'\xda\n\xe1<'
p889
tp890
Rp891
tp892
a(g104
g6
(g18
S'z)\x86<'
p893
tp894
Rp895
tp896
a(g32
g6
(g18
S';\x1a\xa2;'
p897
tp898
Rp899
tp900
a(g88
g6
(g18
S'\xae\xb7\x83;'
p901
tp902
Rp903
tp904
asg73
g15
sa(dp905
g2
S'../../../data/emanuela/activity-recognition/images/NTCIR-Lifelog-256/u3/2015-07-01/b00000945_21i79q_20150701_212525e.jpg'
p906
sg4
(lp907
(g15
g6
(g18
S'"\xb1s?'
p908
tp909
Rp910
tp911
a(g44
g6
(g18
S'\xe8\x03\xa6<'
p912
tp913
Rp914
tp915
a(g104
g6
(g18
S'L\x83\x0e<'
p916
tp917
Rp918
tp919
a(g32
g6
(g18
S'\xfc\xad\xb2;'
p920
tp921
Rp922
tp923
a(g6
(g7
(S'S7'
p924
I0
I1
tp925
Rp926
(I3
S'|'
p927
NNNI7
I1
I0
tp928
bS'meeting'
p929
tp930
Rp931
g6
(g18
S'F\xfa\x84;'
p932
tp933
Rp934
tp935
asg73
g15
sa(dp936
g2
S'../../../data/emanuela/activity-recognition/images/NTCIR-Lifelog-256/u1/2015-02-26/b00000052_21i6bq_20150226_063700e.jpg'
p937
sg4
(lp938
(g15
g6
(g18
S'\xeb\xbe\x7f?'
p939
tp940
Rp941
tp942
a(g44
g6
(g18
S'\x1e\xe7\xa59'
p943
tp944
Rp945
tp946
a(g162
g6
(g18
S'4\xba[9'
p947
tp948
Rp949
tp950
a(g68
g6
(g18
S'B&X9'
p951
tp952
Rp953
tp954
a(g212
g6
(g18
S's\xa5&9'
p955
tp956
Rp957
tp958
asg73
g15
sa(dp959
g2
S'../../../data/emanuela/activity-recognition/images/NTCIR-Lifelog-256/u3/2015-07-24/b00000264_21i79q_20150724_140757e.jpg'
p960
sg4
(lp961
(g15
g6
(g18
S'\xd3\x9a|?'
p962
tp963
Rp964
tp965
a(g68
g6
(g18
S'\xbd\xbbw;'
p966
tp967
Rp968
tp969
a(g32
g6
(g18
S'Qba;'
p970
tp971
Rp972
tp973
a(g44
g6
(g18
S'\xa7\xf2 ;'
p974
tp975
Rp976
tp977
a(g56
g6
(g18
S'\xacy\xc1:'
p978
tp979
Rp980
tp981
asg73
g15
sa(dp982
g2
S'../../../data/emanuela/activity-recognition/images/NTCIR-Lifelog-256/u1/2015-03-10/b00001583_21i6bq_20150310_070829e.jpg'
p983
sg4
(lp984
(g15
g6
(g18
S'\xce\x14|?'
p985
tp986
Rp987
tp988
a(g68
g6
(g18
S'\xcf\x01\xf1;'
p989
tp990
Rp991
tp992
a(g162
g6
(g18
S'\xc6\x06";'
p993
tp994
Rp995
tp996
a(g317
g6
(g18
S'\x1c\x0e\x14;'
p997
tp998
Rp999
tp1000
a(g44
g6
(g18
S'\x8a\xd3P:'
p1001
tp1002
Rp1003
tp1004
asg73
g15
sa(dp1005
g2
S'../../../data/emanuela/activity-recognition/images/NTCIR-Lifelog-256/u1/2015-02-25/b00001301_21i6bq_20150225_193909e.jpg'
p1006
sg4
(lp1007
(g15
g6
(g18
S'\x0f\xe5\x7f?'
p1008
tp1009
Rp1010
tp1011
a(g68
g6
(g18
S'\xdd\xce\xdf8'
p1012
tp1013
Rp1014
tp1015
a(g162
g6
(g18
S'\xde\xb2\xb48'
p1016
tp1017
Rp1018
tp1019
a(g44
g6
(g18
S'\x11\x15\x998'
p1020
tp1021
Rp1022
tp1023
a(g555
g6
(g18
S'\xfb\xe0v8'
p1024
tp1025
Rp1026
tp1027
asg73
g15
sa(dp1028
g2
S'../../../data/emanuela/activity-recognition/images/NTCIR-Lifelog-256/u3/2015-07-23/b00000309_21i79q_20150723_154301e.jpg'
p1029
sg4
(lp1030
(g15
g6
(g18
S'\xfc\xd9v?'
p1031
tp1032
Rp1033
tp1034
a(g32
g6
(g18
S'\x91\xae\x00='
p1035
tp1036
Rp1037
tp1038
a(g555
g6
(g18
S'\x03\x90\xe1:'
p1039
tp1040
Rp1041
tp1042
a(g56
g6
(g18
S'\x7f;\xa8:'
p1043
tp1044
Rp1045
tp1046
a(g44
g6
(g18
S'\x91\xd1\x8f9'
p1047
tp1048
Rp1049
tp1050
asg73
g15
sa(dp1051
g2
S'../../../data/emanuela/activity-recognition/images/NTCIR-Lifelog-256/u3/2015-06-15/b00001047_21i79q_20150615_182326e.jpg'
p1052
sg4
(lp1053
(g15
g6
(g18
S'\t\xd1[?'
p1054
tp1055
Rp1056
tp1057
a(g44
g6
(g18
S'\xfa\x03\x8d='
p1058
tp1059
Rp1060
tp1061
a(g104
g6
(g18
S'=\xf08='
p1062
tp1063
Rp1064
tp1065
a(g88
g6
(g18
S']\x82\xbe;'
p1066
tp1067
Rp1068
tp1069
a(g212
g6
(g18
S'J\xd4\x8b;'
p1070
tp1071
Rp1072
tp1073
asg73
g15
sa(dp1074
g2
S'../../../data/emanuela/activity-recognition/images/NTCIR-Lifelog-256/u3/2015-06-15/b00001116_21i79q_20150615_185807e.jpg'
p1075
sg4
(lp1076
(g15
g6
(g18
S'\x19Ix?'
p1077
tp1078
Rp1079
tp1080
a(g44
g6
(g18
S'\n4\x82<'
p1081
tp1082
Rp1083
tp1084
a(g104
g6
(g18
S'\xe3\x94\xc4;'
p1085
tp1086
Rp1087
tp1088
a(g32
g6
(g18
S'\x9e&^;'
p1089
tp1090
Rp1091
tp1092
a(g212
g6
(g18
S'\x00/\x88:'
p1093
tp1094
Rp1095
tp1096
asg73
g15
sa(dp1097
g2
S'../../../data/emanuela/activity-recognition/images/NTCIR-Lifelog-256/u1/2015-03-13/b00000061_21i6bq_20150313_061835e.jpg'
p1098
sg4
(lp1099
(g15
g6
(g18
S'\xe6r~?'
p1100
tp1101
Rp1102
tp1103
a(g44
g6
(g18
S'\xa2q!;'
p1104
tp1105
Rp1106
tp1107
a(g162
g6
(g18
S'I\xa6\xf0:'
p1108
tp1109
Rp1110
tp1111
a(g68
g6
(g18
S'R\xf9\n:'
p1112
tp1113
Rp1114
tp1115
a(g181
g6
(g18
S'\xc8\xf2\xa59'
p1116
tp1117
Rp1118
tp1119
asg73
g15
sa(dp1120
g2
S'../../../data/emanuela/activity-recognition/images/NTCIR-Lifelog-256/u3/2015-07-01/b00000679_21i79q_20150701_185547e.jpg'
p1121
sg4
(lp1122
(g44
g6
(g18
S'\xe4\x8d;?'
p1123
tp1124
Rp1125
tp1126
a(g15
g6
(g18
S"Dm'>"
p1127
tp1128
Rp1129
tp1130
a(g104
g6
(g18
S'\xc3\xa4\x13='
p1131
tp1132
Rp1133
tp1134
a(g32
g6
(g18
S'S\xe8\xaa<'
p1135
tp1136
Rp1137
tp1138
a(g162
g6
(g18
S'Vm|<'
p1139
tp1140
Rp1141
tp1142
asg73
g15
sa(dp1143
g2
S'../../../data/emanuela/activity-recognition/images/NTCIR-Lifelog-256/u3/2015-07-24/b00000627_21i79q_20150724_173102e.jpg'
p1144
sg4
(lp1145
(g15
g6
(g18
S'\xd5\t|?'
p1146
tp1147
Rp1148
tp1149
a(g162
g6
(g18
S'2\x80\xed;'
p1150
tp1151
Rp1152
tp1153
a(g56
g6
(g18
S'\x17\x9c\x1d;'
p1154
tp1155
Rp1156
tp1157
a(g32
g6
(g18
S'~V\x02;'
p1158
tp1159
Rp1160
tp1161
a(g44
g6
(g18
S'\xf1\xf2\xe5:'
p1162
tp1163
Rp1164
tp1165
asg73
g15
sa(dp1166
g2
S'../../../data/emanuela/activity-recognition/images/NTCIR-Lifelog-256/u3/2015-07-13/b00003014_21i79q_20150713_204647e.jpg'
p1167
sg4
(lp1168
(g15
g6
(g18
S'\x90dZ?'
p1169
tp1170
Rp1171
tp1172
a(g44
g6
(g18
S'\x8a\xe77='
p1173
tp1174
Rp1175
tp1176
a(g32
g6
(g18
S'q\xad\x0e='
p1177
tp1178
Rp1179
tp1180
a(g56
g6
(g18
S'\xbds\xc3<'
p1181
tp1182
Rp1183
tp1184
a(g68
g6
(g18
S'\x03YY<'
p1185
tp1186
Rp1187
tp1188
asg73
g15
sa(dp1189
g2
S'../../../data/emanuela/activity-recognition/images/NTCIR-Lifelog-256/u3/2015-06-15/b00001023_21i79q_20150615_181121e.jpg'
p1190
sg4
(lp1191
(g15
g6
(g18
S'\x8e\x1bn?'
p1192
tp1193
Rp1194
tp1195
a(g104
g6
(g18
S'M\xd6\xc6<'
p1196
tp1197
Rp1198
tp1199
a(g44
g6
(g18
S'\xe6N\xb3<'
p1200
tp1201
Rp1202
tp1203
a(g88
g6
(g18
S'\x18(\x0b<'
p1204
tp1205
Rp1206
tp1207
a(g32
g6
(g18
S'\x1a\x10\x06<'
p1208
tp1209
Rp1210
tp1211
asg73
g15
sa(dp1212
g2
S'../../../data/emanuela/activity-recognition/images/NTCIR-Lifelog-256/u1/2015-03-15/b00000101_21i6bq_20150315_084305e.jpg'
p1213
sg4
(lp1214
(g15
g6
(g18
S'\xf7\x1e\x7f?'
p1215
tp1216
Rp1217
tp1218
a(g44
g6
(g18
S'\x00_Z;'
p1219
tp1220
Rp1221
tp1222
a(g68
g6
(g18
S'n>\xe87'
p1223
tp1224
Rp1225
tp1226
a(g32
g6
(g18
S'\xd4\x95\xe47'
p1227
tp1228
Rp1229
tp1230
a(g162
g6
(g18
S'\n m7'
p1231
tp1232
Rp1233
tp1234
asg73
g15
sa(dp1235
g2
S'../../../data/emanuela/activity-recognition/images/NTCIR-Lifelog-256/u1/2015-02-25/b00001367_21i6bq_20150225_201308e.jpg'
p1236
sg4
(lp1237
(g15
g6
(g18
S'\xca7q?'
p1238
tp1239
Rp1240
tp1241
a(g68
g6
(g18
S'M*3='
p1242
tp1243
Rp1244
tp1245
a(g162
g6
(g18
S'\xe0O\xc7;'
p1246
tp1247
Rp1248
tp1249
a(g317
g6
(g18
S'\xaa\xfe\x1d;'
p1250
tp1251
Rp1252
tp1253
a(g286
g6
(g18
S'\xeaB\xfb:'
p1254
tp1255
Rp1256
tp1257
asg73
g15
sa(dp1258
g2
S'../../../data/emanuela/activity-recognition/images/NTCIR-Lifelog-256/u1/2015-03-10/b00001572_21i6bq_20150310_070002e.jpg'
p1259
sg4
(lp1260
(g15
g6
(g18
S'\x85\xc1\x7f?'
p1261
tp1262
Rp1263
tp1264
a(g68
g6
(g18
S'\x83@\x9c9'
p1265
tp1266
Rp1267
tp1268
a(g162
g6
(g18
S'\xd7\x16\x039'
p1269
tp1270
Rp1271
tp1272
a(g44
g6
(g18
S'yO\xe88'
p1273
tp1274
Rp1275
tp1276
a(g317
g6
(g18
S'O<\xca8'
p1277
tp1278
Rp1279
tp1280
asg73
g15
sa(dp1281
g2
S'../../../data/emanuela/activity-recognition/images/NTCIR-Lifelog-256/u1/2015-03-10/b00001578_21i6bq_20150310_070420e.jpg'
p1282
sg4
(lp1283
(g15
g6
(g18
S'\xec\xbb|?'
p1284
tp1285
Rp1286
tp1287
a(g68
g6
(g18
S'A\xf7\xed;'
p1288
tp1289
Rp1290
tp1291
a(g317
g6
(g18
S'\x17\x9b\xfb:'
p1292
tp1293
Rp1294
tp1295
a(g162
g6
(g18
S'\xcf\x91A:'
p1296
tp1297
Rp1298
tp1299
a(g44
g6
(g18
S'\xb7J5:'
p1300
tp1301
Rp1302
tp1303
asg73
g15
sa(dp1304
g2
S'../../../data/emanuela/activity-recognition/images/NTCIR-Lifelog-256/u3/2015-07-24/b00000929_21i79q_20150724_202326e.jpg'
p1305
sg4
(lp1306
(g15
g6
(g18
S'Q/\x7f?'
p1307
tp1308
Rp1309
tp1310
a(g32
g6
(g18
S'q\xff\x94:'
p1311
tp1312
Rp1313
tp1314
a(g44
g6
(g18
S'\xd9\x7f3:'
p1315
tp1316
Rp1317
tp1318
a(g56
g6
(g18
S'c\x11\xf79'
p1319
tp1320
Rp1321
tp1322
a(g162
g6
(g18
S'\xa3W\xba9'
p1323
tp1324
Rp1325
tp1326
asg73
g15
sa(dp1327
g2
S'../../../data/emanuela/activity-recognition/images/NTCIR-Lifelog-256/u3/2015-07-13/b00003012_21i79q_20150713_204529e.jpg'
p1328
sg4
(lp1329
(g15
g6
(g18
S'b\x83h?'
p1330
tp1331
Rp1332
tp1333
a(g44
g6
(g18
S'\xe3\x0c\x08='
p1334
tp1335
Rp1336
tp1337
a(g32
g6
(g18
S'>\x9c\x9d<'
p1338
tp1339
Rp1340
tp1341
a(g68
g6
(g18
S'\xc5Y\x97<'
p1342
tp1343
Rp1344
tp1345
a(g56
g6
(g18
S'\x11&\xc7;'
p1346
tp1347
Rp1348
tp1349
asg73
g15
sa(dp1350
g2
S'../../../data/emanuela/activity-recognition/images/NTCIR-Lifelog-256/u1/2015-03-01/b00000078_21i6bq_20150301_074132e.jpg'
p1351
sg4
(lp1352
(g15
g6
(g18
S'\xb0:\x1e?'
p1353
tp1354
Rp1355
tp1356
a(g162
g6
(g18
S'D\x01\x86>'
p1357
tp1358
Rp1359
tp1360
a(g56
g6
(g18
S'J\x10\x81='
p1361
tp1362
Rp1363
tp1364
a(g44
g6
(g18
S'\x9f\x10\xf4<'
p1365
tp1366
Rp1367
tp1368
a(g286
g6
(g18
S'\xdde\x1b<'
p1369
tp1370
Rp1371
tp1372
asg73
g15
sa(dp1373
g2
S'../../../data/emanuela/activity-recognition/images/NTCIR-Lifelog-256/u3/2015-06-24/b00000591_21i79q_20150624_151331e.jpg'
p1374
sg4
(lp1375
(g15
g6
(g18
S'\xcdw;?'
p1376
tp1377
Rp1378
tp1379
a(g32
g6
(g18
S'\xd6\xc8\xae='
p1380
tp1381
Rp1382
tp1383
a(g212
g6
(g18
S'\xbd$>='
p1384
tp1385
Rp1386
tp1387
a(g68
g6
(g18
S'\x1fz\x1f='
p1388
tp1389
Rp1390
tp1391
a(g317
g6
(g18
S'g\x92\xd3<'
p1392
tp1393
Rp1394
tp1395
asg73
g15
sa(dp1396
g2
S'../../../data/emanuela/activity-recognition/images/NTCIR-Lifelog-256/u1/2015-03-03/b00000102_21i6bq_20150303_065944e.jpg'
p1397
sg4
(lp1398
(g15
g6
(g18
S'\x98\x16\x7f?'
p1399
tp1400
Rp1401
tp1402
a(g162
g6
(g18
S'\x1a\xea\x0e;'
p1403
tp1404
Rp1405
tp1406
a(g44
g6
(g18
S'\x89\x91r:'
p1407
tp1408
Rp1409
tp1410
a(g212
g6
(g18
S'56\xee8'
p1411
tp1412
Rp1413
tp1414
a(g68
g6
(g18
S'j:\x868'
p1415
tp1416
Rp1417
tp1418
asg73
g15
sa(dp1419
g2
S'../../../data/emanuela/activity-recognition/images/NTCIR-Lifelog-256/u1/2015-03-13/b00000056_21i6bq_20150313_061559e.jpg'
p1420
sg4
(lp1421
(g15
g6
(g18
S'\x9d\xda\x7f?'
p1422
tp1423
Rp1424
tp1425
a(g44
g6
(g18
S'5\xb8\x939'
p1426
tp1427
Rp1428
tp1429
a(g162
g6
(g18
S'\x7f\xc2\xc28'
p1430
tp1431
Rp1432
tp1433
a(g68
g6
(g18
S't\xb0\xc08'
p1434
tp1435
Rp1436
tp1437
a(g212
g6
(g18
S'z%\xed7'
p1438
tp1439
Rp1440
tp1441
asg73
g15
sa(dp1442
g2
S'../../../data/emanuela/activity-recognition/images/NTCIR-Lifelog-256/u1/2015-02-25/b00000065_21i6bq_20150225_062834e.jpg'
p1443
sg4
(lp1444
(g15
g6
(g18
S'39\x7f?'
p1445
tp1446
Rp1447
tp1448
a(g68
g6
(g18
S'\x959V:'
p1449
tp1450
Rp1451
tp1452
a(g162
g6
(g18
S'\xf4\x12R:'
p1453
tp1454
Rp1455
tp1456
a(g212
g6
(g18
S'~V\xa59'
p1457
tp1458
Rp1459
tp1460
a(g317
g6
(g18
S'4T\xa09'
p1461
tp1462
Rp1463
tp1464
asg73
g15
sa(dp1465
g2
S'../../../data/emanuela/activity-recognition/images/NTCIR-Lifelog-256/u1/2015-03-13/b00000077_21i6bq_20150313_062652e.jpg'
p1466
sg4
(lp1467
(g15
g6
(g18
S'2\xce\x7f?'
p1468
tp1469
Rp1470
tp1471
a(g44
g6
(g18
S'\x8b\x1e\xe69'
p1472
tp1473
Rp1474
tp1475
a(g162
g6
(g18
S'\xa3\x91\xef8'
p1476
tp1477
Rp1478
tp1479
a(g68
g6
(g18
S'\xae\xd0\x9a8'
p1480
tp1481
Rp1482
tp1483
a(g212
g6
(g18
S'+\xa4\xf77'
p1484
tp1485
Rp1486
tp1487
asg73
g15
sa(dp1488
g2
S'../../../data/emanuela/activity-recognition/images/NTCIR-Lifelog-256/u1/2015-02-25/b00001388_21i6bq_20150225_202351e.jpg'
p1489
sg4
(lp1490
(g15
g6
(g18
S'\xf8\xb1p?'
p1491
tp1492
Rp1493
tp1494
a(g68
g6
(g18
S'^\xfe>='
p1495
tp1496
Rp1497
tp1498
a(g162
g6
(g18
S'\xbb\x0e\xaf;'
p1499
tp1500
Rp1501
tp1502
a(g317
g6
(g18
S'=(\x1e;'
p1503
tp1504
Rp1505
tp1506
a(g286
g6
(g18
S'\xc7\xdc\xdf:'
p1507
tp1508
Rp1509
tp1510
asg73
g15
sa(dp1511
g2
S'../../../data/emanuela/activity-recognition/images/NTCIR-Lifelog-256/u1/2015-03-10/b00001558_21i6bq_20150310_065216e.jpg'
p1512
sg4
(lp1513
(g15
g6
(g18
S'k\xa9~?'
p1514
tp1515
Rp1516
tp1517
a(g68
g6
(g18
S'\xf7\xbc\x15;'
p1518
tp1519
Rp1520
tp1521
a(g317
g6
(g18
S'`\x83V:'
p1522
tp1523
Rp1524
tp1525
a(g162
g6
(g18
S'\xd1\x80#:'
p1526
tp1527
Rp1528
tp1529
a(g44
g6
(g18
S'\xc6\xab\xf19'
p1530
tp1531
Rp1532
tp1533
asg73
g15
sa(dp1534
g2
S'../../../data/emanuela/activity-recognition/images/NTCIR-Lifelog-256/u1/2015-03-13/b00000071_21i6bq_20150313_062334e.jpg'
p1535
sg4
(lp1536
(g15
g6
(g18
S'\xab\xf0\x7f?'
p1537
tp1538
Rp1539
tp1540
a(g44
g6
(g18
S'\x80\x05\xe78'
p1541
tp1542
Rp1543
tp1544
a(g68
g6
(g18
S'\xe3Gk8'
p1545
tp1546
Rp1547
tp1548
a(g162
g6
(g18
S'\x19O\xcb7'
p1549
tp1550
Rp1551
tp1552
a(g32
g6
(g18
S'\x06J&7'
p1553
tp1554
Rp1555
tp1556
asg73
g15
sa(dp1557
g2
S'../../../data/emanuela/activity-recognition/images/NTCIR-Lifelog-256/u3/2015-07-01/b00000923_21i79q_20150701_211621e.jpg'
p1558
sg4
(lp1559
(g15
g6
(g18
S'J\x16s?'
p1560
tp1561
Rp1562
tp1563
a(g44
g6
(g18
S'wK\xa7<'
p1564
tp1565
Rp1566
tp1567
a(g104
g6
(g18
S'\xf1\xd7n<'
p1568
tp1569
Rp1570
tp1571
a(g32
g6
(g18
S'^\xb9\xa4;'
p1572
tp1573
Rp1574
tp1575
a(g88
g6
(g18
S'\xeb\x0e\x0e;'
p1576
tp1577
Rp1578
tp1579
asg73
g15
sa(dp1580
g2
S'../../../data/emanuela/activity-recognition/images/NTCIR-Lifelog-256/u1/2015-02-25/b00001384_21i6bq_20150225_202147e.jpg'
p1581
sg4
(lp1582
(g15
g6
(g18
S'z\xeco?'
p1583
tp1584
Rp1585
tp1586
a(g68
g6
(g18
S'A]G='
p1587
tp1588
Rp1589
tp1590
a(g162
g6
(g18
S'C\xe2\xcc;'
p1591
tp1592
Rp1593
tp1594
a(g317
g6
(g18
S'\xf3\xca ;'
p1595
tp1596
Rp1597
tp1598
a(g286
g6
(g18
S'\xe0\x0e\xee:'
p1599
tp1600
Rp1601
tp1602
asg73
g15
sa(dp1603
g2
S'../../../data/emanuela/activity-recognition/images/NTCIR-Lifelog-256/u3/2015-07-24/b00000678_21i79q_20150724_175852e.jpg'
p1604
sg4
(lp1605
(g15
g6
(g18
S'o6y?'
p1606
tp1607
Rp1608
tp1609
a(g44
g6
(g18
S'\x0f\xd97<'
p1610
tp1611
Rp1612
tp1613
a(g32
g6
(g18
S'\x89\xa6\xcd;'
p1614
tp1615
Rp1616
tp1617
a(g68
g6
(g18
S'\x84\x86\x81;'
p1618
tp1619
Rp1620
tp1621
a(g56
g6
(g18
S'\x9eI1;'
p1622
tp1623
Rp1624
tp1625
asg73
g15
sa(dp1626
g2
S'../../../data/emanuela/activity-recognition/images/NTCIR-Lifelog-256/u1/2015-03-05/b00000075_21i6bq_20150305_064817e.jpg'
p1627
sg4
(lp1628
(g15
g6
(g18
S'\xacw}?'
p1629
tp1630
Rp1631
tp1632
a(g162
g6
(g18
S'*\x16-;'
p1633
tp1634
Rp1635
tp1636
a(g44
g6
(g18
S'\xd8\x86\xc5:'
p1637
tp1638
Rp1639
tp1640
a(g317
g6
(g18
S'\xf0\xber:'
p1641
tp1642
Rp1643
tp1644
a(g6
(g7
(S'S5'
p1645
I0
I1
tp1646
Rp1647
(I3
S'|'
p1648
NNNI5
I1
I0
tp1649
bS'plane'
p1650
tp1651
Rp1652
g6
(g18
S'\xb2\xd6%:'
p1653
tp1654
Rp1655
tp1656
asg73
g15
sa(dp1657
g2
S'../../../data/emanuela/activity-recognition/images/NTCIR-Lifelog-256/u3/2015-07-18/b00001058_21i79q_20150718_212933e.jpg'
p1658
sg4
(lp1659
(g15
g6
(g18
S'\x8e%`?'
p1660
tp1661
Rp1662
tp1663
a(g44
g6
(g18
S'y\x85\x91='
p1664
tp1665
Rp1666
tp1667
a(g317
g6
(g18
S'\xc6\x85\x92<'
p1668
tp1669
Rp1670
tp1671
a(g32
g6
(g18
S'\xdd\x00\xf4;'
p1672
tp1673
Rp1674
tp1675
a(g555
g6
(g18
S'\xfac\xc4;'
p1676
tp1677
Rp1678
tp1679
asg73
g15
sa(dp1680
g2
S'../../../data/emanuela/activity-recognition/images/NTCIR-Lifelog-256/u3/2015-07-24/b00000755_21i79q_20150724_184231e.jpg'
p1681
sg4
(lp1682
(g15
g6
(g18
S'7\x1fa?'
p1683
tp1684
Rp1685
tp1686
a(g68
g6
(g18
S'\x12\xece='
p1687
tp1688
Rp1689
tp1690
a(g32
g6
(g18
S'J\xfb\xc7<'
p1691
tp1692
Rp1693
tp1694
a(g56
g6
(g18
S'-\xc9k<'
p1695
tp1696
Rp1697
tp1698
a(g44
g6
(g18
S'd\xf2\x04<'
p1699
tp1700
Rp1701
tp1702
asg73
g15
sa(dp1703
g2
S'../../../data/emanuela/activity-recognition/images/NTCIR-Lifelog-256/u3/2015-06-15/b00001074_21i79q_20150615_183658e.jpg'
p1704
sg4
(lp1705
(g15
g6
(g18
S'\x1c<s?'
p1706
tp1707
Rp1708
tp1709
a(g44
g6
(g18
S'1\x19\xf0<'
p1710
tp1711
Rp1712
tp1713
a(g104
g6
(g18
S'L9#<'
p1714
tp1715
Rp1716
tp1717
a(g88
g6
(g18
S'\xcf\x8b\xfc:'
p1718
tp1719
Rp1720
tp1721
a(g32
g6
(g18
S'\x07]\xfc:'
p1722
tp1723
Rp1724
tp1725
asg73
g15
sa(dp1726
g2
S'../../../data/emanuela/activity-recognition/images/NTCIR-Lifelog-256/u1/2015-03-13/b00000080_21i6bq_20150313_062823e.jpg'
p1727
sg4
(lp1728
(g15
g6
(g18
S'\x99\xf1\x7f?'
p1729
tp1730
Rp1731
tp1732
a(g44
g6
(g18
S'+\xfa\x029'
p1733
tp1734
Rp1735
tp1736
a(g68
g6
(g18
S'\x03\xa3\x128'
p1737
tp1738
Rp1739
tp1740
a(g162
g6
(g18
S'\x1a~\xe27'
p1741
tp1742
Rp1743
tp1744
a(g212
g6
(g18
S'HC 7'
p1745
tp1746
Rp1747
tp1748
asg73
g15
sa(dp1749
g2
S'../../../data/emanuela/activity-recognition/images/NTCIR-Lifelog-256/u3/2015-07-01/b00000928_21i79q_20150701_211629e.jpg'
p1750
sg4
(lp1751
(g15
g6
(g18
S'\xfb\xf1i?'
p1752
tp1753
Rp1754
tp1755
a(g44
g6
(g18
S'\xd0\xa2\x0c='
p1756
tp1757
Rp1758
tp1759
a(g104
g6
(g18
S'\x89(\xc0<'
p1760
tp1761
Rp1762
tp1763
a(g88
g6
(g18
S'l \xa2;'
p1764
tp1765
Rp1766
tp1767
a(g181
g6
(g18
S'\x97\xc7\x90;'
p1768
tp1769
Rp1770
tp1771
asg73
g15
sa(dp1772
g2
S'../../../data/emanuela/activity-recognition/images/NTCIR-Lifelog-256/u1/2015-03-03/b00000104_21i6bq_20150303_070047e.jpg'
p1773
sg4
(lp1774
(g15
g6
(g18
S'HC\x7f?'
p1775
tp1776
Rp1777
tp1778
a(g162
g6
(g18
S'=\x91\xaa:'
p1779
tp1780
Rp1781
tp1782
a(g44
g6
(g18
S'\xf3.\x89:'
p1783
tp1784
Rp1785
tp1786
a(g212
g6
(g18
S'\xb1O!9'
p1787
tp1788
Rp1789
tp1790
a(g56
g6
(g18
S'\xeau\xa28'
p1791
tp1792
Rp1793
tp1794
asg73
g15
sa(dp1795
g2
S'../../../data/emanuela/activity-recognition/images/NTCIR-Lifelog-256/u1/2015-03-01/b00000135_21i6bq_20150301_081056e.jpg'
p1796
sg4
(lp1797
(g286
g6
(g18
S'mf+>'
p1798
tp1799
Rp1800
tp1801
a(g56
g6
(g18
S'\x962\x12>'
p1802
tp1803
Rp1804
tp1805
a(g44
g6
(g18
S'\xbb\xa6\x10>'
p1806
tp1807
Rp1808
tp1809
a(g212
g6
(g18
S'\xa2z\x0f>'
p1810
tp1811
Rp1812
tp1813
a(g32
g6
(g18
S'\x97\x1c\xfb='
p1814
tp1815
Rp1816
tp1817
asg73
g15
sa(dp1818
g2
S'../../../data/emanuela/activity-recognition/images/NTCIR-Lifelog-256/u3/2015-07-01/b00000682_21i79q_20150701_185741e.jpg'
p1819
sg4
(lp1820
(g15
g6
(g18
S'\xb0\xb75?'
p1821
tp1822
Rp1823
tp1824
a(g44
g6
(g18
S'\xcew\x81>'
p1825
tp1826
Rp1827
tp1828
a(g88
g6
(g18
S'\x85\x1c\xf7;'
p1829
tp1830
Rp1831
tp1832
a(g104
g6
(g18
S'4\x92\xd3;'
p1833
tp1834
Rp1835
tp1836
a(g32
g6
(g18
S'\x8a\xc6\xbe;'
p1837
tp1838
Rp1839
tp1840
asg73
g15
sa(dp1841
g2
S'../../../data/emanuela/activity-recognition/images/NTCIR-Lifelog-256/u3/2015-07-01/b00000681_21i79q_20150701_185659e.jpg'
p1842
sg4
(lp1843
(g15
g6
(g18
S'3\xdc`?'
p1844
tp1845
Rp1846
tp1847
a(g44
g6
(g18
S'm\x08\xae='
p1848
tp1849
Rp1850
tp1851
a(g104
g6
(g18
S'\xf7\xf6\x7f<'
p1852
tp1853
Rp1854
tp1855
a(g88
g6
(g18
S'\x81[\xdd;'
p1856
tp1857
Rp1858
tp1859
a(g32
g6
(g18
S'\xb5\x12\x8f;'
p1860
tp1861
Rp1862
tp1863
asg73
g15
sa(dp1864
g2
S'../../../data/emanuela/activity-recognition/images/NTCIR-Lifelog-256/u3/2015-07-24/b00000644_21i79q_20150724_174028e.jpg'
p1865
sg4
(lp1866
(g15
g6
(g18
S'\x94\x12~?'
p1867
tp1868
Rp1869
tp1870
a(g32
g6
(g18
S'\xceK\xa0;'
p1871
tp1872
Rp1873
tp1874
a(g56
g6
(g18
S'\x11\x05\xae:'
p1875
tp1876
Rp1877
tp1878
a(g44
g6
(g18
S'\x1a\xdc\x03:'
p1879
tp1880
Rp1881
tp1882
a(g68
g6
(g18
S'f\x04L9'
p1883
tp1884
Rp1885
tp1886
asg73
g15
sa(dp1887
g2
S'../../../data/emanuela/activity-recognition/images/NTCIR-Lifelog-256/u1/2015-02-28/b00000606_21i6bq_20150228_120752e.jpg'
p1888
sg4
(lp1889
(g181
g6
(g18
S'1s\xa5>'
p1890
tp1891
Rp1892
tp1893
a(g15
g6
(g18
S'\xde\xb4\x90>'
p1894
tp1895
Rp1896
tp1897
a(g56
g6
(g18
S'\xea\xe7!>'
p1898
tp1899
Rp1900
tp1901
a(g32
g6
(g18
S'\x1b\xf8\x12>'
p1902
tp1903
Rp1904
tp1905
a(g44
g6
(g18
S'\r\xf7I='
p1906
tp1907
Rp1908
tp1909
asg73
g15
sa(dp1910
g2
S'../../../data/emanuela/activity-recognition/images/NTCIR-Lifelog-256/u3/2015-07-24/b00000941_21i79q_20150724_203006e.jpg'
p1911
sg4
(lp1912
(g15
g6
(g18
S'\x110o?'
p1913
tp1914
Rp1915
tp1916
a(g44
g6
(g18
S'fq\xa4<'
p1917
tp1918
Rp1919
tp1920
a(g56
g6
(g18
S'DA\xa1<'
p1921
tp1922
Rp1923
tp1924
a(g32
g6
(g18
S'\xf1@\x8a<'
p1925
tp1926
Rp1927
tp1928
a(g162
g6
(g18
S'Vn\xd7:'
p1929
tp1930
Rp1931
tp1932
asg73
g15
sa(dp1933
g2
S'../../../data/emanuela/activity-recognition/images/NTCIR-Lifelog-256/u3/2015-06-15/b00001078_21i79q_20150615_183902e.jpg'
p1934
sg4
(lp1935
(g15
g6
(g18
S'\xe0\x07t?'
p1936
tp1937
Rp1938
tp1939
a(g44
g6
(g18
S'\x08z\x90<'
p1940
tp1941
Rp1942
tp1943
a(g104
g6
(g18
S'K\xe0\x8c<'
p1944
tp1945
Rp1946
tp1947
a(g88
g6
(g18
S'\xb9\x8e";'
p1948
tp1949
Rp1950
tp1951
a(g32
g6
(g18
S'\x81,\x0c;'
p1952
tp1953
Rp1954
tp1955
asg73
g15
sa(dp1956
g2
S'../../../data/emanuela/activity-recognition/images/NTCIR-Lifelog-256/u1/2015-03-15/b00000121_21i6bq_20150315_085409e.jpg'
p1957
sg4
(lp1958
(g15
g6
(g18
S'\xf2\xa9q?'
p1959
tp1960
Rp1961
tp1962
a(g44
g6
(g18
S'\xd09]='
p1963
tp1964
Rp1965
tp1966
a(g162
g6
(g18
S'M\xd6 :'
p1967
tp1968
Rp1969
tp1970
a(g68
g6
(g18
S'#3\x0e:'
p1971
tp1972
Rp1973
tp1974
a(g212
g6
(g18
S'\xd9f.9'
p1975
tp1976
Rp1977
tp1978
asg73
g15
sa(dp1979
g2
S'../../../data/emanuela/activity-recognition/images/NTCIR-Lifelog-256/u3/2015-07-24/b00000944_21i79q_20150724_203152e.jpg'
p1980
sg4
(lp1981
(g15
g6
(g18
S'B\x95^?'
p1982
tp1983
Rp1984
tp1985
a(g56
g6
(g18
S'O\x8d~='
p1986
tp1987
Rp1988
tp1989
a(g162
g6
(g18
S'\n\xc9\xbf<'
p1990
tp1991
Rp1992
tp1993
a(g44
g6
(g18
S'\t\xd5\x8f<'
p1994
tp1995
Rp1996
tp1997
a(g181
g6
(g18
S'$\xb2n<'
p1998
tp1999
Rp2000
tp2001
asg73
g15
sa(dp2002
g2
S'../../../data/emanuela/activity-recognition/images/NTCIR-Lifelog-256/u1/2015-03-03/b00000108_21i6bq_20150303_070251e.jpg'
p2003
sg4
(lp2004
(g15
g6
(g18
S'\xcc\x15|?'
p2005
tp2006
Rp2007
tp2008
a(g162
g6
(g18
S'\xfcq7<'
p2009
tp2010
Rp2011
tp2012
a(g44
g6
(g18
S'\xa6B\xf0:'
p2013
tp2014
Rp2015
tp2016
a(g212
g6
(g18
S'N\xae\x16:'
p2017
tp2018
Rp2019
tp2020
a(g68
g6
(g18
S'>\x17\xc89'
p2021
tp2022
Rp2023
tp2024
asg73
g15
sa(dp2025
g2
S'../../../data/emanuela/activity-recognition/images/NTCIR-Lifelog-256/u1/2015-03-16/b00001644_21i6bq_20150316_080646e.jpg'
p2026
sg4
(lp2027
(g15
g6
(g18
S'W\x8dr?'
p2028
tp2029
Rp2030
tp2031
a(g68
g6
(g18
S'\xb0h\xf9<'
p2032
tp2033
Rp2034
tp2035
a(g44
g6
(g18
S'\x87 \x1a<'
p2036
tp2037
Rp2038
tp2039
a(g212
g6
(g18
S'\x81l\xc4;'
p2040
tp2041
Rp2042
tp2043
a(g6
(g7
(S'S15'
p2044
I0
I1
tp2045
Rp2046
(I3
S'|'
p2047
NNNI15
I1
I0
tp2048
bS'walking outdoor'
p2049
tp2050
Rp2051
g6
(g18
S'f5\x11;'
p2052
tp2053
Rp2054
tp2055
asg73
g15
sa(dp2056
g2
S'../../../data/emanuela/activity-recognition/images/NTCIR-Lifelog-256/u1/2015-03-10/b00001519_21i6bq_20150310_062930e.jpg'
p2057
sg4
(lp2058
(g15
g6
(g18
S'y6{?'
p2059
tp2060
Rp2061
tp2062
a(g32
g6
(g18
S'{\x89\xc1;'
p2063
tp2064
Rp2065
tp2066
a(g68
g6
(g18
S'n\x1cF;'
p2067
tp2068
Rp2069
tp2070
a(g44
g6
(g18
S'G\xbf#;'
p2071
tp2072
Rp2073
tp2074
a(g56
g6
(g18
S'V\xa1\x02;'
p2075
tp2076
Rp2077
tp2078
asg73
g15
sa(dp2079
g2
S'../../../data/emanuela/activity-recognition/images/NTCIR-Lifelog-256/u1/2015-03-01/b00000062_21i6bq_20150301_073646e.jpg'
p2080
sg4
(lp2081
(g15
g6
(g18
S'\xae\x96W?'
p2082
tp2083
Rp2084
tp2085
a(g32
g6
(g18
S'\xbc\xf1\xd1='
p2086
tp2087
Rp2088
tp2089
a(g56
g6
(g18
S'\xda\xbe\xa8<'
p2090
tp2091
Rp2092
tp2093
a(g44
g6
(g18
S'\xb0\xa81<'
p2094
tp2095
Rp2096
tp2097
a(g162
g6
(g18
S',"\x03<'
p2098
tp2099
Rp2100
tp2101
asg73
g15
sa(dp2102
g2
S'../../../data/emanuela/activity-recognition/images/NTCIR-Lifelog-256/u1/2015-03-02/b00001125_21i6bq_20150302_185237e.jpg'
p2103
sg4
(lp2104
(g15
g6
(g18
S'o\x10\x7f?'
p2105
tp2106
Rp2107
tp2108
a(g32
g6
(g18
S'\n$\xf7:'
p2109
tp2110
Rp2111
tp2112
a(g56
g6
(g18
S'\xb1(A:'
p2113
tp2114
Rp2115
tp2116
a(g162
g6
(g18
S'\xba\xdb\xb89'
p2117
tp2118
Rp2119
tp2120
a(g44
g6
(g18
S'\xa5\x10^9'
p2121
tp2122
Rp2123
tp2124
asg73
g15
sa(dp2125
g2
S'../../../data/emanuela/activity-recognition/images/NTCIR-Lifelog-256/u1/2015-03-10/b00001553_21i6bq_20150310_064933e.jpg'
p2126
sg4
(lp2127
(g15
g6
(g18
S'\xf3\x9e\x7f?'
p2128
tp2129
Rp2130
tp2131
a(g68
g6
(g18
S'\x15\xc5\x0b:'
p2132
tp2133
Rp2134
tp2135
a(g317
g6
(g18
S'\x8c\xf4n9'
p2136
tp2137
Rp2138
tp2139
a(g44
g6
(g18
S'P\xf6F9'
p2140
tp2141
Rp2142
tp2143
a(g2051
g6
(g18
S'\xb0\xfd79'
p2144
tp2145
Rp2146
tp2147
asg73
g15
sa(dp2148
g2
S'../../../data/emanuela/activity-recognition/images/NTCIR-Lifelog-256/u1/2015-03-01/b00000990_21i6bq_20150301_164005e.jpg'
p2149
sg4
(lp2150
(g555
g6
(g18
S',{\xac>'
p2151
tp2152
Rp2153
tp2154
a(g32
g6
(g18
S'Gd\xa1>'
p2155
tp2156
Rp2157
tp2158
a(g317
g6
(g18
S'@\x1f\x06>'
p2159
tp2160
Rp2161
tp2162
a(g56
g6
(g18
S'\xd5\xc6\x91='
p2163
tp2164
Rp2165
tp2166
a(g15
g6
(g18
S'[cn='
p2167
tp2168
Rp2169
tp2170
asg73
g15
sa(dp2171
g2
S'../../../data/emanuela/activity-recognition/images/NTCIR-Lifelog-256/u3/2015-07-01/b00000906_21i79q_20150701_210915e.jpg'
p2172
sg4
(lp2173
(g15
g6
(g18
S'\xe3\xd5`?'
p2174
tp2175
Rp2176
tp2177
a(g44
g6
(g18
S'\x8a\x15\x86='
p2178
tp2179
Rp2180
tp2181
a(g104
g6
(g18
S'\xea\xce\xb1<'
p2182
tp2183
Rp2184
tp2185
a(g88
g6
(g18
S'\xba|\x8b<'
p2186
tp2187
Rp2188
tp2189
a(g32
g6
(g18
S'?\xb7|;'
p2190
tp2191
Rp2192
tp2193
asg73
g15
sa(dp2194
g2
S'../../../data/emanuela/activity-recognition/images/NTCIR-Lifelog-256/u1/2015-03-01/b00000077_21i6bq_20150301_074059e.jpg'
p2195
sg4
(lp2196
(g15
g6
(g18
S'\xae*\x7f?'
p2197
tp2198
Rp2199
tp2200
a(g32
g6
(g18
S'\x8a\xe3\x0c;'
p2201
tp2202
Rp2203
tp2204
a(g44
g6
(g18
S'\x87\xa9\xf89'
p2205
tp2206
Rp2207
tp2208
a(g56
g6
(g18
S'\xb9\xc8v9'
p2209
tp2210
Rp2211
tp2212
a(g162
g6
(g18
S'r\x80&9'
p2213
tp2214
Rp2215
tp2216
asg73
g15
sa(dp2217
g2
S'../../../data/emanuela/activity-recognition/images/NTCIR-Lifelog-256/u1/2015-02-25/b00001303_21i6bq_20150225_194011e.jpg'
p2218
sg4
(lp2219
(g15
g6
(g18
S'\xbd\xe3\x7f?'
p2220
tp2221
Rp2222
tp2223
a(g68
g6
(g18
S'\xbb\x85L9'
p2224
tp2225
Rp2226
tp2227
a(g162
g6
(g18
S'\xcf\x98\xb38'
p2228
tp2229
Rp2230
tp2231
a(g44
g6
(g18
S'\xab`o8'
p2232
tp2233
Rp2234
tp2235
a(g317
g6
(g18
S'\x06\x84\x1e8'
p2236
tp2237
Rp2238
tp2239
asg73
g15
sa(dp2240
g2
S'../../../data/emanuela/activity-recognition/images/NTCIR-Lifelog-256/u3/2015-07-24/b00000730_21i79q_20150724_182805e.jpg'
p2241
sg4
(lp2242
(g15
g6
(g18
S'\xd0\xf1s?'
p2243
tp2244
Rp2245
tp2246
a(g44
g6
(g18
S'D\xb3N<'
p2247
tp2248
Rp2249
tp2250
a(g32
g6
(g18
S'\xee?K<'
p2251
tp2252
Rp2253
tp2254
a(g56
g6
(g18
S'\xbe\xdd\xf9;'
p2255
tp2256
Rp2257
tp2258
a(g68
g6
(g18
S'\xf0\n\x91;'
p2259
tp2260
Rp2261
tp2262
asg73
g15
sa(dp2263
g2
S'../../../data/emanuela/activity-recognition/images/NTCIR-Lifelog-256/u3/2015-06-15/b00000673_21i79q_20150615_150134e.jpg'
p2264
sg4
(lp2265
(g181
g6
(g18
S'\xc2\x10\x06?'
p2266
tp2267
Rp2268
tp2269
a(g44
g6
(g18
S'\x11\x10\xd6='
p2270
tp2271
Rp2272
tp2273
a(g56
g6
(g18
S'W\x8d\x9c='
p2274
tp2275
Rp2276
tp2277
a(g6
(g7
(S'S8'
p2278
I0
I1
tp2279
Rp2280
(I3
S'|'
p2281
NNNI8
I1
I0
tp2282
bS'shopping'
p2283
tp2284
Rp2285
g6
(g18
S'r\xc1\x94='
p2286
tp2287
Rp2288
tp2289
a(g317
g6
(g18
S'\xdf\xc7H='
p2290
tp2291
Rp2292
tp2293
asg73
g15
sa(dp2294
g2
S'../../../data/emanuela/activity-recognition/images/NTCIR-Lifelog-256/u3/2015-06-21/b00001085_21i79q_20150621_225610e.jpg'
p2295
sg4
(lp2296
(g15
g6
(g18
S'\xfe\x8a\x05?'
p2297
tp2298
Rp2299
tp2300
a(g44
g6
(g18
S'^[\xa5>'
p2301
tp2302
Rp2303
tp2304
a(g104
g6
(g18
S'\x00\x84.='
p2305
tp2306
Rp2307
tp2308
a(g88
g6
(g18
S'\xdfw\xe6<'
p2309
tp2310
Rp2311
tp2312
a(g317
g6
(g18
S'"\xa5\xbc<'
p2313
tp2314
Rp2315
tp2316
asg73
g15
sa(dp2317
g2
S'../../../data/emanuela/activity-recognition/images/NTCIR-Lifelog-256/u3/2015-07-18/b00001052_21i79q_20150718_212600e.jpg'
p2318
sg4
(lp2319
(g15
g6
(g18
S'\xb8\x1dS?'
p2320
tp2321
Rp2322
tp2323
a(g44
g6
(g18
S'\t\x05n='
p2324
tp2325
Rp2326
tp2327
a(g2285
g6
(g18
S'\x81\xc5\xac<'
p2328
tp2329
Rp2330
tp2331
a(g162
g6
(g18
S':t\xa3<'
p2332
tp2333
Rp2334
tp2335
a(g181
g6
(g18
S'\xd4\x99\x95<'
p2336
tp2337
Rp2338
tp2339
asg73
g15
sa(dp2340
g2
S'../../../data/emanuela/activity-recognition/images/NTCIR-Lifelog-256/u1/2015-03-15/b00000122_21i6bq_20150315_085449e.jpg'
p2341
sg4
(lp2342
(g15
g6
(g18
S'\x18\xff}?'
p2343
tp2344
Rp2345
tp2346
a(g44
g6
(g18
S'\xe0\xbd\xd5;'
p2347
tp2348
Rp2349
tp2350
a(g32
g6
(g18
S'>$V:'
p2351
tp2352
Rp2353
tp2354
a(g88
g6
(g18
S'\xd3\xb6k9'
p2355
tp2356
Rp2357
tp2358
a(g228
g6
(g18
S'e\x0b\x858'
p2359
tp2360
Rp2361
tp2362
asg73
g15
sa(dp2363
g2
S'../../../data/emanuela/activity-recognition/images/NTCIR-Lifelog-256/u1/2015-02-25/b00001309_21i6bq_20150225_194312e.jpg'
p2364
sg4
(lp2365
(g15
g6
(g18
S'\xbe\xb5\x7f?'
p2366
tp2367
Rp2368
tp2369
a(g68
g6
(g18
S'\t4\x13:'
p2370
tp2371
Rp2372
tp2373
a(g162
g6
(g18
S'\xce\x91o9'
p2374
tp2375
Rp2376
tp2377
a(g44
g6
(g18
S'P(\x049'
p2378
tp2379
Rp2380
tp2381
a(g317
g6
(g18
S's\xd7\xad8'
p2382
tp2383
Rp2384
tp2385
asg73
g15
sa(dp2386
g2
S'../../../data/emanuela/activity-recognition/images/NTCIR-Lifelog-256/u3/2015-07-13/b00003001_21i79q_20150713_203847e.jpg'
p2387
sg4
(lp2388
(g15
g6
(g18
S'\xab\x05X?'
p2389
tp2390
Rp2391
tp2392
a(g44
g6
(g18
S'\xd0U-='
p2393
tp2394
Rp2395
tp2396
a(g32
g6
(g18
S' 5\x04='
p2397
tp2398
Rp2399
tp2400
a(g68
g6
(g18
S'\xad\x08\xf5<'
p2401
tp2402
Rp2403
tp2404
a(g212
g6
(g18
S'[\xb8.<'
p2405
tp2406
Rp2407
tp2408
asg73
g15
sa(dp2409
g2
S'../../../data/emanuela/activity-recognition/images/NTCIR-Lifelog-256/u1/2015-03-16/b00001629_21i6bq_20150316_075803e.jpg'
p2410
sg4
(lp2411
(g15
g6
(g18
S')y|?'
p2412
tp2413
Rp2414
tp2415
a(g44
g6
(g18
S'\x0c\xb0\xb6;'
p2416
tp2417
Rp2418
tp2419
a(g68
g6
(g18
S'bV\x93;'
p2420
tp2421
Rp2422
tp2423
a(g212
g6
(g18
S'\x11\x89\xad:'
p2424
tp2425
Rp2426
tp2427
a(g162
g6
(g18
S'\x8d\xe0\x1a:'
p2428
tp2429
Rp2430
tp2431
asg73
g15
sa(dp2432
g2
S'../../../data/emanuela/activity-recognition/images/NTCIR-Lifelog-256/u1/2015-02-23/b00000032_21i6bq_20150223_072128e.jpg'
p2433
sg4
(lp2434
(g15
g6
(g18
S'}\xcf\x11?'
p2435
tp2436
Rp2437
tp2438
a(g32
g6
(g18
S'\xee\x8c\x14>'
p2439
tp2440
Rp2441
tp2442
a(g56
g6
(g18
S'\x8b\x80\xb5='
p2443
tp2444
Rp2445
tp2446
a(g286
g6
(g18
S'\xa96\x96='
p2447
tp2448
Rp2449
tp2450
a(g44
g6
(g18
S'\xe9\xdf\x16='
p2451
tp2452
Rp2453
tp2454
asg73
g15
sa(dp2455
g2
S'../../../data/emanuela/activity-recognition/images/NTCIR-Lifelog-256/u1/2015-03-05/b00000080_21i6bq_20150305_065345e.jpg'
p2456
sg4
(lp2457
(g15
g6
(g18
S'\xc4r{?'
p2458
tp2459
Rp2460
tp2461
a(g162
g6
(g18
S'\xf9\xfc\x97;'
p2462
tp2463
Rp2464
tp2465
a(g44
g6
(g18
S'\x9c[\xe4:'
p2466
tp2467
Rp2468
tp2469
a(g181
g6
(g18
S'X\xb2\xe1:'
p2470
tp2471
Rp2472
tp2473
a(g212
g6
(g18
S'\xfe\xa3\xdb:'
p2474
tp2475
Rp2476
tp2477
asg73
g15
sa(dp2478
g2
S'../../../data/emanuela/activity-recognition/images/NTCIR-Lifelog-256/u3/2015-07-24/b00000934_21i79q_20150724_202616e.jpg'
p2479
sg4
(lp2480
(g15
g6
(g18
S'8\x95}?'
p2481
tp2482
Rp2483
tp2484
a(g56
g6
(g18
S'\xe5QD;'
p2485
tp2486
Rp2487
tp2488
a(g44
g6
(g18
S'.\x7f1;'
p2489
tp2490
Rp2491
tp2492
a(g32
g6
(g18
S'\xf3\x1a\xf9:'
p2493
tp2494
Rp2495
tp2496
a(g162
g6
(g18
S'\xb6\x85O:'
p2497
tp2498
Rp2499
tp2500
asg73
g15
sa(dp2501
g2
S'../../../data/emanuela/activity-recognition/images/NTCIR-Lifelog-256/u3/2015-07-24/b00000690_21i79q_20150724_180518e.jpg'
p2502
sg4
(lp2503
(g15
g6
(g18
S'\xcdR|?'
p2504
tp2505
Rp2506
tp2507
a(g162
g6
(g18
S'\x99\xd3\x85;'
p2508
tp2509
Rp2510
tp2511
a(g44
g6
(g18
S'\xc5=v;'
p2512
tp2513
Rp2514
tp2515
a(g56
g6
(g18
S'\x96\xb0F;'
p2516
tp2517
Rp2518
tp2519
a(g32
g6
(g18
S'mK\xb2:'
p2520
tp2521
Rp2522
tp2523
asg73
g15
sa(dp2524
g2
S'../../../data/emanuela/activity-recognition/images/NTCIR-Lifelog-256/u1/2015-02-23/b00000022_21i6bq_20150223_071528e.jpg'
p2525
sg4
(lp2526
(g15
g6
(g18
S'\xfd\xa8\xbf>'
p2527
tp2528
Rp2529
tp2530
a(g32
g6
(g18
S'?\xe4\xad>'
p2531
tp2532
Rp2533
tp2534
a(g56
g6
(g18
S'Q=\xcf='
p2535
tp2536
Rp2537
tp2538
a(g555
g6
(g18
S'\x1f\xf7\x8c='
p2539
tp2540
Rp2541
tp2542
a(g286
g6
(g18
S'\x99\x8a%='
p2543
tp2544
Rp2545
tp2546
asg73
g15
sa(dp2547
g2
S'../../../data/emanuela/activity-recognition/images/NTCIR-Lifelog-256/u3/2015-06-21/b00001082_21i79q_20150621_225432e.jpg'
p2548
sg4
(lp2549
(g15
g6
(g18
S'n\xf7r?'
p2550
tp2551
Rp2552
tp2553
a(g44
g6
(g18
S'\x9d"\xaf<'
p2554
tp2555
Rp2556
tp2557
a(g32
g6
(g18
S'\xd2\xe7\xf6;'
p2558
tp2559
Rp2560
tp2561
a(g555
g6
(g18
S'\x98\xae\x8e;'
p2562
tp2563
Rp2564
tp2565
a(g181
g6
(g18
S'\xf4\x0ez;'
p2566
tp2567
Rp2568
tp2569
asg73
g15
sa(dp2570
g2
S'../../../data/emanuela/activity-recognition/images/NTCIR-Lifelog-256/u1/2015-03-05/b00001313_21i6bq_20150305_211439e.jpg'
p2571
sg4
(lp2572
(g162
g6
(g18
S"'/`>"
p2573
tp2574
Rp2575
tp2576
a(g2285
g6
(g18
S'\xe2u4>'
p2577
tp2578
Rp2579
tp2580
a(g228
g6
(g18
S'\xc9\n\xe2='
p2581
tp2582
Rp2583
tp2584
a(g317
g6
(g18
S'\xfb\x83\xe0='
p2585
tp2586
Rp2587
tp2588
a(g555
g6
(g18
S'\x99\x9d\xac='
p2589
tp2590
Rp2591
tp2592
asg73
g15
sa(dp2593
g2
S'../../../data/emanuela/activity-recognition/images/NTCIR-Lifelog-256/u1/2015-03-01/b00000133_21i6bq_20150301_080946e.jpg'
p2594
sg4
(lp2595
(g15
g6
(g18
S'\x8bLx?'
p2596
tp2597
Rp2598
tp2599
a(g44
g6
(g18
S'\x94\xb5}<'
p2600
tp2601
Rp2602
tp2603
a(g32
g6
(g18
S'\x1c\xcd\xff;'
p2604
tp2605
Rp2606
tp2607
a(g212
g6
(g18
S'\x815\r;'
p2608
tp2609
Rp2610
tp2611
a(g56
g6
(g18
S'\x06\x1c\xe7:'
p2612
tp2613
Rp2614
tp2615
asg73
g15
sa(dp2616
g2
S'../../../data/emanuela/activity-recognition/images/NTCIR-Lifelog-256/u1/2015-03-14/b00000049_21i6bq_20150314_063738e.jpg'
p2617
sg4
(lp2618
(g15
g6
(g18
S'\x9f\\\x7f?'
p2619
tp2620
Rp2621
tp2622
a(g44
g6
(g18
S'X\xd0\xfc:'
p2623
tp2624
Rp2625
tp2626
a(g68
g6
(g18
S'>\xcc\t9'
p2627
tp2628
Rp2629
tp2630
a(g32
g6
(g18
S'\xd8\x0b\xea8'
p2631
tp2632
Rp2633
tp2634
a(g2051
g6
(g18
S'\x99\xae\xc88'
p2635
tp2636
Rp2637
tp2638
asg73
g15
sa(dp2639
g2
S'../../../data/emanuela/activity-recognition/images/NTCIR-Lifelog-256/u3/2015-06-21/b00001088_21i79q_20150621_225900e.jpg'
p2640
sg4
(lp2641
(g15
g6
(g18
S'~iC?'
p2642
tp2643
Rp2644
tp2645
a(g555
g6
(g18
S'\xda\xf5\xb1='
p2646
tp2647
Rp2648
tp2649
a(g44
g6
(g18
S'\x8cQ7='
p2650
tp2651
Rp2652
tp2653
a(g317
g6
(g18
S'u\xb0\t='
p2654
tp2655
Rp2656
tp2657
a(g286
g6
(g18
S'7\xe0N<'
p2658
tp2659
Rp2660
tp2661
asg73
g15
sa(dp2662
g2
S'../../../data/emanuela/activity-recognition/images/NTCIR-Lifelog-256/u1/2015-03-13/b00000093_21i6bq_20150313_063523e.jpg'
p2663
sg4
(lp2664
(g15
g6
(g18
S'\x0f\xe4\x7f?'
p2665
tp2666
Rp2667
tp2668
a(g44
g6
(g18
S'\x10\xadj9'
p2669
tp2670
Rp2671
tp2672
a(g162
g6
(g18
S'\xa7\x9e\xb88'
p2673
tp2674
Rp2675
tp2676
a(g68
g6
(g18
S'\xe3\xb8n8'
p2677
tp2678
Rp2679
tp2680
a(g212
g6
(g18
S'Q\xaeW7'
p2681
tp2682
Rp2683
tp2684
asg73
g15
sa(dp2685
g2
S'../../../data/emanuela/activity-recognition/images/NTCIR-Lifelog-256/u3/2015-06-15/b00001087_21i79q_20150615_184334e.jpg'
p2686
sg4
(lp2687
(g15
g6
(g18
S'\xf6im?'
p2688
tp2689
Rp2690
tp2691
a(g44
g6
(g18
S'Ff\xe7<'
p2692
tp2693
Rp2694
tp2695
a(g104
g6
(g18
S'^5\xe0<'
p2696
tp2697
Rp2698
tp2699
a(g32
g6
(g18
S'\xec\x0f9;'
p2700
tp2701
Rp2702
tp2703
a(g212
g6
(g18
S'\xde\x913;'
p2704
tp2705
Rp2706
tp2707
asg73
g15
sa(dp2708
g2
S'../../../data/emanuela/activity-recognition/images/NTCIR-Lifelog-256/u3/2015-07-01/b00000918_21i79q_20150701_211531e.jpg'
p2709
sg4
(lp2710
(g15
g6
(g18
S'wom?'
p2711
tp2712
Rp2713
tp2714
a(g104
g6
(g18
S'\xa0\x9f\x01='
p2715
tp2716
Rp2717
tp2718
a(g44
g6
(g18
S'@B\xbd<'
p2719
tp2720
Rp2721
tp2722
a(g32
g6
(g18
S'\xa3\x03k;'
p2723
tp2724
Rp2725
tp2726
a(g88
g6
(g18
S'\xf1\x12d;'
p2727
tp2728
Rp2729
tp2730
asg73
g15
sa(dp2731
g2
S'../../../data/emanuela/activity-recognition/images/NTCIR-Lifelog-256/u1/2015-03-19/b00001460_21i6bq_20150319_055226e.jpg'
p2732
sg4
(lp2733
(g15
g6
(g18
S'\xff\xb3x?'
p2734
tp2735
Rp2736
tp2737
a(g68
g6
(g18
S'\x95J2<'
p2738
tp2739
Rp2740
tp2741
a(g162
g6
(g18
S'=\x1d\xaa;'
p2742
tp2743
Rp2744
tp2745
a(g286
g6
(g18
S'\xbc/g;'
p2746
tp2747
Rp2748
tp2749
a(g44
g6
(g18
S'G{\xfa:'
p2750
tp2751
Rp2752
tp2753
asg73
g15
sa(dp2754
g2
S'../../../data/emanuela/activity-recognition/images/NTCIR-Lifelog-256/u1/2015-02-28/b00000610_21i6bq_20150228_121001e.jpg'
p2755
sg4
(lp2756
(g68
g6
(g18
S'mrD?'
p2757
tp2758
Rp2759
tp2760
a(g15
g6
(g18
S'44\xe9='
p2761
tp2762
Rp2763
tp2764
a(g56
g6
(g18
S'v\xa8.='
p2765
tp2766
Rp2767
tp2768
a(g286
g6
(g18
S'\xd7\x0e\x12='
p2769
tp2770
Rp2771
tp2772
a(g181
g6
(g18
S'r\xe3\xa8<'
p2773
tp2774
Rp2775
tp2776
asg73
g15
sa(dp2777
g2
S'../../../data/emanuela/activity-recognition/images/NTCIR-Lifelog-256/u1/2015-02-28/b00000611_21i6bq_20150228_121037e.jpg'
p2778
sg4
(lp2779
(g68
g6
(g18
S'\xe6F\xf0>'
p2780
tp2781
Rp2782
tp2783
a(g181
g6
(g18
S'\x0bd\x8b>'
p2784
tp2785
Rp2786
tp2787
a(g15
g6
(g18
S'\x852\xca='
p2788
tp2789
Rp2790
tp2791
a(g56
g6
(g18
S'\x9edR='
p2792
tp2793
Rp2794
tp2795
a(g286
g6
(g18
S'2"F='
p2796
tp2797
Rp2798
tp2799
asg73
g15
sa(dp2800
g2
S'../../../data/emanuela/activity-recognition/images/NTCIR-Lifelog-256/u3/2015-06-15/b00001061_21i79q_20150615_183027e.jpg'
p2801
sg4
(lp2802
(g15
g6
(g18
S':\xca-?'
p2803
tp2804
Rp2805
tp2806
a(g44
g6
(g18
S'\xc6N\x04>'
p2807
tp2808
Rp2809
tp2810
a(g104
g6
(g18
S'\x8d\xeb\xc9='
p2811
tp2812
Rp2813
tp2814
a(g88
g6
(g18
S'$&\xe7<'
p2815
tp2816
Rp2817
tp2818
a(g228
g6
(g18
S'\xd0#q<'
p2819
tp2820
Rp2821
tp2822
asg73
g15
sa(dp2823
g2
S'../../../data/emanuela/activity-recognition/images/NTCIR-Lifelog-256/u1/2015-03-01/b00000086_21i6bq_20150301_074606e.jpg'
p2824
sg4
(lp2825
(g15
g6
(g18
S'^+~?'
p2826
tp2827
Rp2828
tp2829
a(g32
g6
(g18
S'\x1d\x91];'
p2830
tp2831
Rp2832
tp2833
a(g56
g6
(g18
S'.\x83\xff:'
p2834
tp2835
Rp2836
tp2837
a(g44
g6
(g18
S'\xb1d<:'
p2838
tp2839
Rp2840
tp2841
a(g162
g6
(g18
S'\x05I&:'
p2842
tp2843
Rp2844
tp2845
asg73
g15
sa(dp2846
g2
S'../../../data/emanuela/activity-recognition/images/NTCIR-Lifelog-256/u1/2015-03-13/b00000087_21i6bq_20150313_063155e.jpg'
p2847
sg4
(lp2848
(g15
g6
(g18
S'0~\x7f?'
p2849
tp2850
Rp2851
tp2852
a(g44
g6
(g18
S'\xb0\x0cV:'
p2853
tp2854
Rp2855
tp2856
a(g162
g6
(g18
S'G\xe6\xc99'
p2857
tp2858
Rp2859
tp2860
a(g68
g6
(g18
S'\x1b\xec\xc29'
p2861
tp2862
Rp2863
tp2864
a(g212
g6
(g18
S'\x82\xca\xf88'
p2865
tp2866
Rp2867
tp2868
asg73
g15
sa(dp2869
g2
S'../../../data/emanuela/activity-recognition/images/NTCIR-Lifelog-256/u3/2015-07-24/b00000641_21i79q_20150724_173854e.jpg'
p2870
sg4
(lp2871
(g15
g6
(g18
S'\xed\xd5~?'
p2872
tp2873
Rp2874
tp2875
a(g32
g6
(g18
S'd\x9c\xd8:'
p2876
tp2877
Rp2878
tp2879
a(g56
g6
(g18
S'\x9aQo:'
p2880
tp2881
Rp2882
tp2883
a(g44
g6
(g18
S']\xc2l:'
p2884
tp2885
Rp2886
tp2887
a(g68
g6
(g18
S'\xe3\xc6\x08:'
p2888
tp2889
Rp2890
tp2891
asg73
g15
sa(dp2892
g2
S'../../../data/emanuela/activity-recognition/images/NTCIR-Lifelog-256/u1/2015-02-24/b00000019_21i6bq_20150224_065200e.jpg'
p2893
sg4
(lp2894
(g15
g6
(g18
S'\x8e\xd3\xe8>'
p2895
tp2896
Rp2897
tp2898
a(g286
g6
(g18
S'\xa5\xdb\x88>'
p2899
tp2900
Rp2901
tp2902
a(g181
g6
(g18
S'W\r\xab='
p2903
tp2904
Rp2905
tp2906
a(g44
g6
(g18
S'\xd9\x8dK='
p2907
tp2908
Rp2909
tp2910
a(g6
(g7
(S'S7'
p2911
I0
I1
tp2912
Rp2913
(I3
S'|'
p2914
NNNI7
I1
I0
tp2915
bS'driving'
p2916
tp2917
Rp2918
g6
(g18
S'K\x95\xf9<'
p2919
tp2920
Rp2921
tp2922
asg73
g15
sa(dp2923
g2
S'../../../data/emanuela/activity-recognition/images/NTCIR-Lifelog-256/u1/2015-03-02/b00001134_21i6bq_20150302_185750e.jpg'
p2924
sg4
(lp2925
(g15
g6
(g18
S'\x8c3v?'
p2926
tp2927
Rp2928
tp2929
a(g181
g6
(g18
S'=\x94|<'
p2930
tp2931
Rp2932
tp2933
a(g56
g6
(g18
S'\x1d;)<'
p2934
tp2935
Rp2936
tp2937
a(g32
g6
(g18
S'%\x00x;'
p2938
tp2939
Rp2940
tp2941
a(g68
g6
(g18
S'\x83\x13c;'
p2942
tp2943
Rp2944
tp2945
asg73
g15
sa(dp2946
g2
S'../../../data/emanuela/activity-recognition/images/NTCIR-Lifelog-256/u1/2015-03-01/b00000139_21i6bq_20150301_081318e.jpg'
p2947
sg4
(lp2948
(g15
g6
(g18
S'Qy\x7f?'
p2949
tp2950
Rp2951
tp2952
a(g32
g6
(g18
S'D\x7fT:'
p2953
tp2954
Rp2955
tp2956
a(g44
g6
(g18
S'Y(9:'
p2957
tp2958
Rp2959
tp2960
a(g162
g6
(g18
S'&\xfa\x8b9'
p2961
tp2962
Rp2963
tp2964
a(g56
g6
(g18
S'\xe2\xc5"9'
p2965
tp2966
Rp2967
tp2968
asg73
g15
sa(dp2969
g2
S'../../../data/emanuela/activity-recognition/images/NTCIR-Lifelog-256/u3/2015-06-21/b00000943_21i79q_20150621_213458e.jpg'
p2970
sg4
(lp2971
(g104
g6
(g18
S'Z\xaa\x8e>'
p2972
tp2973
Rp2974
tp2975
a(g317
g6
(g18
S'.\xd0G>'
p2976
tp2977
Rp2978
tp2979
a(g32
g6
(g18
S'|\x87\x00>'
p2980
tp2981
Rp2982
tp2983
a(g15
g6
(g18
S'\x02\xc8\xe3='
p2984
tp2985
Rp2986
tp2987
a(g44
g6
(g18
S'`\xe2\x98='
p2988
tp2989
Rp2990
tp2991
asg73
g15
sa(dp2992
g2
S'../../../data/emanuela/activity-recognition/images/NTCIR-Lifelog-256/u3/2015-07-01/b00000913_21i79q_20150701_211255e.jpg'
p2993
sg4
(lp2994
(g15
g6
(g18
S'Pv\n?'
p2995
tp2996
Rp2997
tp2998
a(g44
g6
(g18
S'\xddo\x9a>'
p2999
tp3000
Rp3001
tp3002
a(g104
g6
(g18
S'\xf9\xe2\x90='
p3003
tp3004
Rp3005
tp3006
a(g88
g6
(g18
S'\xca?(='
p3007
tp3008
Rp3009
tp3010
a(g32
g6
(g18
S'\x8e\t\x1a<'
p3011
tp3012
Rp3013
tp3014
asg73
g15
sa(dp3015
g2
S'../../../data/emanuela/activity-recognition/images/NTCIR-Lifelog-256/u3/2015-06-15/b00001057_21i79q_20150615_182827e.jpg'
p3016
sg4
(lp3017
(g15
g6
(g18
S'\xeb\xd1R?'
p3018
tp3019
Rp3020
tp3021
a(g44
g6
(g18
S'\xf3\x8e\x9b='
p3022
tp3023
Rp3024
tp3025
a(g104
g6
(g18
S'\xc8\x8dz='
p3026
tp3027
Rp3028
tp3029
a(g88
g6
(g18
S'\x9c4><'
p3030
tp3031
Rp3032
tp3033
a(g228
g6
(g18
S'*\xc4\x8f;'
p3034
tp3035
Rp3036
tp3037
asg73
g15
sa(dp3038
g2
S'../../../data/emanuela/activity-recognition/images/NTCIR-Lifelog-256/u3/2015-07-01/b00000897_21i79q_20150701_210424e.jpg'
p3039
sg4
(lp3040
(g15
g6
(g18
S'\xb7fi?'
p3041
tp3042
Rp3043
tp3044
a(g44
g6
(g18
S'.\xafS='
p3045
tp3046
Rp3047
tp3048
a(g104
g6
(g18
S'\xc7f\xc8<'
p3049
tp3050
Rp3051
tp3052
a(g88
g6
(g18
S'\xb9\x80\x88;'
p3053
tp3054
Rp3055
tp3056
a(g32
g6
(g18
S'\x173w;'
p3057
tp3058
Rp3059
tp3060
asg73
g15
sa(dp3061
g2
S'../../../data/emanuela/activity-recognition/images/NTCIR-Lifelog-256/u1/2015-03-13/b00000083_21i6bq_20150313_062955e.jpg'
p3062
sg4
(lp3063
(g15
g6
(g18
S'\xc0\xd3\x7f?'
p3064
tp3065
Rp3066
tp3067
a(g44
g6
(g18
S'\xd3\xfa\xa29'
p3068
tp3069
Rp3070
tp3071
a(g162
g6
(g18
S'\x0c\xe8)9'
p3072
tp3073
Rp3074
tp3075
a(g68
g6
(g18
S'\x7fB\xdf8'
p3076
tp3077
Rp3078
tp3079
a(g212
g6
(g18
S'\x17\xa1\xfd7'
p3080
tp3081
Rp3082
tp3083
asg73
g15
sa(dp3084
g2
S'../../../data/emanuela/activity-recognition/images/NTCIR-Lifelog-256/u1/2015-03-01/b00000151_21i6bq_20150301_081959e.jpg'
p3085
sg4
(lp3086
(g15
g6
(g18
S')\x04\x0e?'
p3087
tp3088
Rp3089
tp3090
a(g32
g6
(g18
S'l\xa70>'
p3091
tp3092
Rp3093
tp3094
a(g56
g6
(g18
S'l\xb1!>'
p3095
tp3096
Rp3097
tp3098
a(g68
g6
(g18
S'\xcd\xac\xe3<'
p3099
tp3100
Rp3101
tp3102
a(g44
g6
(g18
S'\xb8\xb9\xd2<'
p3103
tp3104
Rp3105
tp3106
asg73
g15
sa(dp3107
g2
S'../../../data/emanuela/activity-recognition/images/NTCIR-Lifelog-256/u1/2015-03-01/b00000157_21i6bq_20150301_082329e.jpg'
p3108
sg4
(lp3109
(g15
g6
(g18
S'\xa4_\xfd>'
p3110
tp3111
Rp3112
tp3113
a(g56
g6
(g18
S'\xd1\x99\x1c>'
p3114
tp3115
Rp3116
tp3117
a(g32
g6
(g18
S']\x9b\xcf='
p3118
tp3119
Rp3120
tp3121
a(g44
g6
(g18
S' %\x83='
p3122
tp3123
Rp3124
tp3125
a(g286
g6
(g18
S'Mh2='
p3126
tp3127
Rp3128
tp3129
asg73
g15
sa(dp3130
g2
S'../../../data/emanuela/activity-recognition/images/NTCIR-Lifelog-256/u1/2015-02-25/b00001347_21i6bq_20150225_200250e.jpg'
p3131
sg4
(lp3132
(g15
g6
(g18
S'R\xeb\x7f?'
p3133
tp3134
Rp3135
tp3136
a(g68
g6
(g18
S'.2\t9'
p3137
tp3138
Rp3139
tp3140
a(g44
g6
(g18
S"'\xf6|8"
p3141
tp3142
Rp3143
tp3144
a(g162
g6
(g18
S'\x1a)j8'
p3145
tp3146
Rp3147
tp3148
a(g317
g6
(g18
S's\xa9\xb07'
p3149
tp3150
Rp3151
tp3152
asg73
g15
sa(dp3153
g2
S'../../../data/emanuela/activity-recognition/images/NTCIR-Lifelog-256/u1/2015-03-19/b00001454_21i6bq_20150319_054921e.jpg'
p3154
sg4
(lp3155
(g15
g6
(g18
S'~\x0fy?'
p3156
tp3157
Rp3158
tp3159
a(g68
g6
(g18
S"\x83\xe6'<"
p3160
tp3161
Rp3162
tp3163
a(g162
g6
(g18
S'IK\xb5;'
p3164
tp3165
Rp3166
tp3167
a(g286
g6
(g18
S'\xdc\xb4^;'
p3168
tp3169
Rp3170
tp3171
a(g44
g6
(g18
S'-\xac\xd3:'
p3172
tp3173
Rp3174
tp3175
asg73
g15
sa(dp3176
g2
S'../../../data/emanuela/activity-recognition/images/NTCIR-Lifelog-256/u3/2015-07-24/b00000756_21i79q_20150724_184307e.jpg'
p3177
sg4
(lp3178
(g15
g6
(g18
S'JR=?'
p3179
tp3180
Rp3181
tp3182
a(g32
g6
(g18
S'>G\xe1='
p3183
tp3184
Rp3185
tp3186
a(g68
g6
(g18
S'\xf3\x16\x96='
p3187
tp3188
Rp3189
tp3190
a(g212
g6
(g18
S')\xc9\xb8<'
p3191
tp3192
Rp3193
tp3194
a(g44
g6
(g18
S'\xac\x1ab<'
p3195
tp3196
Rp3197
tp3198
asg73
g15
sa(dp3199
g2
S'../../../data/emanuela/activity-recognition/images/NTCIR-Lifelog-256/u1/2015-02-25/b00001389_21i6bq_20150225_202422e.jpg'
p3200
sg4
(lp3201
(g15
g6
(g18
S'\x1a\xf9m?'
p3202
tp3203
Rp3204
tp3205
a(g68
g6
(g18
S'[\x1aV='
p3206
tp3207
Rp3208
tp3209
a(g162
g6
(g18
S'\x93\x9d\x0b<'
p3210
tp3211
Rp3212
tp3213
a(g317
g6
(g18
S'I\x16D;'
p3214
tp3215
Rp3216
tp3217
a(g286
g6
(g18
S'\xaf\x01\x1d;'
p3218
tp3219
Rp3220
tp3221
asg73
g15
sa(dp3222
g2
S'../../../data/emanuela/activity-recognition/images/NTCIR-Lifelog-256/u3/2015-07-24/b00000659_21i79q_20150724_174842e.jpg'
p3223
sg4
(lp3224
(g15
g6
(g18
S'\x16\x0f}?'
p3225
tp3226
Rp3227
tp3228
a(g44
g6
(g18
S'\xd8\xf7Y;'
p3229
tp3230
Rp3231
tp3232
a(g32
g6
(g18
S'D6%;'
p3233
tp3234
Rp3235
tp3236
a(g56
g6
(g18
S'\xbc\xbd!;'
p3237
tp3238
Rp3239
tp3240
a(g162
g6
(g18
S'&\x96\xb4:'
p3241
tp3242
Rp3243
tp3244
asg73
g15
sa(dp3245
g2
S'../../../data/emanuela/activity-recognition/images/NTCIR-Lifelog-256/u1/2015-03-15/b00000117_21i6bq_20150315_085208e.jpg'
p3246
sg4
(lp3247
(g15
g6
(g18
S'\xe8\xc6u?'
p3248
tp3249
Rp3250
tp3251
a(g44
g6
(g18
S'\xff\xef\x1c='
p3252
tp3253
Rp3254
tp3255
a(g68
g6
(g18
S'+\t\x11:'
p3256
tp3257
Rp3258
tp3259
a(g162
g6
(g18
S'\xac\xed\x969'
p3260
tp3261
Rp3262
tp3263
a(g228
g6
(g18
S'\x0e\x12\x8e9'
p3264
tp3265
Rp3266
tp3267
asg73
g15
sa(dp3268
g2
S'../../../data/emanuela/activity-recognition/images/NTCIR-Lifelog-256/u1/2015-02-25/b00001353_21i6bq_20150225_200553e.jpg'
p3269
sg4
(lp3270
(g15
g6
(g18
S'75\x7f?'
p3271
tp3272
Rp3273
tp3274
a(g68
g6
(g18
S'\x1bP\xd3:'
p3275
tp3276
Rp3277
tp3278
a(g162
g6
(g18
S'\xed\xdc5:'
p3279
tp3280
Rp3281
tp3282
a(g44
g6
(g18
S'v\x9a\x949'
p3283
tp3284
Rp3285
tp3286
a(g317
g6
(g18
S'\xd6\x9819'
p3287
tp3288
Rp3289
tp3290
asg73
g15
sa(dp3291
g2
S'../../../data/emanuela/activity-recognition/images/NTCIR-Lifelog-256/u3/2015-07-24/b00000967_21i79q_20150724_204503e.jpg'
p3292
sg4
(lp3293
(g15
g6
(g18
S'\xeaI}?'
p3294
tp3295
Rp3296
tp3297
a(g32
g6
(g18
S':\xfa\xd0;'
p3298
tp3299
Rp3300
tp3301
a(g56
g6
(g18
S'O\xfb\xe1:'
p3302
tp3303
Rp3304
tp3305
a(g44
g6
(g18
S'\xac\x1e\xa9:'
p3306
tp3307
Rp3308
tp3309
a(g68
g6
(g18
S'\x9d\xb7\xd79'
p3310
tp3311
Rp3312
tp3313
asg73
g15
sa(dp3314
g2
S'../../../data/emanuela/activity-recognition/images/NTCIR-Lifelog-256/u1/2015-02-28/b00001253_21i6bq_20150228_204538e.jpg'
p3315
sg4
(lp3316
(g15
g6
(g18
S'\x7f\xaf]?'
p3317
tp3318
Rp3319
tp3320
a(g32
g6
(g18
S'6$x='
p3321
tp3322
Rp3323
tp3324
a(g212
g6
(g18
S'*~\xa2<'
p3325
tp3326
Rp3327
tp3328
a(g44
g6
(g18
S'\xc0E`<'
p3329
tp3330
Rp3331
tp3332
a(g317
g6
(g18
S'\xb5\x0f\x00<'
p3333
tp3334
Rp3335
tp3336
asg73
g15
sa(dp3337
g2
S'../../../data/emanuela/activity-recognition/images/NTCIR-Lifelog-256/u3/2015-07-27/b00002385_21i79q_20150727_171422e.jpg'
p3338
sg4
(lp3339
(g15
g6
(g18
S"'0u?"
p3340
tp3341
Rp3342
tp3343
a(g32
g6
(g18
S'\xad"\xae<'
p3344
tp3345
Rp3346
tp3347
a(g56
g6
(g18
S'gi\x18<'
p3348
tp3349
Rp3350
tp3351
a(g68
g6
(g18
S'\x1f\xeb>;'
p3352
tp3353
Rp3354
tp3355
a(g162
g6
(g18
S'l\x988;'
p3356
tp3357
Rp3358
tp3359
asg73
g15
sa(dp3360
g2
S'../../../data/emanuela/activity-recognition/images/NTCIR-Lifelog-256/u3/2015-07-23/b00000306_21i79q_20150723_154130e.jpg'
p3361
sg4
(lp3362
(g15
g6
(g18
S'Kmp?'
p3363
tp3364
Rp3365
tp3366
a(g32
g6
(g18
S'\x9e5\xb7<'
p3367
tp3368
Rp3369
tp3370
a(g317
g6
(g18
S'\xe1\x91\xf3;'
p3371
tp3372
Rp3373
tp3374
a(g44
g6
(g18
S'go\xca;'
p3375
tp3376
Rp3377
tp3378
a(g68
g6
(g18
S'Wc\xbb;'
p3379
tp3380
Rp3381
tp3382
asg73
g15
sa(dp3383
g2
S'../../../data/emanuela/activity-recognition/images/NTCIR-Lifelog-256/u3/2015-07-17/b00000032_21i79q_20150717_140149e.jpg'
p3384
sg4
(lp3385
(g15
g6
(g18
S'\xe2\x90|?'
p3386
tp3387
Rp3388
tp3389
a(g32
g6
(g18
S'\xcf\xa7%<'
p3390
tp3391
Rp3392
tp3393
a(g56
g6
(g18
S'\x92y\x9f:'
p3394
tp3395
Rp3396
tp3397
a(g317
g6
(g18
S'\xd6>\xfc9'
p3398
tp3399
Rp3400
tp3401
a(g162
g6
(g18
S'\xeb\x19\xea9'
p3402
tp3403
Rp3404
tp3405
asg73
g15
sa(dp3406
g2
S'../../../data/emanuela/activity-recognition/images/NTCIR-Lifelog-256/u1/2015-03-14/b00000059_21i6bq_20150314_064333e.jpg'
p3407
sg4
(lp3408
(g15
g6
(g18
S'F\xec\x7f?'
p3409
tp3410
Rp3411
tp3412
a(g44
g6
(g18
S'\x99!a9'
p3413
tp3414
Rp3415
tp3416
a(g162
g6
(g18
S'G\x08)8'
p3417
tp3418
Rp3419
tp3420
a(g32
g6
(g18
S'\x92\x02o7'
p3421
tp3422
Rp3423
tp3424
a(g68
g6
(g18
S'\xb2\x1c\n7'
p3425
tp3426
Rp3427
tp3428
asg73
g15
sa(dp3429
g2
S'../../../data/emanuela/activity-recognition/images/NTCIR-Lifelog-256/u1/2015-02-28/b00000616_21i6bq_20150228_121320e.jpg'
p3430
sg4
(lp3431
(g181
g6
(g18
S'\xa9\xb2\x18?'
p3432
tp3433
Rp3434
tp3435
a(g15
g6
(g18
S'\xd7\x0c\x9c>'
p3436
tp3437
Rp3438
tp3439
a(g68
g6
(g18
S'\x88\x9e;='
p3440
tp3441
Rp3442
tp3443
a(g56
g6
(g18
S',\x8f\x82<'
p3444
tp3445
Rp3446
tp3447
a(g44
g6
(g18
S'\xe7\x16g<'
p3448
tp3449
Rp3450
tp3451
asg73
g15
sa(dp3452
g2
S'../../../data/emanuela/activity-recognition/images/NTCIR-Lifelog-256/u3/2015-07-24/b00000640_21i79q_20150724_173824e.jpg'
p3453
sg4
(lp3454
(g15
g6
(g18
S'V\x8d~?'
p3455
tp3456
Rp3457
tp3458
a(g32
g6
(g18
S'W0i;'
p3459
tp3460
Rp3461
tp3462
a(g56
g6
(g18
S'\\\x83w:'
p3463
tp3464
Rp3465
tp3466
a(g44
g6
(g18
S'G\x1a :'
p3467
tp3468
Rp3469
tp3470
a(g68
g6
(g18
S'Q\xa6C9'
p3471
tp3472
Rp3473
tp3474
asg73
g15
sa(dp3475
g2
S'../../../data/emanuela/activity-recognition/images/NTCIR-Lifelog-256/u1/2015-03-19/b00001485_21i6bq_20150319_060548e.jpg'
p3476
sg4
(lp3477
(g15
g6
(g18
S'\xabBz?'
p3478
tp3479
Rp3480
tp3481
a(g68
g6
(g18
S',\x92\x0e<'
p3482
tp3483
Rp3484
tp3485
a(g162
g6
(g18
S'b\xd9w;'
p3486
tp3487
Rp3488
tp3489
a(g286
g6
(g18
S'cR@;'
p3490
tp3491
Rp3492
tp3493
a(g555
g6
(g18
S'\x9a\x1c\xbf:'
p3494
tp3495
Rp3496
tp3497
asg73
g15
sa(dp3498
g2
S'../../../data/emanuela/activity-recognition/images/NTCIR-Lifelog-256/u1/2015-02-28/b00000598_21i6bq_20150228_120256e.jpg'
p3499
sg4
(lp3500
(g68
g6
(g18
S'-\x14B?'
p3501
tp3502
Rp3503
tp3504
a(g15
g6
(g18
S'C\xca\xe8='
p3505
tp3506
Rp3507
tp3508
a(g56
g6
(g18
S'\x98{o='
p3509
tp3510
Rp3511
tp3512
a(g181
g6
(g18
S's4\xf2<'
p3513
tp3514
Rp3515
tp3516
a(g286
g6
(g18
S'6\x10j<'
p3517
tp3518
Rp3519
tp3520
asg73
g15
sa(dp3521
g2
S'../../../data/emanuela/activity-recognition/images/NTCIR-Lifelog-256/u1/2015-02-26/b00000077_21i6bq_20150226_064952e.jpg'
p3522
sg4
(lp3523
(g15
g6
(g18
S'\xbf\xbb}?'
p3524
tp3525
Rp3526
tp3527
a(g162
g6
(g18
S'\xe2\xc1V;'
p3528
tp3529
Rp3530
tp3531
a(g44
g6
(g18
S'=\xb1\x16;'
p3532
tp3533
Rp3534
tp3535
a(g68
g6
(g18
S'\r\xaa\xca:'
p3536
tp3537
Rp3538
tp3539
a(g212
g6
(g18
S'z\xc2\x1a:'
p3540
tp3541
Rp3542
tp3543
asg73
g15
sa(dp3544
g2
S'../../../data/emanuela/activity-recognition/images/NTCIR-Lifelog-256/u1/2015-02-25/b00001275_21i6bq_20150225_192553e.jpg'
p3545
sg4
(lp3546
(g15
g6
(g18
S'\xf3\xe3\x7f?'
p3547
tp3548
Rp3549
tp3550
a(g162
g6
(g18
S'\xd4\xc2(9'
p3551
tp3552
Rp3553
tp3554
a(g68
g6
(g18
S'\xb9d\xb98'
p3555
tp3556
Rp3557
tp3558
a(g44
g6
(g18
S'6\x84\x858'
p3559
tp3560
Rp3561
tp3562
a(g555
g6
(g18
S'g\xff58'
p3563
tp3564
Rp3565
tp3566
asg73
g15
sa(dp3567
g2
S'../../../data/emanuela/activity-recognition/images/NTCIR-Lifelog-256/u3/2015-07-01/b00000431_21i79q_20150701_163806e.jpg'
p3568
sg4
(lp3569
(g44
g6
(g18
S'\xcb\x0f2?'
p3570
tp3571
Rp3572
tp3573
a(g2285
g6
(g18
S'\xcd"\xd7='
p3574
tp3575
Rp3576
tp3577
a(g88
g6
(g18
S'S6n='
p3578
tp3579
Rp3580
tp3581
a(g228
g6
(g18
S'C\xb5g='
p3582
tp3583
Rp3584
tp3585
a(g104
g6
(g18
S'+\xc6\x17='
p3586
tp3587
Rp3588
tp3589
asg73
g15
sa(dp3590
g2
S'../../../data/emanuela/activity-recognition/images/NTCIR-Lifelog-256/u3/2015-07-01/b00000907_21i79q_20150701_210944e.jpg'
p3591
sg4
(lp3592
(g15
g6
(g18
S'\x90&Y?'
p3593
tp3594
Rp3595
tp3596
a(g44
g6
(g18
S'\xbe\xe1\xa5='
p3597
tp3598
Rp3599
tp3600
a(g104
g6
(g18
S'\x9a\xe8\x16='
p3601
tp3602
Rp3603
tp3604
a(g88
g6
(g18
S'5\xc2\x18<'
p3605
tp3606
Rp3607
tp3608
a(g317
g6
(g18
S'\x9f\xa7\xdf;'
p3609
tp3610
Rp3611
tp3612
asg73
g15
sa(dp3613
g2
S'../../../data/emanuela/activity-recognition/images/NTCIR-Lifelog-256/u3/2015-07-24/b00000650_21i79q_20150724_174346e.jpg'
p3614
sg4
(lp3615
(g15
g6
(g18
S'E\xe0~?'
p3616
tp3617
Rp3618
tp3619
a(g32
g6
(g18
S'\xc2\xf6\xa5:'
p3620
tp3621
Rp3622
tp3623
a(g44
g6
(g18
S'c\xd9|:'
p3624
tp3625
Rp3626
tp3627
a(g68
g6
(g18
S'Bw{:'
p3628
tp3629
Rp3630
tp3631
a(g162
g6
(g18
S'7\xe1\xea9'
p3632
tp3633
Rp3634
tp3635
asg73
g15
sa(dp3636
g2
S'../../../data/emanuela/activity-recognition/images/NTCIR-Lifelog-256/u1/2015-03-05/b00000065_21i6bq_20150305_064356e.jpg'
p3637
sg4
(lp3638
(g15
g6
(g18
S'\xb7cz?'
p3639
tp3640
Rp3641
tp3642
a(g162
g6
(g18
S'}\xc1\x1d<'
p3643
tp3644
Rp3645
tp3646
a(g44
g6
(g18
S'\x8f\xa3(;'
p3647
tp3648
Rp3649
tp3650
a(g212
g6
(g18
S'5/#;'
p3651
tp3652
Rp3653
tp3654
a(g181
g6
(g18
S'%\xbb\xb0:'
p3655
tp3656
Rp3657
tp3658
asg73
g15
sa(dp3659
g2
S'../../../data/emanuela/activity-recognition/images/NTCIR-Lifelog-256/u3/2015-07-24/b00000720_21i79q_20150724_182236e.jpg'
p3660
sg4
(lp3661
(g15
g6
(g18
S'\xfdju?'
p3662
tp3663
Rp3664
tp3665
a(g44
g6
(g18
S'\xca\x9aa<'
p3666
tp3667
Rp3668
tp3669
a(g32
g6
(g18
S'\xdb\x1a\x00<'
p3670
tp3671
Rp3672
tp3673
a(g56
g6
(g18
S'\x04\xd7\xd9;'
p3674
tp3675
Rp3676
tp3677
a(g162
g6
(g18
S'\xe7\x1am;'
p3678
tp3679
Rp3680
tp3681
asg73
g15
sa(dp3682
g2
S'../../../data/emanuela/activity-recognition/images/NTCIR-Lifelog-256/u1/2015-03-05/b00000002_21i6bq_20150305_061213e.jpg'
p3683
sg4
(lp3684
(g15
g6
(g18
S'\x08\xeb\x19?'
p3685
tp3686
Rp3687
tp3688
a(g44
g6
(g18
S'(!p>'
p3689
tp3690
Rp3691
tp3692
a(g162
g6
(g18
S'\x88J\xcf='
p3693
tp3694
Rp3695
tp3696
a(g212
g6
(g18
S',{\xb3<'
p3697
tp3698
Rp3699
tp3700
a(g555
g6
(g18
S'\xfe\x961<'
p3701
tp3702
Rp3703
tp3704
asg73
g15
sa(dp3705
g2
S'../../../data/emanuela/activity-recognition/images/NTCIR-Lifelog-256/u1/2015-02-26/b00000074_21i6bq_20150226_064820e.jpg'
p3706
sg4
(lp3707
(g15
g6
(g18
S'\xa3\xed\x7f?'
p3708
tp3709
Rp3710
tp3711
a(g44
g6
(g18
S'\x9f\xb3\xf48'
p3712
tp3713
Rp3714
tp3715
a(g162
g6
(g18
S'\x91\xaf\x878'
p3716
tp3717
Rp3718
tp3719
a(g68
g6
(g18
S'\x08\xf4M8'
p3720
tp3721
Rp3722
tp3723
a(g212
g6
(g18
S'\xd0\x1c\xd07'
p3724
tp3725
Rp3726
tp3727
asg73
g15
sa(dp3728
g2
S'../../../data/emanuela/activity-recognition/images/NTCIR-Lifelog-256/u3/2015-06-15/b00001114_21i79q_20150615_185708e.jpg'
p3729
sg4
(lp3730
(g15
g6
(g18
S'\xff\xd5q?'
p3731
tp3732
Rp3733
tp3734
a(g44
g6
(g18
S"('\xd9<"
p3735
tp3736
Rp3737
tp3738
a(g104
g6
(g18
S'\x081\x85<'
p3739
tp3740
Rp3741
tp3742
a(g88
g6
(g18
S'$\xfd+;'
p3743
tp3744
Rp3745
tp3746
a(g32
g6
(g18
S'\x13;\x1d;'
p3747
tp3748
Rp3749
tp3750
asg73
g15
sa(dp3751
g2
S'../../../data/emanuela/activity-recognition/images/NTCIR-Lifelog-256/u3/2015-06-15/b00001060_21i79q_20150615_182957e.jpg'
p3752
sg4
(lp3753
(g15
g6
(g18
S'k\xb7u?'
p3754
tp3755
Rp3756
tp3757
a(g44
g6
(g18
S'G\x1b\xd0<'
p3758
tp3759
Rp3760
tp3761
a(g104
g6
(g18
S'\x8c\xf9\xdd;'
p3762
tp3763
Rp3764
tp3765
a(g32
g6
(g18
S'?\xb7\xf4:'
p3766
tp3767
Rp3768
tp3769
a(g88
g6
(g18
S'\xcb\x01\xc1:'
p3770
tp3771
Rp3772
tp3773
asg73
g15
sa(dp3774
g2
S'../../../data/emanuela/activity-recognition/images/NTCIR-Lifelog-256/u3/2015-07-24/b00000958_21i79q_20150724_203940e.jpg'
p3775
sg4
(lp3776
(g15
g6
(g18
S'\x1d`|?'
p3777
tp3778
Rp3779
tp3780
a(g32
g6
(g18
S'Y\xdc\xb9;'
p3781
tp3782
Rp3783
tp3784
a(g44
g6
(g18
S'\xbc)1;'
p3785
tp3786
Rp3787
tp3788
a(g68
g6
(g18
S'\x08=\x1c;'
p3789
tp3790
Rp3791
tp3792
a(g212
g6
(g18
S'\xb1\x11\x98:'
p3793
tp3794
Rp3795
tp3796
asg73
g15
sa(dp3797
g2
S'../../../data/emanuela/activity-recognition/images/NTCIR-Lifelog-256/u3/2015-06-21/b00001080_21i79q_20150621_225320e.jpg'
p3798
sg4
(lp3799
(g44
g6
(g18
S'\x17\xfa%>'
p3800
tp3801
Rp3802
tp3803
a(g317
g6
(g18
S'\x99\xde\x1d>'
p3804
tp3805
Rp3806
tp3807
a(g181
g6
(g18
S'\xc7y\x10>'
p3808
tp3809
Rp3810
tp3811
a(g15
g6
(g18
S'\x12\xb6\xfb='
p3812
tp3813
Rp3814
tp3815
a(g2285
g6
(g18
S'7\xf2\xbc='
p3816
tp3817
Rp3818
tp3819
asg73
g15
sa(dp3820
g2
S'../../../data/emanuela/activity-recognition/images/NTCIR-Lifelog-256/u3/2015-07-24/b00000763_21i79q_20150724_184721e.jpg'
p3821
sg4
(lp3822
(g15
g6
(g18
S'\xa0\xcd}?'
p3823
tp3824
Rp3825
tp3826
a(g44
g6
(g18
S'emu;'
p3827
tp3828
Rp3829
tp3830
a(g32
g6
(g18
S'^\x19\x15;'
p3831
tp3832
Rp3833
tp3834
a(g56
g6
(g18
S'.S\xd8:'
p3835
tp3836
Rp3837
tp3838
a(g68
g6
(g18
S'l\xd2\x999'
p3839
tp3840
Rp3841
tp3842
asg73
g15
sa(dp3843
g2
S'../../../data/emanuela/activity-recognition/images/NTCIR-Lifelog-256/u3/2015-07-24/b00000932_21i79q_20150724_202505e.jpg'
p3844
sg4
(lp3845
(g15
g6
(g18
S'\xe6.k?'
p3846
tp3847
Rp3848
tp3849
a(g32
g6
(g18
S'WU ='
p3850
tp3851
Rp3852
tp3853
a(g44
g6
(g18
S'*c\xf2<'
p3854
tp3855
Rp3856
tp3857
a(g56
g6
(g18
S'Uc\x93;'
p3858
tp3859
Rp3860
tp3861
a(g162
g6
(g18
S'D\xd6\x08;'
p3862
tp3863
Rp3864
tp3865
asg73
g15
sa(dp3866
g2
S'../../../data/emanuela/activity-recognition/images/NTCIR-Lifelog-256/u1/2015-02-23/b00001201_21i6bq_20150223_200301e.jpg'
p3867
sg4
(lp3868
(g15
g6
(g18
S',\xe1N?'
p3869
tp3870
Rp3871
tp3872
a(g68
g6
(g18
S'\xa4\xe8\xd9='
p3873
tp3874
Rp3875
tp3876
a(g32
g6
(g18
S'H\xadG='
p3877
tp3878
Rp3879
tp3880
a(g56
g6
(g18
S'J\xddH<'
p3881
tp3882
Rp3883
tp3884
a(g317
g6
(g18
S'\xba7\xbf;'
p3885
tp3886
Rp3887
tp3888
asg73
g15
sa(dp3889
g2
S'../../../data/emanuela/activity-recognition/images/NTCIR-Lifelog-256/u1/2015-03-14/b00000058_21i6bq_20150314_064259e.jpg'
p3890
sg4
(lp3891
(g15
g6
(g18
S'\xc9\xef\x7f?'
p3892
tp3893
Rp3894
tp3895
a(g44
g6
(g18
S'&269'
p3896
tp3897
Rp3898
tp3899
a(g162
g6
(g18
S'\xe6b\xe57'
p3900
tp3901
Rp3902
tp3903
a(g32
g6
(g18
S'\xe8\x91\x807'
p3904
tp3905
Rp3906
tp3907
a(g68
g6
(g18
S'8\x88@7'
p3908
tp3909
Rp3910
tp3911
asg73
g15
sa(dp3912
g2
S'../../../data/emanuela/activity-recognition/images/NTCIR-Lifelog-256/u1/2015-02-23/b00001213_21i6bq_20150223_201023e.jpg'
p3913
sg4
(lp3914
(g15
g6
(g18
S'U\x00D?'
p3915
tp3916
Rp3917
tp3918
a(g68
g6
(g18
S'\x15n\xa9='
p3919
tp3920
Rp3921
tp3922
a(g32
g6
(g18
S'\x01\x83\xa0='
p3923
tp3924
Rp3925
tp3926
a(g56
g6
(g18
S'\xaaZ\xd4<'
p3927
tp3928
Rp3929
tp3930
a(g44
g6
(g18
S'n\n#<'
p3931
tp3932
Rp3933
tp3934
asg73
g15
sa(dp3935
g2
S'../../../data/emanuela/activity-recognition/images/NTCIR-Lifelog-256/u3/2015-07-22/b00000475_21i79q_20150722_143959e.jpg'
p3936
sg4
(lp3937
(g15
g6
(g18
S'\xae\xc5z?'
p3938
tp3939
Rp3940
tp3941
a(g32
g6
(g18
S'\xc3p\xb4;'
p3942
tp3943
Rp3944
tp3945
a(g44
g6
(g18
S'\xc3\xd0\xb2;'
p3946
tp3947
Rp3948
tp3949
a(g68
g6
(g18
S'\xd1Q\x81;'
p3950
tp3951
Rp3952
tp3953
a(g56
g6
(g18
S'\xee\xb4\x13;'
p3954
tp3955
Rp3956
tp3957
asg73
g15
sa(dp3958
g2
S'../../../data/emanuela/activity-recognition/images/NTCIR-Lifelog-256/u3/2015-07-01/b00000947_21i79q_20150701_212638e.jpg'
p3959
sg4
(lp3960
(g15
g6
(g18
S'{\\d?'
p3961
tp3962
Rp3963
tp3964
a(g104
g6
(g18
S'\xc1\xb9\x0b='
p3965
tp3966
Rp3967
tp3968
a(g44
g6
(g18
S'R\xbe\xd5<'
p3969
tp3970
Rp3971
tp3972
a(g32
g6
(g18
S'\xc7\xff\xa2<'
p3973
tp3974
Rp3975
tp3976
a(g88
g6
(g18
S'\x81\xbdM<'
p3977
tp3978
Rp3979
tp3980
asg73
g15
sa(dp3981
g2
S'../../../data/emanuela/activity-recognition/images/NTCIR-Lifelog-256/u1/2015-02-25/b00001369_21i6bq_20150225_201409e.jpg'
p3982
sg4
(lp3983
(g15
g6
(g18
S'\xfb\xf6n?'
p3984
tp3985
Rp3986
tp3987
a(g68
g6
(g18
S'\xc5\xd1Q='
p3988
tp3989
Rp3990
tp3991
a(g162
g6
(g18
S'T3\xc6;'
p3992
tp3993
Rp3994
tp3995
a(g317
g6
(g18
S'\xbe8K;'
p3996
tp3997
Rp3998
tp3999
a(g286
g6
(g18
S'5\x84\n;'
p4000
tp4001
Rp4002
tp4003
asg73
g15
sa(dp4004
g2
S'../../../data/emanuela/activity-recognition/images/NTCIR-Lifelog-256/u3/2015-07-24/b00000631_21i79q_20150724_173318e.jpg'
p4005
sg4
(lp4006
(g15
g6
(g18
S'\x94\xfb~?'
p4007
tp4008
Rp4009
tp4010
a(g32
g6
(g18
S'\x9cV\xda:'
p4011
tp4012
Rp4013
tp4014
a(g44
g6
(g18
S'\xbfXp:'
p4015
tp4016
Rp4017
tp4018
a(g162
g6
(g18
S'\x955\xe59'
p4019
tp4020
Rp4021
tp4022
a(g56
g6
(g18
S'\x1f\x14\xe39'
p4023
tp4024
Rp4025
tp4026
asg73
g15
sa(dp4027
g2
S'../../../data/emanuela/activity-recognition/images/NTCIR-Lifelog-256/u1/2015-03-01/b00000155_21i6bq_20150301_082219e.jpg'
p4028
sg4
(lp4029
(g15
g6
(g18
S't[\x02?'
p4030
tp4031
Rp4032
tp4033
a(g56
g6
(g18
S'\x89\x1b\xa8>'
p4034
tp4035
Rp4036
tp4037
a(g162
g6
(g18
S'\xd7\xb6$='
p4038
tp4039
Rp4040
tp4041
a(g32
g6
(g18
S'\xa09$='
p4042
tp4043
Rp4044
tp4045
a(g44
g6
(g18
S'mo\xb5<'
p4046
tp4047
Rp4048
tp4049
asg73
g15
sa(dp4050
g2
S'../../../data/emanuela/activity-recognition/images/NTCIR-Lifelog-256/u3/2015-07-22/b00000431_21i79q_20150722_141622e.jpg'
p4051
sg4
(lp4052
(g15
g6
(g18
S'\xe1Yw?'
p4053
tp4054
Rp4055
tp4056
a(g32
g6
(g18
S'\xae\x07\xe5<'
p4057
tp4058
Rp4059
tp4060
a(g56
g6
(g18
S'\xe2I\xa2;'
p4061
tp4062
Rp4063
tp4064
a(g555
g6
(g18
S'\xcc\xbdG9'
p4065
tp4066
Rp4067
tp4068
a(g162
g6
(g18
S'\x1d\x9f99'
p4069
tp4070
Rp4071
tp4072
asg73
g15
sa(dp4073
g2
S'../../../data/emanuela/activity-recognition/images/NTCIR-Lifelog-256/u3/2015-07-01/b00000885_21i79q_20150701_205758e.jpg'
p4074
sg4
(lp4075
(g15
g6
(g18
S'V\x98\x0f?'
p4076
tp4077
Rp4078
tp4079
a(g44
g6
(g18
S'vTg>'
p4080
tp4081
Rp4082
tp4083
a(g104
g6
(g18
S'1\xbf\xc3='
p4084
tp4085
Rp4086
tp4087
a(g88
g6
(g18
S'\x84\xae\xa1='
p4088
tp4089
Rp4090
tp4091
a(g32
g6
(g18
S'0\xd2\xf4<'
p4092
tp4093
Rp4094
tp4095
asg73
g15
sa(dp4096
g2
S'../../../data/emanuela/activity-recognition/images/NTCIR-Lifelog-256/u3/2015-07-01/b00000889_21i79q_20150701_210002e.jpg'
p4097
sg4
(lp4098
(g15
g6
(g18
S'\x12)|?'
p4099
tp4100
Rp4101
tp4102
a(g44
g6
(g18
S'\x18\xad\xee;'
p4103
tp4104
Rp4105
tp4106
a(g104
g6
(g18
S'Za\x12;'
p4107
tp4108
Rp4109
tp4110
a(g32
g6
(g18
S'\xfe\x8b\xe4:'
p4111
tp4112
Rp4113
tp4114
a(g88
g6
(g18
S'\xd34\xa5:'
p4115
tp4116
Rp4117
tp4118
asg73
g15
sa(dp4119
g2
S'../../../data/emanuela/activity-recognition/images/NTCIR-Lifelog-256/u1/2015-02-25/b00001330_21i6bq_20150225_195357e.jpg'
p4120
sg4
(lp4121
(g15
g6
(g18
S'\xf3\xf2\x7f?'
p4122
tp4123
Rp4124
tp4125
a(g68
g6
(g18
S'j\xea\xb58'
p4126
tp4127
Rp4128
tp4129
a(g44
g6
(g18
S':\xe0\x148'
p4130
tp4131
Rp4132
tp4133
a(g162
g6
(g18
S'\x97\xb3\xd27'
p4134
tp4135
Rp4136
tp4137
a(g555
g6
(g18
S'\x99\xac\xa07'
p4138
tp4139
Rp4140
tp4141
asg73
g15
sa(dp4142
g2
S'../../../data/emanuela/activity-recognition/images/NTCIR-Lifelog-256/u1/2015-02-25/b00000062_21i6bq_20150225_062701e.jpg'
p4143
sg4
(lp4144
(g15
g6
(g18
S'3\x1e~?'
p4145
tp4146
Rp4147
tp4148
a(g162
g6
(g18
S'ED";'
p4149
tp4150
Rp4151
tp4152
a(g68
g6
(g18
S'*\xaf\xf7:'
p4153
tp4154
Rp4155
tp4156
a(g212
g6
(g18
S'\xb0$O:'
p4157
tp4158
Rp4159
tp4160
a(g317
g6
(g18
S'v\x87#:'
p4161
tp4162
Rp4163
tp4164
asg73
g15
sa(dp4165
g2
S'../../../data/emanuela/activity-recognition/images/NTCIR-Lifelog-256/u3/2015-07-24/b00000539_21i79q_20150724_164037e.jpg'
p4166
sg4
(lp4167
(g15
g6
(g18
S'|\xde=?'
p4168
tp4169
Rp4170
tp4171
a(g32
g6
(g18
S'/\x9dm>'
p4172
tp4173
Rp4174
tp4175
a(g56
g6
(g18
S"'\xff=<"
p4176
tp4177
Rp4178
tp4179
a(g68
g6
(g18
S'\xedKf;'
p4180
tp4181
Rp4182
tp4183
a(g317
g6
(g18
S'\xeaCV;'
p4184
tp4185
Rp4186
tp4187
asg73
g15
sa(dp4188
g2
S'../../../data/emanuela/activity-recognition/images/NTCIR-Lifelog-256/u3/2015-07-24/b00000695_21i79q_20150724_180759e.jpg'
p4189
sg4
(lp4190
(g15
g6
(g18
S'P+}?'
p4191
tp4192
Rp4193
tp4194
a(g32
g6
(g18
S'\x82\x01\x90;'
p4195
tp4196
Rp4197
tp4198
a(g68
g6
(g18
S'1\x152;'
p4199
tp4200
Rp4201
tp4202
a(g56
g6
(g18
S'\x17r\n;'
p4203
tp4204
Rp4205
tp4206
a(g44
g6
(g18
S'Yq\x17:'
p4207
tp4208
Rp4209
tp4210
asg73
g15
sa(dp4211
g2
S'../../../data/emanuela/activity-recognition/images/NTCIR-Lifelog-256/u1/2015-03-01/b00000998_21i6bq_20150301_164210e.jpg'
p4212
sg4
(lp4213
(g56
g6
(g18
S'\x8d\xa0\xd2>'
p4214
tp4215
Rp4216
tp4217
a(g15
g6
(g18
S'M\xc9\xd0>'
p4218
tp4219
Rp4220
tp4221
a(g162
g6
(g18
S'\xacx,='
p4222
tp4223
Rp4224
tp4225
a(g32
g6
(g18
S' \xb8\x01='
p4226
tp4227
Rp4228
tp4229
a(g555
g6
(g18
S'7\xc2\x00='
p4230
tp4231
Rp4232
tp4233
asg73
g15
sa(dp4234
g2
S'../../../data/emanuela/activity-recognition/images/NTCIR-Lifelog-256/u1/2015-02-25/b00001334_21i6bq_20150225_195613e.jpg'
p4235
sg4
(lp4236
(g15
g6
(g18
S'=\x89\x7f?'
p4237
tp4238
Rp4239
tp4240
a(g68
g6
(g18
S'\xe5hs:'
p4241
tp4242
Rp4243
tp4244
a(g162
g6
(g18
S'\xd0\x82\xdc9'
p4245
tp4246
Rp4247
tp4248
a(g44
g6
(g18
S't\xb2:9'
p4249
tp4250
Rp4251
tp4252
a(g317
g6
(g18
S'\x11\xd8\xae8'
p4253
tp4254
Rp4255
tp4256
asg73
g15
sa(dp4257
g2
S'../../../data/emanuela/activity-recognition/images/NTCIR-Lifelog-256/u1/2015-03-10/b00001576_21i6bq_20150310_070245e.jpg'
p4258
sg4
(lp4259
(g15
g6
(g18
S'\xd7\x95}?'
p4260
tp4261
Rp4262
tp4263
a(g162
g6
(g18
S'z\x9e];'
p4264
tp4265
Rp4266
tp4267
a(g68
g6
(g18
S'\xacB ;'
p4268
tp4269
Rp4270
tp4271
a(g317
g6
(g18
S'\xf2\xd5\x8e:'
p4272
tp4273
Rp4274
tp4275
a(g44
g6
(g18
S'\xde\xc82:'
p4276
tp4277
Rp4278
tp4279
asg73
g15
sa(dp4280
g2
S'../../../data/emanuela/activity-recognition/images/NTCIR-Lifelog-256/u1/2015-03-10/b00001571_21i6bq_20150310_065929e.jpg'
p4281
sg4
(lp4282
(g15
g6
(g18
S'7\xe3\x7f?'
p4283
tp4284
Rp4285
tp4286
a(g68
g6
(g18
S'\xfe\xe8\x1f9'
p4287
tp4288
Rp4289
tp4290
a(g162
g6
(g18
S'\x81^\xd08'
p4291
tp4292
Rp4293
tp4294
a(g44
g6
(g18
S'\x15v\x9f8'
p4295
tp4296
Rp4297
tp4298
a(g317
g6
(g18
S'\x92*\x028'
p4299
tp4300
Rp4301
tp4302
asg73
g15
sa(dp4303
g2
S'../../../data/emanuela/activity-recognition/images/NTCIR-Lifelog-256/u3/2015-07-24/b00000256_21i79q_20150724_140345e.jpg'
p4304
sg4
(lp4305
(g15
g6
(g18
S'\x82cw?'
p4306
tp4307
Rp4308
tp4309
a(g162
g6
(g18
S'<\xc7\r<'
p4310
tp4311
Rp4312
tp4313
a(g68
g6
(g18
S'V\xa6\xce;'
p4314
tp4315
Rp4316
tp4317
a(g56
g6
(g18
S'\xde\\\xb8;'
p4318
tp4319
Rp4320
tp4321
a(g44
g6
(g18
S'c\x9f\xa9;'
p4322
tp4323
Rp4324
tp4325
asg73
g15
sa(dp4326
g2
S'../../../data/emanuela/activity-recognition/images/NTCIR-Lifelog-256/u3/2015-07-01/b00000930_21i79q_20150701_211742e.jpg'
p4327
sg4
(lp4328
(g15
g6
(g18
S';\x8d]?'
p4329
tp4330
Rp4331
tp4332
a(g104
g6
(g18
S'\xc3\xfai='
p4333
tp4334
Rp4335
tp4336
a(g44
g6
(g18
S'\xce\xd2,='
p4337
tp4338
Rp4339
tp4340
a(g88
g6
(g18
S'3\x0b <'
p4341
tp4342
Rp4343
tp4344
a(g931
g6
(g18
S'\x01\xd6\x19<'
p4345
tp4346
Rp4347
tp4348
asg73
g15
sa(dp4349
g2
S'../../../data/emanuela/activity-recognition/images/NTCIR-Lifelog-256/u3/2015-06-15/b00001106_21i79q_20150615_185306e.jpg'
p4350
sg4
(lp4351
(g15
g6
(g18
S'=\x11w?'
p4352
tp4353
Rp4354
tp4355
a(g44
g6
(g18
S'+j\xa1<'
p4356
tp4357
Rp4358
tp4359
a(g104
g6
(g18
S'\x10\xe2\xe8;'
p4360
tp4361
Rp4362
tp4363
a(g88
g6
(g18
S'&\x90\xe3:'
p4364
tp4365
Rp4366
tp4367
a(g32
g6
(g18
S'\x8cw\xc0:'
p4368
tp4369
Rp4370
tp4371
asg73
g15
sa(dp4372
g2
S'../../../data/emanuela/activity-recognition/images/NTCIR-Lifelog-256/u3/2015-06-15/b00000989_21i79q_20150615_175419e.jpg'
p4373
sg4
(lp4374
(g15
g6
(g18
S'\x9d\xbcx?'
p4375
tp4376
Rp4377
tp4378
a(g44
g6
(g18
S'\x08jr<'
p4379
tp4380
Rp4381
tp4382
a(g104
g6
(g18
S'\xb49\x95;'
p4383
tp4384
Rp4385
tp4386
a(g32
g6
(g18
S'\xc7\x13\x7f;'
p4387
tp4388
Rp4389
tp4390
a(g162
g6
(g18
S'\xfc\xc0I:'
p4391
tp4392
Rp4393
tp4394
asg73
g15
sa(dp4395
g2
S'../../../data/emanuela/activity-recognition/images/NTCIR-Lifelog-256/u1/2015-03-01/b00000156_21i6bq_20150301_082249e.jpg'
p4396
sg4
(lp4397
(g15
g6
(g18
S'\x001\xf4>'
p4398
tp4399
Rp4400
tp4401
a(g56
g6
(g18
S'\xdd\xd4\xbf>'
p4402
tp4403
Rp4404
tp4405
a(g32
g6
(g18
S'\xd8\x1d\x1c='
p4406
tp4407
Rp4408
tp4409
a(g44
g6
(g18
S'\xb0\xa2\xba<'
p4410
tp4411
Rp4412
tp4413
a(g68
g6
(g18
S'\x08\x82\x94<'
p4414
tp4415
Rp4416
tp4417
asg73
g15
sa(dp4418
g2
S'../../../data/emanuela/activity-recognition/images/NTCIR-Lifelog-256/u1/2015-03-01/b00000129_21i6bq_20150301_080734e.jpg'
p4419
sg4
(lp4420
(g15
g6
(g18
S'Z.x?'
p4421
tp4422
Rp4423
tp4424
a(g32
g6
(g18
S'6\xcb\xac<'
p4425
tp4426
Rp4427
tp4428
a(g44
g6
(g18
S'r$\xd4;'
p4429
tp4430
Rp4431
tp4432
a(g56
g6
(g18
S'\xfe7\xac:'
p4433
tp4434
Rp4435
tp4436
a(g162
g6
(g18
S'\x8a\xc4\xdf9'
p4437
tp4438
Rp4439
tp4440
asg73
g15
sa(dp4441
g2
S'../../../data/emanuela/activity-recognition/images/NTCIR-Lifelog-256/u1/2015-02-23/b00001216_21i6bq_20150223_201221e.jpg'
p4442
sg4
(lp4443
(g15
g6
(g18
S'\xf6B\xfd>'
p4444
tp4445
Rp4446
tp4447
a(g181
g6
(g18
S'D-\x15>'
p4448
tp4449
Rp4450
tp4451
a(g44
g6
(g18
S'_w\xbf='
p4452
tp4453
Rp4454
tp4455
a(g212
g6
(g18
S'4\xcdu='
p4456
tp4457
Rp4458
tp4459
a(g32
g6
(g18
S'\xff@t='
p4460
tp4461
Rp4462
tp4463
asg73
g15
sa(dp4464
g2
S'../../../data/emanuela/activity-recognition/images/NTCIR-Lifelog-256/u1/2015-03-10/b00001598_21i6bq_20150310_071819e.jpg'
p4465
sg4
(lp4466
(g15
g6
(g18
S'\x1b\xd0\x7f?'
p4467
tp4468
Rp4469
tp4470
a(g68
g6
(g18
S'1\x13\xc19'
p4471
tp4472
Rp4473
tp4474
a(g162
g6
(g18
S'\xe0\xb7\xa48'
p4475
tp4476
Rp4477
tp4478
a(g317
g6
(g18
S'\xb8\x1a\x9d8'
p4479
tp4480
Rp4481
tp4482
a(g32
g6
(g18
S'S\xaf\x7f8'
p4483
tp4484
Rp4485
tp4486
asg73
g15
sa(dp4487
g2
S'../../../data/emanuela/activity-recognition/images/NTCIR-Lifelog-256/u3/2015-06-15/b00001067_21i79q_20150615_183328e.jpg'
p4488
sg4
(lp4489
(g15
g6
(g18
S'\x13\xceb?'
p4490
tp4491
Rp4492
tp4493
a(g44
g6
(g18
S'T\xe2\x97='
p4494
tp4495
Rp4496
tp4497
a(g104
g6
(g18
S'\xa4\xcf\xa6<'
p4498
tp4499
Rp4500
tp4501
a(g88
g6
(g18
S':\xbd\x9d;'
p4502
tp4503
Rp4504
tp4505
a(g32
g6
(g18
S'\x02!S;'
p4506
tp4507
Rp4508
tp4509
asg73
g15
sa(dp4510
g2
S'../../../data/emanuela/activity-recognition/images/NTCIR-Lifelog-256/u3/2015-06-18/b00000479_21i79q_20150618_181026e.jpg'
p4511
sg4
(lp4512
(g15
g6
(g18
S'\xf4dt?'
p4513
tp4514
Rp4515
tp4516
a(g68
g6
(g18
S'\xe6hc<'
p4517
tp4518
Rp4519
tp4520
a(g32
g6
(g18
S'\xc7~9<'
p4521
tp4522
Rp4523
tp4524
a(g317
g6
(g18
S'\xd8\x8c\x89;'
p4525
tp4526
Rp4527
tp4528
a(g56
g6
(g18
S'\x0b\xa1q;'
p4529
tp4530
Rp4531
tp4532
asg73
g15
sa(dp4533
g2
S'../../../data/emanuela/activity-recognition/images/NTCIR-Lifelog-256/u3/2015-07-01/b00000922_21i79q_20150701_211621e.jpg'
p4534
sg4
(lp4535
(g15
g6
(g18
S'\xb5\x90|?'
p4536
tp4537
Rp4538
tp4539
a(g44
g6
(g18
S')\x86\x15<'
p4540
tp4541
Rp4542
tp4543
a(g32
g6
(g18
S'\x8e`\xae:'
p4544
tp4545
Rp4546
tp4547
a(g104
g6
(g18
S'Y\x93\x8e:'
p4548
tp4549
Rp4550
tp4551
a(g68
g6
(g18
S'\x9a\xe3\x08:'
p4552
tp4553
Rp4554
tp4555
asg73
g15
sa(dp4556
g2
S'../../../data/emanuela/activity-recognition/images/NTCIR-Lifelog-256/u3/2015-07-24/b00000633_21i79q_20150724_173427e.jpg'
p4557
sg4
(lp4558
(g44
g6
(g18
S'G\x06\x85>'
p4559
tp4560
Rp4561
tp4562
a(g32
g6
(g18
S'}\xbb%>'
p4563
tp4564
Rp4565
tp4566
a(g181
g6
(g18
S'm{\xba='
p4567
tp4568
Rp4569
tp4570
a(g88
g6
(g18
S'i6\x97='
p4571
tp4572
Rp4573
tp4574
a(g56
g6
(g18
S'\xcb\\\x94='
p4575
tp4576
Rp4577
tp4578
asg73
g15
sa(dp4579
g2
S'../../../data/emanuela/activity-recognition/images/NTCIR-Lifelog-256/u3/2015-06-15/b00001056_21i79q_20150615_182757e.jpg'
p4580
sg4
(lp4581
(g15
g6
(g18
S'\x0c\xaej?'
p4582
tp4583
Rp4584
tp4585
a(g44
g6
(g18
S'4\xcb:='
p4586
tp4587
Rp4588
tp4589
a(g104
g6
(g18
S'\xf0\x82\xa3<'
p4590
tp4591
Rp4592
tp4593
a(g88
g6
(g18
S'\x17<\xb3;'
p4594
tp4595
Rp4596
tp4597
a(g32
g6
(g18
S'1\xcc\x80;'
p4598
tp4599
Rp4600
tp4601
asg73
g15
sa(dp4602
g2
S'../../../data/emanuela/activity-recognition/images/NTCIR-Lifelog-256/u3/2015-06-15/b00001108_21i79q_20150615_185407e.jpg'
p4603
sg4
(lp4604
(g15
g6
(g18
S'\xd8\xd9n?'
p4605
tp4606
Rp4607
tp4608
a(g44
g6
(g18
S'\x8dS\x01='
p4609
tp4610
Rp4611
tp4612
a(g104
g6
(g18
S'\x80\xad\xa3<'
p4613
tp4614
Rp4615
tp4616
a(g88
g6
(g18
S'\x1b\xe1_;'
p4617
tp4618
Rp4619
tp4620
a(g212
g6
(g18
S'\x04RO;'
p4621
tp4622
Rp4623
tp4624
asg73
g15
sa(dp4625
g2
S'../../../data/emanuela/activity-recognition/images/NTCIR-Lifelog-256/u3/2015-06-15/b00001030_21i79q_20150615_181455e.jpg'
p4626
sg4
(lp4627
(g15
g6
(g18
S'M\xe44?'
p4628
tp4629
Rp4630
tp4631
a(g44
g6
(g18
S'\xd1U\x08>'
p4632
tp4633
Rp4634
tp4635
a(g104
g6
(g18
S'\xfe\x05\xbd='
p4636
tp4637
Rp4638
tp4639
a(g88
g6
(g18
S'\xbaF\xa1<'
p4640
tp4641
Rp4642
tp4643
a(g212
g6
(g18
S'l(\x17<'
p4644
tp4645
Rp4646
tp4647
asg73
g15
sa(dp4648
g2
S'../../../data/emanuela/activity-recognition/images/NTCIR-Lifelog-256/u3/2015-07-22/b00000477_21i79q_20150722_144059e.jpg'
p4649
sg4
(lp4650
(g15
g6
(g18
S'@\x97|?'
p4651
tp4652
Rp4653
tp4654
a(g181
g6
(g18
S'\x02Cd;'
p4655
tp4656
Rp4657
tp4658
a(g44
g6
(g18
S'\x01|A;'
p4659
tp4660
Rp4661
tp4662
a(g56
g6
(g18
S'c\x82\x0e;'
p4663
tp4664
Rp4665
tp4666
a(g32
g6
(g18
S'T\xc8\xfc:'
p4667
tp4668
Rp4669
tp4670
asg73
g15
sa(dp4671
g2
S'../../../data/emanuela/activity-recognition/images/NTCIR-Lifelog-256/u1/2015-03-19/b00001459_21i6bq_20150319_055155e.jpg'
p4672
sg4
(lp4673
(g15
g6
(g18
S'\xb2Sx?'
p4674
tp4675
Rp4676
tp4677
a(g68
g6
(g18
S'\x9dF:<'
p4678
tp4679
Rp4680
tp4681
a(g162
g6
(g18
S'\xa76\xa7;'
p4682
tp4683
Rp4684
tp4685
a(g286
g6
(g18
S'\x9cX\x87;'
p4686
tp4687
Rp4688
tp4689
a(g555
g6
(g18
S'\xc4j\xf9:'
p4690
tp4691
Rp4692
tp4693
asg73
g15
sa(dp4694
g2
S'../../../data/emanuela/activity-recognition/images/NTCIR-Lifelog-256/u3/2015-07-24/b00000666_21i79q_20150724_175226e.jpg'
p4695
sg4
(lp4696
(g15
g6
(g18
S'mV\x7f?'
p4697
tp4698
Rp4699
tp4700
a(g32
g6
(g18
S'?\xa0\xbf:'
p4701
tp4702
Rp4703
tp4704
a(g44
g6
(g18
S'd3\xcc9'
p4705
tp4706
Rp4707
tp4708
a(g162
g6
(g18
S'\x7f!\x8f9'
p4709
tp4710
Rp4711
tp4712
a(g56
g6
(g18
S'h\x0eq9'
p4713
tp4714
Rp4715
tp4716
asg73
g15
sa(dp4717
g2
S'../../../data/emanuela/activity-recognition/images/NTCIR-Lifelog-256/u1/2015-03-16/b00001651_21i6bq_20150316_081021e.jpg'
p4718
sg4
(lp4719
(g15
g6
(g18
S'\x87N\x7f?'
p4720
tp4721
Rp4722
tp4723
a(g44
g6
(g18
S'1\xf0\xc9:'
p4724
tp4725
Rp4726
tp4727
a(g68
g6
(g18
S'W)\x02:'
p4728
tp4729
Rp4730
tp4731
a(g212
g6
(g18
S'\xf7\x12\x809'
p4732
tp4733
Rp4734
tp4735
a(g162
g6
(g18
S'e2*9'
p4736
tp4737
Rp4738
tp4739
asg73
g15
sa(dp4740
g2
S'../../../data/emanuela/activity-recognition/images/NTCIR-Lifelog-256/u1/2015-03-01/b00000986_21i6bq_20150301_164003e.jpg'
p4741
sg4
(lp4742
(g32
g6
(g18
S'1:\xd4>'
p4743
tp4744
Rp4745
tp4746
a(g15
g6
(g18
S'qAr>'
p4747
tp4748
Rp4749
tp4750
a(g317
g6
(g18
S'\x9cZ\xc0='
p4751
tp4752
Rp4753
tp4754
a(g56
g6
(g18
S'\x8bZ\x8f='
p4755
tp4756
Rp4757
tp4758
a(g212
g6
(g18
S'\x9a\xc9p='
p4759
tp4760
Rp4761
tp4762
asg73
g15
sa(dp4763
g2
S'../../../data/emanuela/activity-recognition/images/NTCIR-Lifelog-256/u3/2015-07-22/b00000478_21i79q_20150722_144129e.jpg'
p4764
sg4
(lp4765
(g15
g6
(g18
S'F\xe4|?'
p4766
tp4767
Rp4768
tp4769
a(g44
g6
(g18
S'|\x94\x87;'
p4770
tp4771
Rp4772
tp4773
a(g32
g6
(g18
S'\xf3z\xff:'
p4774
tp4775
Rp4776
tp4777
a(g181
g6
(g18
S'\xbe:\xfd:'
p4778
tp4779
Rp4780
tp4781
a(g56
g6
(g18
S'\xa5\xa3\xd0:'
p4782
tp4783
Rp4784
tp4785
asg73
g15
sa(dp4786
g2
S'../../../data/emanuela/activity-recognition/images/NTCIR-Lifelog-256/u3/2015-07-01/b00000430_21i79q_20150701_163736e.jpg'
p4787
sg4
(lp4788
(g44
g6
(g18
S'vK\x14?'
p4789
tp4790
Rp4791
tp4792
a(g2285
g6
(g18
S'\x1e\xc6\xff='
p4793
tp4794
Rp4795
tp4796
a(g104
g6
(g18
S'\x7fo\x8e='
p4797
tp4798
Rp4799
tp4800
a(g88
g6
(g18
S'\x19\xc7\x8d='
p4801
tp4802
Rp4803
tp4804
a(g228
g6
(g18
S'\n\xb4\x89='
p4805
tp4806
Rp4807
tp4808
asg73
g15
sa(dp4809
g2
S'../../../data/emanuela/activity-recognition/images/NTCIR-Lifelog-256/u1/2015-02-26/b00000072_21i6bq_20150226_064719e.jpg'
p4810
sg4
(lp4811
(g15
g6
(g18
S'\xd8\x83\x7f?'
p4812
tp4813
Rp4814
tp4815
a(g44
g6
(g18
S'b\xb0g:'
p4816
tp4817
Rp4818
tp4819
a(g162
g6
(g18
S'=\xe4\xc99'
p4820
tp4821
Rp4822
tp4823
a(g68
g6
(g18
S'\x03b\x819'
p4824
tp4825
Rp4826
tp4827
a(g212
g6
(g18
S'\xf1ij9'
p4828
tp4829
Rp4830
tp4831
asg73
g15
sa(dp4832
g2
S'../../../data/emanuela/activity-recognition/images/NTCIR-Lifelog-256/u1/2015-03-13/b00000111_21i6bq_20150313_064722e.jpg'
p4833
sg4
(lp4834
(g15
g6
(g18
S'7\xe6\x7f?'
p4835
tp4836
Rp4837
tp4838
a(g44
g6
(g18
S'm/J9'
p4839
tp4840
Rp4841
tp4842
a(g162
g6
(g18
S'\x95\x1b\x9c8'
p4843
tp4844
Rp4845
tp4846
a(g68
g6
(g18
S'[u\x828'
p4847
tp4848
Rp4849
tp4850
a(g212
g6
(g18
S'+\xefp7'
p4851
tp4852
Rp4853
tp4854
asg73
g15
sa(dp4855
g2
S'../../../data/emanuela/activity-recognition/images/NTCIR-Lifelog-256/u1/2015-03-01/b00000153_21i6bq_20150301_082113e.jpg'
p4856
sg4
(lp4857
(g15
g6
(g18
S'\x14\x81z?'
p4858
tp4859
Rp4860
tp4861
a(g56
g6
(g18
S'\x18\xf1\xdc;'
p4862
tp4863
Rp4864
tp4865
a(g162
g6
(g18
S'\xeev\xb6;'
p4866
tp4867
Rp4868
tp4869
a(g32
g6
(g18
S'v\xb4\x89;'
p4870
tp4871
Rp4872
tp4873
a(g44
g6
(g18
S"2V';"
p4874
tp4875
Rp4876
tp4877
asg73
g15
sa(dp4878
g2
S'../../../data/emanuela/activity-recognition/images/NTCIR-Lifelog-256/u1/2015-03-10/b00001574_21i6bq_20150310_070113e.jpg'
p4879
sg4
(lp4880
(g15
g6
(g18
S'\xdb\xcb~?'
p4881
tp4882
Rp4883
tp4884
a(g162
g6
(g18
S'\x83\x97\xc6:'
p4885
tp4886
Rp4887
tp4888
a(g68
g6
(g18
S'9\x8d6:'
p4889
tp4890
Rp4891
tp4892
a(g317
g6
(g18
S'\x93\xd6\x0e:'
p4893
tp4894
Rp4895
tp4896
a(g181
g6
(g18
S'h\x0b\xfc9'
p4897
tp4898
Rp4899
tp4900
asg73
g15
sa(dp4901
g2
S'../../../data/emanuela/activity-recognition/images/NTCIR-Lifelog-256/u1/2015-03-01/b00000952_21i6bq_20150301_162406e.jpg'
p4902
sg4
(lp4903
(g15
g6
(g18
S'\xcc\xe3\xe2>'
p4904
tp4905
Rp4906
tp4907
a(g56
g6
(g18
S'\x96m\x94>'
p4908
tp4909
Rp4910
tp4911
a(g32
g6
(g18
S'\xe5\xa2\x01>'
p4912
tp4913
Rp4914
tp4915
a(g555
g6
(g18
S'\x87\xf8\x91='
p4916
tp4917
Rp4918
tp4919
a(g181
g6
(g18
S':\xb3\xd8<'
p4920
tp4921
Rp4922
tp4923
asg73
g15
sa(dp4924
g2
S'../../../data/emanuela/activity-recognition/images/NTCIR-Lifelog-256/u1/2015-03-10/b00001579_21i6bq_20150310_070508e.jpg'
p4925
sg4
(lp4926
(g15
g6
(g18
S'\x17\x89|?'
p4927
tp4928
Rp4929
tp4930
a(g68
g6
(g18
S'q_\x8f;'
p4931
tp4932
Rp4933
tp4934
a(g162
g6
(g18
S'\xb2\xeb1;'
p4935
tp4936
Rp4937
tp4938
a(g317
g6
(g18
S'\x16\xfe\xf7:'
p4939
tp4940
Rp4941
tp4942
a(g44
g6
(g18
S'Yx\xa1:'
p4943
tp4944
Rp4945
tp4946
asg73
g15
sa(dp4947
g2
S'../../../data/emanuela/activity-recognition/images/NTCIR-Lifelog-256/u3/2015-07-24/b00000258_21i79q_20150724_140445e.jpg'
p4948
sg4
(lp4949
(g15
g6
(g18
S'\xc1\xe7y?'
p4950
tp4951
Rp4952
tp4953
a(g68
g6
(g18
S'6;\r<'
p4954
tp4955
Rp4956
tp4957
a(g32
g6
(g18
S'\xe62\n<'
p4958
tp4959
Rp4960
tp4961
a(g44
g6
(g18
S'\x98\xc6\x12;'
p4962
tp4963
Rp4964
tp4965
a(g56
g6
(g18
S'!b\x0e;'
p4966
tp4967
Rp4968
tp4969
asg73
g15
sa(dp4970
g2
S'../../../data/emanuela/activity-recognition/images/NTCIR-Lifelog-256/u3/2015-06-24/b00001145_21i79q_20150624_203549e.jpg'
p4971
sg4
(lp4972
(g15
g6
(g18
S'L\x0c)?'
p4973
tp4974
Rp4975
tp4976
a(g32
g6
(g18
S'r}\xa2='
p4977
tp4978
Rp4979
tp4980
a(g88
g6
(g18
S'0\xcdx='
p4981
tp4982
Rp4983
tp4984
a(g212
g6
(g18
S'r]c='
p4985
tp4986
Rp4987
tp4988
a(g228
g6
(g18
S'X2\x0c='
p4989
tp4990
Rp4991
tp4992
asg73
g15
sa(dp4993
g2
S'../../../data/emanuela/activity-recognition/images/NTCIR-Lifelog-256/u1/2015-02-25/b00000056_21i6bq_20150225_062356e.jpg'
p4994
sg4
(lp4995
(g15
g6
(g18
S'\xa2\xc3z?'
p4996
tp4997
Rp4998
tp4999
a(g68
g6
(g18
S'\x16Y+<'
p5000
tp5001
Rp5002
tp5003
a(g162
g6
(g18
S'\xe3T;;'
p5004
tp5005
Rp5006
tp5007
a(g212
g6
(g18
S'\xbcZ:;'
p5008
tp5009
Rp5010
tp5011
a(g317
g6
(g18
S'\x04\xe1\xc3:'
p5012
tp5013
Rp5014
tp5015
asg73
g15
sa(dp5016
g2
S'../../../data/emanuela/activity-recognition/images/NTCIR-Lifelog-256/u1/2015-02-26/b00000068_21i6bq_20150226_064517e.jpg'
p5017
sg4
(lp5018
(g15
g6
(g18
S'v\x96\x7f?'
p5019
tp5020
Rp5021
tp5022
a(g44
g6
(g18
S'\xb9E\x1f:'
p5023
tp5024
Rp5025
tp5026
a(g162
g6
(g18
S'^\xb6\x0f:'
p5027
tp5028
Rp5029
tp5030
a(g68
g6
(g18
S'\xc8\xa8@9'
p5031
tp5032
Rp5033
tp5034
a(g212
g6
(g18
S'\x81\x86\xf28'
p5035
tp5036
Rp5037
tp5038
asg73
g15
sa(dp5039
g2
S'../../../data/emanuela/activity-recognition/images/NTCIR-Lifelog-256/u3/2015-07-24/b00000966_21i79q_20150724_204432e.jpg'
p5040
sg4
(lp5041
(g15
g6
(g18
S'\xe6\xcb9?'
p5042
tp5043
Rp5044
tp5045
a(g56
g6
(g18
S'\xedp\xd5='
p5046
tp5047
Rp5048
tp5049
a(g32
g6
(g18
S'\xa3\xbe[='
p5050
tp5051
Rp5052
tp5053
a(g44
g6
(g18
S'\xfb\xda2='
p5054
tp5055
Rp5056
tp5057
a(g181
g6
(g18
S'\x84K\xe7<'
p5058
tp5059
Rp5060
tp5061
asg73
g15
sa(dp5062
g2
S'../../../data/emanuela/activity-recognition/images/NTCIR-Lifelog-256/u1/2015-03-01/b00000123_21i6bq_20150301_080423e.jpg'
p5063
sg4
(lp5064
(g15
g6
(g18
S'\xe3\xe2\x0b?'
p5065
tp5066
Rp5067
tp5068
a(g212
g6
(g18
S'\x15X\xde='
p5069
tp5070
Rp5071
tp5072
a(g32
g6
(g18
S'\x06\xd3\xc6='
p5073
tp5074
Rp5075
tp5076
a(g56
g6
(g18
S'\xe0r\xc1='
p5077
tp5078
Rp5079
tp5080
a(g44
g6
(g18
S'MX\x8a='
p5081
tp5082
Rp5083
tp5084
asg73
g15
sa(dp5085
g2
S'../../../data/emanuela/activity-recognition/images/NTCIR-Lifelog-256/u3/2015-06-15/b00001080_21i79q_20150615_184002e.jpg'
p5086
sg4
(lp5087
(g15
g6
(g18
S'CCx?'
p5088
tp5089
Rp5090
tp5091
a(g44
g6
(g18
S'K\xb7\x88<'
p5092
tp5093
Rp5094
tp5095
a(g104
g6
(g18
S',\x8f\xbd;'
p5096
tp5097
Rp5098
tp5099
a(g32
g6
(g18
S'\xdc\x1e\xdb:'
p5100
tp5101
Rp5102
tp5103
a(g212
g6
(g18
S"0't:"
p5104
tp5105
Rp5106
tp5107
asg73
g15
sa(dp5108
g2
S'../../../data/emanuela/activity-recognition/images/NTCIR-Lifelog-256/u1/2015-02-25/b00001300_21i6bq_20150225_193838e.jpg'
p5109
sg4
(lp5110
(g15
g6
(g18
S'\xa0\xe8\x7f?'
p5111
tp5112
Rp5113
tp5114
a(g68
g6
(g18
S')e\xe58'
p5115
tp5116
Rp5117
tp5118
a(g162
g6
(g18
S'\xbd\xe1\xd28'
p5119
tp5120
Rp5121
tp5122
a(g44
g6
(g18
S'?Wy8'
p5123
tp5124
Rp5125
tp5126
a(g317
g6
(g18
S'@=\xc57'
p5127
tp5128
Rp5129
tp5130
asg73
g15
sa(dp5131
g2
S'../../../data/emanuela/activity-recognition/images/NTCIR-Lifelog-256/u1/2015-03-01/b00000984_21i6bq_20150301_163855e.jpg'
p5132
sg4
(lp5133
(g15
g6
(g18
S'8\xf2\x95>'
p5134
tp5135
Rp5136
tp5137
a(g32
g6
(g18
S'\xda\xbaO>'
p5138
tp5139
Rp5140
tp5141
a(g56
g6
(g18
S'{\xa58>'
p5142
tp5143
Rp5144
tp5145
a(g317
g6
(g18
S'\x9ex\xee='
p5146
tp5147
Rp5148
tp5149
a(g2285
g6
(g18
S'Q\x17o='
p5150
tp5151
Rp5152
tp5153
asg73
g15
sa(dp5154
g2
S'../../../data/emanuela/activity-recognition/images/NTCIR-Lifelog-256/u3/2015-06-15/b00000678_21i79q_20150615_150410e.jpg'
p5155
sg4
(lp5156
(g44
g6
(g18
S'\xd2\xa6\x17?'
p5157
tp5158
Rp5159
tp5160
a(g88
g6
(g18
S'{\xc1/>'
p5161
tp5162
Rp5163
tp5164
a(g15
g6
(g18
S'\x19&\xac='
p5165
tp5166
Rp5167
tp5168
a(g32
g6
(g18
S'\xc4\xda\xe0<'
p5169
tp5170
Rp5171
tp5172
a(g212
g6
(g18
S'\x07\xb1\xc7<'
p5173
tp5174
Rp5175
tp5176
asg73
g15
sa(dp5177
g2
S'../../../data/emanuela/activity-recognition/images/NTCIR-Lifelog-256/u3/2015-07-23/b00000776_21i79q_20150723_203045e.jpg'
p5178
sg4
(lp5179
(g15
g6
(g18
S'\xba\xac\t?'
p5180
tp5181
Rp5182
tp5183
a(g32
g6
(g18
S'>T\xc3>'
p5184
tp5185
Rp5186
tp5187
a(g181
g6
(g18
S'/\x8b\xf0<'
p5188
tp5189
Rp5190
tp5191
a(g44
g6
(g18
S'&\xf7E<'
p5192
tp5193
Rp5194
tp5195
a(g104
g6
(g18
S'\xe0\xe11<'
p5196
tp5197
Rp5198
tp5199
asg73
g15
sa(dp5200
g2
S'../../../data/emanuela/activity-recognition/images/NTCIR-Lifelog-256/u3/2015-07-24/b00000702_21i79q_20150724_181159e.jpg'
p5201
sg4
(lp5202
(g15
g6
(g18
S'\x19z{?'
p5203
tp5204
Rp5205
tp5206
a(g44
g6
(g18
S'\x19\xca\x04<'
p5207
tp5208
Rp5209
tp5210
a(g32
g6
(g18
S'\xac\\\x83;'
p5211
tp5212
Rp5213
tp5214
a(g56
g6
(g18
S'a\xa6@;'
p5215
tp5216
Rp5217
tp5218
a(g162
g6
(g18
S'\xf0\xf8g:'
p5219
tp5220
Rp5221
tp5222
asg73
g15
sa(dp5223
g2
S'../../../data/emanuela/activity-recognition/images/NTCIR-Lifelog-256/u1/2015-02-25/b00001365_21i6bq_20150225_201207e.jpg'
p5224
sg4
(lp5225
(g15
g6
(g18
S'\x96Wo?'
p5226
tp5227
Rp5228
tp5229
a(g68
g6
(g18
S'\xb4`O='
p5230
tp5231
Rp5232
tp5233
a(g162
g6
(g18
S'\xa5\xec\xca;'
p5234
tp5235
Rp5236
tp5237
a(g317
g6
(g18
S'\x7f\x92+;'
p5238
tp5239
Rp5240
tp5241
a(g286
g6
(g18
S'\x04\x17\xee:'
p5242
tp5243
Rp5244
tp5245
asg73
g15
sa(dp5246
g2
S'../../../data/emanuela/activity-recognition/images/NTCIR-Lifelog-256/u1/2015-02-23/b00001208_21i6bq_20150223_200724e.jpg'
p5247
sg4
(lp5248
(g15
g6
(g18
S'\x13\x94_?'
p5249
tp5250
Rp5251
tp5252
a(g32
g6
(g18
S'\xbb\x11\x98='
p5253
tp5254
Rp5255
tp5256
a(g68
g6
(g18
S'\x16\xd4\xa9<'
p5257
tp5258
Rp5259
tp5260
a(g555
g6
(g18
S"\x15'\n<"
p5261
tp5262
Rp5263
tp5264
a(g44
g6
(g18
S'\x08\xe4\x08<'
p5265
tp5266
Rp5267
tp5268
asg73
g15
sa(dp5269
g2
S'../../../data/emanuela/activity-recognition/images/NTCIR-Lifelog-256/u3/2015-07-24/b00000752_21i79q_20150724_184045e.jpg'
p5270
sg4
(lp5271
(g15
g6
(g18
S'Fc~?'
p5272
tp5273
Rp5274
tp5275
a(g32
g6
(g18
S'\x84A\x85;'
p5276
tp5277
Rp5278
tp5279
a(g56
g6
(g18
S'`c#:'
p5280
tp5281
Rp5282
tp5283
a(g68
g6
(g18
S'\x80q\x15:'
p5284
tp5285
Rp5286
tp5287
a(g44
g6
(g18
S'(I\xd79'
p5288
tp5289
Rp5290
tp5291
asg73
g15
sa(dp5292
g2
S'../../../data/emanuela/activity-recognition/images/NTCIR-Lifelog-256/u3/2015-07-18/b00001069_21i79q_20150718_213805e.jpg'
p5293
sg4
(lp5294
(g15
g6
(g18
S'\xaa&V?'
p5295
tp5296
Rp5297
tp5298
a(g32
g6
(g18
S'\xd0}\x02>'
p5299
tp5300
Rp5301
tp5302
a(g555
g6
(g18
S'X}\x99<'
p5303
tp5304
Rp5305
tp5306
a(g317
g6
(g18
S'\xb0k\x9b;'
p5307
tp5308
Rp5309
tp5310
a(g56
g6
(g18
S'a\xd0f;'
p5311
tp5312
Rp5313
tp5314
asg73
g15
sa(dp5315
g2
S'../../../data/emanuela/activity-recognition/images/NTCIR-Lifelog-256/u1/2015-03-02/b00001118_21i6bq_20150302_184821e.jpg'
p5316
sg4
(lp5317
(g181
g6
(g18
S'\xdc\x1e\x90>'
p5318
tp5319
Rp5320
tp5321
a(g15
g6
(g18
S'\xd9\xbc\x84>'
p5322
tp5323
Rp5324
tp5325
a(g56
g6
(g18
S'\xd87m>'
p5326
tp5327
Rp5328
tp5329
a(g162
g6
(g18
S'$L{='
p5330
tp5331
Rp5332
tp5333
a(g68
g6
(g18
S'J\xa3]='
p5334
tp5335
Rp5336
tp5337
asg73
g15
sa(dp5338
g2
S'../../../data/emanuela/activity-recognition/images/NTCIR-Lifelog-256/u3/2015-07-24/b00000725_21i79q_20150724_182520e.jpg'
p5339
sg4
(lp5340
(g15
g6
(g18
S'7zw?'
p5341
tp5342
Rp5343
tp5344
a(g56
g6
(g18
S'*\xf3\x13<'
p5345
tp5346
Rp5347
tp5348
a(g162
g6
(g18
S'\x86\x9e\xdc;'
p5349
tp5350
Rp5351
tp5352
a(g44
g6
(g18
S'\x0c3\xcf;'
p5353
tp5354
Rp5355
tp5356
a(g32
g6
(g18
S'a\x99\xa9;'
p5357
tp5358
Rp5359
tp5360
asg73
g15
sa(dp5361
g2
S'../../../data/emanuela/activity-recognition/images/NTCIR-Lifelog-256/u1/2015-03-19/b00001474_21i6bq_20150319_055937e.jpg'
p5362
sg4
(lp5363
(g15
g6
(g18
S'\x87\x81y?'
p5364
tp5365
Rp5366
tp5367
a(g68
g6
(g18
S'\xa3?M<'
p5368
tp5369
Rp5370
tp5371
a(g162
g6
(g18
S'\xa2\xc4Y;'
p5372
tp5373
Rp5374
tp5375
a(g286
g6
(g18
S'*\x8b+;'
p5376
tp5377
Rp5378
tp5379
a(g555
g6
(g18
S'~\xd6\xb6:'
p5380
tp5381
Rp5382
tp5383
asg73
g15
sa(dp5384
g2
S'../../../data/emanuela/activity-recognition/images/NTCIR-Lifelog-256/u3/2015-07-12/b00001956_21i79q_20150712_170928e.jpg'
p5385
sg4
(lp5386
(g15
g6
(g18
S'-*U?'
p5387
tp5388
Rp5389
tp5390
a(g212
g6
(g18
S'+\xf0\xc9='
p5391
tp5392
Rp5393
tp5394
a(g68
g6
(g18
S'n9\xc6<'
p5395
tp5396
Rp5397
tp5398
a(g317
g6
(g18
S'\x9c\xe3:<'
p5399
tp5400
Rp5401
tp5402
a(g32
g6
(g18
S'\xe8\x00\x06<'
p5403
tp5404
Rp5405
tp5406
asg73
g15
sa(dp5407
g2
S'../../../data/emanuela/activity-recognition/images/NTCIR-Lifelog-256/u1/2015-03-01/b00000069_21i6bq_20150301_073814e.jpg'
p5408
sg4
(lp5409
(g15
g6
(g18
S'\xfe\nU?'
p5410
tp5411
Rp5412
tp5413
a(g32
g6
(g18
S'K\xab\x8a='
p5414
tp5415
Rp5416
tp5417
a(g56
g6
(g18
S'\x8a;P='
p5418
tp5419
Rp5420
tp5421
a(g44
g6
(g18
S'(c\xaa<'
p5422
tp5423
Rp5424
tp5425
a(g317
g6
(g18
S'\xc7\xbc\xac;'
p5426
tp5427
Rp5428
tp5429
asg73
g15
sa.