(lp0
(dp1
S'image'
p2
S'../../../data/emanuela/activity-recognition/images/NTCIR-Lifelog-256/u3/2015-06-24/b00000021_21i79q_20150624_095915e.jpg'
p3
sS'result'
p4
(lp5
(cnumpy.core.multiarray
scalar
p6
(cnumpy
dtype
p7
(S'S14'
p8
I0
I1
tp9
Rp10
(I3
S'|'
p11
NNNI14
I1
I0
tp12
bS'walking indoor'
p13
tp14
Rp15
g6
(g7
(S'f4'
p16
I0
I1
tp17
Rp18
(I3
S'<'
p19
NNNI-1
I-1
I0
tp20
bS'\n\xd4\xc2>'
p21
tp22
Rp23
tp24
a(g6
(g7
(S'S19'
p25
I0
I1
tp26
Rp27
(I3
S'|'
p28
NNNI19
I1
I0
tp29
bS'cleaning and chores'
p30
tp31
Rp32
g6
(g18
S'\x13\xeb\xb5>'
p33
tp34
Rp35
tp36
a(g6
(g7
(S'S7'
p37
I0
I1
tp38
Rp39
(I3
S'|'
p40
NNNI7
I1
I0
tp41
bS'cooking'
p42
tp43
Rp44
g6
(g18
S'\x96\x06\x04>'
p45
tp46
Rp47
tp48
a(g6
(g7
(S'S6'
p49
I0
I1
tp50
Rp51
(I3
S'|'
p52
NNNI6
I1
I0
tp53
bS'mobile'
p54
tp55
Rp56
g6
(g18
S'\x9f\x17s='
p57
tp58
Rp59
tp60
a(g6
(g7
(S'S7'
p61
I0
I1
tp62
Rp63
(I3
S'|'
p64
NNNI7
I1
I0
tp65
bS'resting'
p66
tp67
Rp68
g6
(g18
S'_[\xea<'
p69
tp70
Rp71
tp72
asS'label'
p73
g32
sa(dp74
g2
S'../../../data/emanuela/activity-recognition/images/NTCIR-Lifelog-256/u1/2015-03-18/b00000033_21i6bq_20150318_075435e.jpg'
p75
sg4
(lp76
(g32
g6
(g18
S'_\x148?'
p77
tp78
Rp79
tp80
a(g44
g6
(g18
S'%\x1f\x8e>'
p81
tp82
Rp83
tp84
a(g15
g6
(g18
S'v\x19\xf6:'
p85
tp86
Rp87
tp88
a(g6
(g7
(S'S24'
p89
I0
I1
tp90
Rp91
(I3
S'|'
p92
NNNI24
I1
I0
tp93
bS'having drinks/meal alone'
p94
tp95
Rp96
g6
(g18
S'w\xd6\x04:'
p97
tp98
Rp99
tp100
a(g6
(g7
(S'S25'
p101
I0
I1
tp102
Rp103
(I3
S'|'
p104
NNNI25
I1
I0
tp105
bS'having meal with somebody'
p106
tp107
Rp108
g6
(g18
S'_G\xc29'
p109
tp110
Rp111
tp112
asg73
g32
sa(dp113
g2
S'../../../data/emanuela/activity-recognition/images/NTCIR-Lifelog-256/u2/2015-05-02/b00003331_21i7lf_20150502_151202e.jpg'
p114
sg4
(lp115
(g32
g6
(g18
S'f\xc7j?'
p116
tp117
Rp118
tp119
a(g96
g6
(g18
S'\xa3\xa5:='
p120
tp121
Rp122
tp123
a(g108
g6
(g18
S'\xf0\xf1\xab<'
p124
tp125
Rp126
tp127
a(g44
g6
(g18
S'\xa2O(<'
p128
tp129
Rp130
tp131
a(g6
(g7
(S'S11'
p132
I0
I1
tp133
Rp134
(I3
S'|'
p135
NNNI11
I1
I0
tp136
bS'socializing'
p137
tp138
Rp139
g6
(g18
S'\xae(\xd9:'
p140
tp141
Rp142
tp143
asg73
g32
sa(dp144
g2
S'../../../data/emanuela/activity-recognition/images/NTCIR-Lifelog-256/u1/2015-03-05/b00001342_21i6bq_20150305_213621e.jpg'
p145
sg4
(lp146
(g32
g6
(g18
S'lD\xef>'
p147
tp148
Rp149
tp150
a(g68
g6
(g18
S'\xcf\xfcF>'
p151
tp152
Rp153
tp154
a(g15
g6
(g18
S'\xfb\xe9@>'
p155
tp156
Rp157
tp158
a(g44
g6
(g18
S'\xfcN\x94='
p159
tp160
Rp161
tp162
a(g6
(g7
(S'S7'
p163
I0
I1
tp164
Rp165
(I3
S'|'
p166
NNNI7
I1
I0
tp167
bS'reading'
p168
tp169
Rp170
g6
(g18
S'u\xa8\n='
p171
tp172
Rp173
tp174
asg73
g32
sa(dp175
g2
S'../../../data/emanuela/activity-recognition/images/NTCIR-Lifelog-256/u2/2015-05-02/b00003330_21i7lf_20150502_151125e.jpg'
p176
sg4
(lp177
(g32
g6
(g18
S'\x84\xa5T?'
p178
tp179
Rp180
tp181
a(g108
g6
(g18
S'\xfc\xe8\x93='
p182
tp183
Rp184
tp185
a(g96
g6
(g18
S'\xb3\xce\x82='
p186
tp187
Rp188
tp189
a(g44
g6
(g18
S'\\\xc3\xba<'
p190
tp191
Rp192
tp193
a(g139
g6
(g18
S'iw\x81;'
p194
tp195
Rp196
tp197
asg73
g32
sa(dp198
g2
S'../../../data/emanuela/activity-recognition/images/NTCIR-Lifelog-256/u2/2015-05-04/b00004681_21i7lf_20150504_120419e.jpg'
p199
sg4
(lp200
(g32
g6
(g18
S'B\x13$?'
p201
tp202
Rp203
tp204
a(g108
g6
(g18
S'E\xf2\xf5='
p205
tp206
Rp207
tp208
a(g96
g6
(g18
S'\xdd\xab\xbc='
p209
tp210
Rp211
tp212
a(g139
g6
(g18
S'\x8a\xa3V='
p213
tp214
Rp215
tp216
a(g56
g6
(g18
S'\xef\x12\x18='
p217
tp218
Rp219
tp220
asg73
g32
sa(dp221
g2
S'../../../data/emanuela/activity-recognition/images/NTCIR-Lifelog-256/u3/2015-07-17/b00000060_21i79q_20150717_141823e.jpg'
p222
sg4
(lp223
(g32
g6
(g18
S'\x7f\xe2z?'
p224
tp225
Rp226
tp227
a(g44
g6
(g18
S'w\xb1{<'
p228
tp229
Rp230
tp231
a(g15
g6
(g18
S'\xe6\xa8L;'
p232
tp233
Rp234
tp235
a(g68
g6
(g18
S'\xd5\xfd\\:'
p236
tp237
Rp238
tp239
a(g96
g6
(g18
S'\x8cHa9'
p240
tp241
Rp242
tp243
asg73
g32
sa(dp244
g2
S'../../../data/emanuela/activity-recognition/images/NTCIR-Lifelog-256/u2/2015-05-04/b00004690_21i7lf_20150504_120957e.jpg'
p245
sg4
(lp246
(g44
g6
(g18
S'0\x99\xfc>'
p247
tp248
Rp249
tp250
a(g32
g6
(g18
S'\xbb\xf8\xf8>'
p251
tp252
Rp253
tp254
a(g15
g6
(g18
S'\xa4\xb7\x01<'
p255
tp256
Rp257
tp258
a(g96
g6
(g18
S'\r\x172;'
p259
tp260
Rp261
tp262
a(g108
g6
(g18
S'\x15\xd4$;'
p263
tp264
Rp265
tp266
asg73
g32
sa(dp267
g2
S'../../../data/emanuela/activity-recognition/images/NTCIR-Lifelog-256/u3/2015-06-18/b00000083_21i79q_20150618_142746e.jpg'
p268
sg4
(lp269
(g44
g6
(g18
S'\x85\x99\x0f?'
p270
tp271
Rp272
tp273
a(g32
g6
(g18
S'b\xe6\xad>'
p274
tp275
Rp276
tp277
a(g170
g6
(g18
S'\x90\x05\xe9<'
p278
tp279
Rp280
tp281
a(g15
g6
(g18
S'\x02W\xc5<'
p282
tp283
Rp284
tp285
a(g6
(g7
(S'S8'
p286
I0
I1
tp287
Rp288
(I3
S'|'
p289
NNNI8
I1
I0
tp290
bS'shopping'
p291
tp292
Rp293
g6
(g18
S'\xcb\xf5Z<'
p294
tp295
Rp296
tp297
asg73
g32
sa(dp298
g2
S'../../../data/emanuela/activity-recognition/images/NTCIR-Lifelog-256/u1/2015-03-16/b00001582_21i6bq_20150316_004715e.jpg'
p299
sg4
(lp300
(g15
g6
(g18
S'\xfb\xc1\x07?'
p301
tp302
Rp303
tp304
a(g32
g6
(g18
S'=\xc0d>'
p305
tp306
Rp307
tp308
a(g170
g6
(g18
S'.Z\xab='
p309
tp310
Rp311
tp312
a(g44
g6
(g18
S'\x91\x1c6='
p313
tp314
Rp315
tp316
a(g68
g6
(g18
S'\x89\r\xfb<'
p317
tp318
Rp319
tp320
asg73
g32
sa(dp321
g2
S'../../../data/emanuela/activity-recognition/images/NTCIR-Lifelog-256/u3/2015-07-14/b00003795_21i79q_20150714_183158e.jpg'
p322
sg4
(lp323
(g32
g6
(g18
S'2\xc2\x1d?'
p324
tp325
Rp326
tp327
a(g44
g6
(g18
S'b+\xfe='
p328
tp329
Rp330
tp331
a(g108
g6
(g18
S'/\xc7\xd5='
p332
tp333
Rp334
tp335
a(g6
(g7
(S'S27'
p336
I0
I1
tp337
Rp338
(I3
S'|'
p339
NNNI27
I1
I0
tp340
bS'having drinks with somebody'
p341
tp342
Rp343
g6
(g18
S'|\x8b9='
p344
tp345
Rp346
tp347
a(g293
g6
(g18
S' B\x13='
p348
tp349
Rp350
tp351
asg73
g32
sa(dp352
g2
S'../../../data/emanuela/activity-recognition/images/NTCIR-Lifelog-256/u1/2015-03-01/b00000017_21i6bq_20150301_071936e.jpg'
p353
sg4
(lp354
(g32
g6
(g18
S'\x00\xeb\\?'
p355
tp356
Rp357
tp358
a(g44
g6
(g18
S'\xbfk\xe0='
p359
tp360
Rp361
tp362
a(g15
g6
(g18
S'\xa1vx<'
p363
tp364
Rp365
tp366
a(g68
g6
(g18
S'\x81\x89\xc4;'
p367
tp368
Rp369
tp370
a(g96
g6
(g18
S'\x8d\x87S;'
p371
tp372
Rp373
tp374
asg73
g32
sa(dp375
g2
S'../../../data/emanuela/activity-recognition/images/NTCIR-Lifelog-256/u1/2015-03-15/b00000748_21i6bq_20150315_145533e.jpg'
p376
sg4
(lp377
(g44
g6
(g18
S'\x15\x85/?'
p378
tp379
Rp380
tp381
a(g32
g6
(g18
S'N8j>'
p382
tp383
Rp384
tp385
a(g15
g6
(g18
S'\xe8E\xc5<'
p386
tp387
Rp388
tp389
a(g293
g6
(g18
S'X(\x8b<'
p390
tp391
Rp392
tp393
a(g68
g6
(g18
S'\x13\xbaM<'
p394
tp395
Rp396
tp397
asg73
g32
sa(dp398
g2
S'../../../data/emanuela/activity-recognition/images/NTCIR-Lifelog-256/u2/2015-05-04/b00004818_21i7lf_20150504_135019e.jpg'
p399
sg4
(lp400
(g32
g6
(g18
S'S\xac\xa4>'
p401
tp402
Rp403
tp404
a(g44
g6
(g18
S'l\x11\r>'
p405
tp406
Rp407
tp408
a(g108
g6
(g18
S'"C\x07>'
p409
tp410
Rp411
tp412
a(g343
g6
(g18
S'\xdc}\xb6='
p413
tp414
Rp415
tp416
a(g96
g6
(g18
S'E\xd0i='
p417
tp418
Rp419
tp420
asg73
g32
sa(dp421
g2
S'../../../data/emanuela/activity-recognition/images/NTCIR-Lifelog-256/u3/2015-07-27/b00002128_21i79q_20150727_143804e.jpg'
p422
sg4
(lp423
(g32
g6
(g18
S'\xd7!z?'
p424
tp425
Rp426
tp427
a(g44
g6
(g18
S'\r!\xad<'
p428
tp429
Rp430
tp431
a(g15
g6
(g18
S'\\\xfc\xb0:'
p432
tp433
Rp434
tp435
a(g68
g6
(g18
S'\x90\x0b\x7f9'
p436
tp437
Rp438
tp439
a(g96
g6
(g18
S'\x02\x01\x018'
p440
tp441
Rp442
tp443
asg73
g32
sa(dp444
g2
S'../../../data/emanuela/activity-recognition/images/NTCIR-Lifelog-256/u3/2015-07-23/b00000251_21i79q_20150723_150823e.jpg'
p445
sg4
(lp446
(g68
g6
(g18
S'\xa8\xc4\xda>'
p447
tp448
Rp449
tp450
a(g6
(g7
(S'S2'
p451
I0
I1
tp452
Rp453
(I3
S'|'
p454
NNNI2
I1
I0
tp455
bS'tv'
p456
tp457
Rp458
g6
(g18
S'\n\xfc_>'
p459
tp460
Rp461
tp462
a(g6
(g7
(S'S7'
p463
I0
I1
tp464
Rp465
(I3
S'|'
p466
NNNI7
I1
I0
tp467
bS'talking'
p468
tp469
Rp470
g6
(g18
S'\xa1\x03\r>'
p471
tp472
Rp473
tp474
a(g15
g6
(g18
S'=\xfe\x93='
p475
tp476
Rp477
tp478
a(g32
g6
(g18
S'\xc9\xabL='
p479
tp480
Rp481
tp482
asg73
g32
sa(dp483
g2
S'../../../data/emanuela/activity-recognition/images/NTCIR-Lifelog-256/u1/2015-02-28/b00001257_21i6bq_20150228_204827e.jpg'
p484
sg4
(lp485
(g32
g6
(g18
S'F\t\x14?'
p486
tp487
Rp488
tp489
a(g44
g6
(g18
S'+H\xca>'
p490
tp491
Rp492
tp493
a(g96
g6
(g18
S'\xf6\x9e\x03<'
p494
tp495
Rp496
tp497
a(g15
g6
(g18
S'/\xf9\xb1;'
p498
tp499
Rp500
tp501
a(g108
g6
(g18
S'w\x8dP;'
p502
tp503
Rp504
tp505
asg73
g32
sa(dp506
g2
S'../../../data/emanuela/activity-recognition/images/NTCIR-Lifelog-256/u2/2015-04-27/b00005920_21i7lf_20150427_185453e.jpg'
p507
sg4
(lp508
(g44
g6
(g18
S'I,C?'
p509
tp510
Rp511
tp512
a(g32
g6
(g18
S'\x94Oh>'
p513
tp514
Rp515
tp516
a(g96
g6
(g18
S'\xf6\xdd\xba;'
p517
tp518
Rp519
tp520
a(g15
g6
(g18
S"I*';"
p521
tp522
Rp523
tp524
a(g108
g6
(g18
S'\xa6>?:'
p525
tp526
Rp527
tp528
asg73
g32
sa(dp529
g2
S'../../../data/emanuela/activity-recognition/images/NTCIR-Lifelog-256/u3/2015-06-16/b00000459_21i79q_20150616_164009e.jpg'
p530
sg4
(lp531
(g96
g6
(g18
S'\xdc\x1a\xe1>'
p532
tp533
Rp534
tp535
a(g108
g6
(g18
S'd:Q>'
p536
tp537
Rp538
tp539
a(g32
g6
(g18
S'\xf3\x94\t>'
p540
tp541
Rp542
tp543
a(g44
g6
(g18
S'\xd0\x05\xe0='
p544
tp545
Rp546
tp547
a(g170
g6
(g18
S'4c\x80='
p548
tp549
Rp550
tp551
asg73
g32
sa(dp552
g2
S'../../../data/emanuela/activity-recognition/images/NTCIR-Lifelog-256/u2/2015-05-04/b00004734_21i7lf_20150504_125342e.jpg'
p553
sg4
(lp554
(g56
g6
(g18
S'&\xe7\xb5>'
p555
tp556
Rp557
tp558
a(g6
(g7
(S'S5'
p559
I0
I1
tp560
Rp561
(I3
S'|'
p562
NNNI5
I1
I0
tp563
bS'plane'
p564
tp565
Rp566
g6
(g18
S';\xfa\x0b>'
p567
tp568
Rp569
tp570
a(g6
(g7
(S'S16'
p571
I0
I1
tp572
Rp573
(I3
S'|'
p574
NNNI16
I1
I0
tp575
bS'public transport'
p576
tp577
Rp578
g6
(g18
S'\x1d\xcd\x02>'
p579
tp580
Rp581
tp582
a(g44
g6
(g18
S'\xf1\xbb\xcd='
p583
tp584
Rp585
tp586
a(g32
g6
(g18
S'c\xaa\x85='
p587
tp588
Rp589
tp590
asg73
g32
sa(dp591
g2
S'../../../data/emanuela/activity-recognition/images/NTCIR-Lifelog-256/u3/2015-07-24/b00000438_21i79q_20150724_153947e.jpg'
p592
sg4
(lp593
(g32
g6
(g18
S'-\x1eA?'
p594
tp595
Rp596
tp597
a(g44
g6
(g18
S'\x16|u>'
p598
tp599
Rp600
tp601
a(g15
g6
(g18
S'C\xdf\x16;'
p602
tp603
Rp604
tp605
a(g68
g6
(g18
S'du\x9a:'
p606
tp607
Rp608
tp609
a(g96
g6
(g18
S'\xab\xc0_:'
p610
tp611
Rp612
tp613
asg73
g32
sa(dp614
g2
S'../../../data/emanuela/activity-recognition/images/NTCIR-Lifelog-256/u2/2015-04-25/b00003081_21i7lf_20150425_115913e.jpg'
p615
sg4
(lp616
(g44
g6
(g18
S'F\xf9\xeb>'
p617
tp618
Rp619
tp620
a(g32
g6
(g18
S'6\xb3\xe4>'
p621
tp622
Rp623
tp624
a(g15
g6
(g18
S'\xd3^\xfd<'
p625
tp626
Rp627
tp628
a(g68
g6
(g18
S'\x1f\xcc\xc6<'
p629
tp630
Rp631
tp632
a(g56
g6
(g18
S'A\xafW<'
p633
tp634
Rp635
tp636
asg73
g32
sa(dp637
g2
S'../../../data/emanuela/activity-recognition/images/NTCIR-Lifelog-256/u2/2015-05-04/b00004630_21i7lf_20150504_113301e.jpg'
p638
sg4
(lp639
(g68
g6
(g18
S'8=\xe6>'
p640
tp641
Rp642
tp643
a(g56
g6
(g18
S'\xe4\x99/>'
p644
tp645
Rp646
tp647
a(g578
g6
(g18
S'\xca\xf8\xbd='
p648
tp649
Rp650
tp651
a(g170
g6
(g18
S'\xda@\x94='
p652
tp653
Rp654
tp655
a(g32
g6
(g18
S'\xaa\xcf\x8a='
p656
tp657
Rp658
tp659
asg73
g32
sa(dp660
g2
S'../../../data/emanuela/activity-recognition/images/NTCIR-Lifelog-256/u2/2015-04-27/b00005995_21i7lf_20150427_194034e.jpg'
p661
sg4
(lp662
(g44
g6
(g18
S'a@V>'
p663
tp664
Rp665
tp666
a(g32
g6
(g18
S'\xb4\xec6>'
p667
tp668
Rp669
tp670
a(g108
g6
(g18
S'\xc1\x9c\x12>'
p671
tp672
Rp673
tp674
a(g96
g6
(g18
S'\x00\x00\xf7='
p675
tp676
Rp677
tp678
a(g470
g6
(g18
S'\xb1^\x9c='
p679
tp680
Rp681
tp682
asg73
g32
sa(dp683
g2
S'../../../data/emanuela/activity-recognition/images/NTCIR-Lifelog-256/u3/2015-06-16/b00000456_21i79q_20150616_163827e.jpg'
p684
sg4
(lp685
(g44
g6
(g18
S'-\x8a\x01?'
p686
tp687
Rp688
tp689
a(g32
g6
(g18
S'\x96\x9e\xeb>'
p690
tp691
Rp692
tp693
a(g96
g6
(g18
S'\xecs\x93<'
p694
tp695
Rp696
tp697
a(g108
g6
(g18
S'XE\xf1;'
p698
tp699
Rp700
tp701
a(g15
g6
(g18
S'\n\xf3\x15;'
p702
tp703
Rp704
tp705
asg73
g32
sa(dp706
g2
S'../../../data/emanuela/activity-recognition/images/NTCIR-Lifelog-256/u3/2015-07-15/b00000729_21i79q_20150715_192015e.jpg'
p707
sg4
(lp708
(g44
g6
(g18
S'4\x0b\xe0>'
p709
tp710
Rp711
tp712
a(g32
g6
(g18
S'P\x81\xde>'
p713
tp714
Rp715
tp716
a(g15
g6
(g18
S"\x12|'="
p717
tp718
Rp719
tp720
a(g170
g6
(g18
S'\xd8\xab\t='
p721
tp722
Rp723
tp724
a(g68
g6
(g18
S'\x9by\xa6<'
p725
tp726
Rp727
tp728
asg73
g32
sa(dp729
g2
S'../../../data/emanuela/activity-recognition/images/NTCIR-Lifelog-256/u3/2015-07-24/b00000491_21i79q_20150724_161219e.jpg'
p730
sg4
(lp731
(g32
g6
(g18
S'\xf7mP?'
p732
tp733
Rp734
tp735
a(g44
g6
(g18
S'\xa4\xcf\x10>'
p736
tp737
Rp738
tp739
a(g96
g6
(g18
S'\x0e\x02\x9a<'
p740
tp741
Rp742
tp743
a(g15
g6
(g18
S'pe\r<'
p744
tp745
Rp746
tp747
a(g68
g6
(g18
S'\xe2\x08\x0c<'
p748
tp749
Rp750
tp751
asg73
g32
sa(dp752
g2
S'../../../data/emanuela/activity-recognition/images/NTCIR-Lifelog-256/u2/2015-05-06/b00006248_21i7lf_20150506_072402e.jpg'
p753
sg4
(lp754
(g32
g6
(g18
S'\xb4\x12R?'
p755
tp756
Rp757
tp758
a(g44
g6
(g18
S'R\xfd">'
p759
tp760
Rp761
tp762
a(g96
g6
(g18
S'SD\xee;'
p763
tp764
Rp765
tp766
a(g15
g6
(g18
S'|`\x90;'
p767
tp768
Rp769
tp770
a(g108
g6
(g18
S'\xb4+\x82;'
p771
tp772
Rp773
tp774
asg73
g32
sa(dp775
g2
S'../../../data/emanuela/activity-recognition/images/NTCIR-Lifelog-256/u1/2015-03-18/b00001278_21i6bq_20150318_221921e.jpg'
p776
sg4
(lp777
(g44
g6
(g18
S'\xb1\xf3F?'
p778
tp779
Rp780
tp781
a(g32
g6
(g18
S't\xe4Z>'
p782
tp783
Rp784
tp785
a(g96
g6
(g18
S'p\xf4g;'
p786
tp787
Rp788
tp789
a(g15
g6
(g18
S' \xbc\x01;'
p790
tp791
Rp792
tp793
a(g108
g6
(g18
S'M#\x00;'
p794
tp795
Rp796
tp797
asg73
g32
sa(dp798
g2
S'../../../data/emanuela/activity-recognition/images/NTCIR-Lifelog-256/u1/2015-03-09/b00001282_21i6bq_20150309_202534e.jpg'
p799
sg4
(lp800
(g32
g6
(g18
S'\x9d\x0b\xa1>'
p801
tp802
Rp803
tp804
a(g44
g6
(g18
S'\xcc\x127>'
p805
tp806
Rp807
tp808
a(g15
g6
(g18
S'\xd7\x88$>'
p809
tp810
Rp811
tp812
a(g470
g6
(g18
S'\xe4\\\xab='
p813
tp814
Rp815
tp816
a(g68
g6
(g18
S'F]\x95='
p817
tp818
Rp819
tp820
asg73
g32
sa(dp821
g2
S'../../../data/emanuela/activity-recognition/images/NTCIR-Lifelog-256/u1/2015-03-05/b00000085_21i6bq_20150305_065657e.jpg'
p822
sg4
(lp823
(g32
g6
(g18
S'\xf6G3?'
p824
tp825
Rp826
tp827
a(g15
g6
(g18
S'w\xc1\x1b>'
p828
tp829
Rp830
tp831
a(g68
g6
(g18
S'?U\x9c='
p832
tp833
Rp834
tp835
a(g44
g6
(g18
S'V),='
p836
tp837
Rp838
tp839
a(g56
g6
(g18
S'\x1d0\x10<'
p840
tp841
Rp842
tp843
asg73
g32
sa(dp844
g2
S'../../../data/emanuela/activity-recognition/images/NTCIR-Lifelog-256/u1/2015-03-14/b00000737_21i6bq_20150314_133327e.jpg'
p845
sg4
(lp846
(g32
g6
(g18
S'Qx\x89>'
p847
tp848
Rp849
tp850
a(g44
g6
(g18
S'\xfd\xe3J>'
p851
tp852
Rp853
tp854
a(g96
g6
(g18
S'\xe7\xe3\x15>'
p855
tp856
Rp857
tp858
a(g293
g6
(g18
S'w5\x0c>'
p859
tp860
Rp861
tp862
a(g15
g6
(g18
S'\xfd\x07\xa7='
p863
tp864
Rp865
tp866
asg73
g32
sa(dp867
g2
S'../../../data/emanuela/activity-recognition/images/NTCIR-Lifelog-256/u2/2015-04-25/b00003041_21i7lf_20150425_113337e.jpg'
p868
sg4
(lp869
(g32
g6
(g18
S'}\xef\xa2>'
p870
tp871
Rp872
tp873
a(g44
g6
(g18
S'0Y>>'
p874
tp875
Rp876
tp877
a(g15
g6
(g18
S'\xc9\xb2\t>'
p878
tp879
Rp880
tp881
a(g68
g6
(g18
S'wO\xdd='
p882
tp883
Rp884
tp885
a(g170
g6
(g18
S'n\x05\xd9='
p886
tp887
Rp888
tp889
asg73
g32
sa(dp890
g2
S'../../../data/emanuela/activity-recognition/images/NTCIR-Lifelog-256/u2/2015-04-25/b00003078_21i7lf_20150425_115726e.jpg'
p891
sg4
(lp892
(g44
g6
(g18
S'$\xc6\x02?'
p893
tp894
Rp895
tp896
a(g32
g6
(g18
S'b\x10\xbb>'
p897
tp898
Rp899
tp900
a(g108
g6
(g18
S'\x8f\xc5s='
p901
tp902
Rp903
tp904
a(g96
g6
(g18
S'\xa98#='
p905
tp906
Rp907
tp908
a(g293
g6
(g18
S'\xf2l#<'
p909
tp910
Rp911
tp912
asg73
g32
sa(dp913
g2
S'../../../data/emanuela/activity-recognition/images/NTCIR-Lifelog-256/u2/2015-05-04/b00004921_21i7lf_20150504_183410e.jpg'
p914
sg4
(lp915
(g44
g6
(g18
S'1\x9bx?'
p916
tp917
Rp918
tp919
a(g32
g6
(g18
S'o\x99\x7f<'
p920
tp921
Rp922
tp923
a(g96
g6
(g18
S'I\x9e&<'
p924
tp925
Rp926
tp927
a(g108
g6
(g18
S'\xef\x9b\x05;'
p928
tp929
Rp930
tp931
a(g293
g6
(g18
S'\x8a\x18&:'
p932
tp933
Rp934
tp935
asg73
g32
sa(dp936
g2
S'../../../data/emanuela/activity-recognition/images/NTCIR-Lifelog-256/u2/2015-05-04/b00004922_21i7lf_20150504_183452e.jpg'
p937
sg4
(lp938
(g32
g6
(g18
S'P\xd1@?'
p939
tp940
Rp941
tp942
a(g44
g6
(g18
S'\xc3N\x9a='
p943
tp944
Rp945
tp946
a(g15
g6
(g18
S'\xf3\x04\x85='
p947
tp948
Rp949
tp950
a(g96
g6
(g18
S'\xf7\x84\x13='
p951
tp952
Rp953
tp954
a(g293
g6
(g18
S'L\xe5\xa1<'
p955
tp956
Rp957
tp958
asg73
g32
sa(dp959
g2
S'../../../data/emanuela/activity-recognition/images/NTCIR-Lifelog-256/u2/2015-04-25/b00003089_21i7lf_20150425_122148e.jpg'
p960
sg4
(lp961
(g32
g6
(g18
S'\xa9\xd9G?'
p962
tp963
Rp964
tp965
a(g15
g6
(g18
S'\xb3C\n>'
p966
tp967
Rp968
tp969
a(g44
g6
(g18
S's\xfb#='
p970
tp971
Rp972
tp973
a(g68
g6
(g18
S'\x1d*)<'
p974
tp975
Rp976
tp977
a(g170
g6
(g18
S'Z\xc9\xb5;'
p978
tp979
Rp980
tp981
asg73
g32
sa(dp982
g2
S'../../../data/emanuela/activity-recognition/images/NTCIR-Lifelog-256/u2/2015-04-29/b00000088_21i7lf_20150429_175206e.jpg'
p983
sg4
(lp984
(g44
g6
(g18
S'\xe1\xf5Y?'
p985
tp986
Rp987
tp988
a(g32
g6
(g18
S'\x95p\x14>'
p989
tp990
Rp991
tp992
a(g15
g6
(g18
S'\xf39\x86:'
p993
tp994
Rp995
tp996
a(g96
g6
(g18
S'\x8c\xafR:'
p997
tp998
Rp999
tp1000
a(g108
g6
(g18
S'}/\x19:'
p1001
tp1002
Rp1003
tp1004
asg73
g32
sa(dp1005
g2
S'../../../data/emanuela/activity-recognition/images/NTCIR-Lifelog-256/u2/2015-05-04/b00004693_21i7lf_20150504_121150e.jpg'
p1006
sg4
(lp1007
(g32
g6
(g18
S'\xa8W\x9f>'
p1008
tp1009
Rp1010
tp1011
a(g15
g6
(g18
S'KQ?>'
p1012
tp1013
Rp1014
tp1015
a(g44
g6
(g18
S"&8'>"
p1016
tp1017
Rp1018
tp1019
a(g68
g6
(g18
S'\xfbO\x06>'
p1020
tp1021
Rp1022
tp1023
a(g96
g6
(g18
S'}GY='
p1024
tp1025
Rp1026
tp1027
asg73
g32
sa(dp1028
g2
S'../../../data/emanuela/activity-recognition/images/NTCIR-Lifelog-256/u2/2015-06-18/b00002459_21i7lf_20150618_081707e.jpg'
p1029
sg4
(lp1030
(g44
g6
(g18
S'G\xaa\xcc>'
p1031
tp1032
Rp1033
tp1034
a(g96
g6
(g18
S'\xbd\x16\x8b>'
p1035
tp1036
Rp1037
tp1038
a(g108
g6
(g18
S'\xe8b\n>'
p1039
tp1040
Rp1041
tp1042
a(g343
g6
(g18
S'Q\xd1\x89='
p1043
tp1044
Rp1045
tp1046
a(g293
g6
(g18
S'\xd0N\x83='
p1047
tp1048
Rp1049
tp1050
asg73
g32
sa(dp1051
g2
S'../../../data/emanuela/activity-recognition/images/NTCIR-Lifelog-256/u2/2015-05-02/b00003337_21i7lf_20150502_151543e.jpg'
p1052
sg4
(lp1053
(g32
g6
(g18
S'\x0b\xe0j?'
p1054
tp1055
Rp1056
tp1057
a(g44
g6
(g18
S'\xd3\xa4D='
p1058
tp1059
Rp1060
tp1061
a(g96
g6
(g18
S'\n\x80\x81<'
p1062
tp1063
Rp1064
tp1065
a(g108
g6
(g18
S'V\xff\x02<'
p1066
tp1067
Rp1068
tp1069
a(g343
g6
(g18
S'x\xf6 ;'
p1070
tp1071
Rp1072
tp1073
asg73
g32
sa(dp1074
g2
S'../../../data/emanuela/activity-recognition/images/NTCIR-Lifelog-256/u2/2015-05-08/b00008654_21i7lf_20150508_090136e.jpg'
p1075
sg4
(lp1076
(g32
g6
(g18
S'e\x93\n?'
p1077
tp1078
Rp1079
tp1080
a(g68
g6
(g18
S'7)\x19>'
p1081
tp1082
Rp1083
tp1084
a(g44
g6
(g18
S'_o\t>'
p1085
tp1086
Rp1087
tp1088
a(g15
g6
(g18
S' C\x08>'
p1089
tp1090
Rp1091
tp1092
a(g56
g6
(g18
S'\x1f\xac-<'
p1093
tp1094
Rp1095
tp1096
asg73
g32
sa(dp1097
g2
S'../../../data/emanuela/activity-recognition/images/NTCIR-Lifelog-256/u1/2015-02-26/b00001402_21i6bq_20150226_224209e.jpg'
p1098
sg4
(lp1099
(g32
g6
(g18
S'\xc5H\x1a?'
p1100
tp1101
Rp1102
tp1103
a(g44
g6
(g18
S'>1\x84>'
p1104
tp1105
Rp1106
tp1107
a(g68
g6
(g18
S'CIR='
p1108
tp1109
Rp1110
tp1111
a(g15
g6
(g18
S'YI@='
p1112
tp1113
Rp1114
tp1115
a(g96
g6
(g18
S'\xfcK<<'
p1116
tp1117
Rp1118
tp1119
asg73
g32
sa(dp1120
g2
S'../../../data/emanuela/activity-recognition/images/NTCIR-Lifelog-256/u1/2015-03-17/b00001597_21i6bq_20150317_234846e.jpg'
p1121
sg4
(lp1122
(g44
g6
(g18
S'\xa6c\x11?'
p1123
tp1124
Rp1125
tp1126
a(g32
g6
(g18
S'\x91\xf3\xbc>'
p1127
tp1128
Rp1129
tp1130
a(g15
g6
(g18
S'\x8bR\xf4<'
p1131
tp1132
Rp1133
tp1134
a(g96
g6
(g18
S'Ex&<'
p1135
tp1136
Rp1137
tp1138
a(g108
g6
(g18
S'G\xab\x86;'
p1139
tp1140
Rp1141
tp1142
asg73
g32
sa(dp1143
g2
S'../../../data/emanuela/activity-recognition/images/NTCIR-Lifelog-256/u1/2015-03-16/b00001602_21i6bq_20150316_074142e.jpg'
p1144
sg4
(lp1145
(g32
g6
(g18
S'-\x1c\n?'
p1146
tp1147
Rp1148
tp1149
a(g44
g6
(g18
S'/\x14\xb7>'
p1150
tp1151
Rp1152
tp1153
a(g15
g6
(g18
S'\xaazT='
p1154
tp1155
Rp1156
tp1157
a(g108
g6
(g18
S'$i8<'
p1158
tp1159
Rp1160
tp1161
a(g293
g6
(g18
S'\xd3y*<'
p1162
tp1163
Rp1164
tp1165
asg73
g32
sa(dp1166
g2
S'../../../data/emanuela/activity-recognition/images/NTCIR-Lifelog-256/u1/2015-03-18/b00001307_21i6bq_20150318_223905e.jpg'
p1167
sg4
(lp1168
(g170
g6
(g18
S'm\xd3\x15?'
p1169
tp1170
Rp1171
tp1172
a(g6
(g7
(S'S7'
p1173
I0
I1
tp1174
Rp1175
(I3
S'|'
p1176
NNNI7
I1
I0
tp1177
bS'driving'
p1178
tp1179
Rp1180
g6
(g18
S'\xe2\x1d\r>'
p1181
tp1182
Rp1183
tp1184
a(g68
g6
(g18
S'9\x05z='
p1185
tp1186
Rp1187
tp1188
a(g96
g6
(g18
S'-\xc8G='
p1189
tp1190
Rp1191
tp1192
a(g108
g6
(g18
S'\x0c\xeb\x0c='
p1193
tp1194
Rp1195
tp1196
asg73
g32
sa(dp1197
g2
S'../../../data/emanuela/activity-recognition/images/NTCIR-Lifelog-256/u2/2015-05-02/b00003336_21i7lf_20150502_151505e.jpg'
p1198
sg4
(lp1199
(g32
g6
(g18
S'x|J?'
p1200
tp1201
Rp1202
tp1203
a(g96
g6
(g18
S'\x16j\xcd='
p1204
tp1205
Rp1206
tp1207
a(g56
g6
(g18
S'\xdf\x16a='
p1208
tp1209
Rp1210
tp1211
a(g108
g6
(g18
S'b\x0f]<'
p1212
tp1213
Rp1214
tp1215
a(g44
g6
(g18
S'\xb7Z<<'
p1216
tp1217
Rp1218
tp1219
asg73
g32
sa(dp1220
g2
S'../../../data/emanuela/activity-recognition/images/NTCIR-Lifelog-256/u2/2015-04-29/b00000149_21i7lf_20150429_183206e.jpg'
p1221
sg4
(lp1222
(g139
g6
(g18
S'\x8b\xf2\xbb>'
p1223
tp1224
Rp1225
tp1226
a(g293
g6
(g18
S'\x07\n\x19>'
p1227
tp1228
Rp1229
tp1230
a(g470
g6
(g18
S'\xa3\xb4\x18>'
p1231
tp1232
Rp1233
tp1234
a(g343
g6
(g18
S'\x00K\xc1='
p1235
tp1236
Rp1237
tp1238
a(g15
g6
(g18
S'xU\xa2='
p1239
tp1240
Rp1241
tp1242
asg73
g32
sa(dp1243
g2
S'../../../data/emanuela/activity-recognition/images/NTCIR-Lifelog-256/u3/2015-07-24/b00000493_21i79q_20150724_161333e.jpg'
p1244
sg4
(lp1245
(g32
g6
(g18
S'\xae\xcaw?'
p1246
tp1247
Rp1248
tp1249
a(g44
g6
(g18
S'2\xc0\xef<'
p1250
tp1251
Rp1252
tp1253
a(g68
g6
(g18
S'|\xbee:'
p1254
tp1255
Rp1256
tp1257
a(g15
g6
(g18
S'\xe5\xd65:'
p1258
tp1259
Rp1260
tp1261
a(g96
g6
(g18
S'\xb5\x04\xaa9'
p1262
tp1263
Rp1264
tp1265
asg73
g32
sa(dp1266
g2
S'../../../data/emanuela/activity-recognition/images/NTCIR-Lifelog-256/u2/2015-05-01/b00002620_21i7lf_20150501_183918e.jpg'
p1267
sg4
(lp1268
(g32
g6
(g18
S' \x86w?'
p1269
tp1270
Rp1271
tp1272
a(g44
g6
(g18
S'\xa9X\xf1<'
p1273
tp1274
Rp1275
tp1276
a(g15
g6
(g18
S'\xe8\xcb\xa3:'
p1277
tp1278
Rp1279
tp1280
a(g108
g6
(g18
S'\xef\xeb(:'
p1281
tp1282
Rp1283
tp1284
a(g293
g6
(g18
S"/\xee':"
p1285
tp1286
Rp1287
tp1288
asg73
g32
sa(dp1289
g2
S'../../../data/emanuela/activity-recognition/images/NTCIR-Lifelog-256/u2/2015-05-04/b00004757_21i7lf_20150504_130806e.jpg'
p1290
sg4
(lp1291
(g32
g6
(g18
S'\x98,\x1d?'
p1292
tp1293
Rp1294
tp1295
a(g44
g6
(g18
S'\x87\t\xdc='
p1296
tp1297
Rp1298
tp1299
a(g68
g6
(g18
S'\xc4k\xa3='
p1300
tp1301
Rp1302
tp1303
a(g15
g6
(g18
S'\xa7\xdd\x91='
p1304
tp1305
Rp1306
tp1307
a(g96
g6
(g18
S'\x06\xc7M='
p1308
tp1309
Rp1310
tp1311
asg73
g32
sa(dp1312
g2
S'../../../data/emanuela/activity-recognition/images/NTCIR-Lifelog-256/u2/2015-04-27/b00004907_21i7lf_20150427_083021e.jpg'
p1313
sg4
(lp1314
(g32
g6
(g18
S'"`h?'
p1315
tp1316
Rp1317
tp1318
a(g96
g6
(g18
S'\x85V\xf2<'
p1319
tp1320
Rp1321
tp1322
a(g44
g6
(g18
S'V|\xb4<'
p1323
tp1324
Rp1325
tp1326
a(g343
g6
(g18
S'HIl<'
p1327
tp1328
Rp1329
tp1330
a(g293
g6
(g18
S'm\x17\xe0;'
p1331
tp1332
Rp1333
tp1334
asg73
g32
sa(dp1335
g2
S'../../../data/emanuela/activity-recognition/images/NTCIR-Lifelog-256/u3/2015-06-16/b00000452_21i79q_20150616_163559e.jpg'
p1336
sg4
(lp1337
(g32
g6
(g18
S'3G\xa1>'
p1338
tp1339
Rp1340
tp1341
a(g170
g6
(g18
S':Va>'
p1342
tp1343
Rp1344
tp1345
a(g44
g6
(g18
S'FWO>'
p1346
tp1347
Rp1348
tp1349
a(g96
g6
(g18
S'L+9>'
p1350
tp1351
Rp1352
tp1353
a(g108
g6
(g18
S'uR\x8b='
p1354
tp1355
Rp1356
tp1357
asg73
g32
sa(dp1358
g2
S'../../../data/emanuela/activity-recognition/images/NTCIR-Lifelog-256/u2/2015-04-27/b00004915_21i7lf_20150427_083518e.jpg'
p1359
sg4
(lp1360
(g32
g6
(g18
S'\xcaE`?'
p1361
tp1362
Rp1363
tp1364
a(g44
g6
(g18
S'\x16M>='
p1365
tp1366
Rp1367
tp1368
a(g108
g6
(g18
S'\xffa\x15='
p1369
tp1370
Rp1371
tp1372
a(g96
g6
(g18
S'\x17/\xce<'
p1373
tp1374
Rp1375
tp1376
a(g293
g6
(g18
S'\x1d\xca\xfe;'
p1377
tp1378
Rp1379
tp1380
asg73
g32
sa(dp1381
g2
S'../../../data/emanuela/activity-recognition/images/NTCIR-Lifelog-256/u2/2015-04-25/b00003031_21i7lf_20150425_112741e.jpg'
p1382
sg4
(lp1383
(g96
g6
(g18
S'9}\x98>'
p1384
tp1385
Rp1386
tp1387
a(g44
g6
(g18
S'y\xd1\x88>'
p1388
tp1389
Rp1390
tp1391
a(g32
g6
(g18
S'i\x16\x84>'
p1392
tp1393
Rp1394
tp1395
a(g108
g6
(g18
S'GF\x10>'
p1396
tp1397
Rp1398
tp1399
a(g139
g6
(g18
S'\x11\x0f6<'
p1400
tp1401
Rp1402
tp1403
asg73
g32
sa(dp1404
g2
S'../../../data/emanuela/activity-recognition/images/NTCIR-Lifelog-256/u3/2015-07-23/b00000257_21i79q_20150723_151159e.jpg'
p1405
sg4
(lp1406
(g32
g6
(g18
S'\xc9jE?'
p1407
tp1408
Rp1409
tp1410
a(g44
g6
(g18
S'z\xf1)>'
p1411
tp1412
Rp1413
tp1414
a(g96
g6
(g18
S'\xb91\xe0<'
p1415
tp1416
Rp1417
tp1418
a(g108
g6
(g18
S'$tJ<'
p1419
tp1420
Rp1421
tp1422
a(g56
g6
(g18
S'\xee\xf5\xa3;'
p1423
tp1424
Rp1425
tp1426
asg73
g32
sa(dp1427
g2
S'../../../data/emanuela/activity-recognition/images/NTCIR-Lifelog-256/u1/2015-03-08/b00000944_21i6bq_20150308_194116e.jpg'
p1428
sg4
(lp1429
(g68
g6
(g18
S'w\xac\xa8>'
p1430
tp1431
Rp1432
tp1433
a(g32
g6
(g18
S'\xfc%D>'
p1434
tp1435
Rp1436
tp1437
a(g470
g6
(g18
S'\x17l\x1a>'
p1438
tp1439
Rp1440
tp1441
a(g15
g6
(g18
S'\xb8\x9e\x10>'
p1442
tp1443
Rp1444
tp1445
a(g44
g6
(g18
S'p\xeb\xc9='
p1446
tp1447
Rp1448
tp1449
asg73
g32
sa(dp1450
g2
S'../../../data/emanuela/activity-recognition/images/NTCIR-Lifelog-256/u3/2015-07-14/b00003761_21i79q_20150714_180803e.jpg'
p1451
sg4
(lp1452
(g32
g6
(g18
S'\xf1\xe2K?'
p1453
tp1454
Rp1455
tp1456
a(g44
g6
(g18
S'\xc3*\xa5='
p1457
tp1458
Rp1459
tp1460
a(g108
g6
(g18
S'"g1='
p1461
tp1462
Rp1463
tp1464
a(g15
g6
(g18
S'w\x86\x03='
p1465
tp1466
Rp1467
tp1468
a(g293
g6
(g18
S'\xc9-\x82<'
p1469
tp1470
Rp1471
tp1472
asg73
g32
sa(dp1473
g2
S'../../../data/emanuela/activity-recognition/images/NTCIR-Lifelog-256/u2/2015-05-02/b00003333_21i7lf_20150502_151314e.jpg'
p1474
sg4
(lp1475
(g32
g6
(g18
S'?E~?'
p1476
tp1477
Rp1478
tp1479
a(g44
g6
(g18
S'\xac\x8eQ;'
p1480
tp1481
Rp1482
tp1483
a(g108
g6
(g18
S'\x8e\xa5\xd7:'
p1484
tp1485
Rp1486
tp1487
a(g15
g6
(g18
S'\x04\xc8\t:'
p1488
tp1489
Rp1490
tp1491
a(g96
g6
(g18
S'%\x13\x03:'
p1492
tp1493
Rp1494
tp1495
asg73
g32
sa(dp1496
g2
S'../../../data/emanuela/activity-recognition/images/NTCIR-Lifelog-256/u2/2015-05-05/b00005951_21i7lf_20150505_183054e.jpg'
p1497
sg4
(lp1498
(g32
g6
(g18
S'\xc9\xff:?'
p1499
tp1500
Rp1501
tp1502
a(g343
g6
(g18
S'&\x1c\xf2='
p1503
tp1504
Rp1505
tp1506
a(g108
g6
(g18
S'\xaf\x1e\x81='
p1507
tp1508
Rp1509
tp1510
a(g44
g6
(g18
S'\x12\xb5\xda<'
p1511
tp1512
Rp1513
tp1514
a(g96
g6
(g18
S'\x00\x91\xcd<'
p1515
tp1516
Rp1517
tp1518
asg73
g32
sa(dp1519
g2
S'../../../data/emanuela/activity-recognition/images/NTCIR-Lifelog-256/u2/2015-05-04/b00004746_21i7lf_20150504_130113e.jpg'
p1520
sg4
(lp1521
(g96
g6
(g18
S'\x18\xbfC?'
p1522
tp1523
Rp1524
tp1525
a(g44
g6
(g18
S'\xef\xce\x1c>'
p1526
tp1527
Rp1528
tp1529
a(g108
g6
(g18
S'\x8d\x96\x0c='
p1530
tp1531
Rp1532
tp1533
a(g32
g6
(g18
S'[v\x0b='
p1534
tp1535
Rp1536
tp1537
a(g343
g6
(g18
S'\xedh\xa2;'
p1538
tp1539
Rp1540
tp1541
asg73
g32
sa(dp1542
g2
S'../../../data/emanuela/activity-recognition/images/NTCIR-Lifelog-256/u3/2015-07-23/b00000293_21i79q_20150723_153352e.jpg'
p1543
sg4
(lp1544
(g32
g6
(g18
S'\xdd\xc2z?'
p1545
tp1546
Rp1547
tp1548
a(g15
g6
(g18
S',cN<'
p1549
tp1550
Rp1551
tp1552
a(g44
g6
(g18
S'\xffAT;'
p1553
tp1554
Rp1555
tp1556
a(g96
g6
(g18
S'(\xdb[:'
p1557
tp1558
Rp1559
tp1560
a(g56
g6
(g18
S'\x9b\x0bW:'
p1561
tp1562
Rp1563
tp1564
asg73
g32
sa(dp1565
g2
S'../../../data/emanuela/activity-recognition/images/NTCIR-Lifelog-256/u1/2015-03-15/b00000015_21i6bq_20150315_075233e.jpg'
p1566
sg4
(lp1567
(g32
g6
(g18
S'lX\x1f?'
p1568
tp1569
Rp1570
tp1571
a(g96
g6
(g18
S':\xe8\x19>'
p1572
tp1573
Rp1574
tp1575
a(g44
g6
(g18
S'vZ\xe9='
p1576
tp1577
Rp1578
tp1579
a(g108
g6
(g18
S'\xb7\xbd\xbb='
p1580
tp1581
Rp1582
tp1583
a(g15
g6
(g18
S'\xbd\xd7R<'
p1584
tp1585
Rp1586
tp1587
asg73
g32
sa(dp1588
g2
S'../../../data/emanuela/activity-recognition/images/NTCIR-Lifelog-256/u2/2015-04-29/b00000087_21i7lf_20150429_175135e.jpg'
p1589
sg4
(lp1590
(g139
g6
(g18
S'\x81\xd7\xc7>'
p1591
tp1592
Rp1593
tp1594
a(g470
g6
(g18
S'7\xfaU>'
p1595
tp1596
Rp1597
tp1598
a(g15
g6
(g18
S'\xa96\xe6='
p1599
tp1600
Rp1601
tp1602
a(g458
g6
(g18
S'DR\xa5='
p1603
tp1604
Rp1605
tp1606
a(g32
g6
(g18
S'%L\x9f='
p1607
tp1608
Rp1609
tp1610
asg73
g32
sa(dp1611
g2
S'../../../data/emanuela/activity-recognition/images/NTCIR-Lifelog-256/u1/2015-03-17/b00001606_21i6bq_20150317_235500e.jpg'
p1612
sg4
(lp1613
(g170
g6
(g18
S'!G\x92>'
p1614
tp1615
Rp1616
tp1617
a(g96
g6
(g18
S'\x94\xd8\x89>'
p1618
tp1619
Rp1620
tp1621
a(g108
g6
(g18
S'\xa4\xf8\xf6='
p1622
tp1623
Rp1624
tp1625
a(g44
g6
(g18
S'q#\xeb='
p1626
tp1627
Rp1628
tp1629
a(g293
g6
(g18
S'|\x88W='
p1630
tp1631
Rp1632
tp1633
asg73
g32
sa(dp1634
g2
S'../../../data/emanuela/activity-recognition/images/NTCIR-Lifelog-256/u2/2015-05-04/b00004599_21i7lf_20150504_111223e.jpg'
p1635
sg4
(lp1636
(g15
g6
(g18
S'$\xa6\x06?'
p1637
tp1638
Rp1639
tp1640
a(g32
g6
(g18
S'\xf8PZ>'
p1641
tp1642
Rp1643
tp1644
a(g68
g6
(g18
S'l\xc5\x8d='
p1645
tp1646
Rp1647
tp1648
a(g343
g6
(g18
S'C`9='
p1649
tp1650
Rp1651
tp1652
a(g139
g6
(g18
S'\xber\xc9<'
p1653
tp1654
Rp1655
tp1656
asg73
g32
sa(dp1657
g2
S'../../../data/emanuela/activity-recognition/images/NTCIR-Lifelog-256/u3/2015-07-14/b00003798_21i79q_20150714_183350e.jpg'
p1658
sg4
(lp1659
(g32
g6
(g18
S'a\xa9a?'
p1660
tp1661
Rp1662
tp1663
a(g44
g6
(g18
S'|k\xe7='
p1664
tp1665
Rp1666
tp1667
a(g15
g6
(g18
S'\x83\xd7,;'
p1668
tp1669
Rp1670
tp1671
a(g68
g6
(g18
S'\x94=\xf5:'
p1672
tp1673
Rp1674
tp1675
a(g96
g6
(g18
S' \xccl9'
p1676
tp1677
Rp1678
tp1679
asg73
g32
sa(dp1680
g2
S'../../../data/emanuela/activity-recognition/images/NTCIR-Lifelog-256/u3/2015-06-18/b00000085_21i79q_20150618_142856e.jpg'
p1681
sg4
(lp1682
(g32
g6
(g18
S'\xad\x1bF?'
p1683
tp1684
Rp1685
tp1686
a(g15
g6
(g18
S'\x05N\x9f='
p1687
tp1688
Rp1689
tp1690
a(g44
g6
(g18
S'~\xfb\x9d='
p1691
tp1692
Rp1693
tp1694
a(g96
g6
(g18
S'\xfa\x9b\x97<'
p1695
tp1696
Rp1697
tp1698
a(g108
g6
(g18
S'-\x96&<'
p1699
tp1700
Rp1701
tp1702
asg73
g32
sa(dp1703
g2
S'../../../data/emanuela/activity-recognition/images/NTCIR-Lifelog-256/u1/2015-03-12/b00001296_21i6bq_20150312_222948e.jpg'
p1704
sg4
(lp1705
(g32
g6
(g18
S'\xd4\xcb[?'
p1706
tp1707
Rp1708
tp1709
a(g15
g6
(g18
S'p\xb9\xa8='
p1710
tp1711
Rp1712
tp1713
a(g44
g6
(g18
S'\xac=\xb2<'
p1714
tp1715
Rp1716
tp1717
a(g68
g6
(g18
S'~C1<'
p1718
tp1719
Rp1720
tp1721
a(g458
g6
(g18
S'y\xef\x14<'
p1722
tp1723
Rp1724
tp1725
asg73
g32
sa(dp1726
g2
S'../../../data/emanuela/activity-recognition/images/NTCIR-Lifelog-256/u1/2015-03-01/b00000014_21i6bq_20150301_071928e.jpg'
p1727
sg4
(lp1728
(g32
g6
(g18
S'\xb4t\xed>'
p1729
tp1730
Rp1731
tp1732
a(g15
g6
(g18
S'\x8b\x8d\x1b>'
p1733
tp1734
Rp1735
tp1736
a(g96
g6
(g18
S'\xdd,\t>'
p1737
tp1738
Rp1739
tp1740
a(g6
(g7
(S'S7'
p1741
I0
I1
tp1742
Rp1743
(I3
S'|'
p1744
NNNI7
I1
I0
tp1745
bS'meeting'
p1746
tp1747
Rp1748
g6
(g18
S'\xf93\x8b='
p1749
tp1750
Rp1751
tp1752
a(g470
g6
(g18
S'\xbc\xdaP='
p1753
tp1754
Rp1755
tp1756
asg73
g32
sa(dp1757
g2
S'../../../data/emanuela/activity-recognition/images/NTCIR-Lifelog-256/u1/2015-03-01/b00000112_21i6bq_20150301_075743e.jpg'
p1758
sg4
(lp1759
(g32
g6
(g18
S'd:\xdf>'
p1760
tp1761
Rp1762
tp1763
a(g44
g6
(g18
S'\xba\x89\x80>'
p1764
tp1765
Rp1766
tp1767
a(g96
g6
(g18
S"\xb0'|>"
p1768
tp1769
Rp1770
tp1771
a(g108
g6
(g18
S'\xeca\x04='
p1772
tp1773
Rp1774
tp1775
a(g170
g6
(g18
S'\xe3_]<'
p1776
tp1777
Rp1778
tp1779
asg73
g32
sa(dp1780
g2
S'../../../data/emanuela/activity-recognition/images/NTCIR-Lifelog-256/u2/2015-05-01/b00001732_21i7lf_20150501_083632e.jpg'
p1781
sg4
(lp1782
(g32
g6
(g18
S'\xb2Fx?'
p1783
tp1784
Rp1785
tp1786
a(g96
g6
(g18
S'\xcfw\x04<'
p1787
tp1788
Rp1789
tp1790
a(g44
g6
(g18
S'A\xa7\xb2;'
p1791
tp1792
Rp1793
tp1794
a(g293
g6
(g18
S'\xa6\x8a\xad;'
p1795
tp1796
Rp1797
tp1798
a(g108
g6
(g18
S'\xab\x82E;'
p1799
tp1800
Rp1801
tp1802
asg73
g32
sa(dp1803
g2
S'../../../data/emanuela/activity-recognition/images/NTCIR-Lifelog-256/u2/2015-05-04/b00004780_21i7lf_20150504_132547e.jpg'
p1804
sg4
(lp1805
(g1180
g6
(g18
S'3\x1a\xf7>'
p1806
tp1807
Rp1808
tp1809
a(g170
g6
(g18
S'\xc8#\x87>'
p1810
tp1811
Rp1812
tp1813
a(g6
(g7
(S'S7'
p1814
I0
I1
tp1815
Rp1816
(I3
S'|'
p1817
NNNI7
I1
I0
tp1818
bS'working'
p1819
tp1820
Rp1821
g6
(g18
S'^\xaf\xa5='
p1822
tp1823
Rp1824
tp1825
a(g566
g6
(g18
S'tR.='
p1826
tp1827
Rp1828
tp1829
a(g56
g6
(g18
S'\xc0l\xdc<'
p1830
tp1831
Rp1832
tp1833
asg73
g32
sa(dp1834
g2
S'../../../data/emanuela/activity-recognition/images/NTCIR-Lifelog-256/u2/2015-05-04/b00004809_21i7lf_20150504_134446e.jpg'
p1835
sg4
(lp1836
(g32
g6
(g18
S'6\x16\x14?'
p1837
tp1838
Rp1839
tp1840
a(g44
g6
(g18
S'\xc8\xc4\x89>'
p1841
tp1842
Rp1843
tp1844
a(g15
g6
(g18
S'\xb6\x8bG='
p1845
tp1846
Rp1847
tp1848
a(g170
g6
(g18
S'\xbeO\xf1<'
p1849
tp1850
Rp1851
tp1852
a(g96
g6
(g18
S'F\x86\xd6<'
p1853
tp1854
Rp1855
tp1856
asg73
g32
sa(dp1857
g2
S'../../../data/emanuela/activity-recognition/images/NTCIR-Lifelog-256/u3/2015-07-13/b00002708_21i79q_20150713_174448e.jpg'
p1858
sg4
(lp1859
(g32
g6
(g18
S'\xe2\xf4s?'
p1860
tp1861
Rp1862
tp1863
a(g44
g6
(g18
S'\x90)\x01='
p1864
tp1865
Rp1866
tp1867
a(g15
g6
(g18
S'\xec\xf1\xba;'
p1868
tp1869
Rp1870
tp1871
a(g96
g6
(g18
S'\xda\xf7\xed:'
p1872
tp1873
Rp1874
tp1875
a(g68
g6
(g18
S'kF\xd4:'
p1876
tp1877
Rp1878
tp1879
asg73
g32
sa(dp1880
g2
S'../../../data/emanuela/activity-recognition/images/NTCIR-Lifelog-256/u1/2015-03-15/b00000011_21i6bq_20150315_075229e.jpg'
p1881
sg4
(lp1882
(g32
g6
(g18
S'\x0f\x0e\\?'
p1883
tp1884
Rp1885
tp1886
a(g44
g6
(g18
S'\xe6\x01\xc5='
p1887
tp1888
Rp1889
tp1890
a(g96
g6
(g18
S'\x96\x84\x96<'
p1891
tp1892
Rp1893
tp1894
a(g108
g6
(g18
S'xlL<'
p1895
tp1896
Rp1897
tp1898
a(g15
g6
(g18
S'\x8d\n\xc7;'
p1899
tp1900
Rp1901
tp1902
asg73
g32
sa(dp1903
g2
S'../../../data/emanuela/activity-recognition/images/NTCIR-Lifelog-256/u1/2015-03-04/b00000086_21i6bq_20150304_073115e.jpg'
p1904
sg4
(lp1905
(g32
g6
(g18
S'waT?'
p1906
tp1907
Rp1908
tp1909
a(g44
g6
(g18
S'\xe3\xcf\xf3='
p1910
tp1911
Rp1912
tp1913
a(g96
g6
(g18
S'\xf9_\x8c<'
p1914
tp1915
Rp1916
tp1917
a(g68
g6
(g18
S'B\xd5\x1f<'
p1918
tp1919
Rp1920
tp1921
a(g15
g6
(g18
S'@\xe9\xcd;'
p1922
tp1923
Rp1924
tp1925
asg73
g32
sa(dp1926
g2
S'../../../data/emanuela/activity-recognition/images/NTCIR-Lifelog-256/u1/2015-03-01/b00000524_21i6bq_20150301_120517e.jpg'
p1927
sg4
(lp1928
(g32
g6
(g18
S'q\x82\xb5>'
p1929
tp1930
Rp1931
tp1932
a(g15
g6
(g18
S'\xd4\xf8\x98>'
p1933
tp1934
Rp1935
tp1936
a(g44
g6
(g18
S'z\xc2\x8a>'
p1937
tp1938
Rp1939
tp1940
a(g293
g6
(g18
S'\xe1\xf6\xaf<'
p1941
tp1942
Rp1943
tp1944
a(g68
g6
(g18
S'\xfb\xc3~<'
p1945
tp1946
Rp1947
tp1948
asg73
g32
sa(dp1949
g2
S'../../../data/emanuela/activity-recognition/images/NTCIR-Lifelog-256/u2/2015-05-04/b00004765_21i7lf_20150504_131344e.jpg'
p1950
sg4
(lp1951
(g32
g6
(g18
S'\xea\x12\x8b>'
p1952
tp1953
Rp1954
tp1955
a(g470
g6
(g18
S'\x1b\x80g>'
p1956
tp1957
Rp1958
tp1959
a(g15
g6
(g18
S'/\xd7,>'
p1960
tp1961
Rp1962
tp1963
a(g139
g6
(g18
S'\x057\x15>'
p1964
tp1965
Rp1966
tp1967
a(g108
g6
(g18
S'\xd4\x05\xb6='
p1968
tp1969
Rp1970
tp1971
asg73
g32
sa(dp1972
g2
S'../../../data/emanuela/activity-recognition/images/NTCIR-Lifelog-256/u2/2015-04-28/b00006268_21i7lf_20150428_083529e.jpg'
p1973
sg4
(lp1974
(g56
g6
(g18
S"m\x14'?"
p1975
tp1976
Rp1977
tp1978
a(g170
g6
(g18
S'wo\xfa='
p1979
tp1980
Rp1981
tp1982
a(g96
g6
(g18
S'\xa0[\x96='
p1983
tp1984
Rp1985
tp1986
a(g470
g6
(g18
S'H8\xef<'
p1987
tp1988
Rp1989
tp1990
a(g139
g6
(g18
S'b\x87\xe0<'
p1991
tp1992
Rp1993
tp1994
asg73
g32
sa(dp1995
g2
S'../../../data/emanuela/activity-recognition/images/NTCIR-Lifelog-256/u1/2015-03-05/b00001345_21i6bq_20150305_213819e.jpg'
p1996
sg4
(lp1997
(g32
g6
(g18
S'\x9bft?'
p1998
tp1999
Rp2000
tp2001
a(g44
g6
(g18
S'`*\xd8<'
p2002
tp2003
Rp2004
tp2005
a(g108
g6
(g18
S'\xcd\xfd\x8a;'
p2006
tp2007
Rp2008
tp2009
a(g15
g6
(g18
S'\x9b\x8c\x82;'
p2010
tp2011
Rp2012
tp2013
a(g96
g6
(g18
S'\x92%5;'
p2014
tp2015
Rp2016
tp2017
asg73
g32
sa(dp2018
g2
S'../../../data/emanuela/activity-recognition/images/NTCIR-Lifelog-256/u2/2015-04-25/b00003013_21i7lf_20150425_111606e.jpg'
p2019
sg4
(lp2020
(g15
g6
(g18
S'\xed+T>'
p2021
tp2022
Rp2023
tp2024
a(g32
g6
(g18
S'\x13xM>'
p2025
tp2026
Rp2027
tp2028
a(g44
g6
(g18
S'\xad8\xe9='
p2029
tp2030
Rp2031
tp2032
a(g96
g6
(g18
S'\x05_\xb5='
p2033
tp2034
Rp2035
tp2036
a(g56
g6
(g18
S' \xcf\xa4='
p2037
tp2038
Rp2039
tp2040
asg73
g32
sa(dp2041
g2
S'../../../data/emanuela/activity-recognition/images/NTCIR-Lifelog-256/u1/2015-02-25/b00000043_21i6bq_20150225_061657e.jpg'
p2042
sg4
(lp2043
(g32
g6
(g18
S'\xee\xc2l?'
p2044
tp2045
Rp2046
tp2047
a(g15
g6
(g18
S'\xa0[0='
p2048
tp2049
Rp2050
tp2051
a(g44
g6
(g18
S'U8\xb0<'
p2052
tp2053
Rp2054
tp2055
a(g96
g6
(g18
S'\x80\xaeH;'
p2056
tp2057
Rp2058
tp2059
a(g68
g6
(g18
S'\x9ccB;'
p2060
tp2061
Rp2062
tp2063
asg73
g32
sa(dp2064
g2
S'../../../data/emanuela/activity-recognition/images/NTCIR-Lifelog-256/u2/2015-05-01/b00001729_21i7lf_20150501_083449e.jpg'
p2065
sg4
(lp2066
(g32
g6
(g18
S'\x9e\xbb$?'
p2067
tp2068
Rp2069
tp2070
a(g44
g6
(g18
S'\xb7?,>'
p2071
tp2072
Rp2073
tp2074
a(g96
g6
(g18
S'\x1aO\x8a='
p2075
tp2076
Rp2077
tp2078
a(g108
g6
(g18
S'\xcc\x92\x81='
p2079
tp2080
Rp2081
tp2082
a(g15
g6
(g18
S')p\xb0<'
p2083
tp2084
Rp2085
tp2086
asg73
g32
sa(dp2087
g2
S'../../../data/emanuela/activity-recognition/images/NTCIR-Lifelog-256/u1/2015-03-17/b00000271_21i6bq_20150317_111423e.jpg'
p2088
sg4
(lp2089
(g32
g6
(g18
S'-9\xff>'
p2090
tp2091
Rp2092
tp2093
a(g44
g6
(g18
S'\xecP\xaf>'
p2094
tp2095
Rp2096
tp2097
a(g96
g6
(g18
S's\xf3c='
p2098
tp2099
Rp2100
tp2101
a(g15
g6
(g18
S'! \xc2<'
p2102
tp2103
Rp2104
tp2105
a(g108
g6
(g18
S'\xe2\x14\x98<'
p2106
tp2107
Rp2108
tp2109
asg73
g32
sa(dp2110
g2
S'../../../data/emanuela/activity-recognition/images/NTCIR-Lifelog-256/u3/2015-07-23/b00000909_21i79q_20150723_215932e.jpg'
p2111
sg4
(lp2112
(g32
g6
(g18
S'\xd2s!?'
p2113
tp2114
Rp2115
tp2116
a(g44
g6
(g18
S'\xfb\xc8\xad>'
p2117
tp2118
Rp2119
tp2120
a(g15
g6
(g18
S'\xe1b%<'
p2121
tp2122
Rp2123
tp2124
a(g108
g6
(g18
S'\x0c\x06\xcf;'
p2125
tp2126
Rp2127
tp2128
a(g139
g6
(g18
S'\x08\xcd\xa2;'
p2129
tp2130
Rp2131
tp2132
asg73
g32
sa(dp2133
g2
S'../../../data/emanuela/activity-recognition/images/NTCIR-Lifelog-256/u2/2015-05-04/b00004781_21i7lf_20150504_132627e.jpg'
p2134
sg4
(lp2135
(g32
g6
(g18
S'\xf1T#?'
p2136
tp2137
Rp2138
tp2139
a(g15
g6
(g18
S'\x80\x8f\xac>'
p2140
tp2141
Rp2142
tp2143
a(g44
g6
(g18
S'K\xc6\x8d<'
p2144
tp2145
Rp2146
tp2147
a(g68
g6
(g18
S'\xf3\xbb\xa8;'
p2148
tp2149
Rp2150
tp2151
a(g56
g6
(g18
S'~bC:'
p2152
tp2153
Rp2154
tp2155
asg73
g32
sa(dp2156
g2
S'../../../data/emanuela/activity-recognition/images/NTCIR-Lifelog-256/u2/2015-05-06/b00007249_21i7lf_20150506_192859e.jpg'
p2157
sg4
(lp2158
(g32
g6
(g18
S'E\xfb~?'
p2159
tp2160
Rp2161
tp2162
a(g96
g6
(g18
S'\x97n\xd2:'
p2163
tp2164
Rp2165
tp2166
a(g44
g6
(g18
S'0\x99d:'
p2167
tp2168
Rp2169
tp2170
a(g15
g6
(g18
S'X\xa1\xac9'
p2171
tp2172
Rp2173
tp2174
a(g108
g6
(g18
S'\x9a\x01\x819'
p2175
tp2176
Rp2177
tp2178
asg73
g32
sa(dp2179
g2
S'../../../data/emanuela/activity-recognition/images/NTCIR-Lifelog-256/u2/2015-04-22/b00000946_21i7lf_20150422_080613e.jpg'
p2180
sg4
(lp2181
(g32
g6
(g18
S'\x949l?'
p2182
tp2183
Rp2184
tp2185
a(g44
g6
(g18
S'\xcf\xf4\x80='
p2186
tp2187
Rp2188
tp2189
a(g108
g6
(g18
S'\x83B\xd1;'
p2190
tp2191
Rp2192
tp2193
a(g293
g6
(g18
S'\xbb=[;'
p2194
tp2195
Rp2196
tp2197
a(g96
g6
(g18
S'q\xd0$;'
p2198
tp2199
Rp2200
tp2201
asg73
g32
sa(dp2202
g2
S'../../../data/emanuela/activity-recognition/images/NTCIR-Lifelog-256/u3/2015-07-27/b00002609_21i79q_20150727_193349e.jpg'
p2203
sg4
(lp2204
(g32
g6
(g18
S'\x1c\x7fW?'
p2205
tp2206
Rp2207
tp2208
a(g44
g6
(g18
S'5\xd2\x1e>'
p2209
tp2210
Rp2211
tp2212
a(g15
g6
(g18
S'8\x12\x1b;'
p2213
tp2214
Rp2215
tp2216
a(g68
g6
(g18
S'\x05^\xfe9'
p2217
tp2218
Rp2219
tp2220
a(g96
g6
(g18
S'\xbc\xb5\xc18'
p2221
tp2222
Rp2223
tp2224
asg73
g32
sa(dp2225
g2
S'../../../data/emanuela/activity-recognition/images/NTCIR-Lifelog-256/u1/2015-03-09/b00001281_21i6bq_20150309_202501e.jpg'
p2226
sg4
(lp2227
(g32
g6
(g18
S'\x00c\xfc>'
p2228
tp2229
Rp2230
tp2231
a(g470
g6
(g18
S'\x00\xfdV>'
p2232
tp2233
Rp2234
tp2235
a(g68
g6
(g18
S'\x1b\xc2\xa5='
p2236
tp2237
Rp2238
tp2239
a(g15
g6
(g18
S'\xfa\x0c\xa5='
p2240
tp2241
Rp2242
tp2243
a(g44
g6
(g18
S'\x95t\x8f='
p2244
tp2245
Rp2246
tp2247
asg73
g32
sa(dp2248
g2
S'../../../data/emanuela/activity-recognition/images/NTCIR-Lifelog-256/u2/2015-05-04/b00004733_21i7lf_20150504_125309e.jpg'
p2249
sg4
(lp2250
(g32
g6
(g18
S'\xd2\xf1\xfd>'
p2251
tp2252
Rp2253
tp2254
a(g44
g6
(g18
S'\x8a\xd9\x90>'
p2255
tp2256
Rp2257
tp2258
a(g15
g6
(g18
S'\xe2\xf0\x06>'
p2259
tp2260
Rp2261
tp2262
a(g68
g6
(g18
S'\x8c\x8d\x8a='
p2263
tp2264
Rp2265
tp2266
a(g56
g6
(g18
S'\x12\xd1\x99;'
p2267
tp2268
Rp2269
tp2270
asg73
g32
sa(dp2271
g2
S'../../../data/emanuela/activity-recognition/images/NTCIR-Lifelog-256/u2/2015-06-18/b00002457_21i7lf_20150618_081552e.jpg'
p2272
sg4
(lp2273
(g96
g6
(g18
S'\xe7x\x05?'
p2274
tp2275
Rp2276
tp2277
a(g139
g6
(g18
S'\xbc\x1f\x85>'
p2278
tp2279
Rp2280
tp2281
a(g108
g6
(g18
S'\x9c\xb9#>'
p2282
tp2283
Rp2284
tp2285
a(g293
g6
(g18
S'\xa1FI<'
p2286
tp2287
Rp2288
tp2289
a(g15
g6
(g18
S'\xbc\x155<'
p2290
tp2291
Rp2292
tp2293
asg73
g32
sa(dp2294
g2
S'../../../data/emanuela/activity-recognition/images/NTCIR-Lifelog-256/u1/2015-02-28/b00001263_21i6bq_20150228_204830e.jpg'
p2295
sg4
(lp2296
(g32
g6
(g18
S'\xd30A?'
p2297
tp2298
Rp2299
tp2300
a(g44
g6
(g18
S'\xb9\xdc\xc5='
p2301
tp2302
Rp2303
tp2304
a(g96
g6
(g18
S'\x89\x81\x90='
p2305
tp2306
Rp2307
tp2308
a(g170
g6
(g18
S'Z?4='
p2309
tp2310
Rp2311
tp2312
a(g566
g6
(g18
S'12F<'
p2313
tp2314
Rp2315
tp2316
asg73
g32
sa(dp2317
g2
S'../../../data/emanuela/activity-recognition/images/NTCIR-Lifelog-256/u2/2015-05-04/b00004715_21i7lf_20150504_122517e.jpg'
p2318
sg4
(lp2319
(g32
g6
(g18
S'f\x01\xd4>'
p2320
tp2321
Rp2322
tp2323
a(g44
g6
(g18
S'\xb2\x1a#>'
p2324
tp2325
Rp2326
tp2327
a(g139
g6
(g18
S'\x0br\xd8='
p2328
tp2329
Rp2330
tp2331
a(g108
g6
(g18
S'\x08\x99\xa2='
p2332
tp2333
Rp2334
tp2335
a(g470
g6
(g18
S'\x86\xc9e='
p2336
tp2337
Rp2338
tp2339
asg73
g32
sa(dp2340
g2
S'../../../data/emanuela/activity-recognition/images/NTCIR-Lifelog-256/u3/2015-07-27/b00002607_21i79q_20150727_193241e.jpg'
p2341
sg4
(lp2342
(g32
g6
(g18
S'\x94\x97q?'
p2343
tp2344
Rp2345
tp2346
a(g44
g6
(g18
S'<\x9b\x03='
p2347
tp2348
Rp2349
tp2350
a(g68
g6
(g18
S'\xad\xa7&<'
p2351
tp2352
Rp2353
tp2354
a(g15
g6
(g18
S'\xa0\xba\xbd;'
p2355
tp2356
Rp2357
tp2358
a(g96
g6
(g18
S'j\x1b\x86;'
p2359
tp2360
Rp2361
tp2362
asg73
g32
sa(dp2363
g2
S'../../../data/emanuela/activity-recognition/images/NTCIR-Lifelog-256/u2/2015-06-18/b00002460_21i7lf_20150618_081750e.jpg'
p2364
sg4
(lp2365
(g96
g6
(g18
S'-\xb2\x18?'
p2366
tp2367
Rp2368
tp2369
a(g108
g6
(g18
S'g\x1d|>'
p2370
tp2371
Rp2372
tp2373
a(g343
g6
(g18
S'bWy='
p2374
tp2375
Rp2376
tp2377
a(g44
g6
(g18
S'C\xeaG='
p2378
tp2379
Rp2380
tp2381
a(g139
g6
(g18
S'+\x8ca<'
p2382
tp2383
Rp2384
tp2385
asg73
g32
sa(dp2386
g2
S'../../../data/emanuela/activity-recognition/images/NTCIR-Lifelog-256/u3/2015-07-12/b00002044_21i79q_20150712_180546e.jpg'
p2387
sg4
(lp2388
(g32
g6
(g18
S'K\xcdp?'
p2389
tp2390
Rp2391
tp2392
a(g44
g6
(g18
S'Ulr='
p2393
tp2394
Rp2395
tp2396
a(g15
g6
(g18
S'S\xac\xe78'
p2397
tp2398
Rp2399
tp2400
a(g68
g6
(g18
S'"&\x068'
p2401
tp2402
Rp2403
tp2404
a(g96
g6
(g18
S'\xa2\x94\xa27'
p2405
tp2406
Rp2407
tp2408
asg73
g32
sa(dp2409
g2
S'../../../data/emanuela/activity-recognition/images/NTCIR-Lifelog-256/u1/2015-03-01/b00000015_21i6bq_20150301_071928e.jpg'
p2410
sg4
(lp2411
(g32
g6
(g18
S'\x9d2[?'
p2412
tp2413
Rp2414
tp2415
a(g44
g6
(g18
S'\x98\x1e)='
p2416
tp2417
Rp2418
tp2419
a(g96
g6
(g18
S'8\xda\x02='
p2420
tp2421
Rp2422
tp2423
a(g15
g6
(g18
S'\xffz\xf7<'
p2424
tp2425
Rp2426
tp2427
a(g68
g6
(g18
S'np\xcd<'
p2428
tp2429
Rp2430
tp2431
asg73
g32
sa(dp2432
g2
S'../../../data/emanuela/activity-recognition/images/NTCIR-Lifelog-256/u3/2015-07-27/b00002361_21i79q_20150727_170009e.jpg'
p2433
sg4
(lp2434
(g32
g6
(g18
S'\x94\xee]?'
p2435
tp2436
Rp2437
tp2438
a(g44
g6
(g18
S'h\xea\xe5='
p2439
tp2440
Rp2441
tp2442
a(g96
g6
(g18
S' ]\xed;'
p2443
tp2444
Rp2445
tp2446
a(g108
g6
(g18
S'Q\xcf\x0e;'
p2447
tp2448
Rp2449
tp2450
a(g15
g6
(g18
S'Hg\x07;'
p2451
tp2452
Rp2453
tp2454
asg73
g32
sa(dp2455
g2
S'../../../data/emanuela/activity-recognition/images/NTCIR-Lifelog-256/u2/2015-05-04/b00004770_21i7lf_20150504_131902e.jpg'
p2456
sg4
(lp2457
(g32
g6
(g18
S'\x04e&?'
p2458
tp2459
Rp2460
tp2461
a(g15
g6
(g18
S'dng>'
p2462
tp2463
Rp2464
tp2465
a(g44
g6
(g18
S'\xec\r5='
p2466
tp2467
Rp2468
tp2469
a(g68
g6
(g18
S'\x99\xb5\x05='
p2470
tp2471
Rp2472
tp2473
a(g470
g6
(g18
S'\x81,\x1c<'
p2474
tp2475
Rp2476
tp2477
asg73
g32
sa(dp2478
g2
S'../../../data/emanuela/activity-recognition/images/NTCIR-Lifelog-256/u1/2015-03-05/b00001343_21i6bq_20150305_213700e.jpg'
p2479
sg4
(lp2480
(g32
g6
(g18
S'yN\n?'
p2481
tp2482
Rp2483
tp2484
a(g44
g6
(g18
S'X\x0c\xf9='
p2485
tp2486
Rp2487
tp2488
a(g15
g6
(g18
S'SH\xc1='
p2489
tp2490
Rp2491
tp2492
a(g96
g6
(g18
S'\xbd\x84e='
p2493
tp2494
Rp2495
tp2496
a(g343
g6
(g18
S'\xf9\xff\xf8<'
p2497
tp2498
Rp2499
tp2500
asg73
g32
sa(dp2501
g2
S'../../../data/emanuela/activity-recognition/images/NTCIR-Lifelog-256/u3/2015-06-16/b00000454_21i79q_20150616_163710e.jpg'
p2502
sg4
(lp2503
(g44
g6
(g18
S'H\x13I?'
p2504
tp2505
Rp2506
tp2507
a(g32
g6
(g18
S'v\x9eY>'
p2508
tp2509
Rp2510
tp2511
a(g96
g6
(g18
S'\xf6\xea\x9d:'
p2512
tp2513
Rp2514
tp2515
a(g108
g6
(g18
S'\xafG\xaf9'
p2516
tp2517
Rp2518
tp2519
a(g15
g6
(g18
S'Y\xbb_9'
p2520
tp2521
Rp2522
tp2523
asg73
g32
sa(dp2524
g2
S'../../../data/emanuela/activity-recognition/images/NTCIR-Lifelog-256/u1/2015-03-10/b00001516_21i6bq_20150310_062739e.jpg'
p2525
sg4
(lp2526
(g32
g6
(g18
S'f\n\xfd>'
p2527
tp2528
Rp2529
tp2530
a(g68
g6
(g18
S'\x89}\x12>'
p2531
tp2532
Rp2533
tp2534
a(g44
g6
(g18
S'\xb3\x00\xee='
p2535
tp2536
Rp2537
tp2538
a(g56
g6
(g18
S'W\x06b='
p2539
tp2540
Rp2541
tp2542
a(g15
g6
(g18
S'\n\xfc3='
p2543
tp2544
Rp2545
tp2546
asg73
g32
sa(dp2547
g2
S'../../../data/emanuela/activity-recognition/images/NTCIR-Lifelog-256/u2/2015-06-18/b00002455_21i7lf_20150618_081444e.jpg'
p2548
sg4
(lp2549
(g96
g6
(g18
S'(\x89Y?'
p2550
tp2551
Rp2552
tp2553
a(g108
g6
(g18
S'\xf9>\x11>'
p2554
tp2555
Rp2556
tp2557
a(g32
g6
(g18
S'xSZ;'
p2558
tp2559
Rp2560
tp2561
a(g44
g6
(g18
S'v\x7f-;'
p2562
tp2563
Rp2564
tp2565
a(g68
g6
(g18
S'\xf3\x15\x8b:'
p2566
tp2567
Rp2568
tp2569
asg73
g32
sa(dp2570
g2
S'../../../data/emanuela/activity-recognition/images/NTCIR-Lifelog-256/u2/2015-04-27/b00004922_21i7lf_20150427_083934e.jpg'
p2571
sg4
(lp2572
(g96
g6
(g18
S'\x06my>'
p2573
tp2574
Rp2575
tp2576
a(g139
g6
(g18
S'&R?>'
p2577
tp2578
Rp2579
tp2580
a(g470
g6
(g18
S"s\xa2'>"
p2581
tp2582
Rp2583
tp2584
a(g170
g6
(g18
S'\xd4=J='
p2585
tp2586
Rp2587
tp2588
a(g108
g6
(g18
S"'\xd7?="
p2589
tp2590
Rp2591
tp2592
asg73
g32
sa(dp2593
g2
S'../../../data/emanuela/activity-recognition/images/NTCIR-Lifelog-256/u2/2015-05-04/b00004926_21i7lf_20150504_183723e.jpg'
p2594
sg4
(lp2595
(g32
g6
(g18
S'\xf1\x9d\xd0>'
p2596
tp2597
Rp2598
tp2599
a(g96
g6
(g18
S'3\xfa\x0b>'
p2600
tp2601
Rp2602
tp2603
a(g343
g6
(g18
S'\xfev\xbd='
p2604
tp2605
Rp2606
tp2607
a(g56
g6
(g18
S'n\x0b\xa0='
p2608
tp2609
Rp2610
tp2611
a(g44
g6
(g18
S'Xe\x92='
p2612
tp2613
Rp2614
tp2615
asg73
g32
sa(dp2616
g2
S'../../../data/emanuela/activity-recognition/images/NTCIR-Lifelog-256/u2/2015-05-04/b00004629_21i7lf_20150504_113226e.jpg'
p2617
sg4
(lp2618
(g68
g6
(g18
S'L|%?'
p2619
tp2620
Rp2621
tp2622
a(g56
g6
(g18
S'\xef\x0e\x9b='
p2623
tp2624
Rp2625
tp2626
a(g15
g6
(g18
S'\x91\xda\x80='
p2627
tp2628
Rp2629
tp2630
a(g170
g6
(g18
S'\xa8\xe8#='
p2631
tp2632
Rp2633
tp2634
a(g32
g6
(g18
S'\xd0\xb6\x1c='
p2635
tp2636
Rp2637
tp2638
asg73
g32
sa(dp2639
g2
S'../../../data/emanuela/activity-recognition/images/NTCIR-Lifelog-256/u2/2015-05-04/b00004637_21i7lf_20150504_113718e.jpg'
p2640
sg4
(lp2641
(g32
g6
(g18
S'RL\x91>'
p2642
tp2643
Rp2644
tp2645
a(g56
g6
(g18
S'\x15\x17\x86>'
p2646
tp2647
Rp2648
tp2649
a(g44
g6
(g18
S'\xad\xd5\xbe='
p2650
tp2651
Rp2652
tp2653
a(g108
g6
(g18
S'\x9dcq='
p2654
tp2655
Rp2656
tp2657
a(g96
g6
(g18
S'\xec*e='
p2658
tp2659
Rp2660
tp2661
asg73
g32
sa(dp2662
g2
S'../../../data/emanuela/activity-recognition/images/NTCIR-Lifelog-256/u1/2015-03-04/b00000087_21i6bq_20150304_073156e.jpg'
p2663
sg4
(lp2664
(g32
g6
(g18
S'\xf5W\xfd>'
p2665
tp2666
Rp2667
tp2668
a(g44
g6
(g18
S'Z\xd0\xf6>'
p2669
tp2670
Rp2671
tp2672
a(g15
g6
(g18
S'\x19\x0b\x07<'
p2673
tp2674
Rp2675
tp2676
a(g96
g6
(g18
S'La\xe5;'
p2677
tp2678
Rp2679
tp2680
a(g108
g6
(g18
S'\xae\xedB;'
p2681
tp2682
Rp2683
tp2684
asg73
g32
sa(dp2685
g2
S'../../../data/emanuela/activity-recognition/images/NTCIR-Lifelog-256/u3/2015-07-15/b00000726_21i79q_20150715_191826e.jpg'
p2686
sg4
(lp2687
(g32
g6
(g18
S'i\xc9w?'
p2688
tp2689
Rp2690
tp2691
a(g108
g6
(g18
S'\xcb\x1a\xda;'
p2692
tp2693
Rp2694
tp2695
a(g139
g6
(g18
S'\xdd\xbf\xa1;'
p2696
tp2697
Rp2698
tp2699
a(g1180
g6
(g18
S'i\x0f\x95;'
p2700
tp2701
Rp2702
tp2703
a(g44
g6
(g18
S'\x8c\x8en;'
p2704
tp2705
Rp2706
tp2707
asg73
g32
sa(dp2708
g2
S'../../../data/emanuela/activity-recognition/images/NTCIR-Lifelog-256/u1/2015-03-16/b00003355_21i6bq_20150316_232926e.jpg'
p2709
sg4
(lp2710
(g44
g6
(g18
S"\xdd+'?"
p2711
tp2712
Rp2713
tp2714
a(g32
g6
(g18
S'\x9d[V>'
p2715
tp2716
Rp2717
tp2718
a(g96
g6
(g18
S'\xc6\xae\xc5='
p2719
tp2720
Rp2721
tp2722
a(g108
g6
(g18
S'\xb9\xb8H<'
p2723
tp2724
Rp2725
tp2726
a(g343
g6
(g18
S'\x0c\xdd\x16<'
p2727
tp2728
Rp2729
tp2730
asg73
g32
sa(dp2731
g2
S'../../../data/emanuela/activity-recognition/images/NTCIR-Lifelog-256/u2/2015-04-25/b00003058_21i7lf_20150425_114351e.jpg'
p2732
sg4
(lp2733
(g32
g6
(g18
S'\x18\xe6\xc8>'
p2734
tp2735
Rp2736
tp2737
a(g44
g6
(g18
S'"\x91\xab>'
p2738
tp2739
Rp2740
tp2741
a(g108
g6
(g18
S'\xafW\r>'
p2742
tp2743
Rp2744
tp2745
a(g96
g6
(g18
S'\x8c\x81F='
p2746
tp2747
Rp2748
tp2749
a(g15
g6
(g18
S'\x13\xb2\xa9<'
p2750
tp2751
Rp2752
tp2753
asg73
g32
sa(dp2754
g2
S'../../../data/emanuela/activity-recognition/images/NTCIR-Lifelog-256/u3/2015-07-23/b00000254_21i79q_20150723_151014e.jpg'
p2755
sg4
(lp2756
(g44
g6
(g18
S'\xfb\xd1Q?'
p2757
tp2758
Rp2759
tp2760
a(g32
g6
(g18
S'?\x107>'
p2761
tp2762
Rp2763
tp2764
a(g68
g6
(g18
S'\xd1\xdaQ:'
p2765
tp2766
Rp2767
tp2768
a(g15
g6
(g18
S'[s\xa69'
p2769
tp2770
Rp2771
tp2772
a(g96
g6
(g18
S'<\xc1\x909'
p2773
tp2774
Rp2775
tp2776
asg73
g32
sa(dp2777
g2
S'../../../data/emanuela/activity-recognition/images/NTCIR-Lifelog-256/u2/2015-04-29/b00000148_21i7lf_20150429_183131e.jpg'
p2778
sg4
(lp2779
(g15
g6
(g18
S'sn\xa3>'
p2780
tp2781
Rp2782
tp2783
a(g68
g6
(g18
S'?)g>'
p2784
tp2785
Rp2786
tp2787
a(g170
g6
(g18
S'\x03\xf8$>'
p2788
tp2789
Rp2790
tp2791
a(g470
g6
(g18
S'\xa8\x10 >'
p2792
tp2793
Rp2794
tp2795
a(g32
g6
(g18
S'{\x8f\x1f='
p2796
tp2797
Rp2798
tp2799
asg73
g32
sa(dp2800
g2
S'../../../data/emanuela/activity-recognition/images/NTCIR-Lifelog-256/u2/2015-04-25/b00003068_21i7lf_20150425_115039e.jpg'
p2801
sg4
(lp2802
(g32
g6
(g18
S'M\x0e\xc4>'
p2803
tp2804
Rp2805
tp2806
a(g44
g6
(g18
S'SSD>'
p2807
tp2808
Rp2809
tp2810
a(g108
g6
(g18
S'o\xe7\xc0='
p2811
tp2812
Rp2813
tp2814
a(g96
g6
(g18
S'\xe6U/='
p2815
tp2816
Rp2817
tp2818
a(g15
g6
(g18
S'\xb5\xe9-='
p2819
tp2820
Rp2821
tp2822
asg73
g32
sa(dp2823
g2
S'../../../data/emanuela/activity-recognition/images/NTCIR-Lifelog-256/u3/2015-06-16/b00000461_21i79q_20150616_164124e.jpg'
p2824
sg4
(lp2825
(g44
g6
(g18
S'~\x08\x05?'
p2826
tp2827
Rp2828
tp2829
a(g32
g6
(g18
S'\xc9\x97\xc3>'
p2830
tp2831
Rp2832
tp2833
a(g108
g6
(g18
S'\x1e\xa6 ='
p2834
tp2835
Rp2836
tp2837
a(g96
g6
(g18
S'\x1eX\xa0<'
p2838
tp2839
Rp2840
tp2841
a(g139
g6
(g18
S'\xa6\x19\xa0<'
p2842
tp2843
Rp2844
tp2845
asg73
g32
sa(dp2846
g2
S'../../../data/emanuela/activity-recognition/images/NTCIR-Lifelog-256/u1/2015-03-04/b00000106_21i6bq_20150304_074633e.jpg'
p2847
sg4
(lp2848
(g68
g6
(g18
S'`\xdb\xbe>'
p2849
tp2850
Rp2851
tp2852
a(g15
g6
(g18
S'\x1b\xd3\xbe>'
p2853
tp2854
Rp2855
tp2856
a(g32
g6
(g18
S'9b?>'
p2857
tp2858
Rp2859
tp2860
a(g470
g6
(g18
S'\xe4\xcc\xfc<'
p2861
tp2862
Rp2863
tp2864
a(g56
g6
(g18
S'{ m<'
p2865
tp2866
Rp2867
tp2868
asg73
g32
sa(dp2869
g2
S'../../../data/emanuela/activity-recognition/images/NTCIR-Lifelog-256/u3/2015-07-13/b00002707_21i79q_20150713_174414e.jpg'
p2870
sg4
(lp2871
(g32
g6
(g18
S'\xb3\x06[?'
p2872
tp2873
Rp2874
tp2875
a(g44
g6
(g18
S'\n{\x01>'
p2876
tp2877
Rp2878
tp2879
a(g96
g6
(g18
S'\xfd\xdbQ<'
p2880
tp2881
Rp2882
tp2883
a(g108
g6
(g18
S'\xde\xc9\x11;'
p2884
tp2885
Rp2886
tp2887
a(g139
g6
(g18
S':\xbc/:'
p2888
tp2889
Rp2890
tp2891
asg73
g32
sa(dp2892
g2
S'../../../data/emanuela/activity-recognition/images/NTCIR-Lifelog-256/u2/2015-04-25/b00003052_21i7lf_20150425_114017e.jpg'
p2893
sg4
(lp2894
(g44
g6
(g18
S'\xb6\xc6 ?'
p2895
tp2896
Rp2897
tp2898
a(g32
g6
(g18
S'_j_>'
p2899
tp2900
Rp2901
tp2902
a(g96
g6
(g18
S'\xd8\x89\xba='
p2903
tp2904
Rp2905
tp2906
a(g108
g6
(g18
S'Q\x18@<'
p2907
tp2908
Rp2909
tp2910
a(g56
g6
(g18
S'%r\x1f<'
p2911
tp2912
Rp2913
tp2914
asg73
g32
sa(dp2915
g2
S'../../../data/emanuela/activity-recognition/images/NTCIR-Lifelog-256/u3/2015-06-15/b00000435_21i79q_20150615_125307e.jpg'
p2916
sg4
(lp2917
(g32
g6
(g18
S'\x12\xa2/?'
p2918
tp2919
Rp2920
tp2921
a(g44
g6
(g18
S'H0`>'
p2922
tp2923
Rp2924
tp2925
a(g96
g6
(g18
S'W\xb5\xcf<'
p2926
tp2927
Rp2928
tp2929
a(g15
g6
(g18
S'Z\xcc\x9b<'
p2930
tp2931
Rp2932
tp2933
a(g108
g6
(g18
S'\xce\xdc)<'
p2934
tp2935
Rp2936
tp2937
asg73
g32
sa(dp2938
g2
S'../../../data/emanuela/activity-recognition/images/NTCIR-Lifelog-256/u3/2015-07-23/b00000292_21i79q_20150723_153314e.jpg'
p2939
sg4
(lp2940
(g96
g6
(g18
S'\xd9L\x0e?'
p2941
tp2942
Rp2943
tp2944
a(g32
g6
(g18
S'\xa0RX>'
p2945
tp2946
Rp2947
tp2948
a(g139
g6
(g18
S'\xd6\x1b\x98='
p2949
tp2950
Rp2951
tp2952
a(g56
g6
(g18
S'\x1dZ>='
p2953
tp2954
Rp2955
tp2956
a(g15
g6
(g18
S'I\xa8\x05='
p2957
tp2958
Rp2959
tp2960
asg73
g32
sa(dp2961
g2
S'../../../data/emanuela/activity-recognition/images/NTCIR-Lifelog-256/u2/2015-05-01/b00002619_21i7lf_20150501_183842e.jpg'
p2962
sg4
(lp2963
(g32
g6
(g18
S'\\\\\\?'
p2964
tp2965
Rp2966
tp2967
a(g44
g6
(g18
S'<\xb2\xca='
p2968
tp2969
Rp2970
tp2971
a(g15
g6
(g18
S'UO^<'
p2972
tp2973
Rp2974
tp2975
a(g108
g6
(g18
S't;\xfa;'
p2976
tp2977
Rp2978
tp2979
a(g343
g6
(g18
S'\xaa\xd1\xa4;'
p2980
tp2981
Rp2982
tp2983
asg73
g32
sa(dp2984
g2
S'../../../data/emanuela/activity-recognition/images/NTCIR-Lifelog-256/u3/2015-07-17/b00000057_21i79q_20150717_141638e.jpg'
p2985
sg4
(lp2986
(g32
g6
(g18
S'\xc6px?'
p2987
tp2988
Rp2989
tp2990
a(g44
g6
(g18
S'\xe1\x05\xbc<'
p2991
tp2992
Rp2993
tp2994
a(g15
g6
(g18
S'\xb9\xbeA;'
p2995
tp2996
Rp2997
tp2998
a(g68
g6
(g18
S'\xa1\x12\x16;'
p2999
tp3000
Rp3001
tp3002
a(g96
g6
(g18
S'N\x03%:'
p3003
tp3004
Rp3005
tp3006
asg73
g32
sa(dp3007
g2
S'../../../data/emanuela/activity-recognition/images/NTCIR-Lifelog-256/u2/2015-05-02/b00003335_21i7lf_20150502_151432e.jpg'
p3008
sg4
(lp3009
(g96
g6
(g18
S'IC-?'
p3010
tp3011
Rp3012
tp3013
a(g343
g6
(g18
S'"\xcb\x1d>'
p3014
tp3015
Rp3016
tp3017
a(g108
g6
(g18
S'D\xb6\xb0='
p3018
tp3019
Rp3020
tp3021
a(g32
g6
(g18
S'4\x866='
p3022
tp3023
Rp3024
tp3025
a(g44
g6
(g18
S'\xff\xaaw<'
p3026
tp3027
Rp3028
tp3029
asg73
g32
sa(dp3030
g2
S'../../../data/emanuela/activity-recognition/images/NTCIR-Lifelog-256/u1/2015-02-25/b00000006_21i6bq_20150225_055820e.jpg'
p3031
sg4
(lp3032
(g32
g6
(g18
S'7\x10\x03?'
p3033
tp3034
Rp3035
tp3036
a(g44
g6
(g18
S'=\x9b\xe8>'
p3037
tp3038
Rp3039
tp3040
a(g15
g6
(g18
S'\xaeP\xb2<'
p3041
tp3042
Rp3043
tp3044
a(g96
g6
(g18
S'\xedY\xc7;'
p3045
tp3046
Rp3047
tp3048
a(g293
g6
(g18
S'AL\x1a;'
p3049
tp3050
Rp3051
tp3052
asg73
g32
sa(dp3053
g2
S'../../../data/emanuela/activity-recognition/images/NTCIR-Lifelog-256/u2/2015-06-16/b00001297_21i7lf_20150616_062434e.jpg'
p3054
sg4
(lp3055
(g32
g6
(g18
S'\xdf\x7f\xd8>'
p3056
tp3057
Rp3058
tp3059
a(g96
g6
(g18
S'\xaaiC>'
p3060
tp3061
Rp3062
tp3063
a(g44
g6
(g18
S'\xba\x9e\xec='
p3064
tp3065
Rp3066
tp3067
a(g108
g6
(g18
S'\xbaG\x96='
p3068
tp3069
Rp3070
tp3071
a(g170
g6
(g18
S'<\xef\x85='
p3072
tp3073
Rp3074
tp3075
asg73
g32
sa(dp3076
g2
S'../../../data/emanuela/activity-recognition/images/NTCIR-Lifelog-256/u2/2015-05-04/b00004698_21i7lf_20150504_121455e.jpg'
p3077
sg4
(lp3078
(g139
g6
(g18
S'\xacPe>'
p3079
tp3080
Rp3081
tp3082
a(g470
g6
(g18
S'$>L>'
p3083
tp3084
Rp3085
tp3086
a(g15
g6
(g18
S'\xedA\x12>'
p3087
tp3088
Rp3089
tp3090
a(g56
g6
(g18
S'"\x05\xcb='
p3091
tp3092
Rp3093
tp3094
a(g32
g6
(g18
S'\x03\x9d\xac='
p3095
tp3096
Rp3097
tp3098
asg73
g32
sa(dp3099
g2
S'../../../data/emanuela/activity-recognition/images/NTCIR-Lifelog-256/u3/2015-07-15/b00000724_21i79q_20150715_191712e.jpg'
p3100
sg4
(lp3101
(g32
g6
(g18
S'\xd8\xc9g?'
p3102
tp3103
Rp3104
tp3105
a(g44
g6
(g18
S'\x0e\x8e\t='
p3106
tp3107
Rp3108
tp3109
a(g68
g6
(g18
S'\x05\xd6{<'
p3110
tp3111
Rp3112
tp3113
a(g1180
g6
(g18
S'\xaa\xca.<'
p3114
tp3115
Rp3116
tp3117
a(g15
g6
(g18
S'\xf9"\x01<'
p3118
tp3119
Rp3120
tp3121
asg73
g32
sa(dp3122
g2
S'../../../data/emanuela/activity-recognition/images/NTCIR-Lifelog-256/u2/2015-04-27/b00005999_21i7lf_20150427_194313e.jpg'
p3123
sg4
(lp3124
(g15
g6
(g18
S'\x04\x83\xf3>'
p3125
tp3126
Rp3127
tp3128
a(g68
g6
(g18
S'L\xaa(>'
p3129
tp3130
Rp3131
tp3132
a(g32
g6
(g18
S'>p\x13>'
p3133
tp3134
Rp3135
tp3136
a(g139
g6
(g18
S'\xb1D\x8f='
p3137
tp3138
Rp3139
tp3140
a(g470
g6
(g18
S'\xa9hN='
p3141
tp3142
Rp3143
tp3144
asg73
g32
sa.