(lp0
(dp1
S'image'
p2
S'../../../data/emanuela/activity-recognition/images/NTCIR-Lifelog-256/u2/2015-05-03/b00004475_21i7lf_20150503_223233e.jpg'
p3
sS'result'
p4
(lp5
(cnumpy.core.multiarray
scalar
p6
(cnumpy
dtype
p7
(S'S7'
p8
I0
I1
tp9
Rp10
(I3
S'|'
p11
NNNI7
I1
I0
tp12
bS'cooking'
p13
tp14
Rp15
g6
(g7
(S'f4'
p16
I0
I1
tp17
Rp18
(I3
S'<'
p19
NNNI-1
I-1
I0
tp20
bS'\xd7yO?'
p21
tp22
Rp23
tp24
a(g6
(g7
(S'S19'
p25
I0
I1
tp26
Rp27
(I3
S'|'
p28
NNNI19
I1
I0
tp29
bS'cleaning and chores'
p30
tp31
Rp32
g6
(g18
S'`H\xd6='
p33
tp34
Rp35
tp36
a(g6
(g7
(S'S24'
p37
I0
I1
tp38
Rp39
(I3
S'|'
p40
NNNI24
I1
I0
tp41
bS'having drinks/meal alone'
p42
tp43
Rp44
g6
(g18
S'H"\x87='
p45
tp46
Rp47
tp48
a(g6
(g7
(S'S27'
p49
I0
I1
tp50
Rp51
(I3
S'|'
p52
NNNI27
I1
I0
tp53
bS'having drinks with somebody'
p54
tp55
Rp56
g6
(g18
S'\x99]\xec;'
p57
tp58
Rp59
tp60
a(g6
(g7
(S'S25'
p61
I0
I1
tp62
Rp63
(I3
S'|'
p64
NNNI25
I1
I0
tp65
bS'having meal with somebody'
p66
tp67
Rp68
g6
(g18
S'n\x87\xa6;'
p69
tp70
Rp71
tp72
asS'label'
p73
g15
sa(dp74
g2
S'../../../data/emanuela/activity-recognition/images/NTCIR-Lifelog-256/u2/2015-04-23/b00000798_21i7lf_20150423_085423e.jpg'
p75
sg4
(lp76
(g15
g6
(g18
S'j\xd8{?'
p77
tp78
Rp79
tp80
a(g32
g6
(g18
S'\xdf6E<'
p81
tp82
Rp83
tp84
a(g44
g6
(g18
S'y\xa4g;'
p85
tp86
Rp87
tp88
a(g68
g6
(g18
S'\xcf\xde\xf19'
p89
tp90
Rp91
tp92
a(g6
(g7
(S'S7'
p93
I0
I1
tp94
Rp95
(I3
S'|'
p96
NNNI7
I1
I0
tp97
bS'resting'
p98
tp99
Rp100
g6
(g18
S'|\xf9\x908'
p101
tp102
Rp103
tp104
asg73
g15
sa(dp105
g2
S'../../../data/emanuela/activity-recognition/images/NTCIR-Lifelog-256/u1/2015-02-23/b00000010_21i6bq_20150223_070822e.jpg'
p106
sg4
(lp107
(g32
g6
(g18
S'\xfa\x91\xc2>'
p108
tp109
Rp110
tp111
a(g6
(g7
(S'S14'
p112
I0
I1
tp113
Rp114
(I3
S'|'
p115
NNNI14
I1
I0
tp116
bS'walking indoor'
p117
tp118
Rp119
g6
(g18
S'\xb4_\xbe>'
p120
tp121
Rp122
tp123
a(g15
g6
(g18
S'e\xe6->'
p124
tp125
Rp126
tp127
a(g6
(g7
(S'S7'
p128
I0
I1
tp129
Rp130
(I3
S'|'
p131
NNNI7
I1
I0
tp132
bS'working'
p133
tp134
Rp135
g6
(g18
S'|T\x83<'
p136
tp137
Rp138
tp139
a(g100
g6
(g18
S'.\x86U<'
p140
tp141
Rp142
tp143
asg73
g15
sa(dp144
g2
S'../../../data/emanuela/activity-recognition/images/NTCIR-Lifelog-256/u1/2015-03-03/b00000037_21i6bq_20150303_062411e.jpg'
p145
sg4
(lp146
(g68
g6
(g18
S'1\x1d\x99>'
p147
tp148
Rp149
tp150
a(g44
g6
(g18
S'\xf7\xbd\x81>'
p151
tp152
Rp153
tp154
a(g32
g6
(g18
S'\xc0\x92*>'
p155
tp156
Rp157
tp158
a(g15
g6
(g18
S'\x0e\x9a&>'
p159
tp160
Rp161
tp162
a(g6
(g7
(S'S7'
p163
I0
I1
tp164
Rp165
(I3
S'|'
p166
NNNI7
I1
I0
tp167
bS'reading'
p168
tp169
Rp170
g6
(g18
S'\x7f\x1f\x1e='
p171
tp172
Rp173
tp174
asg73
g15
sa(dp175
g2
S'../../../data/emanuela/activity-recognition/images/NTCIR-Lifelog-256/u3/2015-07-13/b00002536_21i79q_20150713_160150e.jpg'
p176
sg4
(lp177
(g15
g6
(g18
S'\x13\x07C?'
p178
tp179
Rp180
tp181
a(g32
g6
(g18
S' <_>'
p182
tp183
Rp184
tp185
a(g119
g6
(g18
S'\xba\x02\x8a<'
p186
tp187
Rp188
tp189
a(g100
g6
(g18
S'K\x08i:'
p190
tp191
Rp192
tp193
a(g44
g6
(g18
S'\x19m=:'
p194
tp195
Rp196
tp197
asg73
g15
sa(dp198
g2
S'../../../data/emanuela/activity-recognition/images/NTCIR-Lifelog-256/u1/2015-03-02/b00001156_21i6bq_20150302_191233e.jpg'
p199
sg4
(lp200
(g15
g6
(g18
S'\n\xfb\x1f?'
p201
tp202
Rp203
tp204
a(g32
g6
(g18
S'i\x90w>'
p205
tp206
Rp207
tp208
a(g44
g6
(g18
S'\xbc\x16\x17='
p209
tp210
Rp211
tp212
a(g119
g6
(g18
S'Hd\x0c='
p213
tp214
Rp215
tp216
a(g68
g6
(g18
S'>\x96\xbd<'
p217
tp218
Rp219
tp220
asg73
g15
sa(dp221
g2
S'../../../data/emanuela/activity-recognition/images/NTCIR-Lifelog-256/u3/2015-06-24/b00000007_21i79q_20150624_095103e.jpg'
p222
sg4
(lp223
(g15
g6
(g18
S'\xf0\x08\x07?'
p224
tp225
Rp226
tp227
a(g44
g6
(g18
S'\xb8\xd6.>'
p228
tp229
Rp230
tp231
a(g32
g6
(g18
S'_\t\x18>'
p232
tp233
Rp234
tp235
a(g68
g6
(g18
S'O\xed\xea='
p236
tp237
Rp238
tp239
a(g6
(g7
(S'S8'
p240
I0
I1
tp241
Rp242
(I3
S'|'
p243
NNNI8
I1
I0
tp244
bS'shopping'
p245
tp246
Rp247
g6
(g18
S'\xce\xc7c<'
p248
tp249
Rp250
tp251
asg73
g15
sa(dp252
g2
S'../../../data/emanuela/activity-recognition/images/NTCIR-Lifelog-256/u1/2015-03-02/b00001161_21i6bq_20150302_191608e.jpg'
p253
sg4
(lp254
(g15
g6
(g18
S'\x9b\xea\xab>'
p255
tp256
Rp257
tp258
a(g32
g6
(g18
S'\x19q\x94>'
p259
tp260
Rp261
tp262
a(g119
g6
(g18
S'\xd0\x8e">'
p263
tp264
Rp265
tp266
a(g44
g6
(g18
S'\xa4\xde\x86='
p267
tp268
Rp269
tp270
a(g247
g6
(g18
S'\xdeL^='
p271
tp272
Rp273
tp274
asg73
g15
sa(dp275
g2
S'../../../data/emanuela/activity-recognition/images/NTCIR-Lifelog-256/u3/2015-06-24/b00000653_21i79q_20150624_154141e.jpg'
p276
sg4
(lp277
(g15
g6
(g18
S'\xe8\x91e?'
p278
tp279
Rp280
tp281
a(g32
g6
(g18
S'\x8e\x12\x9a='
p282
tp283
Rp284
tp285
a(g68
g6
(g18
S'\xe9&4<'
p286
tp287
Rp288
tp289
a(g247
g6
(g18
S'x\x1d#<'
p290
tp291
Rp292
tp293
a(g44
g6
(g18
S'rFz;'
p294
tp295
Rp296
tp297
asg73
g15
sa(dp298
g2
S'../../../data/emanuela/activity-recognition/images/NTCIR-Lifelog-256/u1/2015-02-24/b00000004_21i6bq_20150224_064245e.jpg'
p299
sg4
(lp300
(g32
g6
(g18
S'\x14t\x96>'
p301
tp302
Rp303
tp304
a(g15
g6
(g18
S'\x8f\xab2>'
p305
tp306
Rp307
tp308
a(g6
(g7
(S'S6'
p309
I0
I1
tp310
Rp311
(I3
S'|'
p312
NNNI6
I1
I0
tp313
bS'mobile'
p314
tp315
Rp316
g6
(g18
S'8\xd2.>'
p317
tp318
Rp319
tp320
a(g170
g6
(g18
S'\xb29\xef='
p321
tp322
Rp323
tp324
a(g44
g6
(g18
S'\xf5\x15]='
p325
tp326
Rp327
tp328
asg73
g15
sa(dp329
g2
S'../../../data/emanuela/activity-recognition/images/NTCIR-Lifelog-256/u1/2015-03-01/b00000041_21i6bq_20150301_072640e.jpg'
p330
sg4
(lp331
(g15
g6
(g18
S'\xcb\x87<?'
p332
tp333
Rp334
tp335
a(g32
g6
(g18
S'G\r->'
p336
tp337
Rp338
tp339
a(g119
g6
(g18
S'\xfb\xde\xbe<'
p340
tp341
Rp342
tp343
a(g68
g6
(g18
S'\x15c\xa6<'
p344
tp345
Rp346
tp347
a(g247
g6
(g18
S'\x00fH<'
p348
tp349
Rp350
tp351
asg73
g15
sa(dp352
g2
S'../../../data/emanuela/activity-recognition/images/NTCIR-Lifelog-256/u2/2015-04-25/b00003267_21i7lf_20150425_154325e.jpg'
p353
sg4
(lp354
(g44
g6
(g18
S' \x01S?'
p355
tp356
Rp357
tp358
a(g15
g6
(g18
S'pk\xcb='
p359
tp360
Rp361
tp362
a(g68
g6
(g18
S'\x906\x94='
p363
tp364
Rp365
tp366
a(g32
g6
(g18
S'\xd5j\x1f;'
p367
tp368
Rp369
tp370
a(g247
g6
(g18
S'\xc2\x97\x83:'
p371
tp372
Rp373
tp374
asg73
g15
sa(dp375
g2
S'../../../data/emanuela/activity-recognition/images/NTCIR-Lifelog-256/u3/2015-07-17/b00000018_21i79q_20150717_135324e.jpg'
p376
sg4
(lp377
(g15
g6
(g18
S'!\xa4??'
p378
tp379
Rp380
tp381
a(g32
g6
(g18
S'O{W>'
p382
tp383
Rp384
tp385
a(g100
g6
(g18
S'\xbc\xc3\x9b<'
p386
tp387
Rp388
tp389
a(g316
g6
(g18
S'\xa1\xb8\xdd;'
p390
tp391
Rp392
tp393
a(g119
g6
(g18
S'\xca\x16\xc6;'
p394
tp395
Rp396
tp397
asg73
g15
sa(dp398
g2
S'../../../data/emanuela/activity-recognition/images/NTCIR-Lifelog-256/u1/2015-03-05/b00000037_21i6bq_20150305_063015e.jpg'
p399
sg4
(lp400
(g44
g6
(g18
S'\x8c`\xbd>'
p401
tp402
Rp403
tp404
a(g15
g6
(g18
S'\xe5j\x9a>'
p405
tp406
Rp407
tp408
a(g68
g6
(g18
S'j\x17\x81>'
p409
tp410
Rp411
tp412
a(g32
g6
(g18
S'\x07\xb8\x08='
p413
tp414
Rp415
tp416
a(g247
g6
(g18
S'\x11\xef\x04='
p417
tp418
Rp419
tp420
asg73
g15
sa(dp421
g2
S'../../../data/emanuela/activity-recognition/images/NTCIR-Lifelog-256/u1/2015-03-01/b00000053_21i6bq_20150301_073056e.jpg'
p422
sg4
(lp423
(g32
g6
(g18
S'\xa1B8?'
p424
tp425
Rp426
tp427
a(g15
g6
(g18
S'{\xed\x89>'
p428
tp429
Rp430
tp431
a(g119
g6
(g18
S'\xcbI\x88;'
p432
tp433
Rp434
tp435
a(g44
g6
(g18
S'}h\x81;'
p436
tp437
Rp438
tp439
a(g68
g6
(g18
S'+\xd6\x80:'
p440
tp441
Rp442
tp443
asg73
g15
sa(dp444
g2
S'../../../data/emanuela/activity-recognition/images/NTCIR-Lifelog-256/u3/2015-06-15/b00000207_21i79q_20150615_104124e.jpg'
p445
sg4
(lp446
(g32
g6
(g18
S'\xb5\xc2\x1e?'
p447
tp448
Rp449
tp450
a(g15
g6
(g18
S'\xce\xcd\xaf>'
p451
tp452
Rp453
tp454
a(g119
g6
(g18
S'\xcb\xb6\x8f<'
p455
tp456
Rp457
tp458
a(g100
g6
(g18
S'\xe51\xe8;'
p459
tp460
Rp461
tp462
a(g6
(g7
(S'S2'
p463
I0
I1
tp464
Rp465
(I3
S'|'
p466
NNNI2
I1
I0
tp467
bS'tv'
p468
tp469
Rp470
g6
(g18
S'{\xed\xb1;'
p471
tp472
Rp473
tp474
asg73
g15
sa(dp475
g2
S'../../../data/emanuela/activity-recognition/images/NTCIR-Lifelog-256/u3/2015-06-24/b00000412_21i79q_20150624_133546e.jpg'
p476
sg4
(lp477
(g15
g6
(g18
S'\x0b\x04z?'
p478
tp479
Rp480
tp481
a(g32
g6
(g18
S'\xcf\r\xbe<'
p482
tp483
Rp484
tp485
a(g247
g6
(g18
S'\x98_\x9d8'
p486
tp487
Rp488
tp489
a(g119
g6
(g18
S'w\x80\x188'
p490
tp491
Rp492
tp493
a(g44
g6
(g18
S'\xceF\xfd7'
p494
tp495
Rp496
tp497
asg73
g15
sa(dp498
g2
S'../../../data/emanuela/activity-recognition/images/NTCIR-Lifelog-256/u2/2015-04-25/b00003148_21i7lf_20150425_130049e.jpg'
p499
sg4
(lp500
(g44
g6
(g18
S'\xe2\xea\xa1>'
p501
tp502
Rp503
tp504
a(g15
g6
(g18
S'\x9f\x14\x1b>'
p505
tp506
Rp507
tp508
a(g68
g6
(g18
S'\x030\x19>'
p509
tp510
Rp511
tp512
a(g247
g6
(g18
S'\x8be\xe7='
p513
tp514
Rp515
tp516
a(g56
g6
(g18
S'9 \xd9='
p517
tp518
Rp519
tp520
asg73
g15
sa(dp521
g2
S'../../../data/emanuela/activity-recognition/images/NTCIR-Lifelog-256/u1/2015-03-09/b00001145_21i6bq_20150309_190209e.jpg'
p522
sg4
(lp523
(g15
g6
(g18
S';\xabN?'
p524
tp525
Rp526
tp527
a(g44
g6
(g18
S'k\x9a\xc8='
p528
tp529
Rp530
tp531
a(g32
g6
(g18
S'\xaa\x07Q='
p532
tp533
Rp534
tp535
a(g68
g6
(g18
S'\x8b\x9e\x07='
p536
tp537
Rp538
tp539
a(g247
g6
(g18
S'9t\xd9;'
p540
tp541
Rp542
tp543
asg73
g15
sa(dp544
g2
S'../../../data/emanuela/activity-recognition/images/NTCIR-Lifelog-256/u3/2015-07-12/b00001997_21i79q_20150712_173341e.jpg'
p545
sg4
(lp546
(g15
g6
(g18
S'O_G?'
p547
tp548
Rp549
tp550
a(g44
g6
(g18
S'<\xf2)>'
p551
tp552
Rp553
tp554
a(g68
g6
(g18
S'l\x86\xf5<'
p555
tp556
Rp557
tp558
a(g32
g6
(g18
S'\xbc\xf5{<'
p559
tp560
Rp561
tp562
a(g247
g6
(g18
S'E\x1f];'
p563
tp564
Rp565
tp566
asg73
g15
sa(dp567
g2
S'../../../data/emanuela/activity-recognition/images/NTCIR-Lifelog-256/u1/2015-03-15/b00000862_21i6bq_20150315_155938e.jpg'
p568
sg4
(lp569
(g56
g6
(g18
S'c\x0f\xa6>'
p570
tp571
Rp572
tp573
a(g32
g6
(g18
S'.G?>'
p574
tp575
Rp576
tp577
a(g6
(g7
(S'S11'
p578
I0
I1
tp579
Rp580
(I3
S'|'
p581
NNNI11
I1
I0
tp582
bS'socializing'
p583
tp584
Rp585
g6
(g18
S'\xd0)5>'
p586
tp587
Rp588
tp589
a(g119
g6
(g18
S'CO\x1c>'
p590
tp591
Rp592
tp593
a(g68
g6
(g18
S'\x9a\xf9e='
p594
tp595
Rp596
tp597
asg73
g15
sa(dp598
g2
S'../../../data/emanuela/activity-recognition/images/NTCIR-Lifelog-256/u1/2015-03-15/b00000003_21i6bq_20150315_074921e.jpg'
p599
sg4
(lp600
(g15
g6
(g18
S'\xf4ca?'
p601
tp602
Rp603
tp604
a(g32
g6
(g18
S'FJ\xef='
p605
tp606
Rp607
tp608
a(g247
g6
(g18
S'\x95Y\xbb:'
p609
tp610
Rp611
tp612
a(g119
g6
(g18
S'YC\x06:'
p613
tp614
Rp615
tp616
a(g68
g6
(g18
S'\x98\x06\xfa9'
p617
tp618
Rp619
tp620
asg73
g15
sa(dp621
g2
S'../../../data/emanuela/activity-recognition/images/NTCIR-Lifelog-256/u2/2015-05-06/b00007234_21i7lf_20150506_191928e.jpg'
p622
sg4
(lp623
(g15
g6
(g18
S'\xc0\xda6?'
p624
tp625
Rp626
tp627
a(g44
g6
(g18
S'\xb3\xe3\xff='
p628
tp629
Rp630
tp631
a(g68
g6
(g18
S'\xa5\x16\xf2='
p632
tp633
Rp634
tp635
a(g32
g6
(g18
S'/\x9a\xf3<'
p636
tp637
Rp638
tp639
a(g56
g6
(g18
S'\xf7\xba\xce;'
p640
tp641
Rp642
tp643
asg73
g15
sa(dp644
g2
S'../../../data/emanuela/activity-recognition/images/NTCIR-Lifelog-256/u1/2015-03-13/b00000026_21i6bq_20150313_055823e.jpg'
p645
sg4
(lp646
(g15
g6
(g18
S'\xe7\xe5Q?'
p647
tp648
Rp649
tp650
a(g32
g6
(g18
S'\xa1Q+>'
p651
tp652
Rp653
tp654
a(g247
g6
(g18
S'?F\x0f<'
p655
tp656
Rp657
tp658
a(g119
g6
(g18
S'"D\xce:'
p659
tp660
Rp661
tp662
a(g68
g6
(g18
S'D\x1bU:'
p663
tp664
Rp665
tp666
asg73
g15
sa(dp667
g2
S'../../../data/emanuela/activity-recognition/images/NTCIR-Lifelog-256/u3/2015-06-15/b00000691_21i79q_20150615_150701e.jpg'
p668
sg4
(lp669
(g15
g6
(g18
S'B/^?'
p670
tp671
Rp672
tp673
a(g247
g6
(g18
S'\xe8\x0c~='
p674
tp675
Rp676
tp677
a(g32
g6
(g18
S'n\x98g='
p678
tp679
Rp680
tp681
a(g119
g6
(g18
S'\xe2u\x88;'
p682
tp683
Rp684
tp685
a(g44
g6
(g18
S'\x1d\xb3N;'
p686
tp687
Rp688
tp689
asg73
g15
sa(dp690
g2
S'../../../data/emanuela/activity-recognition/images/NTCIR-Lifelog-256/u3/2015-07-17/b00000026_21i79q_20150717_135815e.jpg'
p691
sg4
(lp692
(g15
g6
(g18
S'\xc6c??'
p693
tp694
Rp695
tp696
a(g32
g6
(g18
S'\xa2n\x1e>'
p697
tp698
Rp699
tp700
a(g100
g6
(g18
S"\xa7'\xb8="
p701
tp702
Rp703
tp704
a(g119
g6
(g18
S'7xc;'
p705
tp706
Rp707
tp708
a(g316
g6
(g18
S'wk\xd8:'
p709
tp710
Rp711
tp712
asg73
g15
sa(dp713
g2
S'../../../data/emanuela/activity-recognition/images/NTCIR-Lifelog-256/u3/2015-06-24/b00000001_21i79q_20150624_094737e.jpg'
p714
sg4
(lp715
(g15
g6
(g18
S'\x7fY\x04?'
p716
tp717
Rp718
tp719
a(g32
g6
(g18
S'h$\x80>'
p720
tp721
Rp722
tp723
a(g44
g6
(g18
S'.\xe9\x0b>'
p724
tp725
Rp726
tp727
a(g119
g6
(g18
S'\xb2\xfa\xdc<'
p728
tp729
Rp730
tp731
a(g68
g6
(g18
S'\xd6p\xbf<'
p732
tp733
Rp734
tp735
asg73
g15
sa(dp736
g2
S'../../../data/emanuela/activity-recognition/images/NTCIR-Lifelog-256/u3/2015-07-15/b00000699_21i79q_20150715_190026e.jpg'
p737
sg4
(lp738
(g15
g6
(g18
S'\xf58]?'
p739
tp740
Rp741
tp742
a(g32
g6
(g18
S'\x95\xc1\x06>'
p743
tp744
Rp745
tp746
a(g100
g6
(g18
S'\x15)\x0c;'
p747
tp748
Rp749
tp750
a(g44
g6
(g18
S'"m\x9b:'
p751
tp752
Rp753
tp754
a(g119
g6
(g18
S'\xa7\xf7\xd29'
p755
tp756
Rp757
tp758
asg73
g15
sa(dp759
g2
S'../../../data/emanuela/activity-recognition/images/NTCIR-Lifelog-256/u2/2015-04-25/b00003118_21i7lf_20150425_124018e.jpg'
p760
sg4
(lp761
(g15
g6
(g18
S'\xc6\x95\xbd>'
p762
tp763
Rp764
tp765
a(g44
g6
(g18
S'E0\x80>'
p766
tp767
Rp768
tp769
a(g32
g6
(g18
S'Cv/>'
p770
tp771
Rp772
tp773
a(g68
g6
(g18
S'\xf6\x99">'
p774
tp775
Rp776
tp777
a(g119
g6
(g18
S'\xbb\xbeT<'
p778
tp779
Rp780
tp781
asg73
g15
sa(dp782
g2
S'../../../data/emanuela/activity-recognition/images/NTCIR-Lifelog-256/u1/2015-03-05/b00001212_21i6bq_20150305_200739e.jpg'
p783
sg4
(lp784
(g32
g6
(g18
S'\xa2\xe4a?'
p785
tp786
Rp787
tp788
a(g15
g6
(g18
S'\x92%\xaa='
p789
tp790
Rp791
tp792
a(g44
g6
(g18
S'\x9a\xfc\x1a<'
p793
tp794
Rp795
tp796
a(g68
g6
(g18
S'\xf4\x06\x9b;'
p797
tp798
Rp799
tp800
a(g6
(g7
(S'S6'
p801
I0
I1
tp802
Rp803
(I3
S'|'
p804
NNNI6
I1
I0
tp805
bS'biking'
p806
tp807
Rp808
g6
(g18
S'\xc14\x95;'
p809
tp810
Rp811
tp812
asg73
g15
sa(dp813
g2
S'../../../data/emanuela/activity-recognition/images/NTCIR-Lifelog-256/u1/2015-02-23/b00000009_21i6bq_20150223_070814e.jpg'
p814
sg4
(lp815
(g15
g6
(g18
S'\xc7\xe7L?'
p816
tp817
Rp818
tp819
a(g32
g6
(g18
S'h\xe0\x06>'
p820
tp821
Rp822
tp823
a(g247
g6
(g18
S'/\x0c"='
p824
tp825
Rp826
tp827
a(g119
g6
(g18
S'\xc0\xe6\x9d<'
p828
tp829
Rp830
tp831
a(g68
g6
(g18
S'\xf8M\t;'
p832
tp833
Rp834
tp835
asg73
g15
sa(dp836
g2
S'../../../data/emanuela/activity-recognition/images/NTCIR-Lifelog-256/u3/2015-07-27/b00002244_21i79q_20150727_154753e.jpg'
p837
sg4
(lp838
(g15
g6
(g18
S'\x94\xb2{?'
p839
tp840
Rp841
tp842
a(g32
g6
(g18
S'\xaeN\x85<'
p843
tp844
Rp845
tp846
a(g44
g6
(g18
S'Y\xc2\xbf9'
p847
tp848
Rp849
tp850
a(g68
g6
(g18
S'\xffK\xaf8'
p851
tp852
Rp853
tp854
a(g119
g6
(g18
S'\xdb-.8'
p855
tp856
Rp857
tp858
asg73
g15
sa(dp859
g2
S'../../../data/emanuela/activity-recognition/images/NTCIR-Lifelog-256/u1/2015-03-15/b00000012_21i6bq_20150315_075230e.jpg'
p860
sg4
(lp861
(g15
g6
(g18
S'\x1f\xc0\x1f?'
p862
tp863
Rp864
tp865
a(g32
g6
(g18
S'\x1d$\xb4>'
p866
tp867
Rp868
tp869
a(g119
g6
(g18
S'\xe70k<'
p870
tp871
Rp872
tp873
a(g44
g6
(g18
S'\xdc\x8ed;'
p874
tp875
Rp876
tp877
a(g247
g6
(g18
S'\xa4\x95O;'
p878
tp879
Rp880
tp881
asg73
g15
sa(dp882
g2
S'../../../data/emanuela/activity-recognition/images/NTCIR-Lifelog-256/u3/2015-07-22/b00000418_21i79q_20150722_140854e.jpg'
p883
sg4
(lp884
(g15
g6
(g18
S'MzM?'
p885
tp886
Rp887
tp888
a(g100
g6
(g18
S'N\xe1\xce='
p889
tp890
Rp891
tp892
a(g32
g6
(g18
S'\x9c\x96\x9a='
p893
tp894
Rp895
tp896
a(g44
g6
(g18
S'\xe4\xfc7<'
p897
tp898
Rp899
tp900
a(g316
g6
(g18
S'/\xf70;'
p901
tp902
Rp903
tp904
asg73
g15
sa(dp905
g2
S'../../../data/emanuela/activity-recognition/images/NTCIR-Lifelog-256/u3/2015-06-18/b00000001_21i79q_20150618_134000e.jpg'
p906
sg4
(lp907
(g32
g6
(g18
S'p\xb9\x0e?'
p908
tp909
Rp910
tp911
a(g15
g6
(g18
S'OP\xbf>'
p912
tp913
Rp914
tp915
a(g44
g6
(g18
S'\xb3q\xb5<'
p916
tp917
Rp918
tp919
a(g119
g6
(g18
S'\xd6\x8do<'
p920
tp921
Rp922
tp923
a(g247
g6
(g18
S'$W\x14<'
p924
tp925
Rp926
tp927
asg73
g15
sa(dp928
g2
S'../../../data/emanuela/activity-recognition/images/NTCIR-Lifelog-256/u2/2015-04-20/b00000590_21i7lf_20150420_154855e.jpg'
p929
sg4
(lp930
(g15
g6
(g18
S'm8Q?'
p931
tp932
Rp933
tp934
a(g32
g6
(g18
S'4\x12\xe1='
p935
tp936
Rp937
tp938
a(g44
g6
(g18
S'\xb2\xc0i='
p939
tp940
Rp941
tp942
a(g68
g6
(g18
S'B|\xbf;'
p943
tp944
Rp945
tp946
a(g119
g6
(g18
S'\xf9\xc41;'
p947
tp948
Rp949
tp950
asg73
g15
sa(dp951
g2
S'../../../data/emanuela/activity-recognition/images/NTCIR-Lifelog-256/u3/2015-07-27/b00002236_21i79q_20150727_154232e.jpg'
p952
sg4
(lp953
(g15
g6
(g18
S'\x96\x8aj?'
p954
tp955
Rp956
tp957
a(g32
g6
(g18
S'\xdc{\xa9='
p958
tp959
Rp960
tp961
a(g119
g6
(g18
S'\x8a}\xb79'
p962
tp963
Rp964
tp965
a(g44
g6
(g18
S'a\x87\xa59'
p966
tp967
Rp968
tp969
a(g100
g6
(g18
S'\xd7\xca@9'
p970
tp971
Rp972
tp973
asg73
g15
sa(dp974
g2
S'../../../data/emanuela/activity-recognition/images/NTCIR-Lifelog-256/u2/2015-04-29/b00000272_21i7lf_20150429_194738e.jpg'
p975
sg4
(lp976
(g15
g6
(g18
S'\xd6\xbd1?'
p977
tp978
Rp979
tp980
a(g32
g6
(g18
S"\x8b'\x08>"
p981
tp982
Rp983
tp984
a(g44
g6
(g18
S'w\xbf\xc9='
p985
tp986
Rp987
tp988
a(g68
g6
(g18
S'\x8d\x9c\xeb<'
p989
tp990
Rp991
tp992
a(g247
g6
(g18
S'c\xfe\xe8<'
p993
tp994
Rp995
tp996
asg73
g15
sa(dp997
g2
S'../../../data/emanuela/activity-recognition/images/NTCIR-Lifelog-256/u1/2015-03-02/b00000037_21i6bq_20150302_065509e.jpg'
p998
sg4
(lp999
(g15
g6
(g18
S'\xc9}-?'
p1000
tp1001
Rp1002
tp1003
a(g32
g6
(g18
S'\xd2\xa9\x84>'
p1004
tp1005
Rp1006
tp1007
a(g44
g6
(g18
S'\x91\x8fa='
p1008
tp1009
Rp1010
tp1011
a(g68
g6
(g18
S'XBc;'
p1012
tp1013
Rp1014
tp1015
a(g119
g6
(g18
S'\xc4\x10C;'
p1016
tp1017
Rp1018
tp1019
asg73
g15
sa(dp1020
g2
S'../../../data/emanuela/activity-recognition/images/NTCIR-Lifelog-256/u2/2015-04-27/b00004901_21i7lf_20150427_082642e.jpg'
p1021
sg4
(lp1022
(g15
g6
(g18
S'\xf7Du?'
p1023
tp1024
Rp1025
tp1026
a(g32
g6
(g18
S'\x19\xb4\x0f='
p1027
tp1028
Rp1029
tp1030
a(g44
g6
(g18
S'\xdc\x84h;'
p1031
tp1032
Rp1033
tp1034
a(g68
g6
(g18
S'\xc4I ;'
p1035
tp1036
Rp1037
tp1038
a(g247
g6
(g18
S'\xdf9\r:'
p1039
tp1040
Rp1041
tp1042
asg73
g15
sa(dp1043
g2
S'../../../data/emanuela/activity-recognition/images/NTCIR-Lifelog-256/u2/2015-05-04/b00004515_21i7lf_20150504_101851e.jpg'
p1044
sg4
(lp1045
(g15
g6
(g18
S'\nK0?'
p1046
tp1047
Rp1048
tp1049
a(g44
g6
(g18
S'\xc9c)>'
p1050
tp1051
Rp1052
tp1053
a(g32
g6
(g18
S'm\x12\x86='
p1054
tp1055
Rp1056
tp1057
a(g68
g6
(g18
S'\xa7T:='
p1058
tp1059
Rp1060
tp1061
a(g56
g6
(g18
S'\x88\x12k<'
p1062
tp1063
Rp1064
tp1065
asg73
g15
sa(dp1066
g2
S'../../../data/emanuela/activity-recognition/images/NTCIR-Lifelog-256/u3/2015-07-12/b00001965_21i79q_20150712_171451e.jpg'
p1067
sg4
(lp1068
(g15
g6
(g18
S'b\xe3_?'
p1069
tp1070
Rp1071
tp1072
a(g32
g6
(g18
S'Y\x17\xce='
p1073
tp1074
Rp1075
tp1076
a(g247
g6
(g18
S'\xb1g3<'
p1077
tp1078
Rp1079
tp1080
a(g44
g6
(g18
S'\xb5\x1c\xb8;'
p1081
tp1082
Rp1083
tp1084
a(g68
g6
(g18
S'\x89Yl;'
p1085
tp1086
Rp1087
tp1088
asg73
g15
sa(dp1089
g2
S'../../../data/emanuela/activity-recognition/images/NTCIR-Lifelog-256/u2/2015-04-20/b00000589_21i7lf_20150420_154818e.jpg'
p1090
sg4
(lp1091
(g15
g6
(g18
S'9:Z?'
p1092
tp1093
Rp1094
tp1095
a(g32
g6
(g18
S'\xdfD\x0f>'
p1096
tp1097
Rp1098
tp1099
a(g44
g6
(g18
S'\xcd\x87%;'
p1100
tp1101
Rp1102
tp1103
a(g68
g6
(g18
S'\x95\x17\x0b;'
p1104
tp1105
Rp1106
tp1107
a(g119
g6
(g18
S'\x0ef\xc2:'
p1108
tp1109
Rp1110
tp1111
asg73
g15
sa(dp1112
g2
S'../../../data/emanuela/activity-recognition/images/NTCIR-Lifelog-256/u3/2015-07-13/b00002692_21i79q_20150713_173522e.jpg'
p1113
sg4
(lp1114
(g44
g6
(g18
S'\x12\x88\xc9>'
p1115
tp1116
Rp1117
tp1118
a(g15
g6
(g18
S'4\x01\xa9>'
p1119
tp1120
Rp1121
tp1122
a(g68
g6
(g18
S'N\xf5\xe5='
p1123
tp1124
Rp1125
tp1126
a(g32
g6
(g18
S'\x89\x80\xdd='
p1127
tp1128
Rp1129
tp1130
a(g170
g6
(g18
S'U\x97\xb0<'
p1131
tp1132
Rp1133
tp1134
asg73
g15
sa(dp1135
g2
S'../../../data/emanuela/activity-recognition/images/NTCIR-Lifelog-256/u3/2015-07-17/b00000693_21i79q_20150717_200658e.jpg'
p1136
sg4
(lp1137
(g15
g6
(g18
S'\xfdW]?'
p1138
tp1139
Rp1140
tp1141
a(g32
g6
(g18
S'\x19\xa4\xd6='
p1142
tp1143
Rp1144
tp1145
a(g68
g6
(g18
S'H\xe4\x17<'
p1146
tp1147
Rp1148
tp1149
a(g44
g6
(g18
S'E\x9f\xd8;'
p1150
tp1151
Rp1152
tp1153
a(g119
g6
(g18
S' \x96\x96;'
p1154
tp1155
Rp1156
tp1157
asg73
g15
sa(dp1158
g2
S'../../../data/emanuela/activity-recognition/images/NTCIR-Lifelog-256/u3/2015-07-17/b00000009_21i79q_20150717_134758e.jpg'
p1159
sg4
(lp1160
(g15
g6
(g18
S'\xce\x1eF?'
p1161
tp1162
Rp1163
tp1164
a(g32
g6
(g18
S'\xf1*3>'
p1165
tp1166
Rp1167
tp1168
a(g100
g6
(g18
S'}\xc26='
p1169
tp1170
Rp1171
tp1172
a(g119
g6
(g18
S'\x08"U;'
p1173
tp1174
Rp1175
tp1176
a(g316
g6
(g18
S'\x9f,\xae:'
p1177
tp1178
Rp1179
tp1180
asg73
g15
sa(dp1181
g2
S'../../../data/emanuela/activity-recognition/images/NTCIR-Lifelog-256/u1/2015-02-23/b00000007_21i6bq_20150223_070813e.jpg'
p1182
sg4
(lp1183
(g32
g6
(g18
S'VR\x0e?'
p1184
tp1185
Rp1186
tp1187
a(g119
g6
(g18
S'\xe8\xc8j>'
p1188
tp1189
Rp1190
tp1191
a(g15
g6
(g18
S'~"\x1b>'
p1192
tp1193
Rp1194
tp1195
a(g100
g6
(g18
S'\x9b9\x96<'
p1196
tp1197
Rp1198
tp1199
a(g470
g6
(g18
S'7\xf0\x89<'
p1200
tp1201
Rp1202
tp1203
asg73
g15
sa(dp1204
g2
S'../../../data/emanuela/activity-recognition/images/NTCIR-Lifelog-256/u1/2015-03-18/b00001195_21i6bq_20150318_212813e.jpg'
p1205
sg4
(lp1206
(g6
(g7
(S'S5'
p1207
I0
I1
tp1208
Rp1209
(I3
S'|'
p1210
NNNI5
I1
I0
tp1211
bS'plane'
p1212
tp1213
Rp1214
g6
(g18
S'\xbdd\xfe>'
p1215
tp1216
Rp1217
tp1218
a(g170
g6
(g18
S'\xd8*B>'
p1219
tp1220
Rp1221
tp1222
a(g15
g6
(g18
S'\x8a\xd3\xbd='
p1223
tp1224
Rp1225
tp1226
a(g247
g6
(g18
S'\xd5\x89J='
p1227
tp1228
Rp1229
tp1230
a(g135
g6
(g18
S'=\x10&='
p1231
tp1232
Rp1233
tp1234
asg73
g15
sa(dp1235
g2
S'../../../data/emanuela/activity-recognition/images/NTCIR-Lifelog-256/u1/2015-03-02/b00001138_21i6bq_20150302_190002e.jpg'
p1236
sg4
(lp1237
(g15
g6
(g18
S'8\x1a/?'
p1238
tp1239
Rp1240
tp1241
a(g32
g6
(g18
S'\x05\xa0\x92>'
p1242
tp1243
Rp1244
tp1245
a(g68
g6
(g18
S'rP\x15<'
p1246
tp1247
Rp1248
tp1249
a(g44
g6
(g18
S'\x92\xcf\xba;'
p1250
tp1251
Rp1252
tp1253
a(g247
g6
(g18
S'\xb1\xd2\x92;'
p1254
tp1255
Rp1256
tp1257
asg73
g15
sa(dp1258
g2
S'../../../data/emanuela/activity-recognition/images/NTCIR-Lifelog-256/u3/2015-07-15/b00000368_21i79q_20150715_153742e.jpg'
p1259
sg4
(lp1260
(g15
g6
(g18
S'`\xf9\xed>'
p1261
tp1262
Rp1263
tp1264
a(g32
g6
(g18
S'\xcc\xb1Q>'
p1265
tp1266
Rp1267
tp1268
a(g170
g6
(g18
S'c\xa7\x95='
p1269
tp1270
Rp1271
tp1272
a(g100
g6
(g18
S'\xd1yZ='
p1273
tp1274
Rp1275
tp1276
a(g119
g6
(g18
S'1+9='
p1277
tp1278
Rp1279
tp1280
asg73
g15
sa(dp1281
g2
S'../../../data/emanuela/activity-recognition/images/NTCIR-Lifelog-256/u2/2015-04-22/b00000620_21i7lf_20150422_190819e.jpg'
p1282
sg4
(lp1283
(g15
g6
(g18
S'\xac\xa6\x00?'
p1284
tp1285
Rp1286
tp1287
a(g32
g6
(g18
S'm\xea\xb9>'
p1288
tp1289
Rp1290
tp1291
a(g247
g6
(g18
S'\x82\x9e6='
p1292
tp1293
Rp1294
tp1295
a(g44
g6
(g18
S'\x12\xbe\xa6<'
p1296
tp1297
Rp1298
tp1299
a(g68
g6
(g18
S'\xdb\x1ew<'
p1300
tp1301
Rp1302
tp1303
asg73
g15
sa(dp1304
g2
S'../../../data/emanuela/activity-recognition/images/NTCIR-Lifelog-256/u2/2015-05-06/b00006233_21i7lf_20150506_071339e.jpg'
p1305
sg4
(lp1306
(g15
g6
(g18
S'\x82\x06\xe4>'
p1307
tp1308
Rp1309
tp1310
a(g32
g6
(g18
S'\xde\xb0\x97>'
p1311
tp1312
Rp1313
tp1314
a(g6
(g7
(S'S19'
p1315
I0
I1
tp1316
Rp1317
(I3
S'|'
p1318
NNNI19
I1
I0
tp1319
bS'attending a seminar'
p1320
tp1321
Rp1322
g6
(g18
S'\xa6\xda\xad='
p1323
tp1324
Rp1325
tp1326
a(g44
g6
(g18
S';\x01<='
p1327
tp1328
Rp1329
tp1330
a(g119
g6
(g18
S"\xef\xc3'="
p1331
tp1332
Rp1333
tp1334
asg73
g15
sa(dp1335
g2
S'../../../data/emanuela/activity-recognition/images/NTCIR-Lifelog-256/u2/2015-05-03/b00004066_21i7lf_20150503_174332e.jpg'
p1336
sg4
(lp1337
(g68
g6
(g18
S'1\xe0\xc0>'
p1338
tp1339
Rp1340
tp1341
a(g44
g6
(g18
S's\x0b\x87>'
p1342
tp1343
Rp1344
tp1345
a(g15
g6
(g18
S'\x17\xe6B>'
p1346
tp1347
Rp1348
tp1349
a(g32
g6
(g18
S'u-\xbc='
p1350
tp1351
Rp1352
tp1353
a(g247
g6
(g18
S'\xb74\xfb<'
p1354
tp1355
Rp1356
tp1357
asg73
g15
sa(dp1358
g2
S'../../../data/emanuela/activity-recognition/images/NTCIR-Lifelog-256/u3/2015-07-15/b00000533_21i79q_20150715_171752e.jpg'
p1359
sg4
(lp1360
(g15
g6
(g18
S'\xbb\x06\xfe>'
p1361
tp1362
Rp1363
tp1364
a(g32
g6
(g18
S'Q\xb0\x88>'
p1365
tp1366
Rp1367
tp1368
a(g316
g6
(g18
S'\x00\xf5\xea='
p1369
tp1370
Rp1371
tp1372
a(g44
g6
(g18
S'\x91XN='
p1373
tp1374
Rp1375
tp1376
a(g100
g6
(g18
S'\xb8j\xb7<'
p1377
tp1378
Rp1379
tp1380
asg73
g15
sa(dp1381
g2
S'../../../data/emanuela/activity-recognition/images/NTCIR-Lifelog-256/u2/2015-04-25/b00003153_21i7lf_20150425_130344e.jpg'
p1382
sg4
(lp1383
(g15
g6
(g18
S'\xb1\x060?'
p1384
tp1385
Rp1386
tp1387
a(g32
g6
(g18
S'DK\x82>'
p1388
tp1389
Rp1390
tp1391
a(g44
g6
(g18
S'vM\xb7<'
p1392
tp1393
Rp1394
tp1395
a(g119
g6
(g18
S'+\xa2><'
p1396
tp1397
Rp1398
tp1399
a(g585
g6
(g18
S'\xae\x0b\xc8;'
p1400
tp1401
Rp1402
tp1403
asg73
g15
sa(dp1404
g2
S'../../../data/emanuela/activity-recognition/images/NTCIR-Lifelog-256/u3/2015-07-15/b00000530_21i79q_20150715_171601e.jpg'
p1405
sg4
(lp1406
(g15
g6
(g18
S'\xd2\x8b\xe5>'
p1407
tp1408
Rp1409
tp1410
a(g32
g6
(g18
S'<\xa3\x89>'
p1411
tp1412
Rp1413
tp1414
a(g316
g6
(g18
S'\x12\xb6\xc5='
p1415
tp1416
Rp1417
tp1418
a(g170
g6
(g18
S'\xd2~\xa4='
p1419
tp1420
Rp1421
tp1422
a(g135
g6
(g18
S'\x98\x80<='
p1423
tp1424
Rp1425
tp1426
asg73
g15
sa(dp1427
g2
S'../../../data/emanuela/activity-recognition/images/NTCIR-Lifelog-256/u1/2015-03-02/b00001139_21i6bq_20150302_190044e.jpg'
p1428
sg4
(lp1429
(g119
g6
(g18
S'\xadr\x00?'
p1430
tp1431
Rp1432
tp1433
a(g32
g6
(g18
S'\xcc=x>'
p1434
tp1435
Rp1436
tp1437
a(g15
g6
(g18
S'\xed_\xbe='
p1438
tp1439
Rp1440
tp1441
a(g100
g6
(g18
S'\x0b\xba\x17='
p1442
tp1443
Rp1444
tp1445
a(g44
g6
(g18
S'1\x01\xc0<'
p1446
tp1447
Rp1448
tp1449
asg73
g15
sa(dp1450
g2
S'../../../data/emanuela/activity-recognition/images/NTCIR-Lifelog-256/u2/2015-04-28/b00006281_21i7lf_20150428_084400e.jpg'
p1451
sg4
(lp1452
(g15
g6
(g18
S'\x00\xdaV?'
p1453
tp1454
Rp1455
tp1456
a(g32
g6
(g18
S'\xd4\xea\xdf='
p1457
tp1458
Rp1459
tp1460
a(g44
g6
(g18
S'\xc5\x97\xaa<'
p1461
tp1462
Rp1463
tp1464
a(g68
g6
(g18
S'\xd8\xa8x<'
p1465
tp1466
Rp1467
tp1468
a(g56
g6
(g18
S'\xcb4W;'
p1469
tp1470
Rp1471
tp1472
asg73
g15
sa(dp1473
g2
S'../../../data/emanuela/activity-recognition/images/NTCIR-Lifelog-256/u2/2015-04-20/b00000716_21i7lf_20150420_170658e.jpg'
p1474
sg4
(lp1475
(g15
g6
(g18
S'x\x89#?'
p1476
tp1477
Rp1478
tp1479
a(g32
g6
(g18
S'\x91\xee\x92>'
p1480
tp1481
Rp1482
tp1483
a(g44
g6
(g18
S'\xfaI\xdf<'
p1484
tp1485
Rp1486
tp1487
a(g68
g6
(g18
S'\x18\xd1\xb4<'
p1488
tp1489
Rp1490
tp1491
a(g585
g6
(g18
S',Z\xff;'
p1492
tp1493
Rp1494
tp1495
asg73
g15
sa(dp1496
g2
S'../../../data/emanuela/activity-recognition/images/NTCIR-Lifelog-256/u2/2015-04-23/b00000781_21i7lf_20150423_084353e.jpg'
p1497
sg4
(lp1498
(g15
g6
(g18
S'\xad\xa3#?'
p1499
tp1500
Rp1501
tp1502
a(g32
g6
(g18
S'\x92Z\x8e>'
p1503
tp1504
Rp1505
tp1506
a(g44
g6
(g18
S'Y~\n='
p1507
tp1508
Rp1509
tp1510
a(g119
g6
(g18
S'\xeb\x9b\xcf<'
p1511
tp1512
Rp1513
tp1514
a(g135
g6
(g18
S'\xfcS\xb2;'
p1515
tp1516
Rp1517
tp1518
asg73
g15
sa(dp1519
g2
S'../../../data/emanuela/activity-recognition/images/NTCIR-Lifelog-256/u2/2015-04-22/b00000945_21i7lf_20150422_080539e.jpg'
p1520
sg4
(lp1521
(g15
g6
(g18
S'gGc?'
p1522
tp1523
Rp1524
tp1525
a(g32
g6
(g18
S'\x9dD\xce='
p1526
tp1527
Rp1528
tp1529
a(g44
g6
(g18
S'\xbeN\x86;'
p1530
tp1531
Rp1532
tp1533
a(g68
g6
(g18
S'\x80\xb1y;'
p1534
tp1535
Rp1536
tp1537
a(g119
g6
(g18
S'\x02\xe4\x80:'
p1538
tp1539
Rp1540
tp1541
asg73
g15
sa(dp1542
g2
S'../../../data/emanuela/activity-recognition/images/NTCIR-Lifelog-256/u3/2015-07-12/b00002011_21i79q_20150712_174423e.jpg'
p1543
sg4
(lp1544
(g44
g6
(g18
S'\x92\t\x11?'
p1545
tp1546
Rp1547
tp1548
a(g68
g6
(g18
S'\xbb@M>'
p1549
tp1550
Rp1551
tp1552
a(g15
g6
(g18
S'&\xc81='
p1553
tp1554
Rp1555
tp1556
a(g100
g6
(g18
S'\xe6z\x07='
p1557
tp1558
Rp1559
tp1560
a(g32
g6
(g18
S'\xabM\xd0<'
p1561
tp1562
Rp1563
tp1564
asg73
g15
sa(dp1565
g2
S'../../../data/emanuela/activity-recognition/images/NTCIR-Lifelog-256/u2/2015-04-23/b00000782_21i7lf_20150423_084431e.jpg'
p1566
sg4
(lp1567
(g32
g6
(g18
S'\x00\x14\xe1>'
p1568
tp1569
Rp1570
tp1571
a(g56
g6
(g18
S'\x04\xff\x92>'
p1572
tp1573
Rp1574
tp1575
a(g44
g6
(g18
S']_\t>'
p1576
tp1577
Rp1578
tp1579
a(g15
g6
(g18
S'a\xba6='
p1580
tp1581
Rp1582
tp1583
a(g247
g6
(g18
S'\xd9\x88\n='
p1584
tp1585
Rp1586
tp1587
asg73
g15
sa(dp1588
g2
S'../../../data/emanuela/activity-recognition/images/NTCIR-Lifelog-256/u1/2015-02-24/b00000007_21i6bq_20150224_064436e.jpg'
p1589
sg4
(lp1590
(g170
g6
(g18
S'\xa0\x97\xa1>'
p1591
tp1592
Rp1593
tp1594
a(g15
g6
(g18
S'\xfcW\x8a>'
p1595
tp1596
Rp1597
tp1598
a(g32
g6
(g18
S'\xf23p>'
p1599
tp1600
Rp1601
tp1602
a(g44
g6
(g18
S'\x85\xfd\x92='
p1603
tp1604
Rp1605
tp1606
a(g68
g6
(g18
S'\x96!\x9e<'
p1607
tp1608
Rp1609
tp1610
asg73
g15
sa(dp1611
g2
S'../../../data/emanuela/activity-recognition/images/NTCIR-Lifelog-256/u2/2015-05-05/b00005978_21i7lf_20150505_184800e.jpg'
p1612
sg4
(lp1613
(g119
g6
(g18
S'I\xb6^>'
p1614
tp1615
Rp1616
tp1617
a(g135
g6
(g18
S'{\xd2\x18>'
p1618
tp1619
Rp1620
tp1621
a(g32
g6
(g18
S'\xb0\xda\xfd='
p1622
tp1623
Rp1624
tp1625
a(g44
g6
(g18
S'\x9b\x81\xf7='
p1626
tp1627
Rp1628
tp1629
a(g15
g6
(g18
S'K\x14\xe5='
p1630
tp1631
Rp1632
tp1633
asg73
g15
sa(dp1634
g2
S'../../../data/emanuela/activity-recognition/images/NTCIR-Lifelog-256/u2/2015-04-27/b00004904_21i7lf_20150427_082830e.jpg'
p1635
sg4
(lp1636
(g15
g6
(g18
S'\xdfQm?'
p1637
tp1638
Rp1639
tp1640
a(g32
g6
(g18
S'\xa7\t\x1b='
p1641
tp1642
Rp1643
tp1644
a(g44
g6
(g18
S'\x7fI\x8a<'
p1645
tp1646
Rp1647
tp1648
a(g68
g6
(g18
S'\x0c\x95p<'
p1649
tp1650
Rp1651
tp1652
a(g56
g6
(g18
S'F\x84\xe0:'
p1653
tp1654
Rp1655
tp1656
asg73
g15
sa(dp1657
g2
S'../../../data/emanuela/activity-recognition/images/NTCIR-Lifelog-256/u1/2015-03-13/b00001279_21i6bq_20150313_215726e.jpg'
p1658
sg4
(lp1659
(g15
g6
(g18
S'A\x19\x12?'
p1660
tp1661
Rp1662
tp1663
a(g32
g6
(g18
S'\x184\xa9>'
p1664
tp1665
Rp1666
tp1667
a(g119
g6
(g18
S'\x86\xa8\xfb<'
p1668
tp1669
Rp1670
tp1671
a(g585
g6
(g18
S'\x1ef\x88<'
p1672
tp1673
Rp1674
tp1675
a(g68
g6
(g18
S'"\x08<<'
p1676
tp1677
Rp1678
tp1679
asg73
g15
sa(dp1680
g2
S'../../../data/emanuela/activity-recognition/images/NTCIR-Lifelog-256/u2/2015-05-05/b00005972_21i7lf_20150505_184420e.jpg'
p1681
sg4
(lp1682
(g15
g6
(g18
S'\xc3\xf2n?'
p1683
tp1684
Rp1685
tp1686
a(g44
g6
(g18
S'\x17\xd1G='
p1687
tp1688
Rp1689
tp1690
a(g32
g6
(g18
S'\x0f\xcdt<'
p1691
tp1692
Rp1693
tp1694
a(g68
g6
(g18
S'<\x08\xa9:'
p1695
tp1696
Rp1697
tp1698
a(g119
g6
(g18
S'sj\xe89'
p1699
tp1700
Rp1701
tp1702
asg73
g15
sa(dp1703
g2
S'../../../data/emanuela/activity-recognition/images/NTCIR-Lifelog-256/u2/2015-04-20/b00000711_21i7lf_20150420_170354e.jpg'
p1704
sg4
(lp1705
(g15
g6
(g18
S'\x8a\x9d"?'
p1706
tp1707
Rp1708
tp1709
a(g32
g6
(g18
S'\x13\xb4h>'
p1710
tp1711
Rp1712
tp1713
a(g44
g6
(g18
S'/\xfd\x95='
p1714
tp1715
Rp1716
tp1717
a(g68
g6
(g18
S'\xe2:\xd6<'
p1718
tp1719
Rp1720
tp1721
a(g585
g6
(g18
S'\xa4d4<'
p1722
tp1723
Rp1724
tp1725
asg73
g15
sa(dp1726
g2
S'../../../data/emanuela/activity-recognition/images/NTCIR-Lifelog-256/u3/2015-07-17/b00000691_21i79q_20150717_200548e.jpg'
p1727
sg4
(lp1728
(g170
g6
(g18
S'\xa5\xd8\xf1>'
p1729
tp1730
Rp1731
tp1732
a(g119
g6
(g18
S'\x85\xb2\xc5='
p1733
tp1734
Rp1735
tp1736
a(g316
g6
(g18
S'`\x1d\xc0='
p1737
tp1738
Rp1739
tp1740
a(g135
g6
(g18
S'>|\xa5='
p1741
tp1742
Rp1743
tp1744
a(g44
g6
(g18
S'\xce\xd1-='
p1745
tp1746
Rp1747
tp1748
asg73
g15
sa(dp1749
g2
S'../../../data/emanuela/activity-recognition/images/NTCIR-Lifelog-256/u3/2015-06-18/b00000003_21i79q_20150618_134108e.jpg'
p1750
sg4
(lp1751
(g44
g6
(g18
S'\xe6g\xd8>'
p1752
tp1753
Rp1754
tp1755
a(g15
g6
(g18
S'F\xf7\x98>'
p1756
tp1757
Rp1758
tp1759
a(g32
g6
(g18
S'\xdc\xc5\\>'
p1760
tp1761
Rp1762
tp1763
a(g68
g6
(g18
S'\xe2b\x04='
p1764
tp1765
Rp1766
tp1767
a(g470
g6
(g18
S'\xfb\x8d\x06<'
p1768
tp1769
Rp1770
tp1771
asg73
g15
sa(dp1772
g2
S'../../../data/emanuela/activity-recognition/images/NTCIR-Lifelog-256/u1/2015-03-04/b00000049_21i6bq_20150304_070811e.jpg'
p1773
sg4
(lp1774
(g15
g6
(g18
S'\x98\xde/?'
p1775
tp1776
Rp1777
tp1778
a(g44
g6
(g18
S'\xb3\x13[>'
p1779
tp1780
Rp1781
tp1782
a(g32
g6
(g18
S')\xe5w='
p1783
tp1784
Rp1785
tp1786
a(g68
g6
(g18
S'/\xd6\xd8<'
p1787
tp1788
Rp1789
tp1790
a(g119
g6
(g18
S'\xac\xe7\x96;'
p1791
tp1792
Rp1793
tp1794
asg73
g15
sa(dp1795
g2
S'../../../data/emanuela/activity-recognition/images/NTCIR-Lifelog-256/u2/2015-05-06/b00007247_21i7lf_20150506_192750e.jpg'
p1796
sg4
(lp1797
(g15
g6
(g18
S'(^R?'
p1798
tp1799
Rp1800
tp1801
a(g44
g6
(g18
S'F\x89\x04>'
p1802
tp1803
Rp1804
tp1805
a(g68
g6
(g18
S'&\xa9\x19='
p1806
tp1807
Rp1808
tp1809
a(g32
g6
(g18
S'\xbb\x1a\x00<'
p1810
tp1811
Rp1812
tp1813
a(g247
g6
(g18
S'\x80\xe9\xc3:'
p1814
tp1815
Rp1816
tp1817
asg73
g15
sa(dp1818
g2
S'../../../data/emanuela/activity-recognition/images/NTCIR-Lifelog-256/u3/2015-06-18/b00000004_21i79q_20150618_134138e.jpg'
p1819
sg4
(lp1820
(g15
g6
(g18
S'8d\xe6>'
p1821
tp1822
Rp1823
tp1824
a(g44
g6
(g18
S'\x83|\x9b>'
p1825
tp1826
Rp1827
tp1828
a(g32
g6
(g18
S"\xd4'\x02>"
p1829
tp1830
Rp1831
tp1832
a(g68
g6
(g18
S'\xf4\x14\x0c='
p1833
tp1834
Rp1835
tp1836
a(g119
g6
(g18
S'|(\xa8<'
p1837
tp1838
Rp1839
tp1840
asg73
g15
sa(dp1841
g2
S'../../../data/emanuela/activity-recognition/images/NTCIR-Lifelog-256/u2/2015-05-06/b00007240_21i7lf_20150506_192328e.jpg'
p1842
sg4
(lp1843
(g15
g6
(g18
S'\xfd\x0b\x15?'
p1844
tp1845
Rp1846
tp1847
a(g32
g6
(g18
S'\x10M\xbc>'
p1848
tp1849
Rp1850
tp1851
a(g44
g6
(g18
S'\x9c\xe2\x82<'
p1852
tp1853
Rp1854
tp1855
a(g68
g6
(g18
S'\x18\xaf\x19<'
p1856
tp1857
Rp1858
tp1859
a(g119
g6
(g18
S'\x17\xe2\xc1;'
p1860
tp1861
Rp1862
tp1863
asg73
g15
sa(dp1864
g2
S'../../../data/emanuela/activity-recognition/images/NTCIR-Lifelog-256/u2/2015-04-29/b00000270_21i7lf_20150429_194627e.jpg'
p1865
sg4
(lp1866
(g15
g6
(g18
S'\x0b\xebA?'
p1867
tp1868
Rp1869
tp1870
a(g32
g6
(g18
S'\xfb\xccI>'
p1871
tp1872
Rp1873
tp1874
a(g247
g6
(g18
S'\xe5\xed\x0e='
p1875
tp1876
Rp1877
tp1878
a(g119
g6
(g18
S'\xa8\x86\xb0;'
p1879
tp1880
Rp1881
tp1882
a(g68
g6
(g18
S'}H\xe3:'
p1883
tp1884
Rp1885
tp1886
asg73
g15
sa(dp1887
g2
S'../../../data/emanuela/activity-recognition/images/NTCIR-Lifelog-256/u2/2015-05-05/b00005973_21i7lf_20150505_184453e.jpg'
p1888
sg4
(lp1889
(g15
g6
(g18
S'\xab\x8eh?'
p1890
tp1891
Rp1892
tp1893
a(g44
g6
(g18
S'\xb1cx='
p1894
tp1895
Rp1896
tp1897
a(g32
g6
(g18
S'\xc1T\xb8<'
p1898
tp1899
Rp1900
tp1901
a(g68
g6
(g18
S'\xbb3\x8e;'
p1902
tp1903
Rp1904
tp1905
a(g119
g6
(g18
S'\xbc\xfa\xe4:'
p1906
tp1907
Rp1908
tp1909
asg73
g15
sa(dp1910
g2
S'../../../data/emanuela/activity-recognition/images/NTCIR-Lifelog-256/u3/2015-07-27/b00002233_21i79q_20150727_154054e.jpg'
p1911
sg4
(lp1912
(g15
g6
(g18
S'*\xd2i?'
p1913
tp1914
Rp1915
tp1916
a(g32
g6
(g18
S'\xbf\x95\xaf='
p1917
tp1918
Rp1919
tp1920
a(g119
g6
(g18
S'.z\xce9'
p1921
tp1922
Rp1923
tp1924
a(g68
g6
(g18
S'\xc3_\x119'
p1925
tp1926
Rp1927
tp1928
a(g100
g6
(g18
S'V|\xfc8'
p1929
tp1930
Rp1931
tp1932
asg73
g15
sa(dp1933
g2
S'../../../data/emanuela/activity-recognition/images/NTCIR-Lifelog-256/u3/2015-06-16/b00000352_21i79q_20150616_152934e.jpg'
p1934
sg4
(lp1935
(g15
g6
(g18
S'\xd4\xcd\xde>'
p1936
tp1937
Rp1938
tp1939
a(g44
g6
(g18
S'\xc6i\x98>'
p1940
tp1941
Rp1942
tp1943
a(g32
g6
(g18
S'\xf4\xc2\xfa='
p1944
tp1945
Rp1946
tp1947
a(g68
g6
(g18
S'\xa9\x18\xd9='
p1948
tp1949
Rp1950
tp1951
a(g119
g6
(g18
S'L\x0e\x15<'
p1952
tp1953
Rp1954
tp1955
asg73
g15
sa(dp1956
g2
S'../../../data/emanuela/activity-recognition/images/NTCIR-Lifelog-256/u2/2015-05-06/b00007246_21i7lf_20150506_192715e.jpg'
p1957
sg4
(lp1958
(g15
g6
(g18
S'\xdeU#?'
p1959
tp1960
Rp1961
tp1962
a(g44
g6
(g18
S'\xea\xeeR>'
p1963
tp1964
Rp1965
tp1966
a(g68
g6
(g18
S'=B\n>'
p1967
tp1968
Rp1969
tp1970
a(g32
g6
(g18
S"'\xd8b<"
p1971
tp1972
Rp1973
tp1974
a(g56
g6
(g18
S'\xda\xe99;'
p1975
tp1976
Rp1977
tp1978
asg73
g15
sa.