(lp0
(dp1
S'image'
p2
S'../../../data/emanuela/activity-recognition/images/NTCIR-Lifelog-256/u2/2015-04-28/b00006686_21i7lf_20150428_125444e.jpg'
p3
sS'result'
p4
(lp5
(cnumpy.core.multiarray
scalar
p6
(cnumpy
dtype
p7
(S'S8'
p8
I0
I1
tp9
Rp10
(I3
S'|'
p11
NNNI8
I1
I0
tp12
bS'shopping'
p13
tp14
Rp15
g6
(g7
(S'f4'
p16
I0
I1
tp17
Rp18
(I3
S'<'
p19
NNNI-1
I-1
I0
tp20
bS'\x13Fy?'
p21
tp22
Rp23
tp24
a(g6
(g7
(S'S14'
p25
I0
I1
tp26
Rp27
(I3
S'|'
p28
NNNI14
I1
I0
tp29
bS'walking indoor'
p30
tp31
Rp32
g6
(g18
S'\xbc\xfe\xcc;'
p33
tp34
Rp35
tp36
a(g6
(g7
(S'S19'
p37
I0
I1
tp38
Rp39
(I3
S'|'
p40
NNNI19
I1
I0
tp41
bS'cleaning and chores'
p42
tp43
Rp44
g6
(g18
S'\xf4\xc5h;'
p45
tp46
Rp47
tp48
a(g6
(g7
(S'S24'
p49
I0
I1
tp50
Rp51
(I3
S'|'
p52
NNNI24
I1
I0
tp53
bS'having drinks/meal alone'
p54
tp55
Rp56
g6
(g18
S'\xbajL;'
p57
tp58
Rp59
tp60
a(g6
(g7
(S'S6'
p61
I0
I1
tp62
Rp63
(I3
S'|'
p64
NNNI6
I1
I0
tp65
bS'mobile'
p66
tp67
Rp68
g6
(g18
S'\xe8$";'
p69
tp70
Rp71
tp72
asS'label'
p73
g15
sa(dp74
g2
S'../../../data/emanuela/activity-recognition/images/NTCIR-Lifelog-256/u1/2015-03-16/b00002770_21i6bq_20150316_182534e.jpg'
p75
sg4
(lp76
(g15
g6
(g18
S'\xd7s~?'
p77
tp78
Rp79
tp80
a(g32
g6
(g18
S"\xacu';"
p81
tp82
Rp83
tp84
a(g6
(g7
(S'S27'
p85
I0
I1
tp86
Rp87
(I3
S'|'
p88
NNNI27
I1
I0
tp89
bS'having drinks with somebody'
p90
tp91
Rp92
g6
(g18
S'\xa2\xc0\x94:'
p93
tp94
Rp95
tp96
a(g6
(g7
(S'S25'
p97
I0
I1
tp98
Rp99
(I3
S'|'
p100
NNNI25
I1
I0
tp101
bS'having meal with somebody'
p102
tp103
Rp104
g6
(g18
S'\x0c\x11d:'
p105
tp106
Rp107
tp108
a(g6
(g7
(S'S15'
p109
I0
I1
tp110
Rp111
(I3
S'|'
p112
NNNI15
I1
I0
tp113
bS'walking outdoor'
p114
tp115
Rp116
g6
(g18
S'Up\xb89'
p117
tp118
Rp119
tp120
asg73
g15
sa(dp121
g2
S'../../../data/emanuela/activity-recognition/images/NTCIR-Lifelog-256/u1/2015-03-11/b00000195_21i6bq_20150311_084005e.jpg'
p122
sg4
(lp123
(g6
(g7
(S'S7'
p124
I0
I1
tp125
Rp126
(I3
S'|'
p127
NNNI7
I1
I0
tp128
bS'talking'
p129
tp130
Rp131
g6
(g18
S'\xf18\x8a>'
p132
tp133
Rp134
tp135
a(g92
g6
(g18
S'\x0eoS>'
p136
tp137
Rp138
tp139
a(g6
(g7
(S'S11'
p140
I0
I1
tp141
Rp142
(I3
S'|'
p143
NNNI11
I1
I0
tp144
bS'socializing'
p145
tp146
Rp147
g6
(g18
S'w\x14L>'
p148
tp149
Rp150
tp151
a(g104
g6
(g18
S'\x84\xf4\xda='
p152
tp153
Rp154
tp155
a(g15
g6
(g18
S'Fp\xc1='
p156
tp157
Rp158
tp159
asg73
g15
sa(dp160
g2
S'../../../data/emanuela/activity-recognition/images/NTCIR-Lifelog-256/u1/2015-02-28/b00000226_21i6bq_20150228_080242e.jpg'
p161
sg4
(lp162
(g15
g6
(g18
S'\n\x86=?'
p163
tp164
Rp165
tp166
a(g92
g6
(g18
S'\x0bo\xe0='
p167
tp168
Rp169
tp170
a(g56
g6
(g18
S'\xfc\xeaX='
p171
tp172
Rp173
tp174
a(g104
g6
(g18
S'4\xb7\xea<'
p175
tp176
Rp177
tp178
a(g32
g6
(g18
S'\xd9\xf8\xe3<'
p179
tp180
Rp181
tp182
asg73
g15
sa(dp183
g2
S'../../../data/emanuela/activity-recognition/images/NTCIR-Lifelog-256/u1/2015-03-08/b00000586_21i6bq_20150308_140650e.jpg'
p184
sg4
(lp185
(g15
g6
(g18
S'\xa9\x10.?'
p186
tp187
Rp188
tp189
a(g32
g6
(g18
S't\xa8\x97>'
p190
tp191
Rp192
tp193
a(g116
g6
(g18
S'q\x975<'
p194
tp195
Rp196
tp197
a(g68
g6
(g18
S'\xf5z7;'
p198
tp199
Rp200
tp201
a(g6
(g7
(S'S16'
p202
I0
I1
tp203
Rp204
(I3
S'|'
p205
NNNI16
I1
I0
tp206
bS'public transport'
p207
tp208
Rp209
g6
(g18
S'<\x1f\x1c;'
p210
tp211
Rp212
tp213
asg73
g15
sa(dp214
g2
S'../../../data/emanuela/activity-recognition/images/NTCIR-Lifelog-256/u1/2015-03-15/b00000644_21i6bq_20150315_135356e.jpg'
p215
sg4
(lp216
(g32
g6
(g18
S'\x86>2?'
p217
tp218
Rp219
tp220
a(g116
g6
(g18
S'\x8e\xd3\xf3='
p221
tp222
Rp223
tp224
a(g92
g6
(g18
S'1\xe1U='
p225
tp226
Rp227
tp228
a(g15
g6
(g18
S'\x80\x07G='
p229
tp230
Rp231
tp232
a(g209
g6
(g18
S'\x1f\xe5\xc2<'
p233
tp234
Rp235
tp236
asg73
g15
sa(dp237
g2
S'../../../data/emanuela/activity-recognition/images/NTCIR-Lifelog-256/u2/2015-04-26/b00004134_21i7lf_20150426_153412e.jpg'
p238
sg4
(lp239
(g15
g6
(g18
S'\x98\xe9\x7f?'
p240
tp241
Rp242
tp243
a(g32
g6
(g18
S'\xb8\xee\x7f9'
p244
tp245
Rp246
tp247
a(g104
g6
(g18
S'4}%8'
p248
tp249
Rp250
tp251
a(g92
g6
(g18
S'\xfa\xe4;7'
p252
tp253
Rp254
tp255
a(g56
g6
(g18
S'HC97'
p256
tp257
Rp258
tp259
asg73
g15
sa(dp260
g2
S'../../../data/emanuela/activity-recognition/images/NTCIR-Lifelog-256/u1/2015-03-02/b00000223_21i6bq_20150302_090859e.jpg'
p261
sg4
(lp262
(g92
g6
(g18
S'\x89\xee\x81>'
p263
tp264
Rp265
tp266
a(g56
g6
(g18
S'W\xcbu>'
p267
tp268
Rp269
tp270
a(g147
g6
(g18
S'LZ;>'
p271
tp272
Rp273
tp274
a(g15
g6
(g18
S'\x10b\xce='
p275
tp276
Rp277
tp278
a(g32
g6
(g18
S'\xa2"\xcb='
p279
tp280
Rp281
tp282
asg73
g15
sa(dp283
g2
S'../../../data/emanuela/activity-recognition/images/NTCIR-Lifelog-256/u3/2015-07-29/b00004561_21i79q_20150729_195342e.jpg'
p284
sg4
(lp285
(g15
g6
(g18
S'\x1cz|?'
p286
tp287
Rp288
tp289
a(g32
g6
(g18
S'\xf7{^;'
p290
tp291
Rp292
tp293
a(g116
g6
(g18
S'\xf2\x9a>;'
p294
tp295
Rp296
tp297
a(g104
g6
(g18
S'\xb1\x86\x17;'
p298
tp299
Rp300
tp301
a(g147
g6
(g18
S'\x1c?\xe0:'
p302
tp303
Rp304
tp305
asg73
g15
sa(dp306
g2
S'../../../data/emanuela/activity-recognition/images/NTCIR-Lifelog-256/u2/2015-04-24/b00002830_21i7lf_20150424_205849e.jpg'
p307
sg4
(lp308
(g32
g6
(g18
S"'~b?"
p309
tp310
Rp311
tp312
a(g15
g6
(g18
S'\x80\xeb\xa7='
p313
tp314
Rp315
tp316
a(g44
g6
(g18
S'&\xe9T<'
p317
tp318
Rp319
tp320
a(g116
g6
(g18
S'\xca/\x84;'
p321
tp322
Rp323
tp324
a(g68
g6
(g18
S'\xcfhq;'
p325
tp326
Rp327
tp328
asg73
g15
sa(dp329
g2
S'../../../data/emanuela/activity-recognition/images/NTCIR-Lifelog-256/u1/2015-02-28/b00000553_21i6bq_20150228_113318e.jpg'
p330
sg4
(lp331
(g15
g6
(g18
S'\x08\xffW?'
p332
tp333
Rp334
tp335
a(g32
g6
(g18
S'oyv='
p336
tp337
Rp338
tp339
a(g116
g6
(g18
S'\\\xb3t='
p340
tp341
Rp342
tp343
a(g104
g6
(g18
S'\xef_C<'
p344
tp345
Rp346
tp347
a(g56
g6
(g18
S'\xc2\xc3\xb4;'
p348
tp349
Rp350
tp351
asg73
g15
sa(dp352
g2
S'../../../data/emanuela/activity-recognition/images/NTCIR-Lifelog-256/u2/2015-05-08/b00008689_21i7lf_20150508_092737e.jpg'
p353
sg4
(lp354
(g32
g6
(g18
S'\x1e6??'
p355
tp356
Rp357
tp358
a(g147
g6
(g18
S'\xb5\x0c\xd0='
p359
tp360
Rp361
tp362
a(g56
g6
(g18
S't\x1c+='
p363
tp364
Rp365
tp366
a(g15
g6
(g18
S'G\xdb\x06='
p367
tp368
Rp369
tp370
a(g6
(g7
(S'S19'
p371
I0
I1
tp372
Rp373
(I3
S'|'
p374
NNNI19
I1
I0
tp375
bS'attending a seminar'
p376
tp377
Rp378
g6
(g18
S't\xfa\xc2<'
p379
tp380
Rp381
tp382
asg73
g15
sa(dp383
g2
S'../../../data/emanuela/activity-recognition/images/NTCIR-Lifelog-256/u1/2015-03-05/b00001153_21i6bq_20150305_192115e.jpg'
p384
sg4
(lp385
(g15
g6
(g18
S'm\x13q?'
p386
tp387
Rp388
tp389
a(g32
g6
(g18
S'\x8c\xf04='
p390
tp391
Rp392
tp393
a(g116
g6
(g18
S'\x03(\x1e<'
p394
tp395
Rp396
tp397
a(g68
g6
(g18
S'n.\x86:'
p398
tp399
Rp400
tp401
a(g104
g6
(g18
S'\xb5O@:'
p402
tp403
Rp404
tp405
asg73
g15
sa(dp406
g2
S'../../../data/emanuela/activity-recognition/images/NTCIR-Lifelog-256/u1/2015-03-16/b00003131_21i6bq_20150316_213204e.jpg'
p407
sg4
(lp408
(g15
g6
(g18
S'\x13\x1d\xd9>'
p409
tp410
Rp411
tp412
a(g6
(g7
(S'S7'
p413
I0
I1
tp414
Rp415
(I3
S'|'
p416
NNNI7
I1
I0
tp417
bS'working'
p418
tp419
Rp420
g6
(g18
S'(\xaaS>'
p421
tp422
Rp423
tp424
a(g56
g6
(g18
S'\xaa \x94='
p425
tp426
Rp427
tp428
a(g68
g6
(g18
S'\x94\xd9\x90='
p429
tp430
Rp431
tp432
a(g32
g6
(g18
S'FtA='
p433
tp434
Rp435
tp436
asg73
g15
sa(dp437
g2
S'../../../data/emanuela/activity-recognition/images/NTCIR-Lifelog-256/u3/2015-06-15/b00000109_21i79q_20150615_094235e.jpg'
p438
sg4
(lp439
(g15
g6
(g18
S'zj{?'
p440
tp441
Rp442
tp443
a(g32
g6
(g18
S'\x84cp<'
p444
tp445
Rp446
tp447
a(g56
g6
(g18
S'\x8fEh:'
p448
tp449
Rp450
tp451
a(g116
g6
(g18
S'\xea\xfd-:'
p452
tp453
Rp454
tp455
a(g68
g6
(g18
S'@\xc6\x08:'
p456
tp457
Rp458
tp459
asg73
g15
sa(dp460
g2
S'../../../data/emanuela/activity-recognition/images/NTCIR-Lifelog-256/u2/2015-05-08/b00008990_21i7lf_20150508_123153e.jpg'
p461
sg4
(lp462
(g15
g6
(g18
S'\xea\x91q?'
p463
tp464
Rp465
tp466
a(g32
g6
(g18
S'\x0c\xf1S='
p467
tp468
Rp469
tp470
a(g104
g6
(g18
S'5\x8ft:'
p471
tp472
Rp473
tp474
a(g68
g6
(g18
S'\xd6\xfe]:'
p475
tp476
Rp477
tp478
a(g116
g6
(g18
S'\x12\x16Z:'
p479
tp480
Rp481
tp482
asg73
g15
sa(dp483
g2
S'../../../data/emanuela/activity-recognition/images/NTCIR-Lifelog-256/u1/2015-03-05/b00001152_21i6bq_20150305_192036e.jpg'
p484
sg4
(lp485
(g15
g6
(g18
S'y\xe4K?'
p486
tp487
Rp488
tp489
a(g116
g6
(g18
S'\x12\xc6\x95='
p490
tp491
Rp492
tp493
a(g56
g6
(g18
S'\x80B\x07='
p494
tp495
Rp496
tp497
a(g92
g6
(g18
S'\x9cd\x06='
p498
tp499
Rp500
tp501
a(g32
g6
(g18
S'\x82_\xd7<'
p502
tp503
Rp504
tp505
asg73
g15
sa(dp506
g2
S'../../../data/emanuela/activity-recognition/images/NTCIR-Lifelog-256/u1/2015-03-14/b00000541_21i6bq_20150314_113250e.jpg'
p507
sg4
(lp508
(g15
g6
(g18
S'\xe3p\xc5>'
p509
tp510
Rp511
tp512
a(g209
g6
(g18
S'sXc>'
p513
tp514
Rp515
tp516
a(g104
g6
(g18
S'\xf2\xce\xed='
p517
tp518
Rp519
tp520
a(g92
g6
(g18
S'c\\\xb2='
p521
tp522
Rp523
tp524
a(g147
g6
(g18
S'\xcf\xa4\x81='
p525
tp526
Rp527
tp528
asg73
g15
sa(dp529
g2
S'../../../data/emanuela/activity-recognition/images/NTCIR-Lifelog-256/u3/2015-07-29/b00004026_21i79q_20150729_141947e.jpg'
p530
sg4
(lp531
(g15
g6
(g18
S'h\x95y?'
p532
tp533
Rp534
tp535
a(g56
g6
(g18
S'\xa6!\xa7;'
p536
tp537
Rp538
tp539
a(g32
g6
(g18
S'\x9ev\xa1;'
p540
tp541
Rp542
tp543
a(g378
g6
(g18
S'3\x98\x9e;'
p544
tp545
Rp546
tp547
a(g6
(g7
(S'S7'
p548
I0
I1
tp549
Rp550
(I3
S'|'
p551
NNNI7
I1
I0
tp552
bS'reading'
p553
tp554
Rp555
g6
(g18
S'\xedj2;'
p556
tp557
Rp558
tp559
asg73
g15
sa(dp560
g2
S'../../../data/emanuela/activity-recognition/images/NTCIR-Lifelog-256/u3/2015-07-29/b00004568_21i79q_20150729_195756e.jpg'
p561
sg4
(lp562
(g15
g6
(g18
S'Y\xe7w?'
p563
tp564
Rp565
tp566
a(g32
g6
(g18
S'??\xca<'
p567
tp568
Rp569
tp570
a(g116
g6
(g18
S'\xfdm\xed:'
p571
tp572
Rp573
tp574
a(g147
g6
(g18
S'\x1c\xf3T:'
p575
tp576
Rp577
tp578
a(g378
g6
(g18
S'a\xb9Q:'
p579
tp580
Rp581
tp582
asg73
g15
sa(dp583
g2
S'../../../data/emanuela/activity-recognition/images/NTCIR-Lifelog-256/u3/2015-07-29/b00004027_21i79q_20150729_142021e.jpg'
p584
sg4
(lp585
(g15
g6
(g18
S'\x8d\xc7~?'
p586
tp587
Rp588
tp589
a(g92
g6
(g18
S'\x96$\xa8:'
p590
tp591
Rp592
tp593
a(g32
g6
(g18
S'\xfd\xd7\x87:'
p594
tp595
Rp596
tp597
a(g104
g6
(g18
S'\x7fH6:'
p598
tp599
Rp600
tp601
a(g56
g6
(g18
S'\xf0\x80$:'
p602
tp603
Rp604
tp605
asg73
g15
sa(dp606
g2
S'../../../data/emanuela/activity-recognition/images/NTCIR-Lifelog-256/u3/2015-07-17/b00000524_21i79q_20150717_181946e.jpg'
p607
sg4
(lp608
(g15
g6
(g18
S'\xc0ku?'
p609
tp610
Rp611
tp612
a(g32
g6
(g18
S'\x96\xdf\x9c<'
p613
tp614
Rp615
tp616
a(g209
g6
(g18
S'\x94\xd6\xd8;'
p617
tp618
Rp619
tp620
a(g92
g6
(g18
S'\xc1\x94;;'
p621
tp622
Rp623
tp624
a(g104
g6
(g18
S'\x90\r,;'
p625
tp626
Rp627
tp628
asg73
g15
sa(dp629
g2
S'../../../data/emanuela/activity-recognition/images/NTCIR-Lifelog-256/u2/2015-04-22/b00001337_21i7lf_20150422_121124e.jpg'
p630
sg4
(lp631
(g15
g6
(g18
S'\xc9/{?'
p632
tp633
Rp634
tp635
a(g56
g6
(g18
S'\xf0\x10\xe9;'
p636
tp637
Rp638
tp639
a(g32
g6
(g18
S'QL\x9b;'
p640
tp641
Rp642
tp643
a(g104
g6
(g18
S"\xcd\xdf';"
p644
tp645
Rp646
tp647
a(g92
g6
(g18
S'l\x7f\xb6:'
p648
tp649
Rp650
tp651
asg73
g15
sa(dp652
g2
S'../../../data/emanuela/activity-recognition/images/NTCIR-Lifelog-256/u1/2015-02-28/b00000544_21i6bq_20150228_112742e.jpg'
p653
sg4
(lp654
(g15
g6
(g18
S'\xb4s\t?'
p655
tp656
Rp657
tp658
a(g32
g6
(g18
S'\xad&\xbf>'
p659
tp660
Rp661
tp662
a(g116
g6
(g18
S'Mlq='
p663
tp664
Rp665
tp666
a(g92
g6
(g18
S'\x85\xb3\xb0;'
p667
tp668
Rp669
tp670
a(g104
g6
(g18
S'\xf5\xa7l;'
p671
tp672
Rp673
tp674
asg73
g15
sa(dp675
g2
S'../../../data/emanuela/activity-recognition/images/NTCIR-Lifelog-256/u1/2015-02-28/b00000518_21i6bq_20150228_111036e.jpg'
p676
sg4
(lp677
(g116
g6
(g18
S'N~\x02?'
p678
tp679
Rp680
tp681
a(g32
g6
(g18
S'\xac\xf1\xa7>'
p682
tp683
Rp684
tp685
a(g15
g6
(g18
S'\xd0\xc9\xc4='
p686
tp687
Rp688
tp689
a(g68
g6
(g18
S'\xe8\xb0\xf1<'
p690
tp691
Rp692
tp693
a(g209
g6
(g18
S'\xa6\xd6j<'
p694
tp695
Rp696
tp697
asg73
g15
sa(dp698
g2
S'../../../data/emanuela/activity-recognition/images/NTCIR-Lifelog-256/u1/2015-03-07/b00000560_21i6bq_20150307_120401e.jpg'
p699
sg4
(lp700
(g15
g6
(g18
S'\x029l?'
p701
tp702
Rp703
tp704
a(g32
g6
(g18
S'\xf1~2='
p705
tp706
Rp707
tp708
a(g116
g6
(g18
S'8t\xe7;'
p709
tp710
Rp711
tp712
a(g147
g6
(g18
S'B\x0e\xde;'
p713
tp714
Rp715
tp716
a(g68
g6
(g18
S'\xc7\xd9\xbc;'
p717
tp718
Rp719
tp720
asg73
g15
sa(dp721
g2
S'../../../data/emanuela/activity-recognition/images/NTCIR-Lifelog-256/u2/2015-05-06/b00007028_21i7lf_20150506_165814e.jpg'
p722
sg4
(lp723
(g92
g6
(g18
S',\xb2\xb8>'
p724
tp725
Rp726
tp727
a(g15
g6
(g18
S'\xd1\xd6`>'
p728
tp729
Rp730
tp731
a(g56
g6
(g18
S'\x1b\x06\x11>'
p732
tp733
Rp734
tp735
a(g147
g6
(g18
S'\xdc\xde\xd8='
p736
tp737
Rp738
tp739
a(g32
g6
(g18
S'\x08\x85\x10='
p740
tp741
Rp742
tp743
asg73
g15
sa(dp744
g2
S'../../../data/emanuela/activity-recognition/images/NTCIR-Lifelog-256/u3/2015-08-01/b00006311_21i79q_20150801_142200e.jpg'
p745
sg4
(lp746
(g15
g6
(g18
S'\xc8F~?'
p747
tp748
Rp749
tp750
a(g116
g6
(g18
S'\xd0\xa3B;'
p751
tp752
Rp753
tp754
a(g32
g6
(g18
S'\x03W@;'
p755
tp756
Rp757
tp758
a(g68
g6
(g18
S'\xc2_\xcf9'
p759
tp760
Rp761
tp762
a(g56
g6
(g18
S'\xad>\xd48'
p763
tp764
Rp765
tp766
asg73
g15
sa(dp767
g2
S'../../../data/emanuela/activity-recognition/images/NTCIR-Lifelog-256/u3/2015-07-29/b00004055_21i79q_20150729_143652e.jpg'
p768
sg4
(lp769
(g15
g6
(g18
S'|#\xc6>'
p770
tp771
Rp772
tp773
a(g104
g6
(g18
S'Bk\x83>'
p774
tp775
Rp776
tp777
a(g92
g6
(g18
S'\xb8R\x10>'
p778
tp779
Rp780
tp781
a(g32
g6
(g18
S'H\xdd\x84='
p782
tp783
Rp784
tp785
a(g209
g6
(g18
S'\xe3Y4='
p786
tp787
Rp788
tp789
asg73
g15
sa(dp790
g2
S'../../../data/emanuela/activity-recognition/images/NTCIR-Lifelog-256/u3/2015-07-15/b00000254_21i79q_20150715_142815e.jpg'
p791
sg4
(lp792
(g15
g6
(g18
S'\xd4F\x7f?'
p793
tp794
Rp795
tp796
a(g32
g6
(g18
S'\r\xfc\x86:'
p797
tp798
Rp799
tp800
a(g56
g6
(g18
S'\x8d\xbf]:'
p801
tp802
Rp803
tp804
a(g116
g6
(g18
S'~\t1:'
p805
tp806
Rp807
tp808
a(g104
g6
(g18
S'Iq99'
p809
tp810
Rp811
tp812
asg73
g15
sa(dp813
g2
S'../../../data/emanuela/activity-recognition/images/NTCIR-Lifelog-256/u2/2015-06-17/b00002347_21i7lf_20150617_125239e.jpg'
p814
sg4
(lp815
(g104
g6
(g18
S'`\x15\xc4>'
p816
tp817
Rp818
tp819
a(g131
g6
(g18
S'\x97\xbb[>'
p820
tp821
Rp822
tp823
a(g15
g6
(g18
S'h\xebB>'
p824
tp825
Rp826
tp827
a(g147
g6
(g18
S'*\t\xc6='
p828
tp829
Rp830
tp831
a(g92
g6
(g18
S'\xdd6\xe7<'
p832
tp833
Rp834
tp835
asg73
g15
sa(dp836
g2
S'../../../data/emanuela/activity-recognition/images/NTCIR-Lifelog-256/u1/2015-03-16/b00003129_21i6bq_20150316_213155e.jpg'
p837
sg4
(lp838
(g56
g6
(g18
S'4\xb2\xa1>'
p839
tp840
Rp841
tp842
a(g555
g6
(g18
S')\xa6\xe2='
p843
tp844
Rp845
tp846
a(g92
g6
(g18
S'[\xe1\xaa='
p847
tp848
Rp849
tp850
a(g6
(g7
(S'S7'
p851
I0
I1
tp852
Rp853
(I3
S'|'
p854
NNNI7
I1
I0
tp855
bS'cooking'
p856
tp857
Rp858
g6
(g18
S',\xcc\x97='
p859
tp860
Rp861
tp862
a(g147
g6
(g18
S'2\x84\x81='
p863
tp864
Rp865
tp866
asg73
g15
sa(dp867
g2
S'../../../data/emanuela/activity-recognition/images/NTCIR-Lifelog-256/u3/2015-07-29/b00004010_21i79q_20150729_140859e.jpg'
p868
sg4
(lp869
(g15
g6
(g18
S'S~c?'
p870
tp871
Rp872
tp873
a(g32
g6
(g18
S'\xab\xba\x8d='
p874
tp875
Rp876
tp877
a(g92
g6
(g18
S'im5<'
p878
tp879
Rp880
tp881
a(g147
g6
(g18
S'\x01\xa0\xc0;'
p882
tp883
Rp884
tp885
a(g56
g6
(g18
S'\x88\xe0\x86;'
p886
tp887
Rp888
tp889
asg73
g15
sa(dp890
g2
S'../../../data/emanuela/activity-recognition/images/NTCIR-Lifelog-256/u1/2015-03-10/b00000690_21i6bq_20150310_204320e.jpg'
p891
sg4
(lp892
(g15
g6
(g18
S'\x89r\xc7>'
p893
tp894
Rp895
tp896
a(g56
g6
(g18
S'\xe0R\x04>'
p897
tp898
Rp899
tp900
a(g555
g6
(g18
S'&\xbd\xec='
p901
tp902
Rp903
tp904
a(g104
g6
(g18
S'\xbbl\xb9='
p905
tp906
Rp907
tp908
a(g68
g6
(g18
S'\xd38\x9a='
p909
tp910
Rp911
tp912
asg73
g15
sa(dp913
g2
S'../../../data/emanuela/activity-recognition/images/NTCIR-Lifelog-256/u1/2015-03-14/b00000297_21i6bq_20150314_090652e.jpg'
p914
sg4
(lp915
(g15
g6
(g18
S'j\xa1i?'
p916
tp917
Rp918
tp919
a(g858
g6
(g18
S'\x08\x05\xfa<'
p920
tp921
Rp922
tp923
a(g44
g6
(g18
S'\xcb\x90\xdb<'
p924
tp925
Rp926
tp927
a(g56
g6
(g18
S'{\xb6\x01<'
p928
tp929
Rp930
tp931
a(g32
g6
(g18
S'\x88\xb1\xef;'
p932
tp933
Rp934
tp935
asg73
g15
sa(dp936
g2
S'../../../data/emanuela/activity-recognition/images/NTCIR-Lifelog-256/u2/2015-04-21/b00000320_21i7lf_20150421_130923e.jpg'
p937
sg4
(lp938
(g15
g6
(g18
S'>9:?'
p939
tp940
Rp941
tp942
a(g104
g6
(g18
S'\xa1\xbb\x0f>'
p943
tp944
Rp945
tp946
a(g92
g6
(g18
S'\xe31v='
p947
tp948
Rp949
tp950
a(g147
g6
(g18
S'\x86\x17\xd6<'
p951
tp952
Rp953
tp954
a(g131
g6
(g18
S'\xc4b\xac<'
p955
tp956
Rp957
tp958
asg73
g15
sa(dp959
g2
S'../../../data/emanuela/activity-recognition/images/NTCIR-Lifelog-256/u3/2015-06-15/b00000148_21i79q_20150615_100603e.jpg'
p960
sg4
(lp961
(g15
g6
(g18
S'hL~?'
p962
tp963
Rp964
tp965
a(g32
g6
(g18
S'\n\x1e\x9c;'
p966
tp967
Rp968
tp969
a(g116
g6
(g18
S'\xfb\xd6A:'
p970
tp971
Rp972
tp973
a(g92
g6
(g18
S'l\x00\xb99'
p974
tp975
Rp976
tp977
a(g209
g6
(g18
S'@\xf2{9'
p978
tp979
Rp980
tp981
asg73
g15
sa(dp982
g2
S'../../../data/emanuela/activity-recognition/images/NTCIR-Lifelog-256/u2/2015-04-27/b00004973_21i7lf_20150427_090646e.jpg'
p983
sg4
(lp984
(g68
g6
(g18
S'te\xbe>'
p985
tp986
Rp987
tp988
a(g56
g6
(g18
S'+4\x97>'
p989
tp990
Rp991
tp992
a(g147
g6
(g18
S's5\x9b='
p993
tp994
Rp995
tp996
a(g420
g6
(g18
S'\xdbae='
p997
tp998
Rp999
tp1000
a(g92
g6
(g18
S'h\xa7\x13='
p1001
tp1002
Rp1003
tp1004
asg73
g15
sa(dp1005
g2
S'../../../data/emanuela/activity-recognition/images/NTCIR-Lifelog-256/u3/2015-06-15/b00000122_21i79q_20150615_095018e.jpg'
p1006
sg4
(lp1007
(g116
g6
(g18
S'\x12|\x98>'
p1008
tp1009
Rp1010
tp1011
a(g15
g6
(g18
S'\x9b7\x93>'
p1012
tp1013
Rp1014
tp1015
a(g56
g6
(g18
S"M'\xc3="
p1016
tp1017
Rp1018
tp1019
a(g6
(g7
(S'S7'
p1020
I0
I1
tp1021
Rp1022
(I3
S'|'
p1023
NNNI7
I1
I0
tp1024
bS'driving'
p1025
tp1026
Rp1027
g6
(g18
S'[H\x90='
p1028
tp1029
Rp1030
tp1031
a(g92
g6
(g18
S'Nj\x84='
p1032
tp1033
Rp1034
tp1035
asg73
g15
sa(dp1036
g2
S'../../../data/emanuela/activity-recognition/images/NTCIR-Lifelog-256/u2/2015-05-03/b00003995_21i7lf_20150503_165733e.jpg'
p1037
sg4
(lp1038
(g15
g6
(g18
S'\xe0\xbbW?'
p1039
tp1040
Rp1041
tp1042
a(g32
g6
(g18
S'\xc18\xea='
p1043
tp1044
Rp1045
tp1046
a(g116
g6
(g18
S'\xce+\x0f='
p1047
tp1048
Rp1049
tp1050
a(g68
g6
(g18
S'\xe0\xa9\xa8;'
p1051
tp1052
Rp1053
tp1054
a(g209
g6
(g18
S"'\xa9\x84:"
p1055
tp1056
Rp1057
tp1058
asg73
g15
sa(dp1059
g2
S'../../../data/emanuela/activity-recognition/images/NTCIR-Lifelog-256/u1/2015-03-05/b00001160_21i6bq_20150305_192534e.jpg'
p1060
sg4
(lp1061
(g32
g6
(g18
S'?\x1d\xf5>'
p1062
tp1063
Rp1064
tp1065
a(g92
g6
(g18
S'L\x91\x1f>'
p1066
tp1067
Rp1068
tp1069
a(g15
g6
(g18
S'\xc3&\xf5='
p1070
tp1071
Rp1072
tp1073
a(g378
g6
(g18
S'\xab\xc1\xcc='
p1074
tp1075
Rp1076
tp1077
a(g116
g6
(g18
S'\xe4CA='
p1078
tp1079
Rp1080
tp1081
asg73
g15
sa(dp1082
g2
S'../../../data/emanuela/activity-recognition/images/NTCIR-Lifelog-256/u1/2015-03-07/b00000424_21i6bq_20150307_112425e.jpg'
p1083
sg4
(lp1084
(g15
g6
(g18
S'\xc8\x9f\x13?'
p1085
tp1086
Rp1087
tp1088
a(g32
g6
(g18
S'\xff\x9ah>'
p1089
tp1090
Rp1091
tp1092
a(g104
g6
(g18
S'v3>='
p1093
tp1094
Rp1095
tp1096
a(g116
g6
(g18
S'\xd1.#='
p1097
tp1098
Rp1099
tp1100
a(g44
g6
(g18
S'\x9fr\xd9<'
p1101
tp1102
Rp1103
tp1104
asg73
g15
sa(dp1105
g2
S'../../../data/emanuela/activity-recognition/images/NTCIR-Lifelog-256/u1/2015-03-14/b00000292_21i6bq_20150314_090346e.jpg'
p1106
sg4
(lp1107
(g32
g6
(g18
S'\x9e\x99I?'
p1108
tp1109
Rp1110
tp1111
a(g15
g6
(g18
S'\xb2\xd8P>'
p1112
tp1113
Rp1114
tp1115
a(g68
g6
(g18
S';\xf4\xd4:'
p1116
tp1117
Rp1118
tp1119
a(g116
g6
(g18
S'\x13\xf9\xd3:'
p1120
tp1121
Rp1122
tp1123
a(g92
g6
(g18
S'\x9a\xb7\x96:'
p1124
tp1125
Rp1126
tp1127
asg73
g15
sa(dp1128
g2
S'../../../data/emanuela/activity-recognition/images/NTCIR-Lifelog-256/u3/2015-07-13/b00002952_21i79q_20150713_200819e.jpg'
p1129
sg4
(lp1130
(g15
g6
(g18
S'}\xcbW?'
p1131
tp1132
Rp1133
tp1134
a(g131
g6
(g18
S'\xdcM\x82='
p1135
tp1136
Rp1137
tp1138
a(g32
g6
(g18
S'$\x96\x81='
p1139
tp1140
Rp1141
tp1142
a(g6
(g7
(S'S7'
p1143
I0
I1
tp1144
Rp1145
(I3
S'|'
p1146
NNNI7
I1
I0
tp1147
bS'meeting'
p1148
tp1149
Rp1150
g6
(g18
S'u\x08t<'
p1151
tp1152
Rp1153
tp1154
a(g92
g6
(g18
S'\x83\xcfi;'
p1155
tp1156
Rp1157
tp1158
asg73
g15
sa(dp1159
g2
S'../../../data/emanuela/activity-recognition/images/NTCIR-Lifelog-256/u2/2015-05-01/b00002107_21i7lf_20150501_122805e.jpg'
p1160
sg4
(lp1161
(g92
g6
(g18
S'm\xb7\xa1>'
p1162
tp1163
Rp1164
tp1165
a(g147
g6
(g18
S'OPG>'
p1166
tp1167
Rp1168
tp1169
a(g131
g6
(g18
S'8\xde\x1c>'
p1170
tp1171
Rp1172
tp1173
a(g104
g6
(g18
S'`\x83\xd8='
p1174
tp1175
Rp1176
tp1177
a(g15
g6
(g18
S'\x17\x16\x92='
p1178
tp1179
Rp1180
tp1181
asg73
g15
sa(dp1182
g2
S'../../../data/emanuela/activity-recognition/images/NTCIR-Lifelog-256/u1/2015-03-05/b00000593_21i6bq_20150305_123816e.jpg'
p1183
sg4
(lp1184
(g15
g6
(g18
S'\x8f\x96\xd7>'
p1185
tp1186
Rp1187
tp1188
a(g32
g6
(g18
S'\xee"=>'
p1189
tp1190
Rp1191
tp1192
a(g147
g6
(g18
S'm5\xa8='
p1193
tp1194
Rp1195
tp1196
a(g92
g6
(g18
S'\xa0\xa4\x9c='
p1197
tp1198
Rp1199
tp1200
a(g56
g6
(g18
S'\x1a\xc8M='
p1201
tp1202
Rp1203
tp1204
asg73
g15
sa(dp1205
g2
S'../../../data/emanuela/activity-recognition/images/NTCIR-Lifelog-256/u1/2015-03-07/b00000495_21i6bq_20150307_114118e.jpg'
p1206
sg4
(lp1207
(g56
g6
(g18
S'Xo\xdf>'
p1208
tp1209
Rp1210
tp1211
a(g15
g6
(g18
S'\xfb\x8eN>'
p1212
tp1213
Rp1214
tp1215
a(g92
g6
(g18
S'Y\xd98>'
p1216
tp1217
Rp1218
tp1219
a(g32
g6
(g18
S'gPb='
p1220
tp1221
Rp1222
tp1223
a(g147
g6
(g18
S"\\Q'="
p1224
tp1225
Rp1226
tp1227
asg73
g15
sa(dp1228
g2
S'../../../data/emanuela/activity-recognition/images/NTCIR-Lifelog-256/u3/2015-07-17/b00000521_21i79q_20150717_181755e.jpg'
p1229
sg4
(lp1230
(g15
g6
(g18
S'\x16\xbcK?'
p1231
tp1232
Rp1233
tp1234
a(g32
g6
(g18
S'+\xd1\xc4='
p1235
tp1236
Rp1237
tp1238
a(g131
g6
(g18
S'\x92s\x03='
p1239
tp1240
Rp1241
tp1242
a(g92
g6
(g18
S'\x9fy\x01='
p1243
tp1244
Rp1245
tp1246
a(g104
g6
(g18
S'\xa5C&<'
p1247
tp1248
Rp1249
tp1250
asg73
g15
sa(dp1251
g2
S'../../../data/emanuela/activity-recognition/images/NTCIR-Lifelog-256/u2/2015-06-18/b00002807_21i7lf_20150618_120953e.jpg'
p1252
sg4
(lp1253
(g15
g6
(g18
S'\x1d\xed\x7f?'
p1254
tp1255
Rp1256
tp1257
a(g32
g6
(g18
S'\xd5\x94\x8f9'
p1258
tp1259
Rp1260
tp1261
a(g116
g6
(g18
S'\xdaw\x117'
p1262
tp1263
Rp1264
tp1265
a(g68
g6
(g18
S'\xe1\xcb(6'
p1266
tp1267
Rp1268
tp1269
a(g104
g6
(g18
S',\xa4|5'
p1270
tp1271
Rp1272
tp1273
asg73
g15
sa(dp1274
g2
S'../../../data/emanuela/activity-recognition/images/NTCIR-Lifelog-256/u1/2015-03-07/b00000445_21i6bq_20150307_113244e.jpg'
p1275
sg4
(lp1276
(g15
g6
(g18
S'\xe2w\x19?'
p1277
tp1278
Rp1279
tp1280
a(g56
g6
(g18
S'\x15\x8c\xe3='
p1281
tp1282
Rp1283
tp1284
a(g32
g6
(g18
S'\x97\xeas='
p1285
tp1286
Rp1287
tp1288
a(g104
g6
(g18
S'\x19qe='
p1289
tp1290
Rp1291
tp1292
a(g92
g6
(g18
S'\xbbAK='
p1293
tp1294
Rp1295
tp1296
asg73
g15
sa(dp1297
g2
S'../../../data/emanuela/activity-recognition/images/NTCIR-Lifelog-256/u3/2015-07-11/b00001611_21i79q_20150711_223345e.jpg'
p1298
sg4
(lp1299
(g15
g6
(g18
S'\x91{~?'
p1300
tp1301
Rp1302
tp1303
a(g32
g6
(g18
S'\x80\xb8\xe6:'
p1304
tp1305
Rp1306
tp1307
a(g116
g6
(g18
S'\x05\x06\xe2:'
p1308
tp1309
Rp1310
tp1311
a(g104
g6
(g18
S'\x08\xe9\x1e:'
p1312
tp1313
Rp1314
tp1315
a(g56
g6
(g18
S'}\xb0\x12:'
p1316
tp1317
Rp1318
tp1319
asg73
g15
sa(dp1320
g2
S'../../../data/emanuela/activity-recognition/images/NTCIR-Lifelog-256/u3/2015-07-28/b00002842_21i79q_20150728_122421e.jpg'
p1321
sg4
(lp1322
(g56
g6
(g18
S'v[\xc0>'
p1323
tp1324
Rp1325
tp1326
a(g92
g6
(g18
S'\x9dTw>'
p1327
tp1328
Rp1329
tp1330
a(g32
g6
(g18
S'\x8f\xc7\xb1='
p1331
tp1332
Rp1333
tp1334
a(g104
g6
(g18
S'\xdcf\x94='
p1335
tp1336
Rp1337
tp1338
a(g15
g6
(g18
S'\xf9J\x90='
p1339
tp1340
Rp1341
tp1342
asg73
g15
sa(dp1343
g2
S'../../../data/emanuela/activity-recognition/images/NTCIR-Lifelog-256/u3/2015-07-12/b00001708_21i79q_20150712_144046e.jpg'
p1344
sg4
(lp1345
(g15
g6
(g18
S'\x06vw?'
p1346
tp1347
Rp1348
tp1349
a(g32
g6
(g18
S'\x94<n<'
p1350
tp1351
Rp1352
tp1353
a(g858
g6
(g18
S'\x8c#;<'
p1354
tp1355
Rp1356
tp1357
a(g44
g6
(g18
S'\x15\xcb\r;'
p1358
tp1359
Rp1360
tp1361
a(g116
g6
(g18
S'\x0b\xe7\xdf:'
p1362
tp1363
Rp1364
tp1365
asg73
g15
sa(dp1366
g2
S'../../../data/emanuela/activity-recognition/images/NTCIR-Lifelog-256/u2/2015-04-21/b00000318_21i7lf_20150421_130815e.jpg'
p1367
sg4
(lp1368
(g15
g6
(g18
S'\x9d\xd5s?'
p1369
tp1370
Rp1371
tp1372
a(g32
g6
(g18
S'\xf2\xe7\x13='
p1373
tp1374
Rp1375
tp1376
a(g104
g6
(g18
S'Xs\xbc;'
p1377
tp1378
Rp1379
tp1380
a(g56
g6
(g18
S'@\x0b\x10;'
p1381
tp1382
Rp1383
tp1384
a(g92
g6
(g18
S'\x96\x84\xd6:'
p1385
tp1386
Rp1387
tp1388
asg73
g15
sa(dp1389
g2
S'../../../data/emanuela/activity-recognition/images/NTCIR-Lifelog-256/u1/2015-02-23/b00000646_21i6bq_20150223_135003e.jpg'
p1390
sg4
(lp1391
(g15
g6
(g18
S'\x01*q?'
p1392
tp1393
Rp1394
tp1395
a(g56
g6
(g18
S'\xb1\xf6\x8a<'
p1396
tp1397
Rp1398
tp1399
a(g32
g6
(g18
S'?Vz<'
p1400
tp1401
Rp1402
tp1403
a(g104
g6
(g18
S'\x9f\xa3U<'
p1404
tp1405
Rp1406
tp1407
a(g858
g6
(g18
S'i\xe2\xa0;'
p1408
tp1409
Rp1410
tp1411
asg73
g15
sa(dp1412
g2
S'../../../data/emanuela/activity-recognition/images/NTCIR-Lifelog-256/u3/2015-07-28/b00003894_21i79q_20150728_232648e.jpg'
p1413
sg4
(lp1414
(g56
g6
(g18
S'\x96\n\x11?'
p1415
tp1416
Rp1417
tp1418
a(g15
g6
(g18
S'\x16\xab\x80>'
p1419
tp1420
Rp1421
tp1422
a(g104
g6
(g18
S'\xba1\xf8='
p1423
tp1424
Rp1425
tp1426
a(g92
g6
(g18
S'c0-='
p1427
tp1428
Rp1429
tp1430
a(g858
g6
(g18
S'\xbe\xc1\xbd;'
p1431
tp1432
Rp1433
tp1434
asg73
g15
sa(dp1435
g2
S'../../../data/emanuela/activity-recognition/images/NTCIR-Lifelog-256/u1/2015-03-07/b00000502_21i6bq_20150307_114204e.jpg'
p1436
sg4
(lp1437
(g15
g6
(g18
S'l\x90:?'
p1438
tp1439
Rp1440
tp1441
a(g32
g6
(g18
S'B\xa0\xf2='
p1442
tp1443
Rp1444
tp1445
a(g147
g6
(g18
S'\xb8)\x12='
p1446
tp1447
Rp1448
tp1449
a(g378
g6
(g18
S'\x92\xdf\x0f='
p1450
tp1451
Rp1452
tp1453
a(g92
g6
(g18
S'\xb2\x0c\xd1<'
p1454
tp1455
Rp1456
tp1457
asg73
g15
sa(dp1458
g2
S'../../../data/emanuela/activity-recognition/images/NTCIR-Lifelog-256/u3/2015-06-15/b00000113_21i79q_20150615_094504e.jpg'
p1459
sg4
(lp1460
(g15
g6
(g18
S'Hr\xc0>'
p1461
tp1462
Rp1463
tp1464
a(g92
g6
(g18
S'**.>'
p1465
tp1466
Rp1467
tp1468
a(g56
g6
(g18
S'\xa8(\xef='
p1469
tp1470
Rp1471
tp1472
a(g32
g6
(g18
S'\x9d7\xa4='
p1473
tp1474
Rp1475
tp1476
a(g147
g6
(g18
S'\x91\xb2\x98='
p1477
tp1478
Rp1479
tp1480
asg73
g15
sa(dp1481
g2
S'../../../data/emanuela/activity-recognition/images/NTCIR-Lifelog-256/u1/2015-03-07/b00000530_21i6bq_20150307_115647e.jpg'
p1482
sg4
(lp1483
(g32
g6
(g18
S'\xc7\xc5\x93>'
p1484
tp1485
Rp1486
tp1487
a(g147
g6
(g18
S'P;\x82>'
p1488
tp1489
Rp1490
tp1491
a(g56
g6
(g18
S'\xe1c\xd7='
p1492
tp1493
Rp1494
tp1495
a(g15
g6
(g18
S'(\x84\xd0='
p1496
tp1497
Rp1498
tp1499
a(g92
g6
(g18
S'_\xf1\x8e='
p1500
tp1501
Rp1502
tp1503
asg73
g15
sa(dp1504
g2
S'../../../data/emanuela/activity-recognition/images/NTCIR-Lifelog-256/u3/2015-06-15/b00000149_21i79q_20150615_100644e.jpg'
p1505
sg4
(lp1506
(g104
g6
(g18
S"\x1b\x9d'?"
p1507
tp1508
Rp1509
tp1510
a(g15
g6
(g18
S'\xcd\x8eR>'
p1511
tp1512
Rp1513
tp1514
a(g858
g6
(g18
S'\xc1\xc9\x92='
p1515
tp1516
Rp1517
tp1518
a(g56
g6
(g18
S' \xe4:='
p1519
tp1520
Rp1521
tp1522
a(g44
g6
(g18
S'\x9b\x89\x88<'
p1523
tp1524
Rp1525
tp1526
asg73
g15
sa(dp1527
g2
S'../../../data/emanuela/activity-recognition/images/NTCIR-Lifelog-256/u1/2015-03-14/b00000516_21i6bq_20150314_111734e.jpg'
p1528
sg4
(lp1529
(g116
g6
(g18
S'%\x00+?'
p1530
tp1531
Rp1532
tp1533
a(g32
g6
(g18
S'\xcda\x80>'
p1534
tp1535
Rp1536
tp1537
a(g15
g6
(g18
S'\xcbB\x86='
p1538
tp1539
Rp1540
tp1541
a(g68
g6
(g18
S'Vr\x06<'
p1542
tp1543
Rp1544
tp1545
a(g209
g6
(g18
S'\xc8^\xe4:'
p1546
tp1547
Rp1548
tp1549
asg73
g15
sa(dp1550
g2
S'../../../data/emanuela/activity-recognition/images/NTCIR-Lifelog-256/u1/2015-02-25/b00000616_21i6bq_20150225_121819e.jpg'
p1551
sg4
(lp1552
(g15
g6
(g18
S'\xbe\xb8\x15?'
p1553
tp1554
Rp1555
tp1556
a(g32
g6
(g18
S'\xa6h}>'
p1557
tp1558
Rp1559
tp1560
a(g131
g6
(g18
S'0\xaf\x82='
p1561
tp1562
Rp1563
tp1564
a(g104
g6
(g18
S'\x12\x8dD='
p1565
tp1566
Rp1567
tp1568
a(g147
g6
(g18
S'S\x05\x9b<'
p1569
tp1570
Rp1571
tp1572
asg73
g15
sa(dp1573
g2
S'../../../data/emanuela/activity-recognition/images/NTCIR-Lifelog-256/u3/2015-08-01/b00006269_21i79q_20150801_135559e.jpg'
p1574
sg4
(lp1575
(g15
g6
(g18
S'{\xa70?'
p1576
tp1577
Rp1578
tp1579
a(g131
g6
(g18
S'i"\xca='
p1580
tp1581
Rp1582
tp1583
a(g92
g6
(g18
S'^&\xbc='
p1584
tp1585
Rp1586
tp1587
a(g32
g6
(g18
S'}mU='
p1588
tp1589
Rp1590
tp1591
a(g147
g6
(g18
S'A\x99\xb6<'
p1592
tp1593
Rp1594
tp1595
asg73
g15
sa(dp1596
g2
S'../../../data/emanuela/activity-recognition/images/NTCIR-Lifelog-256/u1/2015-03-14/b00000481_21i6bq_20150314_105526e.jpg'
p1597
sg4
(lp1598
(g15
g6
(g18
S'.\xe5Q?'
p1599
tp1600
Rp1601
tp1602
a(g32
g6
(g18
S'{4\x1c>'
p1603
tp1604
Rp1605
tp1606
a(g56
g6
(g18
S'PD\xfe;'
p1607
tp1608
Rp1609
tp1610
a(g92
g6
(g18
S"'\x92\xa1;"
p1611
tp1612
Rp1613
tp1614
a(g104
g6
(g18
S'\xd9h>;'
p1615
tp1616
Rp1617
tp1618
asg73
g15
sa(dp1619
g2
S'../../../data/emanuela/activity-recognition/images/NTCIR-Lifelog-256/u1/2015-03-07/b00000439_21i6bq_20150307_113151e.jpg'
p1620
sg4
(lp1621
(g15
g6
(g18
S'\x142N?'
p1622
tp1623
Rp1624
tp1625
a(g32
g6
(g18
S'B\xa9&>'
p1626
tp1627
Rp1628
tp1629
a(g116
g6
(g18
S'X\xfb\x95<'
p1630
tp1631
Rp1632
tp1633
a(g68
g6
(g18
S'*\x81\x9c;'
p1634
tp1635
Rp1636
tp1637
a(g104
g6
(g18
S'\xef\xe76;'
p1638
tp1639
Rp1640
tp1641
asg73
g15
sa(dp1642
g2
S'../../../data/emanuela/activity-recognition/images/NTCIR-Lifelog-256/u1/2015-03-14/b00000296_21i6bq_20150314_090618e.jpg'
p1643
sg4
(lp1644
(g15
g6
(g18
S'\xd0)\x7f?'
p1645
tp1646
Rp1647
tp1648
a(g32
g6
(g18
S'\x83pX:'
p1649
tp1650
Rp1651
tp1652
a(g56
g6
(g18
S'){V:'
p1653
tp1654
Rp1655
tp1656
a(g858
g6
(g18
S' \x10D:'
p1657
tp1658
Rp1659
tp1660
a(g104
g6
(g18
S'G\xb7\xe29'
p1661
tp1662
Rp1663
tp1664
asg73
g15
sa(dp1665
g2
S'../../../data/emanuela/activity-recognition/images/NTCIR-Lifelog-256/u3/2015-08-01/b00006260_21i79q_20150801_135034e.jpg'
p1666
sg4
(lp1667
(g15
g6
(g18
S'\n\xb5}?'
p1668
tp1669
Rp1670
tp1671
a(g104
g6
(g18
S'\xff\\_;'
p1672
tp1673
Rp1674
tp1675
a(g92
g6
(g18
S'\x0b9\xf8:'
p1676
tp1677
Rp1678
tp1679
a(g32
g6
(g18
S'\x9a\x96\xf4:'
p1680
tp1681
Rp1682
tp1683
a(g56
g6
(g18
S'\xeb\xf7;:'
p1684
tp1685
Rp1686
tp1687
asg73
g15
sa(dp1688
g2
S'../../../data/emanuela/activity-recognition/images/NTCIR-Lifelog-256/u3/2015-06-18/b00000663_21i79q_20150618_194048e.jpg'
p1689
sg4
(lp1690
(g15
g6
(g18
S'\xea\nx?'
p1691
tp1692
Rp1693
tp1694
a(g32
g6
(g18
S'\xd8\xb7\xcb<'
p1695
tp1696
Rp1697
tp1698
a(g116
g6
(g18
S'\xd5\xad\xce:'
p1699
tp1700
Rp1701
tp1702
a(g68
g6
(g18
S'\xd3\x8b\x9c:'
p1703
tp1704
Rp1705
tp1706
a(g858
g6
(g18
S'=\xfc\x84:'
p1707
tp1708
Rp1709
tp1710
asg73
g15
sa(dp1711
g2
S'../../../data/emanuela/activity-recognition/images/NTCIR-Lifelog-256/u2/2015-04-28/b00006648_21i7lf_20150428_123110e.jpg'
p1712
sg4
(lp1713
(g15
g6
(g18
S'\xffXx?'
p1714
tp1715
Rp1716
tp1717
a(g104
g6
(g18
S'9\xb6\x1e<'
p1718
tp1719
Rp1720
tp1721
a(g32
g6
(g18
S'`>\xa8;'
p1722
tp1723
Rp1724
tp1725
a(g56
g6
(g18
S'\x8f\x04\x88;'
p1726
tp1727
Rp1728
tp1729
a(g555
g6
(g18
S'\xa8\xdd\x06;'
p1730
tp1731
Rp1732
tp1733
asg73
g15
sa(dp1734
g2
S'../../../data/emanuela/activity-recognition/images/NTCIR-Lifelog-256/u1/2015-03-07/b00000420_21i6bq_20150307_112423e.jpg'
p1735
sg4
(lp1736
(g92
g6
(g18
S'c\x808?'
p1737
tp1738
Rp1739
tp1740
a(g104
g6
(g18
S'\xc5\xc7\xaf='
p1741
tp1742
Rp1743
tp1744
a(g15
g6
(g18
S'\x81ex='
p1745
tp1746
Rp1747
tp1748
a(g147
g6
(g18
S'Y\xa1\x17='
p1749
tp1750
Rp1751
tp1752
a(g858
g6
(g18
S'\xf1-\x02='
p1753
tp1754
Rp1755
tp1756
asg73
g15
sa(dp1757
g2
S'../../../data/emanuela/activity-recognition/images/NTCIR-Lifelog-256/u1/2015-03-14/b00000289_21i6bq_20150314_090152e.jpg'
p1758
sg4
(lp1759
(g15
g6
(g18
S'\xc9H3?'
p1760
tp1761
Rp1762
tp1763
a(g858
g6
(g18
S'\x17\xc7*>'
p1764
tp1765
Rp1766
tp1767
a(g104
g6
(g18
S'\x99\x1a%='
p1768
tp1769
Rp1770
tp1771
a(g92
g6
(g18
S'\xef\x1a"='
p1772
tp1773
Rp1774
tp1775
a(g44
g6
(g18
S'\xe7\x16\x1c='
p1776
tp1777
Rp1778
tp1779
asg73
g15
sa(dp1780
g2
S'../../../data/emanuela/activity-recognition/images/NTCIR-Lifelog-256/u2/2015-06-21/b00005053_21i7lf_20150621_121916e.jpg'
p1781
sg4
(lp1782
(g15
g6
(g18
S'\xe6\xcaN?'
p1783
tp1784
Rp1785
tp1786
a(g104
g6
(g18
S'\x96\x14\x92='
p1787
tp1788
Rp1789
tp1790
a(g56
g6
(g18
S'1"v='
p1791
tp1792
Rp1793
tp1794
a(g92
g6
(g18
S'}R\x93<'
p1795
tp1796
Rp1797
tp1798
a(g32
g6
(g18
S'p\xad\x8c<'
p1799
tp1800
Rp1801
tp1802
asg73
g15
sa(dp1803
g2
S'../../../data/emanuela/activity-recognition/images/NTCIR-Lifelog-256/u1/2015-02-28/b00000496_21i6bq_20150228_105443e.jpg'
p1804
sg4
(lp1805
(g15
g6
(g18
S'\xee\xce}?'
p1806
tp1807
Rp1808
tp1809
a(g32
g6
(g18
S'\x94F\xec;'
p1810
tp1811
Rp1812
tp1813
a(g116
g6
(g18
S'\xbc\xb4\x03:'
p1814
tp1815
Rp1816
tp1817
a(g68
g6
(g18
S'\x9e\x07z9'
p1818
tp1819
Rp1820
tp1821
a(g56
g6
(g18
S'\xc8\x9d\xdf8'
p1822
tp1823
Rp1824
tp1825
asg73
g15
sa(dp1826
g2
S'../../../data/emanuela/activity-recognition/images/NTCIR-Lifelog-256/u2/2015-04-24/b00002828_21i7lf_20150424_205728e.jpg'
p1827
sg4
(lp1828
(g15
g6
(g18
S'\x95#}?'
p1829
tp1830
Rp1831
tp1832
a(g32
g6
(g18
S'.\x1e <'
p1833
tp1834
Rp1835
tp1836
a(g104
g6
(g18
S'\xad\x85\xf79'
p1837
tp1838
Rp1839
tp1840
a(g92
g6
(g18
S's\xe4\xb39'
p1841
tp1842
Rp1843
tp1844
a(g56
g6
(g18
S'\xa3\x19H9'
p1845
tp1846
Rp1847
tp1848
asg73
g15
sa(dp1849
g2
S'../../../data/emanuela/activity-recognition/images/NTCIR-Lifelog-256/u1/2015-02-28/b00000548_21i6bq_20150228_113011e.jpg'
p1850
sg4
(lp1851
(g32
g6
(g18
S's\x06\xf5>'
p1852
tp1853
Rp1854
tp1855
a(g116
g6
(g18
S':>\x9f>'
p1856
tp1857
Rp1858
tp1859
a(g15
g6
(g18
S'\x10\xe24>'
p1860
tp1861
Rp1862
tp1863
a(g131
g6
(g18
S'0,\xd6;'
p1864
tp1865
Rp1866
tp1867
a(g68
g6
(g18
S'\xec\xbd\xb2;'
p1868
tp1869
Rp1870
tp1871
asg73
g15
sa(dp1872
g2
S'../../../data/emanuela/activity-recognition/images/NTCIR-Lifelog-256/u1/2015-03-16/b00003121_21i6bq_20150316_213059e.jpg'
p1873
sg4
(lp1874
(g15
g6
(g18
S'L\x17A?'
p1875
tp1876
Rp1877
tp1878
a(g32
g6
(g18
S'\xa1\x1e\n>'
p1879
tp1880
Rp1881
tp1882
a(g92
g6
(g18
S'/H\x03='
p1883
tp1884
Rp1885
tp1886
a(g858
g6
(g18
S'\x00b\xe8<'
p1887
tp1888
Rp1889
tp1890
a(g44
g6
(g18
S'\xf2\x845<'
p1891
tp1892
Rp1893
tp1894
asg73
g15
sa(dp1895
g2
S'../../../data/emanuela/activity-recognition/images/NTCIR-Lifelog-256/u1/2015-03-10/b00000686_21i6bq_20150310_204054e.jpg'
p1896
sg4
(lp1897
(g15
g6
(g18
S'r\xbb~?'
p1898
tp1899
Rp1900
tp1901
a(g32
g6
(g18
S'\xcd\xbb\x11;'
p1902
tp1903
Rp1904
tp1905
a(g92
g6
(g18
S'\xa6\xff\x81:'
p1906
tp1907
Rp1908
tp1909
a(g56
g6
(g18
S'\xf2#\xbe9'
p1910
tp1911
Rp1912
tp1913
a(g858
g6
(g18
S'\xc4H\x9d9'
p1914
tp1915
Rp1916
tp1917
asg73
g15
sa(dp1918
g2
S'../../../data/emanuela/activity-recognition/images/NTCIR-Lifelog-256/u2/2015-06-21/b00004692_21i7lf_20150621_080725e.jpg'
p1919
sg4
(lp1920
(g92
g6
(g18
S':\x1d`?'
p1921
tp1922
Rp1923
tp1924
a(g147
g6
(g18
S'\xb7\xbf>='
p1925
tp1926
Rp1927
tp1928
a(g15
g6
(g18
S'\x04R\xd0<'
p1929
tp1930
Rp1931
tp1932
a(g131
g6
(g18
S'\x1b\x0c\xc0<'
p1933
tp1934
Rp1935
tp1936
a(g104
g6
(g18
S'\x93\x9c%<'
p1937
tp1938
Rp1939
tp1940
asg73
g15
sa(dp1941
g2
S'../../../data/emanuela/activity-recognition/images/NTCIR-Lifelog-256/u3/2015-06-15/b00000111_21i79q_20150615_094345e.jpg'
p1942
sg4
(lp1943
(g92
g6
(g18
S'\xc9\xc0\xd6>'
p1944
tp1945
Rp1946
tp1947
a(g32
g6
(g18
S'^\xb0}>'
p1948
tp1949
Rp1950
tp1951
a(g15
g6
(g18
S'.\xd3\xd8='
p1952
tp1953
Rp1954
tp1955
a(g147
g6
(g18
S'u~\xb1='
p1956
tp1957
Rp1958
tp1959
a(g56
g6
(g18
S'\r\xc7\xfa<'
p1960
tp1961
Rp1962
tp1963
asg73
g15
sa(dp1964
g2
S'../../../data/emanuela/activity-recognition/images/NTCIR-Lifelog-256/u1/2015-03-15/b00000597_21i6bq_20150315_133258e.jpg'
p1965
sg4
(lp1966
(g15
g6
(g18
S't\xfb;?'
p1967
tp1968
Rp1969
tp1970
a(g32
g6
(g18
S'\x90\xf5g>'
p1971
tp1972
Rp1973
tp1974
a(g68
g6
(g18
S'?x*<'
p1975
tp1976
Rp1977
tp1978
a(g56
g6
(g18
S'&\xdf"<'
p1979
tp1980
Rp1981
tp1982
a(g116
g6
(g18
S'Ww\xb8;'
p1983
tp1984
Rp1985
tp1986
asg73
g15
sa(dp1987
g2
S'../../../data/emanuela/activity-recognition/images/NTCIR-Lifelog-256/u2/2015-04-30/b00001011_21i7lf_20150430_130546e.jpg'
p1988
sg4
(lp1989
(g15
g6
(g18
S'Q\x1a\xec>'
p1990
tp1991
Rp1992
tp1993
a(g56
g6
(g18
S'*\xaep>'
p1994
tp1995
Rp1996
tp1997
a(g32
g6
(g18
S'\xa7t\xc3='
p1998
tp1999
Rp2000
tp2001
a(g104
g6
(g18
S'\x82G\x9b='
p2002
tp2003
Rp2004
tp2005
a(g92
g6
(g18
S'\xd9\xd4D='
p2006
tp2007
Rp2008
tp2009
asg73
g15
sa(dp2010
g2
S'../../../data/emanuela/activity-recognition/images/NTCIR-Lifelog-256/u2/2015-05-03/b00004007_21i7lf_20150503_170458e.jpg'
p2011
sg4
(lp2012
(g15
g6
(g18
S'\xd9\xf1\x7f?'
p2013
tp2014
Rp2015
tp2016
a(g32
g6
(g18
S'\xf1H\x029'
p2017
tp2018
Rp2019
tp2020
a(g116
g6
(g18
S'R\x89\xfe7'
p2021
tp2022
Rp2023
tp2024
a(g858
g6
(g18
S'\xd0<\x987'
p2025
tp2026
Rp2027
tp2028
a(g104
g6
(g18
S'F\xe5 7'
p2029
tp2030
Rp2031
tp2032
asg73
g15
sa(dp2033
g2
S'../../../data/emanuela/activity-recognition/images/NTCIR-Lifelog-256/u3/2015-06-15/b00000128_21i79q_20150615_095355e.jpg'
p2034
sg4
(lp2035
(g15
g6
(g18
S'\xdd\xf5-?'
p2036
tp2037
Rp2038
tp2039
a(g32
g6
(g18
S'N\x99\x9a='
p2040
tp2041
Rp2042
tp2043
a(g104
g6
(g18
S'\xd4\xa99='
p2044
tp2045
Rp2046
tp2047
a(g92
g6
(g18
S'\xe1\x85&='
p2048
tp2049
Rp2050
tp2051
a(g147
g6
(g18
S'#\xcf\x16='
p2052
tp2053
Rp2054
tp2055
asg73
g15
sa(dp2056
g2
S'../../../data/emanuela/activity-recognition/images/NTCIR-Lifelog-256/u3/2015-06-15/b00000110_21i79q_20150615_094309e.jpg'
p2057
sg4
(lp2058
(g32
g6
(g18
S'\xfa)\xe1>'
p2059
tp2060
Rp2061
tp2062
a(g15
g6
(g18
S'\x8bD\x9c>'
p2063
tp2064
Rp2065
tp2066
a(g116
g6
(g18
S'\xear\x98='
p2067
tp2068
Rp2069
tp2070
a(g131
g6
(g18
S'\xf9\xda?='
p2071
tp2072
Rp2073
tp2074
a(g92
g6
(g18
S'\xe3W\n='
p2075
tp2076
Rp2077
tp2078
asg73
g15
sa(dp2079
g2
S'../../../data/emanuela/activity-recognition/images/NTCIR-Lifelog-256/u2/2015-04-24/b00002328_21i7lf_20150424_131537e.jpg'
p2080
sg4
(lp2081
(g15
g6
(g18
S'\x8f\xbey?'
p2082
tp2083
Rp2084
tp2085
a(g32
g6
(g18
S'\xe0V\x99<'
p2086
tp2087
Rp2088
tp2089
a(g56
g6
(g18
S'\xc0\xcb\n;'
p2090
tp2091
Rp2092
tp2093
a(g68
g6
(g18
S'\x88V\x8a:'
p2094
tp2095
Rp2096
tp2097
a(g104
g6
(g18
S'Z\x118:'
p2098
tp2099
Rp2100
tp2101
asg73
g15
sa(dp2102
g2
S'../../../data/emanuela/activity-recognition/images/NTCIR-Lifelog-256/u1/2015-03-19/b00001852_21i6bq_20150319_095615e.jpg'
p2103
sg4
(lp2104
(g15
g6
(g18
S'\xfc\x03@?'
p2105
tp2106
Rp2107
tp2108
a(g92
g6
(g18
S'\xff\x1d\xff='
p2109
tp2110
Rp2111
tp2112
a(g104
g6
(g18
S'\xfeZ\x18='
p2113
tp2114
Rp2115
tp2116
a(g32
g6
(g18
S'<\xe7\xff<'
p2117
tp2118
Rp2119
tp2120
a(g56
g6
(g18
S'\x9bg\x8f<'
p2121
tp2122
Rp2123
tp2124
asg73
g15
sa(dp2125
g2
S'../../../data/emanuela/activity-recognition/images/NTCIR-Lifelog-256/u3/2015-08-01/b00006285_21i79q_20150801_140559e.jpg'
p2126
sg4
(lp2127
(g15
g6
(g18
S'\xd3!r?'
p2128
tp2129
Rp2130
tp2131
a(g116
g6
(g18
S'D\x80\xd5<'
p2132
tp2133
Rp2134
tp2135
a(g32
g6
(g18
S'\xb8\xd2G<'
p2136
tp2137
Rp2138
tp2139
a(g56
g6
(g18
S'v\xd4\xe7;'
p2140
tp2141
Rp2142
tp2143
a(g68
g6
(g18
S'4\xaaJ;'
p2144
tp2145
Rp2146
tp2147
asg73
g15
sa(dp2148
g2
S'../../../data/emanuela/activity-recognition/images/NTCIR-Lifelog-256/u3/2015-06-15/b00000157_21i79q_20150615_101142e.jpg'
p2149
sg4
(lp2150
(g15
g6
(g18
S'\xccP{?'
p2151
tp2152
Rp2153
tp2154
a(g104
g6
(g18
S'\xd9}$<'
p2155
tp2156
Rp2157
tp2158
a(g92
g6
(g18
S'$\x07\x0c;'
p2159
tp2160
Rp2161
tp2162
a(g147
g6
(g18
S'E\xdc\x05;'
p2163
tp2164
Rp2165
tp2166
a(g32
g6
(g18
S'#\xa5\x91:'
p2167
tp2168
Rp2169
tp2170
asg73
g15
sa(dp2171
g2
S'../../../data/emanuela/activity-recognition/images/NTCIR-Lifelog-256/u1/2015-03-15/b00000614_21i6bq_20150315_133914e.jpg'
p2172
sg4
(lp2173
(g15
g6
(g18
S'\xd7/u?'
p2174
tp2175
Rp2176
tp2177
a(g32
g6
(g18
S'\x158$='
p2178
tp2179
Rp2180
tp2181
a(g116
g6
(g18
S'\xa1\x1b3:'
p2182
tp2183
Rp2184
tp2185
a(g104
g6
(g18
S'\xdc\xf2\xea9'
p2186
tp2187
Rp2188
tp2189
a(g68
g6
(g18
S'\x9b\xb2\x949'
p2190
tp2191
Rp2192
tp2193
asg73
g15
sa(dp2194
g2
S'../../../data/emanuela/activity-recognition/images/NTCIR-Lifelog-256/u2/2015-04-21/b00000125_21i7lf_20150421_110404e.jpg'
p2195
sg4
(lp2196
(g147
g6
(g18
S'0\x96\xb2>'
p2197
tp2198
Rp2199
tp2200
a(g68
g6
(g18
S'o\x91\x9b>'
p2201
tp2202
Rp2203
tp2204
a(g92
g6
(g18
S'y\xdb\xc1='
p2205
tp2206
Rp2207
tp2208
a(g32
g6
(g18
S'J2\x91='
p2209
tp2210
Rp2211
tp2212
a(g104
g6
(g18
S'\x9d\x930='
p2213
tp2214
Rp2215
tp2216
asg73
g15
sa(dp2217
g2
S'../../../data/emanuela/activity-recognition/images/NTCIR-Lifelog-256/u3/2015-07-29/b00004569_21i79q_20150729_195827e.jpg'
p2218
sg4
(lp2219
(g15
g6
(g18
S'\xde\xa2T?'
p2220
tp2221
Rp2222
tp2223
a(g32
g6
(g18
S'\xda\xc9\xa3='
p2224
tp2225
Rp2226
tp2227
a(g131
g6
(g18
S'\xe0\xd0\x03='
p2228
tp2229
Rp2230
tp2231
a(g147
g6
(g18
S'\xe2W\x8d<'
p2232
tp2233
Rp2234
tp2235
a(g92
g6
(g18
S'\x90\x05\x81<'
p2236
tp2237
Rp2238
tp2239
asg73
g15
sa(dp2240
g2
S'../../../data/emanuela/activity-recognition/images/NTCIR-Lifelog-256/u3/2015-07-15/b00000271_21i79q_20150715_143903e.jpg'
p2241
sg4
(lp2242
(g15
g6
(g18
S'\xc0\xb5s?'
p2243
tp2244
Rp2245
tp2246
a(g858
g6
(g18
S'\xd5\x1e\x97<'
p2247
tp2248
Rp2249
tp2250
a(g32
g6
(g18
S'8\x03\x11<'
p2251
tp2252
Rp2253
tp2254
a(g56
g6
(g18
S'\x86\xd6\x0f<'
p2255
tp2256
Rp2257
tp2258
a(g116
g6
(g18
S'\t]q;'
p2259
tp2260
Rp2261
tp2262
asg73
g15
sa(dp2263
g2
S'../../../data/emanuela/activity-recognition/images/NTCIR-Lifelog-256/u1/2015-03-16/b00002766_21i6bq_20150316_182528e.jpg'
p2264
sg4
(lp2265
(g15
g6
(g18
S'\xd6\xd3~?'
p2266
tp2267
Rp2268
tp2269
a(g32
g6
(g18
S'=U^;'
p2270
tp2271
Rp2272
tp2273
a(g92
g6
(g18
S'\xb1\x8e\xc39'
p2274
tp2275
Rp2276
tp2277
a(g104
g6
(g18
S'Gd\x8d9'
p2278
tp2279
Rp2280
tp2281
a(g56
g6
(g18
S'{\x89u9'
p2282
tp2283
Rp2284
tp2285
asg73
g15
sa(dp2286
g2
S'../../../data/emanuela/activity-recognition/images/NTCIR-Lifelog-256/u1/2015-03-07/b00000429_21i6bq_20150307_112703e.jpg'
p2287
sg4
(lp2288
(g32
g6
(g18
S'\xc3R\xaa>'
p2289
tp2290
Rp2291
tp2292
a(g15
g6
(g18
S'\x1dh\xa0>'
p2293
tp2294
Rp2295
tp2296
a(g116
g6
(g18
S'\xf6^\x03>'
p2297
tp2298
Rp2299
tp2300
a(g858
g6
(g18
S'\xf3\x8c\x81='
p2301
tp2302
Rp2303
tp2304
a(g92
g6
(g18
S'\x80\xa3=='
p2305
tp2306
Rp2307
tp2308
asg73
g15
sa(dp2309
g2
S'../../../data/emanuela/activity-recognition/images/NTCIR-Lifelog-256/u3/2015-07-29/b00004566_21i79q_20150729_195644e.jpg'
p2310
sg4
(lp2311
(g32
g6
(g18
S'9Q\xdd>'
p2312
tp2313
Rp2314
tp2315
a(g116
g6
(g18
S'\xdeK\xa6>'
p2316
tp2317
Rp2318
tp2319
a(g15
g6
(g18
S'.\x19\xdc='
p2320
tp2321
Rp2322
tp2323
a(g131
g6
(g18
S'\xc8\xb3y='
p2324
tp2325
Rp2326
tp2327
a(g209
g6
(g18
S'\xcfy\xf1<'
p2328
tp2329
Rp2330
tp2331
asg73
g15
sa(dp2332
g2
S'../../../data/emanuela/activity-recognition/images/NTCIR-Lifelog-256/u2/2015-06-17/b00002349_21i7lf_20150617_125406e.jpg'
p2333
sg4
(lp2334
(g147
g6
(g18
S'\xf9\t\xb1>'
p2335
tp2336
Rp2337
tp2338
a(g209
g6
(g18
S'e\xc8a>'
p2339
tp2340
Rp2341
tp2342
a(g92
g6
(g18
S'\x848\x12>'
p2343
tp2344
Rp2345
tp2346
a(g15
g6
(g18
S':l\xbc='
p2347
tp2348
Rp2349
tp2350
a(g131
g6
(g18
S'\x10\xce\x8b='
p2351
tp2352
Rp2353
tp2354
asg73
g15
sa(dp2355
g2
S'../../../data/emanuela/activity-recognition/images/NTCIR-Lifelog-256/u1/2015-03-07/b00000494_21i6bq_20150307_114116e.jpg'
p2356
sg4
(lp2357
(g15
g6
(g18
S'`\xc3\xdd>'
p2358
tp2359
Rp2360
tp2361
a(g92
g6
(g18
S'\x9b3\x95>'
p2362
tp2363
Rp2364
tp2365
a(g56
g6
(g18
S'd4)>'
p2366
tp2367
Rp2368
tp2369
a(g147
g6
(g18
S'\xa2~\x19='
p2370
tp2371
Rp2372
tp2373
a(g104
g6
(g18
S'\x1c\x92\n='
p2374
tp2375
Rp2376
tp2377
asg73
g15
sa(dp2378
g2
S'../../../data/emanuela/activity-recognition/images/NTCIR-Lifelog-256/u1/2015-03-11/b00001156_21i6bq_20150311_193324e.jpg'
p2379
sg4
(lp2380
(g56
g6
(g18
S'\xa39\xac>'
p2381
tp2382
Rp2383
tp2384
a(g32
g6
(g18
S'\xa8\xees>'
p2385
tp2386
Rp2387
tp2388
a(g92
g6
(g18
S'\x06\x1d\xfa='
p2389
tp2390
Rp2391
tp2392
a(g378
g6
(g18
S'\x1e\x8a\xd8='
p2393
tp2394
Rp2395
tp2396
a(g15
g6
(g18
S'x\xad\xb7='
p2397
tp2398
Rp2399
tp2400
asg73
g15
sa(dp2401
g2
S'../../../data/emanuela/activity-recognition/images/NTCIR-Lifelog-256/u1/2015-03-09/b00000714_21i6bq_20150309_143313e.jpg'
p2402
sg4
(lp2403
(g15
g6
(g18
S'c/}?'
p2404
tp2405
Rp2406
tp2407
a(g104
g6
(g18
S'\xbd*:;'
p2408
tp2409
Rp2410
tp2411
a(g147
g6
(g18
S'\xb1\xab\x1a;'
p2412
tp2413
Rp2414
tp2415
a(g92
g6
(g18
S'\x84\xdc\x11;'
p2416
tp2417
Rp2418
tp2419
a(g32
g6
(g18
S'\xe1R\xdf:'
p2420
tp2421
Rp2422
tp2423
asg73
g15
sa(dp2424
g2
S'../../../data/emanuela/activity-recognition/images/NTCIR-Lifelog-256/u1/2015-03-15/b00000640_21i6bq_20150315_135137e.jpg'
p2425
sg4
(lp2426
(g15
g6
(g18
S'E"\x7f?'
p2427
tp2428
Rp2429
tp2430
a(g32
g6
(g18
S'tz\x13;'
p2431
tp2432
Rp2433
tp2434
a(g116
g6
(g18
S'\xbe\xff\x8d9'
p2435
tp2436
Rp2437
tp2438
a(g56
g6
(g18
S'3oR9'
p2439
tp2440
Rp2441
tp2442
a(g147
g6
(g18
S'z!09'
p2443
tp2444
Rp2445
tp2446
asg73
g15
sa(dp2447
g2
S'../../../data/emanuela/activity-recognition/images/NTCIR-Lifelog-256/u2/2015-05-01/b00002104_21i7lf_20150501_122623e.jpg'
p2448
sg4
(lp2449
(g15
g6
(g18
S'\xad\xc9_?'
p2450
tp2451
Rp2452
tp2453
a(g104
g6
(g18
S'L\xae\xb9='
p2454
tp2455
Rp2456
tp2457
a(g56
g6
(g18
S'n\x0e/<'
p2458
tp2459
Rp2460
tp2461
a(g32
g6
(g18
S'\xe9\xae#<'
p2462
tp2463
Rp2464
tp2465
a(g131
g6
(g18
S'\xeeg\x8e;'
p2466
tp2467
Rp2468
tp2469
asg73
g15
sa(dp2470
g2
S'../../../data/emanuela/activity-recognition/images/NTCIR-Lifelog-256/u3/2015-07-13/b00002491_21i79q_20150713_153419e.jpg'
p2471
sg4
(lp2472
(g15
g6
(g18
S'\xd4D\xfe>'
p2473
tp2474
Rp2475
tp2476
a(g378
g6
(g18
S'\xec\xed/>'
p2477
tp2478
Rp2479
tp2480
a(g32
g6
(g18
S'\xcb\x1d\xfe='
p2481
tp2482
Rp2483
tp2484
a(g131
g6
(g18
S'\x02>\x9f='
p2485
tp2486
Rp2487
tp2488
a(g104
g6
(g18
S'=\xbfi='
p2489
tp2490
Rp2491
tp2492
asg73
g15
sa(dp2493
g2
S'../../../data/emanuela/activity-recognition/images/NTCIR-Lifelog-256/u2/2015-04-21/b00000327_21i7lf_20150421_131349e.jpg'
p2494
sg4
(lp2495
(g15
g6
(g18
S'\x9aSh?'
p2496
tp2497
Rp2498
tp2499
a(g56
g6
(g18
S'\x81M\xd0<'
p2500
tp2501
Rp2502
tp2503
a(g92
g6
(g18
S'\xe6\xcf\x8c<'
p2504
tp2505
Rp2506
tp2507
a(g104
g6
(g18
S':\x85\x8a<'
p2508
tp2509
Rp2510
tp2511
a(g32
g6
(g18
S'\x00\x82c<'
p2512
tp2513
Rp2514
tp2515
asg73
g15
sa(dp2516
g2
S'../../../data/emanuela/activity-recognition/images/NTCIR-Lifelog-256/u3/2015-07-28/b00003890_21i79q_20150728_232423e.jpg'
p2517
sg4
(lp2518
(g15
g6
(g18
S'\xc8[f?'
p2519
tp2520
Rp2521
tp2522
a(g56
g6
(g18
S'\x9b\x11L='
p2523
tp2524
Rp2525
tp2526
a(g104
g6
(g18
S'hm\xcf<'
p2527
tp2528
Rp2529
tp2530
a(g209
g6
(g18
S'"\x8b\xc9;'
p2531
tp2532
Rp2533
tp2534
a(g32
g6
(g18
S'\x9e\t\xc0;'
p2535
tp2536
Rp2537
tp2538
asg73
g15
sa(dp2539
g2
S'../../../data/emanuela/activity-recognition/images/NTCIR-Lifelog-256/u2/2015-04-20/b00000283_21i7lf_20150420_122823e.jpg'
p2540
sg4
(lp2541
(g32
g6
(g18
S'ar\x01?'
p2542
tp2543
Rp2544
tp2545
a(g15
g6
(g18
S'\x15\x9a\xc7>'
p2546
tp2547
Rp2548
tp2549
a(g209
g6
(g18
S'LE{='
p2550
tp2551
Rp2552
tp2553
a(g68
g6
(g18
S'\xa0\x952<'
p2554
tp2555
Rp2556
tp2557
a(g92
g6
(g18
S"Y3'<"
p2558
tp2559
Rp2560
tp2561
asg73
g15
sa(dp2562
g2
S'../../../data/emanuela/activity-recognition/images/NTCIR-Lifelog-256/u3/2015-08-01/b00006070_21i79q_20150801_115845e.jpg'
p2563
sg4
(lp2564
(g15
g6
(g18
S'\x9d\xb6d?'
p2565
tp2566
Rp2567
tp2568
a(g92
g6
(g18
S'FF\x0b='
p2569
tp2570
Rp2571
tp2572
a(g147
g6
(g18
S'\x98_\xab<'
p2573
tp2574
Rp2575
tp2576
a(g32
g6
(g18
S'\xaf[\x94<'
p2577
tp2578
Rp2579
tp2580
a(g209
g6
(g18
S"'\x86,<"
p2581
tp2582
Rp2583
tp2584
asg73
g15
sa(dp2585
g2
S'../../../data/emanuela/activity-recognition/images/NTCIR-Lifelog-256/u1/2015-03-03/b00000581_21i6bq_20150303_125511e.jpg'
p2586
sg4
(lp2587
(g104
g6
(g18
S'2\xe4`?'
p2588
tp2589
Rp2590
tp2591
a(g15
g6
(g18
S'\xe4\xa6\xd0='
p2592
tp2593
Rp2594
tp2595
a(g56
g6
(g18
S'\xf6\xc1G<'
p2596
tp2597
Rp2598
tp2599
a(g92
g6
(g18
S'$\x9c\xc2;'
p2600
tp2601
Rp2602
tp2603
a(g147
g6
(g18
S'\xe8\x92\x04:'
p2604
tp2605
Rp2606
tp2607
asg73
g15
sa(dp2608
g2
S'../../../data/emanuela/activity-recognition/images/NTCIR-Lifelog-256/u3/2015-08-01/b00006282_21i79q_20150801_140406e.jpg'
p2609
sg4
(lp2610
(g15
g6
(g18
S'cqA?'
p2611
tp2612
Rp2613
tp2614
a(g32
g6
(g18
S'\x89U\x0c>'
p2615
tp2616
Rp2617
tp2618
a(g378
g6
(g18
S'\xb7\xb2\x9c<'
p2619
tp2620
Rp2621
tp2622
a(g56
g6
(g18
S'tE\x8c<'
p2623
tp2624
Rp2625
tp2626
a(g116
g6
(g18
S'\x8c\x1cy<'
p2627
tp2628
Rp2629
tp2630
asg73
g15
sa(dp2631
g2
S'../../../data/emanuela/activity-recognition/images/NTCIR-Lifelog-256/u3/2015-07-13/b00002498_21i79q_20150713_153827e.jpg'
p2632
sg4
(lp2633
(g15
g6
(g18
S'T\xa2}?'
p2634
tp2635
Rp2636
tp2637
a(g858
g6
(g18
S'<gr;'
p2638
tp2639
Rp2640
tp2641
a(g32
g6
(g18
S'\xa3\x1cC;'
p2642
tp2643
Rp2644
tp2645
a(g44
g6
(g18
S'\x17$\\:'
p2646
tp2647
Rp2648
tp2649
a(g104
g6
(g18
S'\xe7\xaa\x14:'
p2650
tp2651
Rp2652
tp2653
asg73
g15
sa(dp2654
g2
S'../../../data/emanuela/activity-recognition/images/NTCIR-Lifelog-256/u1/2015-03-10/b00000221_21i6bq_20150310_151053e.jpg'
p2655
sg4
(lp2656
(g92
g6
(g18
S'\xc7k\xa1>'
p2657
tp2658
Rp2659
tp2660
a(g56
g6
(g18
S'y\r\xfe='
p2661
tp2662
Rp2663
tp2664
a(g104
g6
(g18
S'V\xbb\xcf='
p2665
tp2666
Rp2667
tp2668
a(g147
g6
(g18
S'\x12\x10\x8f='
p2669
tp2670
Rp2671
tp2672
a(g15
g6
(g18
S'\xf4|\x8b='
p2673
tp2674
Rp2675
tp2676
asg73
g15
sa(dp2677
g2
S'../../../data/emanuela/activity-recognition/images/NTCIR-Lifelog-256/u2/2015-05-03/b00003997_21i7lf_20150503_165853e.jpg'
p2678
sg4
(lp2679
(g15
g6
(g18
S'2\xa0n?'
p2680
tp2681
Rp2682
tp2683
a(g32
g6
(g18
S'}\xf2P='
p2684
tp2685
Rp2686
tp2687
a(g209
g6
(g18
S'%p\x08<'
p2688
tp2689
Rp2690
tp2691
a(g116
g6
(g18
S'\x91ci;'
p2692
tp2693
Rp2694
tp2695
a(g68
g6
(g18
S'E\x8a\xcc:'
p2696
tp2697
Rp2698
tp2699
asg73
g15
sa(dp2700
g2
S'../../../data/emanuela/activity-recognition/images/NTCIR-Lifelog-256/u1/2015-03-07/b00000757_21i6bq_20150307_140449e.jpg'
p2701
sg4
(lp2702
(g15
g6
(g18
S'9\x9fw?'
p2703
tp2704
Rp2705
tp2706
a(g92
g6
(g18
S'\x11C\x81<'
p2707
tp2708
Rp2709
tp2710
a(g32
g6
(g18
S'\xd2\xb2\xd7;'
p2711
tp2712
Rp2713
tp2714
a(g56
g6
(g18
S'\xab\x9f\xaa;'
p2715
tp2716
Rp2717
tp2718
a(g104
g6
(g18
S'.>\xb5:'
p2719
tp2720
Rp2721
tp2722
asg73
g15
sa(dp2723
g2
S'../../../data/emanuela/activity-recognition/images/NTCIR-Lifelog-256/u2/2015-06-19/b00003240_21i7lf_20150619_084214e.jpg'
p2724
sg4
(lp2725
(g147
g6
(g18
S'\x80\xae\xe6>'
p2726
tp2727
Rp2728
tp2729
a(g15
g6
(g18
S'\xd4\xd0|>'
p2730
tp2731
Rp2732
tp2733
a(g56
g6
(g18
S'\x01e\xd4='
p2734
tp2735
Rp2736
tp2737
a(g92
g6
(g18
S'\x1c\xedb='
p2738
tp2739
Rp2740
tp2741
a(g68
g6
(g18
S'\xb0I4='
p2742
tp2743
Rp2744
tp2745
asg73
g15
sa(dp2746
g2
S'../../../data/emanuela/activity-recognition/images/NTCIR-Lifelog-256/u1/2015-03-12/b00000171_21i6bq_20150312_090505e.jpg'
p2747
sg4
(lp2748
(g15
g6
(g18
S'\x9bR\x1a?'
p2749
tp2750
Rp2751
tp2752
a(g32
g6
(g18
S'\xc07\xd8='
p2753
tp2754
Rp2755
tp2756
a(g56
g6
(g18
S'\x1dN\xbd='
p2757
tp2758
Rp2759
tp2760
a(g104
g6
(g18
S'z\x1cb='
p2761
tp2762
Rp2763
tp2764
a(g44
g6
(g18
S'\xe8\x9b-='
p2765
tp2766
Rp2767
tp2768
asg73
g15
sa(dp2769
g2
S'../../../data/emanuela/activity-recognition/images/NTCIR-Lifelog-256/u2/2015-05-03/b00004018_21i7lf_20150503_171144e.jpg'
p2770
sg4
(lp2771
(g15
g6
(g18
S'\xb9\xd4:?'
p2772
tp2773
Rp2774
tp2775
a(g32
g6
(g18
S'\x03\xce%>'
p2776
tp2777
Rp2778
tp2779
a(g56
g6
(g18
S'\x99\x05%='
p2780
tp2781
Rp2782
tp2783
a(g68
g6
(g18
S'\x9fe\xc2<'
p2784
tp2785
Rp2786
tp2787
a(g420
g6
(g18
S'\xd5V}<'
p2788
tp2789
Rp2790
tp2791
asg73
g15
sa(dp2792
g2
S'../../../data/emanuela/activity-recognition/images/NTCIR-Lifelog-256/u2/2015-06-17/b00002273_21i7lf_20150617_120353e.jpg'
p2793
sg4
(lp2794
(g15
g6
(g18
S'\xc7-y?'
p2795
tp2796
Rp2797
tp2798
a(g92
g6
(g18
S'\xfd\x01\\<'
p2799
tp2800
Rp2801
tp2802
a(g32
g6
(g18
S'!\x01\x9b;'
p2803
tp2804
Rp2805
tp2806
a(g147
g6
(g18
S'U\xff\x9a;'
p2807
tp2808
Rp2809
tp2810
a(g104
g6
(g18
S'\x7fNK;'
p2811
tp2812
Rp2813
tp2814
asg73
g15
sa(dp2815
g2
S'../../../data/emanuela/activity-recognition/images/NTCIR-Lifelog-256/u1/2015-03-07/b00000556_21i6bq_20150307_120134e.jpg'
p2816
sg4
(lp2817
(g15
g6
(g18
S'\x97pt?'
p2818
tp2819
Rp2820
tp2821
a(g92
g6
(g18
S'\xdb\xd7\xa7<'
p2822
tp2823
Rp2824
tp2825
a(g32
g6
(g18
S'\xf1\x9f\xd4;'
p2826
tp2827
Rp2828
tp2829
a(g147
g6
(g18
S'\xcb\xe5\xa6;'
p2830
tp2831
Rp2832
tp2833
a(g858
g6
(g18
S'\xf7\x03\xa0;'
p2834
tp2835
Rp2836
tp2837
asg73
g15
sa(dp2838
g2
S'../../../data/emanuela/activity-recognition/images/NTCIR-Lifelog-256/u2/2015-04-30/b00000823_21i7lf_20150430_111054e.jpg'
p2839
sg4
(lp2840
(g15
g6
(g18
S'VX\xc2>'
p2841
tp2842
Rp2843
tp2844
a(g32
g6
(g18
S'h\x04\x94>'
p2845
tp2846
Rp2847
tp2848
a(g56
g6
(g18
S'\x15\xf8\xbf='
p2849
tp2850
Rp2851
tp2852
a(g92
g6
(g18
S'\xc4\xa7\x82='
p2853
tp2854
Rp2855
tp2856
a(g104
g6
(g18
S'rVS='
p2857
tp2858
Rp2859
tp2860
asg73
g15
sa(dp2861
g2
S'../../../data/emanuela/activity-recognition/images/NTCIR-Lifelog-256/u2/2015-04-24/b00002324_21i7lf_20150424_131312e.jpg'
p2862
sg4
(lp2863
(g32
g6
(g18
S'7D\x01?'
p2864
tp2865
Rp2866
tp2867
a(g15
g6
(g18
S'!:\x97>'
p2868
tp2869
Rp2870
tp2871
a(g147
g6
(g18
S'\xca!\x89='
p2872
tp2873
Rp2874
tp2875
a(g92
g6
(g18
S'\xf53F='
p2876
tp2877
Rp2878
tp2879
a(g116
g6
(g18
S'p\xd6\x05='
p2880
tp2881
Rp2882
tp2883
asg73
g15
sa(dp2884
g2
S'../../../data/emanuela/activity-recognition/images/NTCIR-Lifelog-256/u1/2015-03-07/b00000387_21i6bq_20150307_111542e.jpg'
p2885
sg4
(lp2886
(g15
g6
(g18
S'\x1f\xb54?'
p2887
tp2888
Rp2889
tp2890
a(g44
g6
(g18
S'\xc5\x8a\x04>'
p2891
tp2892
Rp2893
tp2894
a(g858
g6
(g18
S'Y\xd2\xae='
p2895
tp2896
Rp2897
tp2898
a(g32
g6
(g18
S'\x92\xdb\xb7<'
p2899
tp2900
Rp2901
tp2902
a(g56
g6
(g18
S'\xb5\x9av<'
p2903
tp2904
Rp2905
tp2906
asg73
g15
sa(dp2907
g2
S'../../../data/emanuela/activity-recognition/images/NTCIR-Lifelog-256/u3/2015-06-15/b00000118_21i79q_20150615_094802e.jpg'
p2908
sg4
(lp2909
(g116
g6
(g18
S'vW\xb5>'
p2910
tp2911
Rp2912
tp2913
a(g15
g6
(g18
S'\x0e\xba\x86>'
p2914
tp2915
Rp2916
tp2917
a(g32
g6
(g18
S'[\xd9\x03>'
p2918
tp2919
Rp2920
tp2921
a(g147
g6
(g18
S'\x9f\x9d\xa4='
p2922
tp2923
Rp2924
tp2925
a(g92
g6
(g18
S'\x94\xf4]='
p2926
tp2927
Rp2928
tp2929
asg73
g15
sa(dp2930
g2
S'../../../data/emanuela/activity-recognition/images/NTCIR-Lifelog-256/u3/2015-06-18/b00000672_21i79q_20150618_194623e.jpg'
p2931
sg4
(lp2932
(g209
g6
(g18
S'\x87gX?'
p2933
tp2934
Rp2935
tp2936
a(g32
g6
(g18
S'\\\xf5\x91='
p2937
tp2938
Rp2939
tp2940
a(g68
g6
(g18
S'\xd1\x07\x07='
p2941
tp2942
Rp2943
tp2944
a(g116
g6
(g18
S'K\xea\x89<'
p2945
tp2946
Rp2947
tp2948
a(g147
g6
(g18
S'aR\x1b<'
p2949
tp2950
Rp2951
tp2952
asg73
g15
sa(dp2953
g2
S'../../../data/emanuela/activity-recognition/images/NTCIR-Lifelog-256/u1/2015-03-11/b00000196_21i6bq_20150311_084039e.jpg'
p2954
sg4
(lp2955
(g15
g6
(g18
S'\x16w\x19?'
p2956
tp2957
Rp2958
tp2959
a(g32
g6
(g18
S'\xd8\x88\x9c>'
p2960
tp2961
Rp2962
tp2963
a(g92
g6
(g18
S'>,\xcc<'
p2964
tp2965
Rp2966
tp2967
a(g116
g6
(g18
S'\xfc\xd4\xc4<'
p2968
tp2969
Rp2970
tp2971
a(g209
g6
(g18
S'RA\xa6<'
p2972
tp2973
Rp2974
tp2975
asg73
g15
sa(dp2976
g2
S'../../../data/emanuela/activity-recognition/images/NTCIR-Lifelog-256/u3/2015-07-29/b00003998_21i79q_20150729_140152e.jpg'
p2977
sg4
(lp2978
(g15
g6
(g18
S'\xd7 t?'
p2979
tp2980
Rp2981
tp2982
a(g32
g6
(g18
S'F\x15\x11='
p2983
tp2984
Rp2985
tp2986
a(g56
g6
(g18
S'\x05:\x86;'
p2987
tp2988
Rp2989
tp2990
a(g104
g6
(g18
S'\xa2\xf9\xcc:'
p2991
tp2992
Rp2993
tp2994
a(g116
g6
(g18
S'\xda\xc6}:'
p2995
tp2996
Rp2997
tp2998
asg73
g15
sa(dp2999
g2
S'../../../data/emanuela/activity-recognition/images/NTCIR-Lifelog-256/u1/2015-03-15/b00000599_21i6bq_20150315_133300e.jpg'
p3000
sg4
(lp3001
(g15
g6
(g18
S'e\xfeG?'
p3002
tp3003
Rp3004
tp3005
a(g32
g6
(g18
S'V\x95 >'
p3006
tp3007
Rp3008
tp3009
a(g56
g6
(g18
S'\xf4G\x9d<'
p3010
tp3011
Rp3012
tp3013
a(g68
g6
(g18
S'U\x1cQ<'
p3014
tp3015
Rp3016
tp3017
a(g116
g6
(g18
S'\xaa\xcd\xef;'
p3018
tp3019
Rp3020
tp3021
asg73
g15
sa(dp3022
g2
S'../../../data/emanuela/activity-recognition/images/NTCIR-Lifelog-256/u3/2015-07-23/b00000709_21i79q_20150723_194601e.jpg'
p3023
sg4
(lp3024
(g15
g6
(g18
S'\xe7\xba}?'
p3025
tp3026
Rp3027
tp3028
a(g104
g6
(g18
S'\xbd\x9d\x8c;'
p3029
tp3030
Rp3031
tp3032
a(g56
g6
(g18
S'`\xc3\x00;'
p3033
tp3034
Rp3035
tp3036
a(g32
g6
(g18
S'(\xbb\x83:'
p3037
tp3038
Rp3039
tp3040
a(g858
g6
(g18
S'\xc5<\x1e:'
p3041
tp3042
Rp3043
tp3044
asg73
g15
sa(dp3045
g2
S'../../../data/emanuela/activity-recognition/images/NTCIR-Lifelog-256/u1/2015-03-07/b00000760_21i6bq_20150307_140450e.jpg'
p3046
sg4
(lp3047
(g15
g6
(g18
S'\xb4\xc6N?'
p3048
tp3049
Rp3050
tp3051
a(g92
g6
(g18
S'n\xe0\xb9='
p3052
tp3053
Rp3054
tp3055
a(g56
g6
(g18
S'\x10\xc3E='
p3056
tp3057
Rp3058
tp3059
a(g32
g6
(g18
S'\xa8\x1d\x07='
p3060
tp3061
Rp3062
tp3063
a(g378
g6
(g18
S'\xae\xa8\xad;'
p3064
tp3065
Rp3066
tp3067
asg73
g15
sa(dp3068
g2
S'../../../data/emanuela/activity-recognition/images/NTCIR-Lifelog-256/u1/2015-03-16/b00002768_21i6bq_20150316_182531e.jpg'
p3069
sg4
(lp3070
(g15
g6
(g18
S'R+R?'
p3071
tp3072
Rp3073
tp3074
a(g104
g6
(g18
S'\xbb\x10\x8c='
p3075
tp3076
Rp3077
tp3078
a(g147
g6
(g18
S'\xc2M\x01='
p3079
tp3080
Rp3081
tp3082
a(g56
g6
(g18
S'\xa1\xfa\xd2<'
p3083
tp3084
Rp3085
tp3086
a(g92
g6
(g18
S'\xc7w\xc4<'
p3087
tp3088
Rp3089
tp3090
asg73
g15
sa(dp3091
g2
S'../../../data/emanuela/activity-recognition/images/NTCIR-Lifelog-256/u1/2015-03-16/b00002769_21i6bq_20150316_182532e.jpg'
p3092
sg4
(lp3093
(g15
g6
(g18
S'\xac\xcd\x7f?'
p3094
tp3095
Rp3096
tp3097
a(g32
g6
(g18
S'b\x13\xc39'
p3098
tp3099
Rp3100
tp3101
a(g92
g6
(g18
S'\xa65\x049'
p3102
tp3103
Rp3104
tp3105
a(g104
g6
(g18
S'4\xf9\xdc8'
p3106
tp3107
Rp3108
tp3109
a(g116
g6
(g18
S'\xf5\xcdU8'
p3110
tp3111
Rp3112
tp3113
asg73
g15
sa(dp3114
g2
S'../../../data/emanuela/activity-recognition/images/NTCIR-Lifelog-256/u1/2015-03-15/b00000585_21i6bq_20150315_132724e.jpg'
p3115
sg4
(lp3116
(g15
g6
(g18
S'3\x17<?'
p3117
tp3118
Rp3119
tp3120
a(g32
g6
(g18
S'\x96\xdc\x7f>'
p3121
tp3122
Rp3123
tp3124
a(g116
g6
(g18
S'\x84-\r<'
p3125
tp3126
Rp3127
tp3128
a(g68
g6
(g18
S'\xd0-C;'
p3129
tp3130
Rp3131
tp3132
a(g92
g6
(g18
S'\xcd]|:'
p3133
tp3134
Rp3135
tp3136
asg73
g15
sa(dp3137
g2
S'../../../data/emanuela/activity-recognition/images/NTCIR-Lifelog-256/u1/2015-03-07/b00000428_21i6bq_20150307_112624e.jpg'
p3138
sg4
(lp3139
(g32
g6
(g18
S'\xb4\xceU?'
p3140
tp3141
Rp3142
tp3143
a(g15
g6
(g18
S'\xa1y\xf3='
p3144
tp3145
Rp3146
tp3147
a(g44
g6
(g18
S'\xd1\x00b<'
p3148
tp3149
Rp3150
tp3151
a(g116
g6
(g18
S'\xaf5*<'
p3152
tp3153
Rp3154
tp3155
a(g858
g6
(g18
S'\x91\xab\xb6;'
p3156
tp3157
Rp3158
tp3159
asg73
g15
sa(dp3160
g2
S'../../../data/emanuela/activity-recognition/images/NTCIR-Lifelog-256/u3/2015-07-15/b00000256_21i79q_20150715_142926e.jpg'
p3161
sg4
(lp3162
(g15
g6
(g18
S'O\xa8\x02?'
p3163
tp3164
Rp3165
tp3166
a(g56
g6
(g18
S'\xea\xf9A>'
p3167
tp3168
Rp3169
tp3170
a(g32
g6
(g18
S'Q\xb40>'
p3171
tp3172
Rp3173
tp3174
a(g104
g6
(g18
S'\xb4CK='
p3175
tp3176
Rp3177
tp3178
a(g92
g6
(g18
S'270='
p3179
tp3180
Rp3181
tp3182
asg73
g15
sa(dp3183
g2
S'../../../data/emanuela/activity-recognition/images/NTCIR-Lifelog-256/u2/2015-05-03/b00004017_21i7lf_20150503_171110e.jpg'
p3184
sg4
(lp3185
(g15
g6
(g18
S'/aR?'
p3186
tp3187
Rp3188
tp3189
a(g32
g6
(g18
S'G\xb1%>'
p3190
tp3191
Rp3192
tp3193
a(g116
g6
(g18
S'\xa1\x1d\t<'
p3194
tp3195
Rp3196
tp3197
a(g68
g6
(g18
S'\xb3\x86C;'
p3198
tp3199
Rp3200
tp3201
a(g92
g6
(g18
S'=\x0b\xdf:'
p3202
tp3203
Rp3204
tp3205
asg73
g15
sa(dp3206
g2
S'../../../data/emanuela/activity-recognition/images/NTCIR-Lifelog-256/u1/2015-02-23/b00000193_21i6bq_20150223_090809e.jpg'
p3207
sg4
(lp3208
(g56
g6
(g18
S'\xd8\xb6\xf2>'
p3209
tp3210
Rp3211
tp3212
a(g92
g6
(g18
S'\xd9\xa8\x86>'
p3213
tp3214
Rp3215
tp3216
a(g68
g6
(g18
S'P\xc3$='
p3217
tp3218
Rp3219
tp3220
a(g104
g6
(g18
S'\xab\xa3!='
p3221
tp3222
Rp3223
tp3224
a(g555
g6
(g18
S'B\xef\x0b='
p3225
tp3226
Rp3227
tp3228
asg73
g15
sa(dp3229
g2
S'../../../data/emanuela/activity-recognition/images/NTCIR-Lifelog-256/u3/2015-07-12/b00001709_21i79q_20150712_144124e.jpg'
p3230
sg4
(lp3231
(g15
g6
(g18
S'\xb2\xfb\x03?'
p3232
tp3233
Rp3234
tp3235
a(g32
g6
(g18
S'H^\xd8>'
p3236
tp3237
Rp3238
tp3239
a(g116
g6
(g18
S'\xd7\xa7\x97<'
p3240
tp3241
Rp3242
tp3243
a(g68
g6
(g18
S'\xf9A3<'
p3244
tp3245
Rp3246
tp3247
a(g56
g6
(g18
S'\xc1g)<'
p3248
tp3249
Rp3250
tp3251
asg73
g15
sa(dp3252
g2
S'../../../data/emanuela/activity-recognition/images/NTCIR-Lifelog-256/u1/2015-03-11/b00001152_21i6bq_20150311_193102e.jpg'
p3253
sg4
(lp3254
(g15
g6
(g18
S'o\x00{?'
p3255
tp3256
Rp3257
tp3258
a(g32
g6
(g18
S'\x94\xff\x99<'
p3259
tp3260
Rp3261
tp3262
a(g116
g6
(g18
S'\xec\xc8\xa89'
p3263
tp3264
Rp3265
tp3266
a(g68
g6
(g18
S'\x1d\xb9&9'
p3267
tp3268
Rp3269
tp3270
a(g92
g6
(g18
S'\x1dR\x828'
p3271
tp3272
Rp3273
tp3274
asg73
g15
sa(dp3275
g2
S'../../../data/emanuela/activity-recognition/images/NTCIR-Lifelog-256/u2/2015-04-30/b00001008_21i7lf_20150430_130356e.jpg'
p3276
sg4
(lp3277
(g15
g6
(g18
S'\x06d#?'
p3278
tp3279
Rp3280
tp3281
a(g32
g6
(g18
S'\x14\\\xb4>'
p3282
tp3283
Rp3284
tp3285
a(g68
g6
(g18
S'L\x1bD;'
p3286
tp3287
Rp3288
tp3289
a(g116
g6
(g18
S'\xd5\xa82;'
p3290
tp3291
Rp3292
tp3293
a(g56
g6
(g18
S'\xe8\x10\xc8:'
p3294
tp3295
Rp3296
tp3297
asg73
g15
sa(dp3298
g2
S'../../../data/emanuela/activity-recognition/images/NTCIR-Lifelog-256/u3/2015-06-28/b00000002_21i79q_20150628_143103e.jpg'
p3299
sg4
(lp3300
(g15
g6
(g18
S',\x80d?'
p3301
tp3302
Rp3303
tp3304
a(g92
g6
(g18
S'7\x1a\x80='
p3305
tp3306
Rp3307
tp3308
a(g32
g6
(g18
S'\xc3\x89~<'
p3309
tp3310
Rp3311
tp3312
a(g56
g6
(g18
S'\x9cp.<'
p3313
tp3314
Rp3315
tp3316
a(g104
g6
(g18
S'\xc1\xf2\x11<'
p3317
tp3318
Rp3319
tp3320
asg73
g15
sa(dp3321
g2
S'../../../data/emanuela/activity-recognition/images/NTCIR-Lifelog-256/u1/2015-03-02/b00000225_21i6bq_20150302_091127e.jpg'
p3322
sg4
(lp3323
(g92
g6
(g18
S'G\xb5\x89>'
p3324
tp3325
Rp3326
tp3327
a(g15
g6
(g18
S'\x1f\xbf\x85>'
p3328
tp3329
Rp3330
tp3331
a(g56
g6
(g18
S'\xd4\xb5I>'
p3332
tp3333
Rp3334
tp3335
a(g104
g6
(g18
S'*\xf8\xea='
p3336
tp3337
Rp3338
tp3339
a(g147
g6
(g18
S'\xa60\xb5='
p3340
tp3341
Rp3342
tp3343
asg73
g15
sa(dp3344
g2
S'../../../data/emanuela/activity-recognition/images/NTCIR-Lifelog-256/u1/2015-02-28/b00000543_21i6bq_20150228_112702e.jpg'
p3345
sg4
(lp3346
(g15
g6
(g18
S'\xa1\x07{?'
p3347
tp3348
Rp3349
tp3350
a(g32
g6
(g18
S'W\xd7\x82<'
p3351
tp3352
Rp3353
tp3354
a(g116
g6
(g18
S'\xa3\x8e\xbf:'
p3355
tp3356
Rp3357
tp3358
a(g56
g6
(g18
S'd\xe4\x12:'
p3359
tp3360
Rp3361
tp3362
a(g68
g6
(g18
S'7s\xcc9'
p3363
tp3364
Rp3365
tp3366
asg73
g15
sa(dp3367
g2
S'../../../data/emanuela/activity-recognition/images/NTCIR-Lifelog-256/u1/2015-03-05/b00000597_21i6bq_20150305_124126e.jpg'
p3368
sg4
(lp3369
(g15
g6
(g18
S'\xab\xf9x?'
p3370
tp3371
Rp3372
tp3373
a(g104
g6
(g18
S'\x936_<'
p3374
tp3375
Rp3376
tp3377
a(g56
g6
(g18
S'\x81a\xb3;'
p3378
tp3379
Rp3380
tp3381
a(g32
g6
(g18
S'o\x1d\x8e;'
p3382
tp3383
Rp3384
tp3385
a(g858
g6
(g18
S'\x01c\x04;'
p3386
tp3387
Rp3388
tp3389
asg73
g15
sa(dp3390
g2
S'../../../data/emanuela/activity-recognition/images/NTCIR-Lifelog-256/u3/2015-07-15/b00000247_21i79q_20150715_142403e.jpg'
p3391
sg4
(lp3392
(g15
g6
(g18
S'\xb1\xbat?'
p3393
tp3394
Rp3395
tp3396
a(g32
g6
(g18
S'\x8e\xc7\xa0<'
p3397
tp3398
Rp3399
tp3400
a(g56
g6
(g18
S'\x9f\x1a\xc6;'
p3401
tp3402
Rp3403
tp3404
a(g68
g6
(g18
S'4\x87\xa9;'
p3405
tp3406
Rp3407
tp3408
a(g92
g6
(g18
S'\xb1\x0e\x8c;'
p3409
tp3410
Rp3411
tp3412
asg73
g15
sa(dp3413
g2
S'../../../data/emanuela/activity-recognition/images/NTCIR-Lifelog-256/u1/2015-03-05/b00001155_21i6bq_20150305_192235e.jpg'
p3414
sg4
(lp3415
(g32
g6
(g18
S'TO\x1c?'
p3416
tp3417
Rp3418
tp3419
a(g116
g6
(g18
S'\xd3\x07\x11>'
p3420
tp3421
Rp3422
tp3423
a(g15
g6
(g18
S'`p\n>'
p3424
tp3425
Rp3426
tp3427
a(g147
g6
(g18
S'\x07{\x17='
p3428
tp3429
Rp3430
tp3431
a(g92
g6
(g18
S'\xa4I\xc5<'
p3432
tp3433
Rp3434
tp3435
asg73
g15
sa(dp3436
g2
S'../../../data/emanuela/activity-recognition/images/NTCIR-Lifelog-256/u1/2015-03-14/b00000473_21i6bq_20150314_105038e.jpg'
p3437
sg4
(lp3438
(g15
g6
(g18
S'\xcc\x13!?'
p3439
tp3440
Rp3441
tp3442
a(g32
g6
(g18
S'\xa3\xe1\x93>'
p3443
tp3444
Rp3445
tp3446
a(g116
g6
(g18
S'\xe0\x83Z='
p3447
tp3448
Rp3449
tp3450
a(g378
g6
(g18
S'\x97\xd5\x16<'
p3451
tp3452
Rp3453
tp3454
a(g68
g6
(g18
S'^\xf1\xc5;'
p3455
tp3456
Rp3457
tp3458
asg73
g15
sa(dp3459
g2
S'../../../data/emanuela/activity-recognition/images/NTCIR-Lifelog-256/u1/2015-02-23/b00000645_21i6bq_20150223_134925e.jpg'
p3460
sg4
(lp3461
(g15
g6
(g18
S'I[X?'
p3462
tp3463
Rp3464
tp3465
a(g56
g6
(g18
S'\xc2Q\x93='
p3466
tp3467
Rp3468
tp3469
a(g104
g6
(g18
S'n-\x81='
p3470
tp3471
Rp3472
tp3473
a(g858
g6
(g18
S'9\xf4\x0b<'
p3474
tp3475
Rp3476
tp3477
a(g32
g6
(g18
S'\xb7\xbb\xd2;'
p3478
tp3479
Rp3480
tp3481
asg73
g15
sa(dp3482
g2
S'../../../data/emanuela/activity-recognition/images/NTCIR-Lifelog-256/u1/2015-03-19/b00002076_21i6bq_20150319_122257e.jpg'
p3483
sg4
(lp3484
(g32
g6
(g18
S'\x87\x0cA?'
p3485
tp3486
Rp3487
tp3488
a(g15
g6
(g18
S'\xd4l>>'
p3489
tp3490
Rp3491
tp3492
a(g92
g6
(g18
S'\xdd\xee\xbc<'
p3493
tp3494
Rp3495
tp3496
a(g147
g6
(g18
S'\x82\x11\x01<'
p3497
tp3498
Rp3499
tp3500
a(g116
g6
(g18
S'\x1f\x8c\xf6;'
p3501
tp3502
Rp3503
tp3504
asg73
g15
sa(dp3505
g2
S'../../../data/emanuela/activity-recognition/images/NTCIR-Lifelog-256/u1/2015-03-14/b00000299_21i6bq_20150314_090807e.jpg'
p3506
sg4
(lp3507
(g15
g6
(g18
S'$\x00}?'
p3508
tp3509
Rp3510
tp3511
a(g32
g6
(g18
S'\x9a\x89-<'
p3512
tp3513
Rp3514
tp3515
a(g116
g6
(g18
S'\xed\x9aK:'
p3516
tp3517
Rp3518
tp3519
a(g92
g6
(g18
S'\xf1\xb6\xc78'
p3520
tp3521
Rp3522
tp3523
a(g68
g6
(g18
S'\x0cK\xad8'
p3524
tp3525
Rp3526
tp3527
asg73
g15
sa(dp3528
g2
S'../../../data/emanuela/activity-recognition/images/NTCIR-Lifelog-256/u2/2015-05-03/b00003994_21i7lf_20150503_165654e.jpg'
p3529
sg4
(lp3530
(g15
g6
(g18
S'\x1b\x01\x1b?'
p3531
tp3532
Rp3533
tp3534
a(g32
g6
(g18
S'\xe0X\xa3>'
p3535
tp3536
Rp3537
tp3538
a(g116
g6
(g18
S'\x848H='
p3539
tp3540
Rp3541
tp3542
a(g68
g6
(g18
S'\xce\xc6\r<'
p3543
tp3544
Rp3545
tp3546
a(g56
g6
(g18
S'\xe9\xbb\x91;'
p3547
tp3548
Rp3549
tp3550
asg73
g15
sa(dp3551
g2
S'../../../data/emanuela/activity-recognition/images/NTCIR-Lifelog-256/u1/2015-02-28/b00000561_21i6bq_20150228_113808e.jpg'
p3552
sg4
(lp3553
(g92
g6
(g18
S'U\xe1\xe0>'
p3554
tp3555
Rp3556
tp3557
a(g147
g6
(g18
S'\x021\x90>'
p3558
tp3559
Rp3560
tp3561
a(g104
g6
(g18
S'K\xd4\xf7='
p3562
tp3563
Rp3564
tp3565
a(g15
g6
(g18
S'=\xb8K='
p3566
tp3567
Rp3568
tp3569
a(g209
g6
(g18
S'5\xc6\x1e='
p3570
tp3571
Rp3572
tp3573
asg73
g15
sa(dp3574
g2
S'../../../data/emanuela/activity-recognition/images/NTCIR-Lifelog-256/u2/2015-04-24/b00002829_21i7lf_20150424_205808e.jpg'
p3575
sg4
(lp3576
(g15
g6
(g18
S'\xc4\xc5y?'
p3577
tp3578
Rp3579
tp3580
a(g32
g6
(g18
S'9a\xaf<'
p3581
tp3582
Rp3583
tp3584
a(g131
g6
(g18
S'\x1d>\xc59'
p3585
tp3586
Rp3587
tp3588
a(g858
g6
(g18
S'\x82\x87\xb79'
p3589
tp3590
Rp3591
tp3592
a(g104
g6
(g18
S'zr\xb79'
p3593
tp3594
Rp3595
tp3596
asg73
g15
sa(dp3597
g2
S'../../../data/emanuela/activity-recognition/images/NTCIR-Lifelog-256/u3/2015-07-15/b00000239_21i79q_20150715_141913e.jpg'
p3598
sg4
(lp3599
(g15
g6
(g18
S'Z\xefz?'
p3600
tp3601
Rp3602
tp3603
a(g116
g6
(g18
S'G\x01\xbe;'
p3604
tp3605
Rp3606
tp3607
a(g32
g6
(g18
S'B\x90\x8a;'
p3608
tp3609
Rp3610
tp3611
a(g68
g6
(g18
S'TT^;'
p3612
tp3613
Rp3614
tp3615
a(g56
g6
(g18
S'\x0b\xfb\xfb:'
p3616
tp3617
Rp3618
tp3619
asg73
g15
sa(dp3620
g2
S'../../../data/emanuela/activity-recognition/images/NTCIR-Lifelog-256/u2/2015-04-24/b00002822_21i7lf_20150424_205351e.jpg'
p3621
sg4
(lp3622
(g15
g6
(g18
S'I\x97\x7f?'
p3623
tp3624
Rp3625
tp3626
a(g32
g6
(g18
S'\x11\x8d\xc1:'
p3627
tp3628
Rp3629
tp3630
a(g116
g6
(g18
S'\xe4\xd7\\8'
p3631
tp3632
Rp3633
tp3634
a(g68
g6
(g18
S'\x10b\xd07'
p3635
tp3636
Rp3637
tp3638
a(g56
g6
(g18
S'\xa5b.7'
p3639
tp3640
Rp3641
tp3642
asg73
g15
sa(dp3643
g2
S'../../../data/emanuela/activity-recognition/images/NTCIR-Lifelog-256/u1/2015-03-08/b00000590_21i6bq_20150308_140918e.jpg'
p3644
sg4
(lp3645
(g15
g6
(g18
S'/\xc2\x7f?'
p3646
tp3647
Rp3648
tp3649
a(g32
g6
(g18
S'9\xa3R:'
p3650
tp3651
Rp3652
tp3653
a(g858
g6
(g18
S'\xe4\xe8]8'
p3654
tp3655
Rp3656
tp3657
a(g44
g6
(g18
S'%\xb6\xab7'
p3658
tp3659
Rp3660
tp3661
a(g68
g6
(g18
S'-tF7'
p3662
tp3663
Rp3664
tp3665
asg73
g15
sa(dp3666
g2
S'../../../data/emanuela/activity-recognition/images/NTCIR-Lifelog-256/u1/2015-03-14/b00000495_21i6bq_20150314_110449e.jpg'
p3667
sg4
(lp3668
(g15
g6
(g18
S'.Dh?'
p3669
tp3670
Rp3671
tp3672
a(g32
g6
(g18
S'\x1d\xc1\x8b='
p3673
tp3674
Rp3675
tp3676
a(g116
g6
(g18
S'\x8dK\\<'
p3677
tp3678
Rp3679
tp3680
a(g92
g6
(g18
S'n\x0ee;'
p3681
tp3682
Rp3683
tp3684
a(g56
g6
(g18
S'\xbb\x99M;'
p3685
tp3686
Rp3687
tp3688
asg73
g15
sa(dp3689
g2
S'../../../data/emanuela/activity-recognition/images/NTCIR-Lifelog-256/u1/2015-03-07/b00000446_21i6bq_20150307_113245e.jpg'
p3690
sg4
(lp3691
(g15
g6
(g18
S'\x9e\xc9,?'
p3692
tp3693
Rp3694
tp3695
a(g32
g6
(g18
S'\x08F\x16>'
p3696
tp3697
Rp3698
tp3699
a(g56
g6
(g18
S']69='
p3700
tp3701
Rp3702
tp3703
a(g92
g6
(g18
S'W\xb2\xb7<'
p3704
tp3705
Rp3706
tp3707
a(g44
g6
(g18
S'\xd3\x9d\x8c<'
p3708
tp3709
Rp3710
tp3711
asg73
g15
sa(dp3712
g2
S'../../../data/emanuela/activity-recognition/images/NTCIR-Lifelog-256/u2/2015-05-03/b00003935_21i7lf_20150503_161920e.jpg'
p3713
sg4
(lp3714
(g56
g6
(g18
S'#\xea\xb5>'
p3715
tp3716
Rp3717
tp3718
a(g92
g6
(g18
S'\xe1\xd9z>'
p3719
tp3720
Rp3721
tp3722
a(g15
g6
(g18
S'\x18\x9f]>'
p3723
tp3724
Rp3725
tp3726
a(g104
g6
(g18
S'\x10;\x02>'
p3727
tp3728
Rp3729
tp3730
a(g68
g6
(g18
S'o\xbaU<'
p3731
tp3732
Rp3733
tp3734
asg73
g15
sa(dp3735
g2
S'../../../data/emanuela/activity-recognition/images/NTCIR-Lifelog-256/u1/2015-03-10/b00000691_21i6bq_20150310_204401e.jpg'
p3736
sg4
(lp3737
(g15
g6
(g18
S')Rm?'
p3738
tp3739
Rp3740
tp3741
a(g56
g6
(g18
S'\xdf\x0c\xea<'
p3742
tp3743
Rp3744
tp3745
a(g92
g6
(g18
S'\xd3\xa8B<'
p3746
tp3747
Rp3748
tp3749
a(g104
g6
(g18
S'\x07\xe5\x1a<'
p3750
tp3751
Rp3752
tp3753
a(g32
g6
(g18
S'\xfe\xfa\x00<'
p3754
tp3755
Rp3756
tp3757
asg73
g15
sa(dp3758
g2
S'../../../data/emanuela/activity-recognition/images/NTCIR-Lifelog-256/u1/2015-03-15/b00000593_21i6bq_20150315_133256e.jpg'
p3759
sg4
(lp3760
(g15
g6
(g18
S'X5r?'
p3761
tp3762
Rp3763
tp3764
a(g32
g6
(g18
S'Q\xbe0='
p3765
tp3766
Rp3767
tp3768
a(g56
g6
(g18
S'$\x075;'
p3769
tp3770
Rp3771
tp3772
a(g209
g6
(g18
S'\xe6\x0e\xc9:'
p3773
tp3774
Rp3775
tp3776
a(g68
g6
(g18
S'S\xc0\x90:'
p3777
tp3778
Rp3779
tp3780
asg73
g15
sa(dp3781
g2
S'../../../data/emanuela/activity-recognition/images/NTCIR-Lifelog-256/u2/2015-04-28/b00006646_21i7lf_20150428_122954e.jpg'
p3782
sg4
(lp3783
(g15
g6
(g18
S'\xc5q\x7f?'
p3784
tp3785
Rp3786
tp3787
a(g104
g6
(g18
S'\xceQ\x8c:'
p3788
tp3789
Rp3790
tp3791
a(g32
g6
(g18
S'\x98n\xfe9'
p3792
tp3793
Rp3794
tp3795
a(g116
g6
(g18
S'\xc0\xb9\x8b9'
p3796
tp3797
Rp3798
tp3799
a(g56
g6
(g18
S'\xcd\x91\x179'
p3800
tp3801
Rp3802
tp3803
asg73
g15
sa(dp3804
g2
S'../../../data/emanuela/activity-recognition/images/NTCIR-Lifelog-256/u3/2015-07-15/b00000252_21i79q_20150715_142705e.jpg'
p3805
sg4
(lp3806
(g32
g6
(g18
S'\x17NW?'
p3807
tp3808
Rp3809
tp3810
a(g15
g6
(g18
S'\x00o\x07>'
p3811
tp3812
Rp3813
tp3814
a(g68
g6
(g18
S'\xac\xa8\x16<'
p3815
tp3816
Rp3817
tp3818
a(g116
g6
(g18
S'\x9b\x13\x0f<'
p3819
tp3820
Rp3821
tp3822
a(g56
g6
(g18
S'\xf1@\x05;'
p3823
tp3824
Rp3825
tp3826
asg73
g15
sa(dp3827
g2
S'../../../data/emanuela/activity-recognition/images/NTCIR-Lifelog-256/u3/2015-06-16/b00000592_21i79q_20150616_175720e.jpg'
p3828
sg4
(lp3829
(g15
g6
(g18
S'\xad\xbf|?'
p3830
tp3831
Rp3832
tp3833
a(g32
g6
(g18
S'\xb7\x99\xad;'
p3834
tp3835
Rp3836
tp3837
a(g116
g6
(g18
S'lny;'
p3838
tp3839
Rp3840
tp3841
a(g68
g6
(g18
S'\x8cOa:'
p3842
tp3843
Rp3844
tp3845
a(g858
g6
(g18
S'a\xd1\x1b:'
p3846
tp3847
Rp3848
tp3849
asg73
g15
sa(dp3850
g2
S'../../../data/emanuela/activity-recognition/images/NTCIR-Lifelog-256/u3/2015-06-18/b00000671_21i79q_20150618_194546e.jpg'
p3851
sg4
(lp3852
(g15
g6
(g18
S's[\x0b?'
p3853
tp3854
Rp3855
tp3856
a(g32
g6
(g18
S'\xe7\xf2y>'
p3857
tp3858
Rp3859
tp3860
a(g68
g6
(g18
S'\xf2\xfc\xa7='
p3861
tp3862
Rp3863
tp3864
a(g209
g6
(g18
S'\xaf\xf9\x89='
p3865
tp3866
Rp3867
tp3868
a(g56
g6
(g18
S'Z\xb6z<'
p3869
tp3870
Rp3871
tp3872
asg73
g15
sa(dp3873
g2
S'../../../data/emanuela/activity-recognition/images/NTCIR-Lifelog-256/u1/2015-03-19/b00001847_21i6bq_20150319_095604e.jpg'
p3874
sg4
(lp3875
(g15
g6
(g18
S'(rb?'
p3876
tp3877
Rp3878
tp3879
a(g92
g6
(g18
S'\xf3\x93\x1a='
p3880
tp3881
Rp3882
tp3883
a(g56
g6
(g18
S'D\xf0\xad<'
p3884
tp3885
Rp3886
tp3887
a(g104
g6
(g18
S'\x01s\xa9<'
p3888
tp3889
Rp3890
tp3891
a(g32
g6
(g18
S',\xb6k<'
p3892
tp3893
Rp3894
tp3895
asg73
g15
sa(dp3896
g2
S'../../../data/emanuela/activity-recognition/images/NTCIR-Lifelog-256/u1/2015-03-15/b00000601_21i6bq_20150315_133301e.jpg'
p3897
sg4
(lp3898
(g15
g6
(g18
S'\x8f=Y?'
p3899
tp3900
Rp3901
tp3902
a(g32
g6
(g18
S'v\x94\xe5='
p3903
tp3904
Rp3905
tp3906
a(g56
g6
(g18
S'\xff\x18I<'
p3907
tp3908
Rp3909
tp3910
a(g68
g6
(g18
S'\xd2\x9a\x10<'
p3911
tp3912
Rp3913
tp3914
a(g209
g6
(g18
S'\t9\x87;'
p3915
tp3916
Rp3917
tp3918
asg73
g15
sa(dp3919
g2
S'../../../data/emanuela/activity-recognition/images/NTCIR-Lifelog-256/u3/2015-07-17/b00000519_21i79q_20150717_181634e.jpg'
p3920
sg4
(lp3921
(g147
g6
(g18
S',\x14\xb6>'
p3922
tp3923
Rp3924
tp3925
a(g15
g6
(g18
S'\xa9^\x97>'
p3926
tp3927
Rp3928
tp3929
a(g32
g6
(g18
S'\xfby\xee='
p3930
tp3931
Rp3932
tp3933
a(g104
g6
(g18
S'\x81s\x9b='
p3934
tp3935
Rp3936
tp3937
a(g92
g6
(g18
S'\x85\xb1l='
p3938
tp3939
Rp3940
tp3941
asg73
g15
sa(dp3942
g2
S'../../../data/emanuela/activity-recognition/images/NTCIR-Lifelog-256/u2/2015-04-27/b00005731_21i7lf_20150427_165757e.jpg'
p3943
sg4
(lp3944
(g15
g6
(g18
S'^Hq?'
p3945
tp3946
Rp3947
tp3948
a(g32
g6
(g18
S'b$\t='
p3949
tp3950
Rp3951
tp3952
a(g92
g6
(g18
S'F@\xfb;'
p3953
tp3954
Rp3955
tp3956
a(g116
g6
(g18
S'\x19F{;'
p3957
tp3958
Rp3959
tp3960
a(g147
g6
(g18
S'\x0e?l;'
p3961
tp3962
Rp3963
tp3964
asg73
g15
sa(dp3965
g2
S'../../../data/emanuela/activity-recognition/images/NTCIR-Lifelog-256/u1/2015-02-24/b00000898_21i6bq_20150224_155008e.jpg'
p3966
sg4
(lp3967
(g15
g6
(g18
S'\xf1\xed~?'
p3968
tp3969
Rp3970
tp3971
a(g32
g6
(g18
S'\xed3`;'
p3972
tp3973
Rp3974
tp3975
a(g104
g6
(g18
S'\x83\xde&9'
p3976
tp3977
Rp3978
tp3979
a(g92
g6
(g18
S'\xbd\x8e\t9'
p3980
tp3981
Rp3982
tp3983
a(g147
g6
(g18
S'\x02\xeb\xfd8'
p3984
tp3985
Rp3986
tp3987
asg73
g15
sa(dp3988
g2
S'../../../data/emanuela/activity-recognition/images/NTCIR-Lifelog-256/u1/2015-03-01/b00000731_21i6bq_20150301_141058e.jpg'
p3989
sg4
(lp3990
(g15
g6
(g18
S'\xee\xebt?'
p3991
tp3992
Rp3993
tp3994
a(g32
g6
(g18
S'%r\xa8<'
p3995
tp3996
Rp3997
tp3998
a(g56
g6
(g18
S'\xd6\\,<'
p3999
tp4000
Rp4001
tp4002
a(g104
g6
(g18
S'\x119\xdf;'
p4003
tp4004
Rp4005
tp4006
a(g858
g6
(g18
S'\xd7\x00\xc7:'
p4007
tp4008
Rp4009
tp4010
asg73
g15
sa(dp4011
g2
S'../../../data/emanuela/activity-recognition/images/NTCIR-Lifelog-256/u2/2015-04-20/b00000280_21i7lf_20150420_122638e.jpg'
p4012
sg4
(lp4013
(g15
g6
(g18
S'Iio?'
p4014
tp4015
Rp4016
tp4017
a(g92
g6
(g18
S'\xa1\x08\x06='
p4018
tp4019
Rp4020
tp4021
a(g104
g6
(g18
S'\xf6\xc76<'
p4022
tp4023
Rp4024
tp4025
a(g209
g6
(g18
S'dr\xc2;'
p4026
tp4027
Rp4028
tp4029
a(g56
g6
(g18
S'\x7f9\xa8;'
p4030
tp4031
Rp4032
tp4033
asg73
g15
sa(dp4034
g2
S'../../../data/emanuela/activity-recognition/images/NTCIR-Lifelog-256/u1/2015-03-15/b00000616_21i6bq_20150315_133916e.jpg'
p4035
sg4
(lp4036
(g15
g6
(g18
S'\xee\xa8y?'
p4037
tp4038
Rp4039
tp4040
a(g32
g6
(g18
S'5\xbe\xb1<'
p4041
tp4042
Rp4043
tp4044
a(g92
g6
(g18
S'\x99\xff=:'
p4045
tp4046
Rp4047
tp4048
a(g116
g6
(g18
S'P!-:'
p4049
tp4050
Rp4051
tp4052
a(g56
g6
(g18
S'\x86r\xcc9'
p4053
tp4054
Rp4055
tp4056
asg73
g15
sa(dp4057
g2
S'../../../data/emanuela/activity-recognition/images/NTCIR-Lifelog-256/u3/2015-06-18/b00000662_21i79q_20150618_194012e.jpg'
p4058
sg4
(lp4059
(g15
g6
(g18
S'J\x10z?'
p4060
tp4061
Rp4062
tp4063
a(g32
g6
(g18
S'\xb4\x01\xa7<'
p4064
tp4065
Rp4066
tp4067
a(g116
g6
(g18
S'\x86D\xb8:'
p4068
tp4069
Rp4070
tp4071
a(g56
g6
(g18
S'{a\xfa9'
p4072
tp4073
Rp4074
tp4075
a(g68
g6
(g18
S'r\x0f\xd99'
p4076
tp4077
Rp4078
tp4079
asg73
g15
sa(dp4080
g2
S'../../../data/emanuela/activity-recognition/images/NTCIR-Lifelog-256/u3/2015-06-28/b00000003_21i79q_20150628_143143e.jpg'
p4081
sg4
(lp4082
(g15
g6
(g18
S'\xe9\xde+?'
p4083
tp4084
Rp4085
tp4086
a(g92
g6
(g18
S')H;>'
p4087
tp4088
Rp4089
tp4090
a(g56
g6
(g18
S'G\xe48='
p4091
tp4092
Rp4093
tp4094
a(g104
g6
(g18
S'r\xfa\x01='
p4095
tp4096
Rp4097
tp4098
a(g147
g6
(g18
S'\xcfW\xe2<'
p4099
tp4100
Rp4101
tp4102
asg73
g15
sa(dp4103
g2
S'../../../data/emanuela/activity-recognition/images/NTCIR-Lifelog-256/u2/2015-04-22/b00001338_21i7lf_20150422_121203e.jpg'
p4104
sg4
(lp4105
(g15
g6
(g18
S'z\x9bm?'
p4106
tp4107
Rp4108
tp4109
a(g56
g6
(g18
S'\x81\x7f\x00='
p4110
tp4111
Rp4112
tp4113
a(g104
g6
(g18
S'(S\xa1<'
p4114
tp4115
Rp4116
tp4117
a(g378
g6
(g18
S's\xb3\x85<'
p4118
tp4119
Rp4120
tp4121
a(g32
g6
(g18
S'\xfe\x11\xe4:'
p4122
tp4123
Rp4124
tp4125
asg73
g15
sa(dp4126
g2
S'../../../data/emanuela/activity-recognition/images/NTCIR-Lifelog-256/u2/2015-06-21/b00005051_21i7lf_20150621_121747e.jpg'
p4127
sg4
(lp4128
(g15
g6
(g18
S'\x07rH?'
p4129
tp4130
Rp4131
tp4132
a(g116
g6
(g18
S'\x1b\x02\xc0='
p4133
tp4134
Rp4135
tp4136
a(g104
g6
(g18
S'\x83tz='
p4137
tp4138
Rp4139
tp4140
a(g56
g6
(g18
S'=e\x84<'
p4141
tp4142
Rp4143
tp4144
a(g147
g6
(g18
S'\xcd\x171<'
p4145
tp4146
Rp4147
tp4148
asg73
g15
sa(dp4149
g2
S'../../../data/emanuela/activity-recognition/images/NTCIR-Lifelog-256/u1/2015-03-14/b00000500_21i6bq_20150314_110746e.jpg'
p4150
sg4
(lp4151
(g15
g6
(g18
S'\xf5\x01v?'
p4152
tp4153
Rp4154
tp4155
a(g32
g6
(g18
S'\xddJw<'
p4156
tp4157
Rp4158
tp4159
a(g116
g6
(g18
S'\x14>\x06<'
p4160
tp4161
Rp4162
tp4163
a(g68
g6
(g18
S'\x80\x83j;'
p4164
tp4165
Rp4166
tp4167
a(g56
g6
(g18
S'\x8b\xf9\x10;'
p4168
tp4169
Rp4170
tp4171
asg73
g15
sa(dp4172
g2
S'../../../data/emanuela/activity-recognition/images/NTCIR-Lifelog-256/u3/2015-06-18/b00000661_21i79q_20150618_193940e.jpg'
p4173
sg4
(lp4174
(g15
g6
(g18
S'\xd2][?'
p4175
tp4176
Rp4177
tp4178
a(g32
g6
(g18
S'\x00\xfc\xdf='
p4179
tp4180
Rp4181
tp4182
a(g116
g6
(g18
S'\xb7s<<'
p4183
tp4184
Rp4185
tp4186
a(g56
g6
(g18
S'\xed\x1f\x93;'
p4187
tp4188
Rp4189
tp4190
a(g68
g6
(g18
S'\xce\xcd\x7f;'
p4191
tp4192
Rp4193
tp4194
asg73
g15
sa(dp4195
g2
S'../../../data/emanuela/activity-recognition/images/NTCIR-Lifelog-256/u1/2015-03-07/b00000499_21i6bq_20150307_114124e.jpg'
p4196
sg4
(lp4197
(g15
g6
(g18
S'\xba\xb6\\?'
p4198
tp4199
Rp4200
tp4201
a(g32
g6
(g18
S'S\xe8\x1c='
p4202
tp4203
Rp4204
tp4205
a(g92
g6
(g18
S'\x1c\xa6\xf2<'
p4206
tp4207
Rp4208
tp4209
a(g104
g6
(g18
S'o\x1b\xa3<'
p4210
tp4211
Rp4212
tp4213
a(g147
g6
(g18
S'w\xfa\x97<'
p4214
tp4215
Rp4216
tp4217
asg73
g15
sa(dp4218
g2
S'../../../data/emanuela/activity-recognition/images/NTCIR-Lifelog-256/u1/2015-03-11/b00000884_21i6bq_20150311_160559e.jpg'
p4219
sg4
(lp4220
(g15
g6
(g18
S'L(\xe4>'
p4221
tp4222
Rp4223
tp4224
a(g104
g6
(g18
S'\xd4O?>'
p4225
tp4226
Rp4227
tp4228
a(g131
g6
(g18
S'\xe0n\xdb='
p4229
tp4230
Rp4231
tp4232
a(g1150
g6
(g18
S'\xb7\x8a\xcd='
p4233
tp4234
Rp4235
tp4236
a(g56
g6
(g18
S'\xcd\x00\x90='
p4237
tp4238
Rp4239
tp4240
asg73
g15
sa(dp4241
g2
S'../../../data/emanuela/activity-recognition/images/NTCIR-Lifelog-256/u2/2015-05-06/b00007029_21i7lf_20150506_165848e.jpg'
p4242
sg4
(lp4243
(g15
g6
(g18
S'v\xd8}?'
p4244
tp4245
Rp4246
tp4247
a(g116
g6
(g18
S'Id\x8b;'
p4248
tp4249
Rp4250
tp4251
a(g32
g6
(g18
S"'\x18\x80;"
p4252
tp4253
Rp4254
tp4255
a(g68
g6
(g18
S'\xad7\x0e9'
p4256
tp4257
Rp4258
tp4259
a(g44
g6
(g18
S'.\x13\x947'
p4260
tp4261
Rp4262
tp4263
asg73
g15
sa(dp4264
g2
S'../../../data/emanuela/activity-recognition/images/NTCIR-Lifelog-256/u1/2015-03-12/b00000167_21i6bq_20150312_090237e.jpg'
p4265
sg4
(lp4266
(g15
g6
(g18
S'\x9e\xf8\xfe>'
p4267
tp4268
Rp4269
tp4270
a(g147
g6
(g18
S'bP|>'
p4271
tp4272
Rp4273
tp4274
a(g92
g6
(g18
S'<\x00\xaa='
p4275
tp4276
Rp4277
tp4278
a(g32
g6
(g18
S'\xe0\xd1\x88='
p4279
tp4280
Rp4281
tp4282
a(g104
g6
(g18
S'\\\x08U='
p4283
tp4284
Rp4285
tp4286
asg73
g15
sa(dp4287
g2
S'../../../data/emanuela/activity-recognition/images/NTCIR-Lifelog-256/u1/2015-03-15/b00000596_21i6bq_20150315_133258e.jpg'
p4288
sg4
(lp4289
(g15
g6
(g18
S'3\x19J?'
p4290
tp4291
Rp4292
tp4293
a(g32
g6
(g18
S'\xa0\xbd3>'
p4294
tp4295
Rp4296
tp4297
a(g56
g6
(g18
S'=l\x1f<'
p4298
tp4299
Rp4300
tp4301
a(g68
g6
(g18
S'\x0c\xe4\x06<'
p4302
tp4303
Rp4304
tp4305
a(g92
g6
(g18
S'\xc4\xe3\x97;'
p4306
tp4307
Rp4308
tp4309
asg73
g15
sa(dp4310
g2
S'../../../data/emanuela/activity-recognition/images/NTCIR-Lifelog-256/u3/2015-07-15/b00000245_21i79q_20150715_142254e.jpg'
p4311
sg4
(lp4312
(g15
g6
(g18
S'h\xfc\x7f?'
p4313
tp4314
Rp4315
tp4316
a(g32
g6
(g18
S'\xeb\xba\xe87'
p4317
tp4318
Rp4319
tp4320
a(g858
g6
(g18
S'D\xd5:7'
p4321
tp4322
Rp4323
tp4324
a(g104
g6
(g18
S'\xa8t\x187'
p4325
tp4326
Rp4327
tp4328
a(g56
g6
(g18
S'\xf4\xb3\r6'
p4329
tp4330
Rp4331
tp4332
asg73
g15
sa(dp4333
g2
S'../../../data/emanuela/activity-recognition/images/NTCIR-Lifelog-256/u1/2015-03-16/b00001728_21i6bq_20150316_085955e.jpg'
p4334
sg4
(lp4335
(g15
g6
(g18
S'\x8e3\x7f?'
p4336
tp4337
Rp4338
tp4339
a(g32
g6
(g18
S'\xad\x97\xc8:'
p4340
tp4341
Rp4342
tp4343
a(g104
g6
(g18
S'\xa4&\xa4:'
p4344
tp4345
Rp4346
tp4347
a(g56
g6
(g18
S'?\x9a:9'
p4348
tp4349
Rp4350
tp4351
a(g378
g6
(g18
S'\xbb\x1df8'
p4352
tp4353
Rp4354
tp4355
asg73
g15
sa(dp4356
g2
S'../../../data/emanuela/activity-recognition/images/NTCIR-Lifelog-256/u2/2015-06-16/b00001353_21i7lf_20150616_072258e.jpg'
p4357
sg4
(lp4358
(g15
g6
(g18
S'(\xa6\x0c?'
p4359
tp4360
Rp4361
tp4362
a(g147
g6
(g18
S'\x1f\x84\x03>'
p4363
tp4364
Rp4365
tp4366
a(g92
g6
(g18
S'[>\xb5='
p4367
tp4368
Rp4369
tp4370
a(g104
g6
(g18
S'S.|='
p4371
tp4372
Rp4373
tp4374
a(g56
g6
(g18
S'-je='
p4375
tp4376
Rp4377
tp4378
asg73
g15
sa(dp4379
g2
S'../../../data/emanuela/activity-recognition/images/NTCIR-Lifelog-256/u3/2015-07-12/b00001705_21i79q_20150712_143900e.jpg'
p4380
sg4
(lp4381
(g15
g6
(g18
S'\xb4!}?'
p4382
tp4383
Rp4384
tp4385
a(g32
g6
(g18
S'<\x03-<'
p4386
tp4387
Rp4388
tp4389
a(g116
g6
(g18
S'\x0e\xc3\xe49'
p4390
tp4391
Rp4392
tp4393
a(g68
g6
(g18
S'~c\x029'
p4394
tp4395
Rp4396
tp4397
a(g56
g6
(g18
S'\xc9K\xb27'
p4398
tp4399
Rp4400
tp4401
asg73
g15
sa(dp4402
g2
S'../../../data/emanuela/activity-recognition/images/NTCIR-Lifelog-256/u2/2015-06-20/b00004330_21i7lf_20150620_101833e.jpg'
p4403
sg4
(lp4404
(g92
g6
(g18
S'\xb4\x9a\xab>'
p4405
tp4406
Rp4407
tp4408
a(g56
g6
(g18
S'(\x87[>'
p4409
tp4410
Rp4411
tp4412
a(g147
g6
(g18
S'\x98\x1d\x02>'
p4413
tp4414
Rp4415
tp4416
a(g15
g6
(g18
S'u\n\xe4='
p4417
tp4418
Rp4419
tp4420
a(g858
g6
(g18
S'0q\xa9='
p4421
tp4422
Rp4423
tp4424
asg73
g15
sa(dp4425
g2
S'../../../data/emanuela/activity-recognition/images/NTCIR-Lifelog-256/u1/2015-03-14/b00000507_21i6bq_20150314_111158e.jpg'
p4426
sg4
(lp4427
(g15
g6
(g18
S'\x90\x91\x1d?'
p4428
tp4429
Rp4430
tp4431
a(g104
g6
(g18
S'\xd4\x11\x96>'
p4432
tp4433
Rp4434
tp4435
a(g147
g6
(g18
S'p\xe7\xcb<'
p4436
tp4437
Rp4438
tp4439
a(g92
g6
(g18
S'\xe5I\xa3<'
p4440
tp4441
Rp4442
tp4443
a(g131
g6
(g18
S'\nec<'
p4444
tp4445
Rp4446
tp4447
asg73
g15
sa(dp4448
g2
S'../../../data/emanuela/activity-recognition/images/NTCIR-Lifelog-256/u3/2015-07-29/b00004049_21i79q_20150729_143319e.jpg'
p4449
sg4
(lp4450
(g15
g6
(g18
S'\xd6\xfc\x7f?'
p4451
tp4452
Rp4453
tp4454
a(g32
g6
(g18
S'c\x7f"8'
p4455
tp4456
Rp4457
tp4458
a(g858
g6
(g18
S'\xba\x10\xc46'
p4459
tp4460
Rp4461
tp4462
a(g68
g6
(g18
S'%\x82\x895'
p4463
tp4464
Rp4465
tp4466
a(g104
g6
(g18
S'\xae\x9685'
p4467
tp4468
Rp4469
tp4470
asg73
g15
sa(dp4471
g2
S'../../../data/emanuela/activity-recognition/images/NTCIR-Lifelog-256/u2/2015-06-18/b00002810_21i7lf_20150618_121156e.jpg'
p4472
sg4
(lp4473
(g15
g6
(g18
S'\xdd%x?'
p4474
tp4475
Rp4476
tp4477
a(g104
g6
(g18
S'\xc2v\xbd<'
p4478
tp4479
Rp4480
tp4481
a(g32
g6
(g18
S'_\xa8\xba;'
p4482
tp4483
Rp4484
tp4485
a(g56
g6
(g18
S'\xf1\x96d:'
p4486
tp4487
Rp4488
tp4489
a(g147
g6
(g18
S'b;\xf79'
p4490
tp4491
Rp4492
tp4493
asg73
g15
sa(dp4494
g2
S'../../../data/emanuela/activity-recognition/images/NTCIR-Lifelog-256/u1/2015-03-05/b00001133_21i6bq_20150305_190911e.jpg'
p4495
sg4
(lp4496
(g15
g6
(g18
S':\xe4}?'
p4497
tp4498
Rp4499
tp4500
a(g32
g6
(g18
S'\xd5!\x96;'
p4501
tp4502
Rp4503
tp4504
a(g858
g6
(g18
S'\xea]\xaa:'
p4505
tp4506
Rp4507
tp4508
a(g92
g6
(g18
S'\xa0O :'
p4509
tp4510
Rp4511
tp4512
a(g104
g6
(g18
S'5\xa4\x10:'
p4513
tp4514
Rp4515
tp4516
asg73
g15
sa(dp4517
g2
S'../../../data/emanuela/activity-recognition/images/NTCIR-Lifelog-256/u1/2015-03-09/b00001071_21i6bq_20150309_181339e.jpg'
p4518
sg4
(lp4519
(g15
g6
(g18
S')Mj?'
p4520
tp4521
Rp4522
tp4523
a(g32
g6
(g18
S' \xcf\x93<'
p4524
tp4525
Rp4526
tp4527
a(g92
g6
(g18
S'\xa2\xb7\x89<'
p4528
tp4529
Rp4530
tp4531
a(g56
g6
(g18
S'\xb6\x05R<'
p4532
tp4533
Rp4534
tp4535
a(g147
g6
(g18
S'\x98\x18\x18<'
p4536
tp4537
Rp4538
tp4539
asg73
g15
sa(dp4540
g2
S'../../../data/emanuela/activity-recognition/images/NTCIR-Lifelog-256/u1/2015-03-16/b00003126_21i6bq_20150316_213152e.jpg'
p4541
sg4
(lp4542
(g56
g6
(g18
S'\xc8\x06a>'
p4543
tp4544
Rp4545
tp4546
a(g104
g6
(g18
S'\xe4\x96@>'
p4547
tp4548
Rp4549
tp4550
a(g147
g6
(g18
S'\x9eE3>'
p4551
tp4552
Rp4553
tp4554
a(g92
g6
(g18
S'\xfb\x03\x1c>'
p4555
tp4556
Rp4557
tp4558
a(g131
g6
(g18
S'O\x18j='
p4559
tp4560
Rp4561
tp4562
asg73
g15
sa(dp4563
g2
S'../../../data/emanuela/activity-recognition/images/NTCIR-Lifelog-256/u1/2015-02-28/b00000563_21i6bq_20150228_114005e.jpg'
p4564
sg4
(lp4565
(g56
g6
(g18
S'\x04\t,>'
p4566
tp4567
Rp4568
tp4569
a(g147
g6
(g18
S'\x90\x8e\x1a>'
p4570
tp4571
Rp4572
tp4573
a(g32
g6
(g18
S'\xa0\xe3\x18>'
p4574
tp4575
Rp4576
tp4577
a(g92
g6
(g18
S'\x98u\x11>'
p4578
tp4579
Rp4580
tp4581
a(g104
g6
(g18
S'\xe1M\x10>'
p4582
tp4583
Rp4584
tp4585
asg73
g15
sa.