(lp0
(dp1
S'image'
p2
S'../../../data/emanuela/activity-recognition/images/NTCIR-Lifelog-256/u1/2015-02-24/b00000713_21i6bq_20150224_135751e.jpg'
p3
sS'result'
p4
(lp5
(cnumpy.core.multiarray
scalar
p6
(cnumpy
dtype
p7
(S'S7'
p8
I0
I1
tp9
Rp10
(I3
S'|'
p11
NNNI7
I1
I0
tp12
bS'talking'
p13
tp14
Rp15
g6
(g7
(S'f4'
p16
I0
I1
tp17
Rp18
(I3
S'<'
p19
NNNI-1
I-1
I0
tp20
bS'\x94\x97}?'
p21
tp22
Rp23
tp24
a(g6
(g7
(S'S7'
p25
I0
I1
tp26
Rp27
(I3
S'|'
p28
NNNI7
I1
I0
tp29
bS'meeting'
p30
tp31
Rp32
g6
(g18
S'\x89W\xbd;'
p33
tp34
Rp35
tp36
a(g6
(g7
(S'S25'
p37
I0
I1
tp38
Rp39
(I3
S'|'
p40
NNNI25
I1
I0
tp41
bS'having meal with somebody'
p42
tp43
Rp44
g6
(g18
S'\x13\xe1\x95:'
p45
tp46
Rp47
tp48
a(g6
(g7
(S'S14'
p49
I0
I1
tp50
Rp51
(I3
S'|'
p52
NNNI14
I1
I0
tp53
bS'walking indoor'
p54
tp55
Rp56
g6
(g18
S'\x1d\xb7\x1e:'
p57
tp58
Rp59
tp60
a(g6
(g7
(S'S11'
p61
I0
I1
tp62
Rp63
(I3
S'|'
p64
NNNI11
I1
I0
tp65
bS'socializing'
p66
tp67
Rp68
g6
(g18
S'\xe9\xd3\x16:'
p69
tp70
Rp71
tp72
asS'label'
p73
g15
sa(dp74
g2
S'../../../data/emanuela/activity-recognition/images/NTCIR-Lifelog-256/u2/2015-04-30/b00001111_21i7lf_20150430_140901e.jpg'
p75
sg4
(lp76
(g15
g6
(g18
S'\x87\x11$?'
p77
tp78
Rp79
tp80
a(g44
g6
(g18
S'\xaeT;>'
p81
tp82
Rp83
tp84
a(g32
g6
(g18
S'n\xef\x16>'
p85
tp86
Rp87
tp88
a(g6
(g7
(S'S8'
p89
I0
I1
tp90
Rp91
(I3
S'|'
p92
NNNI8
I1
I0
tp93
bS'shopping'
p94
tp95
Rp96
g6
(g18
S'O\xf3u<'
p97
tp98
Rp99
tp100
a(g6
(g7
(S'S27'
p101
I0
I1
tp102
Rp103
(I3
S'|'
p104
NNNI27
I1
I0
tp105
bS'having drinks with somebody'
p106
tp107
Rp108
g6
(g18
S'\x19\x1as;'
p109
tp110
Rp111
tp112
asg73
g15
sa(dp113
g2
S'../../../data/emanuela/activity-recognition/images/NTCIR-Lifelog-256/u2/2015-04-23/b00000948_21i7lf_20150423_102840e.jpg'
p114
sg4
(lp115
(g15
g6
(g18
S'\x83\x00p?'
p116
tp117
Rp118
tp119
a(g32
g6
(g18
S'\xcf\xa4F='
p120
tp121
Rp122
tp123
a(g68
g6
(g18
S'e\x0f\xab;'
p124
tp125
Rp126
tp127
a(g44
g6
(g18
S'C\xc3X;'
p128
tp129
Rp130
tp131
a(g6
(g7
(S'S19'
p132
I0
I1
tp133
Rp134
(I3
S'|'
p135
NNNI19
I1
I0
tp136
bS'attending a seminar'
p137
tp138
Rp139
g6
(g18
S'=\xeb\x11;'
p140
tp141
Rp142
tp143
asg73
g15
sa(dp144
g2
S'../../../data/emanuela/activity-recognition/images/NTCIR-Lifelog-256/u2/2015-05-06/b00006819_21i7lf_20150506_144509e.jpg'
p145
sg4
(lp146
(g15
g6
(g18
S'\x971\xfb>'
p147
tp148
Rp149
tp150
a(g56
g6
(g18
S'Q/\x13>'
p151
tp152
Rp153
tp154
a(g108
g6
(g18
S'h\xbd\xe3='
p155
tp156
Rp157
tp158
a(g68
g6
(g18
S'\x91\x85\x9f='
p159
tp160
Rp161
tp162
a(g6
(g7
(S'S7'
p163
I0
I1
tp164
Rp165
(I3
S'|'
p166
NNNI7
I1
I0
tp167
bS'resting'
p168
tp169
Rp170
g6
(g18
S'\x9b\x131='
p171
tp172
Rp173
tp174
asg73
g15
sa(dp175
g2
S'../../../data/emanuela/activity-recognition/images/NTCIR-Lifelog-256/u1/2015-03-18/b00000367_21i6bq_20150318_113748e.jpg'
p176
sg4
(lp177
(g15
g6
(g18
S'\x14\xc1e?'
p178
tp179
Rp180
tp181
a(g44
g6
(g18
S'$+\x15='
p182
tp183
Rp184
tp185
a(g32
g6
(g18
S'`x\x05='
p186
tp187
Rp188
tp189
a(g68
g6
(g18
S'\xc1X\xf6<'
p190
tp191
Rp192
tp193
a(g108
g6
(g18
S'PB\xd5:'
p194
tp195
Rp196
tp197
asg73
g15
sa(dp198
g2
S'../../../data/emanuela/activity-recognition/images/NTCIR-Lifelog-256/u1/2015-03-16/b00001977_21i6bq_20150316_113756e.jpg'
p199
sg4
(lp200
(g15
g6
(g18
S'\xb7\xa5:?'
p201
tp202
Rp203
tp204
a(g32
g6
(g18
S'-\xb9G>'
p205
tp206
Rp207
tp208
a(g68
g6
(g18
S')I\xeb<'
p209
tp210
Rp211
tp212
a(g96
g6
(g18
S'9\xebl<'
p213
tp214
Rp215
tp216
a(g108
g6
(g18
S'\xfbLL<'
p217
tp218
Rp219
tp220
asg73
g15
sa(dp221
g2
S'../../../data/emanuela/activity-recognition/images/NTCIR-Lifelog-256/u2/2015-05-08/b00009237_21i7lf_20150508_151018e.jpg'
p222
sg4
(lp223
(g15
g6
(g18
S'\xcagZ?'
p224
tp225
Rp226
tp227
a(g32
g6
(g18
S'\xb0\x92z='
p228
tp229
Rp230
tp231
a(g6
(g7
(S'S7'
p232
I0
I1
tp233
Rp234
(I3
S'|'
p235
NNNI7
I1
I0
tp236
bS'working'
p237
tp238
Rp239
g6
(g18
S'\x93\xfc\x1e='
p240
tp241
Rp242
tp243
a(g56
g6
(g18
S'\x14\xa5\xd0<'
p244
tp245
Rp246
tp247
a(g6
(g7
(S'S6'
p248
I0
I1
tp249
Rp250
(I3
S'|'
p251
NNNI6
I1
I0
tp252
bS'mobile'
p253
tp254
Rp255
g6
(g18
S'[\x0c\xc5;'
p256
tp257
Rp258
tp259
asg73
g15
sa(dp260
g2
S'../../../data/emanuela/activity-recognition/images/NTCIR-Lifelog-256/u3/2015-06-28/b00000918_21i79q_20150628_230512e.jpg'
p261
sg4
(lp262
(g68
g6
(g18
S'MM\xe9>'
p263
tp264
Rp265
tp266
a(g15
g6
(g18
S'^\xbd\xd9>'
p267
tp268
Rp269
tp270
a(g56
g6
(g18
S'\xf8`D='
p271
tp272
Rp273
tp274
a(g44
g6
(g18
S'\n\xa8\xa1<'
p275
tp276
Rp277
tp278
a(g6
(g7
(S'S2'
p279
I0
I1
tp280
Rp281
(I3
S'|'
p282
NNNI2
I1
I0
tp283
bS'tv'
p284
tp285
Rp286
g6
(g18
S'Y\xa61<'
p287
tp288
Rp289
tp290
asg73
g15
sa(dp291
g2
S'../../../data/emanuela/activity-recognition/images/NTCIR-Lifelog-256/u1/2015-03-06/b00000669_21i6bq_20150306_122546e.jpg'
p292
sg4
(lp293
(g15
g6
(g18
S'(#\xdd>'
p294
tp295
Rp296
tp297
a(g170
g6
(g18
S'3{,>'
p298
tp299
Rp300
tp301
a(g239
g6
(g18
S'\x86.\xd1='
p302
tp303
Rp304
tp305
a(g255
g6
(g18
S'~nz='
p306
tp307
Rp308
tp309
a(g56
g6
(g18
S'\xad\x12G='
p310
tp311
Rp312
tp313
asg73
g15
sa(dp314
g2
S'../../../data/emanuela/activity-recognition/images/NTCIR-Lifelog-256/u1/2015-03-04/b00001236_21i6bq_20150304_195350e.jpg'
p315
sg4
(lp316
(g56
g6
(g18
S'\x8a"m?'
p317
tp318
Rp319
tp320
a(g6
(g7
(S'S24'
p321
I0
I1
tp322
Rp323
(I3
S'|'
p324
NNNI24
I1
I0
tp325
bS'having drinks/meal alone'
p326
tp327
Rp328
g6
(g18
S'6R\x9e<'
p329
tp330
Rp331
tp332
a(g139
g6
(g18
S'Nl\x84<'
p333
tp334
Rp335
tp336
a(g15
g6
(g18
S'\xd4\xb3_<'
p337
tp338
Rp339
tp340
a(g32
g6
(g18
S"'\xcd\xfe;"
p341
tp342
Rp343
tp344
asg73
g15
sa(dp345
g2
S'../../../data/emanuela/activity-recognition/images/NTCIR-Lifelog-256/u3/2015-06-20/b00001226_21i79q_20150620_002938e.jpg'
p346
sg4
(lp347
(g15
g6
(g18
S'X\xff\xc4>'
p348
tp349
Rp350
tp351
a(g68
g6
(g18
S'\xf7\xc7\xaf>'
p352
tp353
Rp354
tp355
a(g44
g6
(g18
S'iP|='
p356
tp357
Rp358
tp359
a(g328
g6
(g18
S'>\xa4X='
p360
tp361
Rp362
tp363
a(g255
g6
(g18
S'\xd8\xfb:='
p364
tp365
Rp366
tp367
asg73
g15
sa(dp368
g2
S'../../../data/emanuela/activity-recognition/images/NTCIR-Lifelog-256/u1/2015-03-15/b00001420_21i6bq_20150315_212913e.jpg'
p369
sg4
(lp370
(g56
g6
(g18
S'\x86BG?'
p371
tp372
Rp373
tp374
a(g96
g6
(g18
S'\xe0\x90\xab='
p375
tp376
Rp377
tp378
a(g6
(g7
(S'S15'
p379
I0
I1
tp380
Rp381
(I3
S'|'
p382
NNNI15
I1
I0
tp383
bS'walking outdoor'
p384
tp385
Rp386
g6
(g18
S'\xadP\x9b='
p387
tp388
Rp389
tp390
a(g108
g6
(g18
S'6\ty<'
p391
tp392
Rp393
tp394
a(g68
g6
(g18
S'\xf1u\x1e<'
p395
tp396
Rp397
tp398
asg73
g15
sa(dp399
g2
S'../../../data/emanuela/activity-recognition/images/NTCIR-Lifelog-256/u1/2015-03-05/b00000722_21i6bq_20150305_140336e.jpg'
p400
sg4
(lp401
(g15
g6
(g18
S'\xa5\xf0y?'
p402
tp403
Rp404
tp405
a(g68
g6
(g18
S'\x14\x97*<'
p406
tp407
Rp408
tp409
a(g32
g6
(g18
S'\x03z\xf5;'
p410
tp411
Rp412
tp413
a(g44
g6
(g18
S'R\x06\x15;'
p414
tp415
Rp416
tp417
a(g6
(g7
(S'S16'
p418
I0
I1
tp419
Rp420
(I3
S'|'
p421
NNNI16
I1
I0
tp422
bS'public transport'
p423
tp424
Rp425
g6
(g18
S'\xf8o\xb7:'
p426
tp427
Rp428
tp429
asg73
g15
sa(dp430
g2
S'../../../data/emanuela/activity-recognition/images/NTCIR-Lifelog-256/u1/2015-02-23/b00000407_21i6bq_20150223_112223e.jpg'
p431
sg4
(lp432
(g15
g6
(g18
S'\xb9q/?'
p433
tp434
Rp435
tp436
a(g32
g6
(g18
S'\xfa\x04\x7f>'
p437
tp438
Rp439
tp440
a(g139
g6
(g18
S'\xff\xf1\xaf<'
p441
tp442
Rp443
tp444
a(g239
g6
(g18
S'w1\xa0<'
p445
tp446
Rp447
tp448
a(g6
(g7
(S'S7'
p449
I0
I1
tp450
Rp451
(I3
S'|'
p452
NNNI7
I1
I0
tp453
bS'reading'
p454
tp455
Rp456
g6
(g18
S'F_.<'
p457
tp458
Rp459
tp460
asg73
g15
sa(dp461
g2
S'../../../data/emanuela/activity-recognition/images/NTCIR-Lifelog-256/u2/2015-04-21/b00000811_21i7lf_20150421_181043e.jpg'
p462
sg4
(lp463
(g56
g6
(g18
S'*\xa2\x05?'
p464
tp465
Rp466
tp467
a(g15
g6
(g18
S'\x08\xfd4>'
p468
tp469
Rp470
tp471
a(g425
g6
(g18
S'\xb5\x88\xce='
p472
tp473
Rp474
tp475
a(g6
(g7
(S'S5'
p476
I0
I1
tp477
Rp478
(I3
S'|'
p479
NNNI5
I1
I0
tp480
bS'plane'
p481
tp482
Rp483
g6
(g18
S'\x19G\xc7='
p484
tp485
Rp486
tp487
a(g456
g6
(g18
S'hs\xd5<'
p488
tp489
Rp490
tp491
asg73
g15
sa(dp492
g2
S'../../../data/emanuela/activity-recognition/images/NTCIR-Lifelog-256/u3/2015-08-01/b00006708_21i79q_20150801_232800e.jpg'
p493
sg4
(lp494
(g15
g6
(g18
S'>\x9b7?'
p495
tp496
Rp497
tp498
a(g44
g6
(g18
S'>\xad\xff='
p499
tp500
Rp501
tp502
a(g32
g6
(g18
S'\x9c\x92\xe0='
p503
tp504
Rp505
tp506
a(g139
g6
(g18
S'\xc9\xf1\x81<'
p507
tp508
Rp509
tp510
a(g456
g6
(g18
S'\x07\xad\x1f<'
p511
tp512
Rp513
tp514
asg73
g15
sa(dp515
g2
S'../../../data/emanuela/activity-recognition/images/NTCIR-Lifelog-256/u2/2015-04-29/b00000269_21i7lf_20150429_101434e.jpg'
p516
sg4
(lp517
(g15
g6
(g18
S'\xe8w(?'
p518
tp519
Rp520
tp521
a(g32
g6
(g18
S'\xb4\xfcO>'
p522
tp523
Rp524
tp525
a(g108
g6
(g18
S'`&\xbf='
p526
tp527
Rp528
tp529
a(g44
g6
(g18
S'O\x85i<'
p530
tp531
Rp532
tp533
a(g68
g6
(g18
S'\xce\x1dD<'
p534
tp535
Rp536
tp537
asg73
g15
sa(dp538
g2
S'../../../data/emanuela/activity-recognition/images/NTCIR-Lifelog-256/u3/2015-08-01/b00006675_21i79q_20150801_231023e.jpg'
p539
sg4
(lp540
(g15
g6
(g18
S'\xb7\xea\r?'
p541
tp542
Rp543
tp544
a(g44
g6
(g18
S'1\x8d4>'
p545
tp546
Rp547
tp548
a(g32
g6
(g18
S'\xb0\x1f\xc8='
p549
tp550
Rp551
tp552
a(g139
g6
(g18
S'y\xe6i='
p553
tp554
Rp555
tp556
a(g328
g6
(g18
S'P\x99+='
p557
tp558
Rp559
tp560
asg73
g15
sa(dp561
g2
S'../../../data/emanuela/activity-recognition/images/NTCIR-Lifelog-256/u1/2015-03-06/b00000606_21i6bq_20150306_114843e.jpg'
p562
sg4
(lp563
(g15
g6
(g18
S'k\xd2{?'
p564
tp565
Rp566
tp567
a(g32
g6
(g18
S'\xa7F\x11<'
p568
tp569
Rp570
tp571
a(g68
g6
(g18
S'\x9d\x0cT;'
p572
tp573
Rp574
tp575
a(g44
g6
(g18
S'x\xfd6;'
p576
tp577
Rp578
tp579
a(g139
g6
(g18
S'\xce\xd0\xc79'
p580
tp581
Rp582
tp583
asg73
g15
sa(dp584
g2
S'../../../data/emanuela/activity-recognition/images/NTCIR-Lifelog-256/u1/2015-03-06/b00000644_21i6bq_20150306_121120e.jpg'
p585
sg4
(lp586
(g15
g6
(g18
S'B{v?'
p587
tp588
Rp589
tp590
a(g32
g6
(g18
S'p@\xa0<'
p591
tp592
Rp593
tp594
a(g68
g6
(g18
S'|dR<'
p595
tp596
Rp597
tp598
a(g44
g6
(g18
S'\x05l-;'
p599
tp600
Rp601
tp602
a(g108
g6
(g18
S'\xa0\xa5\x82:'
p603
tp604
Rp605
tp606
asg73
g15
sa(dp607
g2
S'../../../data/emanuela/activity-recognition/images/NTCIR-Lifelog-256/u1/2015-03-06/b00000642_21i6bq_20150306_121015e.jpg'
p608
sg4
(lp609
(g15
g6
(g18
S'\xac\xc0{?'
p610
tp611
Rp612
tp613
a(g32
g6
(g18
S'\xe7\x15\x0c<'
p614
tp615
Rp616
tp617
a(g68
g6
(g18
S'\xb6\xef\x87;'
p618
tp619
Rp620
tp621
a(g44
g6
(g18
S'5\xbe5;'
p622
tp623
Rp624
tp625
a(g108
g6
(g18
S'\xb3l\xf99'
p626
tp627
Rp628
tp629
asg73
g15
sa(dp630
g2
S'../../../data/emanuela/activity-recognition/images/NTCIR-Lifelog-256/u1/2015-02-23/b00000696_21i6bq_20150223_142304e.jpg'
p631
sg4
(lp632
(g15
g6
(g18
S'X\x7f\\?'
p633
tp634
Rp635
tp636
a(g68
g6
(g18
S'_\xe1\x83='
p637
tp638
Rp639
tp640
a(g56
g6
(g18
S'\x88\xd3\x17='
p641
tp642
Rp643
tp644
a(g425
g6
(g18
S'B\xf6\xab<'
p645
tp646
Rp647
tp648
a(g32
g6
(g18
S'`\xd5O;'
p649
tp650
Rp651
tp652
asg73
g15
sa(dp653
g2
S'../../../data/emanuela/activity-recognition/images/NTCIR-Lifelog-256/u1/2015-03-10/b00000585_21i6bq_20150310_191422e.jpg'
p654
sg4
(lp655
(g15
g6
(g18
S'\xf9\xb88?'
p656
tp657
Rp658
tp659
a(g255
g6
(g18
S'\xe3\xee\xa7='
p660
tp661
Rp662
tp663
a(g239
g6
(g18
S'\xa5\xbf\x84='
p664
tp665
Rp666
tp667
a(g56
g6
(g18
S'\xe1\x82O='
p668
tp669
Rp670
tp671
a(g32
g6
(g18
S' \x03\xac<'
p672
tp673
Rp674
tp675
asg73
g15
sa(dp676
g2
S'../../../data/emanuela/activity-recognition/images/NTCIR-Lifelog-256/u1/2015-03-12/b00001117_21i6bq_20150312_192722e.jpg'
p677
sg4
(lp678
(g15
g6
(g18
S'~\x10+?'
p679
tp680
Rp681
tp682
a(g68
g6
(g18
S'\x90Pe>'
p683
tp684
Rp685
tp686
a(g56
g6
(g18
S'\xf1%\x19='
p687
tp688
Rp689
tp690
a(g96
g6
(g18
S'b\xf2\xac<'
p691
tp692
Rp693
tp694
a(g108
g6
(g18
S'V\xde\x9e<'
p695
tp696
Rp697
tp698
asg73
g15
sa(dp699
g2
S'../../../data/emanuela/activity-recognition/images/NTCIR-Lifelog-256/u3/2015-06-28/b00000921_21i79q_20150628_230725e.jpg'
p700
sg4
(lp701
(g15
g6
(g18
S'\xa8\x9e\xef>'
p702
tp703
Rp704
tp705
a(g68
g6
(g18
S'm}\xd0>'
p706
tp707
Rp708
tp709
a(g286
g6
(g18
S'\x07\xe9\x01='
p710
tp711
Rp712
tp713
a(g56
g6
(g18
S'\xdbA\xdc<'
p714
tp715
Rp716
tp717
a(g44
g6
(g18
S'\x85\xdc\xc2<'
p718
tp719
Rp720
tp721
asg73
g15
sa(dp722
g2
S'../../../data/emanuela/activity-recognition/images/NTCIR-Lifelog-256/u2/2015-04-20/b00000856_21i7lf_20150420_183115e.jpg'
p723
sg4
(lp724
(g68
g6
(g18
S'?\x9dk?'
p725
tp726
Rp727
tp728
a(g15
g6
(g18
S' \xe8\x0c='
p729
tp730
Rp731
tp732
a(g386
g6
(g18
S'\xc7\x9dI<'
p733
tp734
Rp735
tp736
a(g108
g6
(g18
S'\x11\x97/<'
p737
tp738
Rp739
tp740
a(g255
g6
(g18
S'j\xff\xdd;'
p741
tp742
Rp743
tp744
asg73
g15
sa(dp745
g2
S'../../../data/emanuela/activity-recognition/images/NTCIR-Lifelog-256/u2/2015-05-02/b00003479_21i7lf_20150502_190929e.jpg'
p746
sg4
(lp747
(g68
g6
(g18
S'\x9c_\n?'
p748
tp749
Rp750
tp751
a(g44
g6
(g18
S'\x16\x05\xa9>'
p752
tp753
Rp754
tp755
a(g15
g6
(g18
S'\xc7\xd8\xdd='
p756
tp757
Rp758
tp759
a(g56
g6
(g18
S'\xa8/\xaf;'
p760
tp761
Rp762
tp763
a(g32
g6
(g18
S'\x89\xeak;'
p764
tp765
Rp766
tp767
asg73
g15
sa(dp768
g2
S'../../../data/emanuela/activity-recognition/images/NTCIR-Lifelog-256/u1/2015-03-05/b00000666_21i6bq_20150305_132613e.jpg'
p769
sg4
(lp770
(g15
g6
(g18
S'\xb3(C?'
p771
tp772
Rp773
tp774
a(g56
g6
(g18
S'R$J>'
p775
tp776
Rp777
tp778
a(g425
g6
(g18
S'\xab\xc0\x84<'
p779
tp780
Rp781
tp782
a(g68
g6
(g18
S'C~\x03<'
p783
tp784
Rp785
tp786
a(g6
(g7
(S'S19'
p787
I0
I1
tp788
Rp789
(I3
S'|'
p790
NNNI19
I1
I0
tp791
bS'cleaning and chores'
p792
tp793
Rp794
g6
(g18
S'\xaa\xf5\x93;'
p795
tp796
Rp797
tp798
asg73
g15
sa(dp799
g2
S'../../../data/emanuela/activity-recognition/images/NTCIR-Lifelog-256/u2/2015-04-24/b00002251_21i7lf_20150424_122728e.jpg'
p800
sg4
(lp801
(g15
g6
(g18
S'\xd2#\xfd>'
p802
tp803
Rp804
tp805
a(g32
g6
(g18
S'D\xa4|>'
p806
tp807
Rp808
tp809
a(g108
g6
(g18
S"\xc7v'>"
p810
tp811
Rp812
tp813
a(g328
g6
(g18
S'e=\xd7<'
p814
tp815
Rp816
tp817
a(g68
g6
(g18
S'\xb4L\x93<'
p818
tp819
Rp820
tp821
asg73
g15
sa(dp822
g2
S'../../../data/emanuela/activity-recognition/images/NTCIR-Lifelog-256/u2/2015-04-27/b00005415_21i7lf_20150427_134206e.jpg'
p823
sg4
(lp824
(g15
g6
(g18
S'1r\x80>'
p825
tp826
Rp827
tp828
a(g96
g6
(g18
S'\xbd\xe0,>'
p829
tp830
Rp831
tp832
a(g6
(g7
(S'S7'
p833
I0
I1
tp834
Rp835
(I3
S'|'
p836
NNNI7
I1
I0
tp837
bS'cooking'
p838
tp839
Rp840
g6
(g18
S'$\xaf\x0b>'
p841
tp842
Rp843
tp844
a(g328
g6
(g18
S'x\t\x00>'
p845
tp846
Rp847
tp848
a(g794
g6
(g18
S'\x88\x9b\xea='
p849
tp850
Rp851
tp852
asg73
g15
sa(dp853
g2
S'../../../data/emanuela/activity-recognition/images/NTCIR-Lifelog-256/u1/2015-03-16/b00001978_21i6bq_20150316_113836e.jpg'
p854
sg4
(lp855
(g139
g6
(g18
S'\xaa\xc9+>'
p856
tp857
Rp858
tp859
a(g108
g6
(g18
S'\xf38\x17>'
p860
tp861
Rp862
tp863
a(g56
g6
(g18
S'\xe9\x88\xf7='
p864
tp865
Rp866
tp867
a(g44
g6
(g18
S'\x8f\x07\xe6='
p868
tp869
Rp870
tp871
a(g15
g6
(g18
S'\xa5\x96\xdd='
p872
tp873
Rp874
tp875
asg73
g15
sa(dp876
g2
S'../../../data/emanuela/activity-recognition/images/NTCIR-Lifelog-256/u1/2015-03-04/b00000496_21i6bq_20150304_115232e.jpg'
p877
sg4
(lp878
(g15
g6
(g18
S';\x0cd?'
p879
tp880
Rp881
tp882
a(g68
g6
(g18
S'[\xe3\xb6='
p883
tp884
Rp885
tp886
a(g56
g6
(g18
S't\x8f\x7f<'
p887
tp888
Rp889
tp890
a(g32
g6
(g18
S'\x03k*;'
p891
tp892
Rp893
tp894
a(g108
g6
(g18
S'\xfc/\xe29'
p895
tp896
Rp897
tp898
asg73
g15
sa(dp899
g2
S'../../../data/emanuela/activity-recognition/images/NTCIR-Lifelog-256/u1/2015-03-06/b00000782_21i6bq_20150306_133059e.jpg'
p900
sg4
(lp901
(g15
g6
(g18
S'\x18\xeaw?'
p902
tp903
Rp904
tp905
a(g32
g6
(g18
S'\xb3\xe9\xce<'
p906
tp907
Rp908
tp909
a(g68
g6
(g18
S'\x864`;'
p910
tp911
Rp912
tp913
a(g44
g6
(g18
S'\x13\xc6\xa2:'
p914
tp915
Rp916
tp917
a(g139
g6
(g18
S'\xa7t@:'
p918
tp919
Rp920
tp921
asg73
g15
sa(dp922
g2
S'../../../data/emanuela/activity-recognition/images/NTCIR-Lifelog-256/u1/2015-03-06/b00000738_21i6bq_20150306_130603e.jpg'
p923
sg4
(lp924
(g15
g6
(g18
S'\xec\xdcq?'
p925
tp926
Rp927
tp928
a(g32
g6
(g18
S'\xe4\x06\x19='
p929
tp930
Rp931
tp932
a(g68
g6
(g18
S'}\xff\x0f<'
p933
tp934
Rp935
tp936
a(g139
g6
(g18
S'\xd3\n\xa5;'
p937
tp938
Rp939
tp940
a(g44
g6
(g18
S'\xb5\xb1\xed:'
p941
tp942
Rp943
tp944
asg73
g15
sa(dp945
g2
S'../../../data/emanuela/activity-recognition/images/NTCIR-Lifelog-256/u2/2015-04-23/b00001335_21i7lf_20150423_153222e.jpg'
p946
sg4
(lp947
(g32
g6
(g18
S'\xf0\xed\xaa>'
p948
tp949
Rp950
tp951
a(g15
g6
(g18
S'\\\x08\x95>'
p952
tp953
Rp954
tp955
a(g328
g6
(g18
S'\xb3[5>'
p956
tp957
Rp958
tp959
a(g56
g6
(g18
S'\xa8~\x8d='
p960
tp961
Rp962
tp963
a(g255
g6
(g18
S'$AS='
p964
tp965
Rp966
tp967
asg73
g15
sa(dp968
g2
S'../../../data/emanuela/activity-recognition/images/NTCIR-Lifelog-256/u1/2015-03-06/b00000817_21i6bq_20150306_135129e.jpg'
p969
sg4
(lp970
(g15
g6
(g18
S'\xbf\r|?'
p971
tp972
Rp973
tp974
a(g32
g6
(g18
S"\n\xe2'<"
p975
tp976
Rp977
tp978
a(g68
g6
(g18
S'$\x14/;'
p979
tp980
Rp981
tp982
a(g56
g6
(g18
S'\xd9\xb2\x0b:'
p983
tp984
Rp985
tp986
a(g456
g6
(g18
S'\x94\x1d\xd79'
p987
tp988
Rp989
tp990
asg73
g15
sa(dp991
g2
S'../../../data/emanuela/activity-recognition/images/NTCIR-Lifelog-256/u2/2015-04-30/b00000813_21i7lf_20150430_110456e.jpg'
p992
sg4
(lp993
(g15
g6
(g18
S'0\x1cf?'
p994
tp995
Rp996
tp997
a(g32
g6
(g18
S'n4r='
p998
tp999
Rp1000
tp1001
a(g56
g6
(g18
S'\xe3Vd<'
p1002
tp1003
Rp1004
tp1005
a(g68
g6
(g18
S'\x1dK_<'
p1006
tp1007
Rp1008
tp1009
a(g328
g6
(g18
S'\x88/!<'
p1010
tp1011
Rp1012
tp1013
asg73
g15
sa(dp1014
g2
S'../../../data/emanuela/activity-recognition/images/NTCIR-Lifelog-256/u1/2015-03-04/b00001238_21i6bq_20150304_195505e.jpg'
p1015
sg4
(lp1016
(g32
g6
(g18
S'2u\xba>'
p1017
tp1018
Rp1019
tp1020
a(g15
g6
(g18
S'\xab\xc2\xb2>'
p1021
tp1022
Rp1023
tp1024
a(g456
g6
(g18
S'\xeac\x97='
p1025
tp1026
Rp1027
tp1028
a(g56
g6
(g18
S'-\n{='
p1029
tp1030
Rp1031
tp1032
a(g328
g6
(g18
S'm\xd4\xf2<'
p1033
tp1034
Rp1035
tp1036
asg73
g15
sa(dp1037
g2
S'../../../data/emanuela/activity-recognition/images/NTCIR-Lifelog-256/u1/2015-03-05/b00001115_21i6bq_20150305_183515e.jpg'
p1038
sg4
(lp1039
(g15
g6
(g18
S't=d?'
p1040
tp1041
Rp1042
tp1043
a(g32
g6
(g18
S'\xfa\x8fk='
p1044
tp1045
Rp1046
tp1047
a(g239
g6
(g18
S'~5R<'
p1048
tp1049
Rp1050
tp1051
a(g139
g6
(g18
S'\x8f\x95J<'
p1052
tp1053
Rp1054
tp1055
a(g286
g6
(g18
S'd\xec7<'
p1056
tp1057
Rp1058
tp1059
asg73
g15
sa(dp1060
g2
S'../../../data/emanuela/activity-recognition/images/NTCIR-Lifelog-256/u1/2015-02-23/b00000389_21i6bq_20150223_111131e.jpg'
p1061
sg4
(lp1062
(g15
g6
(g18
S':\xef\x01?'
p1063
tp1064
Rp1065
tp1066
a(g239
g6
(g18
S'\x13q\x8a>'
p1067
tp1068
Rp1069
tp1070
a(g32
g6
(g18
S':\x9d\xd0='
p1071
tp1072
Rp1073
tp1074
a(g56
g6
(g18
S'4\x86\xa1='
p1075
tp1076
Rp1077
tp1078
a(g456
g6
(g18
S'\x89\xb4~<'
p1079
tp1080
Rp1081
tp1082
asg73
g15
sa(dp1083
g2
S'../../../data/emanuela/activity-recognition/images/NTCIR-Lifelog-256/u2/2015-05-06/b00006820_21i7lf_20150506_144545e.jpg'
p1084
sg4
(lp1085
(g15
g6
(g18
S'\x88P\xdf>'
p1086
tp1087
Rp1088
tp1089
a(g68
g6
(g18
S'gpW>'
p1090
tp1091
Rp1092
tp1093
a(g32
g6
(g18
S'&\xf7\xf9='
p1094
tp1095
Rp1096
tp1097
a(g108
g6
(g18
S'`RL='
p1098
tp1099
Rp1100
tp1101
a(g794
g6
(g18
S'\x8a@I='
p1102
tp1103
Rp1104
tp1105
asg73
g15
sa(dp1106
g2
S'../../../data/emanuela/activity-recognition/images/NTCIR-Lifelog-256/u2/2015-04-24/b00002262_21i7lf_20150424_123456e.jpg'
p1107
sg4
(lp1108
(g15
g6
(g18
S'\x03Cc?'
p1109
tp1110
Rp1111
tp1112
a(g32
g6
(g18
S'\xa2\xf2\xfa<'
p1113
tp1114
Rp1115
tp1116
a(g68
g6
(g18
S'F\x04\xbf<'
p1117
tp1118
Rp1119
tp1120
a(g328
g6
(g18
S']\xdc\x95<'
p1121
tp1122
Rp1123
tp1124
a(g56
g6
(g18
S'\x87-l<'
p1125
tp1126
Rp1127
tp1128
asg73
g15
sa(dp1129
g2
S'../../../data/emanuela/activity-recognition/images/NTCIR-Lifelog-256/u1/2015-03-05/b00000347_21i6bq_20150305_094837e.jpg'
p1130
sg4
(lp1131
(g15
g6
(g18
S'\xa0j$?'
p1132
tp1133
Rp1134
tp1135
a(g32
g6
(g18
S'\xe8s\xb1>'
p1136
tp1137
Rp1138
tp1139
a(g56
g6
(g18
S'\xc5:k;'
p1140
tp1141
Rp1142
tp1143
a(g139
g6
(g18
S'H\r\xf9:'
p1144
tp1145
Rp1146
tp1147
a(g239
g6
(g18
S'\x0f\xf1\xe6:'
p1148
tp1149
Rp1150
tp1151
asg73
g15
sa(dp1152
g2
S'../../../data/emanuela/activity-recognition/images/NTCIR-Lifelog-256/u1/2015-02-26/b00000878_21i6bq_20150226_153439e.jpg'
p1153
sg4
(lp1154
(g794
g6
(g18
S'\x15$c>'
p1155
tp1156
Rp1157
tp1158
a(g56
g6
(g18
S'\x16\x87\x12>'
p1159
tp1160
Rp1161
tp1162
a(g328
g6
(g18
S'\xf0\xbb\r>'
p1163
tp1164
Rp1165
tp1166
a(g840
g6
(g18
S'\x01u\xfe='
p1167
tp1168
Rp1169
tp1170
a(g15
g6
(g18
S'2b\xc0='
p1171
tp1172
Rp1173
tp1174
asg73
g15
sa(dp1175
g2
S'../../../data/emanuela/activity-recognition/images/NTCIR-Lifelog-256/u1/2015-02-23/b00000131_21i6bq_20150223_082402e.jpg'
p1176
sg4
(lp1177
(g68
g6
(g18
S'\x172\xfe>'
p1178
tp1179
Rp1180
tp1181
a(g15
g6
(g18
S'\xb3\x0e\xe6>'
p1182
tp1183
Rp1184
tp1185
a(g56
g6
(g18
S'\xef\x14\x0e='
p1186
tp1187
Rp1188
tp1189
a(g44
g6
(g18
S'C!\xe0;'
p1190
tp1191
Rp1192
tp1193
a(g108
g6
(g18
S'\xa7ah;'
p1194
tp1195
Rp1196
tp1197
asg73
g15
sa(dp1198
g2
S'../../../data/emanuela/activity-recognition/images/NTCIR-Lifelog-256/u1/2015-03-10/b00000308_21i6bq_20150310_161114e.jpg'
p1199
sg4
(lp1200
(g68
g6
(g18
S'b\x15\x04?'
p1201
tp1202
Rp1203
tp1204
a(g15
g6
(g18
S'\xe0\xba\xd9>'
p1205
tp1206
Rp1207
tp1208
a(g56
g6
(g18
S'\xd3\xce\xe3<'
p1209
tp1210
Rp1211
tp1212
a(g32
g6
(g18
S'l\xc8\xa6<'
p1213
tp1214
Rp1215
tp1216
a(g44
g6
(g18
S'3\xed\x7f;'
p1217
tp1218
Rp1219
tp1220
asg73
g15
sa(dp1221
g2
S'../../../data/emanuela/activity-recognition/images/NTCIR-Lifelog-256/u2/2015-04-28/b00006799_21i7lf_20150428_140335e.jpg'
p1222
sg4
(lp1223
(g15
g6
(g18
S'\xf6\x9ck?'
p1224
tp1225
Rp1226
tp1227
a(g68
g6
(g18
S'\xbb\x11\xb5<'
p1228
tp1229
Rp1230
tp1231
a(g32
g6
(g18
S'\x98\x12\xab<'
p1232
tp1233
Rp1234
tp1235
a(g56
g6
(g18
S'\xd8\xf9\x8d<'
p1236
tp1237
Rp1238
tp1239
a(g328
g6
(g18
S'~"\x11<'
p1240
tp1241
Rp1242
tp1243
asg73
g15
sa(dp1244
g2
S'../../../data/emanuela/activity-recognition/images/NTCIR-Lifelog-256/u2/2015-04-25/b00003593_21i7lf_20150425_190249e.jpg'
p1245
sg4
(lp1246
(g68
g6
(g18
S'\xa9\x81(?'
p1247
tp1248
Rp1249
tp1250
a(g15
g6
(g18
S'r:\xa2>'
p1251
tp1252
Rp1253
tp1254
a(g44
g6
(g18
S'/\x8c7<'
p1255
tp1256
Rp1257
tp1258
a(g386
g6
(g18
S'xK|;'
p1259
tp1260
Rp1261
tp1262
a(g56
g6
(g18
S'0zE;'
p1263
tp1264
Rp1265
tp1266
asg73
g15
sa(dp1267
g2
S'../../../data/emanuela/activity-recognition/images/NTCIR-Lifelog-256/u1/2015-02-24/b00001139_21i6bq_20150224_182008e.jpg'
p1268
sg4
(lp1269
(g15
g6
(g18
S'/\xd6e?'
p1270
tp1271
Rp1272
tp1273
a(g32
g6
(g18
S'\x99&J='
p1274
tp1275
Rp1276
tp1277
a(g56
g6
(g18
S'iG\xbb<'
p1278
tp1279
Rp1280
tp1281
a(g328
g6
(g18
S'\xd8+!<'
p1282
tp1283
Rp1284
tp1285
a(g68
g6
(g18
S'Q\x98\x0c<'
p1286
tp1287
Rp1288
tp1289
asg73
g15
sa(dp1290
g2
S'../../../data/emanuela/activity-recognition/images/NTCIR-Lifelog-256/u3/2015-06-28/b00000922_21i79q_20150628_230805e.jpg'
p1291
sg4
(lp1292
(g68
g6
(g18
S'\xd0\x03\x12?'
p1293
tp1294
Rp1295
tp1296
a(g15
g6
(g18
S'\x0crv>'
p1297
tp1298
Rp1299
tp1300
a(g44
g6
(g18
S'\xa9s\x97='
p1301
tp1302
Rp1303
tp1304
a(g56
g6
(g18
S'\xb8]\xa2<'
p1305
tp1306
Rp1307
tp1308
a(g328
g6
(g18
S'\xbd\x10\x9b<'
p1309
tp1310
Rp1311
tp1312
asg73
g15
sa(dp1313
g2
S'../../../data/emanuela/activity-recognition/images/NTCIR-Lifelog-256/u3/2015-07-24/b00000496_21i79q_20150724_161523e.jpg'
p1314
sg4
(lp1315
(g15
g6
(g18
S'N\x82N?'
p1316
tp1317
Rp1318
tp1319
a(g68
g6
(g18
S'\xb5\x976>'
p1320
tp1321
Rp1322
tp1323
a(g286
g6
(g18
S'<)\x8b;'
p1324
tp1325
Rp1326
tp1327
a(g44
g6
(g18
S'x\xa8c;'
p1328
tp1329
Rp1330
tp1331
a(g32
g6
(g18
S'Y\x1fY;'
p1332
tp1333
Rp1334
tp1335
asg73
g15
sa(dp1336
g2
S'../../../data/emanuela/activity-recognition/images/NTCIR-Lifelog-256/u1/2015-02-23/b00000323_21i6bq_20150223_102927e.jpg'
p1337
sg4
(lp1338
(g44
g6
(g18
S'\xafi\x9d>'
p1339
tp1340
Rp1341
tp1342
a(g108
g6
(g18
S'+\xa3\x87>'
p1343
tp1344
Rp1345
tp1346
a(g328
g6
(g18
S'|`%>'
p1347
tp1348
Rp1349
tp1350
a(g15
g6
(g18
S'\x9a\x7f\xf6='
p1351
tp1352
Rp1353
tp1354
a(g68
g6
(g18
S'\xbe\xa7i='
p1355
tp1356
Rp1357
tp1358
asg73
g15
sa(dp1359
g2
S'../../../data/emanuela/activity-recognition/images/NTCIR-Lifelog-256/u1/2015-03-18/b00000381_21i6bq_20150318_114900e.jpg'
p1360
sg4
(lp1361
(g15
g6
(g18
S'd\x92A?'
p1362
tp1363
Rp1364
tp1365
a(g68
g6
(g18
S'7\x15\x92='
p1366
tp1367
Rp1368
tp1369
a(g32
g6
(g18
S'!\xafo='
p1370
tp1371
Rp1372
tp1373
a(g96
g6
(g18
S'2P0='
p1374
tp1375
Rp1376
tp1377
a(g56
g6
(g18
S'H\xce&='
p1378
tp1379
Rp1380
tp1381
asg73
g15
sa(dp1382
g2
S'../../../data/emanuela/activity-recognition/images/NTCIR-Lifelog-256/u1/2015-02-27/b00000927_21i6bq_20150227_171546e.jpg'
p1383
sg4
(lp1384
(g15
g6
(g18
S'*\xb3O?'
p1385
tp1386
Rp1387
tp1388
a(g32
g6
(g18
S'z\x1e\xe6='
p1389
tp1390
Rp1391
tp1392
a(g68
g6
(g18
S'\xa89\xff<'
p1393
tp1394
Rp1395
tp1396
a(g139
g6
(g18
S'?\xbd\x80<'
p1397
tp1398
Rp1399
tp1400
a(g108
g6
(g18
S'\xb1\xc08<'
p1401
tp1402
Rp1403
tp1404
asg73
g15
sa(dp1405
g2
S'../../../data/emanuela/activity-recognition/images/NTCIR-Lifelog-256/u2/2015-04-28/b00006796_21i7lf_20150428_140144e.jpg'
p1406
sg4
(lp1407
(g15
g6
(g18
S'\x17\x87\x05?'
p1408
tp1409
Rp1410
tp1411
a(g328
g6
(g18
S'g\x97\x00>'
p1412
tp1413
Rp1414
tp1415
a(g170
g6
(g18
S'=\xff\xee='
p1416
tp1417
Rp1418
tp1419
a(g32
g6
(g18
S'\xcd\xd8R='
p1420
tp1421
Rp1422
tp1423
a(g56
g6
(g18
S'|\xa4\xf3<'
p1424
tp1425
Rp1426
tp1427
asg73
g15
sa(dp1428
g2
S'../../../data/emanuela/activity-recognition/images/NTCIR-Lifelog-256/u2/2015-04-29/b00000704_21i7lf_20150429_144649e.jpg'
p1429
sg4
(lp1430
(g15
g6
(g18
S'^\x83\xcb>'
p1431
tp1432
Rp1433
tp1434
a(g328
g6
(g18
S'\xaa\x02h>'
p1435
tp1436
Rp1437
tp1438
a(g44
g6
(g18
S'\xc3;\x16>'
p1439
tp1440
Rp1441
tp1442
a(g108
g6
(g18
S'%\xb9\x89='
p1443
tp1444
Rp1445
tp1446
a(g68
g6
(g18
S'W\x9dw='
p1447
tp1448
Rp1449
tp1450
asg73
g15
sa(dp1451
g2
S'../../../data/emanuela/activity-recognition/images/NTCIR-Lifelog-256/u1/2015-03-04/b00000466_21i6bq_20150304_113336e.jpg'
p1452
sg4
(lp1453
(g15
g6
(g18
S'@\xaei?'
p1454
tp1455
Rp1456
tp1457
a(g32
g6
(g18
S'\xb0\xafI='
p1458
tp1459
Rp1460
tp1461
a(g68
g6
(g18
S'\xe7\x9c\x84<'
p1462
tp1463
Rp1464
tp1465
a(g56
g6
(g18
S'N\x95y<'
p1466
tp1467
Rp1468
tp1469
a(g44
g6
(g18
S'\x94\xc0);'
p1470
tp1471
Rp1472
tp1473
asg73
g15
sa(dp1474
g2
S'../../../data/emanuela/activity-recognition/images/NTCIR-Lifelog-256/u1/2015-03-12/b00001118_21i6bq_20150312_192754e.jpg'
p1475
sg4
(lp1476
(g15
g6
(g18
S'g\xaaV?'
p1477
tp1478
Rp1479
tp1480
a(g68
g6
(g18
S'\xc0\xa3\xe7='
p1481
tp1482
Rp1483
tp1484
a(g56
g6
(g18
S'C\x9f\x96<'
p1485
tp1486
Rp1487
tp1488
a(g108
g6
(g18
S'c\xd3,<'
p1489
tp1490
Rp1491
tp1492
a(g44
g6
(g18
S'\xe3<\xec;'
p1493
tp1494
Rp1495
tp1496
asg73
g15
sa(dp1497
g2
S'../../../data/emanuela/activity-recognition/images/NTCIR-Lifelog-256/u1/2015-02-27/b00000939_21i6bq_20150227_172308e.jpg'
p1498
sg4
(lp1499
(g15
g6
(g18
S'\xe8D\xf5>'
p1500
tp1501
Rp1502
tp1503
a(g44
g6
(g18
S'\xee\x08P>'
p1504
tp1505
Rp1506
tp1507
a(g68
g6
(g18
S'\xe0R\x1a>'
p1508
tp1509
Rp1510
tp1511
a(g108
g6
(g18
S'\xee\x1a\xba='
p1512
tp1513
Rp1514
tp1515
a(g32
g6
(g18
S'\xb3\x8aF='
p1516
tp1517
Rp1518
tp1519
asg73
g15
sa(dp1520
g2
S'../../../data/emanuela/activity-recognition/images/NTCIR-Lifelog-256/u3/2015-06-28/b00000911_21i79q_20150628_230250e.jpg'
p1521
sg4
(lp1522
(g15
g6
(g18
S'1\x0fR?'
p1523
tp1524
Rp1525
tp1526
a(g68
g6
(g18
S'\xccq\x90='
p1527
tp1528
Rp1529
tp1530
a(g56
g6
(g18
S'\x8b\x0e\t='
p1531
tp1532
Rp1533
tp1534
a(g386
g6
(g18
S'\x19\xcc\x83<'
p1535
tp1536
Rp1537
tp1538
a(g170
g6
(g18
S'jw@<'
p1539
tp1540
Rp1541
tp1542
asg73
g15
sa(dp1543
g2
S'../../../data/emanuela/activity-recognition/images/NTCIR-Lifelog-256/u2/2015-04-29/b00000731_21i7lf_20150429_150406e.jpg'
p1544
sg4
(lp1545
(g15
g6
(g18
S'\xec`\xd0>'
p1546
tp1547
Rp1548
tp1549
a(g44
g6
(g18
S'\xd38\xb7>'
p1550
tp1551
Rp1552
tp1553
a(g840
g6
(g18
S'\x1c\x82\xb1='
p1554
tp1555
Rp1556
tp1557
a(g68
g6
(g18
S'\x8ao{='
p1558
tp1559
Rp1560
tp1561
a(g794
g6
(g18
S'\xa42\xc9<'
p1562
tp1563
Rp1564
tp1565
asg73
g15
sa(dp1566
g2
S'../../../data/emanuela/activity-recognition/images/NTCIR-Lifelog-256/u1/2015-02-25/b00000737_21i6bq_20150225_133036e.jpg'
p1567
sg4
(lp1568
(g15
g6
(g18
S'\xf6\xc9{?'
p1569
tp1570
Rp1571
tp1572
a(g32
g6
(g18
S'Kg\x1c<'
p1573
tp1574
Rp1575
tp1576
a(g68
g6
(g18
S'\xe6\xab[;'
p1577
tp1578
Rp1579
tp1580
a(g56
g6
(g18
S'O\xf4-;'
p1581
tp1582
Rp1583
tp1584
a(g44
g6
(g18
S'\x1d\x0c\x18:'
p1585
tp1586
Rp1587
tp1588
asg73
g15
sa(dp1589
g2
S'../../../data/emanuela/activity-recognition/images/NTCIR-Lifelog-256/u1/2015-03-04/b00000281_21i6bq_20150304_093806e.jpg'
p1590
sg4
(lp1591
(g15
g6
(g18
S'\x0c\xe2>?'
p1592
tp1593
Rp1594
tp1595
a(g68
g6
(g18
S't\xbe/>'
p1596
tp1597
Rp1598
tp1599
a(g32
g6
(g18
S'\xe7\xc5@='
p1600
tp1601
Rp1602
tp1603
a(g56
g6
(g18
S'\x03gL<'
p1604
tp1605
Rp1606
tp1607
a(g108
g6
(g18
S'MR#<'
p1608
tp1609
Rp1610
tp1611
asg73
g15
sa(dp1612
g2
S'../../../data/emanuela/activity-recognition/images/NTCIR-Lifelog-256/u3/2015-06-15/b00000049_21i79q_20150615_090811e.jpg'
p1613
sg4
(lp1614
(g15
g6
(g18
S'\xdd\xe6,?'
p1615
tp1616
Rp1617
tp1618
a(g68
g6
(g18
S'\xcd(\x89>'
p1619
tp1620
Rp1621
tp1622
a(g32
g6
(g18
S'\xf23\xef<'
p1623
tp1624
Rp1625
tp1626
a(g44
g6
(g18
S'\xf27\xf6;'
p1627
tp1628
Rp1629
tp1630
a(g56
g6
(g18
S'E\xa2\xbf;'
p1631
tp1632
Rp1633
tp1634
asg73
g15
sa(dp1635
g2
S'../../../data/emanuela/activity-recognition/images/NTCIR-Lifelog-256/u1/2015-03-04/b00000459_21i6bq_20150304_112934e.jpg'
p1636
sg4
(lp1637
(g15
g6
(g18
S'\x9a\xa9@?'
p1638
tp1639
Rp1640
tp1641
a(g32
g6
(g18
S'\xd2(m>'
p1642
tp1643
Rp1644
tp1645
a(g56
g6
(g18
S'\xc8\x1f\xb4;'
p1646
tp1647
Rp1648
tp1649
a(g44
g6
(g18
S'\xb5\xb7\x90;'
p1650
tp1651
Rp1652
tp1653
a(g68
g6
(g18
S'\xaaU{;'
p1654
tp1655
Rp1656
tp1657
asg73
g15
sa(dp1658
g2
S'../../../data/emanuela/activity-recognition/images/NTCIR-Lifelog-256/u2/2015-05-07/b00007563_21i7lf_20150507_111612e.jpg'
p1659
sg4
(lp1660
(g386
g6
(g18
S'\x11\xa3\x9b>'
p1661
tp1662
Rp1663
tp1664
a(g15
g6
(g18
S'\xa5JM>'
p1665
tp1666
Rp1667
tp1668
a(g96
g6
(g18
S'z\xa6\r>'
p1669
tp1670
Rp1671
tp1672
a(g108
g6
(g18
S'JN\xc1='
p1673
tp1674
Rp1675
tp1676
a(g56
g6
(g18
S'[\x92\x8c='
p1677
tp1678
Rp1679
tp1680
asg73
g15
sa(dp1681
g2
S'../../../data/emanuela/activity-recognition/images/NTCIR-Lifelog-256/u1/2015-03-12/b00000818_21i6bq_20150312_161804e.jpg'
p1682
sg4
(lp1683
(g15
g6
(g18
S'q[\xd2>'
p1684
tp1685
Rp1686
tp1687
a(g139
g6
(g18
S'\xd7I.>'
p1688
tp1689
Rp1690
tp1691
a(g68
g6
(g18
S'$\x1b\xcf='
p1692
tp1693
Rp1694
tp1695
a(g44
g6
(g18
S'\x92\x88\xc2='
p1696
tp1697
Rp1698
tp1699
a(g108
g6
(g18
S'\xc4.\xae='
p1700
tp1701
Rp1702
tp1703
asg73
g15
sa(dp1704
g2
S'../../../data/emanuela/activity-recognition/images/NTCIR-Lifelog-256/u1/2015-02-25/b00000349_21i6bq_20150225_093648e.jpg'
p1705
sg4
(lp1706
(g15
g6
(g18
S'\xbd`7?'
p1707
tp1708
Rp1709
tp1710
a(g32
g6
(g18
S'0\xa7\x12>'
p1711
tp1712
Rp1713
tp1714
a(g68
g6
(g18
S'\xac8\x87='
p1715
tp1716
Rp1717
tp1718
a(g44
g6
(g18
S'Z:\xe5<'
p1719
tp1720
Rp1721
tp1722
a(g56
g6
(g18
S'\xe5-\xae<'
p1723
tp1724
Rp1725
tp1726
asg73
g15
sa(dp1727
g2
S'../../../data/emanuela/activity-recognition/images/NTCIR-Lifelog-256/u1/2015-02-26/b00000403_21i6bq_20150226_104455e.jpg'
p1728
sg4
(lp1729
(g15
g6
(g18
S'\xf6ZW?'
p1730
tp1731
Rp1732
tp1733
a(g32
g6
(g18
S'zN\x8c='
p1734
tp1735
Rp1736
tp1737
a(g68
g6
(g18
S'\xd0xc='
p1738
tp1739
Rp1740
tp1741
a(g56
g6
(g18
S'dO$<'
p1742
tp1743
Rp1744
tp1745
a(g96
g6
(g18
S'\x0e\xd8\x15<'
p1746
tp1747
Rp1748
tp1749
asg73
g15
sa(dp1750
g2
S'../../../data/emanuela/activity-recognition/images/NTCIR-Lifelog-256/u2/2015-04-22/b00000583_21i7lf_20150422_184439e.jpg'
p1751
sg4
(lp1752
(g15
g6
(g18
S'o/\xf0>'
p1753
tp1754
Rp1755
tp1756
a(g68
g6
(g18
S'\xdf\x0b\xe3>'
p1757
tp1758
Rp1759
tp1760
a(g56
g6
(g18
S'o3D='
p1761
tp1762
Rp1763
tp1764
a(g44
g6
(g18
S'\x99\xc6e<'
p1765
tp1766
Rp1767
tp1768
a(g32
g6
(g18
S'\x05\x1e7<'
p1769
tp1770
Rp1771
tp1772
asg73
g15
sa(dp1773
g2
S'../../../data/emanuela/activity-recognition/images/NTCIR-Lifelog-256/u1/2015-03-10/b00001977_21i6bq_20150310_112945e.jpg'
p1774
sg4
(lp1775
(g15
g6
(g18
S'\x1c}|?'
p1776
tp1777
Rp1778
tp1779
a(g44
g6
(g18
S'[\x8a\x08<'
p1780
tp1781
Rp1782
tp1783
a(g32
g6
(g18
S'U\xe2n;'
p1784
tp1785
Rp1786
tp1787
a(g68
g6
(g18
S'h8\r:'
p1788
tp1789
Rp1790
tp1791
a(g239
g6
(g18
S'\xab\xb0\xec9'
p1792
tp1793
Rp1794
tp1795
asg73
g15
sa(dp1796
g2
S'../../../data/emanuela/activity-recognition/images/NTCIR-Lifelog-256/u2/2015-05-06/b00007265_21i7lf_20150506_193849e.jpg'
p1797
sg4
(lp1798
(g68
g6
(g18
S'\x01\xfc"?'
p1799
tp1800
Rp1801
tp1802
a(g44
g6
(g18
S'\xc3\x03^>'
p1803
tp1804
Rp1805
tp1806
a(g15
g6
(g18
S'\x00Z\t>'
p1807
tp1808
Rp1809
tp1810
a(g108
g6
(g18
S'_[\xce;'
p1811
tp1812
Rp1813
tp1814
a(g32
g6
(g18
S'$\xec(;'
p1815
tp1816
Rp1817
tp1818
asg73
g15
sa(dp1819
g2
S'../../../data/emanuela/activity-recognition/images/NTCIR-Lifelog-256/u2/2015-04-24/b00002175_21i7lf_20150424_114100e.jpg'
p1820
sg4
(lp1821
(g15
g6
(g18
S'\x0e\x85\x06?'
p1822
tp1823
Rp1824
tp1825
a(g32
g6
(g18
S'\x00\xf1L>'
p1826
tp1827
Rp1828
tp1829
a(g170
g6
(g18
S'l\x93\xd7='
p1830
tp1831
Rp1832
tp1833
a(g328
g6
(g18
S'\xeek\x84='
p1834
tp1835
Rp1836
tp1837
a(g239
g6
(g18
S'\x87\xf8\xda<'
p1838
tp1839
Rp1840
tp1841
asg73
g15
sa(dp1842
g2
S'../../../data/emanuela/activity-recognition/images/NTCIR-Lifelog-256/u1/2015-02-23/b00000360_21i6bq_20150223_105316e.jpg'
p1843
sg4
(lp1844
(g15
g6
(g18
S'\xa0m\xad>'
p1845
tp1846
Rp1847
tp1848
a(g68
g6
(g18
S'\xf7T\x94>'
p1849
tp1850
Rp1851
tp1852
a(g44
g6
(g18
S'\xc6\xef\xe6='
p1853
tp1854
Rp1855
tp1856
a(g139
g6
(g18
S'\xa5\xd5\x99='
p1857
tp1858
Rp1859
tp1860
a(g32
g6
(g18
S'\xe8d\x88='
p1861
tp1862
Rp1863
tp1864
asg73
g15
sa(dp1865
g2
S'../../../data/emanuela/activity-recognition/images/NTCIR-Lifelog-256/u1/2015-02-24/b00000618_21i6bq_20150224_125913e.jpg'
p1866
sg4
(lp1867
(g15
g6
(g18
S'\x13\xdf\x15?'
p1868
tp1869
Rp1870
tp1871
a(g239
g6
(g18
S'\xbe\x93\x9d>'
p1872
tp1873
Rp1874
tp1875
a(g32
g6
(g18
S'\xef\xb8\xd3<'
p1876
tp1877
Rp1878
tp1879
a(g56
g6
(g18
S'\x920\xc8<'
p1880
tp1881
Rp1882
tp1883
a(g328
g6
(g18
S'\xa4\xd2\x81<'
p1884
tp1885
Rp1886
tp1887
asg73
g15
sa(dp1888
g2
S'../../../data/emanuela/activity-recognition/images/NTCIR-Lifelog-256/u2/2015-04-23/b00000945_21i7lf_20150423_102700e.jpg'
p1889
sg4
(lp1890
(g15
g6
(g18
S';Vg?'
p1891
tp1892
Rp1893
tp1894
a(g32
g6
(g18
S'lc\x95='
p1895
tp1896
Rp1897
tp1898
a(g68
g6
(g18
S'\x15\xafG<'
p1899
tp1900
Rp1901
tp1902
a(g44
g6
(g18
S'\xa0\xdd\xed;'
p1903
tp1904
Rp1905
tp1906
a(g456
g6
(g18
S'6(j:'
p1907
tp1908
Rp1909
tp1910
asg73
g15
sa(dp1911
g2
S'../../../data/emanuela/activity-recognition/images/NTCIR-Lifelog-256/u1/2015-03-16/b00001828_21i6bq_20150316_100459e.jpg'
p1912
sg4
(lp1913
(g15
g6
(g18
S'\xf9\x0e8?'
p1914
tp1915
Rp1916
tp1917
a(g139
g6
(g18
S'\x0eJ\xa3='
p1918
tp1919
Rp1920
tp1921
a(g32
g6
(g18
S'\x93\x172='
p1922
tp1923
Rp1924
tp1925
a(g239
g6
(g18
S'\xaf\xf5.='
p1926
tp1927
Rp1928
tp1929
a(g68
g6
(g18
S'd\x01\x04='
p1930
tp1931
Rp1932
tp1933
asg73
g15
sa(dp1934
g2
S'../../../data/emanuela/activity-recognition/images/NTCIR-Lifelog-256/u2/2015-04-28/b00006814_21i7lf_20150428_141204e.jpg'
p1935
sg4
(lp1936
(g15
g6
(g18
S'\x96\xdcS?'
p1937
tp1938
Rp1939
tp1940
a(g68
g6
(g18
S'\xcd\xbb\xd7='
p1941
tp1942
Rp1943
tp1944
a(g328
g6
(g18
S'\xf3\x870='
p1945
tp1946
Rp1947
tp1948
a(g56
g6
(g18
S'\xf1\x97\xe6;'
p1949
tp1950
Rp1951
tp1952
a(g32
g6
(g18
S'\xcd\xbd\xa2;'
p1953
tp1954
Rp1955
tp1956
asg73
g15
sa(dp1957
g2
S'../../../data/emanuela/activity-recognition/images/NTCIR-Lifelog-256/u1/2015-03-09/b00000704_21i6bq_20150309_142616e.jpg'
p1958
sg4
(lp1959
(g15
g6
(g18
S'\x16\x12h?'
p1960
tp1961
Rp1962
tp1963
a(g32
g6
(g18
S't\x04\xb2='
p1964
tp1965
Rp1966
tp1967
a(g456
g6
(g18
S'\x88q\x97;'
p1968
tp1969
Rp1970
tp1971
a(g139
g6
(g18
S'\xb4M9:'
p1972
tp1973
Rp1974
tp1975
a(g239
g6
(g18
S'\x04 \xd19'
p1976
tp1977
Rp1978
tp1979
asg73
g15
sa(dp1980
g2
S'../../../data/emanuela/activity-recognition/images/NTCIR-Lifelog-256/u1/2015-02-24/b00000803_21i6bq_20150224_145204e.jpg'
p1981
sg4
(lp1982
(g15
g6
(g18
S'3\x0ct?'
p1983
tp1984
Rp1985
tp1986
a(g56
g6
(g18
S'~\x8c\xcd<'
p1987
tp1988
Rp1989
tp1990
a(g32
g6
(g18
S'W\x86\x96<'
p1991
tp1992
Rp1993
tp1994
a(g68
g6
(g18
S']\xd0\x9d:'
p1995
tp1996
Rp1997
tp1998
a(g44
g6
(g18
S'\x17\x13K:'
p1999
tp2000
Rp2001
tp2002
asg73
g15
sa(dp2003
g2
S'../../../data/emanuela/activity-recognition/images/NTCIR-Lifelog-256/u1/2015-02-28/b00001028_21i6bq_20150228_171522e.jpg'
p2004
sg4
(lp2005
(g15
g6
(g18
S'\x9a<@?'
p2006
tp2007
Rp2008
tp2009
a(g32
g6
(g18
S'\xc6\x06\x9d='
p2010
tp2011
Rp2012
tp2013
a(g56
g6
(g18
S'M\xb9\x8a='
p2014
tp2015
Rp2016
tp2017
a(g68
g6
(g18
S'\\\xbf\xdb<'
p2018
tp2019
Rp2020
tp2021
a(g108
g6
(g18
S'\xacU\xa5<'
p2022
tp2023
Rp2024
tp2025
asg73
g15
sa(dp2026
g2
S'../../../data/emanuela/activity-recognition/images/NTCIR-Lifelog-256/u3/2015-06-28/b00000923_21i79q_20150628_230842e.jpg'
p2027
sg4
(lp2028
(g15
g6
(g18
S'\xb8\x1c\xd8>'
p2029
tp2030
Rp2031
tp2032
a(g68
g6
(g18
S'\x19P\x83>'
p2033
tp2034
Rp2035
tp2036
a(g170
g6
(g18
S'#\xac\x91='
p2037
tp2038
Rp2039
tp2040
a(g286
g6
(g18
S'\x02\x14Y='
p2041
tp2042
Rp2043
tp2044
a(g328
g6
(g18
S'9\xd8;='
p2045
tp2046
Rp2047
tp2048
asg73
g15
sa(dp2049
g2
S'../../../data/emanuela/activity-recognition/images/NTCIR-Lifelog-256/u1/2015-03-05/b00000973_21i6bq_20150305_165634e.jpg'
p2050
sg4
(lp2051
(g15
g6
(g18
S'8\xf9Q?'
p2052
tp2053
Rp2054
tp2055
a(g32
g6
(g18
S'\x9f\xd1\x0b>'
p2056
tp2057
Rp2058
tp2059
a(g56
g6
(g18
S' \x8f\xa4<'
p2060
tp2061
Rp2062
tp2063
a(g239
g6
(g18
S'\xf3\xd3\xd0;'
p2064
tp2065
Rp2066
tp2067
a(g68
g6
(g18
S'\xe8S\xa9;'
p2068
tp2069
Rp2070
tp2071
asg73
g15
sa(dp2072
g2
S'../../../data/emanuela/activity-recognition/images/NTCIR-Lifelog-256/u1/2015-02-26/b00000612_21i6bq_20150226_125309e.jpg'
p2073
sg4
(lp2074
(g44
g6
(g18
S'\x9bO\xdd>'
p2075
tp2076
Rp2077
tp2078
a(g15
g6
(g18
S'z]\xa6>'
p2079
tp2080
Rp2081
tp2082
a(g68
g6
(g18
S'4\xc4\xcb='
p2083
tp2084
Rp2085
tp2086
a(g32
g6
(g18
S'\xfel\x97='
p2087
tp2088
Rp2089
tp2090
a(g108
g6
(g18
S'\x8c|\x8e<'
p2091
tp2092
Rp2093
tp2094
asg73
g15
sa(dp2095
g2
S'../../../data/emanuela/activity-recognition/images/NTCIR-Lifelog-256/u1/2015-02-23/b00000781_21i6bq_20150223_151855e.jpg'
p2096
sg4
(lp2097
(g15
g6
(g18
S'\x12Tv?'
p2098
tp2099
Rp2100
tp2101
a(g32
g6
(g18
S'ad\xe5<'
p2102
tp2103
Rp2104
tp2105
a(g255
g6
(g18
S'8\x7f\xe3;'
p2106
tp2107
Rp2108
tp2109
a(g239
g6
(g18
S']\x18a:'
p2110
tp2111
Rp2112
tp2113
a(g68
g6
(g18
S'\xdc~\xd59'
p2114
tp2115
Rp2116
tp2117
asg73
g15
sa(dp2118
g2
S'../../../data/emanuela/activity-recognition/images/NTCIR-Lifelog-256/u1/2015-02-23/b00000385_21i6bq_20150223_110910e.jpg'
p2119
sg4
(lp2120
(g15
g6
(g18
S'\xd1iW?'
p2121
tp2122
Rp2123
tp2124
a(g32
g6
(g18
S'_\xf6\x18>'
p2125
tp2126
Rp2127
tp2128
a(g56
g6
(g18
S'g\x07\x84;'
p2129
tp2130
Rp2131
tp2132
a(g44
g6
(g18
S'Fs\xac:'
p2133
tp2134
Rp2135
tp2136
a(g239
g6
(g18
S'\x8c\x08t:'
p2137
tp2138
Rp2139
tp2140
asg73
g15
sa(dp2141
g2
S'../../../data/emanuela/activity-recognition/images/NTCIR-Lifelog-256/u2/2015-04-30/b00001254_21i7lf_20150430_154001e.jpg'
p2142
sg4
(lp2143
(g239
g6
(g18
S'g\x16\x16?'
p2144
tp2145
Rp2146
tp2147
a(g15
g6
(g18
S'o=\xbe>'
p2148
tp2149
Rp2150
tp2151
a(g32
g6
(g18
S'\x81q\xe3<'
p2152
tp2153
Rp2154
tp2155
a(g456
g6
(g18
S'\x8e`M;'
p2156
tp2157
Rp2158
tp2159
a(g328
g6
(g18
S'\xe8|D;'
p2160
tp2161
Rp2162
tp2163
asg73
g15
sa(dp2164
g2
S'../../../data/emanuela/activity-recognition/images/NTCIR-Lifelog-256/u2/2015-04-24/b00002269_21i7lf_20150424_123909e.jpg'
p2165
sg4
(lp2166
(g15
g6
(g18
S'\xe1+V?'
p2167
tp2168
Rp2169
tp2170
a(g328
g6
(g18
S'5:V='
p2171
tp2172
Rp2173
tp2174
a(g56
g6
(g18
S'J\x91\n='
p2175
tp2176
Rp2177
tp2178
a(g68
g6
(g18
S'\xb0\xd7\x02='
p2179
tp2180
Rp2181
tp2182
a(g32
g6
(g18
S'\x98R\xd4<'
p2183
tp2184
Rp2185
tp2186
asg73
g15
sa(dp2187
g2
S'../../../data/emanuela/activity-recognition/images/NTCIR-Lifelog-256/u1/2015-03-11/b00000585_21i6bq_20150311_125301e.jpg'
p2188
sg4
(lp2189
(g15
g6
(g18
S'\xca\xde_?'
p2190
tp2191
Rp2192
tp2193
a(g32
g6
(g18
S'\x17M\x85='
p2194
tp2195
Rp2196
tp2197
a(g68
g6
(g18
S'\x8e\xc8\xf7<'
p2198
tp2199
Rp2200
tp2201
a(g56
g6
(g18
S'\x1b\xf3M<'
p2202
tp2203
Rp2204
tp2205
a(g44
g6
(g18
S'dD\x00<'
p2206
tp2207
Rp2208
tp2209
asg73
g15
sa(dp2210
g2
S'../../../data/emanuela/activity-recognition/images/NTCIR-Lifelog-256/u1/2015-03-06/b00000573_21i6bq_20150306_112901e.jpg'
p2211
sg4
(lp2212
(g15
g6
(g18
S'\x04\x98}?'
p2213
tp2214
Rp2215
tp2216
a(g32
g6
(g18
S'w\xc9v;'
p2217
tp2218
Rp2219
tp2220
a(g68
g6
(g18
S'\xab\xd5Y;'
p2221
tp2222
Rp2223
tp2224
a(g139
g6
(g18
S'\x88\xf6]:'
p2225
tp2226
Rp2227
tp2228
a(g44
g6
(g18
S'\xd2)W:'
p2229
tp2230
Rp2231
tp2232
asg73
g15
sa(dp2233
g2
S'../../../data/emanuela/activity-recognition/images/NTCIR-Lifelog-256/u1/2015-03-10/b00001978_21i6bq_20150310_113017e.jpg'
p2234
sg4
(lp2235
(g15
g6
(g18
S'\xe9\xcb{?'
p2236
tp2237
Rp2238
tp2239
a(g32
g6
(g18
S'\x82\xa7;<'
p2240
tp2241
Rp2242
tp2243
a(g44
g6
(g18
S'\xbe\xdaW;'
p2244
tp2245
Rp2246
tp2247
a(g239
g6
(g18
S'c\x08\xcd9'
p2248
tp2249
Rp2250
tp2251
a(g68
g6
(g18
S'\x84\x97\xb39'
p2252
tp2253
Rp2254
tp2255
asg73
g15
sa(dp2256
g2
S'../../../data/emanuela/activity-recognition/images/NTCIR-Lifelog-256/u1/2015-02-26/b00000431_21i6bq_20150226_110346e.jpg'
p2257
sg4
(lp2258
(g15
g6
(g18
S')\x0cn?'
p2259
tp2260
Rp2261
tp2262
a(g68
g6
(g18
S'\xccT@='
p2263
tp2264
Rp2265
tp2266
a(g32
g6
(g18
S'\\\xbb\x05<'
p2267
tp2268
Rp2269
tp2270
a(g44
g6
(g18
S'\xa1\xcaR;'
p2271
tp2272
Rp2273
tp2274
a(g56
g6
(g18
S'\r\x18M;'
p2275
tp2276
Rp2277
tp2278
asg73
g15
sa(dp2279
g2
S'../../../data/emanuela/activity-recognition/images/NTCIR-Lifelog-256/u1/2015-02-27/b00000965_21i6bq_20150227_174629e.jpg'
p2280
sg4
(lp2281
(g108
g6
(g18
S'\xdd\xfe,?'
p2282
tp2283
Rp2284
tp2285
a(g68
g6
(g18
S'\xe85\xab='
p2286
tp2287
Rp2288
tp2289
a(g32
g6
(g18
S'K\xf8u='
p2290
tp2291
Rp2292
tp2293
a(g328
g6
(g18
S'wIi='
p2294
tp2295
Rp2296
tp2297
a(g15
g6
(g18
S'-qL='
p2298
tp2299
Rp2300
tp2301
asg73
g15
sa(dp2302
g2
S'../../../data/emanuela/activity-recognition/images/NTCIR-Lifelog-256/u1/2015-02-27/b00000925_21i6bq_20150227_171437e.jpg'
p2303
sg4
(lp2304
(g15
g6
(g18
S'\t\xb5\\?'
p2305
tp2306
Rp2307
tp2308
a(g32
g6
(g18
S'\xe5b\x8e='
p2309
tp2310
Rp2311
tp2312
a(g68
g6
(g18
S'\x04\xcd\x9e<'
p2313
tp2314
Rp2315
tp2316
a(g108
g6
(g18
S'v\xcb\x96<'
p2317
tp2318
Rp2319
tp2320
a(g44
g6
(g18
S'\xab\xe2Y<'
p2321
tp2322
Rp2323
tp2324
asg73
g15
sa(dp2325
g2
S'../../../data/emanuela/activity-recognition/images/NTCIR-Lifelog-256/u3/2015-06-15/b00001128_21i79q_20150615_190040e.jpg'
p2326
sg4
(lp2327
(g68
g6
(g18
S'\xe4\xf0\x81>'
p2328
tp2329
Rp2330
tp2331
a(g794
g6
(g18
S'\xbe\xcaY>'
p2332
tp2333
Rp2334
tp2335
a(g15
g6
(g18
S'h\xb4\xec='
p2336
tp2337
Rp2338
tp2339
a(g328
g6
(g18
S'\x0f\x04\xaf='
p2340
tp2341
Rp2342
tp2343
a(g56
g6
(g18
S'\xc4G\xa4='
p2344
tp2345
Rp2346
tp2347
asg73
g15
sa(dp2348
g2
S'../../../data/emanuela/activity-recognition/images/NTCIR-Lifelog-256/u1/2015-03-05/b00000724_21i6bq_20150305_140449e.jpg'
p2349
sg4
(lp2350
(g15
g6
(g18
S'\x03\x07}?'
p2351
tp2352
Rp2353
tp2354
a(g32
g6
(g18
S'?\x95\x19<'
p2355
tp2356
Rp2357
tp2358
a(g44
g6
(g18
S'\xa1\xfa\xbf:'
p2359
tp2360
Rp2361
tp2362
a(g68
g6
(g18
S'\xa3\x02\xbe9'
p2363
tp2364
Rp2365
tp2366
a(g56
g6
(g18
S'M\xcf\xf88'
p2367
tp2368
Rp2369
tp2370
asg73
g15
sa(dp2371
g2
S'../../../data/emanuela/activity-recognition/images/NTCIR-Lifelog-256/u1/2015-03-04/b00001231_21i6bq_20150304_195051e.jpg'
p2372
sg4
(lp2373
(g15
g6
(g18
S'\x82\x89\\?'
p2374
tp2375
Rp2376
tp2377
a(g139
g6
(g18
S'\x1f\x9dU='
p2378
tp2379
Rp2380
tp2381
a(g32
g6
(g18
S'\xda\xd1 ='
p2382
tp2383
Rp2384
tp2385
a(g68
g6
(g18
S'\xcd\xec\xc8<'
p2386
tp2387
Rp2388
tp2389
a(g44
g6
(g18
S'*\xfaO<'
p2390
tp2391
Rp2392
tp2393
asg73
g15
sa(dp2394
g2
S'../../../data/emanuela/activity-recognition/images/NTCIR-Lifelog-256/u1/2015-02-26/b00000436_21i6bq_20150226_110638e.jpg'
p2395
sg4
(lp2396
(g32
g6
(g18
S'\xc0s\x19?'
p2397
tp2398
Rp2399
tp2400
a(g15
g6
(g18
S'\x99\x03\xc0>'
p2401
tp2402
Rp2403
tp2404
a(g239
g6
(g18
S'u\xe1\xe2;'
p2405
tp2406
Rp2407
tp2408
a(g44
g6
(g18
S'\x93\x99\xb3;'
p2409
tp2410
Rp2411
tp2412
a(g56
g6
(g18
S'\xb0\xea\x9b;'
p2413
tp2414
Rp2415
tp2416
asg73
g15
sa(dp2417
g2
S'../../../data/emanuela/activity-recognition/images/NTCIR-Lifelog-256/u1/2015-03-06/b00000614_21i6bq_20150306_115325e.jpg'
p2418
sg4
(lp2419
(g15
g6
(g18
S'.\xeej?'
p2420
tp2421
Rp2422
tp2423
a(g32
g6
(g18
S'\x08\xe6\x0e='
p2424
tp2425
Rp2426
tp2427
a(g68
g6
(g18
S'\xc2\x8b\xc5<'
p2428
tp2429
Rp2430
tp2431
a(g44
g6
(g18
S'\xadk\x7f<'
p2432
tp2433
Rp2434
tp2435
a(g108
g6
(g18
S'\xfe\xb8e;'
p2436
tp2437
Rp2438
tp2439
asg73
g15
sa(dp2440
g2
S'../../../data/emanuela/activity-recognition/images/NTCIR-Lifelog-256/u1/2015-02-24/b00000788_21i6bq_20150224_144249e.jpg'
p2441
sg4
(lp2442
(g15
g6
(g18
S'oY;?'
p2443
tp2444
Rp2445
tp2446
a(g56
g6
(g18
S'\x9bi\x97='
p2447
tp2448
Rp2449
tp2450
a(g68
g6
(g18
S'U\xc2q='
p2451
tp2452
Rp2453
tp2454
a(g32
g6
(g18
S'\x98\x18\x10='
p2455
tp2456
Rp2457
tp2458
a(g44
g6
(g18
S'[\xb2\xe5<'
p2459
tp2460
Rp2461
tp2462
asg73
g15
sa(dp2463
g2
S'../../../data/emanuela/activity-recognition/images/NTCIR-Lifelog-256/u3/2015-06-28/b00000670_21i79q_20150628_204821e.jpg'
p2464
sg4
(lp2465
(g68
g6
(g18
S'\xf0\xccm?'
p2466
tp2467
Rp2468
tp2469
a(g44
g6
(g18
S'\x94\x95O='
p2470
tp2471
Rp2472
tp2473
a(g15
g6
(g18
S'^zn<'
p2474
tp2475
Rp2476
tp2477
a(g108
g6
(g18
S'r\xe0\xff:'
p2478
tp2479
Rp2480
tp2481
a(g286
g6
(g18
S'\xcf\xbf|:'
p2482
tp2483
Rp2484
tp2485
asg73
g15
sa(dp2486
g2
S'../../../data/emanuela/activity-recognition/images/NTCIR-Lifelog-256/u1/2015-03-12/b00001103_21i6bq_20150312_191845e.jpg'
p2487
sg4
(lp2488
(g15
g6
(g18
S'\x8c\x97!?'
p2489
tp2490
Rp2491
tp2492
a(g68
g6
(g18
S'\xb7\xe0\x1e>'
p2493
tp2494
Rp2495
tp2496
a(g32
g6
(g18
S'\x00\xa7\xbf='
p2497
tp2498
Rp2499
tp2500
a(g108
g6
(g18
S'\xa9\\y='
p2501
tp2502
Rp2503
tp2504
a(g56
g6
(g18
S'\x90\x0c\xd9<'
p2505
tp2506
Rp2507
tp2508
asg73
g15
sa(dp2509
g2
S'../../../data/emanuela/activity-recognition/images/NTCIR-Lifelog-256/u3/2015-07-30/b00004851_21i79q_20150730_110438e.jpg'
p2510
sg4
(lp2511
(g15
g6
(g18
S'\xc1*_?'
p2512
tp2513
Rp2514
tp2515
a(g32
g6
(g18
S'p\x88,='
p2516
tp2517
Rp2518
tp2519
a(g68
g6
(g18
S'\xd4\x9f\x04='
p2520
tp2521
Rp2522
tp2523
a(g44
g6
(g18
S'\xf3\x90\x9c<'
p2524
tp2525
Rp2526
tp2527
a(g56
g6
(g18
S'\x88\xf1\x18<'
p2528
tp2529
Rp2530
tp2531
asg73
g15
sa(dp2532
g2
S'../../../data/emanuela/activity-recognition/images/NTCIR-Lifelog-256/u2/2015-04-30/b00001122_21i7lf_20150430_141621e.jpg'
p2533
sg4
(lp2534
(g44
g6
(g18
S'\xa6\xed2?'
p2535
tp2536
Rp2537
tp2538
a(g15
g6
(g18
S'VlE>'
p2539
tp2540
Rp2541
tp2542
a(g32
g6
(g18
S'\x8b\xb6\x05='
p2543
tp2544
Rp2545
tp2546
a(g68
g6
(g18
S'\x8fp\xf8<'
p2547
tp2548
Rp2549
tp2550
a(g139
g6
(g18
S'\x07\xd9\x13<'
p2551
tp2552
Rp2553
tp2554
asg73
g15
sa(dp2555
g2
S'../../../data/emanuela/activity-recognition/images/NTCIR-Lifelog-256/u1/2015-03-05/b00001088_21i6bq_20150305_181755e.jpg'
p2556
sg4
(lp2557
(g15
g6
(g18
S'\x8ft^?'
p2558
tp2559
Rp2560
tp2561
a(g32
g6
(g18
S'dHZ='
p2562
tp2563
Rp2564
tp2565
a(g68
g6
(g18
S'\x81\x8d\xcf<'
p2566
tp2567
Rp2568
tp2569
a(g139
g6
(g18
S':\x07\xba<'
p2570
tp2571
Rp2572
tp2573
a(g44
g6
(g18
S'\xcf\x95\x84<'
p2574
tp2575
Rp2576
tp2577
asg73
g15
sa(dp2578
g2
S'../../../data/emanuela/activity-recognition/images/NTCIR-Lifelog-256/u3/2015-06-15/b00000080_21i79q_20150615_092436e.jpg'
p2579
sg4
(lp2580
(g15
g6
(g18
S'\x9e\x9e\x13?'
p2581
tp2582
Rp2583
tp2584
a(g32
g6
(g18
S'\xc5a\x8c>'
p2585
tp2586
Rp2587
tp2588
a(g139
g6
(g18
S'?\xbb$='
p2589
tp2590
Rp2591
tp2592
a(g68
g6
(g18
S'gg\xd7<'
p2593
tp2594
Rp2595
tp2596
a(g108
g6
(g18
S'\xbeu\xcd<'
p2597
tp2598
Rp2599
tp2600
asg73
g15
sa(dp2601
g2
S'../../../data/emanuela/activity-recognition/images/NTCIR-Lifelog-256/u1/2015-03-15/b00001427_21i6bq_20150315_213451e.jpg'
p2602
sg4
(lp2603
(g15
g6
(g18
S'\xd0\xb7\xb8>'
p2604
tp2605
Rp2606
tp2607
a(g68
g6
(g18
S'\xf3\x10b>'
p2608
tp2609
Rp2610
tp2611
a(g170
g6
(g18
S'\x046Y>'
p2612
tp2613
Rp2614
tp2615
a(g286
g6
(g18
S'\xe4\xc7\xa4='
p2616
tp2617
Rp2618
tp2619
a(g255
g6
(g18
S'\xffcH='
p2620
tp2621
Rp2622
tp2623
asg73
g15
sa(dp2624
g2
S'../../../data/emanuela/activity-recognition/images/NTCIR-Lifelog-256/u1/2015-03-12/b00001120_21i6bq_20150312_192908e.jpg'
p2625
sg4
(lp2626
(g15
g6
(g18
S'a\xe5\xe2>'
p2627
tp2628
Rp2629
tp2630
a(g56
g6
(g18
S'\x8f\xf0Z>'
p2631
tp2632
Rp2633
tp2634
a(g68
g6
(g18
S'\xbc\x89\xcc='
p2635
tp2636
Rp2637
tp2638
a(g108
g6
(g18
S'\x1d\xd8\xc1='
p2639
tp2640
Rp2641
tp2642
a(g44
g6
(g18
S'$\xe6\x8b='
p2643
tp2644
Rp2645
tp2646
asg73
g15
sa(dp2647
g2
S'../../../data/emanuela/activity-recognition/images/NTCIR-Lifelog-256/u1/2015-03-06/b00000726_21i6bq_20150306_125903e.jpg'
p2648
sg4
(lp2649
(g15
g6
(g18
S'p\xf6{?'
p2650
tp2651
Rp2652
tp2653
a(g32
g6
(g18
S'V\x8aU<'
p2654
tp2655
Rp2656
tp2657
a(g68
g6
(g18
S'\xc6\xa1\xee:'
p2658
tp2659
Rp2660
tp2661
a(g44
g6
(g18
S'\xe7\xc2\xd79'
p2662
tp2663
Rp2664
tp2665
a(g139
g6
(g18
S'\xce\x87=9'
p2666
tp2667
Rp2668
tp2669
asg73
g15
sa(dp2670
g2
S'../../../data/emanuela/activity-recognition/images/NTCIR-Lifelog-256/u2/2015-04-29/b00000831_21i7lf_20150429_160648e.jpg'
p2671
sg4
(lp2672
(g15
g6
(g18
S'G \x02?'
p2673
tp2674
Rp2675
tp2676
a(g32
g6
(g18
S'\xc1\x1a\xb3>'
p2677
tp2678
Rp2679
tp2680
a(g456
g6
(g18
S'\\\xa0\xce<'
p2681
tp2682
Rp2683
tp2684
a(g56
g6
(g18
S'-\xf2\xc7<'
p2685
tp2686
Rp2687
tp2688
a(g255
g6
(g18
S'\xd7~\xc2<'
p2689
tp2690
Rp2691
tp2692
asg73
g15
sa(dp2693
g2
S'../../../data/emanuela/activity-recognition/images/NTCIR-Lifelog-256/u1/2015-02-26/b00000895_21i6bq_20150226_154735e.jpg'
p2694
sg4
(lp2695
(g32
g6
(g18
S'\xb3\xe6\xd5>'
p2696
tp2697
Rp2698
tp2699
a(g15
g6
(g18
S'F\xcc\xd1>'
p2700
tp2701
Rp2702
tp2703
a(g68
g6
(g18
S'<\t]='
p2704
tp2705
Rp2706
tp2707
a(g56
g6
(g18
S'\t\xc0Q='
p2708
tp2709
Rp2710
tp2711
a(g239
g6
(g18
S'\x11J\xad<'
p2712
tp2713
Rp2714
tp2715
asg73
g15
sa(dp2716
g2
S'../../../data/emanuela/activity-recognition/images/NTCIR-Lifelog-256/u1/2015-03-05/b00000418_21i6bq_20150305_103907e.jpg'
p2717
sg4
(lp2718
(g68
g6
(g18
S'\xf4\xb0\xbd>'
p2719
tp2720
Rp2721
tp2722
a(g15
g6
(g18
S'\x17\x1a;>'
p2723
tp2724
Rp2725
tp2726
a(g139
g6
(g18
S'\x8c\xc6->'
p2727
tp2728
Rp2729
tp2730
a(g96
g6
(g18
S'I\x19\x9b='
p2731
tp2732
Rp2733
tp2734
a(g44
g6
(g18
S'c\xc2\x8a='
p2735
tp2736
Rp2737
tp2738
asg73
g15
sa(dp2739
g2
S'../../../data/emanuela/activity-recognition/images/NTCIR-Lifelog-256/u2/2015-05-01/b00002150_21i7lf_20150501_125434e.jpg'
p2740
sg4
(lp2741
(g15
g6
(g18
S'\xc1xq?'
p2742
tp2743
Rp2744
tp2745
a(g32
g6
(g18
S'\xf3z$='
p2746
tp2747
Rp2748
tp2749
a(g68
g6
(g18
S'\x93V2<'
p2750
tp2751
Rp2752
tp2753
a(g56
g6
(g18
S'\x0c\x80S;'
p2754
tp2755
Rp2756
tp2757
a(g139
g6
(g18
S'3dF:'
p2758
tp2759
Rp2760
tp2761
asg73
g15
sa(dp2762
g2
S'../../../data/emanuela/activity-recognition/images/NTCIR-Lifelog-256/u1/2015-02-24/b00000706_21i6bq_20150224_135340e.jpg'
p2763
sg4
(lp2764
(g15
g6
(g18
S'B<y?'
p2765
tp2766
Rp2767
tp2768
a(g68
g6
(g18
S'\xef\xd5\xdc;'
p2769
tp2770
Rp2771
tp2772
a(g32
g6
(g18
S'\xa5\xde\xc2;'
p2773
tp2774
Rp2775
tp2776
a(g56
g6
(g18
S'RI\x83;'
p2777
tp2778
Rp2779
tp2780
a(g44
g6
(g18
S'\x0b\xf85;'
p2781
tp2782
Rp2783
tp2784
asg73
g15
sa(dp2785
g2
S'../../../data/emanuela/activity-recognition/images/NTCIR-Lifelog-256/u2/2015-04-28/b00006850_21i7lf_20150428_143344e.jpg'
p2786
sg4
(lp2787
(g15
g6
(g18
S'\xf68\x11?'
p2788
tp2789
Rp2790
tp2791
a(g56
g6
(g18
S'NY\x1f>'
p2792
tp2793
Rp2794
tp2795
a(g32
g6
(g18
S'\xe7,\xab='
p2796
tp2797
Rp2798
tp2799
a(g96
g6
(g18
S'\xc9\x80Y='
p2800
tp2801
Rp2802
tp2803
a(g44
g6
(g18
S'\xa4D\x00='
p2804
tp2805
Rp2806
tp2807
asg73
g15
sa(dp2808
g2
S'../../../data/emanuela/activity-recognition/images/NTCIR-Lifelog-256/u2/2015-05-06/b00006864_21i7lf_20150506_151258e.jpg'
p2809
sg4
(lp2810
(g15
g6
(g18
S'\x88~u?'
p2811
tp2812
Rp2813
tp2814
a(g32
g6
(g18
S'\xf3E\xdf<'
p2815
tp2816
Rp2817
tp2818
a(g68
g6
(g18
S'\x81i\xc9;'
p2819
tp2820
Rp2821
tp2822
a(g239
g6
(g18
S'6\x1e\xcf:'
p2823
tp2824
Rp2825
tp2826
a(g139
g6
(g18
S'\xf8@\xc6:'
p2827
tp2828
Rp2829
tp2830
asg73
g15
sa(dp2831
g2
S'../../../data/emanuela/activity-recognition/images/NTCIR-Lifelog-256/u2/2015-04-23/b00000915_21i7lf_20150423_100849e.jpg'
p2832
sg4
(lp2833
(g56
g6
(g18
S'\xe0\x13\x9b>'
p2834
tp2835
Rp2836
tp2837
a(g794
g6
(g18
S'3J\x80>'
p2838
tp2839
Rp2840
tp2841
a(g15
g6
(g18
S'\xfd\x85j>'
p2842
tp2843
Rp2844
tp2845
a(g68
g6
(g18
S'61H='
p2846
tp2847
Rp2848
tp2849
a(g840
g6
(g18
S'\x06&<='
p2850
tp2851
Rp2852
tp2853
asg73
g15
sa(dp2854
g2
S'../../../data/emanuela/activity-recognition/images/NTCIR-Lifelog-256/u1/2015-02-24/b00000822_21i6bq_20150224_150332e.jpg'
p2855
sg4
(lp2856
(g44
g6
(g18
S'h\xab\xed>'
p2857
tp2858
Rp2859
tp2860
a(g15
g6
(g18
S'\xbey\xa7>'
p2861
tp2862
Rp2863
tp2864
a(g32
g6
(g18
S'\x93<\x15>'
p2865
tp2866
Rp2867
tp2868
a(g68
g6
(g18
S'+\xe6\xba<'
p2869
tp2870
Rp2871
tp2872
a(g56
g6
(g18
S'\xfd?t<'
p2873
tp2874
Rp2875
tp2876
asg73
g15
sa(dp2877
g2
S'../../../data/emanuela/activity-recognition/images/NTCIR-Lifelog-256/u1/2015-03-05/b00000513_21i6bq_20150305_114456e.jpg'
p2878
sg4
(lp2879
(g15
g6
(g18
S'\x89\xbaz?'
p2880
tp2881
Rp2882
tp2883
a(g68
g6
(g18
S'\xb8\x86\xf2;'
p2884
tp2885
Rp2886
tp2887
a(g44
g6
(g18
S'\r\x98\xc4;'
p2888
tp2889
Rp2890
tp2891
a(g32
g6
(g18
S'\xe38\x05;'
p2892
tp2893
Rp2894
tp2895
a(g56
g6
(g18
S'\xb5\xa9\xda:'
p2896
tp2897
Rp2898
tp2899
asg73
g15
sa(dp2900
g2
S'../../../data/emanuela/activity-recognition/images/NTCIR-Lifelog-256/u1/2015-03-06/b00000558_21i6bq_20150306_112009e.jpg'
p2901
sg4
(lp2902
(g15
g6
(g18
S'a\x0fx?'
p2903
tp2904
Rp2905
tp2906
a(g32
g6
(g18
S'\xb2\xa2\x83<'
p2907
tp2908
Rp2909
tp2910
a(g68
g6
(g18
S'\xdc\xdb\x1b<'
p2911
tp2912
Rp2913
tp2914
a(g44
g6
(g18
S'\xf9\x01\x0b;'
p2915
tp2916
Rp2917
tp2918
a(g108
g6
(g18
S'\xad*\x91:'
p2919
tp2920
Rp2921
tp2922
asg73
g15
sa(dp2923
g2
S'../../../data/emanuela/activity-recognition/images/NTCIR-Lifelog-256/u2/2015-05-06/b00006906_21i7lf_20150506_153900e.jpg'
p2924
sg4
(lp2925
(g32
g6
(g18
S'Z\x88H?'
p2926
tp2927
Rp2928
tp2929
a(g15
g6
(g18
S'\x89;\xec='
p2930
tp2931
Rp2932
tp2933
a(g239
g6
(g18
S'\x12\xca{='
p2934
tp2935
Rp2936
tp2937
a(g456
g6
(g18
S's\x15\xb1<'
p2938
tp2939
Rp2940
tp2941
a(g108
g6
(g18
S'\rw\xc1;'
p2942
tp2943
Rp2944
tp2945
asg73
g15
sa(dp2946
g2
S'../../../data/emanuela/activity-recognition/images/NTCIR-Lifelog-256/u1/2015-03-06/b00000549_21i6bq_20150306_111501e.jpg'
p2947
sg4
(lp2948
(g15
g6
(g18
S'.j{?'
p2949
tp2950
Rp2951
tp2952
a(g68
g6
(g18
S'y\xc3%<'
p2953
tp2954
Rp2955
tp2956
a(g32
g6
(g18
S'\xb6\x14\xad;'
p2957
tp2958
Rp2959
tp2960
a(g44
g6
(g18
S'*\xef\xb8:'
p2961
tp2962
Rp2963
tp2964
a(g108
g6
(g18
S'\x0f\x9c\xee9'
p2965
tp2966
Rp2967
tp2968
asg73
g15
sa(dp2969
g2
S'../../../data/emanuela/activity-recognition/images/NTCIR-Lifelog-256/u1/2015-03-06/b00000816_21i6bq_20150306_135057e.jpg'
p2970
sg4
(lp2971
(g15
g6
(g18
S'\x8b\xebx?'
p2972
tp2973
Rp2974
tp2975
a(g32
g6
(g18
S'90|<'
p2976
tp2977
Rp2978
tp2979
a(g68
g6
(g18
S'z\x9a\xbd;'
p2980
tp2981
Rp2982
tp2983
a(g139
g6
(g18
S'\xb0\xfd;;'
p2984
tp2985
Rp2986
tp2987
a(g56
g6
(g18
S'\xe9t\xcb:'
p2988
tp2989
Rp2990
tp2991
asg73
g15
sa(dp2992
g2
S'../../../data/emanuela/activity-recognition/images/NTCIR-Lifelog-256/u1/2015-03-15/b00000869_21i6bq_20150315_160346e.jpg'
p2993
sg4
(lp2994
(g328
g6
(g18
S'=\xa3\t?'
p2995
tp2996
Rp2997
tp2998
a(g44
g6
(g18
S"\xcdv'>"
p2999
tp3000
Rp3001
tp3002
a(g456
g6
(g18
S'~\xe0\xf7='
p3003
tp3004
Rp3005
tp3006
a(g255
g6
(g18
S'\xf1\xeeN='
p3007
tp3008
Rp3009
tp3010
a(g170
g6
(g18
S'\x83\x0e\xf6<'
p3011
tp3012
Rp3013
tp3014
asg73
g15
sa(dp3015
g2
S'../../../data/emanuela/activity-recognition/images/NTCIR-Lifelog-256/u3/2015-08-01/b00006746_21i79q_20150801_234823e.jpg'
p3016
sg4
(lp3017
(g15
g6
(g18
S'g\x15\xd4>'
p3018
tp3019
Rp3020
tp3021
a(g44
g6
(g18
S'\xb3\x86\xad>'
p3022
tp3023
Rp3024
tp3025
a(g32
g6
(g18
S'\xad\xc2u='
p3026
tp3027
Rp3028
tp3029
a(g328
g6
(g18
S'"\x81_='
p3030
tp3031
Rp3032
tp3033
a(g139
g6
(g18
S'\xc1\xa8\x17='
p3034
tp3035
Rp3036
tp3037
asg73
g15
sa(dp3038
g2
S'../../../data/emanuela/activity-recognition/images/NTCIR-Lifelog-256/u1/2015-02-28/b00001031_21i6bq_20150228_171658e.jpg'
p3039
sg4
(lp3040
(g15
g6
(g18
S'\x81\x9f\x05?'
p3041
tp3042
Rp3043
tp3044
a(g68
g6
(g18
S'\xc0\xd5!>'
p3045
tp3046
Rp3047
tp3048
a(g108
g6
(g18
S'\x07\xc5\xf6='
p3049
tp3050
Rp3051
tp3052
a(g56
g6
(g18
S'D\xb1\xa9='
p3053
tp3054
Rp3055
tp3056
a(g32
g6
(g18
S'E\xccQ='
p3057
tp3058
Rp3059
tp3060
asg73
g15
sa(dp3061
g2
S'../../../data/emanuela/activity-recognition/images/NTCIR-Lifelog-256/u3/2015-06-20/b00001224_21i79q_20150620_002825e.jpg'
p3062
sg4
(lp3063
(g68
g6
(g18
S'\x93+\x1f?'
p3064
tp3065
Rp3066
tp3067
a(g56
g6
(g18
S'\x8d\x8c:>'
p3068
tp3069
Rp3070
tp3071
a(g15
g6
(g18
S'\xed..>'
p3072
tp3073
Rp3074
tp3075
a(g108
g6
(g18
S'\xf2rR<'
p3076
tp3077
Rp3078
tp3079
a(g44
g6
(g18
S'\xb7\x1ax;'
p3080
tp3081
Rp3082
tp3083
asg73
g15
sa(dp3084
g2
S'../../../data/emanuela/activity-recognition/images/NTCIR-Lifelog-256/u3/2015-06-15/b00000070_21i79q_20150615_091925e.jpg'
p3085
sg4
(lp3086
(g15
g6
(g18
S'b\xd4\x18?'
p3087
tp3088
Rp3089
tp3090
a(g68
g6
(g18
S'\xb6\xa3\x97>'
p3091
tp3092
Rp3093
tp3094
a(g32
g6
(g18
S'r\xf3\xa2='
p3095
tp3096
Rp3097
tp3098
a(g44
g6
(g18
S'\x89\xe5\x15<'
p3099
tp3100
Rp3101
tp3102
a(g56
g6
(g18
S'o3\xc3;'
p3103
tp3104
Rp3105
tp3106
asg73
g15
sa(dp3107
g2
S'../../../data/emanuela/activity-recognition/images/NTCIR-Lifelog-256/u1/2015-02-27/b00000946_21i6bq_20150227_173345e.jpg'
p3108
sg4
(lp3109
(g15
g6
(g18
S'\x13\xb5\x04?'
p3110
tp3111
Rp3112
tp3113
a(g32
g6
(g18
S'\xcf\xa3W>'
p3114
tp3115
Rp3116
tp3117
a(g68
g6
(g18
S'\x05\x07\xa0='
p3118
tp3119
Rp3120
tp3121
a(g139
g6
(g18
S'\xd4\x92y='
p3122
tp3123
Rp3124
tp3125
a(g44
g6
(g18
S'\xaa\x8e3='
p3126
tp3127
Rp3128
tp3129
asg73
g15
sa(dp3130
g2
S'../../../data/emanuela/activity-recognition/images/NTCIR-Lifelog-256/u1/2015-02-25/b00001071_21i6bq_20150225_170901e.jpg'
p3131
sg4
(lp3132
(g56
g6
(g18
S'\xefh\xd9>'
p3133
tp3134
Rp3135
tp3136
a(g15
g6
(g18
S'i\xaa\xbb>'
p3137
tp3138
Rp3139
tp3140
a(g32
g6
(g18
S'\xb2+\xa6='
p3141
tp3142
Rp3143
tp3144
a(g328
g6
(g18
S'\xfd\xae\xec<'
p3145
tp3146
Rp3147
tp3148
a(g96
g6
(g18
S'Fa\xec<'
p3149
tp3150
Rp3151
tp3152
asg73
g15
sa(dp3153
g2
S'../../../data/emanuela/activity-recognition/images/NTCIR-Lifelog-256/u1/2015-03-06/b00000750_21i6bq_20150306_131252e.jpg'
p3154
sg4
(lp3155
(g15
g6
(g18
S'\xd7\xc9^?'
p3156
tp3157
Rp3158
tp3159
a(g32
g6
(g18
S'\xa8\x93.='
p3160
tp3161
Rp3162
tp3163
a(g68
g6
(g18
S'D\x0e\x04='
p3164
tp3165
Rp3166
tp3167
a(g456
g6
(g18
S'\xe7\xcb:<'
p3168
tp3169
Rp3170
tp3171
a(g44
g6
(g18
S'\xc4\x84+<'
p3172
tp3173
Rp3174
tp3175
asg73
g15
sa(dp3176
g2
S'../../../data/emanuela/activity-recognition/images/NTCIR-Lifelog-256/u2/2015-04-28/b00006852_21i7lf_20150428_143452e.jpg'
p3177
sg4
(lp3178
(g15
g6
(g18
S'\xe1J\x1b?'
p3179
tp3180
Rp3181
tp3182
a(g32
g6
(g18
S'L\x0b\xf3='
p3183
tp3184
Rp3185
tp3186
a(g56
g6
(g18
S'\xf0!\xaa='
p3187
tp3188
Rp3189
tp3190
a(g96
g6
(g18
S'jIY='
p3191
tp3192
Rp3193
tp3194
a(g44
g6
(g18
S'T@@='
p3195
tp3196
Rp3197
tp3198
asg73
g15
sa(dp3199
g2
S'../../../data/emanuela/activity-recognition/images/NTCIR-Lifelog-256/u1/2015-03-04/b00000741_21i6bq_20150304_143409e.jpg'
p3200
sg4
(lp3201
(g15
g6
(g18
S'KRk?'
p3202
tp3203
Rp3204
tp3205
a(g239
g6
(g18
S'*y\xd0<'
p3206
tp3207
Rp3208
tp3209
a(g32
g6
(g18
S'\x06\xf2R<'
p3210
tp3211
Rp3212
tp3213
a(g255
g6
(g18
S',\xf9\x18<'
p3214
tp3215
Rp3216
tp3217
a(g96
g6
(g18
S'\xe5U\xb5;'
p3218
tp3219
Rp3220
tp3221
asg73
g15
sa(dp3222
g2
S'../../../data/emanuela/activity-recognition/images/NTCIR-Lifelog-256/u3/2015-08-01/b00006750_21i79q_20150801_235029e.jpg'
p3223
sg4
(lp3224
(g15
g6
(g18
S'b`\r?'
p3225
tp3226
Rp3227
tp3228
a(g44
g6
(g18
S'\xc7\x89\x84>'
p3229
tp3230
Rp3231
tp3232
a(g139
g6
(g18
S'\xe4\xe8\x1a='
p3233
tp3234
Rp3235
tp3236
a(g328
g6
(g18
S'\x16,\x1a='
p3237
tp3238
Rp3239
tp3240
a(g32
g6
(g18
S'ZH\x16='
p3241
tp3242
Rp3243
tp3244
asg73
g15
sa(dp3245
g2
S'../../../data/emanuela/activity-recognition/images/NTCIR-Lifelog-256/u1/2015-02-25/b00000759_21i6bq_20150225_134359e.jpg'
p3246
sg4
(lp3247
(g15
g6
(g18
S'`[q?'
p3248
tp3249
Rp3250
tp3251
a(g32
g6
(g18
S'Z\xeb9='
p3252
tp3253
Rp3254
tp3255
a(g68
g6
(g18
S'\x83[\x01<'
p3256
tp3257
Rp3258
tp3259
a(g56
g6
(g18
S'\x9f\xf5\xad:'
p3260
tp3261
Rp3262
tp3263
a(g44
g6
(g18
S'\xcc\xfe\x9b:'
p3264
tp3265
Rp3266
tp3267
asg73
g15
sa(dp3268
g2
S'../../../data/emanuela/activity-recognition/images/NTCIR-Lifelog-256/u1/2015-03-06/b00000796_21i6bq_20150306_133900e.jpg'
p3269
sg4
(lp3270
(g15
g6
(g18
S'{\x88y?'
p3271
tp3272
Rp3273
tp3274
a(g32
g6
(g18
S'\xa1\xa2\x9d<'
p3275
tp3276
Rp3277
tp3278
a(g68
g6
(g18
S'\x03\xff5;'
p3279
tp3280
Rp3281
tp3282
a(g44
g6
(g18
S'\x01\x91\xcd:'
p3283
tp3284
Rp3285
tp3286
a(g139
g6
(g18
S'1\xba!:'
p3287
tp3288
Rp3289
tp3290
asg73
g15
sa(dp3291
g2
S'../../../data/emanuela/activity-recognition/images/NTCIR-Lifelog-256/u1/2015-02-28/b00000869_21i6bq_20150228_150009e.jpg'
p3292
sg4
(lp3293
(g15
g6
(g18
S'\xbc\xa7\xda>'
p3294
tp3295
Rp3296
tp3297
a(g32
g6
(g18
S'\x10;\x84>'
p3298
tp3299
Rp3300
tp3301
a(g56
g6
(g18
S'\x1fF\x1d>'
p3302
tp3303
Rp3304
tp3305
a(g96
g6
(g18
S'\x01]g='
p3306
tp3307
Rp3308
tp3309
a(g328
g6
(g18
S'56\r='
p3310
tp3311
Rp3312
tp3313
asg73
g15
sa(dp3314
g2
S'../../../data/emanuela/activity-recognition/images/NTCIR-Lifelog-256/u2/2015-04-28/b00006783_21i7lf_20150428_135345e.jpg'
p3315
sg4
(lp3316
(g15
g6
(g18
S'\x8f\x98n?'
p3317
tp3318
Rp3319
tp3320
a(g68
g6
(g18
S'9\x12\xb9<'
p3321
tp3322
Rp3323
tp3324
a(g56
g6
(g18
S'#\xd8P<'
p3325
tp3326
Rp3327
tp3328
a(g32
g6
(g18
S'\xec\x1e@<'
p3329
tp3330
Rp3331
tp3332
a(g328
g6
(g18
S'\xbc\xc1;<'
p3333
tp3334
Rp3335
tp3336
asg73
g15
sa(dp3337
g2
S'../../../data/emanuela/activity-recognition/images/NTCIR-Lifelog-256/u1/2015-02-26/b00000305_21i6bq_20150226_092938e.jpg'
p3338
sg4
(lp3339
(g15
g6
(g18
S'\xaf\xddy?'
p3340
tp3341
Rp3342
tp3343
a(g32
g6
(g18
S'A[4<'
p3344
tp3345
Rp3346
tp3347
a(g68
g6
(g18
S'\x95\xc2\x0f<'
p3348
tp3349
Rp3350
tp3351
a(g56
g6
(g18
S'\xe3\x1a";'
p3352
tp3353
Rp3354
tp3355
a(g44
g6
(g18
S'\xa9\x9dh:'
p3356
tp3357
Rp3358
tp3359
asg73
g15
sa(dp3360
g2
S'../../../data/emanuela/activity-recognition/images/NTCIR-Lifelog-256/u2/2015-04-24/b00002266_21i7lf_20150424_123722e.jpg'
p3361
sg4
(lp3362
(g15
g6
(g18
S'=HU?'
p3363
tp3364
Rp3365
tp3366
a(g68
g6
(g18
S'\xfawQ='
p3367
tp3368
Rp3369
tp3370
a(g56
g6
(g18
S'0y\n='
p3371
tp3372
Rp3373
tp3374
a(g328
g6
(g18
S'\xa4)\t='
p3375
tp3376
Rp3377
tp3378
a(g32
g6
(g18
S'\xbcH\xf3<'
p3379
tp3380
Rp3381
tp3382
asg73
g15
sa(dp3383
g2
S'../../../data/emanuela/activity-recognition/images/NTCIR-Lifelog-256/u1/2015-03-06/b00000762_21i6bq_20150306_131952e.jpg'
p3384
sg4
(lp3385
(g15
g6
(g18
S':7\x7f?'
p3386
tp3387
Rp3388
tp3389
a(g32
g6
(g18
S'Wz\x08;'
p3390
tp3391
Rp3392
tp3393
a(g68
g6
(g18
S'\xccD\x00:'
p3394
tp3395
Rp3396
tp3397
a(g44
g6
(g18
S'\x93\xfcS9'
p3398
tp3399
Rp3400
tp3401
a(g239
g6
(g18
S'6\x02\x988'
p3402
tp3403
Rp3404
tp3405
asg73
g15
sa(dp3406
g2
S'../../../data/emanuela/activity-recognition/images/NTCIR-Lifelog-256/u1/2015-02-28/b00000876_21i6bq_20150228_150423e.jpg'
p3407
sg4
(lp3408
(g15
g6
(g18
S'I\x148?'
p3409
tp3410
Rp3411
tp3412
a(g32
g6
(g18
S'\x91\xd6Y>'
p3413
tp3414
Rp3415
tp3416
a(g56
g6
(g18
S'H;\xdb<'
p3417
tp3418
Rp3419
tp3420
a(g96
g6
(g18
S'a\xe2E<'
p3421
tp3422
Rp3423
tp3424
a(g328
g6
(g18
S'\xf3\x87\x0e<'
p3425
tp3426
Rp3427
tp3428
asg73
g15
sa(dp3429
g2
S'../../../data/emanuela/activity-recognition/images/NTCIR-Lifelog-256/u1/2015-02-23/b00000327_21i6bq_20150223_103201e.jpg'
p3430
sg4
(lp3431
(g44
g6
(g18
S'\x07\x14\x04?'
p3432
tp3433
Rp3434
tp3435
a(g15
g6
(g18
S'\xa1Ey>'
p3436
tp3437
Rp3438
tp3439
a(g328
g6
(g18
S'\x12\xeb\x93='
p3440
tp3441
Rp3442
tp3443
a(g108
g6
(g18
S'\xebu\x83='
p3444
tp3445
Rp3446
tp3447
a(g68
g6
(g18
S'\xbb\xad\x1c='
p3448
tp3449
Rp3450
tp3451
asg73
g15
sa(dp3452
g2
S'../../../data/emanuela/activity-recognition/images/NTCIR-Lifelog-256/u1/2015-03-11/b00001046_21i6bq_20150311_175316e.jpg'
p3453
sg4
(lp3454
(g15
g6
(g18
S'\xf3\x95|?'
p3455
tp3456
Rp3457
tp3458
a(g56
g6
(g18
S'\xfd\xb0\xb8;'
p3459
tp3460
Rp3461
tp3462
a(g68
g6
(g18
S'\xad\x01\xb5;'
p3463
tp3464
Rp3465
tp3466
a(g386
g6
(g18
S'\xcb\x85\x8f:'
p3467
tp3468
Rp3469
tp3470
a(g32
g6
(g18
S'$\xa2N:'
p3471
tp3472
Rp3473
tp3474
asg73
g15
sa(dp3475
g2
S'../../../data/emanuela/activity-recognition/images/NTCIR-Lifelog-256/u2/2015-04-24/b00002277_21i7lf_20150424_124403e.jpg'
p3476
sg4
(lp3477
(g15
g6
(g18
S'g\x1d=?'
p3478
tp3479
Rp3480
tp3481
a(g56
g6
(g18
S'\'"\x88='
p3482
tp3483
Rp3484
tp3485
a(g68
g6
(g18
S'\xf9U\x85='
p3486
tp3487
Rp3488
tp3489
a(g328
g6
(g18
S'ET$='
p3490
tp3491
Rp3492
tp3493
a(g794
g6
(g18
S'b\xef\xaa<'
p3494
tp3495
Rp3496
tp3497
asg73
g15
sa(dp3498
g2
S'../../../data/emanuela/activity-recognition/images/NTCIR-Lifelog-256/u1/2015-02-26/b00000839_21i6bq_20150226_151028e.jpg'
p3499
sg4
(lp3500
(g32
g6
(g18
S'\xc0T\x1f?'
p3501
tp3502
Rp3503
tp3504
a(g56
g6
(g18
S'\x02\xf0\xdd='
p3505
tp3506
Rp3507
tp3508
a(g68
g6
(g18
S'L\xe2\xc8='
p3509
tp3510
Rp3511
tp3512
a(g15
g6
(g18
S'\x97_\xa8='
p3513
tp3514
Rp3515
tp3516
a(g386
g6
(g18
S'u\x9b[='
p3517
tp3518
Rp3519
tp3520
asg73
g15
sa(dp3521
g2
S'../../../data/emanuela/activity-recognition/images/NTCIR-Lifelog-256/u1/2015-03-06/b00000610_21i6bq_20150306_115111e.jpg'
p3522
sg4
(lp3523
(g15
g6
(g18
S'\xaf\x85r?'
p3524
tp3525
Rp3526
tp3527
a(g32
g6
(g18
S'\xd7\xb8-='
p3528
tp3529
Rp3530
tp3531
a(g68
g6
(g18
S'\xbb\xee\xa8;'
p3532
tp3533
Rp3534
tp3535
a(g44
g6
(g18
S'\xcd7\x12;'
p3536
tp3537
Rp3538
tp3539
a(g108
g6
(g18
S'\xfetx:'
p3540
tp3541
Rp3542
tp3543
asg73
g15
sa(dp3544
g2
S'../../../data/emanuela/activity-recognition/images/NTCIR-Lifelog-256/u1/2015-03-04/b00001229_21i6bq_20150304_194940e.jpg'
p3545
sg4
(lp3546
(g15
g6
(g18
S'\xa0\x7f+?'
p3547
tp3548
Rp3549
tp3550
a(g139
g6
(g18
S'r\xbb\x18>'
p3551
tp3552
Rp3553
tp3554
a(g68
g6
(g18
S'8\x1c\xa4='
p3555
tp3556
Rp3557
tp3558
a(g32
g6
(g18
S'-\xa4\x1f='
p3559
tp3560
Rp3561
tp3562
a(g44
g6
(g18
S'\x86\xc6\x12='
p3563
tp3564
Rp3565
tp3566
asg73
g15
sa(dp3567
g2
S'../../../data/emanuela/activity-recognition/images/NTCIR-Lifelog-256/u1/2015-02-23/b00000355_21i6bq_20150223_105017e.jpg'
p3568
sg4
(lp3569
(g15
g6
(g18
S'\xd8\xa1\x14?'
p3570
tp3571
Rp3572
tp3573
a(g32
g6
(g18
S'6\x1b\xc8='
p3574
tp3575
Rp3576
tp3577
a(g170
g6
(g18
S'/\xd2\x98='
p3578
tp3579
Rp3580
tp3581
a(g56
g6
(g18
S'3\xb9a='
p3582
tp3583
Rp3584
tp3585
a(g96
g6
(g18
S'\xa6\xdc)='
p3586
tp3587
Rp3588
tp3589
asg73
g15
sa(dp3590
g2
S'../../../data/emanuela/activity-recognition/images/NTCIR-Lifelog-256/u2/2015-04-28/b00006806_21i7lf_20150428_140722e.jpg'
p3591
sg4
(lp3592
(g15
g6
(g18
S'\x16\x07t?'
p3593
tp3594
Rp3595
tp3596
a(g56
g6
(g18
S'Zf^<'
p3597
tp3598
Rp3599
tp3600
a(g68
g6
(g18
S'}X<<'
p3601
tp3602
Rp3603
tp3604
a(g328
g6
(g18
S'\xf5\xe5\xd3;'
p3605
tp3606
Rp3607
tp3608
a(g32
g6
(g18
S'\x8c\xd0\xb9;'
p3609
tp3610
Rp3611
tp3612
asg73
g15
sa(dp3613
g2
S'../../../data/emanuela/activity-recognition/images/NTCIR-Lifelog-256/u2/2015-04-28/b00006778_21i7lf_20150428_135044e.jpg'
p3614
sg4
(lp3615
(g15
g6
(g18
S'\x18#Y?'
p3616
tp3617
Rp3618
tp3619
a(g68
g6
(g18
S'\x89\x7f\xa6='
p3620
tp3621
Rp3622
tp3623
a(g44
g6
(g18
S'}\xb5\x19='
p3624
tp3625
Rp3626
tp3627
a(g32
g6
(g18
S'Q\xfb\xe1<'
p3628
tp3629
Rp3630
tp3631
a(g328
g6
(g18
S'\xbc\x1b\xbf:'
p3632
tp3633
Rp3634
tp3635
asg73
g15
sa(dp3636
g2
S'../../../data/emanuela/activity-recognition/images/NTCIR-Lifelog-256/u1/2015-02-24/b00001143_21i6bq_20150224_182234e.jpg'
p3637
sg4
(lp3638
(g108
g6
(g18
S'26\x84>'
p3639
tp3640
Rp3641
tp3642
a(g96
g6
(g18
S'1\xcd@>'
p3643
tp3644
Rp3645
tp3646
a(g68
g6
(g18
S'\x15g\x1a>'
p3647
tp3648
Rp3649
tp3650
a(g15
g6
(g18
S',\x8b\x10>'
p3651
tp3652
Rp3653
tp3654
a(g56
g6
(g18
S'\x1c\x8a\xbf='
p3655
tp3656
Rp3657
tp3658
asg73
g15
sa(dp3659
g2
S'../../../data/emanuela/activity-recognition/images/NTCIR-Lifelog-256/u1/2015-02-27/b00000921_21i6bq_20150227_171124e.jpg'
p3660
sg4
(lp3661
(g108
g6
(g18
S'\x88D\xd0>'
p3662
tp3663
Rp3664
tp3665
a(g255
g6
(g18
S'Y,j>'
p3666
tp3667
Rp3668
tp3669
a(g44
g6
(g18
S'Y\xb5\xcd='
p3670
tp3671
Rp3672
tp3673
a(g15
g6
(g18
S'\xb0K\xa7='
p3674
tp3675
Rp3676
tp3677
a(g68
g6
(g18
S'\xcbg\x9e='
p3678
tp3679
Rp3680
tp3681
asg73
g15
sa(dp3682
g2
S'../../../data/emanuela/activity-recognition/images/NTCIR-Lifelog-256/u2/2015-04-28/b00006797_21i7lf_20150428_140221e.jpg'
p3683
sg4
(lp3684
(g15
g6
(g18
S'\x96\xbab?'
p3685
tp3686
Rp3687
tp3688
a(g32
g6
(g18
S'1\xdf+='
p3689
tp3690
Rp3691
tp3692
a(g56
g6
(g18
S'0\x97\xc2<'
p3693
tp3694
Rp3695
tp3696
a(g68
g6
(g18
S'\x02\xb5\xa3<'
p3697
tp3698
Rp3699
tp3700
a(g328
g6
(g18
S'X\x16o<'
p3701
tp3702
Rp3703
tp3704
asg73
g15
sa(dp3705
g2
S'../../../data/emanuela/activity-recognition/images/NTCIR-Lifelog-256/u1/2015-02-26/b00000861_21i6bq_20150226_152353e.jpg'
p3706
sg4
(lp3707
(g15
g6
(g18
S'\xf7Wi?'
p3708
tp3709
Rp3710
tp3711
a(g32
g6
(g18
S'\xe0L\x9f='
p3712
tp3713
Rp3714
tp3715
a(g44
g6
(g18
S'\xf5\xc9\x19;'
p3716
tp3717
Rp3718
tp3719
a(g56
g6
(g18
S'\x0cy\r;'
p3720
tp3721
Rp3722
tp3723
a(g68
g6
(g18
S':Z\x07;'
p3724
tp3725
Rp3726
tp3727
asg73
g15
sa(dp3728
g2
S'../../../data/emanuela/activity-recognition/images/NTCIR-Lifelog-256/u2/2015-04-30/b00001659_21i7lf_20150430_201219e.jpg'
p3729
sg4
(lp3730
(g15
g6
(g18
S'KeU?'
p3731
tp3732
Rp3733
tp3734
a(g386
g6
(g18
S'\x0c\x99\xf7='
p3735
tp3736
Rp3737
tp3738
a(g68
g6
(g18
S'\x95\xad\x08='
p3739
tp3740
Rp3741
tp3742
a(g32
g6
(g18
S'\xe9\xff\x96;'
p3743
tp3744
Rp3745
tp3746
a(g56
g6
(g18
S'\xbc\xb0:;'
p3747
tp3748
Rp3749
tp3750
asg73
g15
sa(dp3751
g2
S'../../../data/emanuela/activity-recognition/images/NTCIR-Lifelog-256/u3/2015-08-01/b00006744_21i79q_20150801_234723e.jpg'
p3752
sg4
(lp3753
(g15
g6
(g18
S'\xa1\xdc\xb8>'
p3754
tp3755
Rp3756
tp3757
a(g44
g6
(g18
S'\xd4\xd5\x99>'
p3758
tp3759
Rp3760
tp3761
a(g68
g6
(g18
S'\xa5|\xd6='
p3762
tp3763
Rp3764
tp3765
a(g108
g6
(g18
S'\xab\xa0\xc4='
p3766
tp3767
Rp3768
tp3769
a(g32
g6
(g18
S'\xec\x01_='
p3770
tp3771
Rp3772
tp3773
asg73
g15
sa(dp3774
g2
S'../../../data/emanuela/activity-recognition/images/NTCIR-Lifelog-256/u1/2015-02-23/b00000290_21i6bq_20150223_100903e.jpg'
p3775
sg4
(lp3776
(g44
g6
(g18
S'\xe9\xcb1?'
p3777
tp3778
Rp3779
tp3780
a(g108
g6
(g18
S'\xeaI\x0c>'
p3781
tp3782
Rp3783
tp3784
a(g15
g6
(g18
S'\xb2\xa0q='
p3785
tp3786
Rp3787
tp3788
a(g328
g6
(g18
S'\x7f\xf11='
p3789
tp3790
Rp3791
tp3792
a(g68
g6
(g18
S'\xab\x12\x1b='
p3793
tp3794
Rp3795
tp3796
asg73
g15
sa(dp3797
g2
S'../../../data/emanuela/activity-recognition/images/NTCIR-Lifelog-256/u1/2015-02-27/b00000369_21i6bq_20150227_110351e.jpg'
p3798
sg4
(lp3799
(g15
g6
(g18
S"h'w?"
p3800
tp3801
Rp3802
tp3803
a(g68
g6
(g18
S'\xe2V\x7f<'
p3804
tp3805
Rp3806
tp3807
a(g32
g6
(g18
S'\xb0,\xfe;'
p3808
tp3809
Rp3810
tp3811
a(g44
g6
(g18
S'\x90\xa7.;'
p3812
tp3813
Rp3814
tp3815
a(g56
g6
(g18
S'\x0b\xd4\xf1:'
p3816
tp3817
Rp3818
tp3819
asg73
g15
sa(dp3820
g2
S'../../../data/emanuela/activity-recognition/images/NTCIR-Lifelog-256/u1/2015-02-24/b00000827_21i6bq_20150224_150625e.jpg'
p3821
sg4
(lp3822
(g32
g6
(g18
S'z\xb1\x02?'
p3823
tp3824
Rp3825
tp3826
a(g56
g6
(g18
S'\r\x0cI>'
p3827
tp3828
Rp3829
tp3830
a(g15
g6
(g18
S'*g\x0b>'
p3831
tp3832
Rp3833
tp3834
a(g44
g6
(g18
S'\xdd\xeaK='
p3835
tp3836
Rp3837
tp3838
a(g328
g6
(g18
S'\xba\x82\r='
p3839
tp3840
Rp3841
tp3842
asg73
g15
sa(dp3843
g2
S'../../../data/emanuela/activity-recognition/images/NTCIR-Lifelog-256/u1/2015-03-05/b00000346_21i6bq_20150305_094807e.jpg'
p3844
sg4
(lp3845
(g32
g6
(g18
S' =\x04?'
p3846
tp3847
Rp3848
tp3849
a(g15
g6
(g18
S'\x97\xe8\xee>'
p3850
tp3851
Rp3852
tp3853
a(g139
g6
(g18
S'V\xe4\xbe;'
p3854
tp3855
Rp3856
tp3857
a(g56
g6
(g18
S'\xc9\xf6a;'
p3858
tp3859
Rp3860
tp3861
a(g239
g6
(g18
S'\xdc\xea";'
p3862
tp3863
Rp3864
tp3865
asg73
g15
sa(dp3866
g2
S'../../../data/emanuela/activity-recognition/images/NTCIR-Lifelog-256/u2/2015-04-24/b00002212_21i7lf_20150424_120352e.jpg'
p3867
sg4
(lp3868
(g15
g6
(g18
S'd6B?'
p3869
tp3870
Rp3871
tp3872
a(g32
g6
(g18
S'\x0f\xc9\x01>'
p3873
tp3874
Rp3875
tp3876
a(g328
g6
(g18
S'G\xb3\x1a='
p3877
tp3878
Rp3879
tp3880
a(g56
g6
(g18
S'\x80G\xa9<'
p3881
tp3882
Rp3883
tp3884
a(g96
g6
(g18
S'\xba\xc7\x95<'
p3885
tp3886
Rp3887
tp3888
asg73
g15
sa(dp3889
g2
S'../../../data/emanuela/activity-recognition/images/NTCIR-Lifelog-256/u1/2015-02-27/b00000949_21i6bq_20150227_173536e.jpg'
p3890
sg4
(lp3891
(g44
g6
(g18
S'Ot\x03?'
p3892
tp3893
Rp3894
tp3895
a(g108
g6
(g18
S'\xf6\xcc|>'
p3896
tp3897
Rp3898
tp3899
a(g15
g6
(g18
S'B\xa4\xf7='
p3900
tp3901
Rp3902
tp3903
a(g328
g6
(g18
S'\xc9G\x16='
p3904
tp3905
Rp3906
tp3907
a(g68
g6
(g18
S'\xd2\xdd\x12='
p3908
tp3909
Rp3910
tp3911
asg73
g15
sa(dp3912
g2
S'../../../data/emanuela/activity-recognition/images/NTCIR-Lifelog-256/u1/2015-02-24/b00000820_21i6bq_20150224_150221e.jpg'
p3913
sg4
(lp3914
(g15
g6
(g18
S'\xddOJ?'
p3915
tp3916
Rp3917
tp3918
a(g32
g6
(g18
S'\x9dY\x1e>'
p3919
tp3920
Rp3921
tp3922
a(g56
g6
(g18
S'M\xe9\xdd<'
p3923
tp3924
Rp3925
tp3926
a(g139
g6
(g18
S'\xa7.&<'
p3927
tp3928
Rp3929
tp3930
a(g68
g6
(g18
S'\xc2\x8f\x08<'
p3931
tp3932
Rp3933
tp3934
asg73
g15
sa(dp3935
g2
S'../../../data/emanuela/activity-recognition/images/NTCIR-Lifelog-256/u1/2015-03-16/b00001833_21i6bq_20150316_100752e.jpg'
p3936
sg4
(lp3937
(g15
g6
(g18
S'\xaf*\x1c?'
p3938
tp3939
Rp3940
tp3941
a(g32
g6
(g18
S'\x1e\xc1U>'
p3942
tp3943
Rp3944
tp3945
a(g139
g6
(g18
S'\xe2DJ='
p3946
tp3947
Rp3948
tp3949
a(g56
g6
(g18
S'\xfeG\xe9<'
p3950
tp3951
Rp3952
tp3953
a(g96
g6
(g18
S's \xda<'
p3954
tp3955
Rp3956
tp3957
asg73
g15
sa(dp3958
g2
S'../../../data/emanuela/activity-recognition/images/NTCIR-Lifelog-256/u1/2015-02-26/b00000613_21i6bq_20150226_125344e.jpg'
p3959
sg4
(lp3960
(g15
g6
(g18
S'\xaf\xa9^?'
p3961
tp3962
Rp3963
tp3964
a(g68
g6
(g18
S'\x12<\xd7='
p3965
tp3966
Rp3967
tp3968
a(g32
g6
(g18
S'"\xa3\xaf<'
p3969
tp3970
Rp3971
tp3972
a(g44
g6
(g18
S':\x8c\x07;'
p3973
tp3974
Rp3975
tp3976
a(g139
g6
(g18
S'"\x9f7:'
p3977
tp3978
Rp3979
tp3980
asg73
g15
sa(dp3981
g2
S'../../../data/emanuela/activity-recognition/images/NTCIR-Lifelog-256/u2/2015-04-22/b00000239_21i7lf_20150422_151326e.jpg'
p3982
sg4
(lp3983
(g15
g6
(g18
S'\x07\xd3\xf2>'
p3984
tp3985
Rp3986
tp3987
a(g239
g6
(g18
S"'\xe5y>"
p3988
tp3989
Rp3990
tp3991
a(g139
g6
(g18
S'\xcc\x9b\x96='
p3992
tp3993
Rp3994
tp3995
a(g328
g6
(g18
S'\x9ePM='
p3996
tp3997
Rp3998
tp3999
a(g32
g6
(g18
S'v\xaeH='
p4000
tp4001
Rp4002
tp4003
asg73
g15
sa(dp4004
g2
S'../../../data/emanuela/activity-recognition/images/NTCIR-Lifelog-256/u1/2015-03-05/b00000965_21i6bq_20150305_165101e.jpg'
p4005
sg4
(lp4006
(g15
g6
(g18
S'9\xc87?'
p4007
tp4008
Rp4009
tp4010
a(g32
g6
(g18
S"'\x89l>"
p4011
tp4012
Rp4013
tp4014
a(g239
g6
(g18
S'/\xd2\xac<'
p4015
tp4016
Rp4017
tp4018
a(g255
g6
(g18
S'\xc8\x9d|<'
p4019
tp4020
Rp4021
tp4022
a(g139
g6
(g18
S'\xd7BQ;'
p4023
tp4024
Rp4025
tp4026
asg73
g15
sa(dp4027
g2
S'../../../data/emanuela/activity-recognition/images/NTCIR-Lifelog-256/u2/2015-04-25/b00003467_21i7lf_20150425_174620e.jpg'
p4028
sg4
(lp4029
(g15
g6
(g18
S'\x8a:)?'
p4030
tp4031
Rp4032
tp4033
a(g68
g6
(g18
S'\xb2\x7f\x99>'
p4034
tp4035
Rp4036
tp4037
a(g386
g6
(g18
S'\xbc\x9b\xd9<'
p4038
tp4039
Rp4040
tp4041
a(g44
g6
(g18
S'\xdc{\xa7;'
p4042
tp4043
Rp4044
tp4045
a(g108
g6
(g18
S'\xcb\xcf`;'
p4046
tp4047
Rp4048
tp4049
asg73
g15
sa(dp4050
g2
S'../../../data/emanuela/activity-recognition/images/NTCIR-Lifelog-256/u1/2015-03-11/b00000578_21i6bq_20150311_124840e.jpg'
p4051
sg4
(lp4052
(g15
g6
(g18
S'\xe2ca?'
p4053
tp4054
Rp4055
tp4056
a(g32
g6
(g18
S'\xef\x81\x81='
p4057
tp4058
Rp4059
tp4060
a(g44
g6
(g18
S'2&\xbf<'
p4061
tp4062
Rp4063
tp4064
a(g68
g6
(g18
S"'\xfd\xa1<"
p4065
tp4066
Rp4067
tp4068
a(g56
g6
(g18
S'0I\x8a;'
p4069
tp4070
Rp4071
tp4072
asg73
g15
sa(dp4073
g2
S'../../../data/emanuela/activity-recognition/images/NTCIR-Lifelog-256/u1/2015-02-24/b00000747_21i6bq_20150224_141749e.jpg'
p4074
sg4
(lp4075
(g15
g6
(g18
S'\x1c\x01\xf9>'
p4076
tp4077
Rp4078
tp4079
a(g44
g6
(g18
S'\xc9Pj>'
p4080
tp4081
Rp4082
tp4083
a(g32
g6
(g18
S'\x11B@>'
p4084
tp4085
Rp4086
tp4087
a(g68
g6
(g18
S',~\x11='
p4088
tp4089
Rp4090
tp4091
a(g108
g6
(g18
S'2\xc5\x9a<'
p4092
tp4093
Rp4094
tp4095
asg73
g15
sa(dp4096
g2
S'../../../data/emanuela/activity-recognition/images/NTCIR-Lifelog-256/u1/2015-03-04/b00000745_21i6bq_20150304_143637e.jpg'
p4097
sg4
(lp4098
(g15
g6
(g18
S'\xfa\x1a#?'
p4099
tp4100
Rp4101
tp4102
a(g32
g6
(g18
S"'\x07\xb3>"
p4103
tp4104
Rp4105
tp4106
a(g56
g6
(g18
S'\xa0if;'
p4107
tp4108
Rp4109
tp4110
a(g68
g6
(g18
S'\xb2\xf4\x18;'
p4111
tp4112
Rp4113
tp4114
a(g44
g6
(g18
S'{c\x04;'
p4115
tp4116
Rp4117
tp4118
asg73
g15
sa(dp4119
g2
S'../../../data/emanuela/activity-recognition/images/NTCIR-Lifelog-256/u1/2015-03-06/b00000618_21i6bq_20150306_115542e.jpg'
p4120
sg4
(lp4121
(g15
g6
(g18
S'\xc8\xbc{?'
p4122
tp4123
Rp4124
tp4125
a(g32
g6
(g18
S'\x0fJ=<'
p4126
tp4127
Rp4128
tp4129
a(g68
g6
(g18
S'l\xe8C;'
p4130
tp4131
Rp4132
tp4133
a(g44
g6
(g18
S'v-\xa7:'
p4134
tp4135
Rp4136
tp4137
a(g108
g6
(g18
S'M&]9'
p4138
tp4139
Rp4140
tp4141
asg73
g15
sa(dp4142
g2
S'../../../data/emanuela/activity-recognition/images/NTCIR-Lifelog-256/u3/2015-06-15/b00001125_21i79q_20150615_190038e.jpg'
p4143
sg4
(lp4144
(g794
g6
(g18
S'\xabc}>'
p4145
tp4146
Rp4147
tp4148
a(g328
g6
(g18
S'\xa7\xba$>'
p4149
tp4150
Rp4151
tp4152
a(g456
g6
(g18
S'\xe0\x0e\xe5='
p4153
tp4154
Rp4155
tp4156
a(g255
g6
(g18
S'\x9c\xd9\xd0='
p4157
tp4158
Rp4159
tp4160
a(g68
g6
(g18
S'{t\xbb='
p4161
tp4162
Rp4163
tp4164
asg73
g15
sa(dp4165
g2
S'../../../data/emanuela/activity-recognition/images/NTCIR-Lifelog-256/u2/2015-04-30/b00001148_21i7lf_20150430_143209e.jpg'
p4166
sg4
(lp4167
(g32
g6
(g18
S'\x1c+ ?'
p4168
tp4169
Rp4170
tp4171
a(g15
g6
(g18
S'P\x16\xf9='
p4172
tp4173
Rp4174
tp4175
a(g239
g6
(g18
S'\x1d\x9d\x85='
p4176
tp4177
Rp4178
tp4179
a(g108
g6
(g18
S'\xe4*d='
p4180
tp4181
Rp4182
tp4183
a(g328
g6
(g18
S'\xb6\xf2N='
p4184
tp4185
Rp4186
tp4187
asg73
g15
sa(dp4188
g2
S'../../../data/emanuela/activity-recognition/images/NTCIR-Lifelog-256/u2/2015-04-23/b00000950_21i7lf_20150423_103000e.jpg'
p4189
sg4
(lp4190
(g15
g6
(g18
S'\x8b\xb5j?'
p4191
tp4192
Rp4193
tp4194
a(g32
g6
(g18
S'\x91\x9df='
p4195
tp4196
Rp4197
tp4198
a(g68
g6
(g18
S'\x00*_<'
p4199
tp4200
Rp4201
tp4202
a(g56
g6
(g18
S',0";'
p4203
tp4204
Rp4205
tp4206
a(g456
g6
(g18
S"\x92'\x1f;"
p4207
tp4208
Rp4209
tp4210
asg73
g15
sa(dp4211
g2
S'../../../data/emanuela/activity-recognition/images/NTCIR-Lifelog-256/u1/2015-02-23/b00000454_21i6bq_20150223_115225e.jpg'
p4212
sg4
(lp4213
(g15
g6
(g18
S'\xd5\x92\\?'
p4214
tp4215
Rp4216
tp4217
a(g32
g6
(g18
S'\x950\xfa='
p4218
tp4219
Rp4220
tp4221
a(g56
g6
(g18
S'\xc2u\xfe;'
p4222
tp4223
Rp4224
tp4225
a(g44
g6
(g18
S'z\xbcA;'
p4226
tp4227
Rp4228
tp4229
a(g68
g6
(g18
S'\xa3y\xd8:'
p4230
tp4231
Rp4232
tp4233
asg73
g15
sa(dp4234
g2
S'../../../data/emanuela/activity-recognition/images/NTCIR-Lifelog-256/u2/2015-04-20/b00000855_21i7lf_20150420_183036e.jpg'
p4235
sg4
(lp4236
(g68
g6
(g18
S'\xff\x02\n?'
p4237
tp4238
Rp4239
tp4240
a(g15
g6
(g18
S'\xbe \xc3>'
p4241
tp4242
Rp4243
tp4244
a(g56
g6
(g18
S'\xb0\x0e\xc7<'
p4245
tp4246
Rp4247
tp4248
a(g386
g6
(g18
S'\xb5dt<'
p4249
tp4250
Rp4251
tp4252
a(g32
g6
(g18
S'f\xc2,<'
p4253
tp4254
Rp4255
tp4256
asg73
g15
sa(dp4257
g2
S'../../../data/emanuela/activity-recognition/images/NTCIR-Lifelog-256/u3/2015-08-01/b00006662_21i79q_20150801_230330e.jpg'
p4258
sg4
(lp4259
(g15
g6
(g18
S'2\xbb\x02?'
p4260
tp4261
Rp4262
tp4263
a(g44
g6
(g18
S'\xea_E>'
p4264
tp4265
Rp4266
tp4267
a(g32
g6
(g18
S'\x02(!>'
p4268
tp4269
Rp4270
tp4271
a(g139
g6
(g18
S'\x82\xbbY='
p4272
tp4273
Rp4274
tp4275
a(g328
g6
(g18
S'\xcb\x85\xff<'
p4276
tp4277
Rp4278
tp4279
asg73
g15
sa(dp4280
g2
S'../../../data/emanuela/activity-recognition/images/NTCIR-Lifelog-256/u1/2015-03-04/b00000465_21i6bq_20150304_113257e.jpg'
p4281
sg4
(lp4282
(g15
g6
(g18
S'D~n?'
p4283
tp4284
Rp4285
tp4286
a(g32
g6
(g18
S'\t\xa06='
p4287
tp4288
Rp4289
tp4290
a(g56
g6
(g18
S'\x15p\x1c<'
p4291
tp4292
Rp4293
tp4294
a(g68
g6
(g18
S'b\x7f\xfb;'
p4295
tp4296
Rp4297
tp4298
a(g44
g6
(g18
S'\xe9h\x0f;'
p4299
tp4300
Rp4301
tp4302
asg73
g15
sa(dp4303
g2
S'../../../data/emanuela/activity-recognition/images/NTCIR-Lifelog-256/u1/2015-03-16/b00001998_21i6bq_20150316_115056e.jpg'
p4304
sg4
(lp4305
(g15
g6
(g18
S'\n\x8f\xea>'
p4306
tp4307
Rp4308
tp4309
a(g32
g6
(g18
S'\xd3\x88\x8e>'
p4310
tp4311
Rp4312
tp4313
a(g139
g6
(g18
S'2J->'
p4314
tp4315
Rp4316
tp4317
a(g68
g6
(g18
S'\xde\x80X='
p4318
tp4319
Rp4320
tp4321
a(g96
g6
(g18
S'\xe9\x8c9<'
p4322
tp4323
Rp4324
tp4325
asg73
g15
sa(dp4326
g2
S'../../../data/emanuela/activity-recognition/images/NTCIR-Lifelog-256/u1/2015-03-18/b00000859_21i6bq_20150318_170911e.jpg'
p4327
sg4
(lp4328
(g15
g6
(g18
S'\x87iF?'
p4329
tp4330
Rp4331
tp4332
a(g68
g6
(g18
S'\xb5\xe6\xea='
p4333
tp4334
Rp4335
tp4336
a(g56
g6
(g18
S'+\xd8\x8d<'
p4337
tp4338
Rp4339
tp4340
a(g44
g6
(g18
S'\xa5\x87r<'
p4341
tp4342
Rp4343
tp4344
a(g96
g6
(g18
S'H\xabj<'
p4345
tp4346
Rp4347
tp4348
asg73
g15
sa(dp4349
g2
S'../../../data/emanuela/activity-recognition/images/NTCIR-Lifelog-256/u1/2015-02-23/b00000845_21i6bq_20150223_155835e.jpg'
p4350
sg4
(lp4351
(g15
g6
(g18
S'j{=?'
p4352
tp4353
Rp4354
tp4355
a(g56
g6
(g18
S'\xdb\xbc\x05>'
p4356
tp4357
Rp4358
tp4359
a(g425
g6
(g18
S'9Q\x11='
p4360
tp4361
Rp4362
tp4363
a(g68
g6
(g18
S'U:\xf5<'
p4364
tp4365
Rp4366
tp4367
a(g32
g6
(g18
S'\x01\xc6\xec<'
p4368
tp4369
Rp4370
tp4371
asg73
g15
sa(dp4372
g2
S'../../../data/emanuela/activity-recognition/images/NTCIR-Lifelog-256/u1/2015-03-04/b00000471_21i6bq_20150304_113635e.jpg'
p4373
sg4
(lp4374
(g15
g6
(g18
S"R'K?"
p4375
tp4376
Rp4377
tp4378
a(g56
g6
(g18
S'\xd3\xc5\xb1='
p4379
tp4380
Rp4381
tp4382
a(g68
g6
(g18
S'\x95JU='
p4383
tp4384
Rp4385
tp4386
a(g32
g6
(g18
S'\x17\x01+='
p4387
tp4388
Rp4389
tp4390
a(g44
g6
(g18
S'\xb9\xf8\x9e;'
p4391
tp4392
Rp4393
tp4394
asg73
g15
sa(dp4395
g2
S'../../../data/emanuela/activity-recognition/images/NTCIR-Lifelog-256/u1/2015-03-15/b00000933_21i6bq_20150315_164218e.jpg'
p4396
sg4
(lp4397
(g170
g6
(g18
S'\\\x92c?'
p4398
tp4399
Rp4400
tp4401
a(g15
g6
(g18
S'\xe7&/='
p4402
tp4403
Rp4404
tp4405
a(g255
g6
(g18
S'\xb6l\xe0<'
p4406
tp4407
Rp4408
tp4409
a(g456
g6
(g18
S'\xc5\xa2\x1c<'
p4410
tp4411
Rp4412
tp4413
a(g56
g6
(g18
S'\t\x85\xd5;'
p4414
tp4415
Rp4416
tp4417
asg73
g15
sa(dp4418
g2
S'../../../data/emanuela/activity-recognition/images/NTCIR-Lifelog-256/u1/2015-02-24/b00000743_21i6bq_20150224_141516e.jpg'
p4419
sg4
(lp4420
(g15
g6
(g18
S'\xf8\xafI?'
p4421
tp4422
Rp4423
tp4424
a(g32
g6
(g18
S'sH\x14>'
p4425
tp4426
Rp4427
tp4428
a(g44
g6
(g18
S'\x0c\xd6\xd2<'
p4429
tp4430
Rp4431
tp4432
a(g68
g6
(g18
S'\x1e\x9cF<'
p4433
tp4434
Rp4435
tp4436
a(g108
g6
(g18
S'\xa6\xc1\x1d<'
p4437
tp4438
Rp4439
tp4440
asg73
g15
sa(dp4441
g2
S'../../../data/emanuela/activity-recognition/images/NTCIR-Lifelog-256/u3/2015-06-28/b00000917_21i79q_20150628_230434e.jpg'
p4442
sg4
(lp4443
(g68
g6
(g18
S'\x1c\x88\x11?'
p4444
tp4445
Rp4446
tp4447
a(g15
g6
(g18
S'\xcbJ|>'
p4448
tp4449
Rp4450
tp4451
a(g44
g6
(g18
S'\xbb\n0='
p4452
tp4453
Rp4454
tp4455
a(g386
g6
(g18
S'5R\xff<'
p4456
tp4457
Rp4458
tp4459
a(g286
g6
(g18
S'\xb5\xf4\xc1<'
p4460
tp4461
Rp4462
tp4463
asg73
g15
sa(dp4464
g2
S'../../../data/emanuela/activity-recognition/images/NTCIR-Lifelog-256/u3/2015-07-29/b00004158_21i79q_20150729_155846e.jpg'
p4465
sg4
(lp4466
(g794
g6
(g18
S'\xf5z\xbd>'
p4467
tp4468
Rp4469
tp4470
a(g840
g6
(g18
S'\xef9X>'
p4471
tp4472
Rp4473
tp4474
a(g56
g6
(g18
S'M\x18K>'
p4475
tp4476
Rp4477
tp4478
a(g15
g6
(g18
S'\xa5\r\x8d='
p4479
tp4480
Rp4481
tp4482
a(g170
g6
(g18
S'\x99\xda\x16='
p4483
tp4484
Rp4485
tp4486
asg73
g15
sa(dp4487
g2
S'../../../data/emanuela/activity-recognition/images/NTCIR-Lifelog-256/u1/2015-03-04/b00001240_21i6bq_20150304_195614e.jpg'
p4488
sg4
(lp4489
(g15
g6
(g18
S'N0\xf8>'
p4490
tp4491
Rp4492
tp4493
a(g68
g6
(g18
S'J\x0f\xca>'
p4494
tp4495
Rp4496
tp4497
a(g56
g6
(g18
S'\xceg\x1f='
p4498
tp4499
Rp4500
tp4501
a(g44
g6
(g18
S'=\xfd\x05='
p4502
tp4503
Rp4504
tp4505
a(g108
g6
(g18
S'\x96\xe6\x8f<'
p4506
tp4507
Rp4508
tp4509
asg73
g15
sa(dp4510
g2
S'../../../data/emanuela/activity-recognition/images/NTCIR-Lifelog-256/u1/2015-03-12/b00000815_21i6bq_20150312_161610e.jpg'
p4511
sg4
(lp4512
(g44
g6
(g18
S'\xb7\xefw>'
p4513
tp4514
Rp4515
tp4516
a(g68
g6
(g18
S'\xceqe>'
p4517
tp4518
Rp4519
tp4520
a(g108
g6
(g18
S'T\x01+>'
p4521
tp4522
Rp4523
tp4524
a(g15
g6
(g18
S'\x89\x1b\xf9='
p4525
tp4526
Rp4527
tp4528
a(g56
g6
(g18
S'v\xb3\xb3='
p4529
tp4530
Rp4531
tp4532
asg73
g15
sa(dp4533
g2
S'../../../data/emanuela/activity-recognition/images/NTCIR-Lifelog-256/u3/2015-06-20/b00001225_21i79q_20150620_002902e.jpg'
p4534
sg4
(lp4535
(g68
g6
(g18
S'\x92\xb7\r?'
p4536
tp4537
Rp4538
tp4539
a(g15
g6
(g18
S'\xfa5\xca>'
p4540
tp4541
Rp4542
tp4543
a(g44
g6
(g18
S'<\xcb!='
p4544
tp4545
Rp4546
tp4547
a(g32
g6
(g18
S'w=\x9f;'
p4548
tp4549
Rp4550
tp4551
a(g56
g6
(g18
S';\xdf\x8f;'
p4552
tp4553
Rp4554
tp4555
asg73
g15
sa(dp4556
g2
S'../../../data/emanuela/activity-recognition/images/NTCIR-Lifelog-256/u1/2015-03-13/b00000923_21i6bq_20150313_152208e.jpg'
p4557
sg4
(lp4558
(g68
g6
(g18
S'\x82\xd5\x16?'
p4559
tp4560
Rp4561
tp4562
a(g15
g6
(g18
S'-\xb7\xad>'
p4563
tp4564
Rp4565
tp4566
a(g44
g6
(g18
S'$D\xbc<'
p4567
tp4568
Rp4569
tp4570
a(g32
g6
(g18
S'\x11$\x81<'
p4571
tp4572
Rp4573
tp4574
a(g456
g6
(g18
S'\xf2\xdcH<'
p4575
tp4576
Rp4577
tp4578
asg73
g15
sa(dp4579
g2
S'../../../data/emanuela/activity-recognition/images/NTCIR-Lifelog-256/u2/2015-04-22/b00000236_21i7lf_20150422_151128e.jpg'
p4580
sg4
(lp4581
(g15
g6
(g18
S'\x13\x13M?'
p4582
tp4583
Rp4584
tp4585
a(g32
g6
(g18
S'a_&>'
p4586
tp4587
Rp4588
tp4589
a(g239
g6
(g18
S'\xb5y\x82<'
p4590
tp4591
Rp4592
tp4593
a(g139
g6
(g18
S'\x93\xae\xdc;'
p4594
tp4595
Rp4596
tp4597
a(g96
g6
(g18
S'\xf9\xc69;'
p4598
tp4599
Rp4600
tp4601
asg73
g15
sa(dp4602
g2
S'../../../data/emanuela/activity-recognition/images/NTCIR-Lifelog-256/u1/2015-02-28/b00000851_21i6bq_20150228_144533e.jpg'
p4603
sg4
(lp4604
(g108
g6
(g18
S'\xd7\x80\xda>'
p4605
tp4606
Rp4607
tp4608
a(g68
g6
(g18
S'\x15\x0e\xab>'
p4609
tp4610
Rp4611
tp4612
a(g15
g6
(g18
S'\x0f2\xd5='
p4613
tp4614
Rp4615
tp4616
a(g56
g6
(g18
S'X\xfd:='
p4617
tp4618
Rp4619
tp4620
a(g425
g6
(g18
S'\x86M\x06='
p4621
tp4622
Rp4623
tp4624
asg73
g15
sa(dp4625
g2
S'../../../data/emanuela/activity-recognition/images/NTCIR-Lifelog-256/u1/2015-02-27/b00000365_21i6bq_20150227_110129e.jpg'
p4626
sg4
(lp4627
(g15
g6
(g18
S'\x94Xu?'
p4628
tp4629
Rp4630
tp4631
a(g32
g6
(g18
S'\xad\xe8\x05='
p4632
tp4633
Rp4634
tp4635
a(g68
g6
(g18
S'\x86\xb4\x9d;'
p4636
tp4637
Rp4638
tp4639
a(g44
g6
(g18
S'@\xc8\x87:'
p4640
tp4641
Rp4642
tp4643
a(g56
g6
(g18
S'\xfcig:'
p4644
tp4645
Rp4646
tp4647
asg73
g15
sa(dp4648
g2
S'../../../data/emanuela/activity-recognition/images/NTCIR-Lifelog-256/u2/2015-04-30/b00000815_21i7lf_20150430_110604e.jpg'
p4649
sg4
(lp4650
(g15
g6
(g18
S'a\x11\xef>'
p4651
tp4652
Rp4653
tp4654
a(g108
g6
(g18
S'p\x1c:>'
p4655
tp4656
Rp4657
tp4658
a(g68
g6
(g18
S'\xee\xf9\x15>'
p4659
tp4660
Rp4661
tp4662
a(g56
g6
(g18
S'd\xd2\x88='
p4663
tp4664
Rp4665
tp4666
a(g44
g6
(g18
S'\\td='
p4667
tp4668
Rp4669
tp4670
asg73
g15
sa(dp4671
g2
S'../../../data/emanuela/activity-recognition/images/NTCIR-Lifelog-256/u3/2015-06-20/b00001244_21i79q_20150620_004015e.jpg'
p4672
sg4
(lp4673
(g15
g6
(g18
S'L\xdf&?'
p4674
tp4675
Rp4676
tp4677
a(g68
g6
(g18
S'\xe3P\xac>'
p4678
tp4679
Rp4680
tp4681
a(g44
g6
(g18
S'\xbbn\xd7;'
p4682
tp4683
Rp4684
tp4685
a(g56
g6
(g18
S'\xfc\x1f<;'
p4686
tp4687
Rp4688
tp4689
a(g286
g6
(g18
S'\xfcN1:'
p4690
tp4691
Rp4692
tp4693
asg73
g15
sa(dp4694
g2
S'../../../data/emanuela/activity-recognition/images/NTCIR-Lifelog-256/u1/2015-03-10/b00001991_21i6bq_20150310_113826e.jpg'
p4695
sg4
(lp4696
(g15
g6
(g18
S'\x94\xfcZ?'
p4697
tp4698
Rp4699
tp4700
a(g32
g6
(g18
S'r2\xfd='
p4701
tp4702
Rp4703
tp4704
a(g239
g6
(g18
S',V\xf9;'
p4705
tp4706
Rp4707
tp4708
a(g44
g6
(g18
S'P\xfc\xa0;'
p4709
tp4710
Rp4711
tp4712
a(g96
g6
(g18
S'\xae\xc6\x0b;'
p4713
tp4714
Rp4715
tp4716
asg73
g15
sa(dp4717
g2
S'../../../data/emanuela/activity-recognition/images/NTCIR-Lifelog-256/u2/2015-04-24/b00002245_21i7lf_20150424_122346e.jpg'
p4718
sg4
(lp4719
(g15
g6
(g18
S'f\x15\xe7>'
p4720
tp4721
Rp4722
tp4723
a(g32
g6
(g18
S'5\x92\xc2>'
p4724
tp4725
Rp4726
tp4727
a(g44
g6
(g18
S'\x04b$='
p4728
tp4729
Rp4730
tp4731
a(g108
g6
(g18
S'Kw\x19='
p4732
tp4733
Rp4734
tp4735
a(g328
g6
(g18
S'`V\xe8<'
p4736
tp4737
Rp4738
tp4739
asg73
g15
sa(dp4740
g2
S'../../../data/emanuela/activity-recognition/images/NTCIR-Lifelog-256/u1/2015-03-03/b00000784_21i6bq_20150303_152754e.jpg'
p4741
sg4
(lp4742
(g15
g6
(g18
S'\n\xe2\x02?'
p4743
tp4744
Rp4745
tp4746
a(g56
g6
(g18
S'\x00\xf7\x85>'
p4747
tp4748
Rp4749
tp4750
a(g68
g6
(g18
S'\xc1\xd0<>'
p4751
tp4752
Rp4753
tp4754
a(g108
g6
(g18
S'\x91\xc0b<'
p4755
tp4756
Rp4757
tp4758
a(g386
g6
(g18
S':\xc5R<'
p4759
tp4760
Rp4761
tp4762
asg73
g15
sa(dp4763
g2
S'../../../data/emanuela/activity-recognition/images/NTCIR-Lifelog-256/u1/2015-03-09/b00000626_21i6bq_20150309_133859e.jpg'
p4764
sg4
(lp4765
(g15
g6
(g18
S'XVj?'
p4766
tp4767
Rp4768
tp4769
a(g56
g6
(g18
S'Y\xe7\x96<'
p4770
tp4771
Rp4772
tp4773
a(g68
g6
(g18
S'\xcf\x8bA<'
p4774
tp4775
Rp4776
tp4777
a(g170
g6
(g18
S';\xd0\x04<'
p4778
tp4779
Rp4780
tp4781
a(g255
g6
(g18
S'\x10C\xdd;'
p4782
tp4783
Rp4784
tp4785
asg73
g15
sa(dp4786
g2
S'../../../data/emanuela/activity-recognition/images/NTCIR-Lifelog-256/u2/2015-04-24/b00002242_21i7lf_20150424_122200e.jpg'
p4787
sg4
(lp4788
(g15
g6
(g18
S'\xc7\x92+?'
p4789
tp4790
Rp4791
tp4792
a(g32
g6
(g18
S'\xec\xab\x13>'
p4793
tp4794
Rp4795
tp4796
a(g68
g6
(g18
S'CA\x84='
p4797
tp4798
Rp4799
tp4800
a(g44
g6
(g18
S'9;\x80='
p4801
tp4802
Rp4803
tp4804
a(g108
g6
(g18
S'!\xc1\x8f<'
p4805
tp4806
Rp4807
tp4808
asg73
g15
sa(dp4809
g2
S'../../../data/emanuela/activity-recognition/images/NTCIR-Lifelog-256/u1/2015-03-18/b00000371_21i6bq_20150318_114153e.jpg'
p4810
sg4
(lp4811
(g15
g6
(g18
S'h\x83\t?'
p4812
tp4813
Rp4814
tp4815
a(g44
g6
(g18
S'X\xe9$>'
p4816
tp4817
Rp4818
tp4819
a(g32
g6
(g18
S'\xec\xc1\xd1='
p4820
tp4821
Rp4822
tp4823
a(g96
g6
(g18
S'\x17\xcb\xaf='
p4824
tp4825
Rp4826
tp4827
a(g108
g6
(g18
S'\x1c3\x16='
p4828
tp4829
Rp4830
tp4831
asg73
g15
sa(dp4832
g2
S'../../../data/emanuela/activity-recognition/images/NTCIR-Lifelog-256/u1/2015-03-05/b00000942_21i6bq_20150305_163534e.jpg'
p4833
sg4
(lp4834
(g15
g6
(g18
S'\x0eM\r?'
p4835
tp4836
Rp4837
tp4838
a(g32
g6
(g18
S'\xf9\x85\xac>'
p4839
tp4840
Rp4841
tp4842
a(g56
g6
(g18
S'\x7f\xd6\x92='
p4843
tp4844
Rp4845
tp4846
a(g68
g6
(g18
S'\xb1\xac\xb7<'
p4847
tp4848
Rp4849
tp4850
a(g255
g6
(g18
S'\x13\x11\x87;'
p4851
tp4852
Rp4853
tp4854
asg73
g15
sa(dp4855
g2
S'../../../data/emanuela/activity-recognition/images/NTCIR-Lifelog-256/u2/2015-04-24/b00002210_21i7lf_20150424_120240e.jpg'
p4856
sg4
(lp4857
(g15
g6
(g18
S'{=7?'
p4858
tp4859
Rp4860
tp4861
a(g96
g6
(g18
S'Y\xa0\x93='
p4862
tp4863
Rp4864
tp4865
a(g32
g6
(g18
S'S\xf5e='
p4866
tp4867
Rp4868
tp4869
a(g56
g6
(g18
S'\xce\x135='
p4870
tp4871
Rp4872
tp4873
a(g840
g6
(g18
S'i\xe5\xd4<'
p4874
tp4875
Rp4876
tp4877
asg73
g15
sa(dp4878
g2
S'../../../data/emanuela/activity-recognition/images/NTCIR-Lifelog-256/u1/2015-02-27/b00000951_21i6bq_20150227_173656e.jpg'
p4879
sg4
(lp4880
(g328
g6
(g18
S'\x7f\x00\xaa>'
p4881
tp4882
Rp4883
tp4884
a(g108
g6
(g18
S'(\xa7>>'
p4885
tp4886
Rp4887
tp4888
a(g44
g6
(g18
S'Sz\x0c>'
p4889
tp4890
Rp4891
tp4892
a(g32
g6
(g18
S'\x01\x19\x0c>'
p4893
tp4894
Rp4895
tp4896
a(g68
g6
(g18
S'\x11\xc13='
p4897
tp4898
Rp4899
tp4900
asg73
g15
sa(dp4901
g2
S'../../../data/emanuela/activity-recognition/images/NTCIR-Lifelog-256/u1/2015-03-18/b00000268_21i6bq_20150318_103301e.jpg'
p4902
sg4
(lp4903
(g15
g6
(g18
S'\x08\x18\r?'
p4904
tp4905
Rp4906
tp4907
a(g96
g6
(g18
S'\xdc\xd7K>'
p4908
tp4909
Rp4910
tp4911
a(g32
g6
(g18
S'\xba\xd8\x0b>'
p4912
tp4913
Rp4914
tp4915
a(g56
g6
(g18
S'.\xd7\x1c='
p4916
tp4917
Rp4918
tp4919
a(g44
g6
(g18
S'\xf5\x9c\x0f='
p4920
tp4921
Rp4922
tp4923
asg73
g15
sa(dp4924
g2
S'../../../data/emanuela/activity-recognition/images/NTCIR-Lifelog-256/u1/2015-02-25/b00000583_21i6bq_20150225_115805e.jpg'
p4925
sg4
(lp4926
(g15
g6
(g18
S'\xe9\xb8\\?'
p4927
tp4928
Rp4929
tp4930
a(g56
g6
(g18
S'\xbf\xd3<='
p4931
tp4932
Rp4933
tp4934
a(g32
g6
(g18
S'\xc8\xbc\x0b='
p4935
tp4936
Rp4937
tp4938
a(g68
g6
(g18
S'>\xa9\xf7<'
p4939
tp4940
Rp4941
tp4942
a(g44
g6
(g18
S's\xdc"<'
p4943
tp4944
Rp4945
tp4946
asg73
g15
sa(dp4947
g2
S'../../../data/emanuela/activity-recognition/images/NTCIR-Lifelog-256/u1/2015-02-28/b00000885_21i6bq_20150228_150942e.jpg'
p4948
sg4
(lp4949
(g15
g6
(g18
S'\xfe\x14\xf9>'
p4950
tp4951
Rp4952
tp4953
a(g56
g6
(g18
S'\xdc\x866>'
p4954
tp4955
Rp4956
tp4957
a(g96
g6
(g18
S'EK\x1f>'
p4958
tp4959
Rp4960
tp4961
a(g32
g6
(g18
S'\x85\xa9x='
p4962
tp4963
Rp4964
tp4965
a(g239
g6
(g18
S'\xb0\x9f\xd7<'
p4966
tp4967
Rp4968
tp4969
asg73
g15
sa(dp4970
g2
S'../../../data/emanuela/activity-recognition/images/NTCIR-Lifelog-256/u1/2015-02-28/b00000886_21i6bq_20150228_151016e.jpg'
p4971
sg4
(lp4972
(g15
g6
(g18
S'LZ.?'
p4973
tp4974
Rp4975
tp4976
a(g56
g6
(g18
S'\xae\t\x1a>'
p4977
tp4978
Rp4979
tp4980
a(g32
g6
(g18
S'\x84\xee\x87='
p4981
tp4982
Rp4983
tp4984
a(g96
g6
(g18
S'\xfa\xe5h='
p4985
tp4986
Rp4987
tp4988
a(g239
g6
(g18
S'\xfbaL<'
p4989
tp4990
Rp4991
tp4992
asg73
g15
sa(dp4993
g2
S'../../../data/emanuela/activity-recognition/images/NTCIR-Lifelog-256/u1/2015-02-27/b00000339_21i6bq_20150227_104454e.jpg'
p4994
sg4
(lp4995
(g15
g6
(g18
S'\xe7\x16V?'
p4996
tp4997
Rp4998
tp4999
a(g68
g6
(g18
S'x\x1c\xe9='
p5000
tp5001
Rp5002
tp5003
a(g56
g6
(g18
S'\x01\x8c\xcd<'
p5004
tp5005
Rp5006
tp5007
a(g108
g6
(g18
S'i\xe8\x9d;'
p5008
tp5009
Rp5010
tp5011
a(g96
g6
(g18
S'\xe6s\x97;'
p5012
tp5013
Rp5014
tp5015
asg73
g15
sa(dp5016
g2
S'../../../data/emanuela/activity-recognition/images/NTCIR-Lifelog-256/u1/2015-02-28/b00001032_21i6bq_20150228_171730e.jpg'
p5017
sg4
(lp5018
(g15
g6
(g18
S'\x06\x89)?'
p5019
tp5020
Rp5021
tp5022
a(g32
g6
(g18
S'\xef\x8f\x8f>'
p5023
tp5024
Rp5025
tp5026
a(g56
g6
(g18
S'\xc7\\\xd1<'
p5027
tp5028
Rp5029
tp5030
a(g68
g6
(g18
S'S\xa4\x84<'
p5031
tp5032
Rp5033
tp5034
a(g96
g6
(g18
S'v\xd1\x98;'
p5035
tp5036
Rp5037
tp5038
asg73
g15
sa(dp5039
g2
S'../../../data/emanuela/activity-recognition/images/NTCIR-Lifelog-256/u2/2015-04-23/b00001345_21i7lf_20150423_153823e.jpg'
p5040
sg4
(lp5041
(g840
g6
(g18
S'\x14\x05l>'
p5042
tp5043
Rp5044
tp5045
a(g96
g6
(g18
S'@\xa0E>'
p5046
tp5047
Rp5048
tp5049
a(g15
g6
(g18
S'\xbd%.>'
p5050
tp5051
Rp5052
tp5053
a(g794
g6
(g18
S'd)\x0e>'
p5054
tp5055
Rp5056
tp5057
a(g56
g6
(g18
S'\xfc\xbb\xe4='
p5058
tp5059
Rp5060
tp5061
asg73
g15
sa(dp5062
g2
S'../../../data/emanuela/activity-recognition/images/NTCIR-Lifelog-256/u1/2015-03-15/b00001397_21i6bq_20150315_211310e.jpg'
p5063
sg4
(lp5064
(g170
g6
(g18
S'\xe9\xa9\x15?'
p5065
tp5066
Rp5067
tp5068
a(g456
g6
(g18
S'\xfa;\xe6='
p5069
tp5070
Rp5071
tp5072
a(g286
g6
(g18
S'\xf5l\xde='
p5073
tp5074
Rp5075
tp5076
a(g255
g6
(g18
S'\xae\xd5\x8f='
p5077
tp5078
Rp5079
tp5080
a(g15
g6
(g18
S'\xefsi='
p5081
tp5082
Rp5083
tp5084
asg73
g15
sa(dp5085
g2
S'../../../data/emanuela/activity-recognition/images/NTCIR-Lifelog-256/u1/2015-02-23/b00000315_21i6bq_20150223_102427e.jpg'
p5086
sg4
(lp5087
(g15
g6
(g18
S'\xdb\xe6\xf4>'
p5088
tp5089
Rp5090
tp5091
a(g44
g6
(g18
S'Z\x9e\x89>'
p5092
tp5093
Rp5094
tp5095
a(g68
g6
(g18
S'4\xbe\x92='
p5096
tp5097
Rp5098
tp5099
a(g108
g6
(g18
S'\xb0\x84w='
p5100
tp5101
Rp5102
tp5103
a(g32
g6
(g18
S'Q\xce\xda<'
p5104
tp5105
Rp5106
tp5107
asg73
g15
sa(dp5108
g2
S'../../../data/emanuela/activity-recognition/images/NTCIR-Lifelog-256/u1/2015-03-06/b00000617_21i6bq_20150306_115503e.jpg'
p5109
sg4
(lp5110
(g15
g6
(g18
S'\x15A}?'
p5111
tp5112
Rp5113
tp5114
a(g32
g6
(g18
S'i\xc8\xf5;'
p5115
tp5116
Rp5117
tp5118
a(g68
g6
(g18
S'\xa4M\x19;'
p5119
tp5120
Rp5121
tp5122
a(g44
g6
(g18
S'\x85Q\xdc9'
p5123
tp5124
Rp5125
tp5126
a(g139
g6
(g18
S'/\xd1\n9'
p5127
tp5128
Rp5129
tp5130
asg73
g15
sa(dp5131
g2
S'../../../data/emanuela/activity-recognition/images/NTCIR-Lifelog-256/u1/2015-02-25/b00000353_21i6bq_20150225_093923e.jpg'
p5132
sg4
(lp5133
(g15
g6
(g18
S'#"m?'
p5134
tp5135
Rp5136
tp5137
a(g32
g6
(g18
S'\xfc\x9a\x15='
p5138
tp5139
Rp5140
tp5141
a(g56
g6
(g18
S'<jQ<'
p5142
tp5143
Rp5144
tp5145
a(g68
g6
(g18
S'(H(<'
p5146
tp5147
Rp5148
tp5149
a(g44
g6
(g18
S'\x7f\x11\xb4;'
p5150
tp5151
Rp5152
tp5153
asg73
g15
sa(dp5154
g2
S'../../../data/emanuela/activity-recognition/images/NTCIR-Lifelog-256/u1/2015-03-16/b00001837_21i6bq_20150316_101027e.jpg'
p5155
sg4
(lp5156
(g56
g6
(g18
S'\xe9yt>'
p5157
tp5158
Rp5159
tp5160
a(g794
g6
(g18
S'm\x11\x0b>'
p5161
tp5162
Rp5163
tp5164
a(g170
g6
(g18
S't\x11\xf9='
p5165
tp5166
Rp5167
tp5168
a(g15
g6
(g18
S'\xd6[\xa5='
p5169
tp5170
Rp5171
tp5172
a(g328
g6
(g18
S']*\x92='
p5173
tp5174
Rp5175
tp5176
asg73
g15
sa(dp5177
g2
S'../../../data/emanuela/activity-recognition/images/NTCIR-Lifelog-256/u2/2015-04-23/b00001363_21i7lf_20150423_154921e.jpg'
p5178
sg4
(lp5179
(g15
g6
(g18
S'Y\xd8s?'
p5180
tp5181
Rp5182
tp5183
a(g68
g6
(g18
S'\xf73\xc4<'
p5184
tp5185
Rp5186
tp5187
a(g32
g6
(g18
S'\xffR\xfb;'
p5188
tp5189
Rp5190
tp5191
a(g56
g6
(g18
S'\xeb7\xe6;'
p5192
tp5193
Rp5194
tp5195
a(g44
g6
(g18
S'\x15\xe4K;'
p5196
tp5197
Rp5198
tp5199
asg73
g15
sa(dp5200
g2
S'../../../data/emanuela/activity-recognition/images/NTCIR-Lifelog-256/u1/2015-02-27/b00000599_21i6bq_20150227_133438e.jpg'
p5201
sg4
(lp5202
(g15
g6
(g18
S'\xdb\xfae?'
p5203
tp5204
Rp5205
tp5206
a(g32
g6
(g18
S'{yn='
p5207
tp5208
Rp5209
tp5210
a(g56
g6
(g18
S'@\xd4S<'
p5211
tp5212
Rp5213
tp5214
a(g68
g6
(g18
S'\xd1\xc0B<'
p5215
tp5216
Rp5217
tp5218
a(g96
g6
(g18
S'\xc4\xf9!<'
p5219
tp5220
Rp5221
tp5222
asg73
g15
sa(dp5223
g2
S'../../../data/emanuela/activity-recognition/images/NTCIR-Lifelog-256/u1/2015-03-06/b00000665_21i6bq_20150306_122324e.jpg'
p5224
sg4
(lp5225
(g15
g6
(g18
S'q{{?'
p5226
tp5227
Rp5228
tp5229
a(g32
g6
(g18
S'*fh<'
p5230
tp5231
Rp5232
tp5233
a(g68
g6
(g18
S'\xa77\xe0:'
p5234
tp5235
Rp5236
tp5237
a(g44
g6
(g18
S'\xfanC:'
p5238
tp5239
Rp5240
tp5241
a(g56
g6
(g18
S'\xcfI\x9b9'
p5242
tp5243
Rp5244
tp5245
asg73
g15
sa(dp5246
g2
S'../../../data/emanuela/activity-recognition/images/NTCIR-Lifelog-256/u2/2015-05-02/b00003263_21i7lf_20150502_142959e.jpg'
p5247
sg4
(lp5248
(g56
g6
(g18
S'\x97\x0f\xa6>'
p5249
tp5250
Rp5251
tp5252
a(g68
g6
(g18
S'b\x1bN>'
p5253
tp5254
Rp5255
tp5256
a(g794
g6
(g18
S'>\x93,>'
p5257
tp5258
Rp5259
tp5260
a(g15
g6
(g18
S'\xccO\xa1='
p5261
tp5262
Rp5263
tp5264
a(g170
g6
(g18
S'\xef\xc5\x9c='
p5265
tp5266
Rp5267
tp5268
asg73
g15
sa(dp5269
g2
S'../../../data/emanuela/activity-recognition/images/NTCIR-Lifelog-256/u1/2015-03-10/b00000391_21i6bq_20150310_170125e.jpg'
p5270
sg4
(lp5271
(g15
g6
(g18
S'7_m?'
p5272
tp5273
Rp5274
tp5275
a(g32
g6
(g18
S'\xff\xb6\x8d='
p5276
tp5277
Rp5278
tp5279
a(g68
g6
(g18
S'\xf4\x10\x91:'
p5280
tp5281
Rp5282
tp5283
a(g139
g6
(g18
S'\xc3\xc31:'
p5284
tp5285
Rp5286
tp5287
a(g56
g6
(g18
S'\xde\xeb\x17:'
p5288
tp5289
Rp5290
tp5291
asg73
g15
sa(dp5292
g2
S'../../../data/emanuela/activity-recognition/images/NTCIR-Lifelog-256/u1/2015-03-06/b00000586_21i6bq_20150306_113654e.jpg'
p5293
sg4
(lp5294
(g15
g6
(g18
S'\x05\n|?'
p5295
tp5296
Rp5297
tp5298
a(g68
g6
(g18
S'M\\\xe4;'
p5299
tp5300
Rp5301
tp5302
a(g32
g6
(g18
S'?`s;'
p5303
tp5304
Rp5305
tp5306
a(g44
g6
(g18
S'\xe3\x93\x08;'
p5307
tp5308
Rp5309
tp5310
a(g139
g6
(g18
S'"\x08\xa7:'
p5311
tp5312
Rp5313
tp5314
asg73
g15
sa(dp5315
g2
S'../../../data/emanuela/activity-recognition/images/NTCIR-Lifelog-256/u1/2015-03-10/b00000384_21i6bq_20150310_165743e.jpg'
p5316
sg4
(lp5317
(g15
g6
(g18
S'\xa2 `?'
p5318
tp5319
Rp5320
tp5321
a(g32
g6
(g18
S'\x8c\x8a\xf2='
p5322
tp5323
Rp5324
tp5325
a(g56
g6
(g18
S'g\xd2\xab:'
p5326
tp5327
Rp5328
tp5329
a(g456
g6
(g18
S'\xf2\xbe\x96:'
p5330
tp5331
Rp5332
tp5333
a(g68
g6
(g18
S'\xa8\xd3\x90:'
p5334
tp5335
Rp5336
tp5337
asg73
g15
sa(dp5338
g2
S'../../../data/emanuela/activity-recognition/images/NTCIR-Lifelog-256/u2/2015-04-29/b00000161_21i7lf_20150429_183922e.jpg'
p5339
sg4
(lp5340
(g68
g6
(g18
S'`\x83[?'
p5341
tp5342
Rp5343
tp5344
a(g15
g6
(g18
S'\xc98\xa5='
p5345
tp5346
Rp5347
tp5348
a(g386
g6
(g18
S'S\xc6/='
p5349
tp5350
Rp5351
tp5352
a(g108
g6
(g18
S'oJ\x85;'
p5353
tp5354
Rp5355
tp5356
a(g328
g6
(g18
S'WZD;'
p5357
tp5358
Rp5359
tp5360
asg73
g15
sa(dp5361
g2
S'../../../data/emanuela/activity-recognition/images/NTCIR-Lifelog-256/u1/2015-03-06/b00000723_21i6bq_20150306_125712e.jpg'
p5362
sg4
(lp5363
(g15
g6
(g18
S'`C~?'
p5364
tp5365
Rp5366
tp5367
a(g32
g6
(g18
S'\xbc<!;'
p5368
tp5369
Rp5370
tp5371
a(g68
g6
(g18
S'\xef\xcb\x10;'
p5372
tp5373
Rp5374
tp5375
a(g44
g6
(g18
S'O\xefp:'
p5376
tp5377
Rp5378
tp5379
a(g139
g6
(g18
S'\x17\xa8\xaa9'
p5380
tp5381
Rp5382
tp5383
asg73
g15
sa(dp5384
g2
S'../../../data/emanuela/activity-recognition/images/NTCIR-Lifelog-256/u1/2015-03-12/b00000816_21i6bq_20150312_161651e.jpg'
p5385
sg4
(lp5386
(g68
g6
(g18
S'\xf1\x9cw>'
p5387
tp5388
Rp5389
tp5390
a(g15
g6
(g18
S'N\xbdg>'
p5391
tp5392
Rp5393
tp5394
a(g44
g6
(g18
S'\x7f\xe5P>'
p5395
tp5396
Rp5397
tp5398
a(g108
g6
(g18
S'n\xbb\x18>'
p5399
tp5400
Rp5401
tp5402
a(g56
g6
(g18
S'\x84\xa4O='
p5403
tp5404
Rp5405
tp5406
asg73
g15
sa(dp5407
g2
S'../../../data/emanuela/activity-recognition/images/NTCIR-Lifelog-256/u3/2015-06-20/b00001246_21i79q_20150620_004123e.jpg'
p5408
sg4
(lp5409
(g68
g6
(g18
S'\xae\xb2(?'
p5410
tp5411
Rp5412
tp5413
a(g15
g6
(g18
S'\x05\xa7\xa7>'
p5414
tp5415
Rp5416
tp5417
a(g56
g6
(g18
S')\xb5\xc4;'
p5418
tp5419
Rp5420
tp5421
a(g44
g6
(g18
S'\xd9\x8c\xbb;'
p5422
tp5423
Rp5424
tp5425
a(g286
g6
(g18
S';\xa2\xca9'
p5426
tp5427
Rp5428
tp5429
asg73
g15
sa(dp5430
g2
S'../../../data/emanuela/activity-recognition/images/NTCIR-Lifelog-256/u3/2015-06-18/b00000685_21i79q_20150618_195436e.jpg'
p5431
sg4
(lp5432
(g56
g6
(g18
S'v\xcd\xeb>'
p5433
tp5434
Rp5435
tp5436
a(g15
g6
(g18
S'7\xf5\x97>'
p5437
tp5438
Rp5439
tp5440
a(g68
g6
(g18
S'\xc9\xda\x1c>'
p5441
tp5442
Rp5443
tp5444
a(g425
g6
(g18
S'\xb1A\xf6<'
p5445
tp5446
Rp5447
tp5448
a(g255
g6
(g18
S'\xddNE<'
p5449
tp5450
Rp5451
tp5452
asg73
g15
sa(dp5453
g2
S'../../../data/emanuela/activity-recognition/images/NTCIR-Lifelog-256/u1/2015-03-06/b00000775_21i6bq_20150306_132713e.jpg'
p5454
sg4
(lp5455
(g15
g6
(g18
S'\x9c4~?'
p5456
tp5457
Rp5458
tp5459
a(g68
g6
(g18
S'|y5;'
p5460
tp5461
Rp5462
tp5463
a(g32
g6
(g18
S'D\xff/;'
p5464
tp5465
Rp5466
tp5467
a(g56
g6
(g18
S'\x1d\xdb\x0c:'
p5468
tp5469
Rp5470
tp5471
a(g44
g6
(g18
S'A\x7f\xca9'
p5472
tp5473
Rp5474
tp5475
asg73
g15
sa(dp5476
g2
S'../../../data/emanuela/activity-recognition/images/NTCIR-Lifelog-256/u1/2015-03-06/b00000752_21i6bq_20150306_131353e.jpg'
p5477
sg4
(lp5478
(g15
g6
(g18
S'\xe0\xf2s?'
p5479
tp5480
Rp5481
tp5482
a(g32
g6
(g18
S'\x99\x9e\x19='
p5483
tp5484
Rp5485
tp5486
a(g68
g6
(g18
S'\xe6K\x8a;'
p5487
tp5488
Rp5489
tp5490
a(g44
g6
(g18
S"S'\x87;"
p5491
tp5492
Rp5493
tp5494
a(g139
g6
(g18
S'\x8c\xae\xcb9'
p5495
tp5496
Rp5497
tp5498
asg73
g15
sa(dp5499
g2
S'../../../data/emanuela/activity-recognition/images/NTCIR-Lifelog-256/u3/2015-06-28/b00000910_21i79q_20150628_230250e.jpg'
p5500
sg4
(lp5501
(g15
g6
(g18
S'\x8c\x9a\\?'
p5502
tp5503
Rp5504
tp5505
a(g68
g6
(g18
S'\x04\xe3\x8a='
p5506
tp5507
Rp5508
tp5509
a(g56
g6
(g18
S'\xc9w\x8f<'
p5510
tp5511
Rp5512
tp5513
a(g170
g6
(g18
S'j\xe4m<'
p5514
tp5515
Rp5516
tp5517
a(g386
g6
(g18
S'\x16\xa6\x17<'
p5518
tp5519
Rp5520
tp5521
asg73
g15
sa(dp5522
g2
S'../../../data/emanuela/activity-recognition/images/NTCIR-Lifelog-256/u2/2015-04-30/b00001123_21i7lf_20150430_141702e.jpg'
p5523
sg4
(lp5524
(g44
g6
(g18
S'+\xd9_?'
p5525
tp5526
Rp5527
tp5528
a(g15
g6
(g18
S'\xca\xe7\xb3='
p5529
tp5530
Rp5531
tp5532
a(g32
g6
(g18
S'\xdd\xbd:<'
p5533
tp5534
Rp5535
tp5536
a(g68
g6
(g18
S'gH\x18<'
p5537
tp5538
Rp5539
tp5540
a(g96
g6
(g18
S'\xb4&\x91;'
p5541
tp5542
Rp5543
tp5544
asg73
g15
sa(dp5545
g2
S'../../../data/emanuela/activity-recognition/images/NTCIR-Lifelog-256/u1/2015-03-05/b00000953_21i6bq_20150305_164351e.jpg'
p5546
sg4
(lp5547
(g15
g6
(g18
S'z\\c?'
p5548
tp5549
Rp5550
tp5551
a(g32
g6
(g18
S'\xeaN\xd2='
p5552
tp5553
Rp5554
tp5555
a(g68
g6
(g18
S')\xdaP;'
p5556
tp5557
Rp5558
tp5559
a(g56
g6
(g18
S'w\xa2\xaa:'
p5560
tp5561
Rp5562
tp5563
a(g255
g6
(g18
S'%\xd5\x99:'
p5564
tp5565
Rp5566
tp5567
asg73
g15
sa(dp5568
g2
S'../../../data/emanuela/activity-recognition/images/NTCIR-Lifelog-256/u1/2015-03-02/b00000996_21i6bq_20150302_173630e.jpg'
p5569
sg4
(lp5570
(g15
g6
(g18
S'vw\xf6>'
p5571
tp5572
Rp5573
tp5574
a(g68
g6
(g18
S'\x0b\xc1\x84>'
p5575
tp5576
Rp5577
tp5578
a(g108
g6
(g18
S'4X\xc0='
p5579
tp5580
Rp5581
tp5582
a(g44
g6
(g18
S'f\xef\x92='
p5583
tp5584
Rp5585
tp5586
a(g56
g6
(g18
S'\xb9Nc='
p5587
tp5588
Rp5589
tp5590
asg73
g15
sa(dp5591
g2
S'../../../data/emanuela/activity-recognition/images/NTCIR-Lifelog-256/u2/2015-05-01/b00001801_21i7lf_20150501_091948e.jpg'
p5592
sg4
(lp5593
(g15
g6
(g18
S'\xce7<?'
p5594
tp5595
Rp5596
tp5597
a(g68
g6
(g18
S'\xde\xc2\xb0='
p5598
tp5599
Rp5600
tp5601
a(g44
g6
(g18
S'\xbd\x1b\x95='
p5602
tp5603
Rp5604
tp5605
a(g108
g6
(g18
S'\x84ki='
p5606
tp5607
Rp5608
tp5609
a(g96
g6
(g18
S'\xbb\x15\x8d<'
p5610
tp5611
Rp5612
tp5613
asg73
g15
sa(dp5614
g2
S'../../../data/emanuela/activity-recognition/images/NTCIR-Lifelog-256/u1/2015-03-10/b00000380_21i6bq_20150310_165531e.jpg'
p5615
sg4
(lp5616
(g15
g6
(g18
S'-\x9dn?'
p5617
tp5618
Rp5619
tp5620
a(g32
g6
(g18
S'S{\x86='
p5621
tp5622
Rp5623
tp5624
a(g56
g6
(g18
S'\xb8\xb4\x15:'
p5625
tp5626
Rp5627
tp5628
a(g68
g6
(g18
S'\xf7\x0e\t:'
p5629
tp5630
Rp5631
tp5632
a(g139
g6
(g18
S'\xa4\x10\x8a9'
p5633
tp5634
Rp5635
tp5636
asg73
g15
sa(dp5637
g2
S'../../../data/emanuela/activity-recognition/images/NTCIR-Lifelog-256/u1/2015-02-26/b00000319_21i6bq_20150226_094228e.jpg'
p5638
sg4
(lp5639
(g15
g6
(g18
S'%\xecP?'
p5640
tp5641
Rp5642
tp5643
a(g32
g6
(g18
S'\xe9\xd79='
p5644
tp5645
Rp5646
tp5647
a(g328
g6
(g18
S'\xa1\x8c\x0c='
p5648
tp5649
Rp5650
tp5651
a(g68
g6
(g18
S'5\x8c\xb5<'
p5652
tp5653
Rp5654
tp5655
a(g286
g6
(g18
S'\xf3o\xa8<'
p5656
tp5657
Rp5658
tp5659
asg73
g15
sa(dp5660
g2
S'../../../data/emanuela/activity-recognition/images/NTCIR-Lifelog-256/u3/2015-08-01/b00006701_21i79q_20150801_232411e.jpg'
p5661
sg4
(lp5662
(g15
g6
(g18
S'N\xbbA?'
p5663
tp5664
Rp5665
tp5666
a(g44
g6
(g18
S'\x04\xd1\x1a>'
p5667
tp5668
Rp5669
tp5670
a(g32
g6
(g18
S'C\xb0{='
p5671
tp5672
Rp5673
tp5674
a(g328
g6
(g18
S'\n \x03<'
p5675
tp5676
Rp5677
tp5678
a(g139
g6
(g18
S'\xe3f\xfc;'
p5679
tp5680
Rp5681
tp5682
asg73
g15
sa(dp5683
g2
S'../../../data/emanuela/activity-recognition/images/NTCIR-Lifelog-256/u2/2015-04-23/b00000868_21i7lf_20150423_093948e.jpg'
p5684
sg4
(lp5685
(g15
g6
(g18
S'\x1e\x07r>'
p5686
tp5687
Rp5688
tp5689
a(g794
g6
(g18
S'\xf7\xa6Y>'
p5690
tp5691
Rp5692
tp5693
a(g56
g6
(g18
S'\x90\xf29>'
p5694
tp5695
Rp5696
tp5697
a(g328
g6
(g18
S'\xff0\x11>'
p5698
tp5699
Rp5700
tp5701
a(g68
g6
(g18
S'W\x9a\x1b='
p5702
tp5703
Rp5704
tp5705
asg73
g15
sa(dp5706
g2
S'../../../data/emanuela/activity-recognition/images/NTCIR-Lifelog-256/u2/2015-04-29/b00000274_21i7lf_20150429_101735e.jpg'
p5707
sg4
(lp5708
(g96
g6
(g18
S'\xf7\xbc\x9b>'
p5709
tp5710
Rp5711
tp5712
a(g32
g6
(g18
S'\xf6\xc6L>'
p5713
tp5714
Rp5715
tp5716
a(g15
g6
(g18
S'Tu8>'
p5717
tp5718
Rp5719
tp5720
a(g56
g6
(g18
S'\xb8\x9a\r>'
p5721
tp5722
Rp5723
tp5724
a(g108
g6
(g18
S'\xeb\xc2\xf6='
p5725
tp5726
Rp5727
tp5728
asg73
g15
sa(dp5729
g2
S'../../../data/emanuela/activity-recognition/images/NTCIR-Lifelog-256/u1/2015-02-25/b00001050_21i6bq_20150225_165625e.jpg'
p5730
sg4
(lp5731
(g15
g6
(g18
S'\x93\x03\x0f?'
p5732
tp5733
Rp5734
tp5735
a(g56
g6
(g18
S'\xcf\xae\x14>'
p5736
tp5737
Rp5738
tp5739
a(g68
g6
(g18
S'\xb06\x14>'
p5740
tp5741
Rp5742
tp5743
a(g32
g6
(g18
S'\xa6\xf8\x84='
p5744
tp5745
Rp5746
tp5747
a(g139
g6
(g18
S'r\xe2\xa6<'
p5748
tp5749
Rp5750
tp5751
asg73
g15
sa(dp5752
g2
S'../../../data/emanuela/activity-recognition/images/NTCIR-Lifelog-256/u1/2015-03-06/b00000616_21i6bq_20150306_115428e.jpg'
p5753
sg4
(lp5754
(g15
g6
(g18
S'\x17J{?'
p5755
tp5756
Rp5757
tp5758
a(g32
g6
(g18
S'B\xfd\xf2;'
p5759
tp5760
Rp5761
tp5762
a(g68
g6
(g18
S'e\xa7\xe9;'
p5763
tp5764
Rp5765
tp5766
a(g139
g6
(g18
S'\x9f0\xa4:'
p5767
tp5768
Rp5769
tp5770
a(g44
g6
(g18
S'\xb0c\x90:'
p5771
tp5772
Rp5773
tp5774
asg73
g15
sa(dp5775
g2
S'../../../data/emanuela/activity-recognition/images/NTCIR-Lifelog-256/u2/2015-04-29/b00000673_21i7lf_20150429_142759e.jpg'
p5776
sg4
(lp5777
(g15
g6
(g18
S'\xc6MH?'
p5778
tp5779
Rp5780
tp5781
a(g32
g6
(g18
S'&\x15\x95='
p5782
tp5783
Rp5784
tp5785
a(g68
g6
(g18
S'\x8c\x07\x16='
p5786
tp5787
Rp5788
tp5789
a(g108
g6
(g18
S'\x8d\x81\x10='
p5790
tp5791
Rp5792
tp5793
a(g328
g6
(g18
S'V{\t='
p5794
tp5795
Rp5796
tp5797
asg73
g15
sa(dp5798
g2
S'../../../data/emanuela/activity-recognition/images/NTCIR-Lifelog-256/u3/2015-08-01/b00006733_21i79q_20150801_234126e.jpg'
p5799
sg4
(lp5800
(g15
g6
(g18
S'hd\x1c?'
p5801
tp5802
Rp5803
tp5804
a(g44
g6
(g18
S'\x0b\xe0}>'
p5805
tp5806
Rp5807
tp5808
a(g32
g6
(g18
S'\xfdle='
p5809
tp5810
Rp5811
tp5812
a(g328
g6
(g18
S'\xff\x01\x06='
p5813
tp5814
Rp5815
tp5816
a(g456
g6
(g18
S'\x15U\x88<'
p5817
tp5818
Rp5819
tp5820
asg73
g15
sa(dp5821
g2
S'../../../data/emanuela/activity-recognition/images/NTCIR-Lifelog-256/u3/2015-07-01/b00000030_21i79q_20150701_123833e.jpg'
p5822
sg4
(lp5823
(g15
g6
(g18
S'\xd9z^?'
p5824
tp5825
Rp5826
tp5827
a(g32
g6
(g18
S'\x1eE\x01>'
p5828
tp5829
Rp5830
tp5831
a(g44
g6
(g18
S'~@6;'
p5832
tp5833
Rp5834
tp5835
a(g108
g6
(g18
S'\x1c\x9ei:'
p5836
tp5837
Rp5838
tp5839
a(g328
g6
(g18
S'\xfe\x1e\xd79'
p5840
tp5841
Rp5842
tp5843
asg73
g15
sa(dp5844
g2
S'../../../data/emanuela/activity-recognition/images/NTCIR-Lifelog-256/u2/2015-04-23/b00000864_21i7lf_20150423_093720e.jpg'
p5845
sg4
(lp5846
(g15
g6
(g18
S'\xa2|N?'
p5847
tp5848
Rp5849
tp5850
a(g68
g6
(g18
S'W\x8ff='
p5851
tp5852
Rp5853
tp5854
a(g44
g6
(g18
S'\xfflF='
p5855
tp5856
Rp5857
tp5858
a(g56
g6
(g18
S'\x1d\xaf,='
p5859
tp5860
Rp5861
tp5862
a(g794
g6
(g18
S'.\x1cI<'
p5863
tp5864
Rp5865
tp5866
asg73
g15
sa(dp5867
g2
S'../../../data/emanuela/activity-recognition/images/NTCIR-Lifelog-256/u2/2015-04-23/b00001645_21i7lf_20150423_195211e.jpg'
p5868
sg4
(lp5869
(g15
g6
(g18
S'\x91FD?'
p5870
tp5871
Rp5872
tp5873
a(g68
g6
(g18
S'\x02\xb5 >'
p5874
tp5875
Rp5876
tp5877
a(g32
g6
(g18
S'\xb4\xda\xe0<'
p5878
tp5879
Rp5880
tp5881
a(g44
g6
(g18
S'\x19\xa9d<'
p5882
tp5883
Rp5884
tp5885
a(g255
g6
(g18
S'yKT<'
p5886
tp5887
Rp5888
tp5889
asg73
g15
sa(dp5890
g2
S'../../../data/emanuela/activity-recognition/images/NTCIR-Lifelog-256/u2/2015-04-27/b00004979_21i7lf_20150427_091027e.jpg'
p5891
sg4
(lp5892
(g68
g6
(g18
S'\x88\xc1!?'
p5893
tp5894
Rp5895
tp5896
a(g15
g6
(g18
S',51>'
p5897
tp5898
Rp5899
tp5900
a(g386
g6
(g18
S'\x81\xe3\x8e='
p5901
tp5902
Rp5903
tp5904
a(g56
g6
(g18
S'"\x87\x05='
p5905
tp5906
Rp5907
tp5908
a(g328
g6
(g18
S'\xa3\x9f\xf7<'
p5909
tp5910
Rp5911
tp5912
asg73
g15
sa(dp5913
g2
S'../../../data/emanuela/activity-recognition/images/NTCIR-Lifelog-256/u1/2015-02-26/b00000901_21i6bq_20150226_155104e.jpg'
p5914
sg4
(lp5915
(g15
g6
(g18
S'\xa9\xbdJ?'
p5916
tp5917
Rp5918
tp5919
a(g32
g6
(g18
S'R+\xf8='
p5920
tp5921
Rp5922
tp5923
a(g68
g6
(g18
S'}\xac.='
p5924
tp5925
Rp5926
tp5927
a(g56
g6
(g18
S'3bc<'
p5928
tp5929
Rp5930
tp5931
a(g239
g6
(g18
S'\x11c\x1e<'
p5932
tp5933
Rp5934
tp5935
asg73
g15
sa(dp5936
g2
S'../../../data/emanuela/activity-recognition/images/NTCIR-Lifelog-256/u1/2015-02-26/b00000448_21i6bq_20150226_111334e.jpg'
p5937
sg4
(lp5938
(g15
g6
(g18
S'\x9d\x92\x17?'
p5939
tp5940
Rp5941
tp5942
a(g32
g6
(g18
S'q\x1a\xcc>'
p5943
tp5944
Rp5945
tp5946
a(g56
g6
(g18
S']\xf8\x1a;'
p5947
tp5948
Rp5949
tp5950
a(g239
g6
(g18
S'D\xf9\x01;'
p5951
tp5952
Rp5953
tp5954
a(g44
g6
(g18
S'\x1b\xc1\x00;'
p5955
tp5956
Rp5957
tp5958
asg73
g15
sa(dp5959
g2
S'../../../data/emanuela/activity-recognition/images/NTCIR-Lifelog-256/u2/2015-04-27/b00005097_21i7lf_20150427_102320e.jpg'
p5960
sg4
(lp5961
(g15
g6
(g18
S"\xa7*'?"
p5962
tp5963
Rp5964
tp5965
a(g32
g6
(g18
S':J\xfa='
p5966
tp5967
Rp5968
tp5969
a(g68
g6
(g18
S'\x8b\xdd\xcd='
p5970
tp5971
Rp5972
tp5973
a(g139
g6
(g18
S'\x9e\xf2\xff<'
p5974
tp5975
Rp5976
tp5977
a(g44
g6
(g18
S';r\xb7<'
p5978
tp5979
Rp5980
tp5981
asg73
g15
sa(dp5982
g2
S'../../../data/emanuela/activity-recognition/images/NTCIR-Lifelog-256/u2/2015-04-22/b00000238_21i7lf_20150422_151246e.jpg'
p5983
sg4
(lp5984
(g15
g6
(g18
S'7\x99\x16?'
p5985
tp5986
Rp5987
tp5988
a(g32
g6
(g18
S'\xb4\\_>'
p5989
tp5990
Rp5991
tp5992
a(g108
g6
(g18
S'\x1f?3='
p5993
tp5994
Rp5995
tp5996
a(g239
g6
(g18
S'\xec\x87\x0c='
p5997
tp5998
Rp5999
tp6000
a(g56
g6
(g18
S'\x8a\x0c\xe7<'
p6001
tp6002
Rp6003
tp6004
asg73
g15
sa(dp6005
g2
S'../../../data/emanuela/activity-recognition/images/NTCIR-Lifelog-256/u2/2015-04-23/b00001359_21i7lf_20150423_154653e.jpg'
p6006
sg4
(lp6007
(g15
g6
(g18
S'8/\x19?'
p6008
tp6009
Rp6010
tp6011
a(g68
g6
(g18
S'\x9c\x1e/>'
p6012
tp6013
Rp6014
tp6015
a(g56
g6
(g18
S'\xf9\n\xde='
p6016
tp6017
Rp6018
tp6019
a(g425
g6
(g18
S'\xb3\xa7\xab='
p6020
tp6021
Rp6022
tp6023
a(g32
g6
(g18
S'\x18\x058<'
p6024
tp6025
Rp6026
tp6027
asg73
g15
sa(dp6028
g2
S'../../../data/emanuela/activity-recognition/images/NTCIR-Lifelog-256/u1/2015-03-04/b00000492_21i6bq_20150304_114955e.jpg'
p6029
sg4
(lp6030
(g15
g6
(g18
S'\x150z?'
p6031
tp6032
Rp6033
tp6034
a(g56
g6
(g18
S'?\x0fx<'
p6035
tp6036
Rp6037
tp6038
a(g68
g6
(g18
S'\x9c\x87\xcf;'
p6039
tp6040
Rp6041
tp6042
a(g32
g6
(g18
S'\x14s\xf39'
p6043
tp6044
Rp6045
tp6046
a(g425
g6
(g18
S'\xb6XO9'
p6047
tp6048
Rp6049
tp6050
asg73
g15
sa(dp6051
g2
S'../../../data/emanuela/activity-recognition/images/NTCIR-Lifelog-256/u1/2015-02-26/b00000303_21i6bq_20150226_092838e.jpg'
p6052
sg4
(lp6053
(g15
g6
(g18
S'\x1a\xc9k?'
p6054
tp6055
Rp6056
tp6057
a(g32
g6
(g18
S'\xca1d='
p6058
tp6059
Rp6060
tp6061
a(g68
g6
(g18
S'<\xd2\x11<'
p6062
tp6063
Rp6064
tp6065
a(g44
g6
(g18
S'\x17\xb9\xa4;'
p6066
tp6067
Rp6068
tp6069
a(g56
g6
(g18
S'<\xa8\x85;'
p6070
tp6071
Rp6072
tp6073
asg73
g15
sa(dp6074
g2
S'../../../data/emanuela/activity-recognition/images/NTCIR-Lifelog-256/u2/2015-05-01/b00002389_21i7lf_20150501_152222e.jpg'
p6075
sg4
(lp6076
(g15
g6
(g18
S'\x12\xc6h?'
p6077
tp6078
Rp6079
tp6080
a(g32
g6
(g18
S'!_=='
p6081
tp6082
Rp6083
tp6084
a(g44
g6
(g18
S'\x9e\x13\xf5<'
p6085
tp6086
Rp6087
tp6088
a(g68
g6
(g18
S'\xc6\xdb\t<'
p6089
tp6090
Rp6091
tp6092
a(g56
g6
(g18
S's\xdd\xdd:'
p6093
tp6094
Rp6095
tp6096
asg73
g15
sa(dp6097
g2
S'../../../data/emanuela/activity-recognition/images/NTCIR-Lifelog-256/u2/2015-05-05/b00005321_21i7lf_20150505_120025e.jpg'
p6098
sg4
(lp6099
(g56
g6
(g18
S"'\x91\x0f?"
p6100
tp6101
Rp6102
tp6103
a(g170
g6
(g18
S'\r\xbb\xfd='
p6104
tp6105
Rp6106
tp6107
a(g386
g6
(g18
S'\xe1N\xc7='
p6108
tp6109
Rp6110
tp6111
a(g794
g6
(g18
S'=\xa1x='
p6112
tp6113
Rp6114
tp6115
a(g15
g6
(g18
S'\xf9\xc4.='
p6116
tp6117
Rp6118
tp6119
asg73
g15
sa(dp6120
g2
S'../../../data/emanuela/activity-recognition/images/NTCIR-Lifelog-256/u1/2015-03-10/b00000580_21i6bq_20150310_191129e.jpg'
p6121
sg4
(lp6122
(g15
g6
(g18
S'\xbc\xc0R?'
p6123
tp6124
Rp6125
tp6126
a(g56
g6
(g18
S'\xd8\x82E='
p6127
tp6128
Rp6129
tp6130
a(g239
g6
(g18
S'\xc8g ='
p6131
tp6132
Rp6133
tp6134
a(g32
g6
(g18
S'\xc4\xbe\xab<'
p6135
tp6136
Rp6137
tp6138
a(g255
g6
(g18
S'\x06\xfd\xa3<'
p6139
tp6140
Rp6141
tp6142
asg73
g15
sa(dp6143
g2
S'../../../data/emanuela/activity-recognition/images/NTCIR-Lifelog-256/u1/2015-03-02/b00000327_21i6bq_20150302_101647e.jpg'
p6144
sg4
(lp6145
(g15
g6
(g18
S'\x8fFl?'
p6146
tp6147
Rp6148
tp6149
a(g32
g6
(g18
S'\xd3\xb2n='
p6150
tp6151
Rp6152
tp6153
a(g68
g6
(g18
S'\xdat|<'
p6154
tp6155
Rp6156
tp6157
a(g44
g6
(g18
S'\xe1\xd8\xac:'
p6158
tp6159
Rp6160
tp6161
a(g56
g6
(g18
S'\xacy\xa3:'
p6162
tp6163
Rp6164
tp6165
asg73
g15
sa(dp6166
g2
S'../../../data/emanuela/activity-recognition/images/NTCIR-Lifelog-256/u1/2015-02-28/b00000878_21i6bq_20150228_150529e.jpg'
p6167
sg4
(lp6168
(g15
g6
(g18
S'\x02\xe5\x1c?'
p6169
tp6170
Rp6171
tp6172
a(g32
g6
(g18
S'&\xf2\xa9>'
p6173
tp6174
Rp6175
tp6176
a(g56
g6
(g18
S'\xc9\xda\xed<'
p6177
tp6178
Rp6179
tp6180
a(g68
g6
(g18
S'\xd76\xfa;'
p6181
tp6182
Rp6183
tp6184
a(g328
g6
(g18
S'53\x9c;'
p6185
tp6186
Rp6187
tp6188
asg73
g15
sa(dp6189
g2
S'../../../data/emanuela/activity-recognition/images/NTCIR-Lifelog-256/u2/2015-04-29/b00000834_21i7lf_20150429_160845e.jpg'
p6190
sg4
(lp6191
(g15
g6
(g18
S'$Y3?'
p6192
tp6193
Rp6194
tp6195
a(g68
g6
(g18
S'>\x01\xd8='
p6196
tp6197
Rp6198
tp6199
a(g44
g6
(g18
S'\xa6\x87\x86='
p6200
tp6201
Rp6202
tp6203
a(g108
g6
(g18
S'M\xdeh='
p6204
tp6205
Rp6206
tp6207
a(g96
g6
(g18
S'\xda\x85\xf9<'
p6208
tp6209
Rp6210
tp6211
asg73
g15
sa(dp6212
g2
S'../../../data/emanuela/activity-recognition/images/NTCIR-Lifelog-256/u1/2015-03-06/b00000751_21i6bq_20150306_131322e.jpg'
p6213
sg4
(lp6214
(g15
g6
(g18
S'%\x9ae?'
p6215
tp6216
Rp6217
tp6218
a(g68
g6
(g18
S'\x96E,='
p6219
tp6220
Rp6221
tp6222
a(g32
g6
(g18
S'\xad\xe1\x11='
p6223
tp6224
Rp6225
tp6226
a(g44
g6
(g18
S'\xc2\x1a\xe0;'
p6227
tp6228
Rp6229
tp6230
a(g108
g6
(g18
S'\xd3\xc1\xb7;'
p6231
tp6232
Rp6233
tp6234
asg73
g15
sa(dp6235
g2
S'../../../data/emanuela/activity-recognition/images/NTCIR-Lifelog-256/u1/2015-03-09/b00000691_21i6bq_20150309_141815e.jpg'
p6236
sg4
(lp6237
(g15
g6
(g18
S'XbU?'
p6238
tp6239
Rp6240
tp6241
a(g32
g6
(g18
S',.\x85='
p6242
tp6243
Rp6244
tp6245
a(g239
g6
(g18
S'\xc1a]='
p6246
tp6247
Rp6248
tp6249
a(g56
g6
(g18
S'R\xd9\xae<'
p6250
tp6251
Rp6252
tp6253
a(g456
g6
(g18
S'\xfb\xfcW<'
p6254
tp6255
Rp6256
tp6257
asg73
g15
sa(dp6258
g2
S'../../../data/emanuela/activity-recognition/images/NTCIR-Lifelog-256/u1/2015-02-25/b00000587_21i6bq_20150225_120033e.jpg'
p6259
sg4
(lp6260
(g15
g6
(g18
S')\x1a5?'
p6261
tp6262
Rp6263
tp6264
a(g32
g6
(g18
S'\xd9\x83\x89>'
p6265
tp6266
Rp6267
tp6268
a(g44
g6
(g18
S'3(O<'
p6269
tp6270
Rp6271
tp6272
a(g68
g6
(g18
S'\xba\xc0\x96;'
p6273
tp6274
Rp6275
tp6276
a(g56
g6
(g18
S'@\xc0?;'
p6277
tp6278
Rp6279
tp6280
asg73
g15
sa(dp6281
g2
S'../../../data/emanuela/activity-recognition/images/NTCIR-Lifelog-256/u1/2015-02-24/b00000557_21i6bq_20150224_122208e.jpg'
p6282
sg4
(lp6283
(g15
g6
(g18
S'\\\xb7u?'
p6284
tp6285
Rp6286
tp6287
a(g32
g6
(g18
S'%\xcd\xe9<'
p6288
tp6289
Rp6290
tp6291
a(g68
g6
(g18
S'\x17J\x9c;'
p6292
tp6293
Rp6294
tp6295
a(g56
g6
(g18
S'|\xca\x94;'
p6296
tp6297
Rp6298
tp6299
a(g44
g6
(g18
S'WJe:'
p6300
tp6301
Rp6302
tp6303
asg73
g15
sa(dp6304
g2
S'../../../data/emanuela/activity-recognition/images/NTCIR-Lifelog-256/u3/2015-08-01/b00006727_21i79q_20150801_233824e.jpg'
p6305
sg4
(lp6306
(g15
g6
(g18
S'n.\x16?'
p6307
tp6308
Rp6309
tp6310
a(g44
g6
(g18
S'\x0fL\x91>'
p6311
tp6312
Rp6313
tp6314
a(g32
g6
(g18
S'\x84\xa9\x18='
p6315
tp6316
Rp6317
tp6318
a(g328
g6
(g18
S'\x7f"\x0f='
p6319
tp6320
Rp6321
tp6322
a(g456
g6
(g18
S'\x00-\x83<'
p6323
tp6324
Rp6325
tp6326
asg73
g15
sa(dp6327
g2
S'../../../data/emanuela/activity-recognition/images/NTCIR-Lifelog-256/u1/2015-02-27/b00000542_21i6bq_20150227_125755e.jpg'
p6328
sg4
(lp6329
(g15
g6
(g18
S'2\x91^?'
p6330
tp6331
Rp6332
tp6333
a(g32
g6
(g18
S'5\x01\x8f='
p6334
tp6335
Rp6336
tp6337
a(g56
g6
(g18
S'.\x1e\xce<'
p6338
tp6339
Rp6340
tp6341
a(g108
g6
(g18
S'\x14R\x1b<'
p6342
tp6343
Rp6344
tp6345
a(g68
g6
(g18
S'\x9e\x0c\x04<'
p6346
tp6347
Rp6348
tp6349
asg73
g15
sa(dp6350
g2
S'../../../data/emanuela/activity-recognition/images/NTCIR-Lifelog-256/u1/2015-03-06/b00000804_21i6bq_20150306_134347e.jpg'
p6351
sg4
(lp6352
(g15
g6
(g18
S'\x87\xa0~?'
p6353
tp6354
Rp6355
tp6356
a(g32
g6
(g18
S'\xc1\xd3\x8d;'
p6357
tp6358
Rp6359
tp6360
a(g68
g6
(g18
S'\x19\x0c\xdf9'
p6361
tp6362
Rp6363
tp6364
a(g139
g6
(g18
S'"=I9'
p6365
tp6366
Rp6367
tp6368
a(g456
g6
(g18
S'd\xdf\xfd8'
p6369
tp6370
Rp6371
tp6372
asg73
g15
sa(dp6373
g2
S'../../../data/emanuela/activity-recognition/images/NTCIR-Lifelog-256/u1/2015-02-24/b00000638_21i6bq_20150224_131120e.jpg'
p6374
sg4
(lp6375
(g15
g6
(g18
S'\x0bU5?'
p6376
tp6377
Rp6378
tp6379
a(g32
g6
(g18
S'\xa1u\x8d>'
p6380
tp6381
Rp6382
tp6383
a(g56
g6
(g18
S'`{\xb6;'
p6384
tp6385
Rp6386
tp6387
a(g239
g6
(g18
S'~\xfaL;'
p6388
tp6389
Rp6390
tp6391
a(g68
g6
(g18
S'\x95~\x08;'
p6392
tp6393
Rp6394
tp6395
asg73
g15
sa(dp6396
g2
S'../../../data/emanuela/activity-recognition/images/NTCIR-Lifelog-256/u2/2015-04-30/b00001159_21i7lf_20150430_143907e.jpg'
p6397
sg4
(lp6398
(g239
g6
(g18
S'\x8c{\x93>'
p6399
tp6400
Rp6401
tp6402
a(g456
g6
(g18
S'.\xc8Z>'
p6403
tp6404
Rp6405
tp6406
a(g32
g6
(g18
S'\xebV\x1b>'
p6407
tp6408
Rp6409
tp6410
a(g328
g6
(g18
S'\x06\xf0\xf4='
p6411
tp6412
Rp6413
tp6414
a(g255
g6
(g18
S'3p\xaf='
p6415
tp6416
Rp6417
tp6418
asg73
g15
sa(dp6419
g2
S'../../../data/emanuela/activity-recognition/images/NTCIR-Lifelog-256/u2/2015-04-27/b00005365_21i7lf_20150427_130907e.jpg'
p6420
sg4
(lp6421
(g15
g6
(g18
S'\xe1\x1eg?'
p6422
tp6423
Rp6424
tp6425
a(g68
g6
(g18
S'\xe4m=='
p6426
tp6427
Rp6428
tp6429
a(g32
g6
(g18
S'H4\xde<'
p6430
tp6431
Rp6432
tp6433
a(g56
g6
(g18
S'\x1d!\x90<'
p6434
tp6435
Rp6436
tp6437
a(g44
g6
(g18
S'\xec\xda\xdc:'
p6438
tp6439
Rp6440
tp6441
asg73
g15
sa(dp6442
g2
S'../../../data/emanuela/activity-recognition/images/NTCIR-Lifelog-256/u1/2015-02-26/b00000447_21i6bq_20150226_111301e.jpg'
p6443
sg4
(lp6444
(g15
g6
(g18
S'\xa6Bi?'
p6445
tp6446
Rp6447
tp6448
a(g32
g6
(g18
S'\xed\x97\xaa='
p6449
tp6450
Rp6451
tp6452
a(g239
g6
(g18
S'\x1d\xe5\xea:'
p6453
tp6454
Rp6455
tp6456
a(g56
g6
(g18
S"'3\xe2:"
p6457
tp6458
Rp6459
tp6460
a(g456
g6
(g18
S'rt\n:'
p6461
tp6462
Rp6463
tp6464
asg73
g15
sa(dp6465
g2
S'../../../data/emanuela/activity-recognition/images/NTCIR-Lifelog-256/u1/2015-03-02/b00000322_21i6bq_20150302_101248e.jpg'
p6466
sg4
(lp6467
(g15
g6
(g18
S'\xc6\x10w?'
p6468
tp6469
Rp6470
tp6471
a(g32
g6
(g18
S'\xbcm\xcc<'
p6472
tp6473
Rp6474
tp6475
a(g68
g6
(g18
S'F\xf2\x06<'
p6476
tp6477
Rp6478
tp6479
a(g44
g6
(g18
S'\xd2\x96\x97:'
p6480
tp6481
Rp6482
tp6483
a(g56
g6
(g18
S'\xc7\x16B9'
p6484
tp6485
Rp6486
tp6487
asg73
g15
sa(dp6488
g2
S'../../../data/emanuela/activity-recognition/images/NTCIR-Lifelog-256/u1/2015-02-27/b00000600_21i6bq_20150227_133511e.jpg'
p6489
sg4
(lp6490
(g15
g6
(g18
S'\xc0)j?'
p6491
tp6492
Rp6493
tp6494
a(g32
g6
(g18
S'\xbc\x82i='
p6495
tp6496
Rp6497
tp6498
a(g68
g6
(g18
S'\xf0\x03\x95<'
p6499
tp6500
Rp6501
tp6502
a(g44
g6
(g18
S'\xed=h;'
p6503
tp6504
Rp6505
tp6506
a(g56
g6
(g18
S'\xae\xe4\x1b;'
p6507
tp6508
Rp6509
tp6510
asg73
g15
sa(dp6511
g2
S'../../../data/emanuela/activity-recognition/images/NTCIR-Lifelog-256/u2/2015-05-08/b00008711_21i7lf_20150508_094115e.jpg'
p6512
sg4
(lp6513
(g32
g6
(g18
S'\xe3\n\xc8>'
p6514
tp6515
Rp6516
tp6517
a(g56
g6
(g18
S'\x88\xea\x8d>'
p6518
tp6519
Rp6520
tp6521
a(g15
g6
(g18
S'\xc2\x17\xde='
p6522
tp6523
Rp6524
tp6525
a(g840
g6
(g18
S'\xd2\xad?='
p6526
tp6527
Rp6528
tp6529
a(g794
g6
(g18
S' \xf7.='
p6530
tp6531
Rp6532
tp6533
asg73
g15
sa(dp6534
g2
S'../../../data/emanuela/activity-recognition/images/NTCIR-Lifelog-256/u3/2015-08-01/b00006742_21i79q_20150801_234619e.jpg'
p6535
sg4
(lp6536
(g15
g6
(g18
S'\n&\x03?'
p6537
tp6538
Rp6539
tp6540
a(g44
g6
(g18
S'\xfdu\x85>'
p6541
tp6542
Rp6543
tp6544
a(g32
g6
(g18
S'\x1b4\x8f='
p6545
tp6546
Rp6547
tp6548
a(g139
g6
(g18
S'\xf0\x13\x0c='
p6549
tp6550
Rp6551
tp6552
a(g328
g6
(g18
S'#\xa1\n='
p6553
tp6554
Rp6555
tp6556
asg73
g15
sa(dp6557
g2
S'../../../data/emanuela/activity-recognition/images/NTCIR-Lifelog-256/u1/2015-02-28/b00000879_21i6bq_20150228_150603e.jpg'
p6558
sg4
(lp6559
(g15
g6
(g18
S'\xcb\x9e)?'
p6560
tp6561
Rp6562
tp6563
a(g32
g6
(g18
S'\x98e`>'
p6564
tp6565
Rp6566
tp6567
a(g56
g6
(g18
S'\xcb\x0b\x8d='
p6568
tp6569
Rp6570
tp6571
a(g96
g6
(g18
S'\xa7qh<'
p6572
tp6573
Rp6574
tp6575
a(g328
g6
(g18
S'}\xec\x1d<'
p6576
tp6577
Rp6578
tp6579
asg73
g15
sa(dp6580
g2
S'../../../data/emanuela/activity-recognition/images/NTCIR-Lifelog-256/u2/2015-04-21/b00000836_21i7lf_20150421_182616e.jpg'
p6581
sg4
(lp6582
(g68
g6
(g18
S'-\xcb\xcf>'
p6583
tp6584
Rp6585
tp6586
a(g15
g6
(g18
S'\xd1\xd9\xcb>'
p6587
tp6588
Rp6589
tp6590
a(g386
g6
(g18
S'\xa4K\x1b>'
p6591
tp6592
Rp6593
tp6594
a(g108
g6
(g18
S'\x03\xf3\xa8<'
p6595
tp6596
Rp6597
tp6598
a(g56
g6
(g18
S'\xe0_\xe2;'
p6599
tp6600
Rp6601
tp6602
asg73
g15
sa(dp6603
g2
S'../../../data/emanuela/activity-recognition/images/NTCIR-Lifelog-256/u2/2015-04-30/b00001156_21i7lf_20150430_143707e.jpg'
p6604
sg4
(lp6605
(g44
g6
(g18
S'\xc8F\x0e?'
p6606
tp6607
Rp6608
tp6609
a(g108
g6
(g18
S'`\xf2\x08>'
p6610
tp6611
Rp6612
tp6613
a(g15
g6
(g18
S'\xa7^\xd4='
p6614
tp6615
Rp6616
tp6617
a(g68
g6
(g18
S'\xee\xdf\xac='
p6618
tp6619
Rp6620
tp6621
a(g32
g6
(g18
S'\xc7\xa7m='
p6622
tp6623
Rp6624
tp6625
asg73
g15
sa(dp6626
g2
S'../../../data/emanuela/activity-recognition/images/NTCIR-Lifelog-256/u2/2015-05-01/b00002146_21i7lf_20150501_125212e.jpg'
p6627
sg4
(lp6628
(g15
g6
(g18
S'\xb6\xaeV?'
p6629
tp6630
Rp6631
tp6632
a(g170
g6
(g18
S'E\x05\xb4='
p6633
tp6634
Rp6635
tp6636
a(g56
g6
(g18
S'+X\x0c='
p6637
tp6638
Rp6639
tp6640
a(g32
g6
(g18
S'=\xcb\x91<'
p6641
tp6642
Rp6643
tp6644
a(g456
g6
(g18
S'\x8a\x8c\x9c;'
p6645
tp6646
Rp6647
tp6648
asg73
g15
sa(dp6649
g2
S'../../../data/emanuela/activity-recognition/images/NTCIR-Lifelog-256/u2/2015-05-08/b00009707_21i7lf_20150508_204736e.jpg'
p6650
sg4
(lp6651
(g15
g6
(g18
S'Wl0?'
p6652
tp6653
Rp6654
tp6655
a(g68
g6
(g18
S'^f\x8f>'
p6656
tp6657
Rp6658
tp6659
a(g386
g6
(g18
S'D\xd3q<'
p6660
tp6661
Rp6662
tp6663
a(g44
g6
(g18
S'\x9a\x1e\xd0;'
p6664
tp6665
Rp6666
tp6667
a(g96
g6
(g18
S'\xd2\xd4:;'
p6668
tp6669
Rp6670
tp6671
asg73
g15
sa(dp6672
g2
S'../../../data/emanuela/activity-recognition/images/NTCIR-Lifelog-256/u3/2015-06-15/b00001123_21i79q_20150615_190038e.jpg'
p6673
sg4
(lp6674
(g68
g6
(g18
S'\x9bG\xe3>'
p6675
tp6676
Rp6677
tp6678
a(g15
g6
(g18
S'G\xc9\xc1>'
p6679
tp6680
Rp6681
tp6682
a(g44
g6
(g18
S'-\xb5\xad='
p6683
tp6684
Rp6685
tp6686
a(g108
g6
(g18
S'}\xee\x93<'
p6687
tp6688
Rp6689
tp6690
a(g32
g6
(g18
S'\x1b\xea\x8a<'
p6691
tp6692
Rp6693
tp6694
asg73
g15
sa(dp6695
g2
S'../../../data/emanuela/activity-recognition/images/NTCIR-Lifelog-256/u1/2015-02-28/b00000867_21i6bq_20150228_145853e.jpg'
p6696
sg4
(lp6697
(g15
g6
(g18
S'\x7f\x84\x06?'
p6698
tp6699
Rp6700
tp6701
a(g328
g6
(g18
S'c\xe2\x13>'
p6702
tp6703
Rp6704
tp6705
a(g56
g6
(g18
S'\xde\x82\x98='
p6706
tp6707
Rp6708
tp6709
a(g68
g6
(g18
S'\xb5\xc0v='
p6710
tp6711
Rp6712
tp6713
a(g32
g6
(g18
S'z\xe85='
p6714
tp6715
Rp6716
tp6717
asg73
g15
sa(dp6718
g2
S'../../../data/emanuela/activity-recognition/images/NTCIR-Lifelog-256/u1/2015-03-15/b00001447_21i6bq_20150315_214558e.jpg'
p6719
sg4
(lp6720
(g15
g6
(g18
S'\x9e?\xc8>'
p6721
tp6722
Rp6723
tp6724
a(g68
g6
(g18
S'\xa3\xa7\xad>'
p6725
tp6726
Rp6727
tp6728
a(g286
g6
(g18
S'\xa8e\x0e>'
p6729
tp6730
Rp6731
tp6732
a(g170
g6
(g18
S'\x0bW\xda='
p6733
tp6734
Rp6735
tp6736
a(g255
g6
(g18
S'\x18L\x01<'
p6737
tp6738
Rp6739
tp6740
asg73
g15
sa(dp6741
g2
S'../../../data/emanuela/activity-recognition/images/NTCIR-Lifelog-256/u1/2015-03-15/b00000939_21i6bq_20150315_164557e.jpg'
p6742
sg4
(lp6743
(g15
g6
(g18
S'1\xe7-?'
p6744
tp6745
Rp6746
tp6747
a(g68
g6
(g18
S'\xfe\xe8G>'
p6748
tp6749
Rp6750
tp6751
a(g170
g6
(g18
S'S\xe9\xd7<'
p6752
tp6753
Rp6754
tp6755
a(g286
g6
(g18
S'\x17F\xb5<'
p6756
tp6757
Rp6758
tp6759
a(g328
g6
(g18
S'\xab\x87x<'
p6760
tp6761
Rp6762
tp6763
asg73
g15
sa(dp6764
g2
S'../../../data/emanuela/activity-recognition/images/NTCIR-Lifelog-256/u1/2015-03-04/b00000648_21i6bq_20150304_133610e.jpg'
p6765
sg4
(lp6766
(g56
g6
(g18
S'\xa3\xc0G?'
p6767
tp6768
Rp6769
tp6770
a(g32
g6
(g18
S'\xbd\xf2\x82='
p6771
tp6772
Rp6773
tp6774
a(g96
g6
(g18
S'2\xc0?='
p6775
tp6776
Rp6777
tp6778
a(g15
g6
(g18
S'Q\xda\xee<'
p6779
tp6780
Rp6781
tp6782
a(g68
g6
(g18
S'yC\xe1<'
p6783
tp6784
Rp6785
tp6786
asg73
g15
sa(dp6787
g2
S'../../../data/emanuela/activity-recognition/images/NTCIR-Lifelog-256/u1/2015-03-03/b00000789_21i6bq_20150303_153054e.jpg'
p6788
sg4
(lp6789
(g15
g6
(g18
S'\xd7\xc4s?'
p6790
tp6791
Rp6792
tp6793
a(g68
g6
(g18
S'\x17\x14\x0f='
p6794
tp6795
Rp6796
tp6797
a(g56
g6
(g18
S'\xa4+(<'
p6798
tp6799
Rp6800
tp6801
a(g44
g6
(g18
S'\x85\xc5\xb4:'
p6802
tp6803
Rp6804
tp6805
a(g32
g6
(g18
S'\xf3\xb7\xa99'
p6806
tp6807
Rp6808
tp6809
asg73
g15
sa(dp6810
g2
S'../../../data/emanuela/activity-recognition/images/NTCIR-Lifelog-256/u2/2015-04-20/b00000314_21i7lf_20150420_124725e.jpg'
p6811
sg4
(lp6812
(g15
g6
(g18
S'\xf2@.?'
p6813
tp6814
Rp6815
tp6816
a(g386
g6
(g18
S'\x15\x86x>'
p6817
tp6818
Rp6819
tp6820
a(g68
g6
(g18
S'T\xae\xc5<'
p6821
tp6822
Rp6823
tp6824
a(g255
g6
(g18
S'\x05Yy<'
p6825
tp6826
Rp6827
tp6828
a(g6
(g7
(S'S6'
p6829
I0
I1
tp6830
Rp6831
(I3
S'|'
p6832
NNNI6
I1
I0
tp6833
bS'biking'
p6834
tp6835
Rp6836
g6
(g18
S'\xe5\x13P<'
p6837
tp6838
Rp6839
tp6840
asg73
g15
sa(dp6841
g2
S'../../../data/emanuela/activity-recognition/images/NTCIR-Lifelog-256/u1/2015-02-23/b00000336_21i6bq_20150223_103733e.jpg'
p6842
sg4
(lp6843
(g44
g6
(g18
S'\xae\xe0\xc9>'
p6844
tp6845
Rp6846
tp6847
a(g108
g6
(g18
S'C\xdb\x9d>'
p6848
tp6849
Rp6850
tp6851
a(g68
g6
(g18
S'\xee\x17L>'
p6852
tp6853
Rp6854
tp6855
a(g15
g6
(g18
S'O?a='
p6856
tp6857
Rp6858
tp6859
a(g56
g6
(g18
S'\x15\x92l<'
p6860
tp6861
Rp6862
tp6863
asg73
g15
sa(dp6864
g2
S'../../../data/emanuela/activity-recognition/images/NTCIR-Lifelog-256/u1/2015-03-01/b00000745_21i6bq_20150301_141927e.jpg'
p6865
sg4
(lp6866
(g15
g6
(g18
S'\x83Ny?'
p6867
tp6868
Rp6869
tp6870
a(g32
g6
(g18
S'\x93\xa7\x8e<'
p6871
tp6872
Rp6873
tp6874
a(g56
g6
(g18
S'e\xbe\x94;'
p6875
tp6876
Rp6877
tp6878
a(g328
g6
(g18
S'\x9e\xb9\x8a:'
p6879
tp6880
Rp6881
tp6882
a(g44
g6
(g18
S'"R\x8a:'
p6883
tp6884
Rp6885
tp6886
asg73
g15
sa(dp6887
g2
S'../../../data/emanuela/activity-recognition/images/NTCIR-Lifelog-256/u3/2015-06-28/b00000919_21i79q_20150628_230557e.jpg'
p6888
sg4
(lp6889
(g68
g6
(g18
S'Y\xf3\x05?'
p6890
tp6891
Rp6892
tp6893
a(g15
g6
(g18
S'\x15E\xa4>'
p6894
tp6895
Rp6896
tp6897
a(g44
g6
(g18
S'\x87^\x86='
p6898
tp6899
Rp6900
tp6901
a(g328
g6
(g18
S'\x05\x87\x97<'
p6902
tp6903
Rp6904
tp6905
a(g56
g6
(g18
S'\x13\xbd\x93<'
p6906
tp6907
Rp6908
tp6909
asg73
g15
sa(dp6910
g2
S'../../../data/emanuela/activity-recognition/images/NTCIR-Lifelog-256/u2/2015-05-07/b00007598_21i7lf_20150507_140344e.jpg'
p6911
sg4
(lp6912
(g15
g6
(g18
S'\xb0}l?'
p6913
tp6914
Rp6915
tp6916
a(g32
g6
(g18
S'e\xdf\x8f='
p6917
tp6918
Rp6919
tp6920
a(g56
g6
(g18
S'0Np;'
p6921
tp6922
Rp6923
tp6924
a(g68
g6
(g18
S'\x1b\xbf\xc5:'
p6925
tp6926
Rp6927
tp6928
a(g139
g6
(g18
S'\xd5I\x9a9'
p6929
tp6930
Rp6931
tp6932
asg73
g15
sa(dp6933
g2
S'../../../data/emanuela/activity-recognition/images/NTCIR-Lifelog-256/u1/2015-03-01/b00000748_21i6bq_20150301_142116e.jpg'
p6934
sg4
(lp6935
(g15
g6
(g18
S'\x9f\xd8t?'
p6936
tp6937
Rp6938
tp6939
a(g32
g6
(g18
S'I\xc3\xf1<'
p6940
tp6941
Rp6942
tp6943
a(g56
g6
(g18
S'e,\xd0;'
p6944
tp6945
Rp6946
tp6947
a(g68
g6
(g18
S'<\xfe\x85;'
p6948
tp6949
Rp6950
tp6951
a(g44
g6
(g18
S'\x9e\xf8\xba:'
p6952
tp6953
Rp6954
tp6955
asg73
g15
sa(dp6956
g2
S'../../../data/emanuela/activity-recognition/images/NTCIR-Lifelog-256/u2/2015-05-06/b00007274_21i7lf_20150506_194429e.jpg'
p6957
sg4
(lp6958
(g15
g6
(g18
S'E\x1c\x06?'
p6959
tp6960
Rp6961
tp6962
a(g68
g6
(g18
S'\xa0\xcc\xc2>'
p6963
tp6964
Rp6965
tp6966
a(g56
g6
(g18
S'\xc7\xb6W='
p6967
tp6968
Rp6969
tp6970
a(g108
g6
(g18
S'\x1e-7<'
p6971
tp6972
Rp6973
tp6974
a(g44
g6
(g18
S'G\x13*<'
p6975
tp6976
Rp6977
tp6978
asg73
g15
sa(dp6979
g2
S'../../../data/emanuela/activity-recognition/images/NTCIR-Lifelog-256/u2/2015-04-30/b00001201_21i7lf_20150430_150549e.jpg'
p6980
sg4
(lp6981
(g32
g6
(g18
S'\x80\x99K?'
p6982
tp6983
Rp6984
tp6985
a(g15
g6
(g18
S'\x1bh6>'
p6986
tp6987
Rp6988
tp6989
a(g44
g6
(g18
S'\x19\x1e\xce;'
p6990
tp6991
Rp6992
tp6993
a(g456
g6
(g18
S'\xfb}\xb9;'
p6994
tp6995
Rp6996
tp6997
a(g108
g6
(g18
S'\xa54\x88;'
p6998
tp6999
Rp7000
tp7001
asg73
g15
sa(dp7002
g2
S'../../../data/emanuela/activity-recognition/images/NTCIR-Lifelog-256/u2/2015-04-23/b00001340_21i7lf_20150423_153522e.jpg'
p7003
sg4
(lp7004
(g15
g6
(g18
S'\xdd*\xc7>'
p7005
tp7006
Rp7007
tp7008
a(g56
g6
(g18
S'\x8a\xa7\xaf>'
p7009
tp7010
Rp7011
tp7012
a(g328
g6
(g18
S'\xb5\xc7\xa7='
p7013
tp7014
Rp7015
tp7016
a(g32
g6
(g18
S'\xfbf\x1c='
p7017
tp7018
Rp7019
tp7020
a(g255
g6
(g18
S'z\xa6\r='
p7021
tp7022
Rp7023
tp7024
asg73
g15
sa(dp7025
g2
S'../../../data/emanuela/activity-recognition/images/NTCIR-Lifelog-256/u1/2015-03-16/b00002015_21i6bq_20150316_120101e.jpg'
p7026
sg4
(lp7027
(g15
g6
(g18
S'\x90{,?'
p7028
tp7029
Rp7030
tp7031
a(g96
g6
(g18
S'hR\r>'
p7032
tp7033
Rp7034
tp7035
a(g239
g6
(g18
S'^\xd7\xd8='
p7036
tp7037
Rp7038
tp7039
a(g328
g6
(g18
S'\x14\x00\x9e<'
p7040
tp7041
Rp7042
tp7043
a(g44
g6
(g18
S'\x8e9\x9a<'
p7044
tp7045
Rp7046
tp7047
asg73
g15
sa(dp7048
g2
S'../../../data/emanuela/activity-recognition/images/NTCIR-Lifelog-256/u1/2015-03-05/b00000338_21i6bq_20150305_094259e.jpg'
p7049
sg4
(lp7050
(g15
g6
(g18
S'6\x139?'
p7051
tp7052
Rp7053
tp7054
a(g32
g6
(g18
S'n\x9b\x82>'
p7055
tp7056
Rp7057
tp7058
a(g456
g6
(g18
S'\xee\xfe\xb0;'
p7059
tp7060
Rp7061
tp7062
a(g56
g6
(g18
S'\x9c\x8f\x8e;'
p7063
tp7064
Rp7065
tp7066
a(g239
g6
(g18
S'\x1eRR;'
p7067
tp7068
Rp7069
tp7070
asg73
g15
sa(dp7071
g2
S'../../../data/emanuela/activity-recognition/images/NTCIR-Lifelog-256/u1/2015-03-06/b00000710_21i6bq_20150306_124938e.jpg'
p7072
sg4
(lp7073
(g15
g6
(g18
S'A\xdfz?'
p7074
tp7075
Rp7076
tp7077
a(g32
g6
(g18
S'\xee\x90=<'
p7078
tp7079
Rp7080
tp7081
a(g68
g6
(g18
S" '\xe0;"
p7082
tp7083
Rp7084
tp7085
a(g44
g6
(g18
S'D\x805:'
p7086
tp7087
Rp7088
tp7089
a(g56
g6
(g18
S'\x19\xf5y9'
p7090
tp7091
Rp7092
tp7093
asg73
g15
sa(dp7094
g2
S'../../../data/emanuela/activity-recognition/images/NTCIR-Lifelog-256/u1/2015-02-25/b00000779_21i6bq_20150225_135632e.jpg'
p7095
sg4
(lp7096
(g15
g6
(g18
S' \x07=?'
p7097
tp7098
Rp7099
tp7100
a(g68
g6
(g18
S'\xcb-\xeb='
p7101
tp7102
Rp7103
tp7104
a(g32
g6
(g18
S'm\xaf\xa1='
p7105
tp7106
Rp7107
tp7108
a(g108
g6
(g18
S'\xad@\xdf<'
p7109
tp7110
Rp7111
tp7112
a(g328
g6
(g18
S'=\x0bd<'
p7113
tp7114
Rp7115
tp7116
asg73
g15
sa(dp7117
g2
S'../../../data/emanuela/activity-recognition/images/NTCIR-Lifelog-256/u1/2015-03-05/b00000510_21i6bq_20150305_114316e.jpg'
p7118
sg4
(lp7119
(g15
g6
(g18
S'\xd7\x04Q?'
p7120
tp7121
Rp7122
tp7123
a(g44
g6
(g18
S'\xd8f\x0c>'
p7124
tp7125
Rp7126
tp7127
a(g68
g6
(g18
S'e\xfd\x97<'
p7128
tp7129
Rp7130
tp7131
a(g32
g6
(g18
S'R\xc9\xe3;'
p7132
tp7133
Rp7134
tp7135
a(g56
g6
(g18
S'\xc3\x14\x9c;'
p7136
tp7137
Rp7138
tp7139
asg73
g15
sa(dp7140
g2
S'../../../data/emanuela/activity-recognition/images/NTCIR-Lifelog-256/u3/2015-06-28/b00000667_21i79q_20150628_204641e.jpg'
p7141
sg4
(lp7142
(g68
g6
(g18
S'\x02\x196?'
p7143
tp7144
Rp7145
tp7146
a(g44
g6
(g18
S'\xf4\xea\x17>'
p7147
tp7148
Rp7149
tp7150
a(g15
g6
(g18
S'\xae=\xf4='
p7151
tp7152
Rp7153
tp7154
a(g56
g6
(g18
S'\xd4,\xe1;'
p7155
tp7156
Rp7157
tp7158
a(g328
g6
(g18
S'\t\x1aI;'
p7159
tp7160
Rp7161
tp7162
asg73
g15
sa(dp7163
g2
S'../../../data/emanuela/activity-recognition/images/NTCIR-Lifelog-256/u3/2015-07-18/b00000214_21i79q_20150718_132533e.jpg'
p7164
sg4
(lp7165
(g15
g6
(g18
S'\xbc\x85)?'
p7166
tp7167
Rp7168
tp7169
a(g56
g6
(g18
S'\xa4\x82~>'
p7170
tp7171
Rp7172
tp7173
a(g328
g6
(g18
S'\x80\xb0\xb9<'
p7174
tp7175
Rp7176
tp7177
a(g68
g6
(g18
S'\xcd\xf0\x9c<'
p7178
tp7179
Rp7180
tp7181
a(g794
g6
(g18
S'\x12\xc51<'
p7182
tp7183
Rp7184
tp7185
asg73
g15
sa(dp7186
g2
S'../../../data/emanuela/activity-recognition/images/NTCIR-Lifelog-256/u2/2015-05-01/b00002209_21i7lf_20150501_133208e.jpg'
p7187
sg4
(lp7188
(g15
g6
(g18
S'@\xcez?'
p7189
tp7190
Rp7191
tp7192
a(g56
g6
(g18
S'C\x8b\x0f<'
p7193
tp7194
Rp7195
tp7196
a(g32
g6
(g18
S'\x94$\x8a;'
p7197
tp7198
Rp7199
tp7200
a(g44
g6
(g18
S'\x8e\xdf`;'
p7201
tp7202
Rp7203
tp7204
a(g68
g6
(g18
S'\r\xb2";'
p7205
tp7206
Rp7207
tp7208
asg73
g15
sa(dp7209
g2
S'../../../data/emanuela/activity-recognition/images/NTCIR-Lifelog-256/u1/2015-03-02/b00000749_21i6bq_20150302_150344e.jpg'
p7210
sg4
(lp7211
(g239
g6
(g18
S'S#\n?'
p7212
tp7213
Rp7214
tp7215
a(g32
g6
(g18
S'\x82\xf4\xa7>'
p7216
tp7217
Rp7218
tp7219
a(g15
g6
(g18
S'>0\x91='
p7220
tp7221
Rp7222
tp7223
a(g456
g6
(g18
S'\xd9\x99K='
p7224
tp7225
Rp7226
tp7227
a(g139
g6
(g18
S'\xec\x94\n<'
p7228
tp7229
Rp7230
tp7231
asg73
g15
sa(dp7232
g2
S'../../../data/emanuela/activity-recognition/images/NTCIR-Lifelog-256/u3/2015-08-01/b00006756_21i79q_20150801_235359e.jpg'
p7233
sg4
(lp7234
(g15
g6
(g18
S'8\x896?'
p7235
tp7236
Rp7237
tp7238
a(g44
g6
(g18
S'\x14\x07\xca='
p7239
tp7240
Rp7241
tp7242
a(g32
g6
(g18
S'\xcc\xb6\xa5='
p7243
tp7244
Rp7245
tp7246
a(g139
g6
(g18
S'\x99R\xc9<'
p7247
tp7248
Rp7249
tp7250
a(g456
g6
(g18
S'Ql\xbc<'
p7251
tp7252
Rp7253
tp7254
asg73
g15
sa(dp7255
g2
S'../../../data/emanuela/activity-recognition/images/NTCIR-Lifelog-256/u3/2015-08-01/b00006700_21i79q_20150801_232341e.jpg'
p7256
sg4
(lp7257
(g15
g6
(g18
S'\x19\x96L?'
p7258
tp7259
Rp7260
tp7261
a(g44
g6
(g18
S'"5\xd7='
p7262
tp7263
Rp7264
tp7265
a(g32
g6
(g18
S'\xd1Z\x8f='
p7266
tp7267
Rp7268
tp7269
a(g139
g6
(g18
S's6\x13<'
p7270
tp7271
Rp7272
tp7273
a(g456
g6
(g18
S'\x00\xcb\x90;'
p7274
tp7275
Rp7276
tp7277
asg73
g15
sa(dp7278
g2
S'../../../data/emanuela/activity-recognition/images/NTCIR-Lifelog-256/u3/2015-06-28/b00000572_21i79q_20150628_194907e.jpg'
p7279
sg4
(lp7280
(g44
g6
(g18
S'1\xad??'
p7281
tp7282
Rp7283
tp7284
a(g68
g6
(g18
S'\xda1\xa2='
p7285
tp7286
Rp7287
tp7288
a(g56
g6
(g18
S'S\x80\x7f='
p7289
tp7290
Rp7291
tp7292
a(g794
g6
(g18
S']d\xe5<'
p7293
tp7294
Rp7295
tp7296
a(g840
g6
(g18
S'\xe2\x0c\xaa<'
p7297
tp7298
Rp7299
tp7300
asg73
g15
sa(dp7301
g2
S'../../../data/emanuela/activity-recognition/images/NTCIR-Lifelog-256/u1/2015-02-23/b00000383_21i6bq_20150223_110751e.jpg'
p7302
sg4
(lp7303
(g15
g6
(g18
S'\x10ZX?'
p7304
tp7305
Rp7306
tp7307
a(g32
g6
(g18
S'\xf2d\x0b>'
p7308
tp7309
Rp7310
tp7311
a(g56
g6
(g18
S'\xeb],<'
p7312
tp7313
Rp7314
tp7315
a(g68
g6
(g18
S'\xea\xee\xd7:'
p7316
tp7317
Rp7318
tp7319
a(g239
g6
(g18
S'\xcaS\xd5:'
p7320
tp7321
Rp7322
tp7323
asg73
g15
sa(dp7324
g2
S'../../../data/emanuela/activity-recognition/images/NTCIR-Lifelog-256/u1/2015-03-10/b00000522_21i6bq_20150310_183559e.jpg'
p7325
sg4
(lp7326
(g15
g6
(g18
S'\xd9u\x0f?'
p7327
tp7328
Rp7329
tp7330
a(g32
g6
(g18
S'\x12K\xdb>'
p7331
tp7332
Rp7333
tp7334
a(g44
g6
(g18
S'\xef\xfd/;'
p7335
tp7336
Rp7337
tp7338
a(g56
g6
(g18
S'`x\xe5:'
p7339
tp7340
Rp7341
tp7342
a(g68
g6
(g18
S'\\\x1f\xcd:'
p7343
tp7344
Rp7345
tp7346
asg73
g15
sa(dp7347
g2
S'../../../data/emanuela/activity-recognition/images/NTCIR-Lifelog-256/u1/2015-02-25/b00000574_21i6bq_20150225_115751e.jpg'
p7348
sg4
(lp7349
(g15
g6
(g18
S'\x11\xe5^?'
p7350
tp7351
Rp7352
tp7353
a(g32
g6
(g18
S'L\x00\x9d='
p7354
tp7355
Rp7356
tp7357
a(g68
g6
(g18
S'<A\xd9<'
p7358
tp7359
Rp7360
tp7361
a(g56
g6
(g18
S'\x0c+\x84<'
p7362
tp7363
Rp7364
tp7365
a(g44
g6
(g18
S'\xb8`*;'
p7366
tp7367
Rp7368
tp7369
asg73
g15
sa(dp7370
g2
S'../../../data/emanuela/activity-recognition/images/NTCIR-Lifelog-256/u3/2015-07-24/b00000512_21i79q_20150724_162506e.jpg'
p7371
sg4
(lp7372
(g15
g6
(g18
S'ocL?'
p7373
tp7374
Rp7375
tp7376
a(g68
g6
(g18
S'\x1c\x9a\xbf='
p7377
tp7378
Rp7379
tp7380
a(g56
g6
(g18
S'\xc1;\x99='
p7381
tp7382
Rp7383
tp7384
a(g170
g6
(g18
S'K\xd0_<'
p7385
tp7386
Rp7387
tp7388
a(g794
g6
(g18
S'\xf0H\x12<'
p7389
tp7390
Rp7391
tp7392
asg73
g15
sa(dp7393
g2
S'../../../data/emanuela/activity-recognition/images/NTCIR-Lifelog-256/u1/2015-03-10/b00000044_21i6bq_20150310_131624e.jpg'
p7394
sg4
(lp7395
(g239
g6
(g18
S'\x84dy?'
p7396
tp7397
Rp7398
tp7399
a(g15
g6
(g18
S'/mx<'
p7400
tp7401
Rp7402
tp7403
a(g328
g6
(g18
S'ht\xf2;'
p7404
tp7405
Rp7406
tp7407
a(g456
g6
(g18
S'\x9fl\x86:'
p7408
tp7409
Rp7410
tp7411
a(g96
g6
(g18
S'@Xe:'
p7412
tp7413
Rp7414
tp7415
asg73
g15
sa(dp7416
g2
S'../../../data/emanuela/activity-recognition/images/NTCIR-Lifelog-256/u2/2015-05-06/b00006401_21i7lf_20150506_102039e.jpg'
p7417
sg4
(lp7418
(g15
g6
(g18
S'\x12\x10v?'
p7419
tp7420
Rp7421
tp7422
a(g32
g6
(g18
S'\x80\xe1\x03='
p7423
tp7424
Rp7425
tp7426
a(g68
g6
(g18
S'w\x9du;'
p7427
tp7428
Rp7429
tp7430
a(g56
g6
(g18
S'Z\x00\xc2:'
p7431
tp7432
Rp7433
tp7434
a(g44
g6
(g18
S'\x7fl\x01:'
p7435
tp7436
Rp7437
tp7438
asg73
g15
sa(dp7439
g2
S'../../../data/emanuela/activity-recognition/images/NTCIR-Lifelog-256/u2/2015-04-27/b00006016_21i7lf_20150427_195417e.jpg'
p7440
sg4
(lp7441
(g386
g6
(g18
S'f \x0e?'
p7442
tp7443
Rp7444
tp7445
a(g15
g6
(g18
S'\xed\xdd_>'
p7446
tp7447
Rp7448
tp7449
a(g68
g6
(g18
S'\xe6\xdc\xf0='
p7450
tp7451
Rp7452
tp7453
a(g56
g6
(g18
S'\xc0\x8d\x8b='
p7454
tp7455
Rp7456
tp7457
a(g32
g6
(g18
S'\xb8\xd5\xee;'
p7458
tp7459
Rp7460
tp7461
asg73
g15
sa(dp7462
g2
S'../../../data/emanuela/activity-recognition/images/NTCIR-Lifelog-256/u2/2015-04-30/b00001165_21i7lf_20150430_144258e.jpg'
p7463
sg4
(lp7464
(g44
g6
(g18
S'T\xdc\x00?'
p7465
tp7466
Rp7467
tp7468
a(g15
g6
(g18
S'n(l>'
p7469
tp7470
Rp7471
tp7472
a(g68
g6
(g18
S'\x1c"\xac='
p7473
tp7474
Rp7475
tp7476
a(g108
g6
(g18
S'\xcb\xea\x8e='
p7477
tp7478
Rp7479
tp7480
a(g32
g6
(g18
S'\xe6\xd5\x8a='
p7481
tp7482
Rp7483
tp7484
asg73
g15
sa(dp7485
g2
S'../../../data/emanuela/activity-recognition/images/NTCIR-Lifelog-256/u1/2015-03-11/b00000582_21i6bq_20150311_125105e.jpg'
p7486
sg4
(lp7487
(g15
g6
(g18
S'\xb1\xacP?'
p7488
tp7489
Rp7490
tp7491
a(g32
g6
(g18
S"<'\xb8="
p7492
tp7493
Rp7494
tp7495
a(g44
g6
(g18
S'\x0b\xef\x1b='
p7496
tp7497
Rp7498
tp7499
a(g68
g6
(g18
S'\xbd\x11\r='
p7500
tp7501
Rp7502
tp7503
a(g56
g6
(g18
S'\xc3\x9c\xff;'
p7504
tp7505
Rp7506
tp7507
asg73
g15
sa(dp7508
g2
S'../../../data/emanuela/activity-recognition/images/NTCIR-Lifelog-256/u1/2015-02-23/b00000402_21i6bq_20150223_111930e.jpg'
p7509
sg4
(lp7510
(g15
g6
(g18
S'(\x1eo?'
p7511
tp7512
Rp7513
tp7514
a(g32
g6
(g18
S'\x1atF='
p7515
tp7516
Rp7517
tp7518
a(g56
g6
(g18
S'\x18\xd3\xe8;'
p7519
tp7520
Rp7521
tp7522
a(g239
g6
(g18
S'\x9fuu;'
p7523
tp7524
Rp7525
tp7526
a(g456
g6
(g18
S'*=4;'
p7527
tp7528
Rp7529
tp7530
asg73
g15
sa(dp7531
g2
S'../../../data/emanuela/activity-recognition/images/NTCIR-Lifelog-256/u3/2015-06-18/b00000723_21i79q_20150618_201729e.jpg'
p7532
sg4
(lp7533
(g68
g6
(g18
S'\xec\x9e\x0c?'
p7534
tp7535
Rp7536
tp7537
a(g15
g6
(g18
S'\xdd\xda\xc2>'
p7538
tp7539
Rp7540
tp7541
a(g44
g6
(g18
S'\x07\xb08='
p7542
tp7543
Rp7544
tp7545
a(g108
g6
(g18
S'\xaf?P<'
p7546
tp7547
Rp7548
tp7549
a(g32
g6
(g18
S'\x01?1;'
p7550
tp7551
Rp7552
tp7553
asg73
g15
sa(dp7554
g2
S'../../../data/emanuela/activity-recognition/images/NTCIR-Lifelog-256/u1/2015-02-25/b00001106_21i6bq_20150225_173142e.jpg'
p7555
sg4
(lp7556
(g15
g6
(g18
S'\x94\x11\xaa>'
p7557
tp7558
Rp7559
tp7560
a(g255
g6
(g18
S'w{\x9b>'
p7561
tp7562
Rp7563
tp7564
a(g328
g6
(g18
S'R,\x14>'
p7565
tp7566
Rp7567
tp7568
a(g108
g6
(g18
S'\xe6C\x97='
p7569
tp7570
Rp7571
tp7572
a(g68
g6
(g18
S'm\xe9\xc6<'
p7573
tp7574
Rp7575
tp7576
asg73
g15
sa(dp7577
g2
S'../../../data/emanuela/activity-recognition/images/NTCIR-Lifelog-256/u1/2015-03-02/b00000333_21i6bq_20150302_102036e.jpg'
p7578
sg4
(lp7579
(g15
g6
(g18
S'?\xe8y?'
p7580
tp7581
Rp7582
tp7583
a(g32
g6
(g18
S'\xa7(\x86<'
p7584
tp7585
Rp7586
tp7587
a(g68
g6
(g18
S'p\xd8%;'
p7588
tp7589
Rp7590
tp7591
a(g56
g6
(g18
S'/\x15\x80:'
p7592
tp7593
Rp7594
tp7595
a(g239
g6
(g18
S'w\xcap:'
p7596
tp7597
Rp7598
tp7599
asg73
g15
sa(dp7600
g2
S'../../../data/emanuela/activity-recognition/images/NTCIR-Lifelog-256/u2/2015-04-30/b00001658_21i7lf_20150430_201144e.jpg'
p7601
sg4
(lp7602
(g15
g6
(g18
S'\x1c\x14\xfd>'
p7603
tp7604
Rp7605
tp7606
a(g68
g6
(g18
S'<}\xa3>'
p7607
tp7608
Rp7609
tp7610
a(g386
g6
(g18
S'\x1d^0>'
p7611
tp7612
Rp7613
tp7614
a(g32
g6
(g18
S'\x8f\x13\x86;'
p7615
tp7616
Rp7617
tp7618
a(g56
g6
(g18
S'\xbe\xc1r;'
p7619
tp7620
Rp7621
tp7622
asg73
g15
sa(dp7623
g2
S'../../../data/emanuela/activity-recognition/images/NTCIR-Lifelog-256/u1/2015-03-04/b00000462_21i6bq_20150304_113112e.jpg'
p7624
sg4
(lp7625
(g15
g6
(g18
S')\x95\x10?'
p7626
tp7627
Rp7628
tp7629
a(g32
g6
(g18
S'\xd6\x98\xce>'
p7630
tp7631
Rp7632
tp7633
a(g56
g6
(g18
S';\xfc\x1e<'
p7634
tp7635
Rp7636
tp7637
a(g68
g6
(g18
S'\x8c8\x14<'
p7638
tp7639
Rp7640
tp7641
a(g44
g6
(g18
S'(r\x03<'
p7642
tp7643
Rp7644
tp7645
asg73
g15
sa(dp7646
g2
S'../../../data/emanuela/activity-recognition/images/NTCIR-Lifelog-256/u1/2015-03-10/b00000057_21i6bq_20150310_132407e.jpg'
p7647
sg4
(lp7648
(g15
g6
(g18
S'\x9bA2?'
p7649
tp7650
Rp7651
tp7652
a(g32
g6
(g18
S'\xd2_\x1d>'
p7653
tp7654
Rp7655
tp7656
a(g239
g6
(g18
S'\xb6\xd1n='
p7657
tp7658
Rp7659
tp7660
a(g56
g6
(g18
S'\xb40%='
p7661
tp7662
Rp7663
tp7664
a(g139
g6
(g18
S'\xb8vW<'
p7665
tp7666
Rp7667
tp7668
asg73
g15
sa(dp7669
g2
S'../../../data/emanuela/activity-recognition/images/NTCIR-Lifelog-256/u1/2015-03-02/b00000839_21i6bq_20150302_155958e.jpg'
p7670
sg4
(lp7671
(g15
g6
(g18
S'\x98;X?'
p7672
tp7673
Rp7674
tp7675
a(g68
g6
(g18
S'\xf8\x00\x82='
p7676
tp7677
Rp7678
tp7679
a(g44
g6
(g18
S'w\xb6\x12='
p7680
tp7681
Rp7682
tp7683
a(g32
g6
(g18
S'\x80\xb3\xe5<'
p7684
tp7685
Rp7686
tp7687
a(g56
g6
(g18
S'\xbd\xc2-<'
p7688
tp7689
Rp7690
tp7691
asg73
g15
sa(dp7692
g2
S'../../../data/emanuela/activity-recognition/images/NTCIR-Lifelog-256/u1/2015-03-03/b00000723_21i6bq_20150303_144619e.jpg'
p7693
sg4
(lp7694
(g15
g6
(g18
S'\x9b\x15j?'
p7695
tp7696
Rp7697
tp7698
a(g68
g6
(g18
S'l0^='
p7699
tp7700
Rp7701
tp7702
a(g44
g6
(g18
S'-\x87+<'
p7703
tp7704
Rp7705
tp7706
a(g32
g6
(g18
S'\xce\x03\x0c<'
p7707
tp7708
Rp7709
tp7710
a(g56
g6
(g18
S'\x85V\xbb;'
p7711
tp7712
Rp7713
tp7714
asg73
g15
sa(dp7715
g2
S'../../../data/emanuela/activity-recognition/images/NTCIR-Lifelog-256/u1/2015-02-23/b00000287_21i6bq_20150223_100715e.jpg'
p7716
sg4
(lp7717
(g44
g6
(g18
S'\x15\x0e5?'
p7718
tp7719
Rp7720
tp7721
a(g108
g6
(g18
S'\xa9eB>'
p7722
tp7723
Rp7724
tp7725
a(g68
g6
(g18
S'\xaa\xc0\r='
p7726
tp7727
Rp7728
tp7729
a(g96
g6
(g18
S'"\xf4\xcd<'
p7730
tp7731
Rp7732
tp7733
a(g328
g6
(g18
S'\xad\xf9\x90<'
p7734
tp7735
Rp7736
tp7737
asg73
g15
sa(dp7738
g2
S'../../../data/emanuela/activity-recognition/images/NTCIR-Lifelog-256/u2/2015-04-22/b00000086_21i7lf_20150422_133803e.jpg'
p7739
sg4
(lp7740
(g15
g6
(g18
S"\n\xf2'?"
p7741
tp7742
Rp7743
tp7744
a(g56
g6
(g18
S'\x1d[\x91>'
p7745
tp7746
Rp7747
tp7748
a(g68
g6
(g18
S'<+\x04='
p7749
tp7750
Rp7751
tp7752
a(g386
g6
(g18
S'+\xcd\xa5<'
p7753
tp7754
Rp7755
tp7756
a(g108
g6
(g18
S'\x93X\x08;'
p7757
tp7758
Rp7759
tp7760
asg73
g15
sa(dp7761
g2
S'../../../data/emanuela/activity-recognition/images/NTCIR-Lifelog-256/u1/2015-02-27/b00000545_21i6bq_20150227_125945e.jpg'
p7762
sg4
(lp7763
(g15
g6
(g18
S'\x97\xe0i?'
p7764
tp7765
Rp7766
tp7767
a(g32
g6
(g18
S'\x96@7='
p7768
tp7769
Rp7770
tp7771
a(g56
g6
(g18
S'\xff\x17\x90<'
p7772
tp7773
Rp7774
tp7775
a(g68
g6
(g18
S'\xbd\x07T<'
p7776
tp7777
Rp7778
tp7779
a(g425
g6
(g18
S'\xfe\x8b\xc5;'
p7780
tp7781
Rp7782
tp7783
asg73
g15
sa(dp7784
g2
S'../../../data/emanuela/activity-recognition/images/NTCIR-Lifelog-256/u2/2015-04-28/b00006823_21i7lf_20150428_141729e.jpg'
p7785
sg4
(lp7786
(g15
g6
(g18
S'-\x7fn?'
p7787
tp7788
Rp7789
tp7790
a(g68
g6
(g18
S'\xc0\x95\xbe<'
p7791
tp7792
Rp7793
tp7794
a(g32
g6
(g18
S'G;\xa9<'
p7795
tp7796
Rp7797
tp7798
a(g56
g6
(g18
S'uZ]<'
p7799
tp7800
Rp7801
tp7802
a(g328
g6
(g18
S'I\xff\x93;'
p7803
tp7804
Rp7805
tp7806
asg73
g15
sa(dp7807
g2
S'../../../data/emanuela/activity-recognition/images/NTCIR-Lifelog-256/u2/2015-05-06/b00007272_21i7lf_20150506_194314e.jpg'
p7808
sg4
(lp7809
(g68
g6
(g18
S'\xd9\xfd\\?'
p7810
tp7811
Rp7812
tp7813
a(g15
g6
(g18
S'~x\x98='
p7814
tp7815
Rp7816
tp7817
a(g44
g6
(g18
S'\x19\x91\xd6<'
p7818
tp7819
Rp7820
tp7821
a(g108
g6
(g18
S'6Vy<'
p7822
tp7823
Rp7824
tp7825
a(g56
g6
(g18
S'\xad\x87@<'
p7826
tp7827
Rp7828
tp7829
asg73
g15
sa(dp7830
g2
S'../../../data/emanuela/activity-recognition/images/NTCIR-Lifelog-256/u1/2015-03-10/b00000572_21i6bq_20150310_190659e.jpg'
p7831
sg4
(lp7832
(g15
g6
(g18
S'\xfa\xcdR?'
p7833
tp7834
Rp7835
tp7836
a(g68
g6
(g18
S'\x83\xd51='
p7837
tp7838
Rp7839
tp7840
a(g170
g6
(g18
S'sH\n='
p7841
tp7842
Rp7843
tp7844
a(g56
g6
(g18
S'0\xbf\xf8<'
p7845
tp7846
Rp7847
tp7848
a(g32
g6
(g18
S'__\x9e<'
p7849
tp7850
Rp7851
tp7852
asg73
g15
sa(dp7853
g2
S'../../../data/emanuela/activity-recognition/images/NTCIR-Lifelog-256/u1/2015-03-06/b00000581_21i6bq_20150306_113344e.jpg'
p7854
sg4
(lp7855
(g15
g6
(g18
S'r$}?'
p7856
tp7857
Rp7858
tp7859
a(g32
g6
(g18
S'^\xc7\n<'
p7860
tp7861
Rp7862
tp7863
a(g68
g6
(g18
S'\xe2\xbd\x88:'
p7864
tp7865
Rp7866
tp7867
a(g139
g6
(g18
S'\x99~;:'
p7868
tp7869
Rp7870
tp7871
a(g44
g6
(g18
S'PR\xa69'
p7872
tp7873
Rp7874
tp7875
asg73
g15
sa(dp7876
g2
S'../../../data/emanuela/activity-recognition/images/NTCIR-Lifelog-256/u1/2015-02-24/b00000645_21i6bq_20150224_131541e.jpg'
p7877
sg4
(lp7878
(g15
g6
(g18
S'\xa0\r\x1a?'
p7879
tp7880
Rp7881
tp7882
a(g328
g6
(g18
S'\x0b~\x00>'
p7883
tp7884
Rp7885
tp7886
a(g56
g6
(g18
S'\xa6D\xde='
p7887
tp7888
Rp7889
tp7890
a(g255
g6
(g18
S'\xd6W\x0f='
p7891
tp7892
Rp7893
tp7894
a(g794
g6
(g18
S'dq\x02='
p7895
tp7896
Rp7897
tp7898
asg73
g15
sa(dp7899
g2
S'../../../data/emanuela/activity-recognition/images/NTCIR-Lifelog-256/u1/2015-03-04/b00000474_21i6bq_20150304_113820e.jpg'
p7900
sg4
(lp7901
(g15
g6
(g18
S' \xfd6?'
p7902
tp7903
Rp7904
tp7905
a(g32
g6
(g18
S'Z]\xc5='
p7906
tp7907
Rp7908
tp7909
a(g56
g6
(g18
S'p\xa0\xb3='
p7910
tp7911
Rp7912
tp7913
a(g68
g6
(g18
S'Gz\x81='
p7914
tp7915
Rp7916
tp7917
a(g44
g6
(g18
S'\xcf\xe7\r<'
p7918
tp7919
Rp7920
tp7921
asg73
g15
sa(dp7922
g2
S'../../../data/emanuela/activity-recognition/images/NTCIR-Lifelog-256/u1/2015-03-11/b00000434_21i6bq_20150311_112405e.jpg'
p7923
sg4
(lp7924
(g15
g6
(g18
S'\xc3gh?'
p7925
tp7926
Rp7927
tp7928
a(g32
g6
(g18
S'\xc8\xa5\xd1<'
p7929
tp7930
Rp7931
tp7932
a(g56
g6
(g18
S'\xc9{\xa5<'
p7933
tp7934
Rp7935
tp7936
a(g44
g6
(g18
S'\x89P9<'
p7937
tp7938
Rp7939
tp7940
a(g68
g6
(g18
S'\x13 \x1a<'
p7941
tp7942
Rp7943
tp7944
asg73
g15
sa(dp7945
g2
S'../../../data/emanuela/activity-recognition/images/NTCIR-Lifelog-256/u3/2015-08-01/b00006671_21i79q_20150801_230814e.jpg'
p7946
sg4
(lp7947
(g15
g6
(g18
S'\x9f\xcc\x18?'
p7948
tp7949
Rp7950
tp7951
a(g44
g6
(g18
S'$\xa9F>'
p7952
tp7953
Rp7954
tp7955
a(g32
g6
(g18
S'\x93\x7f\xd9='
p7956
tp7957
Rp7958
tp7959
a(g139
g6
(g18
S'\xb0\xaa\x1c='
p7960
tp7961
Rp7962
tp7963
a(g456
g6
(g18
S'\x10\x8e\x97<'
p7964
tp7965
Rp7966
tp7967
asg73
g15
sa(dp7968
g2
S'../../../data/emanuela/activity-recognition/images/NTCIR-Lifelog-256/u1/2015-03-18/b00000858_21i6bq_20150318_170838e.jpg'
p7969
sg4
(lp7970
(g15
g6
(g18
S'\xf3\xe0K?'
p7971
tp7972
Rp7973
tp7974
a(g68
g6
(g18
S'\xb9\x1f\xf6='
p7975
tp7976
Rp7977
tp7978
a(g56
g6
(g18
S'\xfb\xd1\x87<'
p7979
tp7980
Rp7981
tp7982
a(g32
g6
(g18
S'\x94wo<'
p7983
tp7984
Rp7985
tp7986
a(g44
g6
(g18
S'\xafs"<'
p7987
tp7988
Rp7989
tp7990
asg73
g15
sa(dp7991
g2
S'../../../data/emanuela/activity-recognition/images/NTCIR-Lifelog-256/u1/2015-03-06/b00000799_21i6bq_20150306_134049e.jpg'
p7992
sg4
(lp7993
(g15
g6
(g18
S'\x05\x15~?'
p7994
tp7995
Rp7996
tp7997
a(g32
g6
(g18
S'\xd6\xf2s;'
p7998
tp7999
Rp8000
tp8001
a(g68
g6
(g18
S'`\tQ;'
p8002
tp8003
Rp8004
tp8005
a(g108
g6
(g18
S'\xffW+9'
p8006
tp8007
Rp8008
tp8009
a(g44
g6
(g18
S"\xcf\xf9'9"
p8010
tp8011
Rp8012
tp8013
asg73
g15
sa(dp8014
g2
S'../../../data/emanuela/activity-recognition/images/NTCIR-Lifelog-256/u3/2015-08-01/b00006719_21i79q_20150801_233414e.jpg'
p8015
sg4
(lp8016
(g15
g6
(g18
S'\xfa\xf4,?'
p8017
tp8018
Rp8019
tp8020
a(g44
g6
(g18
S'3;A>'
p8021
tp8022
Rp8023
tp8024
a(g32
g6
(g18
S'+\xff\xa2='
p8025
tp8026
Rp8027
tp8028
a(g139
g6
(g18
S'`\x90\xa6<'
p8029
tp8030
Rp8031
tp8032
a(g456
g6
(g18
S'|HJ<'
p8033
tp8034
Rp8035
tp8036
asg73
g15
sa(dp8037
g2
S'../../../data/emanuela/activity-recognition/images/NTCIR-Lifelog-256/u2/2015-04-24/b00002169_21i7lf_20150424_113716e.jpg'
p8038
sg4
(lp8039
(g15
g6
(g18
S'ZFX?'
p8040
tp8041
Rp8042
tp8043
a(g32
g6
(g18
S'^\xec\xd0='
p8044
tp8045
Rp8046
tp8047
a(g56
g6
(g18
S'Df!<'
p8048
tp8049
Rp8050
tp8051
a(g328
g6
(g18
S'>+\x03<'
p8052
tp8053
Rp8054
tp8055
a(g170
g6
(g18
S'\xff\xac\xe2;'
p8056
tp8057
Rp8058
tp8059
asg73
g15
sa(dp8060
g2
S'../../../data/emanuela/activity-recognition/images/NTCIR-Lifelog-256/u1/2015-03-02/b00000695_21i6bq_20150302_142536e.jpg'
p8061
sg4
(lp8062
(g32
g6
(g18
S'HXo?'
p8063
tp8064
Rp8065
tp8066
a(g15
g6
(g18
S'\x1d4O='
p8067
tp8068
Rp8069
tp8070
a(g456
g6
(g18
S'\x7fzJ;'
p8071
tp8072
Rp8073
tp8074
a(g239
g6
(g18
S'#\x82-;'
p8075
tp8076
Rp8077
tp8078
a(g255
g6
(g18
S'\x13p\x02;'
p8079
tp8080
Rp8081
tp8082
asg73
g15
sa(dp8083
g2
S'../../../data/emanuela/activity-recognition/images/NTCIR-Lifelog-256/u1/2015-03-11/b00000587_21i6bq_20150311_125420e.jpg'
p8084
sg4
(lp8085
(g15
g6
(g18
S'\x88\xc7t?'
p8086
tp8087
Rp8088
tp8089
a(g32
g6
(g18
S'\x0c\xec\xdb<'
p8090
tp8091
Rp8092
tp8093
a(g68
g6
(g18
S'\x91p\r<'
p8094
tp8095
Rp8096
tp8097
a(g44
g6
(g18
S'\x14)Z;'
p8098
tp8099
Rp8100
tp8101
a(g56
g6
(g18
S'\xdftE;'
p8102
tp8103
Rp8104
tp8105
asg73
g15
sa(dp8106
g2
S'../../../data/emanuela/activity-recognition/images/NTCIR-Lifelog-256/u1/2015-03-12/b00001108_21i6bq_20150312_192151e.jpg'
p8107
sg4
(lp8108
(g15
g6
(g18
S'o\x90\x16?'
p8109
tp8110
Rp8111
tp8112
a(g68
g6
(g18
S'\xa1\x18)>'
p8113
tp8114
Rp8115
tp8116
a(g108
g6
(g18
S'\x1c\xc7\xf7='
p8117
tp8118
Rp8119
tp8120
a(g44
g6
(g18
S'\x84\xe3\xb0='
p8121
tp8122
Rp8123
tp8124
a(g56
g6
(g18
S'6\x8bs<'
p8125
tp8126
Rp8127
tp8128
asg73
g15
sa(dp8129
g2
S'../../../data/emanuela/activity-recognition/images/NTCIR-Lifelog-256/u1/2015-02-24/b00000728_21i6bq_20150224_140617e.jpg'
p8130
sg4
(lp8131
(g15
g6
(g18
S'\xd3\xa1\x07?'
p8132
tp8133
Rp8134
tp8135
a(g255
g6
(g18
S'-"\xac>'
p8136
tp8137
Rp8138
tp8139
a(g425
g6
(g18
S'\x0f*\xed<'
p8140
tp8141
Rp8142
tp8143
a(g239
g6
(g18
S';\r\xbe<'
p8144
tp8145
Rp8146
tp8147
a(g328
g6
(g18
S'\x80M\x9c<'
p8148
tp8149
Rp8150
tp8151
asg73
g15
sa(dp8152
g2
S'../../../data/emanuela/activity-recognition/images/NTCIR-Lifelog-256/u2/2015-05-01/b00002387_21i7lf_20150501_152102e.jpg'
p8153
sg4
(lp8154
(g15
g6
(g18
S'X\x07A?'
p8155
tp8156
Rp8157
tp8158
a(g44
g6
(g18
S'\x06\xed\x1a>'
p8159
tp8160
Rp8161
tp8162
a(g68
g6
(g18
S'\x0c\xa2+='
p8163
tp8164
Rp8165
tp8166
a(g32
g6
(g18
S'\xa7q(='
p8167
tp8168
Rp8169
tp8170
a(g56
g6
(g18
S'\x02\xa0\x87;'
p8171
tp8172
Rp8173
tp8174
asg73
g15
sa(dp8175
g2
S'../../../data/emanuela/activity-recognition/images/NTCIR-Lifelog-256/u1/2015-03-06/b00000698_21i6bq_20150306_124246e.jpg'
p8176
sg4
(lp8177
(g15
g6
(g18
S'\x80L|?'
p8178
tp8179
Rp8180
tp8181
a(g32
g6
(g18
S'`\t\x01<'
p8182
tp8183
Rp8184
tp8185
a(g68
g6
(g18
S'\xc9Jw;'
p8186
tp8187
Rp8188
tp8189
a(g44
g6
(g18
S'\xb1U\xe2:'
p8190
tp8191
Rp8192
tp8193
a(g139
g6
(g18
S'\xd1\xd3\xd99'
p8194
tp8195
Rp8196
tp8197
asg73
g15
sa(dp8198
g2
S'../../../data/emanuela/activity-recognition/images/NTCIR-Lifelog-256/u2/2015-04-24/b00002254_21i7lf_20150424_122925e.jpg'
p8199
sg4
(lp8200
(g15
g6
(g18
S'\xe4Of?'
p8201
tp8202
Rp8203
tp8204
a(g68
g6
(g18
S'F\x8f\xf4<'
p8205
tp8206
Rp8207
tp8208
a(g32
g6
(g18
S'?,\xc3<'
p8209
tp8210
Rp8211
tp8212
a(g56
g6
(g18
S'[\xf0\xbd<'
p8213
tp8214
Rp8215
tp8216
a(g328
g6
(g18
S'S4_<'
p8217
tp8218
Rp8219
tp8220
asg73
g15
sa(dp8221
g2
S'../../../data/emanuela/activity-recognition/images/NTCIR-Lifelog-256/u2/2015-05-07/b00008274_21i7lf_20150507_210028e.jpg'
p8222
sg4
(lp8223
(g15
g6
(g18
S'\x81y\x19?'
p8224
tp8225
Rp8226
tp8227
a(g68
g6
(g18
S'}?\xbe>'
p8228
tp8229
Rp8230
tp8231
a(g386
g6
(g18
S'\x82\xcd\x00<'
p8232
tp8233
Rp8234
tp8235
a(g32
g6
(g18
S'\xa1\x16\xfd;'
p8236
tp8237
Rp8238
tp8239
a(g44
g6
(g18
S'}\x13\x86;'
p8240
tp8241
Rp8242
tp8243
asg73
g15
sa(dp8244
g2
S'../../../data/emanuela/activity-recognition/images/NTCIR-Lifelog-256/u3/2015-08-01/b00006706_21i79q_20150801_232655e.jpg'
p8245
sg4
(lp8246
(g15
g6
(g18
S'\xc1\xb3\x10?'
p8247
tp8248
Rp8249
tp8250
a(g44
g6
(g18
S'/\xcfw>'
p8251
tp8252
Rp8253
tp8254
a(g32
g6
(g18
S'\xe5@%>'
p8255
tp8256
Rp8257
tp8258
a(g139
g6
(g18
S'\x84\xff:<'
p8259
tp8260
Rp8261
tp8262
a(g456
g6
(g18
S'\xdf\xed\x91;'
p8263
tp8264
Rp8265
tp8266
asg73
g15
sa(dp8267
g2
S'../../../data/emanuela/activity-recognition/images/NTCIR-Lifelog-256/u1/2015-03-04/b00000493_21i6bq_20150304_115035e.jpg'
p8268
sg4
(lp8269
(g15
g6
(g18
S'1\x83e?'
p8270
tp8271
Rp8272
tp8273
a(g68
g6
(g18
S'\xaf`\xa3='
p8274
tp8275
Rp8276
tp8277
a(g56
g6
(g18
S'\xa3\xf6\xa0<'
p8278
tp8279
Rp8280
tp8281
a(g32
g6
(g18
S'(\x88%;'
p8282
tp8283
Rp8284
tp8285
a(g386
g6
(g18
S'\xed\x83\xe49'
p8286
tp8287
Rp8288
tp8289
asg73
g15
sa(dp8290
g2
S'../../../data/emanuela/activity-recognition/images/NTCIR-Lifelog-256/u2/2015-04-24/b00002221_21i7lf_20150424_120917e.jpg'
p8291
sg4
(lp8292
(g15
g6
(g18
S'\xa7\x14\x9f>'
p8293
tp8294
Rp8295
tp8296
a(g44
g6
(g18
S'\x11\xb7\x9d>'
p8297
tp8298
Rp8299
tp8300
a(g108
g6
(g18
S't\xe9%>'
p8301
tp8302
Rp8303
tp8304
a(g68
g6
(g18
S'\xa9\xbe\xcb='
p8305
tp8306
Rp8307
tp8308
a(g32
g6
(g18
S'\xdc(s='
p8309
tp8310
Rp8311
tp8312
asg73
g15
sa(dp8313
g2
S'../../../data/emanuela/activity-recognition/images/NTCIR-Lifelog-256/u1/2015-02-23/b00000388_21i6bq_20150223_111100e.jpg'
p8314
sg4
(lp8315
(g15
g6
(g18
S'@\x96a?'
p8316
tp8317
Rp8318
tp8319
a(g32
g6
(g18
S'\x9c8\xdd='
p8320
tp8321
Rp8322
tp8323
a(g56
g6
(g18
S'\x9a\x06b;'
p8324
tp8325
Rp8326
tp8327
a(g139
g6
(g18
S'EI\x06;'
p8328
tp8329
Rp8330
tp8331
a(g68
g6
(g18
S'dG\x00;'
p8332
tp8333
Rp8334
tp8335
asg73
g15
sa(dp8336
g2
S'../../../data/emanuela/activity-recognition/images/NTCIR-Lifelog-256/u2/2015-04-30/b00000877_21i7lf_20150430_114412e.jpg'
p8337
sg4
(lp8338
(g15
g6
(g18
S"\x8f\xf9'?"
p8339
tp8340
Rp8341
tp8342
a(g108
g6
(g18
S'\xcd\xfc\xa3='
p8343
tp8344
Rp8345
tp8346
a(g56
g6
(g18
S'\x8a\tj='
p8347
tp8348
Rp8349
tp8350
a(g68
g6
(g18
S'V@e='
p8351
tp8352
Rp8353
tp8354
a(g328
g6
(g18
S'z\xc8H='
p8355
tp8356
Rp8357
tp8358
asg73
g15
sa(dp8359
g2
S'../../../data/emanuela/activity-recognition/images/NTCIR-Lifelog-256/u2/2015-05-08/b00009704_21i7lf_20150508_204550e.jpg'
p8360
sg4
(lp8361
(g15
g6
(g18
S'\x8ejS?'
p8362
tp8363
Rp8364
tp8365
a(g68
g6
(g18
S'\x8f\xe0\xc9='
p8366
tp8367
Rp8368
tp8369
a(g386
g6
(g18
S'\xd8\xe4y='
p8370
tp8371
Rp8372
tp8373
a(g56
g6
(g18
S'\x8c\x83\x97;'
p8374
tp8375
Rp8376
tp8377
a(g44
g6
(g18
S'\x85h\xee:'
p8378
tp8379
Rp8380
tp8381
asg73
g15
sa(dp8382
g2
S'../../../data/emanuela/activity-recognition/images/NTCIR-Lifelog-256/u1/2015-03-05/b00000416_21i6bq_20150305_103750e.jpg'
p8383
sg4
(lp8384
(g15
g6
(g18
S'\xd3NI?'
p8385
tp8386
Rp8387
tp8388
a(g68
g6
(g18
S'f\x85\x1b>'
p8389
tp8390
Rp8391
tp8392
a(g32
g6
(g18
S'\xf2\xaa\xff<'
p8393
tp8394
Rp8395
tp8396
a(g44
g6
(g18
S'\x0e\xc73<'
p8397
tp8398
Rp8399
tp8400
a(g139
g6
(g18
S'\x07\x9a\xac;'
p8401
tp8402
Rp8403
tp8404
asg73
g15
sa(dp8405
g2
S'../../../data/emanuela/activity-recognition/images/NTCIR-Lifelog-256/u3/2015-06-20/b00001231_21i79q_20150620_003232e.jpg'
p8406
sg4
(lp8407
(g15
g6
(g18
S'\xbd\xe5/?'
p8408
tp8409
Rp8410
tp8411
a(g68
g6
(g18
S')\x99r>'
p8412
tp8413
Rp8414
tp8415
a(g56
g6
(g18
S'X-\xb7<'
p8416
tp8417
Rp8418
tp8419
a(g44
g6
(g18
S'\xa3\xa3\x96<'
p8420
tp8421
Rp8422
tp8423
a(g108
g6
(g18
S'\xbdL\xee;'
p8424
tp8425
Rp8426
tp8427
asg73
g15
sa(dp8428
g2
S'../../../data/emanuela/activity-recognition/images/NTCIR-Lifelog-256/u1/2015-02-25/b00001047_21i6bq_20150225_165436e.jpg'
p8429
sg4
(lp8430
(g386
g6
(g18
S'\x0bh\xa4>'
p8431
tp8432
Rp8433
tp8434
a(g239
g6
(g18
S'\xd5\xb8g>'
p8435
tp8436
Rp8437
tp8438
a(g15
g6
(g18
S'\xc9\xdc\xf3='
p8439
tp8440
Rp8441
tp8442
a(g255
g6
(g18
S'\x90\xde\x98='
p8443
tp8444
Rp8445
tp8446
a(g56
g6
(g18
S'R\xdeL='
p8447
tp8448
Rp8449
tp8450
asg73
g15
sa(dp8451
g2
S'../../../data/emanuela/activity-recognition/images/NTCIR-Lifelog-256/u1/2015-03-15/b00001395_21i6bq_20150315_211156e.jpg'
p8452
sg4
(lp8453
(g170
g6
(g18
S'*\x8b\x1e?'
p8454
tp8455
Rp8456
tp8457
a(g15
g6
(g18
S'\xe4\xb7\x01>'
p8458
tp8459
Rp8460
tp8461
a(g286
g6
(g18
S'D\xf9\xd8='
p8462
tp8463
Rp8464
tp8465
a(g456
g6
(g18
S'1o2='
p8466
tp8467
Rp8468
tp8469
a(g255
g6
(g18
S'\x8c7&='
p8470
tp8471
Rp8472
tp8473
asg73
g15
sa(dp8474
g2
S'../../../data/emanuela/activity-recognition/images/NTCIR-Lifelog-256/u2/2015-04-24/b00002218_21i7lf_20150424_120728e.jpg'
p8475
sg4
(lp8476
(g15
g6
(g18
S'\xb0e\x1d?'
p8477
tp8478
Rp8479
tp8480
a(g56
g6
(g18
S'\x97L\x8c>'
p8481
tp8482
Rp8483
tp8484
a(g68
g6
(g18
S'\x06\xfa\xa0='
p8485
tp8486
Rp8487
tp8488
a(g139
g6
(g18
S'\xccB\x91<'
p8489
tp8490
Rp8491
tp8492
a(g44
g6
(g18
S'~\xe0\xad;'
p8493
tp8494
Rp8495
tp8496
asg73
g15
sa(dp8497
g2
S'../../../data/emanuela/activity-recognition/images/NTCIR-Lifelog-256/u1/2015-03-06/b00000707_21i6bq_20150306_124801e.jpg'
p8498
sg4
(lp8499
(g15
g6
(g18
S'\xe52}?'
p8500
tp8501
Rp8502
tp8503
a(g68
g6
(g18
S',O\xba;'
p8504
tp8505
Rp8506
tp8507
a(g32
g6
(g18
S'Yxy;'
p8508
tp8509
Rp8510
tp8511
a(g44
g6
(g18
S'\xbdR\xc89'
p8512
tp8513
Rp8514
tp8515
a(g139
g6
(g18
S'\x87\xc8\x8e9'
p8516
tp8517
Rp8518
tp8519
asg73
g15
sa(dp8520
g2
S'../../../data/emanuela/activity-recognition/images/NTCIR-Lifelog-256/u1/2015-03-06/b00000719_21i6bq_20150306_125503e.jpg'
p8521
sg4
(lp8522
(g15
g6
(g18
S'+~x?'
p8523
tp8524
Rp8525
tp8526
a(g32
g6
(g18
S'\x99a\xcb<'
p8527
tp8528
Rp8529
tp8530
a(g68
g6
(g18
S'-A\x0c;'
p8531
tp8532
Rp8533
tp8534
a(g139
g6
(g18
S'\xdejD:'
p8535
tp8536
Rp8537
tp8538
a(g44
g6
(g18
S'#\x95#:'
p8539
tp8540
Rp8541
tp8542
asg73
g15
sa(dp8543
g2
S'../../../data/emanuela/activity-recognition/images/NTCIR-Lifelog-256/u1/2015-02-23/b00000711_21i6bq_20150223_143252e.jpg'
p8544
sg4
(lp8545
(g15
g6
(g18
S'O\xf0\xf8>'
p8546
tp8547
Rp8548
tp8549
a(g32
g6
(g18
S'h\xc4\xee>'
p8550
tp8551
Rp8552
tp8553
a(g44
g6
(g18
S'\x9cG ='
p8554
tp8555
Rp8556
tp8557
a(g68
g6
(g18
S'WJ\xb9;'
p8558
tp8559
Rp8560
tp8561
a(g56
g6
(g18
S'\xb5A0:'
p8562
tp8563
Rp8564
tp8565
asg73
g15
sa(dp8566
g2
S'../../../data/emanuela/activity-recognition/images/NTCIR-Lifelog-256/u1/2015-02-27/b00000942_21i6bq_20150227_172453e.jpg'
p8567
sg4
(lp8568
(g15
g6
(g18
S'\xbe\x99\xac>'
p8569
tp8570
Rp8571
tp8572
a(g32
g6
(g18
S'\x8d\xa0\x8a>'
p8573
tp8574
Rp8575
tp8576
a(g44
g6
(g18
S'\x80\xfb\xd0='
p8577
tp8578
Rp8579
tp8580
a(g68
g6
(g18
S'\xc03\xb7='
p8581
tp8582
Rp8583
tp8584
a(g139
g6
(g18
S'\xe5\xbe\xae='
p8585
tp8586
Rp8587
tp8588
asg73
g15
sa(dp8589
g2
S'../../../data/emanuela/activity-recognition/images/NTCIR-Lifelog-256/u2/2015-04-29/b00000685_21i7lf_20150429_143513e.jpg'
p8590
sg4
(lp8591
(g328
g6
(g18
S'^~\x9b>'
p8592
tp8593
Rp8594
tp8595
a(g255
g6
(g18
S'}\r?>'
p8596
tp8597
Rp8598
tp8599
a(g15
g6
(g18
S'I\xab\x19>'
p8600
tp8601
Rp8602
tp8603
a(g170
g6
(g18
S'\xdau\x84='
p8604
tp8605
Rp8606
tp8607
a(g456
g6
(g18
S'\x9dpk='
p8608
tp8609
Rp8610
tp8611
asg73
g15
sa(dp8612
g2
S'../../../data/emanuela/activity-recognition/images/NTCIR-Lifelog-256/u1/2015-02-26/b00000445_21i6bq_20150226_111155e.jpg'
p8613
sg4
(lp8614
(g15
g6
(g18
S'\xb2\xc0s?'
p8615
tp8616
Rp8617
tp8618
a(g32
g6
(g18
S'\xf7n4='
p8619
tp8620
Rp8621
tp8622
a(g56
g6
(g18
S'\xe7.\x8c:'
p8623
tp8624
Rp8625
tp8626
a(g456
g6
(g18
S'E\xa8q:'
p8627
tp8628
Rp8629
tp8630
a(g239
g6
(g18
S'\xbb\xa59:'
p8631
tp8632
Rp8633
tp8634
asg73
g15
sa(dp8635
g2
S'../../../data/emanuela/activity-recognition/images/NTCIR-Lifelog-256/u3/2015-07-01/b00000031_21i79q_20150701_123907e.jpg'
p8636
sg4
(lp8637
(g15
g6
(g18
S'\x17*[?'
p8638
tp8639
Rp8640
tp8641
a(g32
g6
(g18
S'\xb9\xff\xf1='
p8642
tp8643
Rp8644
tp8645
a(g44
g6
(g18
S'\xa9\xdc\x9c<'
p8646
tp8647
Rp8648
tp8649
a(g108
g6
(g18
S'4-\x97;'
p8650
tp8651
Rp8652
tp8653
a(g328
g6
(g18
S'\xbd>D:'
p8654
tp8655
Rp8656
tp8657
asg73
g15
sa(dp8658
g2
S'../../../data/emanuela/activity-recognition/images/NTCIR-Lifelog-256/u2/2015-04-22/b00000584_21i7lf_20150422_184513e.jpg'
p8659
sg4
(lp8660
(g68
g6
(g18
S'\xcfK\x13?'
p8661
tp8662
Rp8663
tp8664
a(g15
g6
(g18
S'\x04\x06O>'
p8665
tp8666
Rp8667
tp8668
a(g56
g6
(g18
S'\xe9\x04">'
p8669
tp8670
Rp8671
tp8672
a(g794
g6
(g18
S'?\xf8\xbe<'
p8673
tp8674
Rp8675
tp8676
a(g170
g6
(g18
S'\xd3\x16,<'
p8677
tp8678
Rp8679
tp8680
asg73
g15
sa(dp8681
g2
S'../../../data/emanuela/activity-recognition/images/NTCIR-Lifelog-256/u1/2015-02-28/b00000875_21i6bq_20150228_150345e.jpg'
p8682
sg4
(lp8683
(g15
g6
(g18
S'\xdf>>?'
p8684
tp8685
Rp8686
tp8687
a(g32
g6
(g18
S'\xa0t\x0b>'
p8688
tp8689
Rp8690
tp8691
a(g56
g6
(g18
S'o/L='
p8692
tp8693
Rp8694
tp8695
a(g96
g6
(g18
S'/d\x9d<'
p8696
tp8697
Rp8698
tp8699
a(g328
g6
(g18
S'\xfd\x1b}<'
p8700
tp8701
Rp8702
tp8703
asg73
g15
sa(dp8704
g2
S'../../../data/emanuela/activity-recognition/images/NTCIR-Lifelog-256/u1/2015-03-09/b00000777_21i6bq_20150309_151443e.jpg'
p8705
sg4
(lp8706
(g15
g6
(g18
S'\xbb\x1c|?'
p8707
tp8708
Rp8709
tp8710
a(g32
g6
(g18
S'm\x96\x96;'
p8711
tp8712
Rp8713
tp8714
a(g68
g6
(g18
S'\xe2\xc1{;'
p8715
tp8716
Rp8717
tp8718
a(g44
g6
(g18
S'\x01\xe6\xde:'
p8719
tp8720
Rp8721
tp8722
a(g56
g6
(g18
S'\xa7!\x92:'
p8723
tp8724
Rp8725
tp8726
asg73
g15
sa(dp8727
g2
S'../../../data/emanuela/activity-recognition/images/NTCIR-Lifelog-256/u1/2015-02-24/b00000736_21i6bq_20150224_141103e.jpg'
p8728
sg4
(lp8729
(g15
g6
(g18
S'\x7f\xfbF?'
p8730
tp8731
Rp8732
tp8733
a(g44
g6
(g18
S'm\xfa\x9b='
p8734
tp8735
Rp8736
tp8737
a(g68
g6
(g18
S'\xf7\x06\x18='
p8738
tp8739
Rp8740
tp8741
a(g108
g6
(g18
S'x\xcb\x04='
p8742
tp8743
Rp8744
tp8745
a(g32
g6
(g18
S'"K\xeb<'
p8746
tp8747
Rp8748
tp8749
asg73
g15
sa(dp8750
g2
S'../../../data/emanuela/activity-recognition/images/NTCIR-Lifelog-256/u1/2015-03-09/b00000625_21i6bq_20150309_133821e.jpg'
p8751
sg4
(lp8752
(g15
g6
(g18
S'\xf2gz?'
p8753
tp8754
Rp8755
tp8756
a(g32
g6
(g18
S'?\xf7,<'
p8757
tp8758
Rp8759
tp8760
a(g68
g6
(g18
S'\xc6%\xf7;'
p8761
tp8762
Rp8763
tp8764
a(g56
g6
(g18
S'\xd8\x9b\xa0:'
p8765
tp8766
Rp8767
tp8768
a(g44
g6
(g18
S'31O:'
p8769
tp8770
Rp8771
tp8772
asg73
g15
sa(dp8773
g2
S'../../../data/emanuela/activity-recognition/images/NTCIR-Lifelog-256/u2/2015-05-01/b00002385_21i7lf_20150501_151949e.jpg'
p8774
sg4
(lp8775
(g15
g6
(g18
S'\x95\xd8\x07?'
p8776
tp8777
Rp8778
tp8779
a(g44
g6
(g18
S'\xf87\xb7>'
p8780
tp8781
Rp8782
tp8783
a(g32
g6
(g18
S'\xad\x91\x9d='
p8784
tp8785
Rp8786
tp8787
a(g68
g6
(g18
S'\xcf\xb5\xb7<'
p8788
tp8789
Rp8790
tp8791
a(g328
g6
(g18
S'z\xd0\x85;'
p8792
tp8793
Rp8794
tp8795
asg73
g15
sa(dp8796
g2
S'../../../data/emanuela/activity-recognition/images/NTCIR-Lifelog-256/u3/2015-06-15/b00000057_21i79q_20150615_091213e.jpg'
p8797
sg4
(lp8798
(g15
g6
(g18
S'\xea\x9eM?'
p8799
tp8800
Rp8801
tp8802
a(g68
g6
(g18
S'Y\xdc\x01>'
p8803
tp8804
Rp8805
tp8806
a(g32
g6
(g18
S'Q\x06\x1a='
p8807
tp8808
Rp8809
tp8810
a(g44
g6
(g18
S'\xbdp:<'
p8811
tp8812
Rp8813
tp8814
a(g108
g6
(g18
S'WS\xc8;'
p8815
tp8816
Rp8817
tp8818
asg73
g15
sa(dp8819
g2
S'../../../data/emanuela/activity-recognition/images/NTCIR-Lifelog-256/u2/2015-04-24/b00002271_21i7lf_20150424_124027e.jpg'
p8820
sg4
(lp8821
(g15
g6
(g18
S'\x03\x8e-?'
p8822
tp8823
Rp8824
tp8825
a(g32
g6
(g18
S'mr\xda='
p8826
tp8827
Rp8828
tp8829
a(g328
g6
(g18
S'\x15\x1b\x91='
p8830
tp8831
Rp8832
tp8833
a(g68
g6
(g18
S'\x9dsX='
p8834
tp8835
Rp8836
tp8837
a(g56
g6
(g18
S'\xe8\xe2"='
p8838
tp8839
Rp8840
tp8841
asg73
g15
sa(dp8842
g2
S'../../../data/emanuela/activity-recognition/images/NTCIR-Lifelog-256/u2/2015-05-05/b00005728_21i7lf_20150505_161017e.jpg'
p8843
sg4
(lp8844
(g15
g6
(g18
S'\x87\xe3Z?'
p8845
tp8846
Rp8847
tp8848
a(g32
g6
(g18
S'\xae\xaf\x82='
p8849
tp8850
Rp8851
tp8852
a(g108
g6
(g18
S'\x0b\x96\xf8<'
p8853
tp8854
Rp8855
tp8856
a(g44
g6
(g18
S'\xa4/m<'
p8857
tp8858
Rp8859
tp8860
a(g328
g6
(g18
S'b\x99&<'
p8861
tp8862
Rp8863
tp8864
asg73
g15
sa(dp8865
g2
S'../../../data/emanuela/activity-recognition/images/NTCIR-Lifelog-256/u2/2015-04-28/b00006800_21i7lf_20150428_140406e.jpg'
p8866
sg4
(lp8867
(g15
g6
(g18
S'Z\xaef?'
p8868
tp8869
Rp8870
tp8871
a(g32
g6
(g18
S'P\xc9\xfd<'
p8872
tp8873
Rp8874
tp8875
a(g56
g6
(g18
S'\x96f\xe5<'
p8876
tp8877
Rp8878
tp8879
a(g68
g6
(g18
S'\x8b\x9c\x9d<'
p8880
tp8881
Rp8882
tp8883
a(g328
g6
(g18
S'\xdd\x86\x0e<'
p8884
tp8885
Rp8886
tp8887
asg73
g15
sa(dp8888
g2
S'../../../data/emanuela/activity-recognition/images/NTCIR-Lifelog-256/u2/2015-04-28/b00006785_21i7lf_20150428_135503e.jpg'
p8889
sg4
(lp8890
(g15
g6
(g18
S'\xc6\rp?'
p8891
tp8892
Rp8893
tp8894
a(g68
g6
(g18
S'<\xc6\xe9<'
p8895
tp8896
Rp8897
tp8898
a(g56
g6
(g18
S'\x15mi<'
p8899
tp8900
Rp8901
tp8902
a(g32
g6
(g18
S'V\x1a\x13<'
p8903
tp8904
Rp8905
tp8906
a(g328
g6
(g18
S"\x10'\xa0;"
p8907
tp8908
Rp8909
tp8910
asg73
g15
sa(dp8911
g2
S'../../../data/emanuela/activity-recognition/images/NTCIR-Lifelog-256/u1/2015-02-25/b00000503_21i6bq_20150225_111324e.jpg'
p8912
sg4
(lp8913
(g15
g6
(g18
S'P\xda\xfa>'
p8914
tp8915
Rp8916
tp8917
a(g56
g6
(g18
S']\x1b\xd8>'
p8918
tp8919
Rp8920
tp8921
a(g32
g6
(g18
S'\xca+\xa1='
p8922
tp8923
Rp8924
tp8925
a(g386
g6
(g18
S'l\x08\x1d;'
p8926
tp8927
Rp8928
tp8929
a(g68
g6
(g18
S'\xe4o\xc1:'
p8930
tp8931
Rp8932
tp8933
asg73
g15
sa(dp8934
g2
S'../../../data/emanuela/activity-recognition/images/NTCIR-Lifelog-256/u2/2015-04-24/b00002272_21i7lf_20150424_124104e.jpg'
p8935
sg4
(lp8936
(g15
g6
(g18
S'\xaeg\x01?'
p8937
tp8938
Rp8939
tp8940
a(g56
g6
(g18
S'\xbf\xfb\xa8>'
p8941
tp8942
Rp8943
tp8944
a(g794
g6
(g18
S'/\x8f6='
p8945
tp8946
Rp8947
tp8948
a(g170
g6
(g18
S'\x84\xa2\xea<'
p8949
tp8950
Rp8951
tp8952
a(g255
g6
(g18
S'\xaf\x8f\xd8<'
p8953
tp8954
Rp8955
tp8956
asg73
g15
sa(dp8957
g2
S'../../../data/emanuela/activity-recognition/images/NTCIR-Lifelog-256/u1/2015-03-10/b00000274_21i6bq_20150310_155057e.jpg'
p8958
sg4
(lp8959
(g15
g6
(g18
S't\x8de?'
p8960
tp8961
Rp8962
tp8963
a(g68
g6
(g18
S'\xc2\xe7\x10='
p8964
tp8965
Rp8966
tp8967
a(g32
g6
(g18
S'\xb0>\xcd<'
p8968
tp8969
Rp8970
tp8971
a(g44
g6
(g18
S'.\x13m<'
p8972
tp8973
Rp8974
tp8975
a(g56
g6
(g18
S'\x8do\x02<'
p8976
tp8977
Rp8978
tp8979
asg73
g15
sa(dp8980
g2
S'../../../data/emanuela/activity-recognition/images/NTCIR-Lifelog-256/u1/2015-02-23/b00000386_21i6bq_20150223_110947e.jpg'
p8981
sg4
(lp8982
(g15
g6
(g18
S'\xcf\xcd_?'
p8983
tp8984
Rp8985
tp8986
a(g32
g6
(g18
S'\x9f{\xea='
p8987
tp8988
Rp8989
tp8990
a(g239
g6
(g18
S'eO\xa4;'
p8991
tp8992
Rp8993
tp8994
a(g56
g6
(g18
S'\xc0\xack;'
p8995
tp8996
Rp8997
tp8998
a(g456
g6
(g18
S'\x9bB\x83:'
p8999
tp9000
Rp9001
tp9002
asg73
g15
sa(dp9003
g2
S'../../../data/emanuela/activity-recognition/images/NTCIR-Lifelog-256/u1/2015-02-25/b00000736_21i6bq_20150225_133002e.jpg'
p9004
sg4
(lp9005
(g15
g6
(g18
S":'j?"
p9006
tp9007
Rp9008
tp9009
a(g32
g6
(g18
S'bh\x9e='
p9010
tp9011
Rp9012
tp9013
a(g56
g6
(g18
S'\xb5\xd9\x8b;'
p9014
tp9015
Rp9016
tp9017
a(g68
g6
(g18
S'\x06\xce";'
p9018
tp9019
Rp9020
tp9021
a(g139
g6
(g18
S'\xb6\x8c\xed9'
p9022
tp9023
Rp9024
tp9025
asg73
g15
sa(dp9026
g2
S'../../../data/emanuela/activity-recognition/images/NTCIR-Lifelog-256/u1/2015-03-06/b00000737_21i6bq_20150306_130532e.jpg'
p9027
sg4
(lp9028
(g15
g6
(g18
S'\xf7(q?'
p9029
tp9030
Rp9031
tp9032
a(g32
g6
(g18
S'\xf6#)='
p9033
tp9034
Rp9035
tp9036
a(g68
g6
(g18
S'=\x87\x0c<'
p9037
tp9038
Rp9039
tp9040
a(g139
g6
(g18
S'\x1f\x0eJ;'
p9041
tp9042
Rp9043
tp9044
a(g44
g6
(g18
S']\x93\x14;'
p9045
tp9046
Rp9047
tp9048
asg73
g15
sa(dp9049
g2
S'../../../data/emanuela/activity-recognition/images/NTCIR-Lifelog-256/u1/2015-02-24/b00000861_21i6bq_20150224_152657e.jpg'
p9050
sg4
(lp9051
(g15
g6
(g18
S'\xe3\x82\r?'
p9052
tp9053
Rp9054
tp9055
a(g56
g6
(g18
S'\xa1\x9f\x89>'
p9056
tp9057
Rp9058
tp9059
a(g32
g6
(g18
S'\xea^\xe8='
p9060
tp9061
Rp9062
tp9063
a(g239
g6
(g18
S'\x8a8\xb9<'
p9064
tp9065
Rp9066
tp9067
a(g328
g6
(g18
S'\x08\xfb\x95<'
p9068
tp9069
Rp9070
tp9071
asg73
g15
sa(dp9072
g2
S'../../../data/emanuela/activity-recognition/images/NTCIR-Lifelog-256/u1/2015-03-15/b00000734_21i6bq_20150315_144637e.jpg'
p9073
sg4
(lp9074
(g68
g6
(g18
S'\xe4\x14\xf8>'
p9075
tp9076
Rp9077
tp9078
a(g15
g6
(g18
S'3\xcd\xcb>'
p9079
tp9080
Rp9081
tp9082
a(g44
g6
(g18
S'\xd8\xcc\x88='
p9083
tp9084
Rp9085
tp9086
a(g56
g6
(g18
S'\xcf\xb0#<'
p9087
tp9088
Rp9089
tp9090
a(g255
g6
(g18
S'6\x8a\x0e<'
p9091
tp9092
Rp9093
tp9094
asg73
g15
sa(dp9095
g2
S'../../../data/emanuela/activity-recognition/images/NTCIR-Lifelog-256/u1/2015-03-10/b00001988_21i6bq_20150310_113633e.jpg'
p9096
sg4
(lp9097
(g15
g6
(g18
S'\r\x97|?'
p9098
tp9099
Rp9100
tp9101
a(g32
g6
(g18
S'\x82\xde\x19<'
p9102
tp9103
Rp9104
tp9105
a(g44
g6
(g18
S'&\xb7";'
p9106
tp9107
Rp9108
tp9109
a(g68
g6
(g18
S'\x94\x8dq:'
p9110
tp9111
Rp9112
tp9113
a(g108
g6
(g18
S'c\x0eA9'
p9114
tp9115
Rp9116
tp9117
asg73
g15
sa(dp9118
g2
S'../../../data/emanuela/activity-recognition/images/NTCIR-Lifelog-256/u1/2015-03-11/b00000581_21i6bq_20150311_125027e.jpg'
p9119
sg4
(lp9120
(g15
g6
(g18
S'\xc1\xd0\x19?'
p9121
tp9122
Rp9123
tp9124
a(g32
g6
(g18
S"'\x15Z>"
p9125
tp9126
Rp9127
tp9128
a(g68
g6
(g18
S'\x89[H='
p9129
tp9130
Rp9131
tp9132
a(g44
g6
(g18
S'D\xe2/='
p9133
tp9134
Rp9135
tp9136
a(g56
g6
(g18
S'\x8b\xe1\xdc<'
p9137
tp9138
Rp9139
tp9140
asg73
g15
sa(dp9141
g2
S'../../../data/emanuela/activity-recognition/images/NTCIR-Lifelog-256/u1/2015-02-27/b00000527_21i6bq_20150227_124852e.jpg'
p9142
sg4
(lp9143
(g15
g6
(g18
S'\xc0\xfdO?'
p9144
tp9145
Rp9146
tp9147
a(g32
g6
(g18
S'\x0c\x90\x16>'
p9148
tp9149
Rp9150
tp9151
a(g68
g6
(g18
S'\xbf|\x87<'
p9152
tp9153
Rp9154
tp9155
a(g56
g6
(g18
S'\x9fG1<'
p9156
tp9157
Rp9158
tp9159
a(g108
g6
(g18
S'\xff/\xb1;'
p9160
tp9161
Rp9162
tp9163
asg73
g15
sa(dp9164
g2
S'../../../data/emanuela/activity-recognition/images/NTCIR-Lifelog-256/u2/2015-04-29/b00000276_21i7lf_20150429_101849e.jpg'
p9165
sg4
(lp9166
(g15
g6
(g18
S'\x05\xc4\x96>'
p9167
tp9168
Rp9169
tp9170
a(g56
g6
(g18
S',\x8dO>'
p9171
tp9172
Rp9173
tp9174
a(g68
g6
(g18
S'\x9ez\xc7='
p9175
tp9176
Rp9177
tp9178
a(g96
g6
(g18
S'\xf8I\x8f='
p9179
tp9180
Rp9181
tp9182
a(g794
g6
(g18
S',hn='
p9183
tp9184
Rp9185
tp9186
asg73
g15
sa(dp9187
g2
S'../../../data/emanuela/activity-recognition/images/NTCIR-Lifelog-256/u1/2015-03-06/b00000601_21i6bq_20150306_114547e.jpg'
p9188
sg4
(lp9189
(g15
g6
(g18
S'\xa7\xbdy?'
p9190
tp9191
Rp9192
tp9193
a(g32
g6
(g18
S'\xfcK\xae<'
p9194
tp9195
Rp9196
tp9197
a(g68
g6
(g18
S'\x1a\xaf\x92:'
p9198
tp9199
Rp9200
tp9201
a(g44
g6
(g18
S';\x9b\x8a:'
p9202
tp9203
Rp9204
tp9205
a(g139
g6
(g18
S'\x89\xf7\x1a:'
p9206
tp9207
Rp9208
tp9209
asg73
g15
sa(dp9210
g2
S'../../../data/emanuela/activity-recognition/images/NTCIR-Lifelog-256/u2/2015-04-24/b00002241_21i7lf_20150424_122127e.jpg'
p9211
sg4
(lp9212
(g15
g6
(g18
S'\x02\xfe\xa0>'
p9213
tp9214
Rp9215
tp9216
a(g32
g6
(g18
S' \x05\x96>'
p9217
tp9218
Rp9219
tp9220
a(g328
g6
(g18
S'\x16z\xf2='
p9221
tp9222
Rp9223
tp9224
a(g68
g6
(g18
S'\xe0\x9a\xb8='
p9225
tp9226
Rp9227
tp9228
a(g56
g6
(g18
S'\x0f\x82\x8b='
p9229
tp9230
Rp9231
tp9232
asg73
g15
sa(dp9233
g2
S'../../../data/emanuela/activity-recognition/images/NTCIR-Lifelog-256/u1/2015-02-25/b00000584_21i6bq_20150225_115844e.jpg'
p9234
sg4
(lp9235
(g15
g6
(g18
S'\x9a\x88w?'
p9236
tp9237
Rp9238
tp9239
a(g32
g6
(g18
S'T \xdf<'
p9240
tp9241
Rp9242
tp9243
a(g68
g6
(g18
S'e(+;'
p9244
tp9245
Rp9246
tp9247
a(g44
g6
(g18
S'\x10\xc2\x97:'
p9248
tp9249
Rp9250
tp9251
a(g56
g6
(g18
S'r\xfa\x90:'
p9252
tp9253
Rp9254
tp9255
asg73
g15
sa(dp9256
g2
S'../../../data/emanuela/activity-recognition/images/NTCIR-Lifelog-256/u1/2015-03-06/b00000580_21i6bq_20150306_113303e.jpg'
p9257
sg4
(lp9258
(g15
g6
(g18
S'\xcc\xa1y?'
p9259
tp9260
Rp9261
tp9262
a(g32
g6
(g18
S'\xf9\x92\xa8<'
p9263
tp9264
Rp9265
tp9266
a(g68
g6
(g18
S' \xa4\xed:'
p9267
tp9268
Rp9269
tp9270
a(g44
g6
(g18
S'/\xab;:'
p9271
tp9272
Rp9273
tp9274
a(g139
g6
(g18
S'\x8bb\x0c:'
p9275
tp9276
Rp9277
tp9278
asg73
g15
sa(dp9279
g2
S'../../../data/emanuela/activity-recognition/images/NTCIR-Lifelog-256/u2/2015-04-28/b00006781_21i7lf_20150428_135235e.jpg'
p9280
sg4
(lp9281
(g15
g6
(g18
S'\x90\xb5j?'
p9282
tp9283
Rp9284
tp9285
a(g68
g6
(g18
S'\x04\xda\x1f='
p9286
tp9287
Rp9288
tp9289
a(g32
g6
(g18
S'\xb1\x12\x8a<'
p9290
tp9291
Rp9292
tp9293
a(g56
g6
(g18
S'P\xa8O<'
p9294
tp9295
Rp9296
tp9297
a(g328
g6
(g18
S'F<\x06<'
p9298
tp9299
Rp9300
tp9301
asg73
g15
sa(dp9302
g2
S'../../../data/emanuela/activity-recognition/images/NTCIR-Lifelog-256/u1/2015-03-05/b00000504_21i6bq_20150305_113821e.jpg'
p9303
sg4
(lp9304
(g15
g6
(g18
S'#\xab\x01?'
p9305
tp9306
Rp9307
tp9308
a(g44
g6
(g18
S'^\x9e\x90>'
p9309
tp9310
Rp9311
tp9312
a(g328
g6
(g18
S'\x18\xd9\xb8='
p9313
tp9314
Rp9315
tp9316
a(g794
g6
(g18
S'\xd1\xfe\xdf<'
p9317
tp9318
Rp9319
tp9320
a(g68
g6
(g18
S'\xccV\xd5<'
p9321
tp9322
Rp9323
tp9324
asg73
g15
sa(dp9325
g2
S'../../../data/emanuela/activity-recognition/images/NTCIR-Lifelog-256/u1/2015-03-04/b00000729_21i6bq_20150304_142700e.jpg'
p9326
sg4
(lp9327
(g15
g6
(g18
S'.a`?'
p9328
tp9329
Rp9330
tp9331
a(g32
g6
(g18
S'\xe6\xfej='
p9332
tp9333
Rp9334
tp9335
a(g68
g6
(g18
S'\x07\x9f\xaa<'
p9336
tp9337
Rp9338
tp9339
a(g44
g6
(g18
S'\xf8.\x99<'
p9340
tp9341
Rp9342
tp9343
a(g108
g6
(g18
S'\xa4\xa4\x03<'
p9344
tp9345
Rp9346
tp9347
asg73
g15
sa(dp9348
g2
S'../../../data/emanuela/activity-recognition/images/NTCIR-Lifelog-256/u1/2015-02-25/b00000764_21i6bq_20150225_134706e.jpg'
p9349
sg4
(lp9350
(g15
g6
(g18
S',\xfbD?'
p9351
tp9352
Rp9353
tp9354
a(g32
g6
(g18
S'\xe5"@>'
p9355
tp9356
Rp9357
tp9358
a(g56
g6
(g18
S'\xfe\xcd\xb4<'
p9359
tp9360
Rp9361
tp9362
a(g68
g6
(g18
S'-\x88\x1c<'
p9363
tp9364
Rp9365
tp9366
a(g108
g6
(g18
S'`,\x8b;'
p9367
tp9368
Rp9369
tp9370
asg73
g15
sa(dp9371
g2
S'../../../data/emanuela/activity-recognition/images/NTCIR-Lifelog-256/u1/2015-02-25/b00000576_21i6bq_20150225_115753e.jpg'
p9372
sg4
(lp9373
(g15
g6
(g18
S'}bu?'
p9374
tp9375
Rp9376
tp9377
a(g32
g6
(g18
S'\xccH\x03='
p9378
tp9379
Rp9380
tp9381
a(g68
g6
(g18
S'\xfc\xb3Z;'
p9382
tp9383
Rp9384
tp9385
a(g56
g6
(g18
S's\x9c-;'
p9386
tp9387
Rp9388
tp9389
a(g108
g6
(g18
S'\x92\x1dk:'
p9390
tp9391
Rp9392
tp9393
asg73
g15
sa(dp9394
g2
S'../../../data/emanuela/activity-recognition/images/NTCIR-Lifelog-256/u1/2015-02-26/b00000880_21i6bq_20150226_153552e.jpg'
p9395
sg4
(lp9396
(g15
g6
(g18
S'U\xd0\x0b?'
p9397
tp9398
Rp9399
tp9400
a(g32
g6
(g18
S'\xfbV\x87>'
p9401
tp9402
Rp9403
tp9404
a(g239
g6
(g18
S'\xfe-\x17>'
p9405
tp9406
Rp9407
tp9408
a(g328
g6
(g18
S'\xd1\x92B<'
p9409
tp9410
Rp9411
tp9412
a(g56
g6
(g18
S'\x06\x07\xe8;'
p9413
tp9414
Rp9415
tp9416
asg73
g15
sa(dp9417
g2
S'../../../data/emanuela/activity-recognition/images/NTCIR-Lifelog-256/u1/2015-02-25/b00000350_21i6bq_20150225_093727e.jpg'
p9418
sg4
(lp9419
(g15
g6
(g18
S'[f`?'
p9420
tp9421
Rp9422
tp9423
a(g68
g6
(g18
S'\x8c\xe2\x0c='
p9424
tp9425
Rp9426
tp9427
a(g32
g6
(g18
S'\xdel\x0b='
p9428
tp9429
Rp9430
tp9431
a(g56
g6
(g18
S'\x07B\x03='
p9432
tp9433
Rp9434
tp9435
a(g44
g6
(g18
S'1\xe7+<'
p9436
tp9437
Rp9438
tp9439
asg73
g15
sa(dp9440
g2
S'../../../data/emanuela/activity-recognition/images/NTCIR-Lifelog-256/u1/2015-03-11/b00001045_21i6bq_20150311_175246e.jpg'
p9441
sg4
(lp9442
(g15
g6
(g18
S'9\x04y?'
p9443
tp9444
Rp9445
tp9446
a(g68
g6
(g18
S'\tr\xa6<'
p9447
tp9448
Rp9449
tp9450
a(g56
g6
(g18
S'6\xaa\xb9;'
p9451
tp9452
Rp9453
tp9454
a(g32
g6
(g18
S'X\xa4\xd69'
p9455
tp9456
Rp9457
tp9458
a(g386
g6
(g18
S'\xd6\x84\xc29'
p9459
tp9460
Rp9461
tp9462
asg73
g15
sa(dp9463
g2
S'../../../data/emanuela/activity-recognition/images/NTCIR-Lifelog-256/u1/2015-03-06/b00000702_21i6bq_20150306_124512e.jpg'
p9464
sg4
(lp9465
(g15
g6
(g18
S'\xe0\xaew?'
p9466
tp9467
Rp9468
tp9469
a(g32
g6
(g18
S'\x9f%\xf6<'
p9470
tp9471
Rp9472
tp9473
a(g68
g6
(g18
S'\xfe`\x81:'
p9474
tp9475
Rp9476
tp9477
a(g139
g6
(g18
S'I\xbc\xfa9'
p9478
tp9479
Rp9480
tp9481
a(g44
g6
(g18
S'\xbc\xce\xb49'
p9482
tp9483
Rp9484
tp9485
asg73
g15
sa(dp9486
g2
S'../../../data/emanuela/activity-recognition/images/NTCIR-Lifelog-256/u3/2015-06-15/b00000042_21i79q_20150615_090418e.jpg'
p9487
sg4
(lp9488
(g15
g6
(g18
S'\xde\x85g?'
p9489
tp9490
Rp9491
tp9492
a(g68
g6
(g18
S'9gN='
p9493
tp9494
Rp9495
tp9496
a(g32
g6
(g18
S'V$\xe4<'
p9497
tp9498
Rp9499
tp9500
a(g108
g6
(g18
S'E\xb9\xaf;'
p9501
tp9502
Rp9503
tp9504
a(g44
g6
(g18
S'\xab\xcc\xab;'
p9505
tp9506
Rp9507
tp9508
asg73
g15
sa(dp9509
g2
S'../../../data/emanuela/activity-recognition/images/NTCIR-Lifelog-256/u2/2015-04-28/b00006779_21i7lf_20150428_135124e.jpg'
p9510
sg4
(lp9511
(g15
g6
(g18
S'$Sv?'
p9512
tp9513
Rp9514
tp9515
a(g68
g6
(g18
S'|\xbb\x8e<'
p9516
tp9517
Rp9518
tp9519
a(g32
g6
(g18
S'\xces\xe1;'
p9520
tp9521
Rp9522
tp9523
a(g56
g6
(g18
S'\x90\xfd\xcf;'
p9524
tp9525
Rp9526
tp9527
a(g328
g6
(g18
S'\xe7\xee\xa3;'
p9528
tp9529
Rp9530
tp9531
asg73
g15
sa(dp9532
g2
S'../../../data/emanuela/activity-recognition/images/NTCIR-Lifelog-256/u2/2015-04-20/b00000277_21i7lf_20150420_122443e.jpg'
p9533
sg4
(lp9534
(g386
g6
(g18
S'\x8b3\x18?'
p9535
tp9536
Rp9537
tp9538
a(g15
g6
(g18
S'\xfe\x88\xc2>'
p9539
tp9540
Rp9541
tp9542
a(g56
g6
(g18
S'\xd8\xd46<'
p9543
tp9544
Rp9545
tp9546
a(g255
g6
(g18
S'epX;'
p9547
tp9548
Rp9549
tp9550
a(g6836
g6
(g18
S'\x1d\x7f.;'
p9551
tp9552
Rp9553
tp9554
asg73
g15
sa(dp9555
g2
S'../../../data/emanuela/activity-recognition/images/NTCIR-Lifelog-256/u1/2015-02-27/b00000963_21i6bq_20150227_174428e.jpg'
p9556
sg4
(lp9557
(g15
g6
(g18
S'\xc7P\xa1>'
p9558
tp9559
Rp9560
tp9561
a(g108
g6
(g18
S'Q\x16P>'
p9562
tp9563
Rp9564
tp9565
a(g44
g6
(g18
S'#\x184>'
p9566
tp9567
Rp9568
tp9569
a(g68
g6
(g18
S"\xf7\x9f'>"
p9570
tp9571
Rp9572
tp9573
a(g32
g6
(g18
S'l\x86\xd7='
p9574
tp9575
Rp9576
tp9577
asg73
g15
sa(dp9578
g2
S'../../../data/emanuela/activity-recognition/images/NTCIR-Lifelog-256/u1/2015-02-27/b00000530_21i6bq_20150227_125036e.jpg'
p9579
sg4
(lp9580
(g15
g6
(g18
S'+\x10\xd5>'
p9581
tp9582
Rp9583
tp9584
a(g32
g6
(g18
S'$\x8f7>'
p9585
tp9586
Rp9587
tp9588
a(g68
g6
(g18
S'\xd3\x87\xe9='
p9589
tp9590
Rp9591
tp9592
a(g328
g6
(g18
S'A\xab\xc4='
p9593
tp9594
Rp9595
tp9596
a(g44
g6
(g18
S'\xcdR\x85='
p9597
tp9598
Rp9599
tp9600
asg73
g15
sa(dp9601
g2
S'../../../data/emanuela/activity-recognition/images/NTCIR-Lifelog-256/u2/2015-04-24/b00002273_21i7lf_20150424_124137e (1).jpg'
p9602
sg4
(lp9603
(g15
g6
(g18
S'M\xce\x11?'
p9604
tp9605
Rp9606
tp9607
a(g56
g6
(g18
S'\n\x07\xad>'
p9608
tp9609
Rp9610
tp9611
a(g794
g6
(g18
S'\xb5\xf7\xd3<'
p9612
tp9613
Rp9614
tp9615
a(g170
g6
(g18
S'_\x19w<'
p9616
tp9617
Rp9618
tp9619
a(g68
g6
(g18
S'k\xd6B<'
p9620
tp9621
Rp9622
tp9623
asg73
g15
sa(dp9624
g2
S'../../../data/emanuela/activity-recognition/images/NTCIR-Lifelog-256/u1/2015-03-06/b00000584_21i6bq_20150306_113536e.jpg'
p9625
sg4
(lp9626
(g15
g6
(g18
S'?\xa5w?'
p9627
tp9628
Rp9629
tp9630
a(g32
g6
(g18
S'F\xc4\xd4<'
p9631
tp9632
Rp9633
tp9634
a(g68
g6
(g18
S'\xbfza;'
p9635
tp9636
Rp9637
tp9638
a(g44
g6
(g18
S'\x99\x03{:'
p9639
tp9640
Rp9641
tp9642
a(g108
g6
(g18
S'\x1a=-:'
p9643
tp9644
Rp9645
tp9646
asg73
g15
sa(dp9647
g2
S'../../../data/emanuela/activity-recognition/images/NTCIR-Lifelog-256/u1/2015-03-05/b00001111_21i6bq_20150305_183256e.jpg'
p9648
sg4
(lp9649
(g15
g6
(g18
S'\xe4\xc8R?'
p9650
tp9651
Rp9652
tp9653
a(g32
g6
(g18
S'rO\x1d>'
p9654
tp9655
Rp9656
tp9657
a(g139
g6
(g18
S'D\xf7\x89<'
p9658
tp9659
Rp9660
tp9661
a(g239
g6
(g18
S'\x07m\x04;'
p9662
tp9663
Rp9664
tp9665
a(g68
g6
(g18
S'0U\xa3:'
p9666
tp9667
Rp9668
tp9669
asg73
g15
sa.