(lp0
(dp1
S'image'
p2
S'../../../data/emanuela/activity-recognition/images/NTCIR-Lifelog-256/u1/2015-03-17/b00001356_21i6bq_20150317_212421e.jpg'
p3
sS'result'
p4
(lp5
(cnumpy.core.multiarray
scalar
p6
(cnumpy
dtype
p7
(S'S5'
p8
I0
I1
tp9
Rp10
(I3
S'|'
p11
NNNI5
I1
I0
tp12
bS'plane'
p13
tp14
Rp15
g6
(g7
(S'f4'
p16
I0
I1
tp17
Rp18
(I3
S'<'
p19
NNNI-1
I-1
I0
tp20
bS'5&`?'
p21
tp22
Rp23
tp24
a(g6
(g7
(S'S7'
p25
I0
I1
tp26
Rp27
(I3
S'|'
p28
NNNI7
I1
I0
tp29
bS'reading'
p30
tp31
Rp32
g6
(g18
S'\x10\x84\xc7='
p33
tp34
Rp35
tp36
a(g6
(g7
(S'S16'
p37
I0
I1
tp38
Rp39
(I3
S'|'
p40
NNNI16
I1
I0
tp41
bS'public transport'
p42
tp43
Rp44
g6
(g18
S'\xd1\xcf\x80;'
p45
tp46
Rp47
tp48
a(g6
(g7
(S'S14'
p49
I0
I1
tp50
Rp51
(I3
S'|'
p52
NNNI14
I1
I0
tp53
bS'walking indoor'
p54
tp55
Rp56
g6
(g18
S'\x95T\x80;'
p57
tp58
Rp59
tp60
a(g6
(g7
(S'S7'
p61
I0
I1
tp62
Rp63
(I3
S'|'
p64
NNNI7
I1
I0
tp65
bS'driving'
p66
tp67
Rp68
g6
(g18
S'\x83\xb9x;'
p69
tp70
Rp71
tp72
asS'label'
p73
g15
sa(dp74
g2
S'../../../data/emanuela/activity-recognition/images/NTCIR-Lifelog-256/u1/2015-03-19/b00002499_21i6bq_20150319_170631e.jpg'
p75
sg4
(lp76
(g15
g6
(g18
S'V\x83s?'
p77
tp78
Rp79
tp80
a(g56
g6
(g18
S'\xa71\x07='
p81
tp82
Rp83
tp84
a(g32
g6
(g18
S'\x16\xc4\xbc;'
p85
tp86
Rp87
tp88
a(g44
g6
(g18
S'\xd2\xa8@;'
p89
tp90
Rp91
tp92
a(g6
(g7
(S'S7'
p93
I0
I1
tp94
Rp95
(I3
S'|'
p96
NNNI7
I1
I0
tp97
bS'working'
p98
tp99
Rp100
g6
(g18
S'\x99\xe9\xa3:'
p101
tp102
Rp103
tp104
asg73
g15
sa(dp105
g2
S'../../../data/emanuela/activity-recognition/images/NTCIR-Lifelog-256/u1/2015-03-17/b00001324_21i6bq_20150317_210550e.jpg'
p106
sg4
(lp107
(g15
g6
(g18
S'\xdd\xc1s?'
p108
tp109
Rp110
tp111
a(g32
g6
(g18
S'u\xfcZ<'
p112
tp113
Rp114
tp115
a(g44
g6
(g18
S'\x9e/U<'
p116
tp117
Rp118
tp119
a(g68
g6
(g18
S'gz\x06<'
p120
tp121
Rp122
tp123
a(g6
(g7
(S'S6'
p124
I0
I1
tp125
Rp126
(I3
S'|'
p127
NNNI6
I1
I0
tp128
bS'mobile'
p129
tp130
Rp131
g6
(g18
S'\x0ey\xba;'
p132
tp133
Rp134
tp135
asg73
g15
sa(dp136
g2
S'../../../data/emanuela/activity-recognition/images/NTCIR-Lifelog-256/u1/2015-03-16/b00002473_21i6bq_20150316_162505e.jpg'
p137
sg4
(lp138
(g15
g6
(g18
S'@\x83A?'
p139
tp140
Rp141
tp142
a(g32
g6
(g18
S'\xdd;\x08>'
p143
tp144
Rp145
tp146
a(g68
g6
(g18
S'\x9a]\x17='
p147
tp148
Rp149
tp150
a(g6
(g7
(S'S19'
p151
I0
I1
tp152
Rp153
(I3
S'|'
p154
NNNI19
I1
I0
tp155
bS'cleaning and chores'
p156
tp157
Rp158
g6
(g18
S'\xc1\xc0\xb5<'
p159
tp160
Rp161
tp162
a(g6
(g7
(S'S7'
p163
I0
I1
tp164
Rp165
(I3
S'|'
p166
NNNI7
I1
I0
tp167
bS'cooking'
p168
tp169
Rp170
g6
(g18
S'\xed\xef\x9a<'
p171
tp172
Rp173
tp174
asg73
g15
sa(dp175
g2
S'../../../data/emanuela/activity-recognition/images/NTCIR-Lifelog-256/u1/2015-03-16/b00002486_21i6bq_20150316_163228e.jpg'
p176
sg4
(lp177
(g15
g6
(g18
S'5\x9e:?'
p178
tp179
Rp180
tp181
a(g32
g6
(g18
S'\xfd\xc6+>'
p182
tp183
Rp184
tp185
a(g158
g6
(g18
S'\xeb\xbc\xe3<'
p186
tp187
Rp188
tp189
a(g170
g6
(g18
S'\x01^\xac<'
p190
tp191
Rp192
tp193
a(g68
g6
(g18
S'>\xf2\x99<'
p194
tp195
Rp196
tp197
asg73
g15
sa(dp198
g2
S'../../../data/emanuela/activity-recognition/images/NTCIR-Lifelog-256/u1/2015-03-19/b00002485_21i6bq_20150319_165757e.jpg'
p199
sg4
(lp200
(g15
g6
(g18
S'\xe4!\xdc>'
p201
tp202
Rp203
tp204
a(g131
g6
(g18
S'\xcb\x8c\xc0>'
p205
tp206
Rp207
tp208
a(g32
g6
(g18
S'\xfd\xa9\x8b='
p209
tp210
Rp211
tp212
a(g100
g6
(g18
S'\xd0\xf9l='
p213
tp214
Rp215
tp216
a(g44
g6
(g18
S'\xad\xe1\xc0<'
p217
tp218
Rp219
tp220
asg73
g15
sa(dp221
g2
S'../../../data/emanuela/activity-recognition/images/NTCIR-Lifelog-256/u3/2015-07-11/b00001378_21i79q_20150711_201434e.jpg'
p222
sg4
(lp223
(g15
g6
(g18
S'\xa4\xe0\x7f?'
p224
tp225
Rp226
tp227
a(g44
g6
(g18
S'+\xc8\xe99'
p228
tp229
Rp230
tp231
a(g56
g6
(g18
S'\xcfs\xc37'
p232
tp233
Rp234
tp235
a(g32
g6
(g18
S'\xd1\x91\xfd5'
p236
tp237
Rp238
tp239
a(g6
(g7
(S'S15'
p240
I0
I1
tp241
Rp242
(I3
S'|'
p243
NNNI15
I1
I0
tp244
bS'walking outdoor'
p245
tp246
Rp247
g6
(g18
S'\xc6\r\xcd5'
p248
tp249
Rp250
tp251
asg73
g15
sa(dp252
g2
S'../../../data/emanuela/activity-recognition/images/NTCIR-Lifelog-256/u2/2015-06-16/b00001858_21i7lf_20150616_230734e.jpg'
p253
sg4
(lp254
(g15
g6
(g18
S'\xa9D~?'
p255
tp256
Rp257
tp258
a(g44
g6
(g18
S'\x12\xff\xd4;'
p259
tp260
Rp261
tp262
a(g56
g6
(g18
S'\xa1\x94\xfd8'
p263
tp264
Rp265
tp266
a(g32
g6
(g18
S'\x13\xc8\x058'
p267
tp268
Rp269
tp270
a(g6
(g7
(S'S8'
p271
I0
I1
tp272
Rp273
(I3
S'|'
p274
NNNI8
I1
I0
tp275
bS'shopping'
p276
tp277
Rp278
g6
(g18
S'\xa0\xf0\xdc7'
p279
tp280
Rp281
tp282
asg73
g15
sa(dp283
g2
S'../../../data/emanuela/activity-recognition/images/NTCIR-Lifelog-256/u1/2015-03-19/b00002455_21i6bq_20150319_164026e.jpg'
p284
sg4
(lp285
(g15
g6
(g18
S'\xf6\xde}?'
p286
tp287
Rp288
tp289
a(g56
g6
(g18
S'uk8;'
p290
tp291
Rp292
tp293
a(g44
g6
(g18
S'\r\xf2\x1e;'
p294
tp295
Rp296
tp297
a(g32
g6
(g18
S'^F\xaf:'
p298
tp299
Rp300
tp301
a(g100
g6
(g18
S'\xa0\\T:'
p302
tp303
Rp304
tp305
asg73
g15
sa(dp306
g2
S'../../../data/emanuela/activity-recognition/images/NTCIR-Lifelog-256/u3/2015-07-11/b00001478_21i79q_20150711_211717e.jpg'
p307
sg4
(lp308
(g15
g6
(g18
S'\x88g~?'
p309
tp310
Rp311
tp312
a(g44
g6
(g18
S'L\x11\xc3;'
p313
tp314
Rp315
tp316
a(g56
g6
(g18
S'R\x01\xb38'
p317
tp318
Rp319
tp320
a(g6
(g7
(S'S24'
p321
I0
I1
tp322
Rp323
(I3
S'|'
p324
NNNI24
I1
I0
tp325
bS'having drinks/meal alone'
p326
tp327
Rp328
g6
(g18
S'q\x1c48'
p329
tp330
Rp331
tp332
a(g32
g6
(g18
S'\xbc\x95(8'
p333
tp334
Rp335
tp336
asg73
g15
sa(dp337
g2
S'../../../data/emanuela/activity-recognition/images/NTCIR-Lifelog-256/u1/2015-03-19/b00002328_21i6bq_20150319_150815e.jpg'
p338
sg4
(lp339
(g15
g6
(g18
S'\xfcF|?'
p340
tp341
Rp342
tp343
a(g32
g6
(g18
S'\xbe\xa3\x1c<'
p344
tp345
Rp346
tp347
a(g44
g6
(g18
S'c\x08\xdd:'
p348
tp349
Rp350
tp351
a(g131
g6
(g18
S'\xda\xdfm:'
p352
tp353
Rp354
tp355
a(g68
g6
(g18
S'5\x83T:'
p356
tp357
Rp358
tp359
asg73
g15
sa(dp360
g2
S'../../../data/emanuela/activity-recognition/images/NTCIR-Lifelog-256/u2/2015-06-16/b00001912_21i7lf_20150616_234033e.jpg'
p361
sg4
(lp362
(g15
g6
(g18
S'\xb2L{?'
p363
tp364
Rp365
tp366
a(g278
g6
(g18
S'\x9fs\n<'
p367
tp368
Rp369
tp370
a(g100
g6
(g18
S'\xa9\xa5\x92;'
p371
tp372
Rp373
tp374
a(g44
g6
(g18
S'\xde\n\x00;'
p375
tp376
Rp377
tp378
a(g56
g6
(g18
S'\x07?\xbb:'
p379
tp380
Rp381
tp382
asg73
g15
sa(dp383
g2
S'../../../data/emanuela/activity-recognition/images/NTCIR-Lifelog-256/u1/2015-03-17/b00001466_21i6bq_20150317_222231e.jpg'
p384
sg4
(lp385
(g15
g6
(g18
S'\xa6\xc4l?'
p386
tp387
Rp388
tp389
a(g32
g6
(g18
S'\xa6\xa0\xd2<'
p390
tp391
Rp392
tp393
a(g56
g6
(g18
S'\x02\xe4\xc7<'
p394
tp395
Rp396
tp397
a(g328
g6
(g18
S'\x8dT\xcb;'
p398
tp399
Rp400
tp401
a(g68
g6
(g18
S'*\x01\xa1;'
p402
tp403
Rp404
tp405
asg73
g15
sa(dp406
g2
S'../../../data/emanuela/activity-recognition/images/NTCIR-Lifelog-256/u2/2015-06-16/b00001848_21i7lf_20150616_230113e.jpg'
p407
sg4
(lp408
(g15
g6
(g18
S'k\xfau?'
p409
tp410
Rp411
tp412
a(g44
g6
(g18
S'(\x9a\x1d='
p413
tp414
Rp415
tp416
a(g56
g6
(g18
S'$>\x7f9'
p417
tp418
Rp419
tp420
a(g278
g6
(g18
S'=([9'
p421
tp422
Rp423
tp424
a(g32
g6
(g18
S'\xd2\xb4_8'
p425
tp426
Rp427
tp428
asg73
g15
sa(dp429
g2
S'../../../data/emanuela/activity-recognition/images/NTCIR-Lifelog-256/u3/2015-07-11/b00001251_21i79q_20150711_185647e.jpg'
p430
sg4
(lp431
(g15
g6
(g18
S'\x9c\xf9\x7f?'
p432
tp433
Rp434
tp435
a(g44
g6
(g18
S':\xcek8'
p436
tp437
Rp438
tp439
a(g32
g6
(g18
S'\xe2\x11\xec7'
p440
tp441
Rp442
tp443
a(g56
g6
(g18
S'F$\xbb6'
p444
tp445
Rp446
tp447
a(g278
g6
(g18
S'Nu-6'
p448
tp449
Rp450
tp451
asg73
g15
sa(dp452
g2
S'../../../data/emanuela/activity-recognition/images/NTCIR-Lifelog-256/u1/2015-03-19/b00002509_21i6bq_20150319_171253e.jpg'
p453
sg4
(lp454
(g15
g6
(g18
S'8~t?'
p455
tp456
Rp457
tp458
a(g56
g6
(g18
S'\xc5*\x95<'
p459
tp460
Rp461
tp462
a(g44
g6
(g18
S'yE\x16<'
p463
tp464
Rp465
tp466
a(g32
g6
(g18
S'-\x9d\x01<'
p467
tp468
Rp469
tp470
a(g131
g6
(g18
S'\xf1\xcf\x0e;'
p471
tp472
Rp473
tp474
asg73
g15
sa(dp475
g2
S'../../../data/emanuela/activity-recognition/images/NTCIR-Lifelog-256/u1/2015-03-19/b00002333_21i6bq_20150319_151102e.jpg'
p476
sg4
(lp477
(g15
g6
(g18
S'\xdc>y?'
p478
tp479
Rp480
tp481
a(g32
g6
(g18
S'\xe1\xac\xa1<'
p482
tp483
Rp484
tp485
a(g68
g6
(g18
S'%yb;'
p486
tp487
Rp488
tp489
a(g44
g6
(g18
S'\x86$\xb4:'
p490
tp491
Rp492
tp493
a(g131
g6
(g18
S'\xf0,\xf99'
p494
tp495
Rp496
tp497
asg73
g15
sa(dp498
g2
S'../../../data/emanuela/activity-recognition/images/NTCIR-Lifelog-256/u3/2015-07-11/b00001292_21i79q_20150711_191943e.jpg'
p499
sg4
(lp500
(g15
g6
(g18
S'\xe3\xdc\x7f?'
p501
tp502
Rp503
tp504
a(g44
g6
(g18
S'\x10\xc1\xdd9'
p505
tp506
Rp507
tp508
a(g56
g6
(g18
S'\x9f\nt8'
p509
tp510
Rp511
tp512
a(g32
g6
(g18
S'7\x1b\x0e8'
p513
tp514
Rp515
tp516
a(g100
g6
(g18
S'Q\xe1\xc46'
p517
tp518
Rp519
tp520
asg73
g15
sa(dp521
g2
S'../../../data/emanuela/activity-recognition/images/NTCIR-Lifelog-256/u1/2015-03-19/b00002233_21i6bq_20150319_141048e.jpg'
p522
sg4
(lp523
(g15
g6
(g18
S'C\xcc]?'
p524
tp525
Rp526
tp527
a(g32
g6
(g18
S'\xa7\xe8\xc5='
p528
tp529
Rp530
tp531
a(g278
g6
(g18
S'7\x067<'
p532
tp533
Rp534
tp535
a(g44
g6
(g18
S'\x80<3<'
p536
tp537
Rp538
tp539
a(g56
g6
(g18
S'\x8c\x85\xf1;'
p540
tp541
Rp542
tp543
asg73
g15
sa(dp544
g2
S'../../../data/emanuela/activity-recognition/images/NTCIR-Lifelog-256/u2/2015-06-16/b00001542_21i7lf_20150616_093224e.jpg'
p545
sg4
(lp546
(g15
g6
(g18
S'\x08d\xb9>'
p547
tp548
Rp549
tp550
a(g32
g6
(g18
S'\xbbGh>'
p551
tp552
Rp553
tp554
a(g158
g6
(g18
S'\x85j\xaf='
p555
tp556
Rp557
tp558
a(g328
g6
(g18
S'\xd1\x8e\xa8='
p559
tp560
Rp561
tp562
a(g68
g6
(g18
S'\xbfwR='
p563
tp564
Rp565
tp566
asg73
g15
sa(dp567
g2
S'../../../data/emanuela/activity-recognition/images/NTCIR-Lifelog-256/u3/2015-07-11/b00001549_21i79q_20150711_215640e.jpg'
p568
sg4
(lp569
(g15
g6
(g18
S'K\xf1\x7f?'
p570
tp571
Rp572
tp573
a(g44
g6
(g18
S'\xad\xcdR9'
p574
tp575
Rp576
tp577
a(g56
g6
(g18
S'\xcf[\x807'
p578
tp579
Rp580
tp581
a(g32
g6
(g18
S'\x94\xb2w6'
p582
tp583
Rp584
tp585
a(g68
g6
(g18
S'\x8a\x04\xe05'
p586
tp587
Rp588
tp589
asg73
g15
sa(dp590
g2
S'../../../data/emanuela/activity-recognition/images/NTCIR-Lifelog-256/u3/2015-07-11/b00001567_21i79q_20150711_220710e.jpg'
p591
sg4
(lp592
(g15
g6
(g18
S'\x10Br?'
p593
tp594
Rp595
tp596
a(g44
g6
(g18
S'q`T='
p597
tp598
Rp599
tp600
a(g56
g6
(g18
S'\x7f\x98/:'
p601
tp602
Rp603
tp604
a(g32
g6
(g18
S'C=\x0e:'
p605
tp606
Rp607
tp608
a(g328
g6
(g18
S']<+9'
p609
tp610
Rp611
tp612
asg73
g15
sa(dp613
g2
S'../../../data/emanuela/activity-recognition/images/NTCIR-Lifelog-256/u3/2015-07-11/b00001431_21i79q_20150711_204843e.jpg'
p614
sg4
(lp615
(g15
g6
(g18
S'\x89n\x7f?'
p616
tp617
Rp618
tp619
a(g44
g6
(g18
S'r-\n;'
p620
tp621
Rp622
tp623
a(g56
g6
(g18
S'\x12\x93\xc38'
p624
tp625
Rp626
tp627
a(g32
g6
(g18
S'bN\xa26'
p628
tp629
Rp630
tp631
a(g247
g6
(g18
S')\x11y6'
p632
tp633
Rp634
tp635
asg73
g15
sa(dp636
g2
S'../../../data/emanuela/activity-recognition/images/NTCIR-Lifelog-256/u3/2015-07-11/b00001560_21i79q_20150711_220302e.jpg'
p637
sg4
(lp638
(g15
g6
(g18
S'\x87\xdd\x7f?'
p639
tp640
Rp641
tp642
a(g44
g6
(g18
S'!\xf7\xf89'
p643
tp644
Rp645
tp646
a(g68
g6
(g18
S'^\x15\xb17'
p647
tp648
Rp649
tp650
a(g56
g6
(g18
S'Y\xaa\x857'
p651
tp652
Rp653
tp654
a(g247
g6
(g18
S'\t\xd4\xcc6'
p655
tp656
Rp657
tp658
asg73
g15
sa(dp659
g2
S'../../../data/emanuela/activity-recognition/images/NTCIR-Lifelog-256/u1/2015-03-16/b00002548_21i6bq_20150316_170734e.jpg'
p660
sg4
(lp661
(g15
g6
(g18
S'\xe8\x15\xf4>'
p662
tp663
Rp664
tp665
a(g6
(g7
(S'S27'
p666
I0
I1
tp667
Rp668
(I3
S'|'
p669
NNNI27
I1
I0
tp670
bS'having drinks with somebody'
p671
tp672
Rp673
g6
(g18
S'\xd1\xa3,>'
p674
tp675
Rp676
tp677
a(g328
g6
(g18
S'%\x92\xb1='
p678
tp679
Rp680
tp681
a(g278
g6
(g18
S'\xc6D\x91='
p682
tp683
Rp684
tp685
a(g44
g6
(g18
S't\xd9y='
p686
tp687
Rp688
tp689
asg73
g15
sa(dp690
g2
S'../../../data/emanuela/activity-recognition/images/NTCIR-Lifelog-256/u1/2015-03-17/b00001354_21i6bq_20150317_212319e.jpg'
p691
sg4
(lp692
(g15
g6
(g18
S'\x93\xb0x?'
p693
tp694
Rp695
tp696
a(g32
g6
(g18
S'\x17O\xbd<'
p697
tp698
Rp699
tp700
a(g100
g6
(g18
S'\xe1\xd9t;'
p701
tp702
Rp703
tp704
a(g56
g6
(g18
S'\xf6\xba\xc99'
p705
tp706
Rp707
tp708
a(g44
g6
(g18
S'4A\xaa9'
p709
tp710
Rp711
tp712
asg73
g15
sa(dp713
g2
S'../../../data/emanuela/activity-recognition/images/NTCIR-Lifelog-256/u1/2015-03-17/b00001453_21i6bq_20150317_221746e.jpg'
p714
sg4
(lp715
(g15
g6
(g18
S'\x8e(S?'
p716
tp717
Rp718
tp719
a(g32
g6
(g18
S'\xcb\xf0\xdb='
p720
tp721
Rp722
tp723
a(g56
g6
(g18
S'\x9d\xc1\x0c='
p724
tp725
Rp726
tp727
a(g68
g6
(g18
S'\x93\xcd><'
p728
tp729
Rp730
tp731
a(g328
g6
(g18
S'rVs;'
p732
tp733
Rp734
tp735
asg73
g15
sa(dp736
g2
S'../../../data/emanuela/activity-recognition/images/NTCIR-Lifelog-256/u2/2015-06-16/b00001801_21i7lf_20150616_153931e.jpg'
p737
sg4
(lp738
(g15
g6
(g18
S'\xf9\x93x?'
p739
tp740
Rp741
tp742
a(g44
g6
(g18
S'\xbat!<'
p743
tp744
Rp745
tp746
a(g100
g6
(g18
S'\xc9\xaa\xcb;'
p747
tp748
Rp749
tp750
a(g328
g6
(g18
S'O\xd3B;'
p751
tp752
Rp753
tp754
a(g56
g6
(g18
S'\x93\xbb\x07;'
p755
tp756
Rp757
tp758
asg73
g15
sa(dp759
g2
S'../../../data/emanuela/activity-recognition/images/NTCIR-Lifelog-256/u2/2015-06-16/b00001722_21i7lf_20150616_134534e.jpg'
p760
sg4
(lp761
(g15
g6
(g18
S'\xde\xc9p?'
p762
tp763
Rp764
tp765
a(g44
g6
(g18
S'\x95\x08m='
p766
tp767
Rp768
tp769
a(g32
g6
(g18
S'\x9b\xbe8:'
p770
tp771
Rp772
tp773
a(g100
g6
(g18
S'\xaeC\x03:'
p774
tp775
Rp776
tp777
a(g56
g6
(g18
S'\xc0Z(9'
p778
tp779
Rp780
tp781
asg73
g15
sa(dp782
g2
S'../../../data/emanuela/activity-recognition/images/NTCIR-Lifelog-256/u2/2015-06-16/b00001764_21i7lf_20150616_144545e.jpg'
p783
sg4
(lp784
(g15
g6
(g18
S'9\xff~?'
p785
tp786
Rp787
tp788
a(g44
g6
(g18
S'\x16qA;'
p789
tp790
Rp791
tp792
a(g32
g6
(g18
S'jf!:'
p793
tp794
Rp795
tp796
a(g68
g6
(g18
S'|:\xf48'
p797
tp798
Rp799
tp800
a(g56
g6
(g18
S'\xc3\t\xbe8'
p801
tp802
Rp803
tp804
asg73
g15
sa(dp805
g2
S'../../../data/emanuela/activity-recognition/images/NTCIR-Lifelog-256/u3/2015-07-11/b00001281_21i79q_20150711_191337e.jpg'
p806
sg4
(lp807
(g15
g6
(g18
S'\xdb\xf0\x7f?'
p808
tp809
Rp810
tp811
a(g44
g6
(g18
S'\x8a_M9'
p812
tp813
Rp814
tp815
a(g56
g6
(g18
S'\xb2\x02\x887'
p816
tp817
Rp818
tp819
a(g32
g6
(g18
S'}$=7'
p820
tp821
Rp822
tp823
a(g100
g6
(g18
S'\xf2\xaeS6'
p824
tp825
Rp826
tp827
asg73
g15
sa(dp828
g2
S'../../../data/emanuela/activity-recognition/images/NTCIR-Lifelog-256/u1/2015-03-19/b00002479_21i6bq_20150319_165432e.jpg'
p829
sg4
(lp830
(g15
g6
(g18
S'j$~?'
p831
tp832
Rp833
tp834
a(g56
g6
(g18
S'\x8c?(;'
p835
tp836
Rp837
tp838
a(g44
g6
(g18
S'W\x05$;'
p839
tp840
Rp841
tp842
a(g32
g6
(g18
S'u\xdbz:'
p843
tp844
Rp845
tp846
a(g100
g6
(g18
S'\x1f\r\x819'
p847
tp848
Rp849
tp850
asg73
g15
sa(dp851
g2
S'../../../data/emanuela/activity-recognition/images/NTCIR-Lifelog-256/u1/2015-03-17/b00001364_21i6bq_20150317_212921e.jpg'
p852
sg4
(lp853
(g15
g6
(g18
S'\xd1Ry?'
p854
tp855
Rp856
tp857
a(g32
g6
(g18
S'r\xd4\x8b<'
p858
tp859
Rp860
tp861
a(g44
g6
(g18
S'q\x10:;'
p862
tp863
Rp864
tp865
a(g56
g6
(g18
S'\xef^\xcd:'
p866
tp867
Rp868
tp869
a(g68
g6
(g18
S'lf\xba:'
p870
tp871
Rp872
tp873
asg73
g15
sa(dp874
g2
S'../../../data/emanuela/activity-recognition/images/NTCIR-Lifelog-256/u1/2015-03-16/b00002403_21i6bq_20150316_154222e.jpg'
p875
sg4
(lp876
(g32
g6
(g18
S'\xfa\xf8\x94>'
p877
tp878
Rp879
tp880
a(g15
g6
(g18
S'?\xc3\x93>'
p881
tp882
Rp883
tp884
a(g6
(g7
(S'S25'
p885
I0
I1
tp886
Rp887
(I3
S'|'
p888
NNNI25
I1
I0
tp889
bS'having meal with somebody'
p890
tp891
Rp892
g6
(g18
S'\x9a\xc5\xf8='
p893
tp894
Rp895
tp896
a(g68
g6
(g18
S'\r\xcd\xf0='
p897
tp898
Rp899
tp900
a(g328
g6
(g18
S'\xffox='
p901
tp902
Rp903
tp904
asg73
g15
sa(dp905
g2
S'../../../data/emanuela/activity-recognition/images/NTCIR-Lifelog-256/u3/2015-07-11/b00001320_21i79q_20150711_193549e.jpg'
p906
sg4
(lp907
(g15
g6
(g18
S'\xc4\x91\x7f?'
p908
tp909
Rp910
tp911
a(g44
g6
(g18
S'\xcb\x7f\xca:'
p912
tp913
Rp914
tp915
a(g56
g6
(g18
S'\x0c\x9d\xf18'
p916
tp917
Rp918
tp919
a(g32
g6
(g18
S'5b\xfd6'
p920
tp921
Rp922
tp923
a(g100
g6
(g18
S'\x84\xc6\xa06'
p924
tp925
Rp926
tp927
asg73
g15
sa(dp928
g2
S'../../../data/emanuela/activity-recognition/images/NTCIR-Lifelog-256/u2/2015-06-16/b00001822_21i7lf_20150616_224728e.jpg'
p929
sg4
(lp930
(g15
g6
(g18
S'L\x88|?'
p931
tp932
Rp933
tp934
a(g44
g6
(g18
S'\x9eYP<'
p935
tp936
Rp937
tp938
a(g56
g6
(g18
S'\x136\x999'
p939
tp940
Rp941
tp942
a(g278
g6
(g18
S'\xe8\x10B9'
p943
tp944
Rp945
tp946
a(g100
g6
(g18
S'\xeb\xff\x159'
p947
tp948
Rp949
tp950
asg73
g15
sa(dp951
g2
S'../../../data/emanuela/activity-recognition/images/NTCIR-Lifelog-256/u3/2015-07-11/b00001512_21i79q_20150711_213705e.jpg'
p952
sg4
(lp953
(g15
g6
(g18
S'A\xf1\x7f?'
p954
tp955
Rp956
tp957
a(g44
g6
(g18
S' \\\x059'
p958
tp959
Rp960
tp961
a(g56
g6
(g18
S'\xbb\xccG8'
p962
tp963
Rp964
tp965
a(g32
g6
(g18
S'r\xb1\r8'
p966
tp967
Rp968
tp969
a(g100
g6
(g18
S'=?\x916'
p970
tp971
Rp972
tp973
asg73
g15
sa(dp974
g2
S'../../../data/emanuela/activity-recognition/images/NTCIR-Lifelog-256/u2/2015-06-16/b00001576_21i7lf_20150616_095210e.jpg'
p975
sg4
(lp976
(g15
g6
(g18
S'k\xc8v?'
p977
tp978
Rp979
tp980
a(g32
g6
(g18
S'{\x1a\x08='
p981
tp982
Rp983
tp984
a(g68
g6
(g18
S'}\xc2\x8a:'
p985
tp986
Rp987
tp988
a(g131
g6
(g18
S'm\xe9\x08:'
p989
tp990
Rp991
tp992
a(g278
g6
(g18
S'\xf3\xf3\x869'
p993
tp994
Rp995
tp996
asg73
g15
sa(dp997
g2
S'../../../data/emanuela/activity-recognition/images/NTCIR-Lifelog-256/u2/2015-06-16/b00001604_21i7lf_20150616_100848e.jpg'
p998
sg4
(lp999
(g32
g6
(g18
S'gXz?'
p1000
tp1001
Rp1002
tp1003
a(g15
g6
(g18
S'\xeb\xfc\x88<'
p1004
tp1005
Rp1006
tp1007
a(g100
g6
(g18
S'3\x8e\x1c;'
p1008
tp1009
Rp1010
tp1011
a(g131
g6
(g18
S'\x18\x1b\x05:'
p1012
tp1013
Rp1014
tp1015
a(g44
g6
(g18
S'\x02 \x00:'
p1016
tp1017
Rp1018
tp1019
asg73
g15
sa(dp1020
g2
S'../../../data/emanuela/activity-recognition/images/NTCIR-Lifelog-256/u2/2015-06-16/b00001605_21i7lf_20150616_100929e.jpg'
p1021
sg4
(lp1022
(g32
g6
(g18
S'\xaf\xe5}?'
p1023
tp1024
Rp1025
tp1026
a(g15
g6
(g18
S'\xea4\xa9;'
p1027
tp1028
Rp1029
tp1030
a(g100
g6
(g18
S'DJ\xf1:'
p1031
tp1032
Rp1033
tp1034
a(g328
g6
(g18
S'\xccyd9'
p1035
tp1036
Rp1037
tp1038
a(g44
g6
(g18
S'\x8a\t\x169'
p1039
tp1040
Rp1041
tp1042
asg73
g15
sa(dp1043
g2
S'../../../data/emanuela/activity-recognition/images/NTCIR-Lifelog-256/u1/2015-03-19/b00002523_21i6bq_20150319_172226e.jpg'
p1044
sg4
(lp1045
(g15
g6
(g18
S'=\x06}?'
p1046
tp1047
Rp1048
tp1049
a(g56
g6
(g18
S'\xa0]\xe5;'
p1050
tp1051
Rp1052
tp1053
a(g44
g6
(g18
S'\xd5^\xbd:'
p1054
tp1055
Rp1056
tp1057
a(g32
g6
(g18
S'\xf9\xcb=:'
p1058
tp1059
Rp1060
tp1061
a(g100
g6
(g18
S'L(\xf79'
p1062
tp1063
Rp1064
tp1065
asg73
g15
sa(dp1066
g2
S'../../../data/emanuela/activity-recognition/images/NTCIR-Lifelog-256/u1/2015-03-19/b00002496_21i6bq_20150319_170434e.jpg'
p1067
sg4
(lp1068
(g15
g6
(g18
S'\xf2\x8c|?'
p1069
tp1070
Rp1071
tp1072
a(g56
g6
(g18
S'\xe6v\xec;'
p1073
tp1074
Rp1075
tp1076
a(g44
g6
(g18
S'n\xc97;'
p1077
tp1078
Rp1079
tp1080
a(g32
g6
(g18
S'\x95I\xb0:'
p1081
tp1082
Rp1083
tp1084
a(g68
g6
(g18
S'\x9a\x16\xdc9'
p1085
tp1086
Rp1087
tp1088
asg73
g15
sa(dp1089
g2
S'../../../data/emanuela/activity-recognition/images/NTCIR-Lifelog-256/u1/2015-03-08/b00000598_21i6bq_20150308_154006e.jpg'
p1090
sg4
(lp1091
(g15
g6
(g18
S'*\xce|?'
p1092
tp1093
Rp1094
tp1095
a(g32
g6
(g18
S'\x8a\n\x15<'
p1096
tp1097
Rp1098
tp1099
a(g68
g6
(g18
S'\xf68b:'
p1100
tp1101
Rp1102
tp1103
a(g131
g6
(g18
S'`\xbf\x0b:'
p1104
tp1105
Rp1106
tp1107
a(g56
g6
(g18
S'F\x83\x06:'
p1108
tp1109
Rp1110
tp1111
asg73
g15
sa(dp1112
g2
S'../../../data/emanuela/activity-recognition/images/NTCIR-Lifelog-256/u1/2015-03-19/b00002332_21i6bq_20150319_151031e.jpg'
p1113
sg4
(lp1114
(g15
g6
(g18
S'\xee\x10z?'
p1115
tp1116
Rp1117
tp1118
a(g32
g6
(g18
S'i\xea\x99<'
p1119
tp1120
Rp1121
tp1122
a(g44
g6
(g18
S'\x96\xba\xbe:'
p1123
tp1124
Rp1125
tp1126
a(g68
g6
(g18
S'\xe9\x98\x8b:'
p1127
tp1128
Rp1129
tp1130
a(g131
g6
(g18
S'I\x14\x1c:'
p1131
tp1132
Rp1133
tp1134
asg73
g15
sa(dp1135
g2
S'../../../data/emanuela/activity-recognition/images/NTCIR-Lifelog-256/u2/2015-06-16/b00001859_21i7lf_20150616_230807e.jpg'
p1136
sg4
(lp1137
(g15
g6
(g18
S'G=\x7f?'
p1138
tp1139
Rp1140
tp1141
a(g44
g6
(g18
S'\xc74:;'
p1142
tp1143
Rp1144
tp1145
a(g56
g6
(g18
S'u\x9a^8'
p1146
tp1147
Rp1148
tp1149
a(g32
g6
(g18
S'k\x8c\x028'
p1150
tp1151
Rp1152
tp1153
a(g278
g6
(g18
S'\x178V7'
p1154
tp1155
Rp1156
tp1157
asg73
g15
sa(dp1158
g2
S'../../../data/emanuela/activity-recognition/images/NTCIR-Lifelog-256/u1/2015-03-19/b00002315_21i6bq_20150319_150021e.jpg'
p1159
sg4
(lp1160
(g15
g6
(g18
S'!bw?'
p1161
tp1162
Rp1163
tp1164
a(g32
g6
(g18
S'\xc2\x9f\x98<'
p1165
tp1166
Rp1167
tp1168
a(g44
g6
(g18
S'"^\xfd;'
p1169
tp1170
Rp1171
tp1172
a(g131
g6
(g18
S'\x86MV;'
p1173
tp1174
Rp1175
tp1176
a(g56
g6
(g18
S'A:\xbd:'
p1177
tp1178
Rp1179
tp1180
asg73
g15
sa(dp1181
g2
S'../../../data/emanuela/activity-recognition/images/NTCIR-Lifelog-256/u1/2015-03-19/b00002137_21i6bq_20150319_125851e.jpg'
p1182
sg4
(lp1183
(g15
g6
(g18
S'\xec\x98\x7f?'
p1184
tp1185
Rp1186
tp1187
a(g32
g6
(g18
S'\xd4%\x9d:'
p1188
tp1189
Rp1190
tp1191
a(g44
g6
(g18
S'\x1b!=9'
p1192
tp1193
Rp1194
tp1195
a(g56
g6
(g18
S'\xd0\xca\xd78'
p1196
tp1197
Rp1198
tp1199
a(g170
g6
(g18
S'k\x13\xdc7'
p1200
tp1201
Rp1202
tp1203
asg73
g15
sa(dp1204
g2
S'../../../data/emanuela/activity-recognition/images/NTCIR-Lifelog-256/u3/2015-07-11/b00001438_21i79q_20150711_205340e.jpg'
p1205
sg4
(lp1206
(g15
g6
(g18
S'\xcd\xb4}?'
p1207
tp1208
Rp1209
tp1210
a(g44
g6
(g18
S'\xa9w\x04<'
p1211
tp1212
Rp1213
tp1214
a(g56
g6
(g18
S'\xfd\xc0\x11:'
p1215
tp1216
Rp1217
tp1218
a(g247
g6
(g18
S'\xb9=\x049'
p1219
tp1220
Rp1221
tp1222
a(g68
g6
(g18
S'\xa4Jw8'
p1223
tp1224
Rp1225
tp1226
asg73
g15
sa(dp1227
g2
S'../../../data/emanuela/activity-recognition/images/NTCIR-Lifelog-256/u1/2015-03-16/b00002387_21i6bq_20150316_153248e.jpg'
p1228
sg4
(lp1229
(g131
g6
(g18
S'\x97\x91\x12?'
p1230
tp1231
Rp1232
tp1233
a(g15
g6
(g18
S'qc\x85>'
p1234
tp1235
Rp1236
tp1237
a(g32
g6
(g18
S'\x81\x85\xc1='
p1238
tp1239
Rp1240
tp1241
a(g44
g6
(g18
S'\xf2U\xcc<'
p1242
tp1243
Rp1244
tp1245
a(g328
g6
(g18
S')}j<'
p1246
tp1247
Rp1248
tp1249
asg73
g15
sa(dp1250
g2
S'../../../data/emanuela/activity-recognition/images/NTCIR-Lifelog-256/u1/2015-03-19/b00002135_21i6bq_20150319_125744e.jpg'
p1251
sg4
(lp1252
(g15
g6
(g18
S'\x91\x81\x7f?'
p1253
tp1254
Rp1255
tp1256
a(g32
g6
(g18
S'\xf4&\xe4:'
p1257
tp1258
Rp1259
tp1260
a(g44
g6
(g18
S'S+\xa78'
p1261
tp1262
Rp1263
tp1264
a(g56
g6
(g18
S'\xcc\x86\x8b8'
p1265
tp1266
Rp1267
tp1268
a(g170
g6
(g18
S'0G>7'
p1269
tp1270
Rp1271
tp1272
asg73
g15
sa(dp1273
g2
S'../../../data/emanuela/activity-recognition/images/NTCIR-Lifelog-256/u1/2015-03-17/b00001385_21i6bq_20150317_214136e.jpg'
p1274
sg4
(lp1275
(g15
g6
(g18
S'\x03\x07c?'
p1276
tp1277
Rp1278
tp1279
a(g100
g6
(g18
S'$\xc2y='
p1280
tp1281
Rp1282
tp1283
a(g32
g6
(g18
S'\x8e\x01\x0f='
p1284
tp1285
Rp1286
tp1287
a(g131
g6
(g18
S'\xef\xed\x81;'
p1288
tp1289
Rp1290
tp1291
a(g56
g6
(g18
S'\xc8\xc7\x81;'
p1292
tp1293
Rp1294
tp1295
asg73
g15
sa(dp1296
g2
S'../../../data/emanuela/activity-recognition/images/NTCIR-Lifelog-256/u3/2015-07-11/b00001332_21i79q_20150711_194318e.jpg'
p1297
sg4
(lp1298
(g328
g6
(g18
S'\x0e?\xa7>'
p1299
tp1300
Rp1301
tp1302
a(g170
g6
(g18
S'\x06\xff,>'
p1303
tp1304
Rp1305
tp1306
a(g673
g6
(g18
S' \xd8\xfb='
p1307
tp1308
Rp1309
tp1310
a(g158
g6
(g18
S'}T\xcf='
p1311
tp1312
Rp1313
tp1314
a(g6
(g7
(S'S11'
p1315
I0
I1
tp1316
Rp1317
(I3
S'|'
p1318
NNNI11
I1
I0
tp1319
bS'socializing'
p1320
tp1321
Rp1322
g6
(g18
S'\x1co\x88='
p1323
tp1324
Rp1325
tp1326
asg73
g15
sa(dp1327
g2
S'../../../data/emanuela/activity-recognition/images/NTCIR-Lifelog-256/u3/2015-07-11/b00001328_21i79q_20150711_194045e.jpg'
p1328
sg4
(lp1329
(g15
g6
(g18
S'\xde\xad\x7f?'
p1330
tp1331
Rp1332
tp1333
a(g44
g6
(g18
S"\x86f':"
p1334
tp1335
Rp1336
tp1337
a(g56
g6
(g18
S'\xc3\t\xa39'
p1338
tp1339
Rp1340
tp1341
a(g32
g6
(g18
S'>\xdc\xc28'
p1342
tp1343
Rp1344
tp1345
a(g68
g6
(g18
S'\xc1\xecu8'
p1346
tp1347
Rp1348
tp1349
asg73
g15
sa(dp1350
g2
S'../../../data/emanuela/activity-recognition/images/NTCIR-Lifelog-256/u3/2015-07-11/b00001390_21i79q_20150711_202320e.jpg'
p1351
sg4
(lp1352
(g15
g6
(g18
S'\xab\xc5\x7f?'
p1353
tp1354
Rp1355
tp1356
a(g44
g6
(g18
S'i\xcaX:'
p1357
tp1358
Rp1359
tp1360
a(g56
g6
(g18
S'\x01\x89Y8'
p1361
tp1362
Rp1363
tp1364
a(g32
g6
(g18
S'|\xe5\xa16'
p1365
tp1366
Rp1367
tp1368
a(g247
g6
(g18
S'T\xe8\n6'
p1369
tp1370
Rp1371
tp1372
asg73
g15
sa(dp1373
g2
S'../../../data/emanuela/activity-recognition/images/NTCIR-Lifelog-256/u1/2015-03-17/b00001382_21i6bq_20150317_213943e.jpg'
p1374
sg4
(lp1375
(g6
(g7
(S'S7'
p1376
I0
I1
tp1377
Rp1378
(I3
S'|'
p1379
NNNI7
I1
I0
tp1380
bS'resting'
p1381
tp1382
Rp1383
g6
(g18
S'\x13\x99S?'
p1384
tp1385
Rp1386
tp1387
a(g32
g6
(g18
S'\x0e\\[='
p1388
tp1389
Rp1390
tp1391
a(g6
(g7
(S'S7'
p1392
I0
I1
tp1393
Rp1394
(I3
S'|'
p1395
NNNI7
I1
I0
tp1396
bS'talking'
p1397
tp1398
Rp1399
g6
(g18
S'k+4='
p1400
tp1401
Rp1402
tp1403
a(g131
g6
(g18
S'u:\xfb<'
p1404
tp1405
Rp1406
tp1407
a(g6
(g7
(S'S7'
p1408
I0
I1
tp1409
Rp1410
(I3
S'|'
p1411
NNNI7
I1
I0
tp1412
bS'meeting'
p1413
tp1414
Rp1415
g6
(g18
S'\xdf\xe4\x02<'
p1416
tp1417
Rp1418
tp1419
asg73
g15
sa(dp1420
g2
S'../../../data/emanuela/activity-recognition/images/NTCIR-Lifelog-256/u2/2015-06-16/b00001720_21i7lf_20150616_134353e.jpg'
p1421
sg4
(lp1422
(g15
g6
(g18
S'\x7foz?'
p1423
tp1424
Rp1425
tp1426
a(g44
g6
(g18
S'Z\x97\xa9<'
p1427
tp1428
Rp1429
tp1430
a(g32
g6
(g18
S'($\n:'
p1431
tp1432
Rp1433
tp1434
a(g131
g6
(g18
S'&\x14^9'
p1435
tp1436
Rp1437
tp1438
a(g56
g6
(g18
S'\x0cS\xd58'
p1439
tp1440
Rp1441
tp1442
asg73
g15
sa(dp1443
g2
S'../../../data/emanuela/activity-recognition/images/NTCIR-Lifelog-256/u3/2015-07-11/b00001401_21i79q_20150711_203025e.jpg'
p1444
sg4
(lp1445
(g15
g6
(g18
S'6x\x7f?'
p1446
tp1447
Rp1448
tp1449
a(g44
g6
(g18
S's\xee\x03;'
p1450
tp1451
Rp1452
tp1453
a(g56
g6
(g18
S',\x0b\x118'
p1454
tp1455
Rp1456
tp1457
a(g68
g6
(g18
S'\xdf\xc0\x187'
p1458
tp1459
Rp1460
tp1461
a(g247
g6
(g18
S'\x0bT\xec6'
p1462
tp1463
Rp1464
tp1465
asg73
g15
sa(dp1466
g2
S'../../../data/emanuela/activity-recognition/images/NTCIR-Lifelog-256/u2/2015-06-16/b00001857_21i7lf_20150616_230655e.jpg'
p1467
sg4
(lp1468
(g15
g6
(g18
S'\x9b\x12\x7f?'
p1469
tp1470
Rp1471
tp1472
a(g44
g6
(g18
S'\xad\xaca;'
p1473
tp1474
Rp1475
tp1476
a(g56
g6
(g18
S'\xf0\xce\x988'
p1477
tp1478
Rp1479
tp1480
a(g278
g6
(g18
S'\x17!\xd87'
p1481
tp1482
Rp1483
tp1484
a(g131
g6
(g18
S'[\xed\x9b7'
p1485
tp1486
Rp1487
tp1488
asg73
g15
sa(dp1489
g2
S'../../../data/emanuela/activity-recognition/images/NTCIR-Lifelog-256/u3/2015-07-11/b00001295_21i79q_20150711_192123e.jpg'
p1490
sg4
(lp1491
(g15
g6
(g18
S'"\xe8\x7f?'
p1492
tp1493
Rp1494
tp1495
a(g44
g6
(g18
S'\x9d\xd5\x8f9'
p1496
tp1497
Rp1498
tp1499
a(g32
g6
(g18
S'^l\x138'
p1500
tp1501
Rp1502
tp1503
a(g56
g6
(g18
S'\x91\x9e\x068'
p1504
tp1505
Rp1506
tp1507
a(g68
g6
(g18
S'\x14\xa6\x057'
p1508
tp1509
Rp1510
tp1511
asg73
g15
sa(dp1512
g2
S'../../../data/emanuela/activity-recognition/images/NTCIR-Lifelog-256/u3/2015-07-11/b00001474_21i79q_20150711_211515e.jpg'
p1513
sg4
(lp1514
(g15
g6
(g18
S'\x0ev\x7f?'
p1515
tp1516
Rp1517
tp1518
a(g44
g6
(g18
S'\xabq\x05;'
p1519
tp1520
Rp1521
tp1522
a(g68
g6
(g18
S'\x01\x06y7'
p1523
tp1524
Rp1525
tp1526
a(g56
g6
(g18
S'\x02\x01r7'
p1527
tp1528
Rp1529
tp1530
a(g278
g6
(g18
S'EPJ7'
p1531
tp1532
Rp1533
tp1534
asg73
g15
sa(dp1535
g2
S'../../../data/emanuela/activity-recognition/images/NTCIR-Lifelog-256/u3/2015-07-11/b00001434_21i79q_20150711_205035e.jpg'
p1536
sg4
(lp1537
(g15
g6
(g18
S'\tp\x7f?'
p1538
tp1539
Rp1540
tp1541
a(g44
g6
(g18
S'\xba\xc3\x06;'
p1542
tp1543
Rp1544
tp1545
a(g56
g6
(g18
S'\xee\xa4\xec8'
p1546
tp1547
Rp1548
tp1549
a(g32
g6
(g18
S'\xc9_\x157'
p1550
tp1551
Rp1552
tp1553
a(g278
g6
(g18
S'\xe4w\xcc6'
p1554
tp1555
Rp1556
tp1557
asg73
g15
sa(dp1558
g2
S'../../../data/emanuela/activity-recognition/images/NTCIR-Lifelog-256/u3/2015-07-11/b00001303_21i79q_20150711_192543e.jpg'
p1559
sg4
(lp1560
(g15
g6
(g18
S'\x14\xbf\x7f?'
p1561
tp1562
Rp1563
tp1564
a(g44
g6
(g18
S'\xdf\xffd:'
p1565
tp1566
Rp1567
tp1568
a(g56
g6
(g18
S'\x08\xc5?8'
p1569
tp1570
Rp1571
tp1572
a(g32
g6
(g18
S'\xcc-\x0c8'
p1573
tp1574
Rp1575
tp1576
a(g68
g6
(g18
S'\xfc\x8f`7'
p1577
tp1578
Rp1579
tp1580
asg73
g15
sa(dp1581
g2
S'../../../data/emanuela/activity-recognition/images/NTCIR-Lifelog-256/u1/2015-03-19/b00002521_21i6bq_20150319_172119e.jpg'
p1582
sg4
(lp1583
(g15
g6
(g18
S'<}{?'
p1584
tp1585
Rp1586
tp1587
a(g56
g6
(g18
S'qHN<'
p1588
tp1589
Rp1590
tp1591
a(g44
g6
(g18
S'\xd4\xd0\xc0:'
p1592
tp1593
Rp1594
tp1595
a(g32
g6
(g18
S'\x90\xd1\x87:'
p1596
tp1597
Rp1598
tp1599
a(g100
g6
(g18
S'\xbd\x06\xf39'
p1600
tp1601
Rp1602
tp1603
asg73
g15
sa(dp1604
g2
S'../../../data/emanuela/activity-recognition/images/NTCIR-Lifelog-256/u1/2015-03-19/b00002344_21i6bq_20150319_151730e.jpg'
p1605
sg4
(lp1606
(g15
g6
(g18
S'h\xe23?'
p1607
tp1608
Rp1609
tp1610
a(g32
g6
(g18
S'pg\xd5='
p1611
tp1612
Rp1613
tp1614
a(g44
g6
(g18
S'ko\x91='
p1615
tp1616
Rp1617
tp1618
a(g158
g6
(g18
S'G\x01\x19='
p1619
tp1620
Rp1621
tp1622
a(g56
g6
(g18
S'\xab\xa2\xa6<'
p1623
tp1624
Rp1625
tp1626
asg73
g15
sa(dp1627
g2
S'../../../data/emanuela/activity-recognition/images/NTCIR-Lifelog-256/u2/2015-06-16/b00001716_21i7lf_20150616_133813e.jpg'
p1628
sg4
(lp1629
(g15
g6
(g18
S'\xc1p|?'
p1630
tp1631
Rp1632
tp1633
a(g44
g6
(g18
S'\xedN]<'
p1634
tp1635
Rp1636
tp1637
a(g32
g6
(g18
S'g\xcaj9'
p1638
tp1639
Rp1640
tp1641
a(g56
g6
(g18
S'\x7f\xe8|8'
p1642
tp1643
Rp1644
tp1645
a(g131
g6
(g18
S'\xa7\xedF8'
p1646
tp1647
Rp1648
tp1649
asg73
g15
sa(dp1650
g2
S'../../../data/emanuela/activity-recognition/images/NTCIR-Lifelog-256/u3/2015-07-11/b00001462_21i79q_20150711_210814e.jpg'
p1651
sg4
(lp1652
(g15
g6
(g18
S'\xda{\x7f?'
p1653
tp1654
Rp1655
tp1656
a(g44
g6
(g18
S')<\xfd:'
p1657
tp1658
Rp1659
tp1660
a(g278
g6
(g18
S'\x86\x84\xd87'
p1661
tp1662
Rp1663
tp1664
a(g56
g6
(g18
S'\xfa\x93\x967'
p1665
tp1666
Rp1667
tp1668
a(g68
g6
(g18
S'\x1f\x83\x807'
p1669
tp1670
Rp1671
tp1672
asg73
g15
sa(dp1673
g2
S'../../../data/emanuela/activity-recognition/images/NTCIR-Lifelog-256/u1/2015-03-17/b00001443_21i6bq_20150317_221204e.jpg'
p1674
sg4
(lp1675
(g15
g6
(g18
S'*\xbc<?'
p1676
tp1677
Rp1678
tp1679
a(g44
g6
(g18
S'\xeen\xb7='
p1680
tp1681
Rp1682
tp1683
a(g32
g6
(g18
S'.\xc6O='
p1684
tp1685
Rp1686
tp1687
a(g56
g6
(g18
S'F\xb86='
p1688
tp1689
Rp1690
tp1691
a(g278
g6
(g18
S'\xfa\x1f$='
p1692
tp1693
Rp1694
tp1695
asg73
g15
sa(dp1696
g2
S'../../../data/emanuela/activity-recognition/images/NTCIR-Lifelog-256/u2/2015-06-16/b00001721_21i7lf_20150616_134406e.jpg'
p1697
sg4
(lp1698
(g15
g6
(g18
S'\xee\xd3}?'
p1699
tp1700
Rp1701
tp1702
a(g44
g6
(g18
S'\x00Z\x01<'
p1703
tp1704
Rp1705
tp1706
a(g32
g6
(g18
S'\xcd\x03i9'
p1707
tp1708
Rp1709
tp1710
a(g56
g6
(g18
S'!\xf3\x109'
p1711
tp1712
Rp1713
tp1714
a(g131
g6
(g18
S'mp\xad8'
p1715
tp1716
Rp1717
tp1718
asg73
g15
sa(dp1719
g2
S'../../../data/emanuela/activity-recognition/images/NTCIR-Lifelog-256/u3/2015-07-11/b00001559_21i79q_20150711_220229e.jpg'
p1720
sg4
(lp1721
(g15
g6
(g18
S'\x9da~?'
p1722
tp1723
Rp1724
tp1725
a(g44
g6
(g18
S'K\xa7\x89;'
p1726
tp1727
Rp1728
tp1729
a(g68
g6
(g18
S'9i\x99:'
p1730
tp1731
Rp1732
tp1733
a(g247
g6
(g18
S'jv\xb29'
p1734
tp1735
Rp1736
tp1737
a(g56
g6
(g18
S'sL\x909'
p1738
tp1739
Rp1740
tp1741
asg73
g15
sa(dp1742
g2
S'../../../data/emanuela/activity-recognition/images/NTCIR-Lifelog-256/u2/2015-06-16/b00001800_21i7lf_20150616_153753e.jpg'
p1743
sg4
(lp1744
(g15
g6
(g18
S'\x0f\xc2~?'
p1745
tp1746
Rp1747
tp1748
a(g44
g6
(g18
S'\xd4x\x94;'
p1749
tp1750
Rp1751
tp1752
a(g68
g6
(g18
S'\x00\x1669'
p1753
tp1754
Rp1755
tp1756
a(g32
g6
(g18
S'\x91\xbd\x7f8'
p1757
tp1758
Rp1759
tp1760
a(g56
g6
(g18
S'\xf0|\xf57'
p1761
tp1762
Rp1763
tp1764
asg73
g15
sa(dp1765
g2
S'../../../data/emanuela/activity-recognition/images/NTCIR-Lifelog-256/u2/2015-06-16/b00001884_21i7lf_20150616_232306e.jpg'
p1766
sg4
(lp1767
(g15
g6
(g18
S'\xb9\xe9|?'
p1768
tp1769
Rp1770
tp1771
a(g44
g6
(g18
S'\x82a\xd7;'
p1772
tp1773
Rp1774
tp1775
a(g32
g6
(g18
S'\x9b4\xea:'
p1776
tp1777
Rp1778
tp1779
a(g278
g6
(g18
S'\xa4\xd8\xb4:'
p1780
tp1781
Rp1782
tp1783
a(g56
g6
(g18
S'\x03\x1cV:'
p1784
tp1785
Rp1786
tp1787
asg73
g15
sa(dp1788
g2
S'../../../data/emanuela/activity-recognition/images/NTCIR-Lifelog-256/u3/2015-07-11/b00001370_21i79q_20150711_201007e.jpg'
p1789
sg4
(lp1790
(g15
g6
(g18
S'dpn?'
p1791
tp1792
Rp1793
tp1794
a(g44
g6
(g18
S'\xf1\xaar='
p1795
tp1796
Rp1797
tp1798
a(g56
g6
(g18
S'\xcc}\x8c;'
p1799
tp1800
Rp1801
tp1802
a(g68
g6
(g18
S'O:\x98:'
p1803
tp1804
Rp1805
tp1806
a(g278
g6
(g18
S'$\xb1x:'
p1807
tp1808
Rp1809
tp1810
asg73
g15
sa(dp1811
g2
S'../../../data/emanuela/activity-recognition/images/NTCIR-Lifelog-256/u2/2015-06-16/b00001739_21i7lf_20150616_141011e.jpg'
p1812
sg4
(lp1813
(g15
g6
(g18
S'Z\xe4~?'
p1814
tp1815
Rp1816
tp1817
a(g44
g6
(g18
S'J5\x84;'
p1818
tp1819
Rp1820
tp1821
a(g32
g6
(g18
S'uA>9'
p1822
tp1823
Rp1824
tp1825
a(g56
g6
(g18
S'y\xa6U8'
p1826
tp1827
Rp1828
tp1829
a(g131
g6
(g18
S'\\t\xbf7'
p1830
tp1831
Rp1832
tp1833
asg73
g15
sa(dp1834
g2
S'../../../data/emanuela/activity-recognition/images/NTCIR-Lifelog-256/u3/2015-07-11/b00001324_21i79q_20150711_193811e.jpg'
p1835
sg4
(lp1836
(g15
g6
(g18
S'\x02\xa3\x7f?'
p1837
tp1838
Rp1839
tp1840
a(g44
g6
(g18
S':\x07\x81:'
p1841
tp1842
Rp1843
tp1844
a(g68
g6
(g18
S'B\xbfq9'
p1845
tp1846
Rp1847
tp1848
a(g56
g6
(g18
S'\x89\x84\x998'
p1849
tp1850
Rp1851
tp1852
a(g247
g6
(g18
S'h*\x808'
p1853
tp1854
Rp1855
tp1856
asg73
g15
sa(dp1857
g2
S'../../../data/emanuela/activity-recognition/images/NTCIR-Lifelog-256/u1/2015-03-17/b00001325_21i6bq_20150317_210625e.jpg'
p1858
sg4
(lp1859
(g15
g6
(g18
S'\x0eru?'
p1860
tp1861
Rp1862
tp1863
a(g32
g6
(g18
S'/M\x8b<'
p1864
tp1865
Rp1866
tp1867
a(g68
g6
(g18
S'6\xfcn<'
p1868
tp1869
Rp1870
tp1871
a(g44
g6
(g18
S'\xcb\xfd9;'
p1872
tp1873
Rp1874
tp1875
a(g278
g6
(g18
S'\x1bI\xdd:'
p1876
tp1877
Rp1878
tp1879
asg73
g15
sa(dp1880
g2
S'../../../data/emanuela/activity-recognition/images/NTCIR-Lifelog-256/u2/2015-06-16/b00001566_21i7lf_20150616_094623e.jpg'
p1881
sg4
(lp1882
(g15
g6
(g18
S'N<\t?'
p1883
tp1884
Rp1885
tp1886
a(g32
g6
(g18
S'\x87B\xdb>'
p1887
tp1888
Rp1889
tp1890
a(g131
g6
(g18
S'c\x18I<'
p1891
tp1892
Rp1893
tp1894
a(g328
g6
(g18
S'z+\xdf;'
p1895
tp1896
Rp1897
tp1898
a(g170
g6
(g18
S'\xa6\x8d\x87;'
p1899
tp1900
Rp1901
tp1902
asg73
g15
sa(dp1903
g2
S'../../../data/emanuela/activity-recognition/images/NTCIR-Lifelog-256/u3/2015-07-11/b00001340_21i79q_20150711_195213e.jpg'
p1904
sg4
(lp1905
(g15
g6
(g18
S'1\xcb\x7f?'
p1906
tp1907
Rp1908
tp1909
a(g44
g6
(g18
S'\xb0\xce\t:'
p1910
tp1911
Rp1912
tp1913
a(g56
g6
(g18
S'\xfdM~9'
p1914
tp1915
Rp1916
tp1917
a(g100
g6
(g18
S'B\xd6?7'
p1918
tp1919
Rp1920
tp1921
a(g247
g6
(g18
S'&$\x107'
p1922
tp1923
Rp1924
tp1925
asg73
g15
sa(dp1926
g2
S'../../../data/emanuela/activity-recognition/images/NTCIR-Lifelog-256/u1/2015-03-16/b00002470_21i6bq_20150316_162318e.jpg'
p1927
sg4
(lp1928
(g15
g6
(g18
S'\x16\xdf\x16?'
p1929
tp1930
Rp1931
tp1932
a(g32
g6
(g18
S'\xb2"+>'
p1933
tp1934
Rp1935
tp1936
a(g170
g6
(g18
S'\xfb\x94a='
p1937
tp1938
Rp1939
tp1940
a(g158
g6
(g18
S'Kl`='
p1941
tp1942
Rp1943
tp1944
a(g892
g6
(g18
S'\xefd\x03='
p1945
tp1946
Rp1947
tp1948
asg73
g15
sa(dp1949
g2
S'../../../data/emanuela/activity-recognition/images/NTCIR-Lifelog-256/u3/2015-07-11/b00001479_21i79q_20150711_211747e.jpg'
p1950
sg4
(lp1951
(g15
g6
(g18
S'rm\x7f?'
p1952
tp1953
Rp1954
tp1955
a(g44
g6
(g18
S'\x1a\xa1\x0b;'
p1956
tp1957
Rp1958
tp1959
a(g56
g6
(g18
S'C\xd1j8'
p1960
tp1961
Rp1962
tp1963
a(g278
g6
(g18
S'\x90F;7'
p1964
tp1965
Rp1966
tp1967
a(g328
g6
(g18
S'l\x89\x1f7'
p1968
tp1969
Rp1970
tp1971
asg73
g15
sa(dp1972
g2
S'../../../data/emanuela/activity-recognition/images/NTCIR-Lifelog-256/u1/2015-03-19/b00002466_21i6bq_20150319_164659e.jpg'
p1973
sg4
(lp1974
(g15
g6
(g18
S'5fj?'
p1975
tp1976
Rp1977
tp1978
a(g131
g6
(g18
S'\xb8\xe4}='
p1979
tp1980
Rp1981
tp1982
a(g44
g6
(g18
S'K\xb5G<'
p1983
tp1984
Rp1985
tp1986
a(g56
g6
(g18
S'\x00\xa2\x90;'
p1987
tp1988
Rp1989
tp1990
a(g100
g6
(g18
S'\xd3S\xe0:'
p1991
tp1992
Rp1993
tp1994
asg73
g15
sa(dp1995
g2
S'../../../data/emanuela/activity-recognition/images/NTCIR-Lifelog-256/u3/2015-07-11/b00001272_21i79q_20150711_190850e.jpg'
p1996
sg4
(lp1997
(g15
g6
(g18
S'[\xed\x7f?'
p1998
tp1999
Rp2000
tp2001
a(g44
g6
(g18
S'\x1d\xb5\x809'
p2002
tp2003
Rp2004
tp2005
a(g56
g6
(g18
S'\xf5_\xbe7'
p2006
tp2007
Rp2008
tp2009
a(g32
g6
(g18
S'\x9f\xfb\xdd6'
p2010
tp2011
Rp2012
tp2013
a(g68
g6
(g18
S'3\xf9V6'
p2014
tp2015
Rp2016
tp2017
asg73
g15
sa(dp2018
g2
S'../../../data/emanuela/activity-recognition/images/NTCIR-Lifelog-256/u1/2015-03-19/b00002500_21i6bq_20150319_170708e.jpg'
p2019
sg4
(lp2020
(g15
g6
(g18
S'!\xd6{?'
p2021
tp2022
Rp2023
tp2024
a(g56
g6
(g18
S'\xa1k\xde;'
p2025
tp2026
Rp2027
tp2028
a(g44
g6
(g18
S'5\x81\x85;'
p2029
tp2030
Rp2031
tp2032
a(g32
g6
(g18
S'V\x13\n;'
p2033
tp2034
Rp2035
tp2036
a(g68
g6
(g18
S'P\xe7\x91:'
p2037
tp2038
Rp2039
tp2040
asg73
g15
sa(dp2041
g2
S'../../../data/emanuela/activity-recognition/images/NTCIR-Lifelog-256/u2/2015-06-16/b00001591_21i7lf_20150616_100053e.jpg'
p2042
sg4
(lp2043
(g15
g6
(g18
S'\x10\xe8|?'
p2044
tp2045
Rp2046
tp2047
a(g32
g6
(g18
S'~\xcf,<'
p2048
tp2049
Rp2050
tp2051
a(g68
g6
(g18
S'bc\x83:'
p2052
tp2053
Rp2054
tp2055
a(g131
g6
(g18
S'\x91E&9'
p2056
tp2057
Rp2058
tp2059
a(g278
g6
(g18
S'\x1c\xe4\x8f8'
p2060
tp2061
Rp2062
tp2063
asg73
g15
sa(dp2064
g2
S'../../../data/emanuela/activity-recognition/images/NTCIR-Lifelog-256/u2/2015-06-16/b00001584_21i7lf_20150616_095706e.jpg'
p2065
sg4
(lp2066
(g15
g6
(g18
S'\xa7\x972?'
p2067
tp2068
Rp2069
tp2070
a(g32
g6
(g18
S'\xbc@\x97>'
p2071
tp2072
Rp2073
tp2074
a(g131
g6
(g18
S"+\xcb';"
p2075
tp2076
Rp2077
tp2078
a(g68
g6
(g18
S'mV\xcc:'
p2079
tp2080
Rp2081
tp2082
a(g328
g6
(g18
S'J\x17\x1e:'
p2083
tp2084
Rp2085
tp2086
asg73
g15
sa(dp2087
g2
S'../../../data/emanuela/activity-recognition/images/NTCIR-Lifelog-256/u3/2015-07-11/b00001278_21i79q_20150711_191203e.jpg'
p2088
sg4
(lp2089
(g15
g6
(g18
S'\x0c\xda\x7f?'
p2090
tp2091
Rp2092
tp2093
a(g44
g6
(g18
S'\xef\r\x06:'
p2094
tp2095
Rp2096
tp2097
a(g56
g6
(g18
S'z+%8'
p2098
tp2099
Rp2100
tp2101
a(g32
g6
(g18
S'\x84g\x887'
p2102
tp2103
Rp2104
tp2105
a(g100
g6
(g18
S'P\x1a\x8b6'
p2106
tp2107
Rp2108
tp2109
asg73
g15
sa(dp2110
g2
S'../../../data/emanuela/activity-recognition/images/NTCIR-Lifelog-256/u3/2015-07-11/b00001520_21i79q_20150711_214109e.jpg'
p2111
sg4
(lp2112
(g15
g6
(g18
S'Z\xf7\x7f?'
p2113
tp2114
Rp2115
tp2116
a(g44
g6
(g18
S'\xf3I\xf68'
p2117
tp2118
Rp2119
tp2120
a(g56
g6
(g18
S'f\x16\xef6'
p2121
tp2122
Rp2123
tp2124
a(g32
g6
(g18
S'm\xde`6'
p2125
tp2126
Rp2127
tp2128
a(g100
g6
(g18
S'\xa1b\x915'
p2129
tp2130
Rp2131
tp2132
asg73
g15
sa(dp2133
g2
S'../../../data/emanuela/activity-recognition/images/NTCIR-Lifelog-256/u3/2015-07-11/b00001322_21i79q_20150711_193654e.jpg'
p2134
sg4
(lp2135
(g1322
g6
(g18
S'\xc8\x8d\xdd>'
p2136
tp2137
Rp2138
tp2139
a(g56
g6
(g18
S'\x1bTl>'
p2140
tp2141
Rp2142
tp2143
a(g6
(g7
(S'S19'
p2144
I0
I1
tp2145
Rp2146
(I3
S'|'
p2147
NNNI19
I1
I0
tp2148
bS'attending a seminar'
p2149
tp2150
Rp2151
g6
(g18
S'\x07\xc8V>'
p2152
tp2153
Rp2154
tp2155
a(g673
g6
(g18
S'\xcdQC='
p2156
tp2157
Rp2158
tp2159
a(g328
g6
(g18
S'\x040}<'
p2160
tp2161
Rp2162
tp2163
asg73
g15
sa(dp2164
g2
S'../../../data/emanuela/activity-recognition/images/NTCIR-Lifelog-256/u3/2015-07-11/b00001300_21i79q_20150711_192413e.jpg'
p2165
sg4
(lp2166
(g15
g6
(g18
S'\x05\xc7\x7f?'
p2167
tp2168
Rp2169
tp2170
a(g44
g6
(g18
S'\x12\x07I:'
p2171
tp2172
Rp2173
tp2174
a(g56
g6
(g18
S'\xc9V$8'
p2175
tp2176
Rp2177
tp2178
a(g32
g6
(g18
S'w\xa1\r8'
p2179
tp2180
Rp2181
tp2182
a(g68
g6
(g18
S'\x15"\xfb6'
p2183
tp2184
Rp2185
tp2186
asg73
g15
sa(dp2187
g2
S'../../../data/emanuela/activity-recognition/images/NTCIR-Lifelog-256/u1/2015-03-19/b00002260_21i6bq_20150319_142714e.jpg'
p2188
sg4
(lp2189
(g15
g6
(g18
S'_;u?'
p2190
tp2191
Rp2192
tp2193
a(g32
g6
(g18
S'\x0e\x88\xe8<'
p2194
tp2195
Rp2196
tp2197
a(g44
g6
(g18
S'_\x16\x1e<'
p2198
tp2199
Rp2200
tp2201
a(g278
g6
(g18
S'5\xfd\xa8:'
p2202
tp2203
Rp2204
tp2205
a(g56
g6
(g18
S'\xc23\xa8:'
p2206
tp2207
Rp2208
tp2209
asg73
g15
sa(dp2210
g2
S'../../../data/emanuela/activity-recognition/images/NTCIR-Lifelog-256/u3/2015-07-11/b00001257_21i79q_20150711_190022e.jpg'
p2211
sg4
(lp2212
(g15
g6
(g18
S'\xf4\xc8\x7f?'
p2213
tp2214
Rp2215
tp2216
a(g44
g6
(g18
S'*2J:'
p2217
tp2218
Rp2219
tp2220
a(g56
g6
(g18
S'(N\x0c8'
p2221
tp2222
Rp2223
tp2224
a(g32
g6
(g18
S'f\xeb[7'
p2225
tp2226
Rp2227
tp2228
a(g68
g6
(g18
S'\xb5\x8f\x047'
p2229
tp2230
Rp2231
tp2232
asg73
g15
sa(dp2233
g2
S'../../../data/emanuela/activity-recognition/images/NTCIR-Lifelog-256/u2/2015-06-16/b00001600_21i7lf_20150616_100620e.jpg'
p2234
sg4
(lp2235
(g32
g6
(g18
S'\xc7\x15\x7f?'
p2236
tp2237
Rp2238
tp2239
a(g15
g6
(g18
S'\xc3\xceN;'
p2240
tp2241
Rp2242
tp2243
a(g100
g6
(g18
S'yp\x179'
p2244
tp2245
Rp2246
tp2247
a(g131
g6
(g18
S'~1T8'
p2248
tp2249
Rp2250
tp2251
a(g892
g6
(g18
S'\x15\xef;8'
p2252
tp2253
Rp2254
tp2255
asg73
g15
sa(dp2256
g2
S'../../../data/emanuela/activity-recognition/images/NTCIR-Lifelog-256/u2/2015-06-16/b00001601_21i7lf_20150616_100657e.jpg'
p2257
sg4
(lp2258
(g32
g6
(g18
S'i}\x7f?'
p2259
tp2260
Rp2261
tp2262
a(g15
g6
(g18
S's\xa8\xdc:'
p2263
tp2264
Rp2265
tp2266
a(g100
g6
(g18
S'\xceMc8'
p2267
tp2268
Rp2269
tp2270
a(g892
g6
(g18
S'i\x98S8'
p2271
tp2272
Rp2273
tp2274
a(g68
g6
(g18
S'\x03\x9e\x138'
p2275
tp2276
Rp2277
tp2278
asg73
g15
sa(dp2279
g2
S'../../../data/emanuela/activity-recognition/images/NTCIR-Lifelog-256/u1/2015-03-17/b00001329_21i6bq_20150317_210852e.jpg'
p2280
sg4
(lp2281
(g15
g6
(g18
S'\xcb\x0b~?'
p2282
tp2283
Rp2284
tp2285
a(g44
g6
(g18
S'\t\x9eq;'
p2286
tp2287
Rp2288
tp2289
a(g56
g6
(g18
S'\x0f\xfa\r;'
p2290
tp2291
Rp2292
tp2293
a(g32
g6
(g18
S'\x96\xbaV:'
p2294
tp2295
Rp2296
tp2297
a(g68
g6
(g18
S'\x9e\x8d\xa99'
p2298
tp2299
Rp2300
tp2301
asg73
g15
sa(dp2302
g2
S'../../../data/emanuela/activity-recognition/images/NTCIR-Lifelog-256/u2/2015-06-16/b00001736_21i7lf_20150616_140548e.jpg'
p2303
sg4
(lp2304
(g15
g6
(g18
S'\xf3\xe1~?'
p2305
tp2306
Rp2307
tp2308
a(g44
g6
(g18
S'w\xd6Z;'
p2309
tp2310
Rp2311
tp2312
a(g32
g6
(g18
S'\xbc\xc8\xbb9'
p2313
tp2314
Rp2315
tp2316
a(g56
g6
(g18
S'\x98\xa2\x8f9'
p2317
tp2318
Rp2319
tp2320
a(g278
g6
(g18
S"\xb2'\xfa8"
p2321
tp2322
Rp2323
tp2324
asg73
g15
sa(dp2325
g2
S'../../../data/emanuela/activity-recognition/images/NTCIR-Lifelog-256/u3/2015-07-11/b00001483_21i79q_20150711_212008e.jpg'
p2326
sg4
(lp2327
(g15
g6
(g18
S'\xed\x80}?'
p2328
tp2329
Rp2330
tp2331
a(g44
g6
(g18
S'\x14\\\t<'
p2332
tp2333
Rp2334
tp2335
a(g56
g6
(g18
S'0\x15\x1d:'
p2336
tp2337
Rp2338
tp2339
a(g278
g6
(g18
S"\xaa'O9"
p2340
tp2341
Rp2342
tp2343
a(g100
g6
(g18
S'BwB9'
p2344
tp2345
Rp2346
tp2347
asg73
g15
sa(dp2348
g2
S'../../../data/emanuela/activity-recognition/images/NTCIR-Lifelog-256/u1/2015-03-17/b00001365_21i6bq_20150317_212952e.jpg'
p2349
sg4
(lp2350
(g15
g6
(g18
S'3wx?'
p2351
tp2352
Rp2353
tp2354
a(g32
g6
(g18
S'p\x05o<'
p2355
tp2356
Rp2357
tp2358
a(g100
g6
(g18
S'\x0bu\x0f<'
p2359
tp2360
Rp2361
tp2362
a(g44
g6
(g18
S'\x80J\xfb:'
p2363
tp2364
Rp2365
tp2366
a(g56
g6
(g18
S'j\x08\xb6:'
p2367
tp2368
Rp2369
tp2370
asg73
g15
sa(dp2371
g2
S'../../../data/emanuela/activity-recognition/images/NTCIR-Lifelog-256/u1/2015-03-19/b00002525_21i6bq_20150319_172329e.jpg'
p2372
sg4
(lp2373
(g15
g6
(g18
S'2~|?'
p2374
tp2375
Rp2376
tp2377
a(g56
g6
(g18
S'x;4<'
p2378
tp2379
Rp2380
tp2381
a(g44
g6
(g18
S'kb\xf8:'
p2382
tp2383
Rp2384
tp2385
a(g158
g6
(g18
S'\x9c\xee\x179'
p2386
tp2387
Rp2388
tp2389
a(g32
g6
(g18
S'\x0e\xab\n9'
p2390
tp2391
Rp2392
tp2393
asg73
g15
sa(dp2394
g2
S'../../../data/emanuela/activity-recognition/images/NTCIR-Lifelog-256/u2/2015-06-16/b00001686_21i7lf_20150616_131818e.jpg'
p2395
sg4
(lp2396
(g278
g6
(g18
S'L{(>'
p2397
tp2398
Rp2399
tp2400
a(g328
g6
(g18
S'a\xb7\x16>'
p2401
tp2402
Rp2403
tp2404
a(g673
g6
(g18
S'\x84\x15\x11>'
p2405
tp2406
Rp2407
tp2408
a(g170
g6
(g18
S'\x9b\xa4\xc0='
p2409
tp2410
Rp2411
tp2412
a(g56
g6
(g18
S'ay\xb6='
p2413
tp2414
Rp2415
tp2416
asg73
g15
sa(dp2417
g2
S'../../../data/emanuela/activity-recognition/images/NTCIR-Lifelog-256/u3/2015-07-11/b00001259_21i79q_20150711_190140e.jpg'
p2418
sg4
(lp2419
(g15
g6
(g18
S'\x87\xdb\x7f?'
p2420
tp2421
Rp2422
tp2423
a(g44
g6
(g18
S'=\xfe\xf89'
p2424
tp2425
Rp2426
tp2427
a(g56
g6
(g18
S'\x18y.8'
p2428
tp2429
Rp2430
tp2431
a(g32
g6
(g18
S'N!\x9e7'
p2432
tp2433
Rp2434
tp2435
a(g247
g6
(g18
S'\xf4\xbd\xa56'
p2436
tp2437
Rp2438
tp2439
asg73
g15
sa(dp2440
g2
S'../../../data/emanuela/activity-recognition/images/NTCIR-Lifelog-256/u1/2015-03-16/b00002391_21i6bq_20150316_153510e.jpg'
p2441
sg4
(lp2442
(g15
g6
(g18
S'!=\xc7>'
p2443
tp2444
Rp2445
tp2446
a(g131
g6
(g18
S'\xba\x00\x96>'
p2447
tp2448
Rp2449
tp2450
a(g32
g6
(g18
S'\xfd\x979>'
p2451
tp2452
Rp2453
tp2454
a(g44
g6
(g18
S'^\xb1\x08='
p2455
tp2456
Rp2457
tp2458
a(g328
g6
(g18
S'\xf3\xbd\x03='
p2459
tp2460
Rp2461
tp2462
asg73
g15
sa(dp2463
g2
S'../../../data/emanuela/activity-recognition/images/NTCIR-Lifelog-256/u1/2015-03-17/b00001316_21i6bq_20150317_205959e.jpg'
p2464
sg4
(lp2465
(g15
g6
(g18
S'\x9f\xa0}?'
p2466
tp2467
Rp2468
tp2469
a(g56
g6
(g18
S'\xb0\xf9d;'
p2470
tp2471
Rp2472
tp2473
a(g32
g6
(g18
S'\xc4_;;'
p2474
tp2475
Rp2476
tp2477
a(g44
g6
(g18
S'O/s:'
p2478
tp2479
Rp2480
tp2481
a(g68
g6
(g18
S'c\x8d.:'
p2482
tp2483
Rp2484
tp2485
asg73
g15
sa(dp2486
g2
S'../../../data/emanuela/activity-recognition/images/NTCIR-Lifelog-256/u2/2015-06-16/b00001690_21i7lf_20150616_132058e.jpg'
p2487
sg4
(lp2488
(g15
g6
(g18
S'\x00\x80\x7f?'
p2489
tp2490
Rp2491
tp2492
a(g44
g6
(g18
S'\x87\x08\xfd:'
p2493
tp2494
Rp2495
tp2496
a(g32
g6
(g18
S'\x97\x82\xe06'
p2497
tp2498
Rp2499
tp2500
a(g56
g6
(g18
S'\xf9\xbb\xb66'
p2501
tp2502
Rp2503
tp2504
a(g100
g6
(g18
S'\xa3\xdf\xad6'
p2505
tp2506
Rp2507
tp2508
asg73
g15
sa(dp2509
g2
S'../../../data/emanuela/activity-recognition/images/NTCIR-Lifelog-256/u3/2015-07-11/b00001357_21i79q_20150711_200121e.jpg'
p2510
sg4
(lp2511
(g15
g6
(g18
S'\x8f\xc6\x7f?'
p2512
tp2513
Rp2514
tp2515
a(g44
g6
(g18
S'\xad=Z:'
p2516
tp2517
Rp2518
tp2519
a(g56
g6
(g18
S'x\x91\xf87'
p2520
tp2521
Rp2522
tp2523
a(g32
g6
(g18
S'\x0e)\x007'
p2524
tp2525
Rp2526
tp2527
a(g247
g6
(g18
S'\xf7\x8b\x026'
p2528
tp2529
Rp2530
tp2531
asg73
g15
sa(dp2532
g2
S'../../../data/emanuela/activity-recognition/images/NTCIR-Lifelog-256/u1/2015-03-06/b00000111_21i6bq_20150306_062732e.jpg'
p2533
sg4
(lp2534
(g32
g6
(g18
S'\xfe\xd7\x01?'
p2535
tp2536
Rp2537
tp2538
a(g15
g6
(g18
S'cT\xb0>'
p2539
tp2540
Rp2541
tp2542
a(g1415
g6
(g18
S'(s"='
p2543
tp2544
Rp2545
tp2546
a(g1399
g6
(g18
S'\xbb\xa9\xa7<'
p2547
tp2548
Rp2549
tp2550
a(g68
g6
(g18
S'\xcb\xd2\x9b<'
p2551
tp2552
Rp2553
tp2554
asg73
g15
sa(dp2555
g2
S'../../../data/emanuela/activity-recognition/images/NTCIR-Lifelog-256/u1/2015-03-19/b00002141_21i6bq_20150319_130057e.jpg'
p2556
sg4
(lp2557
(g15
g6
(g18
S'i\xc5\x7f?'
p2558
tp2559
Rp2560
tp2561
a(g32
g6
(g18
S'\xc8\xfd&:'
p2562
tp2563
Rp2564
tp2565
a(g56
g6
(g18
S'\xd0\xc8\xff8'
p2566
tp2567
Rp2568
tp2569
a(g44
g6
(g18
S'w\xaa\x908'
p2570
tp2571
Rp2572
tp2573
a(g170
g6
(g18
S'S[\xfa7'
p2574
tp2575
Rp2576
tp2577
asg73
g15
sa(dp2578
g2
S'../../../data/emanuela/activity-recognition/images/NTCIR-Lifelog-256/u2/2015-06-16/b00001700_21i7lf_20150616_132650e.jpg'
p2579
sg4
(lp2580
(g15
g6
(g18
S'_q~?'
p2581
tp2582
Rp2583
tp2584
a(g44
g6
(g18
S'\xd5\xf7\xae;'
p2585
tp2586
Rp2587
tp2588
a(g56
g6
(g18
S':\x8c\r9'
p2589
tp2590
Rp2591
tp2592
a(g278
g6
(g18
S'\x1f\x9e\x089'
p2593
tp2594
Rp2595
tp2596
a(g32
g6
(g18
S'*\xc5\x019'
p2597
tp2598
Rp2599
tp2600
asg73
g15
sa(dp2601
g2
S'../../../data/emanuela/activity-recognition/images/NTCIR-Lifelog-256/u1/2015-03-08/b00000637_21i6bq_20150308_160213e.jpg'
p2602
sg4
(lp2603
(g15
g6
(g18
S'$]T?'
p2604
tp2605
Rp2606
tp2607
a(g32
g6
(g18
S'c]!>'
p2608
tp2609
Rp2610
tp2611
a(g170
g6
(g18
S'l{O;'
p2612
tp2613
Rp2614
tp2615
a(g44
g6
(g18
S'\x98\x9a#;'
p2616
tp2617
Rp2618
tp2619
a(g131
g6
(g18
S'\xa7\xc9\xbd:'
p2620
tp2621
Rp2622
tp2623
asg73
g15
sa(dp2624
g2
S'../../../data/emanuela/activity-recognition/images/NTCIR-Lifelog-256/u2/2015-06-16/b00001819_21i7lf_20150616_224727e.jpg'
p2625
sg4
(lp2626
(g15
g6
(g18
S'\xf78\x7f?'
p2627
tp2628
Rp2629
tp2630
a(g44
g6
(g18
S'}\xb1(;'
p2631
tp2632
Rp2633
tp2634
a(g100
g6
(g18
S'OiM9'
p2635
tp2636
Rp2637
tp2638
a(g56
g6
(g18
S'\x85:\xd88'
p2639
tp2640
Rp2641
tp2642
a(g278
g6
(g18
S'\xcc\xc9\xd68'
p2643
tp2644
Rp2645
tp2646
asg73
g15
sa(dp2647
g2
S'../../../data/emanuela/activity-recognition/images/NTCIR-Lifelog-256/u3/2015-07-11/b00001492_21i79q_20150711_212508e.jpg'
p2648
sg4
(lp2649
(g15
g6
(g18
S'\xf9\xb2\x7f?'
p2650
tp2651
Rp2652
tp2653
a(g44
g6
(g18
S'\x16C\x8d:'
p2654
tp2655
Rp2656
tp2657
a(g56
g6
(g18
S':\xf6X8'
p2658
tp2659
Rp2660
tp2661
a(g100
g6
(g18
S'P\xe9\x897'
p2662
tp2663
Rp2664
tp2665
a(g278
g6
(g18
S'(\x1f\x147'
p2666
tp2667
Rp2668
tp2669
asg73
g15
sa(dp2670
g2
S'../../../data/emanuela/activity-recognition/images/NTCIR-Lifelog-256/u1/2015-03-08/b00000639_21i6bq_20150308_160323e.jpg'
p2671
sg4
(lp2672
(g15
g6
(g18
S'\x1dAc?'
p2673
tp2674
Rp2675
tp2676
a(g32
g6
(g18
S'\xbbw\xb7='
p2677
tp2678
Rp2679
tp2680
a(g131
g6
(g18
S'\xc1\x94\x91;'
p2681
tp2682
Rp2683
tp2684
a(g56
g6
(g18
S'\xa0]\x8d;'
p2685
tp2686
Rp2687
tp2688
a(g170
g6
(g18
S'4jx;'
p2689
tp2690
Rp2691
tp2692
asg73
g15
sa(dp2693
g2
S'../../../data/emanuela/activity-recognition/images/NTCIR-Lifelog-256/u3/2015-07-11/b00001420_21i79q_20150711_204250e.jpg'
p2694
sg4
(lp2695
(g15
g6
(g18
S'\xf0\xb7\x7f?'
p2696
tp2697
Rp2698
tp2699
a(g44
g6
(g18
S'\xa0A\x0c:'
p2700
tp2701
Rp2702
tp2703
a(g56
g6
(g18
S'0Lv9'
p2704
tp2705
Rp2706
tp2707
a(g328
g6
(g18
S'\xe3+\x0b9'
p2708
tp2709
Rp2710
tp2711
a(g278
g6
(g18
S'\xd0\xc9\x8a8'
p2712
tp2713
Rp2714
tp2715
asg73
g15
sa(dp2716
g2
S'../../../data/emanuela/activity-recognition/images/NTCIR-Lifelog-256/u3/2015-07-11/b00001542_21i79q_20150711_215309e.jpg'
p2717
sg4
(lp2718
(g15
g6
(g18
S'M\xf1\x7f?'
p2719
tp2720
Rp2721
tp2722
a(g44
g6
(g18
S'\xea\xbd]9'
p2723
tp2724
Rp2725
tp2726
a(g56
g6
(g18
S'\xaa\xf9\xa76'
p2727
tp2728
Rp2729
tp2730
a(g68
g6
(g18
S'<v\x806'
p2731
tp2732
Rp2733
tp2734
a(g32
g6
(g18
S'g\x84.6'
p2735
tp2736
Rp2737
tp2738
asg73
g15
sa(dp2739
g2
S'../../../data/emanuela/activity-recognition/images/NTCIR-Lifelog-256/u3/2015-07-11/b00001288_21i79q_20150711_191733e.jpg'
p2740
sg4
(lp2741
(g15
g6
(g18
S'!\xe4\x7f?'
p2742
tp2743
Rp2744
tp2745
a(g44
g6
(g18
S'\x00\xf4\xb59'
p2746
tp2747
Rp2748
tp2749
a(g32
g6
(g18
S'Y\xcb\x078'
p2750
tp2751
Rp2752
tp2753
a(g56
g6
(g18
S'\xcb\x12\xf27'
p2754
tp2755
Rp2756
tp2757
a(g68
g6
(g18
S'\xef\xe8\xa56'
p2758
tp2759
Rp2760
tp2761
asg73
g15
sa(dp2762
g2
S'../../../data/emanuela/activity-recognition/images/NTCIR-Lifelog-256/u2/2015-06-16/b00001577_21i7lf_20150616_095251e.jpg'
p2763
sg4
(lp2764
(g15
g6
(g18
S'\xa9\xab{?'
p2765
tp2766
Rp2767
tp2768
a(g32
g6
(g18
S'\xbd\xc7g<'
p2769
tp2770
Rp2771
tp2772
a(g170
g6
(g18
S'2\xdb7:'
p2773
tp2774
Rp2775
tp2776
a(g158
g6
(g18
S'j\x9c5:'
p2777
tp2778
Rp2779
tp2780
a(g131
g6
(g18
S'M\xa9\xe89'
p2781
tp2782
Rp2783
tp2784
asg73
g15
sa(dp2785
g2
S'../../../data/emanuela/activity-recognition/images/NTCIR-Lifelog-256/u1/2015-03-16/b00002468_21i6bq_20150316_162216e.jpg'
p2786
sg4
(lp2787
(g15
g6
(g18
S'G\xedZ?'
p2788
tp2789
Rp2790
tp2791
a(g32
g6
(g18
S'#9\xb2='
p2792
tp2793
Rp2794
tp2795
a(g158
g6
(g18
S'R<:<'
p2796
tp2797
Rp2798
tp2799
a(g68
g6
(g18
S'\x86\x95.<'
p2800
tp2801
Rp2802
tp2803
a(g170
g6
(g18
S'\xb5\xbf\x13<'
p2804
tp2805
Rp2806
tp2807
asg73
g15
sa(dp2808
g2
S'../../../data/emanuela/activity-recognition/images/NTCIR-Lifelog-256/u2/2015-06-16/b00001916_21i7lf_20150616_234423e.jpg'
p2809
sg4
(lp2810
(g1415
g6
(g18
S'e\x97B?'
p2811
tp2812
Rp2813
tp2814
a(g1399
g6
(g18
S'\x91i\xba='
p2815
tp2816
Rp2817
tp2818
a(g673
g6
(g18
S'\x7f\xe3h='
p2819
tp2820
Rp2821
tp2822
a(g1322
g6
(g18
S'\xcb!\x04='
p2823
tp2824
Rp2825
tp2826
a(g56
g6
(g18
S"'o\x9c<"
p2827
tp2828
Rp2829
tp2830
asg73
g15
sa(dp2831
g2
S'../../../data/emanuela/activity-recognition/images/NTCIR-Lifelog-256/u2/2015-06-16/b00001574_21i7lf_20150616_095100e.jpg'
p2832
sg4
(lp2833
(g15
g6
(g18
S';L}?'
p2834
tp2835
Rp2836
tp2837
a(g32
g6
(g18
S'\xf5\xea\x13<'
p2838
tp2839
Rp2840
tp2841
a(g68
g6
(g18
S'H\xd8\x19:'
p2842
tp2843
Rp2844
tp2845
a(g328
g6
(g18
S'\x84\xcf\x869'
p2846
tp2847
Rp2848
tp2849
a(g131
g6
(g18
S's\xef}9'
p2850
tp2851
Rp2852
tp2853
asg73
g15
sa(dp2854
g2
S'../../../data/emanuela/activity-recognition/images/NTCIR-Lifelog-256/u2/2015-06-16/b00001760_21i7lf_20150616_144021e.jpg'
p2855
sg4
(lp2856
(g15
g6
(g18
S'LUu?'
p2857
tp2858
Rp2859
tp2860
a(g44
g6
(g18
S'\n0\xd7<'
p2861
tp2862
Rp2863
tp2864
a(g32
g6
(g18
S'l0\x10<'
p2865
tp2866
Rp2867
tp2868
a(g131
g6
(g18
S'\x08\x99\n;'
p2869
tp2870
Rp2871
tp2872
a(g68
g6
(g18
S'=\x83\xee:'
p2873
tp2874
Rp2875
tp2876
asg73
g15
sa(dp2877
g2
S'../../../data/emanuela/activity-recognition/images/NTCIR-Lifelog-256/u3/2015-07-11/b00001411_21i79q_20150711_203654e.jpg'
p2878
sg4
(lp2879
(g44
g6
(g18
S'X\x07\xb3>'
p2880
tp2881
Rp2882
tp2883
a(g15
g6
(g18
S'\x1b\xdf\x97>'
p2884
tp2885
Rp2886
tp2887
a(g56
g6
(g18
S'\x99\x17I>'
p2888
tp2889
Rp2890
tp2891
a(g278
g6
(g18
S'l\\\xfb<'
p2892
tp2893
Rp2894
tp2895
a(g247
g6
(g18
S'>`\xf0<'
p2896
tp2897
Rp2898
tp2899
asg73
g15
sa(dp2900
g2
S'../../../data/emanuela/activity-recognition/images/NTCIR-Lifelog-256/u1/2015-03-19/b00002491_21i6bq_20150319_170134e.jpg'
p2901
sg4
(lp2902
(g15
g6
(g18
S"'\xc3v?"
p2903
tp2904
Rp2905
tp2906
a(g56
g6
(g18
S'\xf7g\xbd<'
p2907
tp2908
Rp2909
tp2910
a(g44
g6
(g18
S'\x0f.m;'
p2911
tp2912
Rp2913
tp2914
a(g32
g6
(g18
S'\x1fua;'
p2915
tp2916
Rp2917
tp2918
a(g1383
g6
(g18
S'QW\x86:'
p2919
tp2920
Rp2921
tp2922
asg73
g15
sa(dp2923
g2
S'../../../data/emanuela/activity-recognition/images/NTCIR-Lifelog-256/u2/2015-06-16/b00001818_21i7lf_20150616_224544e.jpg'
p2924
sg4
(lp2925
(g15
g6
(g18
S',\xcb~?'
p2926
tp2927
Rp2928
tp2929
a(g44
g6
(g18
S'E\x13\x94;'
p2930
tp2931
Rp2932
tp2933
a(g278
g6
(g18
S'\x01\xa9\x868'
p2934
tp2935
Rp2936
tp2937
a(g56
g6
(g18
S'\xdd\xc8{8'
p2938
tp2939
Rp2940
tp2941
a(g100
g6
(g18
S'\xfdJ48'
p2942
tp2943
Rp2944
tp2945
asg73
g15
sa(dp2946
g2
S'../../../data/emanuela/activity-recognition/images/NTCIR-Lifelog-256/u3/2015-07-11/b00001280_21i79q_20150711_191307e.jpg'
p2947
sg4
(lp2948
(g15
g6
(g18
S'\xbd\xd6\x7f?'
p2949
tp2950
Rp2951
tp2952
a(g44
g6
(g18
S'F\xb4\x15:'
p2953
tp2954
Rp2955
tp2956
a(g56
g6
(g18
S'o\xdf\xda7'
p2957
tp2958
Rp2959
tp2960
a(g32
g6
(g18
S'\xc8\xcc\x827'
p2961
tp2962
Rp2963
tp2964
a(g68
g6
(g18
S'\xbb\x10\x067'
p2965
tp2966
Rp2967
tp2968
asg73
g15
sa(dp2969
g2
S'../../../data/emanuela/activity-recognition/images/NTCIR-Lifelog-256/u1/2015-03-19/b00002338_21i6bq_20150319_151406e.jpg'
p2970
sg4
(lp2971
(g15
g6
(g18
S'!\x93{?'
p2972
tp2973
Rp2974
tp2975
a(g44
g6
(g18
S'-\x04+<'
p2976
tp2977
Rp2978
tp2979
a(g32
g6
(g18
S'\xa8\\^;'
p2980
tp2981
Rp2982
tp2983
a(g68
g6
(g18
S'\x07\x8b\xa3:'
p2984
tp2985
Rp2986
tp2987
a(g56
g6
(g18
S'\xedl$:'
p2988
tp2989
Rp2990
tp2991
asg73
g15
sa(dp2992
g2
S'../../../data/emanuela/activity-recognition/images/NTCIR-Lifelog-256/u1/2015-03-19/b00002524_21i6bq_20150319_172300e.jpg'
p2993
sg4
(lp2994
(g56
g6
(g18
S'`d%?'
p2995
tp2996
Rp2997
tp2998
a(g15
g6
(g18
S'\x04t\x83>'
p2999
tp3000
Rp3001
tp3002
a(g1399
g6
(g18
S'\x14\xd2\x0e='
p3003
tp3004
Rp3005
tp3006
a(g44
g6
(g18
S' \xa4u<'
p3007
tp3008
Rp3009
tp3010
a(g1383
g6
(g18
S'\xec\xea\r<'
p3011
tp3012
Rp3013
tp3014
asg73
g15
sa(dp3015
g2
S'../../../data/emanuela/activity-recognition/images/NTCIR-Lifelog-256/u3/2015-07-11/b00001359_21i79q_20150711_200222e.jpg'
p3016
sg4
(lp3017
(g15
g6
(g18
S'[\xd0\x7f?'
p3018
tp3019
Rp3020
tp3021
a(g44
g6
(g18
S'_\xd11:'
p3022
tp3023
Rp3024
tp3025
a(g56
g6
(g18
S'\xaa\\\xcc7'
p3026
tp3027
Rp3028
tp3029
a(g68
g6
(g18
S'\x1bnL7'
p3030
tp3031
Rp3032
tp3033
a(g247
g6
(g18
S'\x87\x13\xa36'
p3034
tp3035
Rp3036
tp3037
asg73
g15
sa(dp3038
g2
S'../../../data/emanuela/activity-recognition/images/NTCIR-Lifelog-256/u1/2015-03-16/b00002489_21i6bq_20150316_163358e.jpg'
p3039
sg4
(lp3040
(g32
g6
(g18
S'\x95y\xe1>'
p3041
tp3042
Rp3043
tp3044
a(g15
g6
(g18
S'\x86\x94\n>'
p3045
tp3046
Rp3047
tp3048
a(g328
g6
(g18
S'\x08W\x02>'
p3049
tp3050
Rp3051
tp3052
a(g892
g6
(g18
S'l\xa0\xe2='
p3053
tp3054
Rp3055
tp3056
a(g170
g6
(g18
S'\x9b\x95\x95='
p3057
tp3058
Rp3059
tp3060
asg73
g15
sa(dp3061
g2
S'../../../data/emanuela/activity-recognition/images/NTCIR-Lifelog-256/u2/2015-06-16/b00001551_21i7lf_20150616_093738e.jpg'
p3062
sg4
(lp3063
(g15
g6
(g18
S'\x9a\x1bH?'
p3064
tp3065
Rp3066
tp3067
a(g32
g6
(g18
S'\x89\xadM>'
p3068
tp3069
Rp3070
tp3071
a(g131
g6
(g18
S'\xa7\x80b;'
p3072
tp3073
Rp3074
tp3075
a(g44
g6
(g18
S'\x0c\xe3!;'
p3076
tp3077
Rp3078
tp3079
a(g328
g6
(g18
S'\x90g\x16;'
p3080
tp3081
Rp3082
tp3083
asg73
g15
sa(dp3084
g2
S'../../../data/emanuela/activity-recognition/images/NTCIR-Lifelog-256/u2/2015-06-16/b00001581_21i7lf_20150616_095526e.jpg'
p3085
sg4
(lp3086
(g15
g6
(g18
S'\x98r,?'
p3087
tp3088
Rp3089
tp3090
a(g131
g6
(g18
S'\xc8\xc7I>'
p3091
tp3092
Rp3093
tp3094
a(g68
g6
(g18
S'k\xf1\\='
p3095
tp3096
Rp3097
tp3098
a(g32
g6
(g18
S'\xaa}/='
p3099
tp3100
Rp3101
tp3102
a(g328
g6
(g18
S'Hf\x15<'
p3103
tp3104
Rp3105
tp3106
asg73
g15
sa(dp3107
g2
S'../../../data/emanuela/activity-recognition/images/NTCIR-Lifelog-256/u1/2015-03-19/b00002487_21i6bq_20150319_165904e.jpg'
p3108
sg4
(lp3109
(g15
g6
(g18
S'\xbc\xbdw?'
p3110
tp3111
Rp3112
tp3113
a(g131
g6
(g18
S'JOr<'
p3114
tp3115
Rp3116
tp3117
a(g44
g6
(g18
S'\xb4\xbcL<'
p3118
tp3119
Rp3120
tp3121
a(g56
g6
(g18
S'\xa46\xde:'
p3122
tp3123
Rp3124
tp3125
a(g32
g6
(g18
S'\xa0]\x95:'
p3126
tp3127
Rp3128
tp3129
asg73
g15
sa(dp3130
g2
S'../../../data/emanuela/activity-recognition/images/NTCIR-Lifelog-256/u1/2015-03-16/b00002552_21i6bq_20150316_170736e.jpg'
p3131
sg4
(lp3132
(g15
g6
(g18
S'\x83z\xb7>'
p3133
tp3134
Rp3135
tp3136
a(g56
g6
(g18
S'Xm\xa0>'
p3137
tp3138
Rp3139
tp3140
a(g44
g6
(g18
S'}\xe2u='
p3141
tp3142
Rp3143
tp3144
a(g158
g6
(g18
S'\x1d\xe5U='
p3145
tp3146
Rp3147
tp3148
a(g328
g6
(g18
S'\x91\xcdM='
p3149
tp3150
Rp3151
tp3152
asg73
g15
sa(dp3153
g2
S'../../../data/emanuela/activity-recognition/images/NTCIR-Lifelog-256/u3/2015-07-11/b00001541_21i79q_20150711_215239e.jpg'
p3154
sg4
(lp3155
(g15
g6
(g18
S'b\xe0\x7f?'
p3156
tp3157
Rp3158
tp3159
a(g44
g6
(g18
S'\x96\xbd\xe89'
p3160
tp3161
Rp3162
tp3163
a(g68
g6
(g18
S'\x11\xd1\x877'
p3164
tp3165
Rp3166
tp3167
a(g56
g6
(g18
S'\xabv;7'
p3168
tp3169
Rp3170
tp3171
a(g32
g6
(g18
S'\xb8g\xab6'
p3172
tp3173
Rp3174
tp3175
asg73
g15
sa(dp3176
g2
S'../../../data/emanuela/activity-recognition/images/NTCIR-Lifelog-256/u2/2015-06-16/b00001802_21i7lf_20150616_154055e.jpg'
p3177
sg4
(lp3178
(g15
g6
(g18
S'\x11e}?'
p3179
tp3180
Rp3181
tp3182
a(g44
g6
(g18
S'\xff\x19\xf8;'
p3183
tp3184
Rp3185
tp3186
a(g100
g6
(g18
S'\xa4\x7f\x05:'
p3187
tp3188
Rp3189
tp3190
a(g131
g6
(g18
S'\x887\xe99'
p3191
tp3192
Rp3193
tp3194
a(g56
g6
(g18
S'\xaeT\xdb9'
p3195
tp3196
Rp3197
tp3198
asg73
g15
sa(dp3199
g2
S'../../../data/emanuela/activity-recognition/images/NTCIR-Lifelog-256/u2/2015-06-16/b00001696_21i7lf_20150616_132434e.jpg'
p3200
sg4
(lp3201
(g15
g6
(g18
S'\xadQ\x7f?'
p3202
tp3203
Rp3204
tp3205
a(g44
g6
(g18
S'\xd8t,;'
p3206
tp3207
Rp3208
tp3209
a(g100
g6
(g18
S'\xeb\xd8\xdd6'
p3210
tp3211
Rp3212
tp3213
a(g56
g6
(g18
S'\xb9\xa2\xb86'
p3214
tp3215
Rp3216
tp3217
a(g68
g6
(g18
S'\x19\xf1\x926'
p3218
tp3219
Rp3220
tp3221
asg73
g15
sa(dp3222
g2
S'../../../data/emanuela/activity-recognition/images/NTCIR-Lifelog-256/u3/2015-07-11/b00001502_21i79q_20150711_213110e.jpg'
p3223
sg4
(lp3224
(g15
g6
(g18
S'\xe1\xaf\x7f?'
p3225
tp3226
Rp3227
tp3228
a(g44
g6
(g18
S'\xd0\x94\x9b:'
p3229
tp3230
Rp3231
tp3232
a(g56
g6
(g18
S'm_\xaf7'
p3233
tp3234
Rp3235
tp3236
a(g32
g6
(g18
S'I\xbb\xa46'
p3237
tp3238
Rp3239
tp3240
a(g68
g6
(g18
S'\x19\xf1m6'
p3241
tp3242
Rp3243
tp3244
asg73
g15
sa(dp3245
g2
S'../../../data/emanuela/activity-recognition/images/NTCIR-Lifelog-256/u1/2015-03-17/b00001458_21i6bq_20150317_222033e.jpg'
p3246
sg4
(lp3247
(g15
g6
(g18
S'y$H?'
p3248
tp3249
Rp3250
tp3251
a(g32
g6
(g18
S'|\x96\x13>'
p3252
tp3253
Rp3254
tp3255
a(g56
g6
(g18
S'\x9ae\x12='
p3256
tp3257
Rp3258
tp3259
a(g68
g6
(g18
S'\x1d%y<'
p3260
tp3261
Rp3262
tp3263
a(g328
g6
(g18
S'\xad\xe3\xe0;'
p3264
tp3265
Rp3266
tp3267
asg73
g15
sa(dp3268
g2
S'../../../data/emanuela/activity-recognition/images/NTCIR-Lifelog-256/u3/2015-07-11/b00001503_21i79q_20150711_213140e.jpg'
p3269
sg4
(lp3270
(g15
g6
(g18
S'~z\x7f?'
p3271
tp3272
Rp3273
tp3274
a(g44
g6
(g18
S'\xc1\x90\x02;'
p3275
tp3276
Rp3277
tp3278
a(g56
g6
(g18
S'\x9b\xe5\xfd7'
p3279
tp3280
Rp3281
tp3282
a(g68
g6
(g18
S'\x97\xee\x8b6'
p3283
tp3284
Rp3285
tp3286
a(g32
g6
(g18
S'\x0b\xec\x856'
p3287
tp3288
Rp3289
tp3290
asg73
g15
sa(dp3291
g2
S'../../../data/emanuela/activity-recognition/images/NTCIR-Lifelog-256/u3/2015-07-11/b00001451_21i79q_20150711_210224e.jpg'
p3292
sg4
(lp3293
(g15
g6
(g18
S'\xa9\xa7\x7f?'
p3294
tp3295
Rp3296
tp3297
a(g44
g6
(g18
S'\xc6\x88\xab:'
p3298
tp3299
Rp3300
tp3301
a(g56
g6
(g18
S'+\x0e\xa87'
p3302
tp3303
Rp3304
tp3305
a(g100
g6
(g18
S'\x8c|\xd26'
p3306
tp3307
Rp3308
tp3309
a(g32
g6
(g18
S'\xca!\xa06'
p3310
tp3311
Rp3312
tp3313
asg73
g15
sa(dp3314
g2
S'../../../data/emanuela/activity-recognition/images/NTCIR-Lifelog-256/u3/2015-07-11/b00001330_21i79q_20150711_194208e.jpg'
p3315
sg4
(lp3316
(g328
g6
(g18
S'\x03\xc1\xbe>'
p3317
tp3318
Rp3319
tp3320
a(g673
g6
(g18
S'\xdd\xf5a>'
p3321
tp3322
Rp3323
tp3324
a(g892
g6
(g18
S'/\xc1\xe3='
p3325
tp3326
Rp3327
tp3328
a(g32
g6
(g18
S'2\x88\x9c='
p3329
tp3330
Rp3331
tp3332
a(g1415
g6
(g18
S'\x0f\xb7?='
p3333
tp3334
Rp3335
tp3336
asg73
g15
sa(dp3337
g2
S'../../../data/emanuela/activity-recognition/images/NTCIR-Lifelog-256/u1/2015-03-19/b00002456_21i6bq_20150319_164102e.jpg'
p3338
sg4
(lp3339
(g15
g6
(g18
S'\xb9\x1d~?'
p3340
tp3341
Rp3342
tp3343
a(g56
g6
(g18
S'\xdeI`;'
p3344
tp3345
Rp3346
tp3347
a(g32
g6
(g18
S'\xf5\xb7\xc2:'
p3348
tp3349
Rp3350
tp3351
a(g44
g6
(g18
S'\xb1\x8f\xb7:'
p3352
tp3353
Rp3354
tp3355
a(g100
g6
(g18
S'\x01\xd1\x829'
p3356
tp3357
Rp3358
tp3359
asg73
g15
sa(dp3360
g2
S'../../../data/emanuela/activity-recognition/images/NTCIR-Lifelog-256/u2/2015-06-16/b00001911_21i7lf_20150616_233958e.jpg'
p3361
sg4
(lp3362
(g15
g6
(g18
S'\x9e\xd5p?'
p3363
tp3364
Rp3365
tp3366
a(g278
g6
(g18
S'\xd4\xc7\xdf<'
p3367
tp3368
Rp3369
tp3370
a(g100
g6
(g18
S'"\xf8\x10<'
p3371
tp3372
Rp3373
tp3374
a(g56
g6
(g18
S'\xb1m\xe4;'
p3375
tp3376
Rp3377
tp3378
a(g44
g6
(g18
S'\xf6f|;'
p3379
tp3380
Rp3381
tp3382
asg73
g15
sa(dp3383
g2
S'../../../data/emanuela/activity-recognition/images/NTCIR-Lifelog-256/u1/2015-03-19/b00002145_21i6bq_20150319_130323e.jpg'
p3384
sg4
(lp3385
(g32
g6
(g18
S'\xd4w|?'
p3386
tp3387
Rp3388
tp3389
a(g15
g6
(g18
S'v\xc9\xad;'
p3390
tp3391
Rp3392
tp3393
a(g100
g6
(g18
S'\xb3\xe2\xa7;'
p3394
tp3395
Rp3396
tp3397
a(g1415
g6
(g18
S'`8m:'
p3398
tp3399
Rp3400
tp3401
a(g131
g6
(g18
S'AI::'
p3402
tp3403
Rp3404
tp3405
asg73
g15
sa(dp3406
g2
S'../../../data/emanuela/activity-recognition/images/NTCIR-Lifelog-256/u3/2015-07-11/b00001550_21i79q_20150711_215711e.jpg'
p3407
sg4
(lp3408
(g15
g6
(g18
S'x\xea\x7f?'
p3409
tp3410
Rp3411
tp3412
a(g44
g6
(g18
S'\xbe\xaa\x9b9'
p3413
tp3414
Rp3415
tp3416
a(g56
g6
(g18
S'*m\xc57'
p3417
tp3418
Rp3419
tp3420
a(g32
g6
(g18
S'\x12T{6'
p3421
tp3422
Rp3423
tp3424
a(g247
g6
(g18
S'\xa2n\xb35'
p3425
tp3426
Rp3427
tp3428
asg73
g15
sa(dp3429
g2
S'../../../data/emanuela/activity-recognition/images/NTCIR-Lifelog-256/u1/2015-03-19/b00002533_21i6bq_20150319_172800e.jpg'
p3430
sg4
(lp3431
(g15
g6
(g18
S'\x82\x01}?'
p3432
tp3433
Rp3434
tp3435
a(g56
g6
(g18
S'Z\xc7\xeb;'
p3436
tp3437
Rp3438
tp3439
a(g44
g6
(g18
S'O\x992;'
p3440
tp3441
Rp3442
tp3443
a(g32
g6
(g18
S'ap\x0b:'
p3444
tp3445
Rp3446
tp3447
a(g100
g6
(g18
S'd\xdfk9'
p3448
tp3449
Rp3450
tp3451
asg73
g15
sa(dp3452
g2
S'../../../data/emanuela/activity-recognition/images/NTCIR-Lifelog-256/u2/2015-06-16/b00001606_21i7lf_20150616_101004e.jpg'
p3453
sg4
(lp3454
(g15
g6
(g18
S'\xe6J\x15?'
p3455
tp3456
Rp3457
tp3458
a(g32
g6
(g18
S'\xe1n\xce>'
p3459
tp3460
Rp3461
tp3462
a(g170
g6
(g18
S'\xa8l\xa8;'
p3463
tp3464
Rp3465
tp3466
a(g158
g6
(g18
S'\x0f\\\x98;'
p3467
tp3468
Rp3469
tp3470
a(g278
g6
(g18
S'\x89\xe9\xa3:'
p3471
tp3472
Rp3473
tp3474
asg73
g15
sa(dp3475
g2
S'../../../data/emanuela/activity-recognition/images/NTCIR-Lifelog-256/u1/2015-03-19/b00002453_21i6bq_20150319_163915e.jpg'
p3476
sg4
(lp3477
(g15
g6
(g18
S'7Oc?'
p3478
tp3479
Rp3480
tp3481
a(g131
g6
(g18
S'\xe2\xa8\xc4='
p3482
tp3483
Rp3484
tp3485
a(g44
g6
(g18
S'\xeb\xe8\xe8;'
p3486
tp3487
Rp3488
tp3489
a(g100
g6
(g18
S'\xe9mM;'
p3490
tp3491
Rp3492
tp3493
a(g56
g6
(g18
S'y\xa2G;'
p3494
tp3495
Rp3496
tp3497
asg73
g15
sa(dp3498
g2
S'../../../data/emanuela/activity-recognition/images/NTCIR-Lifelog-256/u3/2015-07-11/b00001245_21i79q_20150711_185326e.jpg'
p3499
sg4
(lp3500
(g15
g6
(g18
S'\x12\xeb\x7f?'
p3501
tp3502
Rp3503
tp3504
a(g44
g6
(g18
S'\xc7">9'
p3505
tp3506
Rp3507
tp3508
a(g32
g6
(g18
S'\xdck^8'
p3509
tp3510
Rp3511
tp3512
a(g56
g6
(g18
S'{e\\8'
p3513
tp3514
Rp3515
tp3516
a(g278
g6
(g18
S'\x861S7'
p3517
tp3518
Rp3519
tp3520
asg73
g15
sa(dp3521
g2
S'../../../data/emanuela/activity-recognition/images/NTCIR-Lifelog-256/u2/2015-06-16/b00001815_21i7lf_20150616_224053e.jpg'
p3522
sg4
(lp3523
(g15
g6
(g18
S'GBx?'
p3524
tp3525
Rp3526
tp3527
a(g44
g6
(g18
S'\x8f\x1d\xd1<'
p3528
tp3529
Rp3530
tp3531
a(g56
g6
(g18
S'\xd7\xcd$;'
p3532
tp3533
Rp3534
tp3535
a(g100
g6
(g18
S'l(\x9c:'
p3536
tp3537
Rp3538
tp3539
a(g278
g6
(g18
S'\x06\xaa\xb19'
p3540
tp3541
Rp3542
tp3543
asg73
g15
sa(dp3544
g2
S'../../../data/emanuela/activity-recognition/images/NTCIR-Lifelog-256/u2/2015-06-16/b00001537_21i7lf_20150616_092909e.jpg'
p3545
sg4
(lp3546
(g56
g6
(g18
S'\x83xm>'
p3547
tp3548
Rp3549
tp3550
a(g278
g6
(g18
S'4\xe3U>'
p3551
tp3552
Rp3553
tp3554
a(g44
g6
(g18
S'\xb046>'
p3555
tp3556
Rp3557
tp3558
a(g892
g6
(g18
S'\x01\xb3\x8b='
p3559
tp3560
Rp3561
tp3562
a(g1399
g6
(g18
S'\xa6Sy='
p3563
tp3564
Rp3565
tp3566
asg73
g15
sa.