(lp0
(dp1
S'image'
p2
S'../../../data/emanuela/activity-recognition/images/NTCIR-Lifelog-256/u2/2015-05-08/b00008850_21i7lf_20150508_110703e.jpg'
p3
sS'result'
p4
(lp5
(cnumpy.core.multiarray
scalar
p6
(cnumpy
dtype
p7
(S'S7'
p8
I0
I1
tp9
Rp10
(I3
S'|'
p11
NNNI7
I1
I0
tp12
bS'cooking'
p13
tp14
Rp15
g6
(g7
(S'f4'
p16
I0
I1
tp17
Rp18
(I3
S'<'
p19
NNNI-1
I-1
I0
tp20
bS'\xbd\x03Y>'
p21
tp22
Rp23
tp24
a(g6
(g7
(S'S19'
p25
I0
I1
tp26
Rp27
(I3
S'|'
p28
NNNI19
I1
I0
tp29
bS'cleaning and chores'
p30
tp31
Rp32
g6
(g18
S'\x7fd7>'
p33
tp34
Rp35
tp36
a(g6
(g7
(S'S14'
p37
I0
I1
tp38
Rp39
(I3
S'|'
p40
NNNI14
I1
I0
tp41
bS'walking indoor'
p42
tp43
Rp44
g6
(g18
S'\xc9\xef\xe7='
p45
tp46
Rp47
tp48
a(g6
(g7
(S'S6'
p49
I0
I1
tp50
Rp51
(I3
S'|'
p52
NNNI6
I1
I0
tp53
bS'mobile'
p54
tp55
Rp56
g6
(g18
S'\x9a\x00\xc8='
p57
tp58
Rp59
tp60
a(g6
(g7
(S'S24'
p61
I0
I1
tp62
Rp63
(I3
S'|'
p64
NNNI24
I1
I0
tp65
bS'having drinks/meal alone'
p66
tp67
Rp68
g6
(g18
S'\x8e\xda\xaf='
p69
tp70
Rp71
tp72
asS'label'
p73
g44
sa(dp74
g2
S'../../../data/emanuela/activity-recognition/images/NTCIR-Lifelog-256/u1/2015-03-06/b00000039_21i6bq_20150306_054205e.jpg'
p75
sg4
(lp76
(g44
g6
(g18
S'\x886v?'
p77
tp78
Rp79
tp80
a(g6
(g7
(S'S16'
p81
I0
I1
tp82
Rp83
(I3
S'|'
p84
NNNI16
I1
I0
tp85
bS'public transport'
p86
tp87
Rp88
g6
(g18
S'\x81V\x06<'
p89
tp90
Rp91
tp92
a(g68
g6
(g18
S'\x1c\xf8\xde;'
p93
tp94
Rp95
tp96
a(g6
(g7
(S'S8'
p97
I0
I1
tp98
Rp99
(I3
S'|'
p100
NNNI8
I1
I0
tp101
bS'shopping'
p102
tp103
Rp104
g6
(g18
S'\xec\x94\xd1;'
p105
tp106
Rp107
tp108
a(g56
g6
(g18
S'^\x8d\x98;'
p109
tp110
Rp111
tp112
asg73
g44
sa(dp113
g2
S'../../../data/emanuela/activity-recognition/images/NTCIR-Lifelog-256/u2/2015-04-23/b00001346_21i7lf_20150423_153905e.jpg'
p114
sg4
(lp115
(g6
(g7
(S'S7'
p116
I0
I1
tp117
Rp118
(I3
S'|'
p119
NNNI7
I1
I0
tp120
bS'working'
p121
tp122
Rp123
g6
(g18
S'\x1f\x05\xbb>'
p124
tp125
Rp126
tp127
a(g32
g6
(g18
S'\x1e\xa9z>'
p128
tp129
Rp130
tp131
a(g68
g6
(g18
S'\xbd\x84\xaa='
p132
tp133
Rp134
tp135
a(g44
g6
(g18
S'\xbc\xa3\x85='
p136
tp137
Rp138
tp139
a(g15
g6
(g18
S'\xadZ\x84='
p140
tp141
Rp142
tp143
asg73
g44
sa(dp144
g2
S'../../../data/emanuela/activity-recognition/images/NTCIR-Lifelog-256/u2/2015-05-05/b00005067_21i7lf_20150505_085708e.jpg'
p145
sg4
(lp146
(g32
g6
(g18
S'?\xac\xf6>'
p147
tp148
Rp149
tp150
a(g15
g6
(g18
S'\x97\x83]>'
p151
tp152
Rp153
tp154
a(g44
g6
(g18
S'\xd1\x9b->'
p155
tp156
Rp157
tp158
a(g6
(g7
(S'S11'
p159
I0
I1
tp160
Rp161
(I3
S'|'
p162
NNNI11
I1
I0
tp163
bS'socializing'
p164
tp165
Rp166
g6
(g18
S'bow='
p167
tp168
Rp169
tp170
a(g104
g6
(g18
S'VW\x88<'
p171
tp172
Rp173
tp174
asg73
g44
sa(dp175
g2
S'../../../data/emanuela/activity-recognition/images/NTCIR-Lifelog-256/u2/2015-04-22/b00001314_21i7lf_20150422_115535e.jpg'
p176
sg4
(lp177
(g44
g6
(g18
S'b\x0cv?'
p178
tp179
Rp180
tp181
a(g6
(g7
(S'S7'
p182
I0
I1
tp183
Rp184
(I3
S'|'
p185
NNNI7
I1
I0
tp186
bS'talking'
p187
tp188
Rp189
g6
(g18
S'\xe7\xe1o<'
p190
tp191
Rp192
tp193
a(g6
(g7
(S'S7'
p194
I0
I1
tp195
Rp196
(I3
S'|'
p197
NNNI7
I1
I0
tp198
bS'meeting'
p199
tp200
Rp201
g6
(g18
S'\x11\xd8\xbf;'
p202
tp203
Rp204
tp205
a(g104
g6
(g18
S'\xfe\x83\xbe;'
p206
tp207
Rp208
tp209
a(g56
g6
(g18
S'0+`;'
p210
tp211
Rp212
tp213
asg73
g44
sa(dp214
g2
S'../../../data/emanuela/activity-recognition/images/NTCIR-Lifelog-256/u2/2015-05-06/b00006553_21i7lf_20150506_115648e.jpg'
p215
sg4
(lp216
(g44
g6
(g18
S'\xde^\x7f?'
p217
tp218
Rp219
tp220
a(g189
g6
(g18
S'6\xe3\xba:'
p221
tp222
Rp223
tp224
a(g6
(g7
(S'S15'
p225
I0
I1
tp226
Rp227
(I3
S'|'
p228
NNNI15
I1
I0
tp229
bS'walking outdoor'
p230
tp231
Rp232
g6
(g18
S'1R\xf89'
p233
tp234
Rp235
tp236
a(g104
g6
(g18
S'PNj9'
p237
tp238
Rp239
tp240
a(g88
g6
(g18
S'\x9a\x90\x948'
p241
tp242
Rp243
tp244
asg73
g44
sa(dp245
g2
S'../../../data/emanuela/activity-recognition/images/NTCIR-Lifelog-256/u1/2015-03-10/b00000095_21i6bq_20150310_134736e.jpg'
p246
sg4
(lp247
(g232
g6
(g18
S'l\xbc\x14?'
p248
tp249
Rp250
tp251
a(g166
g6
(g18
S'\x12\x04\x1c>'
p252
tp253
Rp254
tp255
a(g44
g6
(g18
S'j_\x87='
p256
tp257
Rp258
tp259
a(g32
g6
(g18
S'\xc8\x00<='
p260
tp261
Rp262
tp263
a(g6
(g7
(S'S6'
p264
I0
I1
tp265
Rp266
(I3
S'|'
p267
NNNI6
I1
I0
tp268
bS'biking'
p269
tp270
Rp271
g6
(g18
S'D/\xe0<'
p272
tp273
Rp274
tp275
asg73
g44
sa(dp276
g2
S'../../../data/emanuela/activity-recognition/images/NTCIR-Lifelog-256/u2/2015-04-24/b00001943_21i7lf_20150424_091746e.jpg'
p277
sg4
(lp278
(g44
g6
(g18
S'\xd02P?'
p279
tp280
Rp281
tp282
a(g6
(g7
(S'S19'
p283
I0
I1
tp284
Rp285
(I3
S'|'
p286
NNNI19
I1
I0
tp287
bS'attending a seminar'
p288
tp289
Rp290
g6
(g18
S'\xc9\xc7\xbe='
p291
tp292
Rp293
tp294
a(g104
g6
(g18
S'\x8e\xd8\xce<'
p295
tp296
Rp297
tp298
a(g68
g6
(g18
S'\x18\xe6\xae<'
p299
tp300
Rp301
tp302
a(g166
g6
(g18
S'\xe7tC<'
p303
tp304
Rp305
tp306
asg73
g44
sa(dp307
g2
S'../../../data/emanuela/activity-recognition/images/NTCIR-Lifelog-256/u3/2015-07-11/b00001589_21i79q_20150711_221954e.jpg'
p308
sg4
(lp309
(g44
g6
(g18
S'\xc1~w?'
p310
tp311
Rp312
tp313
a(g232
g6
(g18
S':\x88\xbc<'
p314
tp315
Rp316
tp317
a(g68
g6
(g18
S'\xf2\x7f\x0f;'
p318
tp319
Rp320
tp321
a(g56
g6
(g18
S'\x1bC\xb3:'
p322
tp323
Rp324
tp325
a(g104
g6
(g18
S'~v\xa5:'
p326
tp327
Rp328
tp329
asg73
g44
sa(dp330
g2
S'../../../data/emanuela/activity-recognition/images/NTCIR-Lifelog-256/u1/2015-03-12/b00000974_21i6bq_20150312_180250e.jpg'
p331
sg4
(lp332
(g44
g6
(g18
S'\xa6j{?'
p333
tp334
Rp335
tp336
a(g189
g6
(g18
S'\xc6\xab(<'
p337
tp338
Rp339
tp340
a(g6
(g7
(S'S7'
p341
I0
I1
tp342
Rp343
(I3
S'|'
p344
NNNI7
I1
I0
tp345
bS'resting'
p346
tp347
Rp348
g6
(g18
S'\xb27\n;'
p349
tp350
Rp351
tp352
a(g232
g6
(g18
S'\x8c\\\xda:'
p353
tp354
Rp355
tp356
a(g290
g6
(g18
S'\xc5\xc93:'
p357
tp358
Rp359
tp360
asg73
g44
sa(dp361
g2
S'../../../data/emanuela/activity-recognition/images/NTCIR-Lifelog-256/u3/2015-07-11/b00001593_21i79q_20150711_222224e.jpg'
p362
sg4
(lp363
(g56
g6
(g18
S'J\r\xf2>'
p364
tp365
Rp366
tp367
a(g44
g6
(g18
S'\xfd\xaaL>'
p368
tp369
Rp370
tp371
a(g68
g6
(g18
S'&\xc4\xd3='
p372
tp373
Rp374
tp375
a(g189
g6
(g18
S'\xe6\x18\xcc='
p376
tp377
Rp378
tp379
a(g348
g6
(g18
S'rl|='
p380
tp381
Rp382
tp383
asg73
g44
sa(dp384
g2
S'../../../data/emanuela/activity-recognition/images/NTCIR-Lifelog-256/u1/2015-02-23/b00000112_21i6bq_20150223_081201e.jpg'
p385
sg4
(lp386
(g44
g6
(g18
S'\x9e#\x15?'
p387
tp388
Rp389
tp390
a(g104
g6
(g18
S'\xf6\x1b\xbd='
p391
tp392
Rp393
tp394
a(g123
g6
(g18
S'\x87R\x83='
p395
tp396
Rp397
tp398
a(g68
g6
(g18
S'S\x82a='
p399
tp400
Rp401
tp402
a(g32
g6
(g18
S'Q\xe6R='
p403
tp404
Rp405
tp406
asg73
g44
sa(dp407
g2
S'../../../data/emanuela/activity-recognition/images/NTCIR-Lifelog-256/u1/2015-03-06/b00000046_21i6bq_20150306_054325e.jpg'
p408
sg4
(lp409
(g44
g6
(g18
S'~iy?'
p410
tp411
Rp412
tp413
a(g104
g6
(g18
S'\x82\x1b\x18<'
p414
tp415
Rp416
tp417
a(g56
g6
(g18
S'\xa8ZP;'
p418
tp419
Rp420
tp421
a(g348
g6
(g18
S'KS\x19;'
p422
tp423
Rp424
tp425
a(g32
g6
(g18
S'\xdcq\x0c;'
p426
tp427
Rp428
tp429
asg73
g44
sa(dp430
g2
S'../../../data/emanuela/activity-recognition/images/NTCIR-Lifelog-256/u1/2015-03-18/b00000886_21i6bq_20150318_172505e.jpg'
p431
sg4
(lp432
(g44
g6
(g18
S'&K\xe8>'
p433
tp434
Rp435
tp436
a(g32
g6
(g18
S'\x98\xe7<>'
p437
tp438
Rp439
tp440
a(g15
g6
(g18
S')\x10\x0f>'
p441
tp442
Rp443
tp444
a(g348
g6
(g18
S'\xdb\xb3\xf0='
p445
tp446
Rp447
tp448
a(g88
g6
(g18
S'\x1b@\xcb<'
p449
tp450
Rp451
tp452
asg73
g44
sa(dp453
g2
S'../../../data/emanuela/activity-recognition/images/NTCIR-Lifelog-256/u2/2015-05-01/b00001846_21i7lf_20150501_094742e.jpg'
p454
sg4
(lp455
(g44
g6
(g18
S'\xd3\xedy?'
p456
tp457
Rp458
tp459
a(g348
g6
(g18
S'\x8b%J<'
p460
tp461
Rp462
tp463
a(g189
g6
(g18
S'\xc5\xf9\xf6;'
p464
tp465
Rp466
tp467
a(g232
g6
(g18
S'f\xe8\xe8:'
p468
tp469
Rp470
tp471
a(g290
g6
(g18
S'\xdd\xd4.:'
p472
tp473
Rp474
tp475
asg73
g44
sa(dp476
g2
S'../../../data/emanuela/activity-recognition/images/NTCIR-Lifelog-256/u3/2015-07-11/b00001190_21i79q_20150711_182008e.jpg'
p477
sg4
(lp478
(g44
g6
(g18
S'\x1b\xa7j?'
p479
tp480
Rp481
tp482
a(g232
g6
(g18
S'\x9c\x85\xfd<'
p483
tp484
Rp485
tp486
a(g56
g6
(g18
S'\xa1\x96\x10<'
p487
tp488
Rp489
tp490
a(g104
g6
(g18
S'\x88\xf9\xfc;'
p491
tp492
Rp493
tp494
a(g88
g6
(g18
S'\xde \xf9;'
p495
tp496
Rp497
tp498
asg73
g44
sa(dp499
g2
S'../../../data/emanuela/activity-recognition/images/NTCIR-Lifelog-256/u2/2015-04-23/b00001060_21i7lf_20150423_122609e.jpg'
p500
sg4
(lp501
(g44
g6
(g18
S'\xfczh?'
p502
tp503
Rp504
tp505
a(g290
g6
(g18
S'\x8dm&='
p506
tp507
Rp508
tp509
a(g189
g6
(g18
S'C\xda\x9d<'
p510
tp511
Rp512
tp513
a(g201
g6
(g18
S'\x8a*\x04<'
p514
tp515
Rp516
tp517
a(g166
g6
(g18
S'\xfeF\xe3;'
p518
tp519
Rp520
tp521
asg73
g44
sa(dp522
g2
S'../../../data/emanuela/activity-recognition/images/NTCIR-Lifelog-256/u2/2015-04-30/b00000762_21i7lf_20150430_103409e.jpg'
p523
sg4
(lp524
(g44
g6
(g18
S'\xf5x\x08?'
p525
tp526
Rp527
tp528
a(g348
g6
(g18
S'\xe7\xd0\x91>'
p529
tp530
Rp531
tp532
a(g32
g6
(g18
S'\xc1\x9f\x8e='
p533
tp534
Rp535
tp536
a(g189
g6
(g18
S'\xa8\xf6"='
p537
tp538
Rp539
tp540
a(g56
g6
(g18
S'\xf5\xd7g<'
p541
tp542
Rp543
tp544
asg73
g44
sa(dp545
g2
S'../../../data/emanuela/activity-recognition/images/NTCIR-Lifelog-256/u2/2015-04-29/b00000098_21i7lf_20150429_175933e.jpg'
p546
sg4
(lp547
(g44
g6
(g18
S'=5K?'
p548
tp549
Rp550
tp551
a(g32
g6
(g18
S'/{\x97='
p552
tp553
Rp554
tp555
a(g348
g6
(g18
S'\x8f\xd5y='
p556
tp557
Rp558
tp559
a(g189
g6
(g18
S'\x0e=Q='
p560
tp561
Rp562
tp563
a(g166
g6
(g18
S'\xc7\xbe\xbb;'
p564
tp565
Rp566
tp567
asg73
g44
sa(dp568
g2
S'../../../data/emanuela/activity-recognition/images/NTCIR-Lifelog-256/u1/2015-02-26/b00000337_21i6bq_20150226_095718e.jpg'
p569
sg4
(lp570
(g44
g6
(g18
S'\\<L?'
p571
tp572
Rp573
tp574
a(g189
g6
(g18
S'\xf2U\xcb='
p575
tp576
Rp577
tp578
a(g68
g6
(g18
S'\x8b\x87\x11='
p579
tp580
Rp581
tp582
a(g232
g6
(g18
S'\xc4\xaen<'
p583
tp584
Rp585
tp586
a(g201
g6
(g18
S'\x1d\x81m<'
p587
tp588
Rp589
tp590
asg73
g44
sa(dp591
g2
S'../../../data/emanuela/activity-recognition/images/NTCIR-Lifelog-256/u2/2015-05-08/b00008695_21i7lf_20150508_093147e.jpg'
p592
sg4
(lp593
(g44
g6
(g18
S'\xd7\xc9s?'
p594
tp595
Rp596
tp597
a(g189
g6
(g18
S'l(\x8e<'
p598
tp599
Rp600
tp601
a(g348
g6
(g18
S'\xa4T)<'
p602
tp603
Rp604
tp605
a(g32
g6
(g18
S'c\xcf\x13<'
p606
tp607
Rp608
tp609
a(g56
g6
(g18
S"'x\xf8:"
p610
tp611
Rp612
tp613
asg73
g44
sa(dp614
g2
S'../../../data/emanuela/activity-recognition/images/NTCIR-Lifelog-256/u1/2015-03-08/b00000691_21i6bq_20150308_162908e.jpg'
p615
sg4
(lp616
(g44
g6
(g18
S'\x91H\xbf>'
p617
tp618
Rp619
tp620
a(g189
g6
(g18
S'wtl>'
p621
tp622
Rp623
tp624
a(g104
g6
(g18
S'\xd4I(>'
p625
tp626
Rp627
tp628
a(g88
g6
(g18
S'\xcf,\xe7='
p629
tp630
Rp631
tp632
a(g166
g6
(g18
S'\xc4\xdaj='
p633
tp634
Rp635
tp636
asg73
g44
sa(dp637
g2
S'../../../data/emanuela/activity-recognition/images/NTCIR-Lifelog-256/u2/2015-04-27/b00005892_21i7lf_20150427_183644e.jpg'
p638
sg4
(lp639
(g44
g6
(g18
S'\xfeW\x13?'
p640
tp641
Rp642
tp643
a(g348
g6
(g18
S'#\x8aG>'
p644
tp645
Rp646
tp647
a(g32
g6
(g18
S'\xfd\x10\xa3='
p648
tp649
Rp650
tp651
a(g56
g6
(g18
S'o\xb8\x17='
p652
tp653
Rp654
tp655
a(g88
g6
(g18
S'\x1a\xe3\xed<'
p656
tp657
Rp658
tp659
asg73
g44
sa(dp660
g2
S'../../../data/emanuela/activity-recognition/images/NTCIR-Lifelog-256/u2/2015-04-24/b00002599_21i7lf_20150424_160253e.jpg'
p661
sg4
(lp662
(g44
g6
(g18
S'\x04H\x1f?'
p663
tp664
Rp665
tp666
a(g290
g6
(g18
S'\xa6\xa1\xc7='
p667
tp668
Rp669
tp670
a(g189
g6
(g18
S'\xe1a\x9e='
p671
tp672
Rp673
tp674
a(g32
g6
(g18
S'n c='
p675
tp676
Rp677
tp678
a(g201
g6
(g18
S'l\xa2\xf5<'
p679
tp680
Rp681
tp682
asg73
g44
sa(dp683
g2
S'../../../data/emanuela/activity-recognition/images/NTCIR-Lifelog-256/u3/2015-06-21/b00000600_21i79q_20150621_181109e.jpg'
p684
sg4
(lp685
(g6
(g7
(S'S27'
p686
I0
I1
tp687
Rp688
(I3
S'|'
p689
NNNI27
I1
I0
tp690
bS'having drinks with somebody'
p691
tp692
Rp693
g6
(g18
S'\xf2\xb5\xa3>'
p694
tp695
Rp696
tp697
a(g166
g6
(g18
S'q\x18\x86>'
p698
tp699
Rp700
tp701
a(g44
g6
(g18
S'\xde%0>'
p702
tp703
Rp704
tp705
a(g32
g6
(g18
S'\xe3\xeb\x9e='
p706
tp707
Rp708
tp709
a(g88
g6
(g18
S'\xf1\xc7T='
p710
tp711
Rp712
tp713
asg73
g44
sa(dp714
g2
S'../../../data/emanuela/activity-recognition/images/NTCIR-Lifelog-256/u1/2015-03-06/b00000034_21i6bq_20150306_053438e.jpg'
p715
sg4
(lp716
(g104
g6
(g18
S'\xd1o\xfb>'
p717
tp718
Rp719
tp720
a(g68
g6
(g18
S'\xb8\xd5j>'
p721
tp722
Rp723
tp724
a(g44
g6
(g18
S'\x94\x99\x92='
p725
tp726
Rp727
tp728
a(g56
g6
(g18
S'_\x1a\x19='
p729
tp730
Rp731
tp732
a(g15
g6
(g18
S'\x04\xd3\x03='
p733
tp734
Rp735
tp736
asg73
g44
sa(dp737
g2
S'../../../data/emanuela/activity-recognition/images/NTCIR-Lifelog-256/u1/2015-03-09/b00000905_21i6bq_20150309_163358e.jpg'
p738
sg4
(lp739
(g44
g6
(g18
S'\xeb\tx?'
p740
tp741
Rp742
tp743
a(g348
g6
(g18
S'\xce\xf8|<'
p744
tp745
Rp746
tp747
a(g189
g6
(g18
S'&;B<'
p748
tp749
Rp750
tp751
a(g232
g6
(g18
S'\xd0&\xca:'
p752
tp753
Rp754
tp755
a(g32
g6
(g18
S'*6\x8a:'
p756
tp757
Rp758
tp759
asg73
g44
sa(dp760
g2
S'../../../data/emanuela/activity-recognition/images/NTCIR-Lifelog-256/u2/2015-04-23/b00001055_21i7lf_20150423_122256e.jpg'
p761
sg4
(lp762
(g32
g6
(g18
S'M\x9bH?'
p763
tp764
Rp765
tp766
a(g15
g6
(g18
S'}\x95\xc4='
p767
tp768
Rp769
tp770
a(g44
g6
(g18
S'\xe4\xc68='
p771
tp772
Rp773
tp774
a(g104
g6
(g18
S'\xb9\xe74='
p775
tp776
Rp777
tp778
a(g6
(g7
(S'S25'
p779
I0
I1
tp780
Rp781
(I3
S'|'
p782
NNNI25
I1
I0
tp783
bS'having meal with somebody'
p784
tp785
Rp786
g6
(g18
S'\xd62C<'
p787
tp788
Rp789
tp790
asg73
g44
sa(dp791
g2
S'../../../data/emanuela/activity-recognition/images/NTCIR-Lifelog-256/u1/2015-03-18/b00000220_21i6bq_20150318_095901e.jpg'
p792
sg4
(lp793
(g44
g6
(g18
S'\xca7l?'
p794
tp795
Rp796
tp797
a(g189
g6
(g18
S'$=)='
p798
tp799
Rp800
tp801
a(g56
g6
(g18
S'\x15}\x06<'
p802
tp803
Rp804
tp805
a(g201
g6
(g18
S'@\xcb\x82;'
p806
tp807
Rp808
tp809
a(g6
(g7
(S'S7'
p810
I0
I1
tp811
Rp812
(I3
S'|'
p813
NNNI7
I1
I0
tp814
bS'reading'
p815
tp816
Rp817
g6
(g18
S'\x0e~y;'
p818
tp819
Rp820
tp821
asg73
g44
sa(dp822
g2
S'../../../data/emanuela/activity-recognition/images/NTCIR-Lifelog-256/u2/2015-04-27/b00004934_21i7lf_20150427_084828e.jpg'
p823
sg4
(lp824
(g44
g6
(g18
S'\x008Y?'
p825
tp826
Rp827
tp828
a(g32
g6
(g18
S'\xea\xaf\xdb='
p829
tp830
Rp831
tp832
a(g348
g6
(g18
S'r\xbad<'
p833
tp834
Rp835
tp836
a(g15
g6
(g18
S'>8b<'
p837
tp838
Rp839
tp840
a(g6
(g7
(S'S5'
p841
I0
I1
tp842
Rp843
(I3
S'|'
p844
NNNI5
I1
I0
tp845
bS'plane'
p846
tp847
Rp848
g6
(g18
S'\x1d\x1b\xdb;'
p849
tp850
Rp851
tp852
asg73
g44
sa(dp853
g2
S'../../../data/emanuela/activity-recognition/images/NTCIR-Lifelog-256/u2/2015-05-04/b00004579_21i7lf_20150504_105958e.jpg'
p854
sg4
(lp855
(g348
g6
(g18
S'\xa1#\xb7>'
p856
tp857
Rp858
tp859
a(g44
g6
(g18
S'\xd6g\x9e>'
p860
tp861
Rp862
tp863
a(g56
g6
(g18
S'\x03\x7f\x04>'
p864
tp865
Rp866
tp867
a(g32
g6
(g18
S'\x90L\xa4='
p868
tp869
Rp870
tp871
a(g817
g6
(g18
S'C\xf9\x0e='
p872
tp873
Rp874
tp875
asg73
g44
sa(dp876
g2
S'../../../data/emanuela/activity-recognition/images/NTCIR-Lifelog-256/u2/2015-04-24/b00002065_21i7lf_20150424_103320e.jpg'
p877
sg4
(lp878
(g44
g6
(g18
S'\xbc@z?'
p879
tp880
Rp881
tp882
a(g189
g6
(g18
S'\xa2[<<'
p883
tp884
Rp885
tp886
a(g32
g6
(g18
S'\xc2\xa0\xac;'
p887
tp888
Rp889
tp890
a(g232
g6
(g18
S'$\x84\xc6:'
p891
tp892
Rp893
tp894
a(g348
g6
(g18
S'\xde\xb8\xb9:'
p895
tp896
Rp897
tp898
asg73
g44
sa(dp899
g2
S'../../../data/emanuela/activity-recognition/images/NTCIR-Lifelog-256/u2/2015-04-27/b00005128_21i7lf_20150427_104249e.jpg'
p900
sg4
(lp901
(g44
g6
(g18
S'g;\x7f?'
p902
tp903
Rp904
tp905
a(g32
g6
(g18
S'\xdc\x12):'
p906
tp907
Rp908
tp909
a(g189
g6
(g18
S'%\xbd\x1e:'
p910
tp911
Rp912
tp913
a(g232
g6
(g18
S'\xf9\xe3\xf99'
p914
tp915
Rp916
tp917
a(g88
g6
(g18
S'\\%\xa89'
p918
tp919
Rp920
tp921
asg73
g44
sa(dp922
g2
S'../../../data/emanuela/activity-recognition/images/NTCIR-Lifelog-256/u1/2015-03-05/b00000865_21i6bq_20150305_153228e.jpg'
p923
sg4
(lp924
(g44
g6
(g18
S'\xc9\x1c~?'
p925
tp926
Rp927
tp928
a(g189
g6
(g18
S'\xaa\xe2!;'
p929
tp930
Rp931
tp932
a(g232
g6
(g18
S'\x91\xbd\xbd:'
p933
tp934
Rp935
tp936
a(g32
g6
(g18
S'\xa3p\x85:'
p937
tp938
Rp939
tp940
a(g348
g6
(g18
S'[\x93y:'
p941
tp942
Rp943
tp944
asg73
g44
sa(dp945
g2
S'../../../data/emanuela/activity-recognition/images/NTCIR-Lifelog-256/u2/2015-05-01/b00001744_21i7lf_20150501_084343e.jpg'
p946
sg4
(lp947
(g44
g6
(g18
S'\xe1c\x9f>'
p948
tp949
Rp950
tp951
a(g56
g6
(g18
S'2<f>'
p952
tp953
Rp954
tp955
a(g32
g6
(g18
S'\xf7\x89\x0c>'
p956
tp957
Rp958
tp959
a(g348
g6
(g18
S'\x9b \xd6='
p960
tp961
Rp962
tp963
a(g817
g6
(g18
S'^L\x81='
p964
tp965
Rp966
tp967
asg73
g44
sa(dp968
g2
S'../../../data/emanuela/activity-recognition/images/NTCIR-Lifelog-256/u1/2015-02-24/b00001390_21i6bq_20150224_205016e.jpg'
p969
sg4
(lp970
(g32
g6
(g18
S'\xc4U\xb0>'
p971
tp972
Rp973
tp974
a(g44
g6
(g18
S'\xf8\xa7m>'
p975
tp976
Rp977
tp978
a(g348
g6
(g18
S'\xd6\xf6\xf7='
p979
tp980
Rp981
tp982
a(g189
g6
(g18
S'Y\x16\xc1='
p983
tp984
Rp985
tp986
a(g56
g6
(g18
S'\xcb\xdb\xb4='
p987
tp988
Rp989
tp990
asg73
g44
sa(dp991
g2
S'../../../data/emanuela/activity-recognition/images/NTCIR-Lifelog-256/u2/2015-04-27/b00005702_21i7lf_20150427_163940e.jpg'
p992
sg4
(lp993
(g201
g6
(g18
S'\xa2\x00\x84>'
p994
tp995
Rp996
tp997
a(g44
g6
(g18
S'\xef\xfe\xf9='
p998
tp999
Rp1000
tp1001
a(g68
g6
(g18
S'8y\xdb='
p1002
tp1003
Rp1004
tp1005
a(g189
g6
(g18
S'\x1a\x1a\xce='
p1006
tp1007
Rp1008
tp1009
a(g290
g6
(g18
S'B\x02\xbb='
p1010
tp1011
Rp1012
tp1013
asg73
g44
sa(dp1014
g2
S'../../../data/emanuela/activity-recognition/images/NTCIR-Lifelog-256/u3/2015-07-28/b00003794_21i79q_20150728_222527e.jpg'
p1015
sg4
(lp1016
(g44
g6
(g18
S'8\xd5P?'
p1017
tp1018
Rp1019
tp1020
a(g68
g6
(g18
S'\x8a\x98\x9b='
p1021
tp1022
Rp1023
tp1024
a(g232
g6
(g18
S'\xc1\xdf\\='
p1025
tp1026
Rp1027
tp1028
a(g56
g6
(g18
S'\xe4@\x80<'
p1029
tp1030
Rp1031
tp1032
a(g166
g6
(g18
S'\xde\\8<'
p1033
tp1034
Rp1035
tp1036
asg73
g44
sa(dp1037
g2
S'../../../data/emanuela/activity-recognition/images/NTCIR-Lifelog-256/u2/2015-04-28/b00006693_21i7lf_20150428_125850e.jpg'
p1038
sg4
(lp1039
(g290
g6
(g18
S'\x05\xa1\xcb>'
p1040
tp1041
Rp1042
tp1043
a(g44
g6
(g18
S'S\xa7\xc8>'
p1044
tp1045
Rp1046
tp1047
a(g32
g6
(g18
S'\xab\xaf\x82='
p1048
tp1049
Rp1050
tp1051
a(g104
g6
(g18
S'\xb8N\xe1<'
p1052
tp1053
Rp1054
tp1055
a(g201
g6
(g18
S'\xb7r\xe0<'
p1056
tp1057
Rp1058
tp1059
asg73
g44
sa(dp1060
g2
S'../../../data/emanuela/activity-recognition/images/NTCIR-Lifelog-256/u2/2015-04-25/b00003018_21i7lf_20150425_111912e.jpg'
p1061
sg4
(lp1062
(g348
g6
(g18
S'7\xd63?'
p1063
tp1064
Rp1065
tp1066
a(g44
g6
(g18
S'\xd0*\x05>'
p1067
tp1068
Rp1069
tp1070
a(g817
g6
(g18
S'\x03\x83\x88='
p1071
tp1072
Rp1073
tp1074
a(g56
g6
(g18
S'\xc8\x07\x1b='
p1075
tp1076
Rp1077
tp1078
a(g32
g6
(g18
S'\x05\x95\xff<'
p1079
tp1080
Rp1081
tp1082
asg73
g44
sa(dp1083
g2
S'../../../data/emanuela/activity-recognition/images/NTCIR-Lifelog-256/u1/2015-03-05/b00000586_21i6bq_20150305_123359e.jpg'
p1084
sg4
(lp1085
(g44
g6
(g18
S'~\xd1|?'
p1086
tp1087
Rp1088
tp1089
a(g348
g6
(g18
S'\xb5\xf4\xcb;'
p1090
tp1091
Rp1092
tp1093
a(g189
g6
(g18
S'\xc9Z3;'
p1094
tp1095
Rp1096
tp1097
a(g232
g6
(g18
S'\xb8\xd90;'
p1098
tp1099
Rp1100
tp1101
a(g32
g6
(g18
S'\x8d\xd6u9'
p1102
tp1103
Rp1104
tp1105
asg73
g44
sa(dp1106
g2
S'../../../data/emanuela/activity-recognition/images/NTCIR-Lifelog-256/u3/2015-07-28/b00003801_21i79q_20150728_222928e.jpg'
p1107
sg4
(lp1108
(g56
g6
(g18
S'\x8a\x07<?'
p1109
tp1110
Rp1111
tp1112
a(g693
g6
(g18
S'\xd4<\xe7='
p1113
tp1114
Rp1115
tp1116
a(g44
g6
(g18
S'\x86\xdf\x07='
p1117
tp1118
Rp1119
tp1120
a(g104
g6
(g18
S'\\a\x00='
p1121
tp1122
Rp1123
tp1124
a(g88
g6
(g18
S'zM\xd7<'
p1125
tp1126
Rp1127
tp1128
asg73
g44
sa(dp1129
g2
S'../../../data/emanuela/activity-recognition/images/NTCIR-Lifelog-256/u2/2015-06-19/b00003182_21i7lf_20150619_082922e.jpg'
p1130
sg4
(lp1131
(g693
g6
(g18
S'\xbes\x9b>'
p1132
tp1133
Rp1134
tp1135
a(g290
g6
(g18
S'\xb6\xf9">'
p1136
tp1137
Rp1138
tp1139
a(g44
g6
(g18
S'c]\x1e>'
p1140
tp1141
Rp1142
tp1143
a(g786
g6
(g18
S'RI\xd6='
p1144
tp1145
Rp1146
tp1147
a(g104
g6
(g18
S'\x0c\xef\x98='
p1148
tp1149
Rp1150
tp1151
asg73
g44
sa(dp1152
g2
S'../../../data/emanuela/activity-recognition/images/NTCIR-Lifelog-256/u2/2015-04-29/b00000213_21i7lf_20150429_093934e.jpg'
p1153
sg4
(lp1154
(g44
g6
(g18
S'v\xfd\xbc>'
p1155
tp1156
Rp1157
tp1158
a(g166
g6
(g18
S'\xc3\xc7`>'
p1159
tp1160
Rp1161
tp1162
a(g32
g6
(g18
S'\ny\x01>'
p1163
tp1164
Rp1165
tp1166
a(g348
g6
(g18
S'\xb7.\x91='
p1167
tp1168
Rp1169
tp1170
a(g189
g6
(g18
S'\x04\xf4^='
p1171
tp1172
Rp1173
tp1174
asg73
g44
sa(dp1175
g2
S'../../../data/emanuela/activity-recognition/images/NTCIR-Lifelog-256/u2/2015-04-28/b00006681_21i7lf_20150428_125138e.jpg'
p1176
sg4
(lp1177
(g44
g6
(g18
S'xer?'
p1178
tp1179
Rp1180
tp1181
a(g32
g6
(g18
S'\xdb\xa9\xdb<'
p1182
tp1183
Rp1184
tp1185
a(g348
g6
(g18
S'de\xab<'
p1186
tp1187
Rp1188
tp1189
a(g15
g6
(g18
S'V\xb29;'
p1190
tp1191
Rp1192
tp1193
a(g189
g6
(g18
S'\xd2\xadV:'
p1194
tp1195
Rp1196
tp1197
asg73
g44
sa(dp1198
g2
S'../../../data/emanuela/activity-recognition/images/NTCIR-Lifelog-256/u2/2015-04-30/b00001055_21i7lf_20150430_133335e.jpg'
p1199
sg4
(lp1200
(g44
g6
(g18
S'\xee\xf0~?'
p1201
tp1202
Rp1203
tp1204
a(g232
g6
(g18
S'$\x8f\x14;'
p1205
tp1206
Rp1207
tp1208
a(g189
g6
(g18
S'B/o:'
p1209
tp1210
Rp1211
tp1212
a(g104
g6
(g18
S'!\xbc\xba9'
p1213
tp1214
Rp1215
tp1216
a(g56
g6
(g18
S'\xa4Y\x1c9'
p1217
tp1218
Rp1219
tp1220
asg73
g44
sa(dp1221
g2
S'../../../data/emanuela/activity-recognition/images/NTCIR-Lifelog-256/u2/2015-06-18/b00002857_21i7lf_20150618_124815e.jpg'
p1222
sg4
(lp1223
(g32
g6
(g18
S'i\xb5\xae>'
p1224
tp1225
Rp1226
tp1227
a(g15
g6
(g18
S'\xa4&k>'
p1228
tp1229
Rp1230
tp1231
a(g44
g6
(g18
S'*\x8fd>'
p1232
tp1233
Rp1234
tp1235
a(g68
g6
(g18
S'pk\xa8='
p1236
tp1237
Rp1238
tp1239
a(g348
g6
(g18
S'\xfd\x04\xa4<'
p1240
tp1241
Rp1242
tp1243
asg73
g44
sa(dp1244
g2
S'../../../data/emanuela/activity-recognition/images/NTCIR-Lifelog-256/u2/2015-04-25/b00003012_21i7lf_20150425_111533e.jpg'
p1245
sg4
(lp1246
(g32
g6
(g18
S'\xa7\x01\x1b?'
p1247
tp1248
Rp1249
tp1250
a(g44
g6
(g18
S'_4z>'
p1251
tp1252
Rp1253
tp1254
a(g15
g6
(g18
S'\x7f\x1a\xf7='
p1255
tp1256
Rp1257
tp1258
a(g348
g6
(g18
S'\x86/K<'
p1259
tp1260
Rp1261
tp1262
a(g88
g6
(g18
S'\xe9\xd2\xc4;'
p1263
tp1264
Rp1265
tp1266
asg73
g44
sa(dp1267
g2
S'../../../data/emanuela/activity-recognition/images/NTCIR-Lifelog-256/u2/2015-05-01/b00002275_21i7lf_20150501_141300e.jpg'
p1268
sg4
(lp1269
(g44
g6
(g18
S'C\xda}?'
p1270
tp1271
Rp1272
tp1273
a(g232
g6
(g18
S'\xb7\x96g;'
p1274
tp1275
Rp1276
tp1277
a(g189
g6
(g18
S'\x1c\xa75;'
p1278
tp1279
Rp1280
tp1281
a(g104
g6
(g18
S'\x1b\xdb\r:'
p1282
tp1283
Rp1284
tp1285
a(g817
g6
(g18
S'\x0b\x9e\xbc9'
p1286
tp1287
Rp1288
tp1289
asg73
g44
sa(dp1290
g2
S'../../../data/emanuela/activity-recognition/images/NTCIR-Lifelog-256/u3/2015-07-28/b00002818_21i79q_20150728_120954e.jpg'
p1291
sg4
(lp1292
(g44
g6
(g18
S'+\xd6y?'
p1293
tp1294
Rp1295
tp1296
a(g68
g6
(g18
S'|d\x87;'
p1297
tp1298
Rp1299
tp1300
a(g88
g6
(g18
S',Yb;'
p1301
tp1302
Rp1303
tp1304
a(g56
g6
(g18
S'\xb0\xa7D;'
p1305
tp1306
Rp1307
tp1308
a(g189
g6
(g18
S'\x97zC;'
p1309
tp1310
Rp1311
tp1312
asg73
g44
sa(dp1313
g2
S'../../../data/emanuela/activity-recognition/images/NTCIR-Lifelog-256/u1/2015-03-09/b00000276_21i6bq_20150309_094159e.jpg'
p1314
sg4
(lp1315
(g44
g6
(g18
S'\x01?m?'
p1316
tp1317
Rp1318
tp1319
a(g189
g6
(g18
S':\x17\xf1<'
p1320
tp1321
Rp1322
tp1323
a(g32
g6
(g18
S'\xb1\xf3q<'
p1324
tp1325
Rp1326
tp1327
a(g817
g6
(g18
S'\x1d`\x18<'
p1328
tp1329
Rp1330
tp1331
a(g348
g6
(g18
S'\x9b\xe3\x03<'
p1332
tp1333
Rp1334
tp1335
asg73
g44
sa(dp1336
g2
S'../../../data/emanuela/activity-recognition/images/NTCIR-Lifelog-256/u1/2015-03-19/b00002028_21i6bq_20150319_120037e.jpg'
p1337
sg4
(lp1338
(g44
g6
(g18
S'\x80G\x05?'
p1339
tp1340
Rp1341
tp1342
a(g104
g6
(g18
S':.\x00>'
p1343
tp1344
Rp1345
tp1346
a(g290
g6
(g18
S's\x1a\xf5='
p1347
tp1348
Rp1349
tp1350
a(g693
g6
(g18
S'\xf6\xf1\xda='
p1351
tp1352
Rp1353
tp1354
a(g166
g6
(g18
S';\xff>='
p1355
tp1356
Rp1357
tp1358
asg73
g44
sa(dp1359
g2
S'../../../data/emanuela/activity-recognition/images/NTCIR-Lifelog-256/u1/2015-02-25/b00000128_21i6bq_20150225_071902e.jpg'
p1360
sg4
(lp1361
(g123
g6
(g18
S'\xcaL\x85>'
p1362
tp1363
Rp1364
tp1365
a(g104
g6
(g18
S'p\xc9:>'
p1366
tp1367
Rp1368
tp1369
a(g44
g6
(g18
S'\\k\xac='
p1370
tp1371
Rp1372
tp1373
a(g848
g6
(g18
S'I\x02\xa5='
p1374
tp1375
Rp1376
tp1377
a(g6
(g7
(S'S2'
p1378
I0
I1
tp1379
Rp1380
(I3
S'|'
p1381
NNNI2
I1
I0
tp1382
bS'tv'
p1383
tp1384
Rp1385
g6
(g18
S'\xb3J\xa3='
p1386
tp1387
Rp1388
tp1389
asg73
g44
sa(dp1390
g2
S'../../../data/emanuela/activity-recognition/images/NTCIR-Lifelog-256/u1/2015-03-13/b00001264_21i6bq_20150313_202147e.jpg'
p1391
sg4
(lp1392
(g44
g6
(g18
S'K\xb9#?'
p1393
tp1394
Rp1395
tp1396
a(g232
g6
(g18
S'-(\x02>'
p1397
tp1398
Rp1399
tp1400
a(g693
g6
(g18
S'\x07V\x86='
p1401
tp1402
Rp1403
tp1404
a(g290
g6
(g18
S'\xbb\xfc]='
p1405
tp1406
Rp1407
tp1408
a(g166
g6
(g18
S'\xd7f ='
p1409
tp1410
Rp1411
tp1412
asg73
g44
sa(dp1413
g2
S'../../../data/emanuela/activity-recognition/images/NTCIR-Lifelog-256/u2/2015-04-28/b00006690_21i7lf_20150428_125711e.jpg'
p1414
sg4
(lp1415
(g44
g6
(g18
S'\xc7\xd3??'
p1416
tp1417
Rp1418
tp1419
a(g348
g6
(g18
S"\xc1\xe9'>"
p1420
tp1421
Rp1422
tp1423
a(g189
g6
(g18
S'8F\xd2<'
p1424
tp1425
Rp1426
tp1427
a(g32
g6
(g18
S'\xac\x16\x93<'
p1428
tp1429
Rp1430
tp1431
a(g56
g6
(g18
S'\xc3\xeb\x89<'
p1432
tp1433
Rp1434
tp1435
asg73
g44
sa(dp1436
g2
S'../../../data/emanuela/activity-recognition/images/NTCIR-Lifelog-256/u2/2015-04-24/b00002322_21i7lf_20150424_131156e.jpg'
p1437
sg4
(lp1438
(g44
g6
(g18
S'a\x82s?'
p1439
tp1440
Rp1441
tp1442
a(g189
g6
(g18
S']L&='
p1443
tp1444
Rp1445
tp1446
a(g232
g6
(g18
S'\tu\xdd;'
p1447
tp1448
Rp1449
tp1450
a(g166
g6
(g18
S')\x19\x9f9'
p1451
tp1452
Rp1453
tp1454
a(g201
g6
(g18
S'\xac\xfe\x889'
p1455
tp1456
Rp1457
tp1458
asg73
g44
sa(dp1459
g2
S'../../../data/emanuela/activity-recognition/images/NTCIR-Lifelog-256/u2/2015-05-01/b00002165_21i7lf_20150501_130406e.jpg'
p1460
sg4
(lp1461
(g44
g6
(g18
S'\xbbo\xeb>'
p1462
tp1463
Rp1464
tp1465
a(g32
g6
(g18
S'\x86\xa6\xaf>'
p1466
tp1467
Rp1468
tp1469
a(g15
g6
(g18
S'\xb6\x1b\x14>'
p1470
tp1471
Rp1472
tp1473
a(g848
g6
(g18
S'5h\x17<'
p1474
tp1475
Rp1476
tp1477
a(g68
g6
(g18
S'\r\xe0\x0c<'
p1478
tp1479
Rp1480
tp1481
asg73
g44
sa(dp1482
g2
S'../../../data/emanuela/activity-recognition/images/NTCIR-Lifelog-256/u2/2015-05-04/b00004957_21i7lf_20150504_185641e.jpg'
p1483
sg4
(lp1484
(g32
g6
(g18
S'\xc0t\xcc>'
p1485
tp1486
Rp1487
tp1488
a(g44
g6
(g18
S'?p\xad>'
p1489
tp1490
Rp1491
tp1492
a(g166
g6
(g18
S'\x89{\xcf='
p1493
tp1494
Rp1495
tp1496
a(g189
g6
(g18
S'\t\x14\x9d='
p1497
tp1498
Rp1499
tp1500
a(g348
g6
(g18
S'\xc0L\x07='
p1501
tp1502
Rp1503
tp1504
asg73
g44
sa(dp1505
g2
S'../../../data/emanuela/activity-recognition/images/NTCIR-Lifelog-256/u1/2015-02-23/b00000171_21i6bq_20150223_085113e.jpg'
p1506
sg4
(lp1507
(g44
g6
(g18
S'\xfb\x9c\xab>'
p1508
tp1509
Rp1510
tp1511
a(g189
g6
(g18
S'{nT>'
p1512
tp1513
Rp1514
tp1515
a(g104
g6
(g18
S'P\xa9D>'
p1516
tp1517
Rp1518
tp1519
a(g15
g6
(g18
S'\x0eq\xc6='
p1520
tp1521
Rp1522
tp1523
a(g32
g6
(g18
S'\x1a\xb1\xaa='
p1524
tp1525
Rp1526
tp1527
asg73
g44
sa(dp1528
g2
S'../../../data/emanuela/activity-recognition/images/NTCIR-Lifelog-256/u2/2015-05-06/b00006851_21i7lf_20150506_150512e.jpg'
p1529
sg4
(lp1530
(g44
g6
(g18
S'\x83(w?'
p1531
tp1532
Rp1533
tp1534
a(g232
g6
(g18
S'uu\x80<'
p1535
tp1536
Rp1537
tp1538
a(g189
g6
(g18
S'\xf1\xc8\x05<'
p1539
tp1540
Rp1541
tp1542
a(g88
g6
(g18
S'p\xa5\xb0;'
p1543
tp1544
Rp1545
tp1546
a(g104
g6
(g18
S'\xc4\xef\x13;'
p1547
tp1548
Rp1549
tp1550
asg73
g44
sa(dp1551
g2
S'../../../data/emanuela/activity-recognition/images/NTCIR-Lifelog-256/u2/2015-06-16/b00001412_21i7lf_20150616_080013e.jpg'
p1552
sg4
(lp1553
(g44
g6
(g18
S'#7$?'
p1554
tp1555
Rp1556
tp1557
a(g166
g6
(g18
S'\x8dG6>'
p1558
tp1559
Rp1560
tp1561
a(g189
g6
(g18
S'{"\xdb='
p1562
tp1563
Rp1564
tp1565
a(g232
g6
(g18
S'$\xe1\x12='
p1566
tp1567
Rp1568
tp1569
a(g201
g6
(g18
S'\xfd\x10\t<'
p1570
tp1571
Rp1572
tp1573
asg73
g44
sa(dp1574
g2
S'../../../data/emanuela/activity-recognition/images/NTCIR-Lifelog-256/u1/2015-02-26/b00000085_21i6bq_20150226_065407e.jpg'
p1575
sg4
(lp1576
(g1385
g6
(g18
S'\xb5>\xae>'
p1577
tp1578
Rp1579
tp1580
a(g166
g6
(g18
S'\xc2\xefL>'
p1581
tp1582
Rp1583
tp1584
a(g44
g6
(g18
S'\xd5\x81\xec='
p1585
tp1586
Rp1587
tp1588
a(g32
g6
(g18
S'\x0bm\xbe='
p1589
tp1590
Rp1591
tp1592
a(g348
g6
(g18
S'}\x14\xb7='
p1593
tp1594
Rp1595
tp1596
asg73
g44
sa(dp1597
g2
S'../../../data/emanuela/activity-recognition/images/NTCIR-Lifelog-256/u2/2015-04-20/b00001165_21i7lf_20150420_213827e.jpg'
p1598
sg4
(lp1599
(g348
g6
(g18
S'\xdaX\x8f>'
p1600
tp1601
Rp1602
tp1603
a(g166
g6
(g18
S'plH>'
p1604
tp1605
Rp1606
tp1607
a(g44
g6
(g18
S'[LG>'
p1608
tp1609
Rp1610
tp1611
a(g1385
g6
(g18
S'\r}\xff='
p1612
tp1613
Rp1614
tp1615
a(g189
g6
(g18
S'\xd0\x9d\xbb='
p1616
tp1617
Rp1618
tp1619
asg73
g44
sa(dp1620
g2
S'../../../data/emanuela/activity-recognition/images/NTCIR-Lifelog-256/u1/2015-02-23/b00001387_21i6bq_20150223_220043e.jpg'
p1621
sg4
(lp1622
(g348
g6
(g18
S'\x8a\xf6\xe8>'
p1623
tp1624
Rp1625
tp1626
a(g189
g6
(g18
S'\xc7\x11\x06>'
p1627
tp1628
Rp1629
tp1630
a(g166
g6
(g18
S'E\x00\xb3='
p1631
tp1632
Rp1633
tp1634
a(g32
g6
(g18
S'Or\x8a='
p1635
tp1636
Rp1637
tp1638
a(g44
g6
(g18
S'\x1c\xaep='
p1639
tp1640
Rp1641
tp1642
asg73
g44
sa(dp1643
g2
S'../../../data/emanuela/activity-recognition/images/NTCIR-Lifelog-256/u3/2015-07-11/b00000281_21i79q_20150711_093001e.jpg'
p1644
sg4
(lp1645
(g44
g6
(g18
S'.\xe3k?'
p1646
tp1647
Rp1648
tp1649
a(g232
g6
(g18
S'\xbc\xf2;='
p1650
tp1651
Rp1652
tp1653
a(g104
g6
(g18
S'\x8b6\xce;'
p1654
tp1655
Rp1656
tp1657
a(g290
g6
(g18
S'\xa59\xac;'
p1658
tp1659
Rp1660
tp1661
a(g68
g6
(g18
S'\xea\x0b\x91;'
p1662
tp1663
Rp1664
tp1665
asg73
g44
sa(dp1666
g2
S'../../../data/emanuela/activity-recognition/images/NTCIR-Lifelog-256/u2/2015-04-24/b00002756_21i7lf_20150424_180739e.jpg'
p1667
sg4
(lp1668
(g44
g6
(g18
S'\xd8+\x84>'
p1669
tp1670
Rp1671
tp1672
a(g32
g6
(g18
S't\xbf*>'
p1673
tp1674
Rp1675
tp1676
a(g348
g6
(g18
S'\x15\xf6\x11>'
p1677
tp1678
Rp1679
tp1680
a(g15
g6
(g18
S'}\xa2\x9a='
p1681
tp1682
Rp1683
tp1684
a(g848
g6
(g18
S'\x80\x8ev='
p1685
tp1686
Rp1687
tp1688
asg73
g44
sa(dp1689
g2
S'../../../data/emanuela/activity-recognition/images/NTCIR-Lifelog-256/u2/2015-06-18/b00002599_21i7lf_20150618_095508e.jpg'
p1690
sg4
(lp1691
(g56
g6
(g18
S's-\xf8>'
p1692
tp1693
Rp1694
tp1695
a(g44
g6
(g18
S'K\xea\x18>'
p1696
tp1697
Rp1698
tp1699
a(g104
g6
(g18
S'q\xd0\xef='
p1700
tp1701
Rp1702
tp1703
a(g232
g6
(g18
S'K^\x8d='
p1704
tp1705
Rp1706
tp1707
a(g189
g6
(g18
S'ppq='
p1708
tp1709
Rp1710
tp1711
asg73
g44
sa(dp1712
g2
S'../../../data/emanuela/activity-recognition/images/NTCIR-Lifelog-256/u2/2015-05-04/b00004807_21i7lf_20150504_134336e.jpg'
p1713
sg4
(lp1714
(g44
g6
(g18
S'\xd9\xb1\x0b?'
p1715
tp1716
Rp1717
tp1718
a(g348
g6
(g18
S'\xdd\xad\xa8>'
p1719
tp1720
Rp1721
tp1722
a(g32
g6
(g18
S'\xdb\xfa\x1d='
p1723
tp1724
Rp1725
tp1726
a(g56
g6
(g18
S'\xaf\x88\x90<'
p1727
tp1728
Rp1729
tp1730
a(g817
g6
(g18
S'\xed\xe0y<'
p1731
tp1732
Rp1733
tp1734
asg73
g44
sa(dp1735
g2
S'../../../data/emanuela/activity-recognition/images/NTCIR-Lifelog-256/u3/2015-06-21/b00000327_21i79q_20150621_152828e.jpg'
p1736
sg4
(lp1737
(g166
g6
(g18
S"K\x13'?"
p1738
tp1739
Rp1740
tp1741
a(g44
g6
(g18
S'\x9f\xb7L>'
p1742
tp1743
Rp1744
tp1745
a(g68
g6
(g18
S'g)7='
p1746
tp1747
Rp1748
tp1749
a(g693
g6
(g18
S'\xb3\x98\n='
p1750
tp1751
Rp1752
tp1753
a(g104
g6
(g18
S'S\x99M<'
p1754
tp1755
Rp1756
tp1757
asg73
g44
sa(dp1758
g2
S'../../../data/emanuela/activity-recognition/images/NTCIR-Lifelog-256/u2/2015-04-24/b00001939_21i7lf_20150424_091511e.jpg'
p1759
sg4
(lp1760
(g44
g6
(g18
S'\x81=\x17?'
p1761
tp1762
Rp1763
tp1764
a(g32
g6
(g18
S'\x86S\x9a>'
p1765
tp1766
Rp1767
tp1768
a(g15
g6
(g18
S'I\xee\x94='
p1769
tp1770
Rp1771
tp1772
a(g104
g6
(g18
S'\x1b^\xc4;'
p1773
tp1774
Rp1775
tp1776
a(g189
g6
(g18
S'K\xee\xa3;'
p1777
tp1778
Rp1779
tp1780
asg73
g44
sa(dp1781
g2
S'../../../data/emanuela/activity-recognition/images/NTCIR-Lifelog-256/u2/2015-04-20/b00000099_21i7lf_20150420_103429e.jpg'
p1782
sg4
(lp1783
(g44
g6
(g18
S'\x9e\xdag?'
p1784
tp1785
Rp1786
tp1787
a(g104
g6
(g18
S'\x97\x01\x8e='
p1788
tp1789
Rp1790
tp1791
a(g32
g6
(g18
S'\xc8"\x81;'
p1792
tp1793
Rp1794
tp1795
a(g232
g6
(g18
S'\xcb\xe5Q;'
p1796
tp1797
Rp1798
tp1799
a(g189
g6
(g18
S'\xa3S;;'
p1800
tp1801
Rp1802
tp1803
asg73
g44
sa(dp1804
g2
S'../../../data/emanuela/activity-recognition/images/NTCIR-Lifelog-256/u2/2015-04-29/b00000642_21i7lf_20150429_140548e.jpg'
p1805
sg4
(lp1806
(g44
g6
(g18
S'\xa1\xdd8?'
p1807
tp1808
Rp1809
tp1810
a(g848
g6
(g18
S'7t\x8c='
p1811
tp1812
Rp1813
tp1814
a(g88
g6
(g18
S'/tG='
p1815
tp1816
Rp1817
tp1818
a(g232
g6
(g18
S'\x10\xf70='
p1819
tp1820
Rp1821
tp1822
a(g104
g6
(g18
S'\xf4\xa4\n='
p1823
tp1824
Rp1825
tp1826
asg73
g44
sa(dp1827
g2
S'../../../data/emanuela/activity-recognition/images/NTCIR-Lifelog-256/u1/2015-02-23/b00001390_21i6bq_20150223_220313e.jpg'
p1828
sg4
(lp1829
(g44
g6
(g18
S'\xb3T\x06?'
p1830
tp1831
Rp1832
tp1833
a(g348
g6
(g18
S'V\x0f8>'
p1834
tp1835
Rp1836
tp1837
a(g32
g6
(g18
S'\xaa\xf4/>'
p1838
tp1839
Rp1840
tp1841
a(g15
g6
(g18
S'[E\xe8<'
p1842
tp1843
Rp1844
tp1845
a(g232
g6
(g18
S';\xa0\xd6<'
p1846
tp1847
Rp1848
tp1849
asg73
g44
sa(dp1850
g2
S'../../../data/emanuela/activity-recognition/images/NTCIR-Lifelog-256/u3/2015-06-21/b00000613_21i79q_20150621_181910e.jpg'
p1851
sg4
(lp1852
(g44
g6
(g18
S'c\x92y?'
p1853
tp1854
Rp1855
tp1856
a(g104
g6
(g18
S'\xf2?\x19<'
p1857
tp1858
Rp1859
tp1860
a(g232
g6
(g18
S'\xa4\x0f\xb6;'
p1861
tp1862
Rp1863
tp1864
a(g68
g6
(g18
S'\xf3\xce\xe2:'
p1865
tp1866
Rp1867
tp1868
a(g56
g6
(g18
S'\x9am\xba:'
p1869
tp1870
Rp1871
tp1872
asg73
g44
sa(dp1873
g2
S'../../../data/emanuela/activity-recognition/images/NTCIR-Lifelog-256/u1/2015-03-11/b00001114_21i6bq_20150311_184349e.jpg'
p1874
sg4
(lp1875
(g44
g6
(g18
S'\x13\xa6E?'
p1876
tp1877
Rp1878
tp1879
a(g32
g6
(g18
S'A\x93\x93='
p1880
tp1881
Rp1882
tp1883
a(g348
g6
(g18
S'b\x92\x84='
p1884
tp1885
Rp1886
tp1887
a(g232
g6
(g18
S'\xc8fj<'
p1888
tp1889
Rp1890
tp1891
a(g189
g6
(g18
S'\xa9\n^<'
p1892
tp1893
Rp1894
tp1895
asg73
g44
sa(dp1896
g2
S'../../../data/emanuela/activity-recognition/images/NTCIR-Lifelog-256/u1/2015-03-16/b00002318_21i6bq_20150316_150921e.jpg'
p1897
sg4
(lp1898
(g44
g6
(g18
S'\x99\xf4]?'
p1899
tp1900
Rp1901
tp1902
a(g104
g6
(g18
S'\xd3,`='
p1903
tp1904
Rp1905
tp1906
a(g189
g6
(g18
S'\x85\x92\xdd<'
p1907
tp1908
Rp1909
tp1910
a(g68
g6
(g18
S':&C<'
p1911
tp1912
Rp1913
tp1914
a(g201
g6
(g18
S'\xa7\xc5\r<'
p1915
tp1916
Rp1917
tp1918
asg73
g44
sa(dp1919
g2
S'../../../data/emanuela/activity-recognition/images/NTCIR-Lifelog-256/u2/2015-04-25/b00003127_21i7lf_20150425_124635e.jpg'
p1920
sg4
(lp1921
(g44
g6
(g18
S'\xa6\x82D?'
p1922
tp1923
Rp1924
tp1925
a(g56
g6
(g18
S'\xcda\xac='
p1926
tp1927
Rp1928
tp1929
a(g32
g6
(g18
S'M\x92\x90='
p1930
tp1931
Rp1932
tp1933
a(g189
g6
(g18
S'u\xf2E='
p1934
tp1935
Rp1936
tp1937
a(g348
g6
(g18
S'\x85\x81"<'
p1938
tp1939
Rp1940
tp1941
asg73
g44
sa(dp1942
g2
S'../../../data/emanuela/activity-recognition/images/NTCIR-Lifelog-256/u2/2015-06-16/b00001677_21i7lf_20150616_131243e.jpg'
p1943
sg4
(lp1944
(g44
g6
(g18
S'\x1dB{?'
p1945
tp1946
Rp1947
tp1948
a(g232
g6
(g18
S'\xfd\xfa\x14<'
p1949
tp1950
Rp1951
tp1952
a(g104
g6
(g18
S'\xc4\\\x88;'
p1953
tp1954
Rp1955
tp1956
a(g88
g6
(g18
S'\x94K\x05;'
p1957
tp1958
Rp1959
tp1960
a(g56
g6
(g18
S'\xf7\x8e\x82:'
p1961
tp1962
Rp1963
tp1964
asg73
g44
sa(dp1965
g2
S'../../../data/emanuela/activity-recognition/images/NTCIR-Lifelog-256/u3/2015-07-17/b00000540_21i79q_20150717_182921e.jpg'
p1966
sg4
(lp1967
(g44
g6
(g18
S'\xb9_??'
p1968
tp1969
Rp1970
tp1971
a(g166
g6
(g18
S'\xc9\xed\xee='
p1972
tp1973
Rp1974
tp1975
a(g189
g6
(g18
S'?\xc8\x9a='
p1976
tp1977
Rp1978
tp1979
a(g32
g6
(g18
S'\xc9/\xe5<'
p1980
tp1981
Rp1982
tp1983
a(g348
g6
(g18
S'g\x87;<'
p1984
tp1985
Rp1986
tp1987
asg73
g44
sa(dp1988
g2
S'../../../data/emanuela/activity-recognition/images/NTCIR-Lifelog-256/u2/2015-04-28/b00006328_21i7lf_20150428_091313e.jpg'
p1989
sg4
(lp1990
(g44
g6
(g18
S'\xb7\x1e|?'
p1991
tp1992
Rp1993
tp1994
a(g348
g6
(g18
S'\xd9*\x08<'
p1995
tp1996
Rp1997
tp1998
a(g189
g6
(g18
S' O\xd5:'
p1999
tp2000
Rp2001
tp2002
a(g32
g6
(g18
S'\x0c\x87\x90:'
p2003
tp2004
Rp2005
tp2006
a(g232
g6
(g18
S'\x99\xfbi:'
p2007
tp2008
Rp2009
tp2010
asg73
g44
sa(dp2011
g2
S'../../../data/emanuela/activity-recognition/images/NTCIR-Lifelog-256/u1/2015-03-06/b00000505_21i6bq_20150306_104819e.jpg'
p2012
sg4
(lp2013
(g44
g6
(g18
S'\x87=k?'
p2014
tp2015
Rp2016
tp2017
a(g189
g6
(g18
S'\x80[\x10='
p2018
tp2019
Rp2020
tp2021
a(g32
g6
(g18
S'U\x15\xbf<'
p2022
tp2023
Rp2024
tp2025
a(g348
g6
(g18
S'\x117\xe9;'
p2026
tp2027
Rp2028
tp2029
a(g166
g6
(g18
S'\x0bz^;'
p2030
tp2031
Rp2032
tp2033
asg73
g44
sa(dp2034
g2
S'../../../data/emanuela/activity-recognition/images/NTCIR-Lifelog-256/u1/2015-03-16/b00002233_21i6bq_20150316_142357e.jpg'
p2035
sg4
(lp2036
(g290
g6
(g18
S'\xac\xd8#?'
p2037
tp2038
Rp2039
tp2040
a(g44
g6
(g18
S'1\xa2\x1e>'
p2041
tp2042
Rp2043
tp2044
a(g104
g6
(g18
S'Z$\xa1='
p2045
tp2046
Rp2047
tp2048
a(g123
g6
(g18
S'\xd5"\xe1<'
p2049
tp2050
Rp2051
tp2052
a(g56
g6
(g18
S'6s\xd3<'
p2053
tp2054
Rp2055
tp2056
asg73
g44
sa(dp2057
g2
S'../../../data/emanuela/activity-recognition/images/NTCIR-Lifelog-256/u2/2015-04-27/b00005371_21i7lf_20150427_131321e.jpg'
p2058
sg4
(lp2059
(g348
g6
(g18
S'\xe52j?'
p2060
tp2061
Rp2062
tp2063
a(g44
g6
(g18
S'\xf6vQ='
p2064
tp2065
Rp2066
tp2067
a(g56
g6
(g18
S'\xca\x19\xb7<'
p2068
tp2069
Rp2070
tp2071
a(g189
g6
(g18
S'\x16\x8e\x8f;'
p2072
tp2073
Rp2074
tp2075
a(g817
g6
(g18
S'\x9d\x1a6;'
p2076
tp2077
Rp2078
tp2079
asg73
g44
sa(dp2080
g2
S'../../../data/emanuela/activity-recognition/images/NTCIR-Lifelog-256/u1/2015-03-08/b00000441_21i6bq_20150308_122934e.jpg'
p2081
sg4
(lp2082
(g44
g6
(g18
S'Qkc?'
p2083
tp2084
Rp2085
tp2086
a(g232
g6
(g18
S'&\x18$='
p2087
tp2088
Rp2089
tp2090
a(g290
g6
(g18
S'\xd3\x07\r='
p2091
tp2092
Rp2093
tp2094
a(g104
g6
(g18
S'8\xa4\xfa;'
p2095
tp2096
Rp2097
tp2098
a(g166
g6
(g18
S'\xe1\xa7\xf6;'
p2099
tp2100
Rp2101
tp2102
asg73
g44
sa(dp2103
g2
S'../../../data/emanuela/activity-recognition/images/NTCIR-Lifelog-256/u3/2015-06-18/b00000214_21i79q_20150618_153828e.jpg'
p2104
sg4
(lp2105
(g1385
g6
(g18
S'\x82\xb0\x0e?'
p2106
tp2107
Rp2108
tp2109
a(g68
g6
(g18
S'\xa0\x0e2>'
p2110
tp2111
Rp2112
tp2113
a(g166
g6
(g18
S'\x9c\x10\x8a='
p2114
tp2115
Rp2116
tp2117
a(g786
g6
(g18
S'u\xc6J='
p2118
tp2119
Rp2120
tp2121
a(g56
g6
(g18
S'\x15\x04\x11='
p2122
tp2123
Rp2124
tp2125
asg73
g44
sa(dp2126
g2
S'../../../data/emanuela/activity-recognition/images/NTCIR-Lifelog-256/u2/2015-05-03/b00004057_21i7lf_20150503_173621e.jpg'
p2127
sg4
(lp2128
(g44
g6
(g18
S'\xca\x9fF?'
p2129
tp2130
Rp2131
tp2132
a(g348
g6
(g18
S'\xe7\xeb\xdb='
p2133
tp2134
Rp2135
tp2136
a(g32
g6
(g18
S'\xf6\xc6\xa8='
p2137
tp2138
Rp2139
tp2140
a(g56
g6
(g18
S'\xdc\x10F<'
p2141
tp2142
Rp2143
tp2144
a(g189
g6
(g18
S'\xec\xda\xd3;'
p2145
tp2146
Rp2147
tp2148
asg73
g44
sa(dp2149
g2
S'../../../data/emanuela/activity-recognition/images/NTCIR-Lifelog-256/u3/2015-06-21/b00000317_21i79q_20150621_152246e.jpg'
p2150
sg4
(lp2151
(g44
g6
(g18
S'2\ns?'
p2152
tp2153
Rp2154
tp2155
a(g232
g6
(g18
S'\t\xbf#='
p2156
tp2157
Rp2158
tp2159
a(g56
g6
(g18
S'\xd1^\xbb;'
p2160
tp2161
Rp2162
tp2163
a(g104
g6
(g18
S'\x04\x0b\xb7:'
p2164
tp2165
Rp2166
tp2167
a(g68
g6
(g18
S'[\x8e\x85:'
p2168
tp2169
Rp2170
tp2171
asg73
g44
sa(dp2172
g2
S'../../../data/emanuela/activity-recognition/images/NTCIR-Lifelog-256/u3/2015-07-11/b00001151_21i79q_20150711_175516e.jpg'
p2173
sg4
(lp2174
(g44
g6
(g18
S'_*v?'
p2175
tp2176
Rp2177
tp2178
a(g290
g6
(g18
S'-,\x94<'
p2179
tp2180
Rp2181
tp2182
a(g232
g6
(g18
S'c\xf8\xf5;'
p2183
tp2184
Rp2185
tp2186
a(g104
g6
(g18
S' \xf6\x95;'
p2187
tp2188
Rp2189
tp2190
a(g68
g6
(g18
S'\x02R\xd3:'
p2191
tp2192
Rp2193
tp2194
asg73
g44
sa(dp2195
g2
S'../../../data/emanuela/activity-recognition/images/NTCIR-Lifelog-256/u2/2015-04-22/b00000528_21i7lf_20150422_180948e.jpg'
p2196
sg4
(lp2197
(g44
g6
(g18
S'c\xce\x1d?'
p2198
tp2199
Rp2200
tp2201
a(g201
g6
(g18
S'\xfa\xc3\x94>'
p2202
tp2203
Rp2204
tp2205
a(g290
g6
(g18
S'\x9f\x12I='
p2206
tp2207
Rp2208
tp2209
a(g189
g6
(g18
S'_x\x0e='
p2210
tp2211
Rp2212
tp2213
a(g348
g6
(g18
S'\x08B\xc7:'
p2214
tp2215
Rp2216
tp2217
asg73
g44
sa(dp2218
g2
S'../../../data/emanuela/activity-recognition/images/NTCIR-Lifelog-256/u3/2015-06-15/b00000066_21i79q_20150615_091705e.jpg'
p2219
sg4
(lp2220
(g44
g6
(g18
S'\x9b\xdb\x9b>'
p2221
tp2222
Rp2223
tp2224
a(g189
g6
(g18
S'\x04\xc5K>'
p2225
tp2226
Rp2227
tp2228
a(g348
g6
(g18
S'\x0b\xc39>'
p2229
tp2230
Rp2231
tp2232
a(g166
g6
(g18
S'\x1c\x0c\xe4='
p2233
tp2234
Rp2235
tp2236
a(g32
g6
(g18
S'r\x82\\='
p2237
tp2238
Rp2239
tp2240
asg73
g44
sa(dp2241
g2
S'../../../data/emanuela/activity-recognition/images/NTCIR-Lifelog-256/u1/2015-03-13/b00001231_21i6bq_20150313_184236e.jpg'
p2242
sg4
(lp2243
(g44
g6
(g18
S'\x14\x8bn?'
p2244
tp2245
Rp2246
tp2247
a(g189
g6
(g18
S'\xca\x9d\xff<'
p2248
tp2249
Rp2250
tp2251
a(g88
g6
(g18
S'\xa8@V<'
p2252
tp2253
Rp2254
tp2255
a(g348
g6
(g18
S'LK\xbe;'
p2256
tp2257
Rp2258
tp2259
a(g166
g6
(g18
S'>\x87\x89;'
p2260
tp2261
Rp2262
tp2263
asg73
g44
sa(dp2264
g2
S'../../../data/emanuela/activity-recognition/images/NTCIR-Lifelog-256/u3/2015-07-11/b00001146_21i79q_20150711_175514e.jpg'
p2265
sg4
(lp2266
(g44
g6
(g18
S'Qiv?'
p2267
tp2268
Rp2269
tp2270
a(g290
g6
(g18
S'\xa1k|<'
p2271
tp2272
Rp2273
tp2274
a(g232
g6
(g18
S'\xc6\x82\xfc;'
p2275
tp2276
Rp2277
tp2278
a(g68
g6
(g18
S'Z\x86\xe2;'
p2279
tp2280
Rp2281
tp2282
a(g56
g6
(g18
S'\x19\xe7\x1e;'
p2283
tp2284
Rp2285
tp2286
asg73
g44
sa(dp2287
g2
S'../../../data/emanuela/activity-recognition/images/NTCIR-Lifelog-256/u2/2015-04-25/b00002988_21i7lf_20150425_105935e.jpg'
p2288
sg4
(lp2289
(g32
g6
(g18
S'\x13\xc2\xde>'
p2290
tp2291
Rp2292
tp2293
a(g817
g6
(g18
S'\x14\xff\xe6='
p2294
tp2295
Rp2296
tp2297
a(g348
g6
(g18
S'\xdf\x9c\xe6='
p2298
tp2299
Rp2300
tp2301
a(g68
g6
(g18
S'}\xf3\x8b='
p2302
tp2303
Rp2304
tp2305
a(g44
g6
(g18
S'\xb6n\x86='
p2306
tp2307
Rp2308
tp2309
asg73
g44
sa(dp2310
g2
S'../../../data/emanuela/activity-recognition/images/NTCIR-Lifelog-256/u2/2015-04-30/b00000998_21i7lf_20150430_125740e.jpg'
p2311
sg4
(lp2312
(g817
g6
(g18
S'\x84\xcc\xeb>'
p2313
tp2314
Rp2315
tp2316
a(g32
g6
(g18
S'\xa9Z">'
p2317
tp2318
Rp2319
tp2320
a(g15
g6
(g18
S'\x0fu\xe7='
p2321
tp2322
Rp2323
tp2324
a(g848
g6
(g18
S'\xa1C\x9f='
p2325
tp2326
Rp2327
tp2328
a(g290
g6
(g18
S'\x92je='
p2329
tp2330
Rp2331
tp2332
asg73
g44
sa(dp2333
g2
S'../../../data/emanuela/activity-recognition/images/NTCIR-Lifelog-256/u2/2015-04-25/b00002997_21i7lf_20150425_110458e.jpg'
p2334
sg4
(lp2335
(g44
g6
(g18
S'^\x91v?'
p2336
tp2337
Rp2338
tp2339
a(g32
g6
(g18
S'n\x90\x8e<'
p2340
tp2341
Rp2342
tp2343
a(g348
g6
(g18
S'\xd3F\x16<'
p2344
tp2345
Rp2346
tp2347
a(g189
g6
(g18
S'\xb18\x14;'
p2348
tp2349
Rp2350
tp2351
a(g56
g6
(g18
S'\x91\xac\x00;'
p2352
tp2353
Rp2354
tp2355
asg73
g44
sa(dp2356
g2
S'../../../data/emanuela/activity-recognition/images/NTCIR-Lifelog-256/u1/2015-03-16/b00002308_21i6bq_20150316_150032e.jpg'
p2357
sg4
(lp2358
(g44
g6
(g18
S'1\xdfl?'
p2359
tp2360
Rp2361
tp2362
a(g232
g6
(g18
S'z\xab-='
p2363
tp2364
Rp2365
tp2366
a(g104
g6
(g18
S'#\x9dS<'
p2367
tp2368
Rp2369
tp2370
a(g786
g6
(g18
S'{\xde\x9a;'
p2371
tp2372
Rp2373
tp2374
a(g290
g6
(g18
S'vH\x85;'
p2375
tp2376
Rp2377
tp2378
asg73
g44
sa(dp2379
g2
S'../../../data/emanuela/activity-recognition/images/NTCIR-Lifelog-256/u2/2015-05-07/b00007884_21i7lf_20150507_170200e.jpg'
p2380
sg4
(lp2381
(g32
g6
(g18
S'\x8a\x83\xb6>'
p2382
tp2383
Rp2384
tp2385
a(g189
g6
(g18
S'\xa6\xbef>'
p2386
tp2387
Rp2388
tp2389
a(g44
g6
(g18
S'\xc236>'
p2390
tp2391
Rp2392
tp2393
a(g290
g6
(g18
S'\xffsa='
p2394
tp2395
Rp2396
tp2397
a(g68
g6
(g18
S'\xc6\xd5,='
p2398
tp2399
Rp2400
tp2401
asg73
g44
sa(dp2402
g2
S'../../../data/emanuela/activity-recognition/images/NTCIR-Lifelog-256/u2/2015-04-20/b00001212_21i7lf_20150420_221447e.jpg'
p2403
sg4
(lp2404
(g166
g6
(g18
S'\xfc8\x05?'
p2405
tp2406
Rp2407
tp2408
a(g189
g6
(g18
S'\xe77{>'
p2409
tp2410
Rp2411
tp2412
a(g44
g6
(g18
S'\x90u\xf0='
p2413
tp2414
Rp2415
tp2416
a(g1385
g6
(g18
S'V\xda\x14='
p2417
tp2418
Rp2419
tp2420
a(g348
g6
(g18
S'\xf6\x01\xb4<'
p2421
tp2422
Rp2423
tp2424
asg73
g44
sa(dp2425
g2
S'../../../data/emanuela/activity-recognition/images/NTCIR-Lifelog-256/u2/2015-05-08/b00009409_21i7lf_20150508_165626e.jpg'
p2426
sg4
(lp2427
(g44
g6
(g18
S'\xed_M?'
p2428
tp2429
Rp2430
tp2431
a(g189
g6
(g18
S'\xf3H\x15>'
p2432
tp2433
Rp2434
tp2435
a(g232
g6
(g18
S'~4\x9f<'
p2436
tp2437
Rp2438
tp2439
a(g104
g6
(g18
S'\x8bp\x83<'
p2440
tp2441
Rp2442
tp2443
a(g201
g6
(g18
S'\xb9G\xa8;'
p2444
tp2445
Rp2446
tp2447
asg73
g44
sa(dp2448
g2
S'../../../data/emanuela/activity-recognition/images/NTCIR-Lifelog-256/u2/2015-05-06/b00007092_21i7lf_20150506_173728e.jpg'
p2449
sg4
(lp2450
(g44
g6
(g18
S'\xbd\xe1y?'
p2451
tp2452
Rp2453
tp2454
a(g232
g6
(g18
S'\xa7\x1b\x9b;'
p2455
tp2456
Rp2457
tp2458
a(g189
g6
(g18
S'\xe6Rq;'
p2459
tp2460
Rp2461
tp2462
a(g56
g6
(g18
S'!I\x13;'
p2463
tp2464
Rp2465
tp2466
a(g32
g6
(g18
S'7\xb5\r;'
p2467
tp2468
Rp2469
tp2470
asg73
g44
sa(dp2471
g2
S'../../../data/emanuela/activity-recognition/images/NTCIR-Lifelog-256/u2/2015-06-16/b00001437_21i7lf_20150616_082831e.jpg'
p2472
sg4
(lp2473
(g44
g6
(g18
S'\xb2<b?'
p2474
tp2475
Rp2476
tp2477
a(g232
g6
(g18
S'\xc2Ws='
p2478
tp2479
Rp2480
tp2481
a(g56
g6
(g18
S'\xbc\xb0|<'
p2482
tp2483
Rp2484
tp2485
a(g88
g6
(g18
S'\xa6Zv<'
p2486
tp2487
Rp2488
tp2489
a(g68
g6
(g18
S'\xb0P\xf1;'
p2490
tp2491
Rp2492
tp2493
asg73
g44
sa(dp2494
g2
S'../../../data/emanuela/activity-recognition/images/NTCIR-Lifelog-256/u3/2015-07-11/b00001194_21i79q_20150711_182224e.jpg'
p2495
sg4
(lp2496
(g166
g6
(g18
S'\xd2\xd9\xe8>'
p2497
tp2498
Rp2499
tp2500
a(g44
g6
(g18
S'\xa7A\xa9>'
p2501
tp2502
Rp2503
tp2504
a(g189
g6
(g18
S'+]\x9a='
p2505
tp2506
Rp2507
tp2508
a(g232
g6
(g18
S'@\xb1\x1a='
p2509
tp2510
Rp2511
tp2512
a(g201
g6
(g18
S'\x16\xaf\xbe<'
p2513
tp2514
Rp2515
tp2516
asg73
g44
sa(dp2517
g2
S'../../../data/emanuela/activity-recognition/images/NTCIR-Lifelog-256/u3/2015-07-11/b00001166_21i79q_20150711_180303e.jpg'
p2518
sg4
(lp2519
(g88
g6
(g18
S'\x1a}\xf8>'
p2520
tp2521
Rp2522
tp2523
a(g166
g6
(g18
S'\x8d\xaf\xed>'
p2524
tp2525
Rp2526
tp2527
a(g693
g6
(g18
S'1E\x97<'
p2528
tp2529
Rp2530
tp2531
a(g786
g6
(g18
S'i\xe1:<'
p2532
tp2533
Rp2534
tp2535
a(g232
g6
(g18
S'\xcd\xe6\xd5;'
p2536
tp2537
Rp2538
tp2539
asg73
g44
sa(dp2540
g2
S'../../../data/emanuela/activity-recognition/images/NTCIR-Lifelog-256/u2/2015-04-27/b00005403_21i7lf_20150427_133441e.jpg'
p2541
sg4
(lp2542
(g44
g6
(g18
S'\xbd,0?'
p2543
tp2544
Rp2545
tp2546
a(g56
g6
(g18
S'\xef% >'
p2547
tp2548
Rp2549
tp2550
a(g232
g6
(g18
S'\xa3\x9a\xb0='
p2551
tp2552
Rp2553
tp2554
a(g68
g6
(g18
S'\xf6\xbd\xd3<'
p2555
tp2556
Rp2557
tp2558
a(g104
g6
(g18
S'\xa9\xa4\xa6<'
p2559
tp2560
Rp2561
tp2562
asg73
g44
sa(dp2563
g2
S'../../../data/emanuela/activity-recognition/images/NTCIR-Lifelog-256/u2/2015-05-07/b00007734_21i7lf_20150507_152910e.jpg'
p2564
sg4
(lp2565
(g44
g6
(g18
S'\xc3@\x84>'
p2566
tp2567
Rp2568
tp2569
a(g88
g6
(g18
S'\x04e\xf8='
p2570
tp2571
Rp2572
tp2573
a(g68
g6
(g18
S'\xc7\xf6\xc7='
p2574
tp2575
Rp2576
tp2577
a(g15
g6
(g18
S'\xf1\xb8\x91='
p2578
tp2579
Rp2580
tp2581
a(g32
g6
(g18
S'\x0e+\x90='
p2582
tp2583
Rp2584
tp2585
asg73
g44
sa(dp2586
g2
S'../../../data/emanuela/activity-recognition/images/NTCIR-Lifelog-256/u1/2015-03-09/b00000275_21i6bq_20150309_094124e.jpg'
p2587
sg4
(lp2588
(g44
g6
(g18
S'\xf2\x81}?'
p2589
tp2590
Rp2591
tp2592
a(g189
g6
(g18
S'\xaa~\xa7;'
p2593
tp2594
Rp2595
tp2596
a(g232
g6
(g18
S'\x82\xbd\xd0:'
p2597
tp2598
Rp2599
tp2600
a(g348
g6
(g18
S'\x7f\x00\xb8:'
p2601
tp2602
Rp2603
tp2604
a(g32
g6
(g18
S'bG\x14:'
p2605
tp2606
Rp2607
tp2608
asg73
g44
sa(dp2609
g2
S'../../../data/emanuela/activity-recognition/images/NTCIR-Lifelog-256/u1/2015-03-08/b00000673_21i6bq_20150308_162309e.jpg'
p2610
sg4
(lp2611
(g44
g6
(g18
S'\xdf\x0b]?'
p2612
tp2613
Rp2614
tp2615
a(g232
g6
(g18
S'&\x88\x97='
p2616
tp2617
Rp2618
tp2619
a(g348
g6
(g18
S'\xfa1\x83<'
p2620
tp2621
Rp2622
tp2623
a(g56
g6
(g18
S'e\x9eP<'
p2624
tp2625
Rp2626
tp2627
a(g189
g6
(g18
S"`\\'<"
p2628
tp2629
Rp2630
tp2631
asg73
g44
sa(dp2632
g2
S'../../../data/emanuela/activity-recognition/images/NTCIR-Lifelog-256/u1/2015-02-23/b00000119_21i6bq_20150223_081546e.jpg'
p2633
sg4
(lp2634
(g189
g6
(g18
S'8)\n?'
p2635
tp2636
Rp2637
tp2638
a(g44
g6
(g18
S';\xc8\xcb>'
p2639
tp2640
Rp2641
tp2642
a(g201
g6
(g18
S'lh\xb5<'
p2643
tp2644
Rp2645
tp2646
a(g232
g6
(g18
S'\xd2/\x1c<'
p2647
tp2648
Rp2649
tp2650
a(g348
g6
(g18
S'\xc0\xe9\xd5;'
p2651
tp2652
Rp2653
tp2654
asg73
g44
sa(dp2655
g2
S'../../../data/emanuela/activity-recognition/images/NTCIR-Lifelog-256/u1/2015-02-23/b00000111_21i6bq_20150223_081200e.jpg'
p2656
sg4
(lp2657
(g44
g6
(g18
S'j_E?'
p2658
tp2659
Rp2660
tp2661
a(g232
g6
(g18
S'b\x1e\xa6='
p2662
tp2663
Rp2664
tp2665
a(g88
g6
(g18
S'\xc8\x8eF='
p2666
tp2667
Rp2668
tp2669
a(g693
g6
(g18
S'x/\xf1<'
p2670
tp2671
Rp2672
tp2673
a(g166
g6
(g18
S'\x99\x90\x96<'
p2674
tp2675
Rp2676
tp2677
asg73
g44
sa(dp2678
g2
S'../../../data/emanuela/activity-recognition/images/NTCIR-Lifelog-256/u2/2015-06-18/b00002589_21i7lf_20150618_094840e.jpg'
p2679
sg4
(lp2680
(g44
g6
(g18
S'\x12\xf4y?'
p2681
tp2682
Rp2683
tp2684
a(g56
g6
(g18
S',;\xd4;'
p2685
tp2686
Rp2687
tp2688
a(g232
g6
(g18
S'A9\x8c;'
p2689
tp2690
Rp2691
tp2692
a(g104
g6
(g18
S'\xb9"\x87;'
p2693
tp2694
Rp2695
tp2696
a(g68
g6
(g18
S'\x156x;'
p2697
tp2698
Rp2699
tp2700
asg73
g44
sa(dp2701
g2
S'../../../data/emanuela/activity-recognition/images/NTCIR-Lifelog-256/u1/2015-03-13/b00001236_21i6bq_20150313_184615e.jpg'
p2702
sg4
(lp2703
(g56
g6
(g18
S'\x98\xb9=?'
p2704
tp2705
Rp2706
tp2707
a(g68
g6
(g18
S'g\xb3Z='
p2708
tp2709
Rp2710
tp2711
a(g44
g6
(g18
S'\x93}H='
p2712
tp2713
Rp2714
tp2715
a(g32
g6
(g18
S'\xef\xba\x1c='
p2716
tp2717
Rp2718
tp2719
a(g88
g6
(g18
S'\xa0N\xa8<'
p2720
tp2721
Rp2722
tp2723
asg73
g44
sa(dp2724
g2
S'../../../data/emanuela/activity-recognition/images/NTCIR-Lifelog-256/u1/2015-03-15/b00001417_21i6bq_20150315_212719e.jpg'
p2725
sg4
(lp2726
(g44
g6
(g18
S'b-6?'
p2727
tp2728
Rp2729
tp2730
a(g32
g6
(g18
S'9\x9f\xa1='
p2731
tp2732
Rp2733
tp2734
a(g1385
g6
(g18
S'\xf0\xcd\x88='
p2735
tp2736
Rp2737
tp2738
a(g166
g6
(g18
S'\x95[\xd2<'
p2739
tp2740
Rp2741
tp2742
a(g104
g6
(g18
S'\xcfc\xbd<'
p2743
tp2744
Rp2745
tp2746
asg73
g44
sa(dp2747
g2
S'../../../data/emanuela/activity-recognition/images/NTCIR-Lifelog-256/u2/2015-04-22/b00001348_21i7lf_20150422_121824e.jpg'
p2748
sg4
(lp2749
(g104
g6
(g18
S'7o\x01?'
p2750
tp2751
Rp2752
tp2753
a(g44
g6
(g18
S'\x8b*\x80>'
p2754
tp2755
Rp2756
tp2757
a(g189
g6
(g18
S'\xa3+\x1a='
p2758
tp2759
Rp2760
tp2761
a(g15
g6
(g18
S'\x89&\x10='
p2762
tp2763
Rp2764
tp2765
a(g68
g6
(g18
S'\\W\xdb<'
p2766
tp2767
Rp2768
tp2769
asg73
g44
sa(dp2770
g2
S'../../../data/emanuela/activity-recognition/images/NTCIR-Lifelog-256/u1/2015-02-26/b00000148_21i6bq_20150226_073434e.jpg'
p2771
sg4
(lp2772
(g44
g6
(g18
S'\xb2\xb3\x0e?'
p2773
tp2774
Rp2775
tp2776
a(g189
g6
(g18
S'\xc7\x88\xdf='
p2777
tp2778
Rp2779
tp2780
a(g290
g6
(g18
S'.\x8d\x94='
p2781
tp2782
Rp2783
tp2784
a(g123
g6
(g18
S'`\xb5r='
p2785
tp2786
Rp2787
tp2788
a(g68
g6
(g18
S'\xa9\xdec='
p2789
tp2790
Rp2791
tp2792
asg73
g44
sa(dp2793
g2
S'../../../data/emanuela/activity-recognition/images/NTCIR-Lifelog-256/u2/2015-06-19/b00003202_21i7lf_20150619_083042e.jpg'
p2794
sg4
(lp2795
(g44
g6
(g18
S'\xd4\x0c\xa6>'
p2796
tp2797
Rp2798
tp2799
a(g104
g6
(g18
S'X\x1aw>'
p2800
tp2801
Rp2802
tp2803
a(g232
g6
(g18
S'\x8c\x8b\xf4='
p2804
tp2805
Rp2806
tp2807
a(g166
g6
(g18
S'\xb3\xf1\x82='
p2808
tp2809
Rp2810
tp2811
a(g68
g6
(g18
S'\xf1\x90>='
p2812
tp2813
Rp2814
tp2815
asg73
g44
sa(dp2816
g2
S'../../../data/emanuela/activity-recognition/images/NTCIR-Lifelog-256/u2/2015-05-01/b00002403_21i7lf_20150501_162627e.jpg'
p2817
sg4
(lp2818
(g44
g6
(g18
S'YP=?'
p2819
tp2820
Rp2821
tp2822
a(g348
g6
(g18
S'\xb2\xe6\x9d='
p2823
tp2824
Rp2825
tp2826
a(g232
g6
(g18
S'O\x98\x84='
p2827
tp2828
Rp2829
tp2830
a(g189
g6
(g18
S'\x12\xc6\x80='
p2831
tp2832
Rp2833
tp2834
a(g56
g6
(g18
S'\xb0\xe6\xc7<'
p2835
tp2836
Rp2837
tp2838
asg73
g44
sa(dp2839
g2
S'../../../data/emanuela/activity-recognition/images/NTCIR-Lifelog-256/u2/2015-05-06/b00006850_21i7lf_20150506_150435e.jpg'
p2840
sg4
(lp2841
(g44
g6
(g18
S'.b\x7f?'
p2842
tp2843
Rp2844
tp2845
a(g232
g6
(g18
S'\xdc\xeb\x96:'
p2846
tp2847
Rp2848
tp2849
a(g189
g6
(g18
S'q\xe7\x88:'
p2850
tp2851
Rp2852
tp2853
a(g104
g6
(g18
S'}Y\xbc8'
p2854
tp2855
Rp2856
tp2857
a(g56
g6
(g18
S'\xbb\xbe\xd27'
p2858
tp2859
Rp2860
tp2861
asg73
g44
sa(dp2862
g2
S'../../../data/emanuela/activity-recognition/images/NTCIR-Lifelog-256/u1/2015-03-08/b00000383_21i6bq_20150308_115837e.jpg'
p2863
sg4
(lp2864
(g44
g6
(g18
S'f\xabs?'
p2865
tp2866
Rp2867
tp2868
a(g290
g6
(g18
S'\x9c \xf1<'
p2869
tp2870
Rp2871
tp2872
a(g104
g6
(g18
S'}\xea\xbf;'
p2873
tp2874
Rp2875
tp2876
a(g88
g6
(g18
S'm8\x95;'
p2877
tp2878
Rp2879
tp2880
a(g68
g6
(g18
S'\xec\xdb$;'
p2881
tp2882
Rp2883
tp2884
asg73
g44
sa(dp2885
g2
S'../../../data/emanuela/activity-recognition/images/NTCIR-Lifelog-256/u2/2015-04-24/b00002486_21i7lf_20150424_145146e.jpg'
p2886
sg4
(lp2887
(g44
g6
(g18
S'5\xa7S?'
p2888
tp2889
Rp2890
tp2891
a(g201
g6
(g18
S'\xfe\x13\x87='
p2892
tp2893
Rp2894
tp2895
a(g104
g6
(g18
S'\xa6\xc9+='
p2896
tp2897
Rp2898
tp2899
a(g189
g6
(g18
S'\xc1\x1d\xad<'
p2900
tp2901
Rp2902
tp2903
a(g290
g6
(g18
S'\x00\xcf]<'
p2904
tp2905
Rp2906
tp2907
asg73
g44
sa(dp2908
g2
S'../../../data/emanuela/activity-recognition/images/NTCIR-Lifelog-256/u2/2015-06-17/b00002398_21i7lf_20150617_134038e.jpg'
p2909
sg4
(lp2910
(g44
g6
(g18
S'\xabzP?'
p2911
tp2912
Rp2913
tp2914
a(g88
g6
(g18
S'1\xb3\xcb='
p2915
tp2916
Rp2917
tp2918
a(g232
g6
(g18
S'\xa6\x83\xce<'
p2919
tp2920
Rp2921
tp2922
a(g104
g6
(g18
S'\xfa\xc5\x99<'
p2923
tp2924
Rp2925
tp2926
a(g848
g6
(g18
S's\xd2i<'
p2927
tp2928
Rp2929
tp2930
asg73
g44
sa(dp2931
g2
S'../../../data/emanuela/activity-recognition/images/NTCIR-Lifelog-256/u2/2015-06-20/b00004143_21i7lf_20150620_081419e.jpg'
p2932
sg4
(lp2933
(g232
g6
(g18
S'\xe3\xb1\x9f>'
p2934
tp2935
Rp2936
tp2937
a(g693
g6
(g18
S'h\xa3h>'
p2938
tp2939
Rp2940
tp2941
a(g44
g6
(g18
S'`\x9c;>'
p2942
tp2943
Rp2944
tp2945
a(g104
g6
(g18
S'2\x97\xb3='
p2946
tp2947
Rp2948
tp2949
a(g88
g6
(g18
S'\xcbpH='
p2950
tp2951
Rp2952
tp2953
asg73
g44
sa(dp2954
g2
S'../../../data/emanuela/activity-recognition/images/NTCIR-Lifelog-256/u2/2015-04-23/b00001059_21i7lf_20150423_122600e.jpg'
p2955
sg4
(lp2956
(g44
g6
(g18
S'\x99xK?'
p2957
tp2958
Rp2959
tp2960
a(g32
g6
(g18
S'G\r\x8f='
p2961
tp2962
Rp2963
tp2964
a(g104
g6
(g18
S'\xa8\xeb|='
p2965
tp2966
Rp2967
tp2968
a(g15
g6
(g18
S'\x93\xb2\xf8<'
p2969
tp2970
Rp2971
tp2972
a(g848
g6
(g18
S',\x948<'
p2973
tp2974
Rp2975
tp2976
asg73
g44
sa(dp2977
g2
S'../../../data/emanuela/activity-recognition/images/NTCIR-Lifelog-256/u1/2015-03-09/b00000308_21i6bq_20150309_100242e.jpg'
p2978
sg4
(lp2979
(g44
g6
(g18
S'\x97<x?'
p2980
tp2981
Rp2982
tp2983
a(g32
g6
(g18
S'\x9c\xb5\xde;'
p2984
tp2985
Rp2986
tp2987
a(g189
g6
(g18
S'QV\xd1;'
p2988
tp2989
Rp2990
tp2991
a(g232
g6
(g18
S'\xcc\x8e\xcd;'
p2992
tp2993
Rp2994
tp2995
a(g348
g6
(g18
S'\xa7]\x91;'
p2996
tp2997
Rp2998
tp2999
asg73
g44
sa(dp3000
g2
S'../../../data/emanuela/activity-recognition/images/NTCIR-Lifelog-256/u3/2015-07-11/b00001583_21i79q_20150711_221702e.jpg'
p3001
sg4
(lp3002
(g44
g6
(g18
S'\xf2#"?'
p3003
tp3004
Rp3005
tp3006
a(g232
g6
(g18
S'qC\x05>'
p3007
tp3008
Rp3009
tp3010
a(g104
g6
(g18
S'\xdd"\xf3='
p3011
tp3012
Rp3013
tp3014
a(g348
g6
(g18
S'\x7f\xa1\x17='
p3015
tp3016
Rp3017
tp3018
a(g56
g6
(g18
S'Ws\xf7<'
p3019
tp3020
Rp3021
tp3022
asg73
g44
sa(dp3023
g2
S'../../../data/emanuela/activity-recognition/images/NTCIR-Lifelog-256/u2/2015-04-27/b00005422_21i7lf_20150427_134614e.jpg'
p3024
sg4
(lp3025
(g44
g6
(g18
S'(.\\?'
p3026
tp3027
Rp3028
tp3029
a(g32
g6
(g18
S'\xba\xfd\x8c='
p3030
tp3031
Rp3032
tp3033
a(g189
g6
(g18
S'\xd8\xdb\x04='
p3034
tp3035
Rp3036
tp3037
a(g348
g6
(g18
S'\xc7\x832<'
p3038
tp3039
Rp3040
tp3041
a(g232
g6
(g18
S'2\xe6\xa3;'
p3042
tp3043
Rp3044
tp3045
asg73
g44
sa(dp3046
g2
S'../../../data/emanuela/activity-recognition/images/NTCIR-Lifelog-256/u2/2015-06-17/b00002400_21i7lf_20150617_134203e.jpg'
p3047
sg4
(lp3048
(g44
g6
(g18
S'\x0e\xc1J?'
p3049
tp3050
Rp3051
tp3052
a(g104
g6
(g18
S'\xa1\xd3\x95='
p3053
tp3054
Rp3055
tp3056
a(g68
g6
(g18
S'X\x84`='
p3057
tp3058
Rp3059
tp3060
a(g693
g6
(g18
S'\xa1\x93\xaa<'
p3061
tp3062
Rp3063
tp3064
a(g88
g6
(g18
S'\xc2)k<'
p3065
tp3066
Rp3067
tp3068
asg73
g44
sa(dp3069
g2
S'../../../data/emanuela/activity-recognition/images/NTCIR-Lifelog-256/u1/2015-03-15/b00000132_21i6bq_20150315_090116e.jpg'
p3070
sg4
(lp3071
(g1385
g6
(g18
S'eQ\x17?'
p3072
tp3073
Rp3074
tp3075
a(g166
g6
(g18
S'{:\x8e>'
p3076
tp3077
Rp3078
tp3079
a(g189
g6
(g18
S'\xfe\tl='
p3080
tp3081
Rp3082
tp3083
a(g32
g6
(g18
S'\x18d\x02='
p3084
tp3085
Rp3086
tp3087
a(g44
g6
(g18
S'\x8d\xf3\xf7<'
p3088
tp3089
Rp3090
tp3091
asg73
g44
sa(dp3092
g2
S'../../../data/emanuela/activity-recognition/images/NTCIR-Lifelog-256/u2/2015-04-27/b00005380_21i7lf_20150427_132015e.jpg'
p3093
sg4
(lp3094
(g44
g6
(g18
S'q\xad|?'
p3095
tp3096
Rp3097
tp3098
a(g348
g6
(g18
S'\x9f+\x9f;'
p3099
tp3100
Rp3101
tp3102
a(g290
g6
(g18
S'\x15-x;'
p3103
tp3104
Rp3105
tp3106
a(g232
g6
(g18
S'\x12Y\xe5:'
p3107
tp3108
Rp3109
tp3110
a(g189
g6
(g18
S'5\x82\xf59'
p3111
tp3112
Rp3113
tp3114
asg73
g44
sa(dp3115
g2
S'../../../data/emanuela/activity-recognition/images/NTCIR-Lifelog-256/u1/2015-03-08/b00000438_21i6bq_20150308_122744e.jpg'
p3116
sg4
(lp3117
(g44
g6
(g18
S'\xc7\x8au?'
p3118
tp3119
Rp3120
tp3121
a(g232
g6
(g18
S'"\x1d\x0f='
p3122
tp3123
Rp3124
tp3125
a(g56
g6
(g18
S'w\x9b[;'
p3126
tp3127
Rp3128
tp3129
a(g104
g6
(g18
S'\xc8\x83\x85:'
p3130
tp3131
Rp3132
tp3133
a(g68
g6
(g18
S'|\xa0\x1b:'
p3134
tp3135
Rp3136
tp3137
asg73
g44
sa(dp3138
g2
S'../../../data/emanuela/activity-recognition/images/NTCIR-Lifelog-256/u2/2015-06-17/b00002401_21i7lf_20150617_134239e.jpg'
p3139
sg4
(lp3140
(g68
g6
(g18
S'l\x83,?'
p3141
tp3142
Rp3143
tp3144
a(g786
g6
(g18
S'\xaf6_='
p3145
tp3146
Rp3147
tp3148
a(g56
g6
(g18
S'f\xc9^='
p3149
tp3150
Rp3151
tp3152
a(g693
g6
(g18
S'Dn(='
p3153
tp3154
Rp3155
tp3156
a(g201
g6
(g18
S'\x18\xce\x03='
p3157
tp3158
Rp3159
tp3160
asg73
g44
sa(dp3161
g2
S'../../../data/emanuela/activity-recognition/images/NTCIR-Lifelog-256/u3/2015-07-11/b00001581_21i79q_20150711_221702e.jpg'
p3162
sg4
(lp3163
(g817
g6
(g18
S'0\xf1\x07?'
p3164
tp3165
Rp3166
tp3167
a(g32
g6
(g18
S'\xf6~J>'
p3168
tp3169
Rp3170
tp3171
a(g15
g6
(g18
S'\xb9n\xb5='
p3172
tp3173
Rp3174
tp3175
a(g44
g6
(g18
S'\xf2:Q='
p3176
tp3177
Rp3178
tp3179
a(g104
g6
(g18
S'\x8c\xaa\xe7<'
p3180
tp3181
Rp3182
tp3183
asg73
g44
sa(dp3184
g2
S'../../../data/emanuela/activity-recognition/images/NTCIR-Lifelog-256/u2/2015-05-06/b00006845_21i7lf_20150506_150111e.jpg'
p3185
sg4
(lp3186
(g44
g6
(g18
S'\x0f\xc3\x7f?'
p3187
tp3188
Rp3189
tp3190
a(g232
g6
(g18
S'\x06\x91 :'
p3191
tp3192
Rp3193
tp3194
a(g189
g6
(g18
S'\xcdB89'
p3195
tp3196
Rp3197
tp3198
a(g348
g6
(g18
S'\x00o\r8'
p3199
tp3200
Rp3201
tp3202
a(g104
g6
(g18
S'\xce{\xdd7'
p3203
tp3204
Rp3205
tp3206
asg73
g44
sa(dp3207
g2
S'../../../data/emanuela/activity-recognition/images/NTCIR-Lifelog-256/u2/2015-05-08/b00008648_21i7lf_20150508_085731e.jpg'
p3208
sg4
(lp3209
(g348
g6
(g18
S'\x0b\x13\xa3>'
p3210
tp3211
Rp3212
tp3213
a(g817
g6
(g18
S'&/\x88>'
p3214
tp3215
Rp3216
tp3217
a(g56
g6
(g18
S'\xaa\x0e\x13>'
p3218
tp3219
Rp3220
tp3221
a(g189
g6
(g18
S'\xb5\x8d\xed='
p3222
tp3223
Rp3224
tp3225
a(g44
g6
(g18
S'\xbe\x0b\xc8<'
p3226
tp3227
Rp3228
tp3229
asg73
g44
sa(dp3230
g2
S'../../../data/emanuela/activity-recognition/images/NTCIR-Lifelog-256/u1/2015-03-15/b00000406_21i6bq_20150315_114658e.jpg'
p3231
sg4
(lp3232
(g44
g6
(g18
S'\xfc\x03|?'
p3233
tp3234
Rp3235
tp3236
a(g189
g6
(g18
S'\xd9\xc6\xec;'
p3237
tp3238
Rp3239
tp3240
a(g232
g6
(g18
S'!o\xa2;'
p3241
tp3242
Rp3243
tp3244
a(g166
g6
(g18
S'kY0:'
p3245
tp3246
Rp3247
tp3248
a(g817
g6
(g18
S'kU\x0e:'
p3249
tp3250
Rp3251
tp3252
asg73
g44
sa(dp3253
g2
S'../../../data/emanuela/activity-recognition/images/NTCIR-Lifelog-256/u2/2015-04-21/b00000206_21i7lf_20150421_115803e.jpg'
p3254
sg4
(lp3255
(g44
g6
(g18
S'Kwb?'
p3256
tp3257
Rp3258
tp3259
a(g189
g6
(g18
S'\xbb\xb6n='
p3260
tp3261
Rp3262
tp3263
a(g56
g6
(g18
S'E:\x99<'
p3264
tp3265
Rp3266
tp3267
a(g348
g6
(g18
S'\xe75\x99<'
p3268
tp3269
Rp3270
tp3271
a(g232
g6
(g18
S'f\x0b\x03<'
p3272
tp3273
Rp3274
tp3275
asg73
g44
sa(dp3276
g2
S'../../../data/emanuela/activity-recognition/images/NTCIR-Lifelog-256/u1/2015-03-16/b00002297_21i6bq_20150316_145857e.jpg'
p3277
sg4
(lp3278
(g44
g6
(g18
S'\x00\x9f??'
p3279
tp3280
Rp3281
tp3282
a(g290
g6
(g18
S't\x8d\xac='
p3283
tp3284
Rp3285
tp3286
a(g232
g6
(g18
S'&\xf6\x1e='
p3287
tp3288
Rp3289
tp3290
a(g104
g6
(g18
S'\xcb\xf3\x01='
p3291
tp3292
Rp3293
tp3294
a(g166
g6
(g18
S'%K\xdf<'
p3295
tp3296
Rp3297
tp3298
asg73
g44
sa(dp3299
g2
S'../../../data/emanuela/activity-recognition/images/NTCIR-Lifelog-256/u3/2015-06-21/b00000329_21i79q_20150621_152937e.jpg'
p3300
sg4
(lp3301
(g44
g6
(g18
S'\xee\xf8R?'
p3302
tp3303
Rp3304
tp3305
a(g104
g6
(g18
S'%?\xdb='
p3306
tp3307
Rp3308
tp3309
a(g68
g6
(g18
S'\xe8F^<'
p3310
tp3311
Rp3312
tp3313
a(g56
g6
(g18
S'\xb3#R<'
p3314
tp3315
Rp3316
tp3317
a(g88
g6
(g18
S'E\xce\x12<'
p3318
tp3319
Rp3320
tp3321
asg73
g44
sa(dp3322
g2
S'../../../data/emanuela/activity-recognition/images/NTCIR-Lifelog-256/u2/2015-05-07/b00008251_21i7lf_20150507_204452e.jpg'
p3323
sg4
(lp3324
(g44
g6
(g18
S'\x04\x9e\x00?'
p3325
tp3326
Rp3327
tp3328
a(g104
g6
(g18
S'\t~9>'
p3329
tp3330
Rp3331
tp3332
a(g32
g6
(g18
S'Z\xa9\x0f>'
p3333
tp3334
Rp3335
tp3336
a(g88
g6
(g18
S'\xd5\x83\t='
p3337
tp3338
Rp3339
tp3340
a(g166
g6
(g18
S'\x9cg\xb8<'
p3341
tp3342
Rp3343
tp3344
asg73
g44
sa(dp3345
g2
S'../../../data/emanuela/activity-recognition/images/NTCIR-Lifelog-256/u3/2015-07-11/b00000435_21i79q_20150711_110041e.jpg'
p3346
sg4
(lp3347
(g232
g6
(g18
S'\xf2\x03\t?'
p3348
tp3349
Rp3350
tp3351
a(g44
g6
(g18
S'\x18$\xeb>'
p3352
tp3353
Rp3354
tp3355
a(g56
g6
(g18
S'\xe0Y\x02;'
p3356
tp3357
Rp3358
tp3359
a(g68
g6
(g18
S'M\xa6\x98:'
p3360
tp3361
Rp3362
tp3363
a(g189
g6
(g18
S'\x95\xdca:'
p3364
tp3365
Rp3366
tp3367
asg73
g44
sa(dp3368
g2
S'../../../data/emanuela/activity-recognition/images/NTCIR-Lifelog-256/u3/2015-07-13/b00002541_21i79q_20150713_160530e.jpg'
p3369
sg4
(lp3370
(g32
g6
(g18
S'\tl\xb8>'
p3371
tp3372
Rp3373
tp3374
a(g44
g6
(g18
S'\x91\x90\x99>'
p3375
tp3376
Rp3377
tp3378
a(g15
g6
(g18
S'G\x00U>'
p3379
tp3380
Rp3381
tp3382
a(g348
g6
(g18
S'\x99a)='
p3383
tp3384
Rp3385
tp3386
a(g88
g6
(g18
S')\xae\x1e='
p3387
tp3388
Rp3389
tp3390
asg73
g44
sa(dp3391
g2
S'../../../data/emanuela/activity-recognition/images/NTCIR-Lifelog-256/u1/2015-02-25/b00000367_21i6bq_20150225_094747e.jpg'
p3392
sg4
(lp3393
(g44
g6
(g18
S'!yq?'
p3394
tp3395
Rp3396
tp3397
a(g104
g6
(g18
S'\xd6:\x89<'
p3398
tp3399
Rp3400
tp3401
a(g189
g6
(g18
S'\xc0\x01=<'
p3402
tp3403
Rp3404
tp3405
a(g848
g6
(g18
S'\x9fZ\x1b<'
p3406
tp3407
Rp3408
tp3409
a(g32
g6
(g18
S'\x8a\xd6\xb4;'
p3410
tp3411
Rp3412
tp3413
asg73
g44
sa(dp3414
g2
S'../../../data/emanuela/activity-recognition/images/NTCIR-Lifelog-256/u2/2015-05-06/b00006289_21i7lf_20150506_075955e.jpg'
p3415
sg4
(lp3416
(g44
g6
(g18
S'>\x08l?'
p3417
tp3418
Rp3419
tp3420
a(g32
g6
(g18
S'\x93\xf1\xd2<'
p3421
tp3422
Rp3423
tp3424
a(g68
g6
(g18
S'\xaa\x93\x1f<'
p3425
tp3426
Rp3427
tp3428
a(g189
g6
(g18
S'\xea\x80\x08<'
p3429
tp3430
Rp3431
tp3432
a(g123
g6
(g18
S'\x08}\xd2;'
p3433
tp3434
Rp3435
tp3436
asg73
g44
sa(dp3437
g2
S'../../../data/emanuela/activity-recognition/images/NTCIR-Lifelog-256/u3/2015-06-21/b00000587_21i79q_20150621_180318e.jpg'
p3438
sg4
(lp3439
(g166
g6
(g18
S'6\x02B>'
p3440
tp3441
Rp3442
tp3443
a(g693
g6
(g18
S'%\xd2\x19>'
p3444
tp3445
Rp3446
tp3447
a(g32
g6
(g18
S'\xc9\xbc\xdc='
p3448
tp3449
Rp3450
tp3451
a(g68
g6
(g18
S'2A\xce='
p3452
tp3453
Rp3454
tp3455
a(g786
g6
(g18
S'\x11\x1c\xa7='
p3456
tp3457
Rp3458
tp3459
asg73
g44
sa(dp3460
g2
S'../../../data/emanuela/activity-recognition/images/NTCIR-Lifelog-256/u2/2015-05-06/b00006550_21i7lf_20150506_115454e.jpg'
p3461
sg4
(lp3462
(g44
g6
(g18
S'\xd5\x08b?'
p3463
tp3464
Rp3465
tp3466
a(g348
g6
(g18
S'TWx='
p3467
tp3468
Rp3469
tp3470
a(g32
g6
(g18
S'Z\x08\xb9<'
p3471
tp3472
Rp3473
tp3474
a(g189
g6
(g18
S'\xd17\xfa;'
p3475
tp3476
Rp3477
tp3478
a(g56
g6
(g18
S'\xceA\xd4;'
p3479
tp3480
Rp3481
tp3482
asg73
g44
sa(dp3483
g2
S'../../../data/emanuela/activity-recognition/images/NTCIR-Lifelog-256/u2/2015-04-28/b00006329_21i7lf_20150428_091344e.jpg'
p3484
sg4
(lp3485
(g32
g6
(g18
S'\x18\x15\xb9>'
p3486
tp3487
Rp3488
tp3489
a(g15
g6
(g18
S'\xb7\xdc\xb7>'
p3490
tp3491
Rp3492
tp3493
a(g44
g6
(g18
S'\x88\x9c\x17>'
p3494
tp3495
Rp3496
tp3497
a(g68
g6
(g18
S'n\xaf~='
p3498
tp3499
Rp3500
tp3501
a(g104
g6
(g18
S'\xd6\xb2\x02='
p3502
tp3503
Rp3504
tp3505
asg73
g44
sa(dp3506
g2
S'../../../data/emanuela/activity-recognition/images/NTCIR-Lifelog-256/u1/2015-03-11/b00000428_21i6bq_20150311_112026e.jpg'
p3507
sg4
(lp3508
(g44
g6
(g18
S'\x92j|?'
p3509
tp3510
Rp3511
tp3512
a(g232
g6
(g18
S'\x9f\x00\xa8;'
p3513
tp3514
Rp3515
tp3516
a(g88
g6
(g18
S'=\x9e<;'
p3517
tp3518
Rp3519
tp3520
a(g104
g6
(g18
S'h\xb8+;'
p3521
tp3522
Rp3523
tp3524
a(g189
g6
(g18
S'\x95x]:'
p3525
tp3526
Rp3527
tp3528
asg73
g44
sa(dp3529
g2
S'../../../data/emanuela/activity-recognition/images/NTCIR-Lifelog-256/u1/2015-02-23/b00001393_21i6bq_20150223_220543e.jpg'
p3530
sg4
(lp3531
(g44
g6
(g18
S'\xff\xbef?'
p3532
tp3533
Rp3534
tp3535
a(g189
g6
(g18
S'\xe3\x1ft='
p3536
tp3537
Rp3538
tp3539
a(g166
g6
(g18
S'\x98S@<'
p3540
tp3541
Rp3542
tp3543
a(g32
g6
(g18
S'Qh\xc2;'
p3544
tp3545
Rp3546
tp3547
a(g104
g6
(g18
S'%o\x83;'
p3548
tp3549
Rp3550
tp3551
asg73
g44
sa(dp3552
g2
S'../../../data/emanuela/activity-recognition/images/NTCIR-Lifelog-256/u3/2015-07-14/b00003743_21i79q_20150714_180117e.jpg'
p3553
sg4
(lp3554
(g44
g6
(g18
S'\xf6\xc4K?'
p3555
tp3556
Rp3557
tp3558
a(g348
g6
(g18
S'\xffg\xbb='
p3559
tp3560
Rp3561
tp3562
a(g32
g6
(g18
S'\x90\x1d\x96='
p3563
tp3564
Rp3565
tp3566
a(g15
g6
(g18
S'\x15*\x04<'
p3567
tp3568
Rp3569
tp3570
a(g56
g6
(g18
S'\x11\xa8\x00<'
p3571
tp3572
Rp3573
tp3574
asg73
g44
sa(dp3575
g2
S'../../../data/emanuela/activity-recognition/images/NTCIR-Lifelog-256/u1/2015-03-12/b00001143_21i6bq_20150312_200521e.jpg'
p3576
sg4
(lp3577
(g44
g6
(g18
S'!\x16b?'
p3578
tp3579
Rp3580
tp3581
a(g189
g6
(g18
S'\x85\xd8\xe2<'
p3582
tp3583
Rp3584
tp3585
a(g32
g6
(g18
S'\xe7y\xc0<'
p3586
tp3587
Rp3588
tp3589
a(g848
g6
(g18
S'\xd4\xd7\x89<'
p3590
tp3591
Rp3592
tp3593
a(g348
g6
(g18
S'K\x19S<'
p3594
tp3595
Rp3596
tp3597
asg73
g44
sa(dp3598
g2
S'../../../data/emanuela/activity-recognition/images/NTCIR-Lifelog-256/u2/2015-05-06/b00006844_21i7lf_20150506_150037e.jpg'
p3599
sg4
(lp3600
(g44
g6
(g18
S'\xc6]~?'
p3601
tp3602
Rp3603
tp3604
a(g232
g6
(g18
S'>\x17\x80;'
p3605
tp3606
Rp3607
tp3608
a(g189
g6
(g18
S'\xc9\xf7w:'
p3609
tp3610
Rp3611
tp3612
a(g104
g6
(g18
S'\x9a\xff\xea9'
p3613
tp3614
Rp3615
tp3616
a(g56
g6
(g18
S'\xf1q\xe39'
p3617
tp3618
Rp3619
tp3620
asg73
g44
sa(dp3621
g2
S'../../../data/emanuela/activity-recognition/images/NTCIR-Lifelog-256/u2/2015-04-20/b00000096_21i7lf_20150420_103249e.jpg'
p3622
sg4
(lp3623
(g68
g6
(g18
S'\xaas-?'
p3624
tp3625
Rp3626
tp3627
a(g15
g6
(g18
S']v\xcd='
p3628
tp3629
Rp3630
tp3631
a(g32
g6
(g18
S'<\xfb\xbf='
p3632
tp3633
Rp3634
tp3635
a(g693
g6
(g18
S'n5k='
p3636
tp3637
Rp3638
tp3639
a(g786
g6
(g18
S'3\xac\x12='
p3640
tp3641
Rp3642
tp3643
asg73
g44
sa(dp3644
g2
S'../../../data/emanuela/activity-recognition/images/NTCIR-Lifelog-256/u1/2015-03-05/b00000501_21i6bq_20150305_113621e.jpg'
p3645
sg4
(lp3646
(g232
g6
(g18
S"\x90j'?"
p3647
tp3648
Rp3649
tp3650
a(g44
g6
(g18
S'\x9c\xc4\x93>'
p3651
tp3652
Rp3653
tp3654
a(g88
g6
(g18
S'\xe6}\xca<'
p3655
tp3656
Rp3657
tp3658
a(g68
g6
(g18
S'\x15\x10A<'
p3659
tp3660
Rp3661
tp3662
a(g104
g6
(g18
S'Y\xda\x91;'
p3663
tp3664
Rp3665
tp3666
asg73
g44
sa(dp3667
g2
S'../../../data/emanuela/activity-recognition/images/NTCIR-Lifelog-256/u1/2015-03-17/b00001491_21i6bq_20150317_223318e.jpg'
p3668
sg4
(lp3669
(g44
g6
(g18
S'\x89TR?'
p3670
tp3671
Rp3672
tp3673
a(g104
g6
(g18
S'?^\xb9='
p3674
tp3675
Rp3676
tp3677
a(g290
g6
(g18
S'\x18Q7='
p3678
tp3679
Rp3680
tp3681
a(g693
g6
(g18
S'\x1a\xb4:<'
p3682
tp3683
Rp3684
tp3685
a(g786
g6
(g18
S'\xf8\xb5\xfa;'
p3686
tp3687
Rp3688
tp3689
asg73
g44
sa(dp3690
g2
S'../../../data/emanuela/activity-recognition/images/NTCIR-Lifelog-256/u3/2015-07-11/b00001165_21i79q_20150711_180223e.jpg'
p3691
sg4
(lp3692
(g166
g6
(g18
S'\x98\x80W?'
p3693
tp3694
Rp3695
tp3696
a(g232
g6
(g18
S'[\xc3\xb7='
p3697
tp3698
Rp3699
tp3700
a(g88
g6
(g18
S'E\x03\x18='
p3701
tp3702
Rp3703
tp3704
a(g44
g6
(g18
S'\xae\xae_<'
p3705
tp3706
Rp3707
tp3708
a(g786
g6
(g18
S'\xc4\xcf\x0b<'
p3709
tp3710
Rp3711
tp3712
asg73
g44
sa(dp3713
g2
S'../../../data/emanuela/activity-recognition/images/NTCIR-Lifelog-256/u1/2015-03-16/b00002223_21i6bq_20150316_141925e.jpg'
p3714
sg4
(lp3715
(g232
g6
(g18
S'\xc0zK?'
p3716
tp3717
Rp3718
tp3719
a(g44
g6
(g18
S'OK\x00>'
p3720
tp3721
Rp3722
tp3723
a(g166
g6
(g18
S'\x15(\xa6<'
p3724
tp3725
Rp3726
tp3727
a(g56
g6
(g18
S'%\x99\xa2<'
p3728
tp3729
Rp3730
tp3731
a(g348
g6
(g18
S'ZwD<'
p3732
tp3733
Rp3734
tp3735
asg73
g44
sa(dp3736
g2
S'../../../data/emanuela/activity-recognition/images/NTCIR-Lifelog-256/u3/2015-07-11/b00001171_21i79q_20150711_180644e.jpg'
p3737
sg4
(lp3738
(g44
g6
(g18
S'\x044;?'
p3739
tp3740
Rp3741
tp3742
a(g166
g6
(g18
S'\x05\t<='
p3743
tp3744
Rp3745
tp3746
a(g189
g6
(g18
S'\xf6\r6='
p3747
tp3748
Rp3749
tp3750
a(g693
g6
(g18
S'\x0b\xbd(='
p3751
tp3752
Rp3753
tp3754
a(g104
g6
(g18
S'\x04x\xeb<'
p3755
tp3756
Rp3757
tp3758
asg73
g44
sa(dp3759
g2
S'../../../data/emanuela/activity-recognition/images/NTCIR-Lifelog-256/u1/2015-03-19/b00002346_21i6bq_20150319_151914e.jpg'
p3760
sg4
(lp3761
(g817
g6
(g18
S'\x8d\xba\xaf>'
p3762
tp3763
Rp3764
tp3765
a(g348
g6
(g18
S'\xf9v\x8b>'
p3766
tp3767
Rp3768
tp3769
a(g44
g6
(g18
S'\xaa\x06\x04>'
p3770
tp3771
Rp3772
tp3773
a(g88
g6
(g18
S'^\x16\xd7='
p3774
tp3775
Rp3776
tp3777
a(g232
g6
(g18
S'\x12&\xd2<'
p3778
tp3779
Rp3780
tp3781
asg73
g44
sa(dp3782
g2
S'../../../data/emanuela/activity-recognition/images/NTCIR-Lifelog-256/u1/2015-03-06/b00000040_21i6bq_20150306_054322e.jpg'
p3783
sg4
(lp3784
(g104
g6
(g18
S'QV\x7f?'
p3785
tp3786
Rp3787
tp3788
a(g44
g6
(g18
S'\x81\x87\xde:'
p3789
tp3790
Rp3791
tp3792
a(g15
g6
(g18
S'\xb0\xd6i9'
p3793
tp3794
Rp3795
tp3796
a(g232
g6
(g18
S'\x8e\x1d]9'
p3797
tp3798
Rp3799
tp3800
a(g32
g6
(g18
S'/~\xe08'
p3801
tp3802
Rp3803
tp3804
asg73
g44
sa(dp3805
g2
S'../../../data/emanuela/activity-recognition/images/NTCIR-Lifelog-256/u1/2015-03-09/b00000991_21i6bq_20150309_172225e.jpg'
p3806
sg4
(lp3807
(g44
g6
(g18
S'\xed\xbez?'
p3808
tp3809
Rp3810
tp3811
a(g189
g6
(g18
S'\x91\xb1T<'
p3812
tp3813
Rp3814
tp3815
a(g232
g6
(g18
S'r\xe9\x1f;'
p3816
tp3817
Rp3818
tp3819
a(g348
g6
(g18
S'\xe3\\\xcf:'
p3820
tp3821
Rp3822
tp3823
a(g32
g6
(g18
S'>\x9a\xc7:'
p3824
tp3825
Rp3826
tp3827
asg73
g44
sa(dp3828
g2
S'../../../data/emanuela/activity-recognition/images/NTCIR-Lifelog-256/u2/2015-04-28/b00006295_21i7lf_20150428_085305e.jpg'
p3829
sg4
(lp3830
(g44
g6
(g18
S's\x14\xdf>'
p3831
tp3832
Rp3833
tp3834
a(g348
g6
(g18
S'5\xba\xb2>'
p3835
tp3836
Rp3837
tp3838
a(g189
g6
(g18
S'\xd5\x19\x06>'
p3839
tp3840
Rp3841
tp3842
a(g166
g6
(g18
S'\xeea\x16='
p3843
tp3844
Rp3845
tp3846
a(g1385
g6
(g18
S'aq\xf1<'
p3847
tp3848
Rp3849
tp3850
asg73
g44
sa(dp3851
g2
S'../../../data/emanuela/activity-recognition/images/NTCIR-Lifelog-256/u1/2015-03-06/b00000038_21i6bq_20150306_054133e.jpg'
p3852
sg4
(lp3853
(g44
g6
(g18
S'\x8b\xb2\xea>'
p3854
tp3855
Rp3856
tp3857
a(g88
g6
(g18
S'\x01G\x9a>'
p3858
tp3859
Rp3860
tp3861
a(g104
g6
(g18
S'\x1d3\x00>'
p3862
tp3863
Rp3864
tp3865
a(g232
g6
(g18
S'U\xb6,='
p3866
tp3867
Rp3868
tp3869
a(g848
g6
(g18
S"I'\x8d<"
p3870
tp3871
Rp3872
tp3873
asg73
g44
sa(dp3874
g2
S'../../../data/emanuela/activity-recognition/images/NTCIR-Lifelog-256/u1/2015-02-23/b00000641_21i6bq_20150223_134636e.jpg'
p3875
sg4
(lp3876
(g44
g6
(g18
S'\r\xe9(?'
p3877
tp3878
Rp3879
tp3880
a(g232
g6
(g18
S'\xf4\xc33>'
p3881
tp3882
Rp3883
tp3884
a(g189
g6
(g18
S'\xb3\x15I='
p3885
tp3886
Rp3887
tp3888
a(g693
g6
(g18
S'\xc7n\xff<'
p3889
tp3890
Rp3891
tp3892
a(g56
g6
(g18
S'\x8d\xb1\x94<'
p3893
tp3894
Rp3895
tp3896
asg73
g44
sa(dp3897
g2
S'../../../data/emanuela/activity-recognition/images/NTCIR-Lifelog-256/u1/2015-03-05/b00000540_21i6bq_20150305_120639e.jpg'
p3898
sg4
(lp3899
(g104
g6
(g18
S'k~\t?'
p3900
tp3901
Rp3902
tp3903
a(g44
g6
(g18
S'\xb4\xaf\x81>'
p3904
tp3905
Rp3906
tp3907
a(g189
g6
(g18
S'^\xb1g='
p3908
tp3909
Rp3910
tp3911
a(g32
g6
(g18
S'\x91\xdc\xe3<'
p3912
tp3913
Rp3914
tp3915
a(g166
g6
(g18
S'1\xe7\xb6<'
p3916
tp3917
Rp3918
tp3919
asg73
g44
sa(dp3920
g2
S'../../../data/emanuela/activity-recognition/images/NTCIR-Lifelog-256/u2/2015-06-16/b00001306_21i7lf_20150616_063303e.jpg'
p3921
sg4
(lp3922
(g44
g6
(g18
S'\xe0u\xfa>'
p3923
tp3924
Rp3925
tp3926
a(g348
g6
(g18
S'G-\xa1>'
p3927
tp3928
Rp3929
tp3930
a(g32
g6
(g18
S'\xf3\x7f\xe8='
p3931
tp3932
Rp3933
tp3934
a(g15
g6
(g18
S'\x0f|\xe5<'
p3935
tp3936
Rp3937
tp3938
a(g1385
g6
(g18
S'(\xb9\x80<'
p3939
tp3940
Rp3941
tp3942
asg73
g44
sa(dp3943
g2
S'../../../data/emanuela/activity-recognition/images/NTCIR-Lifelog-256/u1/2015-03-16/b00002312_21i6bq_20150316_150412e.jpg'
p3944
sg4
(lp3945
(g44
g6
(g18
S'I\x92b?'
p3946
tp3947
Rp3948
tp3949
a(g189
g6
(g18
S'\xb7\xe5\xe2<'
p3950
tp3951
Rp3952
tp3953
a(g68
g6
(g18
S'H\xdb\x99<'
p3954
tp3955
Rp3956
tp3957
a(g88
g6
(g18
S'm~\x8f<'
p3958
tp3959
Rp3960
tp3961
a(g104
g6
(g18
S'\xde0s<'
p3962
tp3963
Rp3964
tp3965
asg73
g44
sa(dp3966
g2
S'../../../data/emanuela/activity-recognition/images/NTCIR-Lifelog-256/u2/2015-04-20/b00001215_21i7lf_20150420_221718e.jpg'
p3967
sg4
(lp3968
(g348
g6
(g18
S'\xf1q6?'
p3969
tp3970
Rp3971
tp3972
a(g1385
g6
(g18
S'\xf9\xe7\x05>'
p3973
tp3974
Rp3975
tp3976
a(g44
g6
(g18
S'X\x08\t='
p3977
tp3978
Rp3979
tp3980
a(g56
g6
(g18
S's\xf2\xd9<'
p3981
tp3982
Rp3983
tp3984
a(g189
g6
(g18
S'o1\xa0<'
p3985
tp3986
Rp3987
tp3988
asg73
g44
sa(dp3989
g2
S'../../../data/emanuela/activity-recognition/images/NTCIR-Lifelog-256/u2/2015-05-01/b00002276_21i7lf_20150501_141341e.jpg'
p3990
sg4
(lp3991
(g44
g6
(g18
S'\x01\xa2|?'
p3992
tp3993
Rp3994
tp3995
a(g189
g6
(g18
S'\x95c\x97;'
p3996
tp3997
Rp3998
tp3999
a(g201
g6
(g18
S'O\xb1-;'
p4000
tp4001
Rp4002
tp4003
a(g232
g6
(g18
S'.\xdb+;'
p4004
tp4005
Rp4006
tp4007
a(g104
g6
(g18
S'X!\x8d:'
p4008
tp4009
Rp4010
tp4011
asg73
g44
sa(dp4012
g2
S'../../../data/emanuela/activity-recognition/images/NTCIR-Lifelog-256/u1/2015-02-24/b00001437_21i6bq_20150224_211802e.jpg'
p4013
sg4
(lp4014
(g56
g6
(g18
S'\x04^\x95>'
p4015
tp4016
Rp4017
tp4018
a(g44
g6
(g18
S'\x84\xfdd>'
p4019
tp4020
Rp4021
tp4022
a(g348
g6
(g18
S']\x1c2>'
p4023
tp4024
Rp4025
tp4026
a(g32
g6
(g18
S'9d\xc4='
p4027
tp4028
Rp4029
tp4030
a(g15
g6
(g18
S'\xb9\x96\x93='
p4031
tp4032
Rp4033
tp4034
asg73
g44
sa(dp4035
g2
S'../../../data/emanuela/activity-recognition/images/NTCIR-Lifelog-256/u3/2015-07-11/b00001214_21i79q_20150711_183438e.jpg'
p4036
sg4
(lp4037
(g44
g6
(g18
S'\x11\xe7\x81>'
p4038
tp4039
Rp4040
tp4041
a(g166
g6
(g18
S'k)]>'
p4042
tp4043
Rp4044
tp4045
a(g786
g6
(g18
S'\xfa\xd5\x1c>'
p4046
tp4047
Rp4048
tp4049
a(g189
g6
(g18
S't\x9b\xc2='
p4050
tp4051
Rp4052
tp4053
a(g693
g6
(g18
S'6\xdb\xb3='
p4054
tp4055
Rp4056
tp4057
asg73
g44
sa(dp4058
g2
S'../../../data/emanuela/activity-recognition/images/NTCIR-Lifelog-256/u1/2015-03-19/b00002384_21i6bq_20150319_153246e.jpg'
p4059
sg4
(lp4060
(g44
g6
(g18
S'\xa0\x9d\x07?'
p4061
tp4062
Rp4063
tp4064
a(g68
g6
(g18
S'\x0by_>'
p4065
tp4066
Rp4067
tp4068
a(g201
g6
(g18
S'\x05gY='
p4069
tp4070
Rp4071
tp4072
a(g56
g6
(g18
S'\xfc\xacU='
p4073
tp4074
Rp4075
tp4076
a(g189
g6
(g18
S'\xd0\xfcK='
p4077
tp4078
Rp4079
tp4080
asg73
g44
sa(dp4081
g2
S'../../../data/emanuela/activity-recognition/images/NTCIR-Lifelog-256/u3/2015-06-18/b00000888_21i79q_20150618_220009e.jpg'
p4082
sg4
(lp4083
(g44
g6
(g18
S'\xb3\x0b\x02?'
p4084
tp4085
Rp4086
tp4087
a(g32
g6
(g18
S'\x9d\xb2->'
p4088
tp4089
Rp4090
tp4091
a(g348
g6
(g18
S'\x82\xef\xed='
p4092
tp4093
Rp4094
tp4095
a(g56
g6
(g18
S'\xd8;W='
p4096
tp4097
Rp4098
tp4099
a(g189
g6
(g18
S'M\xf84='
p4100
tp4101
Rp4102
tp4103
asg73
g44
sa(dp4104
g2
S'../../../data/emanuela/activity-recognition/images/NTCIR-Lifelog-256/u2/2015-06-18/b00002584_21i7lf_20150618_094520e.jpg'
p4105
sg4
(lp4106
(g123
g6
(g18
S'\xa2\xe0\xac>'
p4107
tp4108
Rp4109
tp4110
a(g56
g6
(g18
S'\x11[@>'
p4111
tp4112
Rp4113
tp4114
a(g68
g6
(g18
S'\x8a\x803>'
p4115
tp4116
Rp4117
tp4118
a(g817
g6
(g18
S'@\xf8\x06>'
p4119
tp4120
Rp4121
tp4122
a(g201
g6
(g18
S'\xbc\x04h='
p4123
tp4124
Rp4125
tp4126
asg73
g44
sa(dp4127
g2
S'../../../data/emanuela/activity-recognition/images/NTCIR-Lifelog-256/u3/2015-06-21/b00000326_21i79q_20150621_152751e.jpg'
p4128
sg4
(lp4129
(g44
g6
(g18
S'I=j?'
p4130
tp4131
Rp4132
tp4133
a(g104
g6
(g18
S'\\\xb4i<'
p4134
tp4135
Rp4136
tp4137
a(g166
g6
(g18
S'\xff\xa3f<'
p4138
tp4139
Rp4140
tp4141
a(g68
g6
(g18
S'\x06<D<'
p4142
tp4143
Rp4144
tp4145
a(g290
g6
(g18
S'8\xb5\x18<'
p4146
tp4147
Rp4148
tp4149
asg73
g44
sa(dp4150
g2
S'../../../data/emanuela/activity-recognition/images/NTCIR-Lifelog-256/u2/2015-04-29/b00000090_21i7lf_20150429_175424e.jpg'
p4151
sg4
(lp4152
(g348
g6
(g18
S'\x13\xb9\xe1>'
p4153
tp4154
Rp4155
tp4156
a(g44
g6
(g18
S'H\xa9\xad>'
p4157
tp4158
Rp4159
tp4160
a(g32
g6
(g18
S'\xba\x90\xa0='
p4161
tp4162
Rp4163
tp4164
a(g56
g6
(g18
S'IX;='
p4165
tp4166
Rp4167
tp4168
a(g189
g6
(g18
S'"\xec\'='
p4169
tp4170
Rp4171
tp4172
asg73
g44
sa(dp4173
g2
S'../../../data/emanuela/activity-recognition/images/NTCIR-Lifelog-256/u2/2015-04-24/b00002554_21i7lf_20150424_153542e.jpg'
p4174
sg4
(lp4175
(g166
g6
(g18
S'\xf0@\xc9>'
p4176
tp4177
Rp4178
tp4179
a(g189
g6
(g18
S'D*j>'
p4180
tp4181
Rp4182
tp4183
a(g44
g6
(g18
S'\x90\xa9\xca='
p4184
tp4185
Rp4186
tp4187
a(g56
g6
(g18
S'\xec-\x9f='
p4188
tp4189
Rp4190
tp4191
a(g817
g6
(g18
S'\x19w@='
p4192
tp4193
Rp4194
tp4195
asg73
g44
sa(dp4196
g2
S'../../../data/emanuela/activity-recognition/images/NTCIR-Lifelog-256/u3/2015-07-11/b00001192_21i79q_20150711_182119e.jpg'
p4197
sg4
(lp4198
(g817
g6
(g18
S'\xf2\xaf]>'
p4199
tp4200
Rp4201
tp4202
a(g189
g6
(g18
S'3\xe77>'
p4203
tp4204
Rp4205
tp4206
a(g848
g6
(g18
S'\x94\xd3*>'
p4207
tp4208
Rp4209
tp4210
a(g44
g6
(g18
S'AG\xbc='
p4211
tp4212
Rp4213
tp4214
a(g88
g6
(g18
S'T>\xb3='
p4215
tp4216
Rp4217
tp4218
asg73
g44
sa(dp4219
g2
S'../../../data/emanuela/activity-recognition/images/NTCIR-Lifelog-256/u2/2015-05-07/b00007568_21i7lf_20150507_111950e.jpg'
p4220
sg4
(lp4221
(g44
g6
(g18
S't\x88T?'
p4222
tp4223
Rp4224
tp4225
a(g189
g6
(g18
S'\xf2\xf9r='
p4226
tp4227
Rp4228
tp4229
a(g104
g6
(g18
S'\x8fi\xa4<'
p4230
tp4231
Rp4232
tp4233
a(g201
g6
(g18
S'Iu\x9b<'
p4234
tp4235
Rp4236
tp4237
a(g348
g6
(g18
S'P\xe7\x94<'
p4238
tp4239
Rp4240
tp4241
asg73
g44
sa(dp4242
g2
S'../../../data/emanuela/activity-recognition/images/NTCIR-Lifelog-256/u3/2015-06-21/b00000596_21i79q_20150621_180839e.jpg'
p4243
sg4
(lp4244
(g104
g6
(g18
S'l\x08\xc9>'
p4245
tp4246
Rp4247
tp4248
a(g44
g6
(g18
S'"\xd3\xc5>'
p4249
tp4250
Rp4251
tp4252
a(g166
g6
(g18
S'\xea,f='
p4253
tp4254
Rp4255
tp4256
a(g32
g6
(g18
S'\xcae\x05='
p4257
tp4258
Rp4259
tp4260
a(g56
g6
(g18
S'\x87\xeb\xda<'
p4261
tp4262
Rp4263
tp4264
asg73
g44
sa(dp4265
g2
S'../../../data/emanuela/activity-recognition/images/NTCIR-Lifelog-256/u2/2015-04-20/b00000269_21i7lf_20150420_121947e.jpg'
p4266
sg4
(lp4267
(g44
g6
(g18
S'\xbb\x8cl?'
p4268
tp4269
Rp4270
tp4271
a(g104
g6
(g18
S'3\x93U<'
p4272
tp4273
Rp4274
tp4275
a(g693
g6
(g18
S'\x15\xce0<'
p4276
tp4277
Rp4278
tp4279
a(g232
g6
(g18
S'H\x1f"<'
p4280
tp4281
Rp4282
tp4283
a(g68
g6
(g18
S'\x01\xf8\xe4;'
p4284
tp4285
Rp4286
tp4287
asg73
g44
sa(dp4288
g2
S'../../../data/emanuela/activity-recognition/images/NTCIR-Lifelog-256/u2/2015-04-29/b00000816_21i7lf_20150429_155726e.jpg'
p4289
sg4
(lp4290
(g44
g6
(g18
S'\x17\xdcv?'
p4291
tp4292
Rp4293
tp4294
a(g232
g6
(g18
S'\xc1\xc7\x00='
p4295
tp4296
Rp4297
tp4298
a(g189
g6
(g18
S'k\xad\x90:'
p4299
tp4300
Rp4301
tp4302
a(g32
g6
(g18
S'B[D:'
p4303
tp4304
Rp4305
tp4306
a(g104
g6
(g18
S'\x81\xd9\x15:'
p4307
tp4308
Rp4309
tp4310
asg73
g44
sa(dp4311
g2
S'../../../data/emanuela/activity-recognition/images/NTCIR-Lifelog-256/u3/2015-06-18/b00000636_21i79q_20150618_192648e.jpg'
p4312
sg4
(lp4313
(g15
g6
(g18
S'$\xd9\xa1>'
p4314
tp4315
Rp4316
tp4317
a(g1385
g6
(g18
S'\xb7\xb0\x8b>'
p4318
tp4319
Rp4320
tp4321
a(g32
g6
(g18
S'\xd0\xe0q>'
p4322
tp4323
Rp4324
tp4325
a(g104
g6
(g18
S'\xc7\xed=='
p4326
tp4327
Rp4328
tp4329
a(g44
g6
(g18
S'\xcf\xe1\xf2<'
p4330
tp4331
Rp4332
tp4333
asg73
g44
sa(dp4334
g2
S'../../../data/emanuela/activity-recognition/images/NTCIR-Lifelog-256/u2/2015-04-23/b00000861_21i7lf_20150423_093450e.jpg'
p4335
sg4
(lp4336
(g44
g6
(g18
S'7`g?'
p4337
tp4338
Rp4339
tp4340
a(g68
g6
(g18
S'$1\xdf<'
p4341
tp4342
Rp4343
tp4344
a(g32
g6
(g18
S'\xd9\x1f\xb8<'
p4345
tp4346
Rp4347
tp4348
a(g189
g6
(g18
S'\xb7\xea\x91<'
p4349
tp4350
Rp4351
tp4352
a(g15
g6
(g18
S'\xcd\xc2\xca;'
p4353
tp4354
Rp4355
tp4356
asg73
g44
sa(dp4357
g2
S'../../../data/emanuela/activity-recognition/images/NTCIR-Lifelog-256/u1/2015-03-10/b00000209_21i6bq_20150310_150340e.jpg'
p4358
sg4
(lp4359
(g44
g6
(g18
S'o\xc4|?'
p4360
tp4361
Rp4362
tp4363
a(g232
g6
(g18
S'r\x90c;'
p4364
tp4365
Rp4366
tp4367
a(g32
g6
(g18
S'\xd8\xb1\xec:'
p4368
tp4369
Rp4370
tp4371
a(g15
g6
(g18
S'X\xab\xd0:'
p4372
tp4373
Rp4374
tp4375
a(g189
g6
(g18
S'\xf9\\\xb7:'
p4376
tp4377
Rp4378
tp4379
asg73
g44
sa(dp4380
g2
S'../../../data/emanuela/activity-recognition/images/NTCIR-Lifelog-256/u3/2015-07-11/b00000000_21i79q_20150711_063753e.jpg'
p4381
sg4
(lp4382
(g88
g6
(g18
S'\xfe/\x01?'
p4383
tp4384
Rp4385
tp4386
a(g44
g6
(g18
S'XnH>'
p4387
tp4388
Rp4389
tp4390
a(g693
g6
(g18
S'\xc3\x85\xf0='
p4391
tp4392
Rp4393
tp4394
a(g166
g6
(g18
S'\xa7\xf0\xa3='
p4395
tp4396
Rp4397
tp4398
a(g786
g6
(g18
S'\xd2\x95\xf8<'
p4399
tp4400
Rp4401
tp4402
asg73
g44
sa(dp4403
g2
S'../../../data/emanuela/activity-recognition/images/NTCIR-Lifelog-256/u2/2015-04-24/b00002317_21i7lf_20150424_130857e.jpg'
p4404
sg4
(lp4405
(g44
g6
(g18
S'e3{?'
p4406
tp4407
Rp4408
tp4409
a(g189
g6
(g18
S'\xd4\xd5\x15<'
p4410
tp4411
Rp4412
tp4413
a(g232
g6
(g18
S'\x9c\xe8\x8c;'
p4414
tp4415
Rp4416
tp4417
a(g104
g6
(g18
S'W\xd4@;'
p4418
tp4419
Rp4420
tp4421
a(g123
g6
(g18
S'/\xd9\xdf9'
p4422
tp4423
Rp4424
tp4425
asg73
g44
sa(dp4426
g2
S'../../../data/emanuela/activity-recognition/images/NTCIR-Lifelog-256/u2/2015-04-27/b00004937_21i7lf_20150427_084829e.jpg'
p4427
sg4
(lp4428
(g348
g6
(g18
S'Ty\x06?'
p4429
tp4430
Rp4431
tp4432
a(g44
g6
(g18
S'J!\x90>'
p4433
tp4434
Rp4435
tp4436
a(g32
g6
(g18
S'k\x98\xa8='
p4437
tp4438
Rp4439
tp4440
a(g56
g6
(g18
S'\xd0\xb7&='
p4441
tp4442
Rp4443
tp4444
a(g817
g6
(g18
S'\xfe`\xc4<'
p4445
tp4446
Rp4447
tp4448
asg73
g44
sa(dp4449
g2
S'../../../data/emanuela/activity-recognition/images/NTCIR-Lifelog-256/u2/2015-04-20/b00001219_21i7lf_20150420_222058e.jpg'
p4450
sg4
(lp4451
(g166
g6
(g18
S'\xf5\xb0\x11?'
p4452
tp4453
Rp4454
tp4455
a(g44
g6
(g18
S'\x1c^\x8e>'
p4456
tp4457
Rp4458
tp4459
a(g189
g6
(g18
S'\xb8\x97Q='
p4460
tp4461
Rp4462
tp4463
a(g290
g6
(g18
S'\x1a\x93\xe1<'
p4464
tp4465
Rp4466
tp4467
a(g1385
g6
(g18
S'\xbc6\x9c<'
p4468
tp4469
Rp4470
tp4471
asg73
g44
sa(dp4472
g2
S'../../../data/emanuela/activity-recognition/images/NTCIR-Lifelog-256/u3/2015-06-18/b00000640_21i79q_20150618_192946e.jpg'
p4473
sg4
(lp4474
(g44
g6
(g18
S'\xc8\xb8\xdc>'
p4475
tp4476
Rp4477
tp4478
a(g348
g6
(g18
S'\xf9\xf4]>'
p4479
tp4480
Rp4481
tp4482
a(g32
g6
(g18
S'o%C>'
p4483
tp4484
Rp4485
tp4486
a(g166
g6
(g18
S'J\x88\xbc='
p4487
tp4488
Rp4489
tp4490
a(g189
g6
(g18
S'\xd3|\x93<'
p4491
tp4492
Rp4493
tp4494
asg73
g44
sa(dp4495
g2
S'../../../data/emanuela/activity-recognition/images/NTCIR-Lifelog-256/u2/2015-04-20/b00000101_21i7lf_20150420_103613e.jpg'
p4496
sg4
(lp4497
(g56
g6
(g18
S'\xd8p\x16?'
p4498
tp4499
Rp4500
tp4501
a(g290
g6
(g18
S'\x9c\xf7k>'
p4502
tp4503
Rp4504
tp4505
a(g123
g6
(g18
S'UV\x96='
p4506
tp4507
Rp4508
tp4509
a(g817
g6
(g18
S'\xc0\x10\xf2<'
p4510
tp4511
Rp4512
tp4513
a(g201
g6
(g18
S'\x97\xaf\x9c<'
p4514
tp4515
Rp4516
tp4517
asg73
g44
sa(dp4518
g2
S'../../../data/emanuela/activity-recognition/images/NTCIR-Lifelog-256/u1/2015-03-05/b00000490_21i6bq_20150305_112932e.jpg'
p4519
sg4
(lp4520
(g44
g6
(g18
S'\x1eNy?'
p4521
tp4522
Rp4523
tp4524
a(g232
g6
(g18
S'\xbdT\x1a<'
p4525
tp4526
Rp4527
tp4528
a(g189
g6
(g18
S'\x94Y\x13<'
p4529
tp4530
Rp4531
tp4532
a(g104
g6
(g18
S'\x1ew\x88;'
p4533
tp4534
Rp4535
tp4536
a(g348
g6
(g18
S'\xb1\xe5\x8a:'
p4537
tp4538
Rp4539
tp4540
asg73
g44
sa(dp4541
g2
S'../../../data/emanuela/activity-recognition/images/NTCIR-Lifelog-256/u1/2015-02-23/b00000563_21i6bq_20150223_125858e.jpg'
p4542
sg4
(lp4543
(g44
g6
(g18
S'w^]?'
p4544
tp4545
Rp4546
tp4547
a(g88
g6
(g18
S'[vr='
p4548
tp4549
Rp4550
tp4551
a(g232
g6
(g18
S'\xf7\xcf\xdd<'
p4552
tp4553
Rp4554
tp4555
a(g32
g6
(g18
S'b>\x96<'
p4556
tp4557
Rp4558
tp4559
a(g189
g6
(g18
S'\xa2mC<'
p4560
tp4561
Rp4562
tp4563
asg73
g44
sa(dp4564
g2
S'../../../data/emanuela/activity-recognition/images/NTCIR-Lifelog-256/u2/2015-04-21/b00000119_21i7lf_20150421_110027e.jpg'
p4565
sg4
(lp4566
(g848
g6
(g18
S'\xbb\x01\xa4>'
p4567
tp4568
Rp4569
tp4570
a(g32
g6
(g18
S'\x8d\xaba>'
p4571
tp4572
Rp4573
tp4574
a(g15
g6
(g18
S'\x11\xc9\x03>'
p4575
tp4576
Rp4577
tp4578
a(g817
g6
(g18
S'\xc8y\xf7='
p4579
tp4580
Rp4581
tp4582
a(g68
g6
(g18
S'\t\x9a\xa1='
p4583
tp4584
Rp4585
tp4586
asg73
g44
sa(dp4587
g2
S'../../../data/emanuela/activity-recognition/images/NTCIR-Lifelog-256/u1/2015-03-18/b00001071_21i6bq_20150318_193805e.jpg'
p4588
sg4
(lp4589
(g44
g6
(g18
S'S68?'
p4590
tp4591
Rp4592
tp4593
a(g32
g6
(g18
S'\x17\xbe\x1c>'
p4594
tp4595
Rp4596
tp4597
a(g348
g6
(g18
S'p0\xc4='
p4598
tp4599
Rp4600
tp4601
a(g189
g6
(g18
S'\xa8\x95\x08<'
p4602
tp4603
Rp4604
tp4605
a(g56
g6
(g18
S'\xf2E\xf9;'
p4606
tp4607
Rp4608
tp4609
asg73
g44
sa(dp4610
g2
S'../../../data/emanuela/activity-recognition/images/NTCIR-Lifelog-256/u1/2015-03-13/b00000917_21i6bq_20150313_151831e.jpg'
p4611
sg4
(lp4612
(g44
g6
(g18
S'cKb?'
p4613
tp4614
Rp4615
tp4616
a(g290
g6
(g18
S'\xb9\xbe\x19='
p4617
tp4618
Rp4619
tp4620
a(g32
g6
(g18
S'\x17\xfd\xde<'
p4621
tp4622
Rp4623
tp4624
a(g348
g6
(g18
S'\xf3Mt<'
p4625
tp4626
Rp4627
tp4628
a(g817
g6
(g18
S'\xe0\xa6\x06<'
p4629
tp4630
Rp4631
tp4632
asg73
g44
sa(dp4633
g2
S'../../../data/emanuela/activity-recognition/images/NTCIR-Lifelog-256/u3/2015-06-24/b00000733_21i79q_20150624_162752e.jpg'
p4634
sg4
(lp4635
(g348
g6
(g18
S'o\x0bw?'
p4636
tp4637
Rp4638
tp4639
a(g44
g6
(g18
S'\xad\xe8<<'
p4640
tp4641
Rp4642
tp4643
a(g32
g6
(g18
S'\xf7\xbb\x1b<'
p4644
tp4645
Rp4646
tp4647
a(g56
g6
(g18
S'a\xb4\xbb;'
p4648
tp4649
Rp4650
tp4651
a(g15
g6
(g18
S'\xf4&:;'
p4652
tp4653
Rp4654
tp4655
asg73
g44
sa(dp4656
g2
S'../../../data/emanuela/activity-recognition/images/NTCIR-Lifelog-256/u1/2015-02-26/b00000641_21i6bq_20150226_131328e.jpg'
p4657
sg4
(lp4658
(g44
g6
(g18
S'k\xf2~?'
p4659
tp4660
Rp4661
tp4662
a(g189
g6
(g18
S'\xc2\x1b\xb8:'
p4663
tp4664
Rp4665
tp4666
a(g348
g6
(g18
S'\xfe\x0b\x16:'
p4667
tp4668
Rp4669
tp4670
a(g32
g6
(g18
S'\xb7\xe6\x07:'
p4671
tp4672
Rp4673
tp4674
a(g848
g6
(g18
S'\x8b\xb3\xbb9'
p4675
tp4676
Rp4677
tp4678
asg73
g44
sa(dp4679
g2
S'../../../data/emanuela/activity-recognition/images/NTCIR-Lifelog-256/u1/2015-03-17/b00001490_21i6bq_20150317_223229e.jpg'
p4680
sg4
(lp4681
(g44
g6
(g18
S'\x19(j?'
p4682
tp4683
Rp4684
tp4685
a(g232
g6
(g18
S'\xd3\xba\xd8<'
p4686
tp4687
Rp4688
tp4689
a(g290
g6
(g18
S'r2\x80<'
p4690
tp4691
Rp4692
tp4693
a(g104
g6
(g18
S'\xc6>2<'
p4694
tp4695
Rp4696
tp4697
a(g56
g6
(g18
S'\xe7\x84\x10<'
p4698
tp4699
Rp4700
tp4701
asg73
g44
sa(dp4702
g2
S'../../../data/emanuela/activity-recognition/images/NTCIR-Lifelog-256/u2/2015-04-27/b00004935_21i7lf_20150427_084828e.jpg'
p4703
sg4
(lp4704
(g348
g6
(g18
S'\x0e\x1bU?'
p4705
tp4706
Rp4707
tp4708
a(g44
g6
(g18
S'\xe0\x82\xeb='
p4709
tp4710
Rp4711
tp4712
a(g56
g6
(g18
S'\xa3[\x96<'
p4713
tp4714
Rp4715
tp4716
a(g817
g6
(g18
S'v\xf9b<'
p4717
tp4718
Rp4719
tp4720
a(g189
g6
(g18
S'\xf6+\xf0;'
p4721
tp4722
Rp4723
tp4724
asg73
g44
sa(dp4725
g2
S'../../../data/emanuela/activity-recognition/images/NTCIR-Lifelog-256/u3/2015-07-28/b00003797_21i79q_20150728_222712e.jpg'
p4726
sg4
(lp4727
(g44
g6
(g18
S'_\x94x?'
p4728
tp4729
Rp4730
tp4731
a(g232
g6
(g18
S'\xc4\xe4J<'
p4732
tp4733
Rp4734
tp4735
a(g68
g6
(g18
S'}\x95\xf3;'
p4736
tp4737
Rp4738
tp4739
a(g104
g6
(g18
S'\x92Y\x11;'
p4740
tp4741
Rp4742
tp4743
a(g56
g6
(g18
S'G\xc1\x01;'
p4744
tp4745
Rp4746
tp4747
asg73
g44
sa(dp4748
g2
S'../../../data/emanuela/activity-recognition/images/NTCIR-Lifelog-256/u3/2015-07-11/b00001594_21i79q_20150711_222258e.jpg'
p4749
sg4
(lp4750
(g44
g6
(g18
S'\xb2\xebu?'
p4751
tp4752
Rp4753
tp4754
a(g189
g6
(g18
S'\xec\xf2;<'
p4755
tp4756
Rp4757
tp4758
a(g348
g6
(g18
S'\xad\xdd\xe7;'
p4759
tp4760
Rp4761
tp4762
a(g68
g6
(g18
S'\xaa\x12\xbc;'
p4763
tp4764
Rp4765
tp4766
a(g232
g6
(g18
S'\xd5\x81\xa8;'
p4767
tp4768
Rp4769
tp4770
asg73
g44
sa(dp4771
g2
S'../../../data/emanuela/activity-recognition/images/NTCIR-Lifelog-256/u1/2015-03-08/b00000674_21i6bq_20150308_162350e.jpg'
p4772
sg4
(lp4773
(g44
g6
(g18
S'\\\xcfk?'
p4774
tp4775
Rp4776
tp4777
a(g68
g6
(g18
S'\x8a\xdc]<'
p4778
tp4779
Rp4780
tp4781
a(g189
g6
(g18
S'\x1fdE<'
p4782
tp4783
Rp4784
tp4785
a(g166
g6
(g18
S'u1<<'
p4786
tp4787
Rp4788
tp4789
a(g232
g6
(g18
S'\xe9\x063<'
p4790
tp4791
Rp4792
tp4793
asg73
g44
sa(dp4794
g2
S'../../../data/emanuela/activity-recognition/images/NTCIR-Lifelog-256/u2/2015-04-27/b00005364_21i7lf_20150427_130826e.jpg'
p4795
sg4
(lp4796
(g201
g6
(g18
S'\xa6,\xba>'
p4797
tp4798
Rp4799
tp4800
a(g44
g6
(g18
S'\x18bm>'
p4801
tp4802
Rp4803
tp4804
a(g189
g6
(g18
S"\x93 '>"
p4805
tp4806
Rp4807
tp4808
a(g290
g6
(g18
S'\x82\xa2E='
p4809
tp4810
Rp4811
tp4812
a(g68
g6
(g18
S'\xca$7='
p4813
tp4814
Rp4815
tp4816
asg73
g44
sa(dp4817
g2
S'../../../data/emanuela/activity-recognition/images/NTCIR-Lifelog-256/u3/2015-07-11/b00001149_21i79q_20150711_175515e.jpg'
p4818
sg4
(lp4819
(g44
g6
(g18
S'\xc4\xdd{?'
p4820
tp4821
Rp4822
tp4823
a(g232
g6
(g18
S'\x94\x8c-<'
p4824
tp4825
Rp4826
tp4827
a(g290
g6
(g18
S'\xbdH\xf4:'
p4828
tp4829
Rp4830
tp4831
a(g104
g6
(g18
S'\x8ct\x98:'
p4832
tp4833
Rp4834
tp4835
a(g68
g6
(g18
S'\x93\x04<:'
p4836
tp4837
Rp4838
tp4839
asg73
g44
sa(dp4840
g2
S'../../../data/emanuela/activity-recognition/images/NTCIR-Lifelog-256/u2/2015-04-21/b00000503_21i7lf_20150421_150214e.jpg'
p4841
sg4
(lp4842
(g44
g6
(g18
S'E\x0c\x7f?'
p4843
tp4844
Rp4845
tp4846
a(g232
g6
(g18
S'\x9dm\x1e;'
p4847
tp4848
Rp4849
tp4850
a(g189
g6
(g18
S'o^r:'
p4851
tp4852
Rp4853
tp4854
a(g56
g6
(g18
S'\xd0\x85\xfe8'
p4855
tp4856
Rp4857
tp4858
a(g348
g6
(g18
S'e\x8d\xed8'
p4859
tp4860
Rp4861
tp4862
asg73
g44
sa(dp4863
g2
S'../../../data/emanuela/activity-recognition/images/NTCIR-Lifelog-256/u3/2015-07-11/b00001228_21i79q_20150711_184307e.jpg'
p4864
sg4
(lp4865
(g44
g6
(g18
S'\xe6\x00T?'
p4866
tp4867
Rp4868
tp4869
a(g189
g6
(g18
S'\xe1\x84M='
p4870
tp4871
Rp4872
tp4873
a(g201
g6
(g18
S'\xbe\x97\xdd<'
p4874
tp4875
Rp4876
tp4877
a(g104
g6
(g18
S'j\x01\xcf<'
p4878
tp4879
Rp4880
tp4881
a(g88
g6
(g18
S'\xd7)\xcb<'
p4882
tp4883
Rp4884
tp4885
asg73
g44
sa(dp4886
g2
S'../../../data/emanuela/activity-recognition/images/NTCIR-Lifelog-256/u2/2015-04-24/b00002067_21i7lf_20150424_103434e.jpg'
p4887
sg4
(lp4888
(g44
g6
(g18
S'\x90\xc0\xa3>'
p4889
tp4890
Rp4891
tp4892
a(g189
g6
(g18
S'S\xa1\x92>'
p4893
tp4894
Rp4895
tp4896
a(g123
g6
(g18
S'A\xd3\x0c>'
p4897
tp4898
Rp4899
tp4900
a(g68
g6
(g18
S'\xc3\xceh='
p4901
tp4902
Rp4903
tp4904
a(g15
g6
(g18
S'\xd5\xeb\x17='
p4905
tp4906
Rp4907
tp4908
asg73
g44
sa(dp4909
g2
S'../../../data/emanuela/activity-recognition/images/NTCIR-Lifelog-256/u1/2015-03-18/b00000095_21i6bq_20150318_083229e.jpg'
p4910
sg4
(lp4911
(g44
g6
(g18
S'\xaf\x92p?'
p4912
tp4913
Rp4914
tp4915
a(g232
g6
(g18
S'\x7f_\x19='
p4916
tp4917
Rp4918
tp4919
a(g88
g6
(g18
S'\x17\xaa\x15<'
p4920
tp4921
Rp4922
tp4923
a(g189
g6
(g18
S'\xf3\x92];'
p4924
tp4925
Rp4926
tp4927
a(g32
g6
(g18
S'\x89\xbb#;'
p4928
tp4929
Rp4930
tp4931
asg73
g44
sa(dp4932
g2
S'../../../data/emanuela/activity-recognition/images/NTCIR-Lifelog-256/u3/2015-07-28/b00002815_21i79q_20150728_120807e.jpg'
p4933
sg4
(lp4934
(g44
g6
(g18
S';O\xd0>'
p4935
tp4936
Rp4937
tp4938
a(g32
g6
(g18
S'+\xa1\x9d>'
p4939
tp4940
Rp4941
tp4942
a(g15
g6
(g18
S'+L\x8c='
p4943
tp4944
Rp4945
tp4946
a(g166
g6
(g18
S'\xaa\xf2s='
p4947
tp4948
Rp4949
tp4950
a(g693
g6
(g18
S'\x8dQ\x19='
p4951
tp4952
Rp4953
tp4954
asg73
g44
sa(dp4955
g2
S'../../../data/emanuela/activity-recognition/images/NTCIR-Lifelog-256/u2/2015-06-19/b00002959_21i7lf_20150619_064726e.jpg'
p4956
sg4
(lp4957
(g44
g6
(g18
S'\\)m?'
p4958
tp4959
Rp4960
tp4961
a(g104
g6
(g18
S'\x0baS='
p4962
tp4963
Rp4964
tp4965
a(g232
g6
(g18
S'[7\x04<'
p4966
tp4967
Rp4968
tp4969
a(g56
g6
(g18
S']V\xa9;'
p4970
tp4971
Rp4972
tp4973
a(g68
g6
(g18
S'\xdd\xdc\xcc:'
p4974
tp4975
Rp4976
tp4977
asg73
g44
sa(dp4978
g2
S'../../../data/emanuela/activity-recognition/images/NTCIR-Lifelog-256/u1/2015-03-12/b00001150_21i6bq_20150312_200940e.jpg'
p4979
sg4
(lp4980
(g44
g6
(g18
S'\x03\x13d?'
p4981
tp4982
Rp4983
tp4984
a(g290
g6
(g18
S'\x1e\x04\xd8<'
p4985
tp4986
Rp4987
tp4988
a(g189
g6
(g18
S'\xbf\x97\xd2<'
p4989
tp4990
Rp4991
tp4992
a(g348
g6
(g18
S'\x01\xfew<'
p4993
tp4994
Rp4995
tp4996
a(g166
g6
(g18
S'\x9b\x8c_<'
p4997
tp4998
Rp4999
tp5000
asg73
g44
sa(dp5001
g2
S'../../../data/emanuela/activity-recognition/images/NTCIR-Lifelog-256/u2/2015-06-18/b00002587_21i7lf_20150618_094714e.jpg'
p5002
sg4
(lp5003
(g44
g6
(g18
S'vsy?'
p5004
tp5005
Rp5006
tp5007
a(g290
g6
(g18
S'\x19\x14\xbf;'
p5008
tp5009
Rp5010
tp5011
a(g104
g6
(g18
S'\xbf\xad\xbb;'
p5012
tp5013
Rp5014
tp5015
a(g348
g6
(g18
S'$y\x9c;'
p5016
tp5017
Rp5018
tp5019
a(g56
g6
(g18
S'NV;;'
p5020
tp5021
Rp5022
tp5023
asg73
g44
sa(dp5024
g2
S'../../../data/emanuela/activity-recognition/images/NTCIR-Lifelog-256/u1/2015-02-23/b00000172_21i6bq_20150223_085147e.jpg'
p5025
sg4
(lp5026
(g201
g6
(g18
S'\xf6\xd3\x01?'
p5027
tp5028
Rp5029
tp5030
a(g44
g6
(g18
S'mD<>'
p5031
tp5032
Rp5033
tp5034
a(g104
g6
(g18
S'\x1ad->'
p5035
tp5036
Rp5037
tp5038
a(g32
g6
(g18
S'\x1e\xf1\xe9<'
p5039
tp5040
Rp5041
tp5042
a(g189
g6
(g18
S'_\xa3\x97<'
p5043
tp5044
Rp5045
tp5046
asg73
g44
sa(dp5047
g2
S'../../../data/emanuela/activity-recognition/images/NTCIR-Lifelog-256/u1/2015-03-13/b00000693_21i6bq_20150313_124753e.jpg'
p5048
sg4
(lp5049
(g44
g6
(g18
S'\x86\xfc~?'
p5050
tp5051
Rp5052
tp5053
a(g232
g6
(g18
S'M\x97\xbc:'
p5054
tp5055
Rp5056
tp5057
a(g348
g6
(g18
S'\xa1M\x0e:'
p5058
tp5059
Rp5060
tp5061
a(g189
g6
(g18
S')\xac\x00:'
p5062
tp5063
Rp5064
tp5065
a(g290
g6
(g18
S'\xe9o\xa89'
p5066
tp5067
Rp5068
tp5069
asg73
g44
sa(dp5070
g2
S'../../../data/emanuela/activity-recognition/images/NTCIR-Lifelog-256/u1/2015-02-27/b00000137_21i6bq_20150227_083646e.jpg'
p5071
sg4
(lp5072
(g44
g6
(g18
S'\x07\x8ex?'
p5073
tp5074
Rp5075
tp5076
a(g189
g6
(g18
S'J\xda\xf8;'
p5077
tp5078
Rp5079
tp5080
a(g232
g6
(g18
S'\xff\xec|;'
p5081
tp5082
Rp5083
tp5084
a(g290
g6
(g18
S'v\x8c2;'
p5085
tp5086
Rp5087
tp5088
a(g104
g6
(g18
S'6B\x14;'
p5089
tp5090
Rp5091
tp5092
asg73
g44
sa(dp5093
g2
S'../../../data/emanuela/activity-recognition/images/NTCIR-Lifelog-256/u1/2015-03-19/b00002395_21i6bq_20150319_161808e.jpg'
p5094
sg4
(lp5095
(g68
g6
(g18
S'\x8e \xba>'
p5096
tp5097
Rp5098
tp5099
a(g44
g6
(g18
S'\xd7$\x83>'
p5100
tp5101
Rp5102
tp5103
a(g290
g6
(g18
S'\xf8!\x96='
p5104
tp5105
Rp5106
tp5107
a(g232
g6
(g18
S'w\xa9I='
p5108
tp5109
Rp5110
tp5111
a(g848
g6
(g18
S'\xf8:C='
p5112
tp5113
Rp5114
tp5115
asg73
g44
sa(dp5116
g2
S'../../../data/emanuela/activity-recognition/images/NTCIR-Lifelog-256/u3/2015-07-28/b00003804_21i79q_20150728_223120e.jpg'
p5117
sg4
(lp5118
(g44
g6
(g18
S'\xa1\x96v?'
p5119
tp5120
Rp5121
tp5122
a(g232
g6
(g18
S'W\xf8\x1d<'
p5123
tp5124
Rp5125
tp5126
a(g68
g6
(g18
S'\x83\xdf\x9e;'
p5127
tp5128
Rp5129
tp5130
a(g348
g6
(g18
S'S\xf7p;'
p5131
tp5132
Rp5133
tp5134
a(g104
g6
(g18
S'G\xb2_;'
p5135
tp5136
Rp5137
tp5138
asg73
g44
sa(dp5139
g2
S'../../../data/emanuela/activity-recognition/images/NTCIR-Lifelog-256/u1/2015-03-08/b00000676_21i6bq_20150308_162504e.jpg'
p5140
sg4
(lp5141
(g44
g6
(g18
S'\xe3\xe1=?'
p5142
tp5143
Rp5144
tp5145
a(g189
g6
(g18
S'\xb2V\x03>'
p5146
tp5147
Rp5148
tp5149
a(g104
g6
(g18
S"\xf6\r'="
p5150
tp5151
Rp5152
tp5153
a(g166
g6
(g18
S'%\xe1\x8a<'
p5154
tp5155
Rp5156
tp5157
a(g201
g6
(g18
S'2I\x80<'
p5158
tp5159
Rp5160
tp5161
asg73
g44
sa(dp5162
g2
S'../../../data/emanuela/activity-recognition/images/NTCIR-Lifelog-256/u2/2015-06-19/b00003183_21i7lf_20150619_082923e.jpg'
p5163
sg4
(lp5164
(g817
g6
(g18
S'\xee2O?'
p5165
tp5166
Rp5167
tp5168
a(g44
g6
(g18
S'\x0fm ='
p5169
tp5170
Rp5171
tp5172
a(g290
g6
(g18
S'\x86\xfc\x0e='
p5173
tp5174
Rp5175
tp5176
a(g848
g6
(g18
S'Da\xa5<'
p5177
tp5178
Rp5179
tp5180
a(g68
g6
(g18
S"'@\x86<"
p5181
tp5182
Rp5183
tp5184
asg73
g44
sa(dp5185
g2
S'../../../data/emanuela/activity-recognition/images/NTCIR-Lifelog-256/u2/2015-06-20/b00003719_21i7lf_20150620_053540e.jpg'
p5186
sg4
(lp5187
(g44
g6
(g18
S'\x12\x9b\xaf>'
p5188
tp5189
Rp5190
tp5191
a(g32
g6
(g18
S'D\xb0\x80>'
p5192
tp5193
Rp5194
tp5195
a(g166
g6
(g18
S'\x01sU>'
p5196
tp5197
Rp5198
tp5199
a(g68
g6
(g18
S'\x8a~\x18='
p5200
tp5201
Rp5202
tp5203
a(g1385
g6
(g18
S'YA\x11='
p5204
tp5205
Rp5206
tp5207
asg73
g44
sa(dp5208
g2
S'../../../data/emanuela/activity-recognition/images/NTCIR-Lifelog-256/u1/2015-02-23/b00000108_21i6bq_20150223_081157e.jpg'
p5209
sg4
(lp5210
(g44
g6
(g18
S'd\x8b\x1f?'
p5211
tp5212
Rp5213
tp5214
a(g189
g6
(g18
S'\x01\x0c\x02>'
p5215
tp5216
Rp5217
tp5218
a(g232
g6
(g18
S'\x86X\x9e='
p5219
tp5220
Rp5221
tp5222
a(g348
g6
(g18
S'\xd1\x89\x03='
p5223
tp5224
Rp5225
tp5226
a(g68
g6
(g18
S'2\xdb\xa8<'
p5227
tp5228
Rp5229
tp5230
asg73
g44
sa(dp5231
g2
S'../../../data/emanuela/activity-recognition/images/NTCIR-Lifelog-256/u3/2015-07-11/b00001201_21i79q_20150711_182644e.jpg'
p5232
sg4
(lp5233
(g44
g6
(g18
S'\xb6\xf0\x85>'
p5234
tp5235
Rp5236
tp5237
a(g104
g6
(g18
S'\x01\xa5Z>'
p5238
tp5239
Rp5240
tp5241
a(g166
g6
(g18
S'\xd4,$>'
p5242
tp5243
Rp5244
tp5245
a(g88
g6
(g18
S'\x8f-\xe8='
p5246
tp5247
Rp5248
tp5249
a(g786
g6
(g18
S'dh\xd8='
p5250
tp5251
Rp5252
tp5253
asg73
g44
sa(dp5254
g2
S'../../../data/emanuela/activity-recognition/images/NTCIR-Lifelog-256/u2/2015-04-30/b00000761_21i7lf_20150430_103332e.jpg'
p5255
sg4
(lp5256
(g56
g6
(g18
S'\x99\xd2d?'
p5257
tp5258
Rp5259
tp5260
a(g348
g6
(g18
S'\x9a\x00\x91='
p5261
tp5262
Rp5263
tp5264
a(g44
g6
(g18
S'$\xc9\x11<'
p5265
tp5266
Rp5267
tp5268
a(g817
g6
(g18
S'\x00\xaf\xe7;'
p5269
tp5270
Rp5271
tp5272
a(g123
g6
(g18
S'\x9du\x90;'
p5273
tp5274
Rp5275
tp5276
asg73
g44
sa(dp5277
g2
S'../../../data/emanuela/activity-recognition/images/NTCIR-Lifelog-256/u2/2015-04-24/b00002541_21i7lf_20150424_152711e.jpg'
p5278
sg4
(lp5279
(g348
g6
(g18
S'z\x131?'
p5280
tp5281
Rp5282
tp5283
a(g44
g6
(g18
S'yJ\x1a>'
p5284
tp5285
Rp5286
tp5287
a(g32
g6
(g18
S'\x08\x87\xb7='
p5288
tp5289
Rp5290
tp5291
a(g56
g6
(g18
S'\xd4Z\x1b='
p5292
tp5293
Rp5294
tp5295
a(g15
g6
(g18
S'\xbf\x98\xd9;'
p5296
tp5297
Rp5298
tp5299
asg73
g44
sa(dp5300
g2
S'../../../data/emanuela/activity-recognition/images/NTCIR-Lifelog-256/u1/2015-03-16/b00002237_21i6bq_20150316_142558e.jpg'
p5301
sg4
(lp5302
(g44
g6
(g18
S'\x10\xb8\xf3>'
p5303
tp5304
Rp5305
tp5306
a(g232
g6
(g18
S'\xaa\xfe\x90>'
p5307
tp5308
Rp5309
tp5310
a(g104
g6
(g18
S'\xadcU>'
p5311
tp5312
Rp5313
tp5314
a(g56
g6
(g18
S'\xf2\xc1)<'
p5315
tp5316
Rp5317
tp5318
a(g88
g6
(g18
S'96\t<'
p5319
tp5320
Rp5321
tp5322
asg73
g44
sa(dp5323
g2
S'../../../data/emanuela/activity-recognition/images/NTCIR-Lifelog-256/u3/2015-07-11/b00001602_21i79q_20150711_222813e.jpg'
p5324
sg4
(lp5325
(g44
g6
(g18
S'\x0f[v?'
p5326
tp5327
Rp5328
tp5329
a(g232
g6
(g18
S"'\x01\xa4<"
p5330
tp5331
Rp5332
tp5333
a(g88
g6
(g18
S't\xb1\x89;'
p5334
tp5335
Rp5336
tp5337
a(g104
g6
(g18
S'\xac\\\x81;'
p5338
tp5339
Rp5340
tp5341
a(g56
g6
(g18
S'\x01<";'
p5342
tp5343
Rp5344
tp5345
asg73
g44
sa(dp5346
g2
S'../../../data/emanuela/activity-recognition/images/NTCIR-Lifelog-256/u1/2015-03-02/b00000079_21i6bq_20150302_072350e.jpg'
p5347
sg4
(lp5348
(g44
g6
(g18
S'\xb5/\xf0>'
p5349
tp5350
Rp5351
tp5352
a(g348
g6
(g18
S'\x7f\x1b\x84>'
p5353
tp5354
Rp5355
tp5356
a(g32
g6
(g18
S'0\x8cN>'
p5357
tp5358
Rp5359
tp5360
a(g56
g6
(g18
S'\xf2q\x82<'
p5361
tp5362
Rp5363
tp5364
a(g15
g6
(g18
S'%\xa6l<'
p5365
tp5366
Rp5367
tp5368
asg73
g44
sa(dp5369
g2
S'../../../data/emanuela/activity-recognition/images/NTCIR-Lifelog-256/u1/2015-03-06/b00000502_21i6bq_20150306_104642e.jpg'
p5370
sg4
(lp5371
(g189
g6
(g18
S'\x0b\xfal?'
p5372
tp5373
Rp5374
tp5375
a(g44
g6
(g18
S'\xe6~$='
p5376
tp5377
Rp5378
tp5379
a(g88
g6
(g18
S'\xa1q9<'
p5380
tp5381
Rp5382
tp5383
a(g201
g6
(g18
S'!0\xdf;'
p5384
tp5385
Rp5386
tp5387
a(g166
g6
(g18
S'\xcb+\xaf;'
p5388
tp5389
Rp5390
tp5391
asg73
g44
sa(dp5392
g2
S'../../../data/emanuela/activity-recognition/images/NTCIR-Lifelog-256/u1/2015-03-18/b00000222_21i6bq_20150318_100012e.jpg'
p5393
sg4
(lp5394
(g44
g6
(g18
S'\xed\x8eJ?'
p5395
tp5396
Rp5397
tp5398
a(g348
g6
(g18
S'$\x17\x80='
p5399
tp5400
Rp5401
tp5402
a(g189
g6
(g18
S'\xd7\xadv='
p5403
tp5404
Rp5405
tp5406
a(g1385
g6
(g18
S'\r\x17\xa7<'
p5407
tp5408
Rp5409
tp5410
a(g166
g6
(g18
S'0Qg<'
p5411
tp5412
Rp5413
tp5414
asg73
g44
sa(dp5415
g2
S'../../../data/emanuela/activity-recognition/images/NTCIR-Lifelog-256/u1/2015-02-24/b00001308_21i6bq_20150224_195739e.jpg'
p5416
sg4
(lp5417
(g44
g6
(g18
S'j\x8eD?'
p5418
tp5419
Rp5420
tp5421
a(g348
g6
(g18
S'\xc8|\xca='
p5422
tp5423
Rp5424
tp5425
a(g232
g6
(g18
S'\xc9I\xb3='
p5426
tp5427
Rp5428
tp5429
a(g56
g6
(g18
S'@\x93b<'
p5430
tp5431
Rp5432
tp5433
a(g32
g6
(g18
S'.\xe2\xf9;'
p5434
tp5435
Rp5436
tp5437
asg73
g44
sa(dp5438
g2
S'../../../data/emanuela/activity-recognition/images/NTCIR-Lifelog-256/u2/2015-04-28/b00006290_21i7lf_20150428_084941e.jpg'
p5439
sg4
(lp5440
(g44
g6
(g18
S'\xe5\xdf\x1b?'
p5441
tp5442
Rp5443
tp5444
a(g32
g6
(g18
S'y}\x97='
p5445
tp5446
Rp5447
tp5448
a(g56
g6
(g18
S'_\xe8\x92='
p5449
tp5450
Rp5451
tp5452
a(g817
g6
(g18
S'\xfd\xd1`='
p5453
tp5454
Rp5455
tp5456
a(g348
g6
(g18
S'>VB='
p5457
tp5458
Rp5459
tp5460
asg73
g44
sa(dp5461
g2
S'../../../data/emanuela/activity-recognition/images/NTCIR-Lifelog-256/u1/2015-03-08/b00000672_21i6bq_20150308_162233e.jpg'
p5462
sg4
(lp5463
(g44
g6
(g18
S'\xf4\x16\x06?'
p5464
tp5465
Rp5466
tp5467
a(g693
g6
(g18
S']\x8a[>'
p5468
tp5469
Rp5470
tp5471
a(g848
g6
(g18
S'\x19$]='
p5472
tp5473
Rp5474
tp5475
a(g56
g6
(g18
S'n \x16='
p5476
tp5477
Rp5478
tp5479
a(g68
g6
(g18
S'\xfeZ\xfe<'
p5480
tp5481
Rp5482
tp5483
asg73
g44
sa(dp5484
g2
S'../../../data/emanuela/activity-recognition/images/NTCIR-Lifelog-256/u2/2015-04-25/b00002976_21i7lf_20150425_105109e.jpg'
p5485
sg4
(lp5486
(g44
g6
(g18
S'\x9a\xbc\xc1>'
p5487
tp5488
Rp5489
tp5490
a(g189
g6
(g18
S'L\xd5\x9e>'
p5491
tp5492
Rp5493
tp5494
a(g166
g6
(g18
S'p\x80L>'
p5495
tp5496
Rp5497
tp5498
a(g348
g6
(g18
S'\xfe\xcc\x00='
p5499
tp5500
Rp5501
tp5502
a(g32
g6
(g18
S'\x93\xe5\xcc<'
p5503
tp5504
Rp5505
tp5506
asg73
g44
sa(dp5507
g2
S'../../../data/emanuela/activity-recognition/images/NTCIR-Lifelog-256/u2/2015-06-20/b00004140_21i7lf_20150620_081323e.jpg'
p5508
sg4
(lp5509
(g232
g6
(g18
S'DYp?'
p5510
tp5511
Rp5512
tp5513
a(g44
g6
(g18
S'\x84=\xfa<'
p5514
tp5515
Rp5516
tp5517
a(g166
g6
(g18
S'\xb2\x05,<'
p5518
tp5519
Rp5520
tp5521
a(g56
g6
(g18
S'\x90>\xe9;'
p5522
tp5523
Rp5524
tp5525
a(g693
g6
(g18
S'I\x0c\x99;'
p5526
tp5527
Rp5528
tp5529
asg73
g44
sa(dp5530
g2
S'../../../data/emanuela/activity-recognition/images/NTCIR-Lifelog-256/u2/2015-04-22/b00000986_21i7lf_20150422_082952e.jpg'
p5531
sg4
(lp5532
(g44
g6
(g18
S'\xc3Y\xac>'
p5533
tp5534
Rp5535
tp5536
a(g32
g6
(g18
S'\x15*\x81>'
p5537
tp5538
Rp5539
tp5540
a(g348
g6
(g18
S'\x05Y(>'
p5541
tp5542
Rp5543
tp5544
a(g15
g6
(g18
S'\xa0\xdb\xb5='
p5545
tp5546
Rp5547
tp5548
a(g166
g6
(g18
S'\xebU<='
p5549
tp5550
Rp5551
tp5552
asg73
g44
sa(dp5553
g2
S'../../../data/emanuela/activity-recognition/images/NTCIR-Lifelog-256/u1/2015-02-27/b00000200_21i6bq_20150227_092210e.jpg'
p5554
sg4
(lp5555
(g32
g6
(g18
S'^\xa4\x13?'
p5556
tp5557
Rp5558
tp5559
a(g15
g6
(g18
S'y\x16A>'
p5560
tp5561
Rp5562
tp5563
a(g68
g6
(g18
S'\xd0y\xee='
p5564
tp5565
Rp5566
tp5567
a(g348
g6
(g18
S'\x00h\xed<'
p5568
tp5569
Rp5570
tp5571
a(g56
g6
(g18
S'\n\x1d\xbb<'
p5572
tp5573
Rp5574
tp5575
asg73
g44
sa(dp5576
g2
S'../../../data/emanuela/activity-recognition/images/NTCIR-Lifelog-256/u1/2015-03-10/b00000211_21i6bq_20150310_150451e.jpg'
p5577
sg4
(lp5578
(g44
g6
(g18
S'\xe1\xb18?'
p5579
tp5580
Rp5581
tp5582
a(g290
g6
(g18
S'\xd1N(='
p5583
tp5584
Rp5585
tp5586
a(g348
g6
(g18
S'\x041\xfe<'
p5587
tp5588
Rp5589
tp5590
a(g201
g6
(g18
S'\xc3\xdd\xf4<'
p5591
tp5592
Rp5593
tp5594
a(g189
g6
(g18
S'\xe0\xd6\xea<'
p5595
tp5596
Rp5597
tp5598
asg73
g44
sa(dp5599
g2
S'../../../data/emanuela/activity-recognition/images/NTCIR-Lifelog-256/u1/2015-02-24/b00000233_21i6bq_20150224_090155e.jpg'
p5600
sg4
(lp5601
(g44
g6
(g18
S'[\xee\x1c?'
p5602
tp5603
Rp5604
tp5605
a(g189
g6
(g18
S'f\x97\xc1='
p5606
tp5607
Rp5608
tp5609
a(g232
g6
(g18
S'@h\x96='
p5610
tp5611
Rp5612
tp5613
a(g166
g6
(g18
S'\x9b\x9dA='
p5614
tp5615
Rp5616
tp5617
a(g348
g6
(g18
S'{\x13;='
p5618
tp5619
Rp5620
tp5621
asg73
g44
sa(dp5622
g2
S'../../../data/emanuela/activity-recognition/images/NTCIR-Lifelog-256/u1/2015-03-05/b00000621_21i6bq_20150305_130025e.jpg'
p5623
sg4
(lp5624
(g88
g6
(g18
S'\xca\x0c=?'
p5625
tp5626
Rp5627
tp5628
a(g44
g6
(g18
S'\xa1@\xfe='
p5629
tp5630
Rp5631
tp5632
a(g189
g6
(g18
S'[\x03\xd0<'
p5633
tp5634
Rp5635
tp5636
a(g848
g6
(g18
S'T>\xc2<'
p5637
tp5638
Rp5639
tp5640
a(g166
g6
(g18
S'W\xce\xa7<'
p5641
tp5642
Rp5643
tp5644
asg73
g44
sa(dp5645
g2
S'../../../data/emanuela/activity-recognition/images/NTCIR-Lifelog-256/u2/2015-04-21/b00001365_21i7lf_20150421_082651e.jpg'
p5646
sg4
(lp5647
(g56
g6
(g18
S'\xac\xadg>'
p5648
tp5649
Rp5650
tp5651
a(g44
g6
(g18
S'\xbf\xeb[>'
p5652
tp5653
Rp5654
tp5655
a(g32
g6
(g18
S'j\x87)>'
p5656
tp5657
Rp5658
tp5659
a(g88
g6
(g18
S'\x1b\x8e\x11>'
p5660
tp5661
Rp5662
tp5663
a(g15
g6
(g18
S'p\xc3\xa9='
p5664
tp5665
Rp5666
tp5667
asg73
g44
sa(dp5668
g2
S'../../../data/emanuela/activity-recognition/images/NTCIR-Lifelog-256/u3/2015-07-28/b00002836_21i79q_20150728_122036e.jpg'
p5669
sg4
(lp5670
(g104
g6
(g18
S"<f'?"
p5671
tp5672
Rp5673
tp5674
a(g44
g6
(g18
S'\x93\xacB>'
p5675
tp5676
Rp5677
tp5678
a(g56
g6
(g18
S'\x11u1='
p5679
tp5680
Rp5681
tp5682
a(g68
g6
(g18
S'\xf2w\xf2<'
p5683
tp5684
Rp5685
tp5686
a(g693
g6
(g18
S'\x7fx\xd3<'
p5687
tp5688
Rp5689
tp5690
asg73
g44
sa(dp5691
g2
S'../../../data/emanuela/activity-recognition/images/NTCIR-Lifelog-256/u2/2015-06-18/b00002613_21i7lf_20150618_100414e.jpg'
p5692
sg4
(lp5693
(g44
g6
(g18
S'\ng\x1a?'
p5694
tp5695
Rp5696
tp5697
a(g348
g6
(g18
S'\xd2X\x1f>'
p5698
tp5699
Rp5700
tp5701
a(g56
g6
(g18
S'\xe7\t\xa9='
p5702
tp5703
Rp5704
tp5705
a(g232
g6
(g18
S'\x80\x91>='
p5706
tp5707
Rp5708
tp5709
a(g68
g6
(g18
S'\xbd\x92\n='
p5710
tp5711
Rp5712
tp5713
asg73
g44
sa(dp5714
g2
S'../../../data/emanuela/activity-recognition/images/NTCIR-Lifelog-256/u1/2015-02-23/b00000191_21i6bq_20150223_090516e.jpg'
p5715
sg4
(lp5716
(g44
g6
(g18
S't\xde;?'
p5717
tp5718
Rp5719
tp5720
a(g232
g6
(g18
S'D\xdc:='
p5721
tp5722
Rp5723
tp5724
a(g166
g6
(g18
S'\xce\xf26='
p5725
tp5726
Rp5727
tp5728
a(g189
g6
(g18
S'(P&='
p5729
tp5730
Rp5731
tp5732
a(g290
g6
(g18
S'@\xe7\x1f='
p5733
tp5734
Rp5735
tp5736
asg73
g44
sa(dp5737
g2
S'../../../data/emanuela/activity-recognition/images/NTCIR-Lifelog-256/u2/2015-04-30/b00001471_21i7lf_20150430_181324e.jpg'
p5738
sg4
(lp5739
(g44
g6
(g18
S'J\x87{?'
p5740
tp5741
Rp5742
tp5743
a(g290
g6
(g18
S'7\x94f<'
p5744
tp5745
Rp5746
tp5747
a(g201
g6
(g18
S'o\xf5X:'
p5748
tp5749
Rp5750
tp5751
a(g104
g6
(g18
S'\xddF\x14:'
p5752
tp5753
Rp5754
tp5755
a(g189
g6
(g18
S'\xc9%\xd89'
p5756
tp5757
Rp5758
tp5759
asg73
g44
sa(dp5760
g2
S'../../../data/emanuela/activity-recognition/images/NTCIR-Lifelog-256/u2/2015-04-20/b00000031_21i7lf_20150420_095155e.jpg'
p5761
sg4
(lp5762
(g44
g6
(g18
S'\x11\xdaZ?'
p5763
tp5764
Rp5765
tp5766
a(g189
g6
(g18
S'N\xe5\xcc='
p5767
tp5768
Rp5769
tp5770
a(g104
g6
(g18
S'\xc9b}<'
p5771
tp5772
Rp5773
tp5774
a(g32
g6
(g18
S'\x0e\x95C<'
p5775
tp5776
Rp5777
tp5778
a(g15
g6
(g18
S'-\xb3\x01<'
p5779
tp5780
Rp5781
tp5782
asg73
g44
sa(dp5783
g2
S'../../../data/emanuela/activity-recognition/images/NTCIR-Lifelog-256/u1/2015-03-19/b00002030_21i6bq_20150319_120039e.jpg'
p5784
sg4
(lp5785
(g44
g6
(g18
S'G|b?'
p5786
tp5787
Rp5788
tp5789
a(g104
g6
(g18
S'\x8c\rX='
p5790
tp5791
Rp5792
tp5793
a(g290
g6
(g18
S'\xdd\xe9\xe0<'
p5794
tp5795
Rp5796
tp5797
a(g693
g6
(g18
S'b\x9ap<'
p5798
tp5799
Rp5800
tp5801
a(g68
g6
(g18
S'\xd7s\xcc;'
p5802
tp5803
Rp5804
tp5805
asg73
g44
sa(dp5806
g2
S'../../../data/emanuela/activity-recognition/images/NTCIR-Lifelog-256/u1/2015-03-06/b00000504_21i6bq_20150306_104746e.jpg'
p5807
sg4
(lp5808
(g44
g6
(g18
S'j-1>'
p5809
tp5810
Rp5811
tp5812
a(g104
g6
(g18
S'\xa1\x89/>'
p5813
tp5814
Rp5815
tp5816
a(g68
g6
(g18
S'UM\xed='
p5817
tp5818
Rp5819
tp5820
a(g32
g6
(g18
S'\xd0 \xbd='
p5821
tp5822
Rp5823
tp5824
a(g693
g6
(g18
S'x6t='
p5825
tp5826
Rp5827
tp5828
asg73
g44
sa(dp5829
g2
S'../../../data/emanuela/activity-recognition/images/NTCIR-Lifelog-256/u1/2015-02-27/b00000246_21i6bq_20150227_094403e.jpg'
p5830
sg4
(lp5831
(g44
g6
(g18
S'\x99\xa0u?'
p5832
tp5833
Rp5834
tp5835
a(g290
g6
(g18
S'H\xf4\x8c<'
p5836
tp5837
Rp5838
tp5839
a(g104
g6
(g18
S'\xe3\x12\xa9;'
p5840
tp5841
Rp5842
tp5843
a(g88
g6
(g18
S'N\x8a~;'
p5844
tp5845
Rp5846
tp5847
a(g348
g6
(g18
S'\xdd\x856;'
p5848
tp5849
Rp5850
tp5851
asg73
g44
sa(dp5852
g2
S'../../../data/emanuela/activity-recognition/images/NTCIR-Lifelog-256/u1/2015-03-19/b00001841_21i6bq_20150319_095427e.jpg'
p5853
sg4
(lp5854
(g44
g6
(g18
S'\xc6\x82w?'
p5855
tp5856
Rp5857
tp5858
a(g104
g6
(g18
S'p\xca\xd4<'
p5859
tp5860
Rp5861
tp5862
a(g232
g6
(g18
S'\xf1\x10\x1e;'
p5863
tp5864
Rp5865
tp5866
a(g68
g6
(g18
S'\r\x0c\xa1:'
p5867
tp5868
Rp5869
tp5870
a(g56
g6
(g18
S'I\xe5v:'
p5871
tp5872
Rp5873
tp5874
asg73
g44
sa(dp5875
g2
S'../../../data/emanuela/activity-recognition/images/NTCIR-Lifelog-256/u1/2015-02-23/b00000443_21i6bq_20150223_114522e.jpg'
p5876
sg4
(lp5877
(g44
g6
(g18
S'\xbb#8?'
p5878
tp5879
Rp5880
tp5881
a(g348
g6
(g18
S'\xd4\t\xe6='
p5882
tp5883
Rp5884
tp5885
a(g166
g6
(g18
S'\xe9\xb7\xbb='
p5886
tp5887
Rp5888
tp5889
a(g189
g6
(g18
S'0bR='
p5890
tp5891
Rp5892
tp5893
a(g56
g6
(g18
S'\xfd\xd4\xe1;'
p5894
tp5895
Rp5896
tp5897
asg73
g44
sa(dp5898
g2
S'../../../data/emanuela/activity-recognition/images/NTCIR-Lifelog-256/u2/2015-05-06/b00006849_21i7lf_20150506_150355e.jpg'
p5899
sg4
(lp5900
(g44
g6
(g18
S',\xdeu?'
p5901
tp5902
Rp5903
tp5904
a(g348
g6
(g18
S'\xb1{\x17<'
p5905
tp5906
Rp5907
tp5908
a(g32
g6
(g18
S'\xd2n\x16<'
p5909
tp5910
Rp5911
tp5912
a(g848
g6
(g18
S'D\xef\xea;'
p5913
tp5914
Rp5915
tp5916
a(g189
g6
(g18
S'S\xa10;'
p5917
tp5918
Rp5919
tp5920
asg73
g44
sa(dp5921
g2
S'../../../data/emanuela/activity-recognition/images/NTCIR-Lifelog-256/u1/2015-03-06/b00000028_21i6bq_20150306_053054e.jpg'
p5922
sg4
(lp5923
(g290
g6
(g18
S'\xfbE\xb1>'
p5924
tp5925
Rp5926
tp5927
a(g44
g6
(g18
S'\xb2\xa8\x8d>'
p5928
tp5929
Rp5930
tp5931
a(g848
g6
(g18
S'\xeeW\r>'
p5932
tp5933
Rp5934
tp5935
a(g693
g6
(g18
S'\xd1\x11\x81='
p5936
tp5937
Rp5938
tp5939
a(g88
g6
(g18
S'U\xb2\x1b='
p5940
tp5941
Rp5942
tp5943
asg73
g44
sa(dp5944
g2
S'../../../data/emanuela/activity-recognition/images/NTCIR-Lifelog-256/u2/2015-06-19/b00003203_21i7lf_20150619_083042e.jpg'
p5945
sg4
(lp5946
(g166
g6
(g18
S'"\xc9\xfd='
p5947
tp5948
Rp5949
tp5950
a(g68
g6
(g18
S'\x8a\xdc\xfb='
p5951
tp5952
Rp5953
tp5954
a(g232
g6
(g18
S'Y\xf5\xf7='
p5955
tp5956
Rp5957
tp5958
a(g6
(g7
(S'S7'
p5959
I0
I1
tp5960
Rp5961
(I3
S'|'
p5962
NNNI7
I1
I0
tp5963
bS'driving'
p5964
tp5965
Rp5966
g6
(g18
S'\x92;\xeb='
p5967
tp5968
Rp5969
tp5970
a(g44
g6
(g18
S'\x88\xfc\xc9='
p5971
tp5972
Rp5973
tp5974
asg73
g44
sa(dp5975
g2
S'../../../data/emanuela/activity-recognition/images/NTCIR-Lifelog-256/u2/2015-05-01/b00001745_21i7lf_20150501_084416e.jpg'
p5976
sg4
(lp5977
(g348
g6
(g18
S'\x9e\r\x1c?'
p5978
tp5979
Rp5980
tp5981
a(g817
g6
(g18
S'\xb5h->'
p5982
tp5983
Rp5984
tp5985
a(g44
g6
(g18
S'\xd5\\\x86='
p5986
tp5987
Rp5988
tp5989
a(g1385
g6
(g18
S'\x95\xa1\t='
p5990
tp5991
Rp5992
tp5993
a(g189
g6
(g18
S'\x1e+\x01='
p5994
tp5995
Rp5996
tp5997
asg73
g44
sa(dp5998
g2
S'../../../data/emanuela/activity-recognition/images/NTCIR-Lifelog-256/u1/2015-03-05/b00000366_21i6bq_20150305_100133e.jpg'
p5999
sg4
(lp6000
(g32
g6
(g18
S'\xa8Z\xe3>'
p6001
tp6002
Rp6003
tp6004
a(g44
g6
(g18
S'\x11\xa1\xc8>'
p6005
tp6006
Rp6007
tp6008
a(g15
g6
(g18
S'3B\xa4='
p6009
tp6010
Rp6011
tp6012
a(g104
g6
(g18
S'\x8cS\x1a='
p6013
tp6014
Rp6015
tp6016
a(g189
g6
(g18
S'(\x85\xd7;'
p6017
tp6018
Rp6019
tp6020
asg73
g44
sa(dp6021
g2
S'../../../data/emanuela/activity-recognition/images/NTCIR-Lifelog-256/u2/2015-05-08/b00009408_21i7lf_20150508_165550e.jpg'
p6022
sg4
(lp6023
(g44
g6
(g18
S'sjg?'
p6024
tp6025
Rp6026
tp6027
a(g189
g6
(g18
S'\x0e\xa0\xa9<'
p6028
tp6029
Rp6030
tp6031
a(g32
g6
(g18
S'\x0c\x06\x87<'
p6032
tp6033
Rp6034
tp6035
a(g56
g6
(g18
S'\xad\xdf\x81<'
p6036
tp6037
Rp6038
tp6039
a(g68
g6
(g18
S'\xf4\x16N<'
p6040
tp6041
Rp6042
tp6043
asg73
g44
sa(dp6044
g2
S'../../../data/emanuela/activity-recognition/images/NTCIR-Lifelog-256/u2/2015-05-06/b00006827_21i7lf_20150506_145006e.jpg'
p6045
sg4
(lp6046
(g44
g6
(g18
S'\xa6q~?'
p6047
tp6048
Rp6049
tp6050
a(g232
g6
(g18
S'\xe4 \x97;'
p6051
tp6052
Rp6053
tp6054
a(g88
g6
(g18
S'\x8dM\xb89'
p6055
tp6056
Rp6057
tp6058
a(g201
g6
(g18
S'\xdf\xf2a9'
p6059
tp6060
Rp6061
tp6062
a(g189
g6
(g18
S'2\xc8E9'
p6063
tp6064
Rp6065
tp6066
asg73
g44
sa(dp6067
g2
S'../../../data/emanuela/activity-recognition/images/NTCIR-Lifelog-256/u3/2015-06-24/b00000625_21i79q_20150624_152529e.jpg'
p6068
sg4
(lp6069
(g44
g6
(g18
S'\x8d\x05f?'
p6070
tp6071
Rp6072
tp6073
a(g104
g6
(g18
S'\x92\xb6\xb9='
p6074
tp6075
Rp6076
tp6077
a(g290
g6
(g18
S'\xd7^\x8f;'
p6078
tp6079
Rp6080
tp6081
a(g68
g6
(g18
S'\xa3\x0b|:'
p6082
tp6083
Rp6084
tp6085
a(g693
g6
(g18
S'\x94\x8eh:'
p6086
tp6087
Rp6088
tp6089
asg73
g44
sa(dp6090
g2
S'../../../data/emanuela/activity-recognition/images/NTCIR-Lifelog-256/u2/2015-05-07/b00007592_21i7lf_20150507_140010e.jpg'
p6091
sg4
(lp6092
(g44
g6
(g18
S'K\x9e|?'
p6093
tp6094
Rp6095
tp6096
a(g348
g6
(g18
S'\xd9\x86\x0e<'
p6097
tp6098
Rp6099
tp6100
a(g189
g6
(g18
S'@V\t;'
p6101
tp6102
Rp6103
tp6104
a(g232
g6
(g18
S'Y^\x04:'
p6105
tp6106
Rp6107
tp6108
a(g56
g6
(g18
S'\x00%\x04:'
p6109
tp6110
Rp6111
tp6112
asg73
g44
sa(dp6113
g2
S'../../../data/emanuela/activity-recognition/images/NTCIR-Lifelog-256/u2/2015-05-03/b00004239_21i7lf_20150503_192905e.jpg'
p6114
sg4
(lp6115
(g348
g6
(g18
S'\x9e\x1b\x04?'
p6116
tp6117
Rp6118
tp6119
a(g44
g6
(g18
S'q\xcd\x8b>'
p6120
tp6121
Rp6122
tp6123
a(g32
g6
(g18
S' :\t>'
p6124
tp6125
Rp6126
tp6127
a(g189
g6
(g18
S'\x16\x04\xd2<'
p6128
tp6129
Rp6130
tp6131
a(g56
g6
(g18
S'\x17|F<'
p6132
tp6133
Rp6134
tp6135
asg73
g44
sa(dp6136
g2
S'../../../data/emanuela/activity-recognition/images/NTCIR-Lifelog-256/u1/2015-03-18/b00000363_21i6bq_20150318_113516e.jpg'
p6137
sg4
(lp6138
(g44
g6
(g18
S'\x94\x8b\x0c?'
p6139
tp6140
Rp6141
tp6142
a(g348
g6
(g18
S'\x8a\x89\xae>'
p6143
tp6144
Rp6145
tp6146
a(g166
g6
(g18
S'\x10\xbe\x83='
p6147
tp6148
Rp6149
tp6150
a(g189
g6
(g18
S'E\xe4\xfc<'
p6151
tp6152
Rp6153
tp6154
a(g56
g6
(g18
S'\x8b\x8f\xb1;'
p6155
tp6156
Rp6157
tp6158
asg73
g44
sa(dp6159
g2
S'../../../data/emanuela/activity-recognition/images/NTCIR-Lifelog-256/u3/2015-06-24/b00000266_21i79q_20150624_121903e.jpg'
p6160
sg4
(lp6161
(g44
g6
(g18
S"'hA?"
p6162
tp6163
Rp6164
tp6165
a(g32
g6
(g18
S'\x88\x16\xc2='
p6166
tp6167
Rp6168
tp6169
a(g189
g6
(g18
S'\xa1\xbf\xc1='
p6170
tp6171
Rp6172
tp6173
a(g166
g6
(g18
S'\xf8\xf4\xf0<'
p6174
tp6175
Rp6176
tp6177
a(g15
g6
(g18
S'\xab\xcd\x05<'
p6178
tp6179
Rp6180
tp6181
asg73
g44
sa(dp6182
g2
S'../../../data/emanuela/activity-recognition/images/NTCIR-Lifelog-256/u1/2015-02-24/b00000523_21i6bq_20150224_120057e.jpg'
p6183
sg4
(lp6184
(g44
g6
(g18
S'a\x13v?'
p6185
tp6186
Rp6187
tp6188
a(g189
g6
(g18
S'=r\xab<'
p6189
tp6190
Rp6191
tp6192
a(g232
g6
(g18
S'\xef\xe2\r<'
p6193
tp6194
Rp6195
tp6196
a(g68
g6
(g18
S';>\x0b;'
p6197
tp6198
Rp6199
tp6200
a(g290
g6
(g18
S'u\xed\xbe:'
p6201
tp6202
Rp6203
tp6204
asg73
g44
sa.