(lp0
(dp1
S'image'
p2
S'../../../data/emanuela/activity-recognition/images/NTCIR-Lifelog-256/u2/2015-04-28/b00000151_21i7lf_20150428_185715e.jpg'
p3
sS'result'
p4
(lp5
(cnumpy.core.multiarray
scalar
p6
(cnumpy
dtype
p7
(S'S19'
p8
I0
I1
tp9
Rp10
(I3
S'|'
p11
NNNI19
I1
I0
tp12
bS'cleaning and chores'
p13
tp14
Rp15
g6
(g7
(S'f4'
p16
I0
I1
tp17
Rp18
(I3
S'<'
p19
NNNI-1
I-1
I0
tp20
bS'\x83d\t?'
p21
tp22
Rp23
tp24
a(g6
(g7
(S'S6'
p25
I0
I1
tp26
Rp27
(I3
S'|'
p28
NNNI6
I1
I0
tp29
bS'biking'
p30
tp31
Rp32
g6
(g18
S'\x1cf\xb3>'
p33
tp34
Rp35
tp36
a(g6
(g7
(S'S15'
p37
I0
I1
tp38
Rp39
(I3
S'|'
p40
NNNI15
I1
I0
tp41
bS'walking outdoor'
p42
tp43
Rp44
g6
(g18
S'\xe3\xe6\x00='
p45
tp46
Rp47
tp48
a(g6
(g7
(S'S24'
p49
I0
I1
tp50
Rp51
(I3
S'|'
p52
NNNI24
I1
I0
tp53
bS'having drinks/meal alone'
p54
tp55
Rp56
g6
(g18
S'\x1a\x0e\x9b<'
p57
tp58
Rp59
tp60
a(g6
(g7
(S'S6'
p61
I0
I1
tp62
Rp63
(I3
S'|'
p64
NNNI6
I1
I0
tp65
bS'mobile'
p66
tp67
Rp68
g6
(g18
S'6 \x88<'
p69
tp70
Rp71
tp72
asS'label'
p73
g32
sa(dp74
g2
S'../../../data/emanuela/activity-recognition/images/NTCIR-Lifelog-256/u2/2015-04-28/b00006308_21i7lf_20150428_090057e.jpg'
p75
sg4
(lp76
(g32
g6
(g18
S'r\xfd{?'
p77
tp78
Rp79
tp80
a(g44
g6
(g18
S'o\xc4\x99;'
p81
tp82
Rp83
tp84
a(g68
g6
(g18
S'\xa1\x83D;'
p85
tp86
Rp87
tp88
a(g6
(g7
(S'S7'
p89
I0
I1
tp90
Rp91
(I3
S'|'
p92
NNNI7
I1
I0
tp93
bS'driving'
p94
tp95
Rp96
g6
(g18
S'\x06\xc4\x16;'
p97
tp98
Rp99
tp100
a(g15
g6
(g18
S'\xbbN\xc8:'
p101
tp102
Rp103
tp104
asg73
g32
sa(dp105
g2
S'../../../data/emanuela/activity-recognition/images/NTCIR-Lifelog-256/u2/2015-04-29/b00000240_21i7lf_20150429_095718e.jpg'
p106
sg4
(lp107
(g32
g6
(g18
S'\x8fu\x7f?'
p108
tp109
Rp110
tp111
a(g44
g6
(g18
S'\xfe\xc7X:'
p112
tp113
Rp114
tp115
a(g68
g6
(g18
S'\xffv\x0b:'
p116
tp117
Rp118
tp119
a(g96
g6
(g18
S"'\xe7\x919"
p120
tp121
Rp122
tp123
a(g56
g6
(g18
S'\x8bpr9'
p124
tp125
Rp126
tp127
asg73
g32
sa(dp128
g2
S'../../../data/emanuela/activity-recognition/images/NTCIR-Lifelog-256/u2/2015-04-29/b00000851_21i7lf_20150429_161934e.jpg'
p129
sg4
(lp130
(g32
g6
(g18
S'8X\x7f?'
p131
tp132
Rp133
tp134
a(g15
g6
(g18
S's\xb4<:'
p135
tp136
Rp137
tp138
a(g44
g6
(g18
S"*\x01':"
p139
tp140
Rp141
tp142
a(g96
g6
(g18
S'\x8d\x1a\x0b:'
p143
tp144
Rp145
tp146
a(g68
g6
(g18
S'\xfd\xec\x8a9'
p147
tp148
Rp149
tp150
asg73
g32
sa(dp151
g2
S'../../../data/emanuela/activity-recognition/images/NTCIR-Lifelog-256/u2/2015-05-07/b00007294_21i7lf_20150507_082351e.jpg'
p152
sg4
(lp153
(g32
g6
(g18
S'\x07\xa8{?'
p154
tp155
Rp156
tp157
a(g15
g6
(g18
S'\x072\x05<'
p158
tp159
Rp160
tp161
a(g96
g6
(g18
S'\xcf h;'
p162
tp163
Rp164
tp165
a(g44
g6
(g18
S'\x87\xf6M;'
p166
tp167
Rp168
tp169
a(g68
g6
(g18
S'"\xb1;:'
p170
tp171
Rp172
tp173
asg73
g32
sa(dp174
g2
S'../../../data/emanuela/activity-recognition/images/NTCIR-Lifelog-256/u2/2015-04-30/b00001521_21i7lf_20150430_184419e.jpg'
p175
sg4
(lp176
(g32
g6
(g18
S'\x13hW?'
p177
tp178
Rp179
tp180
a(g44
g6
(g18
S'8n\x83='
p181
tp182
Rp183
tp184
a(g6
(g7
(S'S7'
p185
I0
I1
tp186
Rp187
(I3
S'|'
p188
NNNI7
I1
I0
tp189
bS'resting'
p190
tp191
Rp192
g6
(g18
S'\x11GI='
p193
tp194
Rp195
tp196
a(g6
(g7
(S'S14'
p197
I0
I1
tp198
Rp199
(I3
S'|'
p200
NNNI14
I1
I0
tp201
bS'walking indoor'
p202
tp203
Rp204
g6
(g18
S'A\xaf.<'
p205
tp206
Rp207
tp208
a(g6
(g7
(S'S16'
p209
I0
I1
tp210
Rp211
(I3
S'|'
p212
NNNI16
I1
I0
tp213
bS'public transport'
p214
tp215
Rp216
g6
(g18
S'\x92\x15\x1c<'
p217
tp218
Rp219
tp220
asg73
g32
sa(dp221
g2
S'../../../data/emanuela/activity-recognition/images/NTCIR-Lifelog-256/u2/2015-04-27/b00005886_21i7lf_20150427_183258e.jpg'
p222
sg4
(lp223
(g32
g6
(g18
S'y\xc9z?'
p224
tp225
Rp226
tp227
a(g68
g6
(g18
S'\xe4W\xd1;'
p228
tp229
Rp230
tp231
a(g44
g6
(g18
S'\x08\xf9\x96;'
p232
tp233
Rp234
tp235
a(g15
g6
(g18
S'\xa8uE;'
p236
tp237
Rp238
tp239
a(g96
g6
(g18
S'YM\x0c;'
p240
tp241
Rp242
tp243
asg73
g32
sa(dp244
g2
S'../../../data/emanuela/activity-recognition/images/NTCIR-Lifelog-256/u2/2015-04-22/b00000578_21i7lf_20150422_184134e.jpg'
p245
sg4
(lp246
(g32
g6
(g18
S'\xe8<x?'
p247
tp248
Rp249
tp250
a(g44
g6
(g18
S'\t\xf4\x9e<'
p251
tp252
Rp253
tp254
a(g68
g6
(g18
S'e\x04\x8e;'
p255
tp256
Rp257
tp258
a(g192
g6
(g18
S'\x11\xf8\xfa:'
p259
tp260
Rp261
tp262
a(g96
g6
(g18
S'l\x0f\xda:'
p263
tp264
Rp265
tp266
asg73
g32
sa(dp267
g2
S'../../../data/emanuela/activity-recognition/images/NTCIR-Lifelog-256/u2/2015-04-29/b00000850_21i7lf_20150429_161853e.jpg'
p268
sg4
(lp269
(g32
g6
(g18
S'y\xa4\x7f?'
p270
tp271
Rp272
tp273
a(g44
g6
(g18
S'8\xff\x05:'
p274
tp275
Rp276
tp277
a(g96
g6
(g18
S'\x84\x9f\x8a9'
p278
tp279
Rp280
tp281
a(g15
g6
(g18
S'\xed\xdc\x849'
p282
tp283
Rp284
tp285
a(g68
g6
(g18
S']\xed\x019'
p286
tp287
Rp288
tp289
asg73
g32
sa(dp290
g2
S'../../../data/emanuela/activity-recognition/images/NTCIR-Lifelog-256/u2/2015-04-28/b00006303_21i7lf_20150428_085748e.jpg'
p291
sg4
(lp292
(g44
g6
(g18
S'\xcb\xa3M?'
p293
tp294
Rp295
tp296
a(g32
g6
(g18
S'j\xc75='
p297
tp298
Rp299
tp300
a(g6
(g7
(S'S7'
p301
I0
I1
tp302
Rp303
(I3
S'|'
p304
NNNI7
I1
I0
tp305
bS'talking'
p306
tp307
Rp308
g6
(g18
S'E\xce\x1f='
p309
tp310
Rp311
tp312
a(g192
g6
(g18
S'\x8c\xef\xf2<'
p313
tp314
Rp315
tp316
a(g15
g6
(g18
S'\x97\xe4\x91<'
p317
tp318
Rp319
tp320
asg73
g32
sa(dp321
g2
S'../../../data/emanuela/activity-recognition/images/NTCIR-Lifelog-256/u2/2015-04-27/b00005879_21i7lf_20150427_182846e.jpg'
p322
sg4
(lp323
(g32
g6
(g18
S'\x8b0~?'
p324
tp325
Rp326
tp327
a(g44
g6
(g18
S'\x13\x7f\xea:'
p328
tp329
Rp330
tp331
a(g68
g6
(g18
S'\xde}\xbb:'
p332
tp333
Rp334
tp335
a(g56
g6
(g18
S'L\xdd\xb5:'
p336
tp337
Rp338
tp339
a(g15
g6
(g18
S'\xf8BL:'
p340
tp341
Rp342
tp343
asg73
g32
sa(dp344
g2
S'../../../data/emanuela/activity-recognition/images/NTCIR-Lifelog-256/u2/2015-04-28/b00006309_21i7lf_20150428_090139e.jpg'
p345
sg4
(lp346
(g44
g6
(g18
S'\x0f\x07R?'
p347
tp348
Rp349
tp350
a(g32
g6
(g18
S'\xf9\x83\xa1='
p351
tp352
Rp353
tp354
a(g68
g6
(g18
S'\xdc7\x8c='
p355
tp356
Rp357
tp358
a(g56
g6
(g18
S'\xd9\xdbI<'
p359
tp360
Rp361
tp362
a(g308
g6
(g18
S'\x9cQ\xc6;'
p363
tp364
Rp365
tp366
asg73
g32
sa(dp367
g2
S'../../../data/emanuela/activity-recognition/images/NTCIR-Lifelog-256/u2/2015-05-05/b00005922_21i7lf_20150505_181209e.jpg'
p368
sg4
(lp369
(g32
g6
(g18
S'L\xa4\xf6>'
p370
tp371
Rp372
tp373
a(g68
g6
(g18
S'd\x1d\xa0>'
p374
tp375
Rp376
tp377
a(g44
g6
(g18
S':%\x11>'
p378
tp379
Rp380
tp381
a(g56
g6
(g18
S'\xfe\xd6\xc2<'
p382
tp383
Rp384
tp385
a(g6
(g7
(S'S27'
p386
I0
I1
tp387
Rp388
(I3
S'|'
p389
NNNI27
I1
I0
tp390
bS'having drinks with somebody'
p391
tp392
Rp393
g6
(g18
S'\xcdLA<'
p394
tp395
Rp396
tp397
asg73
g32
sa(dp398
g2
S'../../../data/emanuela/activity-recognition/images/NTCIR-Lifelog-256/u2/2015-04-22/b00000574_21i7lf_20150422_183907e.jpg'
p399
sg4
(lp400
(g32
g6
(g18
S'\x06\xd6g?'
p401
tp402
Rp403
tp404
a(g44
g6
(g18
S'\x01\xfa\x9d='
p405
tp406
Rp407
tp408
a(g68
g6
(g18
S'\xeb/\xec;'
p409
tp410
Rp411
tp412
a(g15
g6
(g18
S'\x9ez|;'
p413
tp414
Rp415
tp416
a(g192
g6
(g18
S'h_$;'
p417
tp418
Rp419
tp420
asg73
g32
sa(dp421
g2
S'../../../data/emanuela/activity-recognition/images/NTCIR-Lifelog-256/u2/2015-05-07/b00008255_21i7lf_20150507_204707e.jpg'
p422
sg4
(lp423
(g32
g6
(g18
S'5\x0cM?'
p424
tp425
Rp426
tp427
a(g44
g6
(g18
S'\x9f\xa5\xd5='
p428
tp429
Rp430
tp431
a(g68
g6
(g18
S'_\xfb{='
p432
tp433
Rp434
tp435
a(g96
g6
(g18
S'F\x0e\x1f<'
p436
tp437
Rp438
tp439
a(g56
g6
(g18
S'3\xb4\xf7;'
p440
tp441
Rp442
tp443
asg73
g32
sa(dp444
g2
S'../../../data/emanuela/activity-recognition/images/NTCIR-Lifelog-256/u2/2015-05-05/b00005088_21i7lf_20150505_091045e.jpg'
p445
sg4
(lp446
(g32
g6
(g18
S'C\xd6\xf0>'
p447
tp448
Rp449
tp450
a(g44
g6
(g18
S'\xd0(\x01>'
p451
tp452
Rp453
tp454
a(g56
g6
(g18
S'\x1b\x0f\xd9='
p455
tp456
Rp457
tp458
a(g15
g6
(g18
S'h&\x97='
p459
tp460
Rp461
tp462
a(g6
(g7
(S'S11'
p463
I0
I1
tp464
Rp465
(I3
S'|'
p466
NNNI11
I1
I0
tp467
bS'socializing'
p468
tp469
Rp470
g6
(g18
S'g\x97\x8d='
p471
tp472
Rp473
tp474
asg73
g32
sa(dp475
g2
S'../../../data/emanuela/activity-recognition/images/NTCIR-Lifelog-256/u2/2015-04-27/b00005877_21i7lf_20150427_182724e.jpg'
p476
sg4
(lp477
(g32
g6
(g18
S'\xf4\x1c}?'
p478
tp479
Rp480
tp481
a(g44
g6
(g18
S'%\x03\x92;'
p482
tp483
Rp484
tp485
a(g68
g6
(g18
S'\xce\xacp;'
p486
tp487
Rp488
tp489
a(g56
g6
(g18
S'\xcc\xbf\x87:'
p490
tp491
Rp492
tp493
a(g192
g6
(g18
S'\xf5\x04V:'
p494
tp495
Rp496
tp497
asg73
g32
sa(dp498
g2
S'../../../data/emanuela/activity-recognition/images/NTCIR-Lifelog-256/u2/2015-04-22/b00000565_21i7lf_20150422_183336e.jpg'
p499
sg4
(lp500
(g32
g6
(g18
S'^eC?'
p501
tp502
Rp503
tp504
a(g44
g6
(g18
S'J\xfc_>'
p505
tp506
Rp507
tp508
a(g68
g6
(g18
S'\x87@t<'
p509
tp510
Rp511
tp512
a(g96
g6
(g18
S'd\x98?:'
p513
tp514
Rp515
tp516
a(g393
g6
(g18
S'S\xdb\xf99'
p517
tp518
Rp519
tp520
asg73
g32
sa(dp521
g2
S'../../../data/emanuela/activity-recognition/images/NTCIR-Lifelog-256/u2/2015-04-30/b00000779_21i7lf_20150430_104459e.jpg'
p522
sg4
(lp523
(g32
g6
(g18
S'\xd0\xf8l?'
p524
tp525
Rp526
tp527
a(g68
g6
(g18
S'\x84\xe9_='
p528
tp529
Rp530
tp531
a(g44
g6
(g18
S'\x92d=<'
p532
tp533
Rp534
tp535
a(g56
g6
(g18
S'vg\xf3:'
p536
tp537
Rp538
tp539
a(g15
g6
(g18
S'\xfa]\xc7:'
p540
tp541
Rp542
tp543
asg73
g32
sa(dp544
g2
S'../../../data/emanuela/activity-recognition/images/NTCIR-Lifelog-256/u2/2015-04-27/b00004960_21i7lf_20150427_085900e.jpg'
p545
sg4
(lp546
(g44
g6
(g18
S'\xc6\xef\x11?'
p547
tp548
Rp549
tp550
a(g32
g6
(g18
S'\xf5\xdcH>'
p551
tp552
Rp553
tp554
a(g470
g6
(g18
S'\x0fDK='
p555
tp556
Rp557
tp558
a(g192
g6
(g18
S'\x9bK\x1f='
p559
tp560
Rp561
tp562
a(g96
g6
(g18
S'\xafo\x1c='
p563
tp564
Rp565
tp566
asg73
g32
sa(dp567
g2
S'../../../data/emanuela/activity-recognition/images/NTCIR-Lifelog-256/u2/2015-04-30/b00001508_21i7lf_20150430_183616e.jpg'
p568
sg4
(lp569
(g32
g6
(g18
S'y\x1fC?'
p570
tp571
Rp572
tp573
a(g44
g6
(g18
S'\x07\xb9\xd4='
p574
tp575
Rp576
tp577
a(g15
g6
(g18
S'ZQ&='
p578
tp579
Rp580
tp581
a(g68
g6
(g18
S'\xd0(\xb9<'
p582
tp583
Rp584
tp585
a(g6
(g7
(S'S25'
p586
I0
I1
tp587
Rp588
(I3
S'|'
p589
NNNI25
I1
I0
tp590
bS'having meal with somebody'
p591
tp592
Rp593
g6
(g18
S'\xd3\xcb\xae<'
p594
tp595
Rp596
tp597
asg73
g32
sa(dp598
g2
S'../../../data/emanuela/activity-recognition/images/NTCIR-Lifelog-256/u2/2015-05-07/b00008262_21i7lf_20150507_205128e.jpg'
p599
sg4
(lp600
(g32
g6
(g18
S'\x1f\x97z?'
p601
tp602
Rp603
tp604
a(g68
g6
(g18
S'hZ\x04<'
p605
tp606
Rp607
tp608
a(g15
g6
(g18
S'\xec\tn;'
p609
tp610
Rp611
tp612
a(g44
g6
(g18
S'\xbf\xa1Z;'
p613
tp614
Rp615
tp616
a(g96
g6
(g18
S'\xaa\xa6\x08;'
p617
tp618
Rp619
tp620
asg73
g32
sa(dp621
g2
S'../../../data/emanuela/activity-recognition/images/NTCIR-Lifelog-256/u2/2015-05-07/b00008260_21i7lf_20150507_205014e.jpg'
p622
sg4
(lp623
(g32
g6
(g18
S']\x95|?'
p624
tp625
Rp626
tp627
a(g44
g6
(g18
S'\xaa\xedH;'
p628
tp629
Rp630
tp631
a(g68
g6
(g18
S'\xf5\xc1>;'
p632
tp633
Rp634
tp635
a(g15
g6
(g18
S'\xca{4;'
p636
tp637
Rp638
tp639
a(g192
g6
(g18
S'\xafO\xef:'
p640
tp641
Rp642
tp643
asg73
g32
sa(dp644
g2
S'../../../data/emanuela/activity-recognition/images/NTCIR-Lifelog-256/u2/2015-04-22/b00000570_21i7lf_20150422_183632e.jpg'
p645
sg4
(lp646
(g44
g6
(g18
S'e\x13\x7f?'
p647
tp648
Rp649
tp650
a(g32
g6
(g18
S'\x89\xa4\xa5:'
p651
tp652
Rp653
tp654
a(g68
g6
(g18
S'\x1f\xc0x:'
p655
tp656
Rp657
tp658
a(g96
g6
(g18
S'z\xe9\x0e:'
p659
tp660
Rp661
tp662
a(g192
g6
(g18
S'0<\x06:'
p663
tp664
Rp665
tp666
asg73
g32
sa(dp667
g2
S'../../../data/emanuela/activity-recognition/images/NTCIR-Lifelog-256/u2/2015-04-30/b00000767_21i7lf_20150430_103747e.jpg'
p668
sg4
(lp669
(g32
g6
(g18
S'\xfa\x18\x8e>'
p670
tp671
Rp672
tp673
a(g44
g6
(g18
S'\xf8]\x81>'
p674
tp675
Rp676
tp677
a(g192
g6
(g18
S'\xe5\x85\x18>'
p678
tp679
Rp680
tp681
a(g68
g6
(g18
S'\xf4\xcf\xb2='
p682
tp683
Rp684
tp685
a(g15
g6
(g18
S'\xc7\xf6\xa7='
p686
tp687
Rp688
tp689
asg73
g32
sa(dp690
g2
S'../../../data/emanuela/activity-recognition/images/NTCIR-Lifelog-256/u2/2015-04-27/b00004959_21i7lf_20150427_085819e.jpg'
p691
sg4
(lp692
(g32
g6
(g18
S'>Uh?'
p693
tp694
Rp695
tp696
a(g56
g6
(g18
S'\xc4\xc1\xb7<'
p697
tp698
Rp699
tp700
a(g44
g6
(g18
S'\xeb\x8e\xa5<'
p701
tp702
Rp703
tp704
a(g68
g6
(g18
S'\xf8\xfc\x8f<'
p705
tp706
Rp707
tp708
a(g15
g6
(g18
S'Cf5<'
p709
tp710
Rp711
tp712
asg73
g32
sa(dp713
g2
S'../../../data/emanuela/activity-recognition/images/NTCIR-Lifelog-256/u2/2015-04-28/b00006313_21i7lf_20150428_090401e.jpg'
p714
sg4
(lp715
(g32
g6
(g18
S'\x0fm\xa7>'
p716
tp717
Rp718
tp719
a(g68
g6
(g18
S'I\xff@>'
p720
tp721
Rp722
tp723
a(g44
g6
(g18
S'W\xb4(>'
p724
tp725
Rp726
tp727
a(g56
g6
(g18
S'\x93\x0c\xd5='
p728
tp729
Rp730
tp731
a(g593
g6
(g18
S'\xb7G\x80='
p732
tp733
Rp734
tp735
asg73
g32
sa(dp736
g2
S'../../../data/emanuela/activity-recognition/images/NTCIR-Lifelog-256/u2/2015-05-05/b00005934_21i7lf_20150505_182004e.jpg'
p737
sg4
(lp738
(g15
g6
(g18
S'\x14\xddf?'
p739
tp740
Rp741
tp742
a(g470
g6
(g18
S'\xec\xb2\x03='
p743
tp744
Rp745
tp746
a(g6
(g7
(S'S7'
p747
I0
I1
tp748
Rp749
(I3
S'|'
p750
NNNI7
I1
I0
tp751
bS'cooking'
p752
tp753
Rp754
g6
(g18
S'\xb7\x89s<'
p755
tp756
Rp757
tp758
a(g204
g6
(g18
S'L\xe1d<'
p759
tp760
Rp761
tp762
a(g192
g6
(g18
S'V\x8b\xe4;'
p763
tp764
Rp765
tp766
asg73
g32
sa(dp767
g2
S'../../../data/emanuela/activity-recognition/images/NTCIR-Lifelog-256/u2/2015-05-05/b00005085_21i7lf_20150505_090857e.jpg'
p768
sg4
(lp769
(g32
g6
(g18
S'\x1a\xc4|?'
p770
tp771
Rp772
tp773
a(g44
g6
(g18
S'\x94\x91v;'
p774
tp775
Rp776
tp777
a(g15
g6
(g18
S'\xdf\xfdt;'
p778
tp779
Rp780
tp781
a(g56
g6
(g18
S'3x\xb9:'
p782
tp783
Rp784
tp785
a(g68
g6
(g18
S'\xd0\xb5\x93:'
p786
tp787
Rp788
tp789
asg73
g32
sa(dp790
g2
S'../../../data/emanuela/activity-recognition/images/NTCIR-Lifelog-256/u2/2015-04-28/b00000163_21i7lf_20150428_190455e.jpg'
p791
sg4
(lp792
(g96
g6
(g18
S'!\xa6\x06?'
p793
tp794
Rp795
tp796
a(g44
g6
(g18
S'\xbcs\x1e>'
p797
tp798
Rp799
tp800
a(g56
g6
(g18
S'/\xb3\x07>'
p801
tp802
Rp803
tp804
a(g6
(g7
(S'S7'
p805
I0
I1
tp806
Rp807
(I3
S'|'
p808
NNNI7
I1
I0
tp809
bS'reading'
p810
tp811
Rp812
g6
(g18
S'x\xa5$='
p813
tp814
Rp815
tp816
a(g393
g6
(g18
S'N\xce\xff<'
p817
tp818
Rp819
tp820
asg73
g32
sa(dp821
g2
S'../../../data/emanuela/activity-recognition/images/NTCIR-Lifelog-256/u2/2015-04-27/b00004961_21i7lf_20150427_085934e.jpg'
p822
sg4
(lp823
(g44
g6
(g18
S'\xe9v\x9a>'
p824
tp825
Rp826
tp827
a(g32
g6
(g18
S'$A\x88>'
p828
tp829
Rp830
tp831
a(g15
g6
(g18
S'\x0e\x10\xa8='
p832
tp833
Rp834
tp835
a(g68
g6
(g18
S's\xa9s='
p836
tp837
Rp838
tp839
a(g470
g6
(g18
S'\xb0\xd9V='
p840
tp841
Rp842
tp843
asg73
g32
sa(dp844
g2
S'../../../data/emanuela/activity-recognition/images/NTCIR-Lifelog-256/u2/2015-04-30/b00000776_21i7lf_20150430_104316e.jpg'
p845
sg4
(lp846
(g32
g6
(g18
S'\x93\xdc|?'
p847
tp848
Rp849
tp850
a(g68
g6
(g18
S'!\x1fF;'
p851
tp852
Rp853
tp854
a(g96
g6
(g18
S'}\xb7\x10;'
p855
tp856
Rp857
tp858
a(g15
g6
(g18
S'\x9f\x80\xf3:'
p859
tp860
Rp861
tp862
a(g44
g6
(g18
S'\x18X\xdc:'
p863
tp864
Rp865
tp866
asg73
g32
sa(dp867
g2
S'../../../data/emanuela/activity-recognition/images/NTCIR-Lifelog-256/u2/2015-04-27/b00005888_21i7lf_20150427_183414e.jpg'
p868
sg4
(lp869
(g32
g6
(g18
S'\xc4\xc4\x7f?'
p870
tp871
Rp872
tp873
a(g44
g6
(g18
S'\xd9:\x939'
p874
tp875
Rp876
tp877
a(g68
g6
(g18
S'Y\xb7\n9'
p878
tp879
Rp880
tp881
a(g15
g6
(g18
S'\xf6;\xf08'
p882
tp883
Rp884
tp885
a(g192
g6
(g18
S'\x109\xea8'
p886
tp887
Rp888
tp889
asg73
g32
sa(dp890
g2
S'../../../data/emanuela/activity-recognition/images/NTCIR-Lifelog-256/u2/2015-04-29/b00000235_21i7lf_20150429_095412e.jpg'
p891
sg4
(lp892
(g32
g6
(g18
S'\xbd\xca3?'
p893
tp894
Rp895
tp896
a(g44
g6
(g18
S'{\x1d\x85>'
p897
tp898
Rp899
tp900
a(g68
g6
(g18
S'K\xdb+<'
p901
tp902
Rp903
tp904
a(g96
g6
(g18
S'\\d\xa8;'
p905
tp906
Rp907
tp908
a(g15
g6
(g18
S'\x89\x06\x98;'
p909
tp910
Rp911
tp912
asg73
g32
sa.