(lp0
(dp1
S'image'
p2
S'../../../data/emanuela/activity-recognition/images/NTCIR-Lifelog-256/u3/2015-08-01/b00006359_21i79q_20150801_150237e.jpg'
p3
sS'result'
p4
(lp5
(cnumpy.core.multiarray
scalar
p6
(cnumpy
dtype
p7
(S'S27'
p8
I0
I1
tp9
Rp10
(I3
S'|'
p11
NNNI27
I1
I0
tp12
bS'having drinks with somebody'
p13
tp14
Rp15
g6
(g7
(S'f4'
p16
I0
I1
tp17
Rp18
(I3
S'<'
p19
NNNI-1
I-1
I0
tp20
bS'\xb7\x03w?'
p21
tp22
Rp23
tp24
a(g6
(g7
(S'S11'
p25
I0
I1
tp26
Rp27
(I3
S'|'
p28
NNNI11
I1
I0
tp29
bS'socializing'
p30
tp31
Rp32
g6
(g18
S'\xc4c\xc2<'
p33
tp34
Rp35
tp36
a(g6
(g7
(S'S24'
p37
I0
I1
tp38
Rp39
(I3
S'|'
p40
NNNI24
I1
I0
tp41
bS'having drinks/meal alone'
p42
tp43
Rp44
g6
(g18
S'\xf0D\x13<'
p45
tp46
Rp47
tp48
a(g6
(g7
(S'S8'
p49
I0
I1
tp50
Rp51
(I3
S'|'
p52
NNNI8
I1
I0
tp53
bS'shopping'
p54
tp55
Rp56
g6
(g18
S'\xfbrR:'
p57
tp58
Rp59
tp60
a(g6
(g7
(S'S25'
p61
I0
I1
tp62
Rp63
(I3
S'|'
p64
NNNI25
I1
I0
tp65
bS'having meal with somebody'
p66
tp67
Rp68
g6
(g18
S'\x9a%\xfe9'
p69
tp70
Rp71
tp72
asS'label'
p73
g15
sa(dp74
g2
S'../../../data/emanuela/activity-recognition/images/NTCIR-Lifelog-256/u3/2015-07-11/b00000617_21i79q_20150711_124309e.jpg'
p75
sg4
(lp76
(g15
g6
(g18
S'r\xf4s?'
p77
tp78
Rp79
tp80
a(g32
g6
(g18
S'%\x06\x1c='
p81
tp82
Rp83
tp84
a(g6
(g7
(S'S19'
p85
I0
I1
tp86
Rp87
(I3
S'|'
p88
NNNI19
I1
I0
tp89
bS'attending a seminar'
p90
tp91
Rp92
g6
(g18
S'\xbe\x08\x9a;'
p93
tp94
Rp95
tp96
a(g68
g6
(g18
S'\xad+\x08;'
p97
tp98
Rp99
tp100
a(g6
(g7
(S'S7'
p101
I0
I1
tp102
Rp103
(I3
S'|'
p104
NNNI7
I1
I0
tp105
bS'meeting'
p106
tp107
Rp108
g6
(g18
S'\xc6\x7f\x1d:'
p109
tp110
Rp111
tp112
asg73
g15
sa(dp113
g2
S'../../../data/emanuela/activity-recognition/images/NTCIR-Lifelog-256/u2/2015-04-21/b00000867_21i7lf_20150421_190735e.jpg'
p114
sg4
(lp115
(g15
g6
(g18
S'\xbb\x0fQ?'
p116
tp117
Rp118
tp119
a(g32
g6
(g18
S'\x91[\xff='
p120
tp121
Rp122
tp123
a(g6
(g7
(S'S14'
p124
I0
I1
tp125
Rp126
(I3
S'|'
p127
NNNI14
I1
I0
tp128
bS'walking indoor'
p129
tp130
Rp131
g6
(g18
S'\xc0zL<'
p132
tp133
Rp134
tp135
a(g68
g6
(g18
S'?\xf1\xe8;'
p136
tp137
Rp138
tp139
a(g6
(g7
(S'S2'
p140
I0
I1
tp141
Rp142
(I3
S'|'
p143
NNNI2
I1
I0
tp144
bS'tv'
p145
tp146
Rp147
g6
(g18
S'\xc3\x92\xe3;'
p148
tp149
Rp150
tp151
asg73
g15
sa(dp152
g2
S'../../../data/emanuela/activity-recognition/images/NTCIR-Lifelog-256/u2/2015-05-06/b00007126_21i7lf_20150506_175921e.jpg'
p153
sg4
(lp154
(g32
g6
(g18
S'\xa0b>?'
p155
tp156
Rp157
tp158
a(g15
g6
(g18
S'\xc08Z>'
p159
tp160
Rp161
tp162
a(g68
g6
(g18
S'\xe2\x9e\x1e<'
p163
tp164
Rp165
tp166
a(g92
g6
(g18
S'\x06$\x0b<'
p167
tp168
Rp169
tp170
a(g6
(g7
(S'S7'
p171
I0
I1
tp172
Rp173
(I3
S'|'
p174
NNNI7
I1
I0
tp175
bS'talking'
p176
tp177
Rp178
g6
(g18
S'\x17<\xf0;'
p179
tp180
Rp181
tp182
asg73
g15
sa(dp183
g2
S'../../../data/emanuela/activity-recognition/images/NTCIR-Lifelog-256/u3/2015-07-11/b00000646_21i79q_20150711_130229e.jpg'
p184
sg4
(lp185
(g15
g6
(g18
S'U6x?'
p186
tp187
Rp188
tp189
a(g32
g6
(g18
S'S\xd0\x9c<'
p190
tp191
Rp192
tp193
a(g68
g6
(g18
S'\x1f\x13\x04<'
p194
tp195
Rp196
tp197
a(g44
g6
(g18
S'1\x02\xf5:'
p198
tp199
Rp200
tp201
a(g92
g6
(g18
S'\xf5q%:'
p202
tp203
Rp204
tp205
asg73
g15
sa(dp206
g2
S'../../../data/emanuela/activity-recognition/images/NTCIR-Lifelog-256/u3/2015-07-11/b00000354_21i79q_20150711_101349e.jpg'
p207
sg4
(lp208
(g15
g6
(g18
S'\xff\x99{?'
p209
tp210
Rp211
tp212
a(g44
g6
(g18
S'#\nI<'
p213
tp214
Rp215
tp216
a(g32
g6
(g18
S'v\xf5\x02;'
p217
tp218
Rp219
tp220
a(g108
g6
(g18
S'\xd41Y:'
p221
tp222
Rp223
tp224
a(g6
(g7
(S'S6'
p225
I0
I1
tp226
Rp227
(I3
S'|'
p228
NNNI6
I1
I0
tp229
bS'mobile'
p230
tp231
Rp232
g6
(g18
S'\xa1WX:'
p233
tp234
Rp235
tp236
asg73
g15
sa(dp237
g2
S'../../../data/emanuela/activity-recognition/images/NTCIR-Lifelog-256/u1/2015-02-26/b00000734_21i6bq_20150226_140639e.jpg'
p238
sg4
(lp239
(g15
g6
(g18
S'V[/?'
p240
tp241
Rp242
tp243
a(g68
g6
(g18
S'q\x1b8>'
p244
tp245
Rp246
tp247
a(g44
g6
(g18
S'\xc2\x9d\x9a='
p248
tp249
Rp250
tp251
a(g32
g6
(g18
S'eS*='
p252
tp253
Rp254
tp255
a(g6
(g7
(S'S16'
p256
I0
I1
tp257
Rp258
(I3
S'|'
p259
NNNI16
I1
I0
tp260
bS'public transport'
p261
tp262
Rp263
g6
(g18
S'L\xe5\x8d;'
p264
tp265
Rp266
tp267
asg73
g15
sa(dp268
g2
S'../../../data/emanuela/activity-recognition/images/NTCIR-Lifelog-256/u1/2015-03-06/b00001288_21i6bq_20150306_183420e.jpg'
p269
sg4
(lp270
(g15
g6
(g18
S'U~l?'
p271
tp272
Rp273
tp274
a(g32
g6
(g18
S"\\J'="
p275
tp276
Rp277
tp278
a(g68
g6
(g18
S'1\x8cU<'
p279
tp280
Rp281
tp282
a(g178
g6
(g18
S'\xf7\xe4C<'
p283
tp284
Rp285
tp286
a(g108
g6
(g18
S'\xe8\x1bj;'
p287
tp288
Rp289
tp290
asg73
g15
sa(dp291
g2
S'../../../data/emanuela/activity-recognition/images/NTCIR-Lifelog-256/u3/2015-07-18/b00000277_21i79q_20150718_140348e.jpg'
p292
sg4
(lp293
(g32
g6
(g18
S'\xfdI\x00?'
p294
tp295
Rp296
tp297
a(g15
g6
(g18
S'H\xa4\xf3>'
p298
tp299
Rp300
tp301
a(g68
g6
(g18
S'\xc6\xe0\xa5<'
p302
tp303
Rp304
tp305
a(g44
g6
(g18
S'\x9b\r\xef:'
p306
tp307
Rp308
tp309
a(g6
(g7
(S'S15'
p310
I0
I1
tp311
Rp312
(I3
S'|'
p313
NNNI15
I1
I0
tp314
bS'walking outdoor'
p315
tp316
Rp317
g6
(g18
S'i\nj9'
p318
tp319
Rp320
tp321
asg73
g15
sa(dp322
g2
S'../../../data/emanuela/activity-recognition/images/NTCIR-Lifelog-256/u2/2015-04-27/b00005824_21i7lf_20150427_175404e.jpg'
p323
sg4
(lp324
(g15
g6
(g18
S'\xe7\x8d(?'
p325
tp326
Rp327
tp328
a(g44
g6
(g18
S'\xd2]L>'
p329
tp330
Rp331
tp332
a(g263
g6
(g18
S'\xf2\xf5@='
p333
tp334
Rp335
tp336
a(g32
g6
(g18
S'C\x0c\n='
p337
tp338
Rp339
tp340
a(g56
g6
(g18
S'.=|<'
p341
tp342
Rp343
tp344
asg73
g15
sa(dp345
g2
S'../../../data/emanuela/activity-recognition/images/NTCIR-Lifelog-256/u3/2015-07-11/b00000364_21i79q_20150711_101947e.jpg'
p346
sg4
(lp347
(g15
g6
(g18
S'\x8e\x92|?'
p348
tp349
Rp350
tp351
a(g44
g6
(g18
S'\xb3\x86\x1c<'
p352
tp353
Rp354
tp355
a(g232
g6
(g18
S'A\x07\x0e;'
p356
tp357
Rp358
tp359
a(g32
g6
(g18
S'O\x01\x8b:'
p360
tp361
Rp362
tp363
a(g108
g6
(g18
S'B\x8eD9'
p364
tp365
Rp366
tp367
asg73
g15
sa(dp368
g2
S'../../../data/emanuela/activity-recognition/images/NTCIR-Lifelog-256/u1/2015-02-24/b00001056_21i6bq_20150224_172700e.jpg'
p369
sg4
(lp370
(g15
g6
(g18
S'\xbe\x01J?'
p371
tp372
Rp373
tp374
a(g68
g6
(g18
S'\xa5\xb4\xcc='
p375
tp376
Rp377
tp378
a(g32
g6
(g18
S'\xdc\xebB='
p379
tp380
Rp381
tp382
a(g44
g6
(g18
S'\xa2\x92\x80<'
p383
tp384
Rp385
tp386
a(g178
g6
(g18
S'h\xf0x<'
p387
tp388
Rp389
tp390
asg73
g15
sa(dp391
g2
S'../../../data/emanuela/activity-recognition/images/NTCIR-Lifelog-256/u3/2015-07-25/b00001624_21i79q_20150725_205625e.jpg'
p392
sg4
(lp393
(g15
g6
(g18
S'\xe3d??'
p394
tp395
Rp396
tp397
a(g131
g6
(g18
S'g9\x86='
p398
tp399
Rp400
tp401
a(g32
g6
(g18
S'\x95Wt='
p402
tp403
Rp404
tp405
a(g44
g6
(g18
S'\x13\x8f\x00='
p406
tp407
Rp408
tp409
a(g56
g6
(g18
S'\xe3\xa9\xbe<'
p410
tp411
Rp412
tp413
asg73
g15
sa(dp414
g2
S'../../../data/emanuela/activity-recognition/images/NTCIR-Lifelog-256/u3/2015-07-11/b00000396_21i79q_20150711_103818e.jpg'
p415
sg4
(lp416
(g178
g6
(g18
S'u`$>'
p417
tp418
Rp419
tp420
a(g44
g6
(g18
S'\xaf\xf6\x0f>'
p421
tp422
Rp423
tp424
a(g232
g6
(g18
S'\xb7O\n>'
p425
tp426
Rp427
tp428
a(g108
g6
(g18
S'\x9a\xff\x02>'
p429
tp430
Rp431
tp432
a(g6
(g7
(S'S7'
p433
I0
I1
tp434
Rp435
(I3
S'|'
p436
NNNI7
I1
I0
tp437
bS'working'
p438
tp439
Rp440
g6
(g18
S'\x90f\xf7='
p441
tp442
Rp443
tp444
asg73
g15
sa(dp445
g2
S'../../../data/emanuela/activity-recognition/images/NTCIR-Lifelog-256/u3/2015-07-25/b00001682_21i79q_20150725_222835e.jpg'
p446
sg4
(lp447
(g15
g6
(g18
S'\x10\x17\n?'
p448
tp449
Rp450
tp451
a(g32
g6
(g18
S'.\xb8\x7f>'
p452
tp453
Rp454
tp455
a(g92
g6
(g18
S'N\xcf\xbd='
p456
tp457
Rp458
tp459
a(g44
g6
(g18
S'=\xb9m='
p460
tp461
Rp462
tp463
a(g131
g6
(g18
S'\x99\x18\x9f<'
p464
tp465
Rp466
tp467
asg73
g15
sa(dp468
g2
S'../../../data/emanuela/activity-recognition/images/NTCIR-Lifelog-256/u3/2015-07-11/b00000402_21i79q_20150711_104142e.jpg'
p469
sg4
(lp470
(g15
g6
(g18
S'\x87"=?'
p471
tp472
Rp473
tp474
a(g108
g6
(g18
S'Ff\x92='
p475
tp476
Rp477
tp478
a(g44
g6
(g18
S'e\xa7\x8b='
p479
tp480
Rp481
tp482
a(g232
g6
(g18
S'\xa6\xd45='
p483
tp484
Rp485
tp486
a(g178
g6
(g18
S'\x1e\x9a\xdb<'
p487
tp488
Rp489
tp490
asg73
g15
sa(dp491
g2
S'../../../data/emanuela/activity-recognition/images/NTCIR-Lifelog-256/u2/2015-04-21/b00000904_21i7lf_20150421_194159e.jpg'
p492
sg4
(lp493
(g15
g6
(g18
S'\x89\x7f3?'
p494
tp495
Rp496
tp497
a(g232
g6
(g18
S'z_\xb0='
p498
tp499
Rp500
tp501
a(g108
g6
(g18
S'.\xbd\x7f='
p502
tp503
Rp504
tp505
a(g32
g6
(g18
S'\xb6wL='
p506
tp507
Rp508
tp509
a(g178
g6
(g18
S'\x0f\x87\x0e='
p510
tp511
Rp512
tp513
asg73
g15
sa(dp514
g2
S'../../../data/emanuela/activity-recognition/images/NTCIR-Lifelog-256/u3/2015-07-18/b00000279_21i79q_20150718_140506e.jpg'
p515
sg4
(lp516
(g15
g6
(g18
S'\xfd\xc6\xfe>'
p517
tp518
Rp519
tp520
a(g32
g6
(g18
S'\xc8\xb4\xd2>'
p521
tp522
Rp523
tp524
a(g68
g6
(g18
S'\xbbe0='
p525
tp526
Rp527
tp528
a(g44
g6
(g18
S'\xf8\xf0%='
p529
tp530
Rp531
tp532
a(g232
g6
(g18
S'D\x17\xcf:'
p533
tp534
Rp535
tp536
asg73
g15
sa(dp537
g2
S'../../../data/emanuela/activity-recognition/images/NTCIR-Lifelog-256/u1/2015-03-11/b00000602_21i6bq_20150311_130334e.jpg'
p538
sg4
(lp539
(g178
g6
(g18
S'\xddHn?'
p540
tp541
Rp542
tp543
a(g32
g6
(g18
S'\xe2\x06\xbf<'
p544
tp545
Rp546
tp547
a(g131
g6
(g18
S'd,\xad<'
p548
tp549
Rp550
tp551
a(g108
g6
(g18
S'Z:\x07<'
p552
tp553
Rp554
tp555
a(g317
g6
(g18
S'\x1f.\xd9;'
p556
tp557
Rp558
tp559
asg73
g15
sa(dp560
g2
S'../../../data/emanuela/activity-recognition/images/NTCIR-Lifelog-256/u3/2015-06-28/b00000401_21i79q_20150628_182036e.jpg'
p561
sg4
(lp562
(g15
g6
(g18
S'!/A?'
p563
tp564
Rp565
tp566
a(g32
g6
(g18
S'h\x01\xe2='
p567
tp568
Rp569
tp570
a(g44
g6
(g18
S'\x86\\\x84='
p571
tp572
Rp573
tp574
a(g68
g6
(g18
S'\xc0\xd0\x18='
p575
tp576
Rp577
tp578
a(g178
g6
(g18
S'\x16\xf16<'
p579
tp580
Rp581
tp582
asg73
g15
sa(dp583
g2
S'../../../data/emanuela/activity-recognition/images/NTCIR-Lifelog-256/u1/2015-03-06/b00001314_21i6bq_20150306_185113e.jpg'
p584
sg4
(lp585
(g15
g6
(g18
S'\x1d\x93\x11?'
p586
tp587
Rp588
tp589
a(g32
g6
(g18
S'\xd2\x1f\x99>'
p590
tp591
Rp592
tp593
a(g178
g6
(g18
S'C\xc5\xba<'
p594
tp595
Rp596
tp597
a(g263
g6
(g18
S'\x93\xc4\xaf<'
p598
tp599
Rp600
tp601
a(g131
g6
(g18
S'\x9e\x15\x99<'
p602
tp603
Rp604
tp605
asg73
g15
sa(dp606
g2
S'../../../data/emanuela/activity-recognition/images/NTCIR-Lifelog-256/u2/2015-04-26/b00004196_21i7lf_20150426_161617e.jpg'
p607
sg4
(lp608
(g68
g6
(g18
S'\x85\x95\x01?'
p609
tp610
Rp611
tp612
a(g92
g6
(g18
S'\x92\xf6\x1b>'
p613
tp614
Rp615
tp616
a(g32
g6
(g18
S'\x1e\xb8\x17>'
p617
tp618
Rp619
tp620
a(g15
g6
(g18
S'\xa7\xf9\xd6='
p621
tp622
Rp623
tp624
a(g131
g6
(g18
S'\xd1\xa5\x1f='
p625
tp626
Rp627
tp628
asg73
g15
sa(dp629
g2
S'../../../data/emanuela/activity-recognition/images/NTCIR-Lifelog-256/u3/2015-06-20/b00001512_21i79q_20150620_033759e.jpg'
p630
sg4
(lp631
(g32
g6
(g18
S'W\t2?'
p632
tp633
Rp634
tp635
a(g147
g6
(g18
S"'\x88\x13>"
p636
tp637
Rp638
tp639
a(g178
g6
(g18
S'\x0f\xc9\\='
p640
tp641
Rp642
tp643
a(g68
g6
(g18
S'\x13\x01\xb1<'
p644
tp645
Rp646
tp647
a(g44
g6
(g18
S'\xc0L\x9c<'
p648
tp649
Rp650
tp651
asg73
g15
sa(dp652
g2
S'../../../data/emanuela/activity-recognition/images/NTCIR-Lifelog-256/u2/2015-04-27/b00005786_21i7lf_20150427_173142e.jpg'
p653
sg4
(lp654
(g15
g6
(g18
S'\x1eR:?'
p655
tp656
Rp657
tp658
a(g44
g6
(g18
S'\xd6\x9eK>'
p659
tp660
Rp661
tp662
a(g56
g6
(g18
S'\x19\xee\x9a<'
p663
tp664
Rp665
tp666
a(g32
g6
(g18
S'\xe8U]<'
p667
tp668
Rp669
tp670
a(g68
g6
(g18
S'\x1e\xeeQ<'
p671
tp672
Rp673
tp674
asg73
g15
sa(dp675
g2
S'../../../data/emanuela/activity-recognition/images/NTCIR-Lifelog-256/u3/2015-07-18/b00000310_21i79q_20150718_142301e.jpg'
p676
sg4
(lp677
(g32
g6
(g18
S'|\x02\x01?'
p678
tp679
Rp680
tp681
a(g68
g6
(g18
S'v\xf7l>'
p682
tp683
Rp684
tp685
a(g15
g6
(g18
S'\x9a%k>'
p686
tp687
Rp688
tp689
a(g44
g6
(g18
S'\xa3Q"<'
p690
tp691
Rp692
tp693
a(g178
g6
(g18
S'N\xcd\x14<'
p694
tp695
Rp696
tp697
asg73
g15
sa(dp698
g2
S'../../../data/emanuela/activity-recognition/images/NTCIR-Lifelog-256/u3/2015-07-11/b00000535_21i79q_20150711_120133e.jpg'
p699
sg4
(lp700
(g15
g6
(g18
S'\xb8\xb2v?'
p701
tp702
Rp703
tp704
a(g32
g6
(g18
S'\xf65\xec<'
p705
tp706
Rp707
tp708
a(g68
g6
(g18
S'\x81\x8b7;'
p709
tp710
Rp711
tp712
a(g92
g6
(g18
S'ye\xd4:'
p713
tp714
Rp715
tp716
a(g56
g6
(g18
S'\x1e\xa2\x9e:'
p717
tp718
Rp719
tp720
asg73
g15
sa(dp721
g2
S'../../../data/emanuela/activity-recognition/images/NTCIR-Lifelog-256/u2/2015-04-21/b00000903_21i7lf_20150421_194122e.jpg'
p722
sg4
(lp723
(g15
g6
(g18
S'&\xa3P?'
p724
tp725
Rp726
tp727
a(g232
g6
(g18
S'$\xfb\x99='
p728
tp729
Rp730
tp731
a(g44
g6
(g18
S'\xba\x90\x1a='
p732
tp733
Rp734
tp735
a(g32
g6
(g18
S'\xed\xed\xe6<'
p736
tp737
Rp738
tp739
a(g147
g6
(g18
S'\xa9\x91$<'
p740
tp741
Rp742
tp743
asg73
g15
sa(dp744
g2
S'../../../data/emanuela/activity-recognition/images/NTCIR-Lifelog-256/u2/2015-04-27/b00005800_21i7lf_20150427_174016e.jpg'
p745
sg4
(lp746
(g15
g6
(g18
S'k%!?'
p747
tp748
Rp749
tp750
a(g44
g6
(g18
S'\x1e(\xb2>'
p751
tp752
Rp753
tp754
a(g32
g6
(g18
S'\x97j\x93;'
p755
tp756
Rp757
tp758
a(g68
g6
(g18
S'\xbf\xa4\x84;'
p759
tp760
Rp761
tp762
a(g263
g6
(g18
S'\x849x;'
p763
tp764
Rp765
tp766
asg73
g15
sa(dp767
g2
S'../../../data/emanuela/activity-recognition/images/NTCIR-Lifelog-256/u3/2015-06-28/b00000308_21i79q_20150628_172849e.jpg'
p768
sg4
(lp769
(g15
g6
(g18
S't\xdf|?'
p770
tp771
Rp772
tp773
a(g32
g6
(g18
S'\x91\x93\xc3;'
p774
tp775
Rp776
tp777
a(g44
g6
(g18
S'.\xedM;'
p778
tp779
Rp780
tp781
a(g68
g6
(g18
S'$9(;'
p782
tp783
Rp784
tp785
a(g178
g6
(g18
S'x^^9'
p786
tp787
Rp788
tp789
asg73
g15
sa(dp790
g2
S'../../../data/emanuela/activity-recognition/images/NTCIR-Lifelog-256/u2/2015-05-01/b00001787_21i7lf_20150501_091112e.jpg'
p791
sg4
(lp792
(g68
g6
(g18
S'5]\xd8>'
p793
tp794
Rp795
tp796
a(g15
g6
(g18
S'\xc1Z\x9c>'
p797
tp798
Rp799
tp800
a(g32
g6
(g18
S'\xe0\\k>'
p801
tp802
Rp803
tp804
a(g44
g6
(g18
S'H\x9f\xc8<'
p805
tp806
Rp807
tp808
a(g108
g6
(g18
S'\xed\xd0\x90;'
p809
tp810
Rp811
tp812
asg73
g15
sa(dp813
g2
S'../../../data/emanuela/activity-recognition/images/NTCIR-Lifelog-256/u3/2015-07-11/b00000382_21i79q_20150711_103030e.jpg'
p814
sg4
(lp815
(g15
g6
(g18
S'\xe6\xb9+?'
p816
tp817
Rp818
tp819
a(g108
g6
(g18
S'f\xa8\x13>'
p820
tp821
Rp822
tp823
a(g44
g6
(g18
S'\x0bG\xc6='
p824
tp825
Rp826
tp827
a(g440
g6
(g18
S'?r\x91<'
p828
tp829
Rp830
tp831
a(g6
(g7
(S'S7'
p832
I0
I1
tp833
Rp834
(I3
S'|'
p835
NNNI7
I1
I0
tp836
bS'reading'
p837
tp838
Rp839
g6
(g18
S'\x9f\xadD<'
p840
tp841
Rp842
tp843
asg73
g15
sa(dp844
g2
S'../../../data/emanuela/activity-recognition/images/NTCIR-Lifelog-256/u3/2015-06-28/b00000445_21i79q_20150628_184700e.jpg'
p845
sg4
(lp846
(g15
g6
(g18
S'\xeeOI?'
p847
tp848
Rp849
tp850
a(g32
g6
(g18
S'#c6>'
p851
tp852
Rp853
tp854
a(g68
g6
(g18
S'\xa9V\xe4<'
p855
tp856
Rp857
tp858
a(g178
g6
(g18
S'\xab\xc6\xb1;'
p859
tp860
Rp861
tp862
a(g44
g6
(g18
S'6\xec\xbd:'
p863
tp864
Rp865
tp866
asg73
g15
sa(dp867
g2
S'../../../data/emanuela/activity-recognition/images/NTCIR-Lifelog-256/u3/2015-06-28/b00000468_21i79q_20150628_190044e.jpg'
p868
sg4
(lp869
(g44
g6
(g18
S'\xa1\xaf\x93>'
p870
tp871
Rp872
tp873
a(g15
g6
(g18
S'\xdfS\x91>'
p874
tp875
Rp876
tp877
a(g68
g6
(g18
S'\xe4\xf9\x1e>'
p878
tp879
Rp880
tp881
a(g32
g6
(g18
S'-\x16\xcc='
p882
tp883
Rp884
tp885
a(g317
g6
(g18
S'\xea1\x88='
p886
tp887
Rp888
tp889
asg73
g15
sa(dp890
g2
S'../../../data/emanuela/activity-recognition/images/NTCIR-Lifelog-256/u2/2015-05-08/b00009478_21i7lf_20150508_174756e.jpg'
p891
sg4
(lp892
(g15
g6
(g18
S'\xa4\xe8+?'
p893
tp894
Rp895
tp896
a(g32
g6
(g18
S'M/\x96>'
p897
tp898
Rp899
tp900
a(g44
g6
(g18
S'\xda\xbc\xa7<'
p901
tp902
Rp903
tp904
a(g92
g6
(g18
S'\xa8\x0b\x12<'
p905
tp906
Rp907
tp908
a(g68
g6
(g18
S'r\x1b\xc0:'
p909
tp910
Rp911
tp912
asg73
g15
sa(dp913
g2
S'../../../data/emanuela/activity-recognition/images/NTCIR-Lifelog-256/u2/2015-05-08/b00009491_21i7lf_20150508_175933e.jpg'
p914
sg4
(lp915
(g15
g6
(g18
S'\xaa\xf7J?'
p916
tp917
Rp918
tp919
a(g32
g6
(g18
S'4:\xdd='
p920
tp921
Rp922
tp923
a(g44
g6
(g18
S'\xd7v\x1b='
p924
tp925
Rp926
tp927
a(g56
g6
(g18
S'\x96\x82\xf8<'
p928
tp929
Rp930
tp931
a(g68
g6
(g18
S'6\xd8W<'
p932
tp933
Rp934
tp935
asg73
g15
sa(dp936
g2
S'../../../data/emanuela/activity-recognition/images/NTCIR-Lifelog-256/u3/2015-06-28/b00000275_21i79q_20150628_170842e.jpg'
p937
sg4
(lp938
(g15
g6
(g18
S'\xe6\x90u?'
p939
tp940
Rp941
tp942
a(g32
g6
(g18
S'\xa0V\x14='
p943
tp944
Rp945
tp946
a(g68
g6
(g18
S'\xb9\xaf8;'
p947
tp948
Rp949
tp950
a(g44
g6
(g18
S'\x8d6m:'
p951
tp952
Rp953
tp954
a(g178
g6
(g18
S"'\xbc\xc49"
p955
tp956
Rp957
tp958
asg73
g15
sa(dp959
g2
S'../../../data/emanuela/activity-recognition/images/NTCIR-Lifelog-256/u3/2015-08-01/b00006379_21i79q_20150801_152033e.jpg'
p960
sg4
(lp961
(g15
g6
(g18
S'\x8a\x11u?'
p962
tp963
Rp964
tp965
a(g32
g6
(g18
S'\xe6\x81\x11='
p966
tp967
Rp968
tp969
a(g44
g6
(g18
S'\xbf\xb9-;'
p970
tp971
Rp972
tp973
a(g232
g6
(g18
S'/X\xc3:'
p974
tp975
Rp976
tp977
a(g147
g6
(g18
S'\\W\x98:'
p978
tp979
Rp980
tp981
asg73
g15
sa(dp982
g2
S'../../../data/emanuela/activity-recognition/images/NTCIR-Lifelog-256/u1/2015-03-11/b00000604_21i6bq_20150311_130449e.jpg'
p983
sg4
(lp984
(g15
g6
(g18
S'd\xb2\x9e>'
p985
tp986
Rp987
tp988
a(g56
g6
(g18
S'\x116\x85>'
p989
tp990
Rp991
tp992
a(g44
g6
(g18
S'EXS>'
p993
tp994
Rp995
tp996
a(g131
g6
(g18
S'\xa8`\x9b='
p997
tp998
Rp999
tp1000
a(g32
g6
(g18
S'\xe1=S='
p1001
tp1002
Rp1003
tp1004
asg73
g15
sa(dp1005
g2
S'../../../data/emanuela/activity-recognition/images/NTCIR-Lifelog-256/u3/2015-06-28/b00000454_21i79q_20150628_185226e.jpg'
p1006
sg4
(lp1007
(g44
g6
(g18
S'\xa2\xf2\xe2>'
p1008
tp1009
Rp1010
tp1011
a(g15
g6
(g18
S'\x80N\x84>'
p1012
tp1013
Rp1014
tp1015
a(g32
g6
(g18
S'%\xf4\xd7='
p1016
tp1017
Rp1018
tp1019
a(g6
(g7
(S'S7'
p1020
I0
I1
tp1021
Rp1022
(I3
S'|'
p1023
NNNI7
I1
I0
tp1024
bS'driving'
p1025
tp1026
Rp1027
g6
(g18
S'\x81\x06\xa4='
p1028
tp1029
Rp1030
tp1031
a(g68
g6
(g18
S'\x87\x93\xff<'
p1032
tp1033
Rp1034
tp1035
asg73
g15
sa(dp1036
g2
S'../../../data/emanuela/activity-recognition/images/NTCIR-Lifelog-256/u2/2015-04-21/b00000892_21i7lf_20150421_193444e.jpg'
p1037
sg4
(lp1038
(g15
g6
(g18
S'\xe2zT?'
p1039
tp1040
Rp1041
tp1042
a(g32
g6
(g18
S'\x98^\xd7='
p1043
tp1044
Rp1045
tp1046
a(g44
g6
(g18
S'\n\x9f\xf9<'
p1047
tp1048
Rp1049
tp1050
a(g68
g6
(g18
S'\xc5\x95,<'
p1051
tp1052
Rp1053
tp1054
a(g131
g6
(g18
S'\x10\xfa\xe7;'
p1055
tp1056
Rp1057
tp1058
asg73
g15
sa(dp1059
g2
S'../../../data/emanuela/activity-recognition/images/NTCIR-Lifelog-256/u3/2015-07-11/b00000622_21i79q_20150711_124611e.jpg'
p1060
sg4
(lp1061
(g15
g6
(g18
S'\xfdYw?'
p1062
tp1063
Rp1064
tp1065
a(g32
g6
(g18
S'\xc2\xc4\xe8<'
p1066
tp1067
Rp1068
tp1069
a(g68
g6
(g18
S'o\x13\xe5:'
p1070
tp1071
Rp1072
tp1073
a(g92
g6
(g18
S'\xde\x87\xa8:'
p1074
tp1075
Rp1076
tp1077
a(g178
g6
(g18
S'\x89GZ:'
p1078
tp1079
Rp1080
tp1081
asg73
g15
sa(dp1082
g2
S'../../../data/emanuela/activity-recognition/images/NTCIR-Lifelog-256/u3/2015-07-29/b00004101_21i79q_20150729_150830e.jpg'
p1083
sg4
(lp1084
(g15
g6
(g18
S'A\xfcZ?'
p1085
tp1086
Rp1087
tp1088
a(g44
g6
(g18
S'\xa7`K='
p1089
tp1090
Rp1091
tp1092
a(g56
g6
(g18
S'\xa3Z0='
p1093
tp1094
Rp1095
tp1096
a(g68
g6
(g18
S'q;\xe6<'
p1097
tp1098
Rp1099
tp1100
a(g131
g6
(g18
S'\xd7X\\<'
p1101
tp1102
Rp1103
tp1104
asg73
g15
sa(dp1105
g2
S'../../../data/emanuela/activity-recognition/images/NTCIR-Lifelog-256/u3/2015-07-11/b00001036_21i79q_20150711_164544e.jpg'
p1106
sg4
(lp1107
(g15
g6
(g18
S'\xbdE\x05?'
p1108
tp1109
Rp1110
tp1111
a(g44
g6
(g18
S'b@\x99='
p1112
tp1113
Rp1114
tp1115
a(g32
g6
(g18
S'\xff\xf9q='
p1116
tp1117
Rp1118
tp1119
a(g56
g6
(g18
S'\n\x8e*='
p1120
tp1121
Rp1122
tp1123
a(g317
g6
(g18
S'\x1c^\x1b='
p1124
tp1125
Rp1126
tp1127
asg73
g15
sa(dp1128
g2
S'../../../data/emanuela/activity-recognition/images/NTCIR-Lifelog-256/u2/2015-04-23/b00001255_21i7lf_20150423_144245e.jpg'
p1129
sg4
(lp1130
(g32
g6
(g18
S'\xeb\x97t?'
p1131
tp1132
Rp1133
tp1134
a(g15
g6
(g18
S'\x84l\xbe<'
p1135
tp1136
Rp1137
tp1138
a(g178
g6
(g18
S'\x8e\xfbR<'
p1139
tp1140
Rp1141
tp1142
a(g68
g6
(g18
S'!F\x0e;'
p1143
tp1144
Rp1145
tp1146
a(g44
g6
(g18
S'\xa7\x91\x07;'
p1147
tp1148
Rp1149
tp1150
asg73
g15
sa(dp1151
g2
S'../../../data/emanuela/activity-recognition/images/NTCIR-Lifelog-256/u3/2015-06-28/b00000295_21i79q_20150628_172044e.jpg'
p1152
sg4
(lp1153
(g15
g6
(g18
S'\xd0\x86\x19?'
p1154
tp1155
Rp1156
tp1157
a(g68
g6
(g18
S'\x13#V>'
p1158
tp1159
Rp1160
tp1161
a(g32
g6
(g18
S'\x8cV\x96='
p1162
tp1163
Rp1164
tp1165
a(g44
g6
(g18
S'Y6t='
p1166
tp1167
Rp1168
tp1169
a(g108
g6
(g18
S'f\xaa-='
p1170
tp1171
Rp1172
tp1173
asg73
g15
sa(dp1174
g2
S'../../../data/emanuela/activity-recognition/images/NTCIR-Lifelog-256/u3/2015-06-28/b00000486_21i79q_20150628_191114e.jpg'
p1175
sg4
(lp1176
(g15
g6
(g18
S'x\xc2A?'
p1177
tp1178
Rp1179
tp1180
a(g44
g6
(g18
S'\xacu,>'
p1181
tp1182
Rp1183
tp1184
a(g68
g6
(g18
S'\xf8\xa6\x17='
p1185
tp1186
Rp1187
tp1188
a(g32
g6
(g18
S'\x87\x95\x87<'
p1189
tp1190
Rp1191
tp1192
a(g1027
g6
(g18
S'/K\xc0;'
p1193
tp1194
Rp1195
tp1196
asg73
g15
sa(dp1197
g2
S'../../../data/emanuela/activity-recognition/images/NTCIR-Lifelog-256/u3/2015-07-11/b00001051_21i79q_20150711_165513e.jpg'
p1198
sg4
(lp1199
(g44
g6
(g18
S'Y\x15\x08?'
p1200
tp1201
Rp1202
tp1203
a(g15
g6
(g18
S'&$\xdb>'
p1204
tp1205
Rp1206
tp1207
a(g32
g6
(g18
S'\xc7\x96\x02<'
p1208
tp1209
Rp1210
tp1211
a(g68
g6
(g18
S'\xdc\xf4\xc9;'
p1212
tp1213
Rp1214
tp1215
a(g147
g6
(g18
S'M\xea\x85;'
p1216
tp1217
Rp1218
tp1219
asg73
g15
sa(dp1220
g2
S'../../../data/emanuela/activity-recognition/images/NTCIR-Lifelog-256/u2/2015-04-23/b00001260_21i7lf_20150423_144556e.jpg'
p1221
sg4
(lp1222
(g15
g6
(g18
S'\xc1\xa5\xc2>'
p1223
tp1224
Rp1225
tp1226
a(g68
g6
(g18
S'\xeb\xbe\xba>'
p1227
tp1228
Rp1229
tp1230
a(g44
g6
(g18
S'f+Z>'
p1231
tp1232
Rp1233
tp1234
a(g32
g6
(g18
S'\x01\x96\x06='
p1235
tp1236
Rp1237
tp1238
a(g108
g6
(g18
S'VF\xca;'
p1239
tp1240
Rp1241
tp1242
asg73
g15
sa(dp1243
g2
S'../../../data/emanuela/activity-recognition/images/NTCIR-Lifelog-256/u3/2015-07-11/b00000351_21i79q_20150711_101201e.jpg'
p1244
sg4
(lp1245
(g15
g6
(g18
S'\x90F~?'
p1246
tp1247
Rp1248
tp1249
a(g44
g6
(g18
S'\xdd\x0b\x95;'
p1250
tp1251
Rp1252
tp1253
a(g32
g6
(g18
S'\x84\xe3\x9a:'
p1254
tp1255
Rp1256
tp1257
a(g68
g6
(g18
S'G\xb5\xaf9'
p1258
tp1259
Rp1260
tp1261
a(g232
g6
(g18
S'\x91Z\xa39'
p1262
tp1263
Rp1264
tp1265
asg73
g15
sa(dp1266
g2
S'../../../data/emanuela/activity-recognition/images/NTCIR-Lifelog-256/u3/2015-07-11/b00001020_21i79q_20150711_163506e.jpg'
p1267
sg4
(lp1268
(g15
g6
(g18
S'\x13\x12;?'
p1269
tp1270
Rp1271
tp1272
a(g44
g6
(g18
S'.\xd0\xf7='
p1273
tp1274
Rp1275
tp1276
a(g32
g6
(g18
S't\x90\x8a='
p1277
tp1278
Rp1279
tp1280
a(g68
g6
(g18
S'\xad3+='
p1281
tp1282
Rp1283
tp1284
a(g6
(g7
(S'S19'
p1285
I0
I1
tp1286
Rp1287
(I3
S'|'
p1288
NNNI19
I1
I0
tp1289
bS'cleaning and chores'
p1290
tp1291
Rp1292
g6
(g18
S'\xe6\xe3.<'
p1293
tp1294
Rp1295
tp1296
asg73
g15
sa(dp1297
g2
S'../../../data/emanuela/activity-recognition/images/NTCIR-Lifelog-256/u3/2015-06-28/b00000250_21i79q_20150628_165326e.jpg'
p1298
sg4
(lp1299
(g15
g6
(g18
S'\xcb\xa3b?'
p1300
tp1301
Rp1302
tp1303
a(g32
g6
(g18
S'\xd2f\xc2='
p1304
tp1305
Rp1306
tp1307
a(g178
g6
(g18
S'\x84\xe2\x10<'
p1308
tp1309
Rp1310
tp1311
a(g44
g6
(g18
S'\xef\x99\xbe;'
p1312
tp1313
Rp1314
tp1315
a(g68
g6
(g18
S'm\xb2\x1f;'
p1316
tp1317
Rp1318
tp1319
asg73
g15
sa(dp1320
g2
S'../../../data/emanuela/activity-recognition/images/NTCIR-Lifelog-256/u2/2015-04-23/b00001262_21i7lf_20150423_144718e.jpg'
p1321
sg4
(lp1322
(g15
g6
(g18
S')\x04^?'
p1323
tp1324
Rp1325
tp1326
a(g32
g6
(g18
S'\xd7\xea\xe5='
p1327
tp1328
Rp1329
tp1330
a(g178
g6
(g18
S'F\\\x16<'
p1331
tp1332
Rp1333
tp1334
a(g263
g6
(g18
S'+\x999;'
p1335
tp1336
Rp1337
tp1338
a(g44
g6
(g18
S'L,\x04;'
p1339
tp1340
Rp1341
tp1342
asg73
g15
sa(dp1343
g2
S'../../../data/emanuela/activity-recognition/images/NTCIR-Lifelog-256/u3/2015-07-11/b00000891_21i79q_20150711_151854e.jpg'
p1344
sg4
(lp1345
(g108
g6
(g18
S'U\x88\xe8>'
p1346
tp1347
Rp1348
tp1349
a(g15
g6
(g18
S'\xf1\xae\x81>'
p1350
tp1351
Rp1352
tp1353
a(g44
g6
(g18
S'l\x13)>'
p1354
tp1355
Rp1356
tp1357
a(g440
g6
(g18
S'\n\x03\x05='
p1358
tp1359
Rp1360
tp1361
a(g32
g6
(g18
S'\x90\xc5\xe0<'
p1362
tp1363
Rp1364
tp1365
asg73
g15
sa(dp1366
g2
S'../../../data/emanuela/activity-recognition/images/NTCIR-Lifelog-256/u3/2015-06-28/b00000305_21i79q_20150628_172703e.jpg'
p1367
sg4
(lp1368
(g15
g6
(g18
S'\xb9Tx?'
p1369
tp1370
Rp1371
tp1372
a(g32
g6
(g18
S'h\x89\x9c<'
p1373
tp1374
Rp1375
tp1376
a(g68
g6
(g18
S'\xc7\x13\xa9;'
p1377
tp1378
Rp1379
tp1380
a(g44
g6
(g18
S'\x14\xae%;'
p1381
tp1382
Rp1383
tp1384
a(g178
g6
(g18
S'x\xf7\xa8:'
p1385
tp1386
Rp1387
tp1388
asg73
g15
sa(dp1389
g2
S'../../../data/emanuela/activity-recognition/images/NTCIR-Lifelog-256/u2/2015-04-21/b00000893_21i7lf_20150421_193516e.jpg'
p1390
sg4
(lp1391
(g15
g6
(g18
S'p\xa3C?'
p1392
tp1393
Rp1394
tp1395
a(g32
g6
(g18
S'f}\xf9='
p1396
tp1397
Rp1398
tp1399
a(g92
g6
(g18
S'\x99E"='
p1400
tp1401
Rp1402
tp1403
a(g44
g6
(g18
S'\xef)\x9d<'
p1404
tp1405
Rp1406
tp1407
a(g131
g6
(g18
S' 3\x8f<'
p1408
tp1409
Rp1410
tp1411
asg73
g15
sa(dp1412
g2
S'../../../data/emanuela/activity-recognition/images/NTCIR-Lifelog-256/u2/2015-05-08/b00009475_21i7lf_20150508_174604e.jpg'
p1413
sg4
(lp1414
(g15
g6
(g18
S'T\xfaT?'
p1415
tp1416
Rp1417
tp1418
a(g44
g6
(g18
S'~\xce\xd5='
p1419
tp1420
Rp1421
tp1422
a(g32
g6
(g18
S'\xef\xe97='
p1423
tp1424
Rp1425
tp1426
a(g56
g6
(g18
S'\xf2\x9c\x08<'
p1427
tp1428
Rp1429
tp1430
a(g232
g6
(g18
S'\xe5\x94-;'
p1431
tp1432
Rp1433
tp1434
asg73
g15
sa(dp1435
g2
S'../../../data/emanuela/activity-recognition/images/NTCIR-Lifelog-256/u2/2015-04-23/b00001270_21i7lf_20150423_145222e.jpg'
p1436
sg4
(lp1437
(g15
g6
(g18
S'\te\x0e?'
p1438
tp1439
Rp1440
tp1441
a(g32
g6
(g18
S'$\x9e\x97>'
p1442
tp1443
Rp1444
tp1445
a(g108
g6
(g18
S'b\x01\x93='
p1446
tp1447
Rp1448
tp1449
a(g44
g6
(g18
S'\x98\xf9\xba<'
p1450
tp1451
Rp1452
tp1453
a(g178
g6
(g18
S'\x1a\x89\xa5<'
p1454
tp1455
Rp1456
tp1457
asg73
g15
sa(dp1458
g2
S'../../../data/emanuela/activity-recognition/images/NTCIR-Lifelog-256/u3/2015-07-25/b00001637_21i79q_20150725_210834e.jpg'
p1459
sg4
(lp1460
(g15
g6
(g18
S'\xc3Uo?'
p1461
tp1462
Rp1463
tp1464
a(g44
g6
(g18
S'\xab\xd7\xb5<'
p1465
tp1466
Rp1467
tp1468
a(g131
g6
(g18
S'\x85ON<'
p1469
tp1470
Rp1471
tp1472
a(g32
g6
(g18
S'\x0e\xaf0<'
p1473
tp1474
Rp1475
tp1476
a(g1292
g6
(g18
S'\x8f0\x1b<'
p1477
tp1478
Rp1479
tp1480
asg73
g15
sa(dp1481
g2
S'../../../data/emanuela/activity-recognition/images/NTCIR-Lifelog-256/u3/2015-07-25/b00001638_21i79q_20150725_210912e.jpg'
p1482
sg4
(lp1483
(g15
g6
(g18
S'\x9d\x0bX?'
p1484
tp1485
Rp1486
tp1487
a(g44
g6
(g18
S'\x1b\x12\x02>'
p1488
tp1489
Rp1490
tp1491
a(g1292
g6
(g18
S'\xa5\x05\x13<'
p1492
tp1493
Rp1494
tp1495
a(g6
(g7
(S'S7'
p1496
I0
I1
tp1497
Rp1498
(I3
S'|'
p1499
NNNI7
I1
I0
tp1500
bS'cooking'
p1501
tp1502
Rp1503
g6
(g18
S'\x97\x8e\xf9;'
p1504
tp1505
Rp1506
tp1507
a(g68
g6
(g18
S'\x08\xf5\xf0;'
p1508
tp1509
Rp1510
tp1511
asg73
g15
sa(dp1512
g2
S'../../../data/emanuela/activity-recognition/images/NTCIR-Lifelog-256/u2/2015-04-27/b00005742_21i7lf_20150427_170444e.jpg'
p1513
sg4
(lp1514
(g44
g6
(g18
S"\x00:'?"
p1515
tp1516
Rp1517
tp1518
a(g15
g6
(g18
S'\x8e\xe9\xa4>'
p1519
tp1520
Rp1521
tp1522
a(g68
g6
(g18
S'p\xc0\xb1<'
p1523
tp1524
Rp1525
tp1526
a(g1503
g6
(g18
S'L\x05\x90:'
p1527
tp1528
Rp1529
tp1530
a(g56
g6
(g18
S'y\xdd\x88:'
p1531
tp1532
Rp1533
tp1534
asg73
g15
sa(dp1535
g2
S'../../../data/emanuela/activity-recognition/images/NTCIR-Lifelog-256/u3/2015-06-28/b00000290_21i79q_20150628_171735e.jpg'
p1536
sg4
(lp1537
(g15
g6
(g18
S'\xbc\xc1q?'
p1538
tp1539
Rp1540
tp1541
a(g32
g6
(g18
S'\x05e\x17='
p1542
tp1543
Rp1544
tp1545
a(g68
g6
(g18
S'\xc4\x92\x81<'
p1546
tp1547
Rp1548
tp1549
a(g44
g6
(g18
S'\xe0\xf0\x0e;'
p1550
tp1551
Rp1552
tp1553
a(g108
g6
(g18
S'M\xe4m9'
p1554
tp1555
Rp1556
tp1557
asg73
g15
sa(dp1558
g2
S'../../../data/emanuela/activity-recognition/images/NTCIR-Lifelog-256/u1/2015-03-06/b00001279_21i6bq_20150306_182811e.jpg'
p1559
sg4
(lp1560
(g15
g6
(g18
S'\xcc\xacd?'
p1561
tp1562
Rp1563
tp1564
a(g32
g6
(g18
S'z!k='
p1565
tp1566
Rp1567
tp1568
a(g68
g6
(g18
S'\n&#<'
p1569
tp1570
Rp1571
tp1572
a(g131
g6
(g18
S'\xc4\x1d\n<'
p1573
tp1574
Rp1575
tp1576
a(g263
g6
(g18
S'u\x18\x03<'
p1577
tp1578
Rp1579
tp1580
asg73
g15
sa(dp1581
g2
S'../../../data/emanuela/activity-recognition/images/NTCIR-Lifelog-256/u3/2015-07-11/b00001013_21i79q_20150711_163043e.jpg'
p1582
sg4
(lp1583
(g15
g6
(g18
S'\xdf\xc0H?'
p1584
tp1585
Rp1586
tp1587
a(g32
g6
(g18
S'%\xc3\xae='
p1588
tp1589
Rp1590
tp1591
a(g44
g6
(g18
S'\xdc?\xa5='
p1592
tp1593
Rp1594
tp1595
a(g56
g6
(g18
S'\xd2\xd8\x9f<'
p1596
tp1597
Rp1598
tp1599
a(g178
g6
(g18
S'Z\xea+<'
p1600
tp1601
Rp1602
tp1603
asg73
g15
sa(dp1604
g2
S'../../../data/emanuela/activity-recognition/images/NTCIR-Lifelog-256/u3/2015-06-28/b00000193_21i79q_20150628_161842e.jpg'
p1605
sg4
(lp1606
(g15
g6
(g18
S'\xd7Sp?'
p1607
tp1608
Rp1609
tp1610
a(g32
g6
(g18
S'o\x8fs='
p1611
tp1612
Rp1613
tp1614
a(g68
g6
(g18
S'N\n\xa0:'
p1615
tp1616
Rp1617
tp1618
a(g44
g6
(g18
S'\xfb \xcf9'
p1619
tp1620
Rp1621
tp1622
a(g108
g6
(g18
S'\x15Z\x058'
p1623
tp1624
Rp1625
tp1626
asg73
g15
sa(dp1627
g2
S'../../../data/emanuela/activity-recognition/images/NTCIR-Lifelog-256/u3/2015-08-01/b00006362_21i79q_20150801_150448e.jpg'
p1628
sg4
(lp1629
(g15
g6
(g18
S'\xe28m?'
p1630
tp1631
Rp1632
tp1633
a(g44
g6
(g18
S'\x92\x87\r='
p1634
tp1635
Rp1636
tp1637
a(g32
g6
(g18
S'\xb5\xba\xf8<'
p1638
tp1639
Rp1640
tp1641
a(g68
g6
(g18
S'\xb7\x7fl;'
p1642
tp1643
Rp1644
tp1645
a(g147
g6
(g18
S'\xf01\xba:'
p1646
tp1647
Rp1648
tp1649
asg73
g15
sa(dp1650
g2
S'../../../data/emanuela/activity-recognition/images/NTCIR-Lifelog-256/u3/2015-07-11/b00001091_21i79q_20150711_172155e.jpg'
p1651
sg4
(lp1652
(g15
g6
(g18
S'\x0b\x97g?'
p1653
tp1654
Rp1655
tp1656
a(g44
g6
(g18
S'\xb4\xa7\x83='
p1657
tp1658
Rp1659
tp1660
a(g32
g6
(g18
S'\xa4\xa4g<'
p1661
tp1662
Rp1663
tp1664
a(g232
g6
(g18
S'\xc6\xaa\x17<'
p1665
tp1666
Rp1667
tp1668
a(g108
g6
(g18
S'\xda\xd8M;'
p1669
tp1670
Rp1671
tp1672
asg73
g15
sa(dp1673
g2
S'../../../data/emanuela/activity-recognition/images/NTCIR-Lifelog-256/u2/2015-05-08/b00009423_21i7lf_20150508_170614e.jpg'
p1674
sg4
(lp1675
(g15
g6
(g18
S'\x04)/?'
p1676
tp1677
Rp1678
tp1679
a(g44
g6
(g18
S'\xa8V0>'
p1680
tp1681
Rp1682
tp1683
a(g1503
g6
(g18
S'\xbf\xac\x9d='
p1684
tp1685
Rp1686
tp1687
a(g68
g6
(g18
S'}\xf2\x1e='
p1688
tp1689
Rp1690
tp1691
a(g1292
g6
(g18
S'Z\xd2\xb5<'
p1692
tp1693
Rp1694
tp1695
asg73
g15
sa(dp1696
g2
S'../../../data/emanuela/activity-recognition/images/NTCIR-Lifelog-256/u3/2015-07-11/b00001092_21i79q_20150711_172233e.jpg'
p1697
sg4
(lp1698
(g15
g6
(g18
S'\x08\x12S?'
p1699
tp1700
Rp1701
tp1702
a(g44
g6
(g18
S'\x16\xde\xf6='
p1703
tp1704
Rp1705
tp1706
a(g232
g6
(g18
S'\x86\x14\x0f='
p1707
tp1708
Rp1709
tp1710
a(g32
g6
(g18
S'\xc6\xd3\xd0;'
p1711
tp1712
Rp1713
tp1714
a(g68
g6
(g18
S'(\xb4\xa9;'
p1715
tp1716
Rp1717
tp1718
asg73
g15
sa(dp1719
g2
S'../../../data/emanuela/activity-recognition/images/NTCIR-Lifelog-256/u3/2015-07-11/b00000347_21i79q_20150711_100955e.jpg'
p1720
sg4
(lp1721
(g15
g6
(g18
S'\x17+z?'
p1722
tp1723
Rp1724
tp1725
a(g44
g6
(g18
S'\xe5\x9d\x88<'
p1726
tp1727
Rp1728
tp1729
a(g68
g6
(g18
S'O`\x01;'
p1730
tp1731
Rp1732
tp1733
a(g32
g6
(g18
S'\xf8\xa8\xdc:'
p1734
tp1735
Rp1736
tp1737
a(g108
g6
(g18
S'`\xbfv:'
p1738
tp1739
Rp1740
tp1741
asg73
g15
sa(dp1742
g2
S'../../../data/emanuela/activity-recognition/images/NTCIR-Lifelog-256/u2/2015-05-08/b00009562_21i7lf_20150508_190216e.jpg'
p1743
sg4
(lp1744
(g44
g6
(g18
S'\x82\x9c\x93>'
p1745
tp1746
Rp1747
tp1748
a(g1027
g6
(g18
S'\x0e\xdb5>'
p1749
tp1750
Rp1751
tp1752
a(g15
g6
(g18
S'AE\x1a>'
p1753
tp1754
Rp1755
tp1756
a(g6
(g7
(S'S5'
p1757
I0
I1
tp1758
Rp1759
(I3
S'|'
p1760
NNNI5
I1
I0
tp1761
bS'plane'
p1762
tp1763
Rp1764
g6
(g18
S'\x97\xe4\x97='
p1765
tp1766
Rp1767
tp1768
a(g1503
g6
(g18
S'\x83\xf5\x8c='
p1769
tp1770
Rp1771
tp1772
asg73
g15
sa(dp1773
g2
S'../../../data/emanuela/activity-recognition/images/NTCIR-Lifelog-256/u1/2015-03-11/b00000613_21i6bq_20150311_131018e.jpg'
p1774
sg4
(lp1775
(g178
g6
(g18
S'\x88\xd9\x9a>'
p1776
tp1777
Rp1778
tp1779
a(g15
g6
(g18
S',{B>'
p1780
tp1781
Rp1782
tp1783
a(g68
g6
(g18
S'\xfb\xab\x1c>'
p1784
tp1785
Rp1786
tp1787
a(g32
g6
(g18
S'\xb23\xb6='
p1788
tp1789
Rp1790
tp1791
a(g44
g6
(g18
S'\xb1\xaa\xb4='
p1792
tp1793
Rp1794
tp1795
asg73
g15
sa(dp1796
g2
S'../../../data/emanuela/activity-recognition/images/NTCIR-Lifelog-256/u3/2015-07-11/b00000346_21i79q_20150711_100919e.jpg'
p1797
sg4
(lp1798
(g15
g6
(g18
S'Gss?'
p1799
tp1800
Rp1801
tp1802
a(g44
g6
(g18
S'\xed8\x15='
p1803
tp1804
Rp1805
tp1806
a(g32
g6
(g18
S'\x87D\xaf;'
p1807
tp1808
Rp1809
tp1810
a(g68
g6
(g18
S'\xbf\xb2Q;'
p1811
tp1812
Rp1813
tp1814
a(g108
g6
(g18
S'rU\x88:'
p1815
tp1816
Rp1817
tp1818
asg73
g15
sa(dp1819
g2
S'../../../data/emanuela/activity-recognition/images/NTCIR-Lifelog-256/u3/2015-07-11/b00000516_21i79q_20150711_115034e.jpg'
p1820
sg4
(lp1821
(g15
g6
(g18
S'\xad O?'
p1822
tp1823
Rp1824
tp1825
a(g32
g6
(g18
S'\xa5|->'
p1826
tp1827
Rp1828
tp1829
a(g92
g6
(g18
S'\x7f\\/<'
p1830
tp1831
Rp1832
tp1833
a(g68
g6
(g18
S'%\xbe\xa7;'
p1834
tp1835
Rp1836
tp1837
a(g44
g6
(g18
S'\xc9h\xf1:'
p1838
tp1839
Rp1840
tp1841
asg73
g15
sa(dp1842
g2
S'../../../data/emanuela/activity-recognition/images/NTCIR-Lifelog-256/u3/2015-08-01/b00006367_21i79q_20150801_150930e.jpg'
p1843
sg4
(lp1844
(g15
g6
(g18
S'\xd7++?'
p1845
tp1846
Rp1847
tp1848
a(g32
g6
(g18
S'~\xe8\\>'
p1849
tp1850
Rp1851
tp1852
a(g147
g6
(g18
S':\x96%='
p1853
tp1854
Rp1855
tp1856
a(g44
g6
(g18
S'\xc9\x14\x08='
p1857
tp1858
Rp1859
tp1860
a(g92
g6
(g18
S'\x87DQ<'
p1861
tp1862
Rp1863
tp1864
asg73
g15
sa(dp1865
g2
S'../../../data/emanuela/activity-recognition/images/NTCIR-Lifelog-256/u2/2015-04-21/b00000869_21i7lf_20150421_191120e.jpg'
p1866
sg4
(lp1867
(g15
g6
(g18
S'\xb6\xe9T?'
p1868
tp1869
Rp1870
tp1871
a(g44
g6
(g18
S';\x19k='
p1872
tp1873
Rp1874
tp1875
a(g32
g6
(g18
S'{\xc3\xb7<'
p1876
tp1877
Rp1878
tp1879
a(g131
g6
(g18
S'\x9e\xe5\x88<'
p1880
tp1881
Rp1882
tp1883
a(g263
g6
(g18
S'I\x84\x86<'
p1884
tp1885
Rp1886
tp1887
asg73
g15
sa(dp1888
g2
S'../../../data/emanuela/activity-recognition/images/NTCIR-Lifelog-256/u3/2015-06-28/b00000240_21i79q_20150628_164731e.jpg'
p1889
sg4
(lp1890
(g15
g6
(g18
S'K\xe2\x13?'
p1891
tp1892
Rp1893
tp1894
a(g32
g6
(g18
S'.\xd1\xc2>'
p1895
tp1896
Rp1897
tp1898
a(g68
g6
(g18
S'HQ\x0f='
p1899
tp1900
Rp1901
tp1902
a(g44
g6
(g18
S'4s\xcd;'
p1903
tp1904
Rp1905
tp1906
a(g178
g6
(g18
S'\x9d\xccE9'
p1907
tp1908
Rp1909
tp1910
asg73
g15
sa(dp1911
g2
S'../../../data/emanuela/activity-recognition/images/NTCIR-Lifelog-256/u2/2015-05-08/b00009437_21i7lf_20150508_171612e.jpg'
p1912
sg4
(lp1913
(g15
g6
(g18
S' \xadH?'
p1914
tp1915
Rp1916
tp1917
a(g68
g6
(g18
S'\xf4"\xfa='
p1918
tp1919
Rp1920
tp1921
a(g32
g6
(g18
S'\x1b\xa9S='
p1922
tp1923
Rp1924
tp1925
a(g44
g6
(g18
S'\xfbg\xf8<'
p1926
tp1927
Rp1928
tp1929
a(g56
g6
(g18
S'C+\x9e;'
p1930
tp1931
Rp1932
tp1933
asg73
g15
sa(dp1934
g2
S'../../../data/emanuela/activity-recognition/images/NTCIR-Lifelog-256/u3/2015-07-11/b00001022_21i79q_20150711_163635e.jpg'
p1935
sg4
(lp1936
(g15
g6
(g18
S'\xecXt?'
p1937
tp1938
Rp1939
tp1940
a(g44
g6
(g18
S'ub\x90<'
p1941
tp1942
Rp1943
tp1944
a(g32
g6
(g18
S'\xa8\xab\x10<'
p1945
tp1946
Rp1947
tp1948
a(g68
g6
(g18
S'(\xe2\x07<'
p1949
tp1950
Rp1951
tp1952
a(g108
g6
(g18
S'\x07m\xe1;'
p1953
tp1954
Rp1955
tp1956
asg73
g15
sa(dp1957
g2
S'../../../data/emanuela/activity-recognition/images/NTCIR-Lifelog-256/u2/2015-04-27/b00005774_21i7lf_20150427_172406e.jpg'
p1958
sg4
(lp1959
(g15
g6
(g18
S'\xa9\xf1\xd4>'
p1960
tp1961
Rp1962
tp1963
a(g44
g6
(g18
S'\xd9Dc>'
p1964
tp1965
Rp1966
tp1967
a(g32
g6
(g18
S':\xdd\xc6='
p1968
tp1969
Rp1970
tp1971
a(g232
g6
(g18
S'\x17\xfe\x91='
p1972
tp1973
Rp1974
tp1975
a(g263
g6
(g18
S'Z\x1eR='
p1976
tp1977
Rp1978
tp1979
asg73
g15
sa(dp1980
g2
S'../../../data/emanuela/activity-recognition/images/NTCIR-Lifelog-256/u2/2015-04-27/b00005823_21i7lf_20150427_175333e.jpg'
p1981
sg4
(lp1982
(g15
g6
(g18
S'\x98c5?'
p1983
tp1984
Rp1985
tp1986
a(g44
g6
(g18
S'\xfcqL>'
p1987
tp1988
Rp1989
tp1990
a(g263
g6
(g18
S'1\t\xac<'
p1991
tp1992
Rp1993
tp1994
a(g32
g6
(g18
S'%\xa0\x9e<'
p1995
tp1996
Rp1997
tp1998
a(g56
g6
(g18
S'{\xe3=<'
p1999
tp2000
Rp2001
tp2002
asg73
g15
sa(dp2003
g2
S'../../../data/emanuela/activity-recognition/images/NTCIR-Lifelog-256/u3/2015-07-11/b00000555_21i79q_20150711_121256e.jpg'
p2004
sg4
(lp2005
(g15
g6
(g18
S'\xc0\xe3y?'
p2006
tp2007
Rp2008
tp2009
a(g32
g6
(g18
S'5\xa9\xb8<'
p2010
tp2011
Rp2012
tp2013
a(g68
g6
(g18
S'\xf9E\xdf9'
p2014
tp2015
Rp2016
tp2017
a(g263
g6
(g18
S'<\x14\x8b9'
p2018
tp2019
Rp2020
tp2021
a(g92
g6
(g18
S'kG\x899'
p2022
tp2023
Rp2024
tp2025
asg73
g15
sa(dp2026
g2
S'../../../data/emanuela/activity-recognition/images/NTCIR-Lifelog-256/u2/2015-04-23/b00001269_21i7lf_20150423_145141e.jpg'
p2027
sg4
(lp2028
(g178
g6
(g18
S'\xf7\x86\xbf>'
p2029
tp2030
Rp2031
tp2032
a(g32
g6
(g18
S'\xde\xe9\xa3>'
p2033
tp2034
Rp2035
tp2036
a(g15
g6
(g18
S'\xfc\xc6 >'
p2037
tp2038
Rp2039
tp2040
a(g68
g6
(g18
S'\xd2Q\xcf='
p2041
tp2042
Rp2043
tp2044
a(g108
g6
(g18
S'a\xaa\xf9<'
p2045
tp2046
Rp2047
tp2048
asg73
g15
sa(dp2049
g2
S'../../../data/emanuela/activity-recognition/images/NTCIR-Lifelog-256/u3/2015-07-11/b00000595_21i79q_20150711_123039e.jpg'
p2050
sg4
(lp2051
(g15
g6
(g18
S'1\xc4r?'
p2052
tp2053
Rp2054
tp2055
a(g32
g6
(g18
S')\xef\xda<'
p2056
tp2057
Rp2058
tp2059
a(g44
g6
(g18
S'\\kn<'
p2060
tp2061
Rp2062
tp2063
a(g92
g6
(g18
S'A\x11\x81;'
p2064
tp2065
Rp2066
tp2067
a(g68
g6
(g18
S'\xf4\xc1\x17;'
p2068
tp2069
Rp2070
tp2071
asg73
g15
sa(dp2072
g2
S'../../../data/emanuela/activity-recognition/images/NTCIR-Lifelog-256/u3/2015-07-11/b00001004_21i79q_20150711_162500e.jpg'
p2073
sg4
(lp2074
(g15
g6
(g18
S':em?'
p2075
tp2076
Rp2077
tp2078
a(g32
g6
(g18
S'\x05\xef\x01='
p2079
tp2080
Rp2081
tp2082
a(g44
g6
(g18
S'\x83!\xd0<'
p2083
tp2084
Rp2085
tp2086
a(g68
g6
(g18
S'4\x0f\xf3;'
p2087
tp2088
Rp2089
tp2090
a(g108
g6
(g18
S'\xd5\xb9\xe5;'
p2091
tp2092
Rp2093
tp2094
asg73
g15
sa(dp2095
g2
S'../../../data/emanuela/activity-recognition/images/NTCIR-Lifelog-256/u1/2015-03-06/b00001260_21i6bq_20150306_181621e.jpg'
p2096
sg4
(lp2097
(g15
g6
(g18
S'\x1chZ?'
p2098
tp2099
Rp2100
tp2101
a(g32
g6
(g18
S'I\x85\xe8='
p2102
tp2103
Rp2104
tp2105
a(g68
g6
(g18
S'\xae\xcd\xfd;'
p2106
tp2107
Rp2108
tp2109
a(g178
g6
(g18
S'\xe2\x95\xce;'
p2110
tp2111
Rp2112
tp2113
a(g131
g6
(g18
S'\x14\xcc\xca;'
p2114
tp2115
Rp2116
tp2117
asg73
g15
sa(dp2118
g2
S'../../../data/emanuela/activity-recognition/images/NTCIR-Lifelog-256/u3/2015-06-28/b00000473_21i79q_20150628_190336e.jpg'
p2119
sg4
(lp2120
(g15
g6
(g18
S'\xa0\xb5=?'
p2121
tp2122
Rp2123
tp2124
a(g44
g6
(g18
S'^/\x98='
p2125
tp2126
Rp2127
tp2128
a(g68
g6
(g18
S'\xf8\x84\x84='
p2129
tp2130
Rp2131
tp2132
a(g32
g6
(g18
S'\x974o='
p2133
tp2134
Rp2135
tp2136
a(g317
g6
(g18
S'=\xaa\xb5<'
p2137
tp2138
Rp2139
tp2140
asg73
g15
sa(dp2141
g2
S'../../../data/emanuela/activity-recognition/images/NTCIR-Lifelog-256/u2/2015-05-03/b00003962_21i7lf_20150503_163649e.jpg'
p2142
sg4
(lp2143
(g15
g6
(g18
S'_\x7ff?'
p2144
tp2145
Rp2146
tp2147
a(g44
g6
(g18
S'\x94y\xa3='
p2148
tp2149
Rp2150
tp2151
a(g32
g6
(g18
S'\xe3_+<'
p2152
tp2153
Rp2154
tp2155
a(g68
g6
(g18
S'\x0b\xdc\xee;'
p2156
tp2157
Rp2158
tp2159
a(g147
g6
(g18
S'T\x1d\xf09'
p2160
tp2161
Rp2162
tp2163
asg73
g15
sa(dp2164
g2
S'../../../data/emanuela/activity-recognition/images/NTCIR-Lifelog-256/u2/2015-04-27/b00005809_21i7lf_20150427_174527e.jpg'
p2165
sg4
(lp2166
(g15
g6
(g18
S"\xc0{'?"
p2167
tp2168
Rp2169
tp2170
a(g44
g6
(g18
S'\xf6\x05h>'
p2171
tp2172
Rp2173
tp2174
a(g32
g6
(g18
S'$\xb7\x08='
p2175
tp2176
Rp2177
tp2178
a(g263
g6
(g18
S'\\"m<'
p2179
tp2180
Rp2181
tp2182
a(g1027
g6
(g18
S'\xe0>^<'
p2183
tp2184
Rp2185
tp2186
asg73
g15
sa(dp2187
g2
S'../../../data/emanuela/activity-recognition/images/NTCIR-Lifelog-256/u2/2015-05-08/b00009432_21i7lf_20150508_171307e.jpg'
p2188
sg4
(lp2189
(g15
g6
(g18
S'\xf7\xe6k?'
p2190
tp2191
Rp2192
tp2193
a(g68
g6
(g18
S'\xca7X='
p2194
tp2195
Rp2196
tp2197
a(g32
g6
(g18
S';\xf2\x9c<'
p2198
tp2199
Rp2200
tp2201
a(g44
g6
(g18
S'4\xe3\xb0;'
p2202
tp2203
Rp2204
tp2205
a(g92
g6
(g18
S'Ve\x8b9'
p2206
tp2207
Rp2208
tp2209
asg73
g15
sa(dp2210
g2
S'../../../data/emanuela/activity-recognition/images/NTCIR-Lifelog-256/u3/2015-06-28/b00000301_21i79q_20150628_172436e.jpg'
p2211
sg4
(lp2212
(g15
g6
(g18
S'?\xb9c?'
p2213
tp2214
Rp2215
tp2216
a(g32
g6
(g18
S'\x08\x91\xd5='
p2217
tp2218
Rp2219
tp2220
a(g68
g6
(g18
S'4b\x87;'
p2221
tp2222
Rp2223
tp2224
a(g44
g6
(g18
S'\xbaj\x82:'
p2225
tp2226
Rp2227
tp2228
a(g178
g6
(g18
S'\x0f\xcdz9'
p2229
tp2230
Rp2231
tp2232
asg73
g15
sa(dp2233
g2
S'../../../data/emanuela/activity-recognition/images/NTCIR-Lifelog-256/u3/2015-06-28/b00000404_21i79q_20150628_182222e.jpg'
p2234
sg4
(lp2235
(g15
g6
(g18
S'w\x99P?'
p2236
tp2237
Rp2238
tp2239
a(g32
g6
(g18
S'^\xe2\x92='
p2240
tp2241
Rp2242
tp2243
a(g44
g6
(g18
S'\x02\xeaA='
p2244
tp2245
Rp2246
tp2247
a(g68
g6
(g18
S'\xa9h4='
p2248
tp2249
Rp2250
tp2251
a(g178
g6
(g18
S'n[\x04<'
p2252
tp2253
Rp2254
tp2255
asg73
g15
sa(dp2256
g2
S'../../../data/emanuela/activity-recognition/images/NTCIR-Lifelog-256/u1/2015-03-02/b00000229_21i6bq_20150302_091406e.jpg'
p2257
sg4
(lp2258
(g178
g6
(g18
S'\xc8g\x81>'
p2259
tp2260
Rp2261
tp2262
a(g32
g6
(g18
S'\xb6\xe2_>'
p2263
tp2264
Rp2265
tp2266
a(g15
g6
(g18
S'\x0b4\xdb='
p2267
tp2268
Rp2269
tp2270
a(g232
g6
(g18
S'\xe5v\xb3='
p2271
tp2272
Rp2273
tp2274
a(g108
g6
(g18
S'\xf6\x02x='
p2275
tp2276
Rp2277
tp2278
asg73
g15
sa(dp2279
g2
S'../../../data/emanuela/activity-recognition/images/NTCIR-Lifelog-256/u2/2015-04-23/b00001259_21i7lf_20150423_144516e.jpg'
p2280
sg4
(lp2281
(g15
g6
(g18
S'!\x9e\x9f>'
p2282
tp2283
Rp2284
tp2285
a(g44
g6
(g18
S'9\xd6\x9a>'
p2286
tp2287
Rp2288
tp2289
a(g68
g6
(g18
S'\xda\xe5\x8c>'
p2290
tp2291
Rp2292
tp2293
a(g32
g6
(g18
S'\x86J[='
p2294
tp2295
Rp2296
tp2297
a(g108
g6
(g18
S'\xd9\xd1\xd9<'
p2298
tp2299
Rp2300
tp2301
asg73
g15
sa(dp2302
g2
S'../../../data/emanuela/activity-recognition/images/NTCIR-Lifelog-256/u2/2015-04-21/b00000873_21i7lf_20150421_191559e.jpg'
p2303
sg4
(lp2304
(g15
g6
(g18
S'\xba\xa9Z?'
p2305
tp2306
Rp2307
tp2308
a(g32
g6
(g18
S'\xcf\xba\xb0='
p2309
tp2310
Rp2311
tp2312
a(g44
g6
(g18
S'_"\xf9<'
p2313
tp2314
Rp2315
tp2316
a(g68
g6
(g18
S'\xc3\x11\xe0;'
p2317
tp2318
Rp2319
tp2320
a(g1292
g6
(g18
S'\xc3\x96\xd8;'
p2321
tp2322
Rp2323
tp2324
asg73
g15
sa(dp2325
g2
S'../../../data/emanuela/activity-recognition/images/NTCIR-Lifelog-256/u2/2015-04-23/b00001246_21i7lf_20150423_143651e.jpg'
p2326
sg4
(lp2327
(g32
g6
(g18
S'\xc1F\xa5>'
p2328
tp2329
Rp2330
tp2331
a(g15
g6
(g18
S'\xd0\xc3\xa0>'
p2332
tp2333
Rp2334
tp2335
a(g108
g6
(g18
S'\xd2.\xff='
p2336
tp2337
Rp2338
tp2339
a(g44
g6
(g18
S'\xa4\xbe\xcb='
p2340
tp2341
Rp2342
tp2343
a(g178
g6
(g18
S'>\x06\xc4='
p2344
tp2345
Rp2346
tp2347
asg73
g15
sa(dp2348
g2
S'../../../data/emanuela/activity-recognition/images/NTCIR-Lifelog-256/u3/2015-07-11/b00000352_21i79q_20150711_101231e.jpg'
p2349
sg4
(lp2350
(g15
g6
(g18
S'S\xac}?'
p2351
tp2352
Rp2353
tp2354
a(g44
g6
(g18
S'\xc9a\xb9;'
p2355
tp2356
Rp2357
tp2358
a(g32
g6
(g18
S'(j\xa7:'
p2359
tp2360
Rp2361
tp2362
a(g232
g6
(g18
S'q\xae\x83:'
p2363
tp2364
Rp2365
tp2366
a(g108
g6
(g18
S'\xbf6\xc89'
p2367
tp2368
Rp2369
tp2370
asg73
g15
sa(dp2371
g2
S'../../../data/emanuela/activity-recognition/images/NTCIR-Lifelog-256/u3/2015-07-11/b00000331_21i79q_20150711_100035e.jpg'
p2372
sg4
(lp2373
(g44
g6
(g18
S'\xb2v\x13?'
p2374
tp2375
Rp2376
tp2377
a(g15
g6
(g18
S'\xec\xc3Q>'
p2378
tp2379
Rp2380
tp2381
a(g68
g6
(g18
S'\xc4?\xef='
p2382
tp2383
Rp2384
tp2385
a(g131
g6
(g18
S"+\xbb'="
p2386
tp2387
Rp2388
tp2389
a(g56
g6
(g18
S"\xcc'\x95<"
p2390
tp2391
Rp2392
tp2393
asg73
g15
sa(dp2394
g2
S'../../../data/emanuela/activity-recognition/images/NTCIR-Lifelog-256/u3/2015-07-11/b00000992_21i79q_20150711_161731e.jpg'
p2395
sg4
(lp2396
(g15
g6
(g18
S'\xe2\x07\x97>'
p2397
tp2398
Rp2399
tp2400
a(g108
g6
(g18
S'\x8bv\x95>'
p2401
tp2402
Rp2403
tp2404
a(g178
g6
(g18
S'nw#>'
p2405
tp2406
Rp2407
tp2408
a(g44
g6
(g18
S'\x99\xfc\xbb='
p2409
tp2410
Rp2411
tp2412
a(g32
g6
(g18
S'\xde\xf6n='
p2413
tp2414
Rp2415
tp2416
asg73
g15
sa(dp2417
g2
S'../../../data/emanuela/activity-recognition/images/NTCIR-Lifelog-256/u3/2015-07-18/b00000280_21i79q_20150718_140538e.jpg'
p2418
sg4
(lp2419
(g15
g6
(g18
S'\xd4\x88\r?'
p2420
tp2421
Rp2422
tp2423
a(g32
g6
(g18
S'\xf6\xc5\xc5>'
p2424
tp2425
Rp2426
tp2427
a(g44
g6
(g18
S'\xfc\xe4+='
p2428
tp2429
Rp2430
tp2431
a(g68
g6
(g18
S'\xf3\x08d<'
p2432
tp2433
Rp2434
tp2435
a(g317
g6
(g18
S'0\x9c\xfb:'
p2436
tp2437
Rp2438
tp2439
asg73
g15
sa(dp2440
g2
S'../../../data/emanuela/activity-recognition/images/NTCIR-Lifelog-256/u2/2015-05-03/b00003901_21i7lf_20150503_155739e.jpg'
p2441
sg4
(lp2442
(g15
g6
(g18
S'\xc5\x03\x8c>'
p2443
tp2444
Rp2445
tp2446
a(g68
g6
(g18
S'N(`>'
p2447
tp2448
Rp2449
tp2450
a(g1292
g6
(g18
S'\x15F]>'
p2451
tp2452
Rp2453
tp2454
a(g44
g6
(g18
S'Z\xc2\x0e>'
p2455
tp2456
Rp2457
tp2458
a(g1503
g6
(g18
S'\x01\x7f\x02>'
p2459
tp2460
Rp2461
tp2462
asg73
g15
sa(dp2463
g2
S'../../../data/emanuela/activity-recognition/images/NTCIR-Lifelog-256/u2/2015-04-26/b00004187_21i7lf_20150426_161026e.jpg'
p2464
sg4
(lp2465
(g68
g6
(g18
S'\xb8y\xb7>'
p2466
tp2467
Rp2468
tp2469
a(g15
g6
(g18
S'\xf4\xdb\x89>'
p2470
tp2471
Rp2472
tp2473
a(g32
g6
(g18
S'\xbf_\n>'
p2474
tp2475
Rp2476
tp2477
a(g178
g6
(g18
S'\xd5\x91\x96='
p2478
tp2479
Rp2480
tp2481
a(g92
g6
(g18
S'\xd3\xcf\x93='
p2482
tp2483
Rp2484
tp2485
asg73
g15
sa(dp2486
g2
S'../../../data/emanuela/activity-recognition/images/NTCIR-Lifelog-256/u3/2015-07-11/b00001046_21i79q_20150711_165223e.jpg'
p2487
sg4
(lp2488
(g15
g6
(g18
S'|?i?'
p2489
tp2490
Rp2491
tp2492
a(g44
g6
(g18
S'],#='
p2493
tp2494
Rp2495
tp2496
a(g32
g6
(g18
S'N\x17\xee<'
p2497
tp2498
Rp2499
tp2500
a(g68
g6
(g18
S'\xfe\xcbM<'
p2501
tp2502
Rp2503
tp2504
a(g56
g6
(g18
S'\x1bm\x05;'
p2505
tp2506
Rp2507
tp2508
asg73
g15
sa(dp2509
g2
S'../../../data/emanuela/activity-recognition/images/NTCIR-Lifelog-256/u2/2015-04-23/b00001253_21i7lf_20150423_144125e.jpg'
p2510
sg4
(lp2511
(g15
g6
(g18
S'\xb4\x84\xec>'
p2512
tp2513
Rp2514
tp2515
a(g32
g6
(g18
S'\xadJ\xa3>'
p2516
tp2517
Rp2518
tp2519
a(g44
g6
(g18
S'HQ\xca='
p2520
tp2521
Rp2522
tp2523
a(g108
g6
(g18
S'\xbe\ru='
p2524
tp2525
Rp2526
tp2527
a(g68
g6
(g18
S'\xe6\xc0%='
p2528
tp2529
Rp2530
tp2531
asg73
g15
sa(dp2532
g2
S'../../../data/emanuela/activity-recognition/images/NTCIR-Lifelog-256/u3/2015-06-28/b00000205_21i79q_20150628_162605e.jpg'
p2533
sg4
(lp2534
(g15
g6
(g18
S'\xcb\x815?'
p2535
tp2536
Rp2537
tp2538
a(g32
g6
(g18
S'\x18\xd7]>'
p2539
tp2540
Rp2541
tp2542
a(g68
g6
(g18
S'\xb7\xce)='
p2543
tp2544
Rp2545
tp2546
a(g44
g6
(g18
S'\xa9\x19\x97<'
p2547
tp2548
Rp2549
tp2550
a(g108
g6
(g18
S'\x8d\xea\x1f<'
p2551
tp2552
Rp2553
tp2554
asg73
g15
sa(dp2555
g2
S'../../../data/emanuela/activity-recognition/images/NTCIR-Lifelog-256/u3/2015-06-28/b00000469_21i79q_20150628_190121e.jpg'
p2556
sg4
(lp2557
(g15
g6
(g18
S'F-r?'
p2558
tp2559
Rp2560
tp2561
a(g32
g6
(g18
S'\xb6\x11\x8e<'
p2562
tp2563
Rp2564
tp2565
a(g44
g6
(g18
S'4\xa4-<'
p2566
tp2567
Rp2568
tp2569
a(g317
g6
(g18
S'\xc8\x18\xff;'
p2570
tp2571
Rp2572
tp2573
a(g131
g6
(g18
S'\xc34\x88;'
p2574
tp2575
Rp2576
tp2577
asg73
g15
sa(dp2578
g2
S'../../../data/emanuela/activity-recognition/images/NTCIR-Lifelog-256/u3/2015-06-28/b00000230_21i79q_20150628_164127e.jpg'
p2579
sg4
(lp2580
(g15
g6
(g18
S'\x98[$?'
p2581
tp2582
Rp2583
tp2584
a(g44
g6
(g18
S'Kmj>'
p2585
tp2586
Rp2587
tp2588
a(g32
g6
(g18
S'x\x97\xae='
p2589
tp2590
Rp2591
tp2592
a(g68
g6
(g18
S'\xe5M <'
p2593
tp2594
Rp2595
tp2596
a(g317
g6
(g18
S'\x18\x9e\x1c<'
p2597
tp2598
Rp2599
tp2600
asg73
g15
sa(dp2601
g2
S'../../../data/emanuela/activity-recognition/images/NTCIR-Lifelog-256/u3/2015-06-28/b00000489_21i79q_20150628_191258e.jpg'
p2602
sg4
(lp2603
(g15
g6
(g18
S'\xb7\x89D?'
p2604
tp2605
Rp2606
tp2607
a(g44
g6
(g18
S'4\x17\xfb='
p2608
tp2609
Rp2610
tp2611
a(g68
g6
(g18
S'\x0f\xa9k='
p2612
tp2613
Rp2614
tp2615
a(g32
g6
(g18
S'P&\x1a='
p2616
tp2617
Rp2618
tp2619
a(g108
g6
(g18
S'\xad\x0b\xeb;'
p2620
tp2621
Rp2622
tp2623
asg73
g15
sa(dp2624
g2
S'../../../data/emanuela/activity-recognition/images/NTCIR-Lifelog-256/u2/2015-05-01/b00001799_21i7lf_20150501_091828e.jpg'
p2625
sg4
(lp2626
(g15
g6
(g18
S'\x9f&\x0e?'
p2627
tp2628
Rp2629
tp2630
a(g108
g6
(g18
S'\x1abG>'
p2631
tp2632
Rp2633
tp2634
a(g32
g6
(g18
S'\xa7b\xc3='
p2635
tp2636
Rp2637
tp2638
a(g178
g6
(g18
S'\xe2Z\x85='
p2639
tp2640
Rp2641
tp2642
a(g68
g6
(g18
S'\xdd8+='
p2643
tp2644
Rp2645
tp2646
asg73
g15
sa(dp2647
g2
S'../../../data/emanuela/activity-recognition/images/NTCIR-Lifelog-256/u3/2015-06-28/b00000377_21i79q_20150628_180601e.jpg'
p2648
sg4
(lp2649
(g15
g6
(g18
S'\x9e\xc1"?'
p2650
tp2651
Rp2652
tp2653
a(g32
g6
(g18
S'*C\x84>'
p2654
tp2655
Rp2656
tp2657
a(g44
g6
(g18
S'\xd7\xf5\x9c='
p2658
tp2659
Rp2660
tp2661
a(g68
g6
(g18
S'lY{<'
p2662
tp2663
Rp2664
tp2665
a(g1027
g6
(g18
S' \xa6\x8b;'
p2666
tp2667
Rp2668
tp2669
asg73
g15
sa(dp2670
g2
S'../../../data/emanuela/activity-recognition/images/NTCIR-Lifelog-256/u3/2015-07-11/b00001062_21i79q_20150711_170258e.jpg'
p2671
sg4
(lp2672
(g15
g6
(g18
S'5~b?'
p2673
tp2674
Rp2675
tp2676
a(g44
g6
(g18
S'\xa4\xcc\x03='
p2677
tp2678
Rp2679
tp2680
a(g32
g6
(g18
S'\x157\xd4<'
p2681
tp2682
Rp2683
tp2684
a(g68
g6
(g18
S'\xfd\xd1\xc4<'
p2685
tp2686
Rp2687
tp2688
a(g1292
g6
(g18
S'|Y4<'
p2689
tp2690
Rp2691
tp2692
asg73
g15
sa(dp2693
g2
S'../../../data/emanuela/activity-recognition/images/NTCIR-Lifelog-256/u3/2015-06-28/b00000380_21i79q_20150628_180751e.jpg'
p2694
sg4
(lp2695
(g15
g6
(g18
S'O\xa2f?'
p2696
tp2697
Rp2698
tp2699
a(g32
g6
(g18
S'\x87\xf8K='
p2700
tp2701
Rp2702
tp2703
a(g108
g6
(g18
S'Oi\xc5<'
p2704
tp2705
Rp2706
tp2707
a(g68
g6
(g18
S'\x1e\x97%<'
p2708
tp2709
Rp2710
tp2711
a(g178
g6
(g18
S'\xff\x07\xc2;'
p2712
tp2713
Rp2714
tp2715
asg73
g15
sa(dp2716
g2
S'../../../data/emanuela/activity-recognition/images/NTCIR-Lifelog-256/u3/2015-07-11/b00000925_21i79q_20150711_153830e.jpg'
p2717
sg4
(lp2718
(g15
g6
(g18
S'\xf1C\xe3>'
p2719
tp2720
Rp2721
tp2722
a(g44
g6
(g18
S'\xefh\xa7>'
p2723
tp2724
Rp2725
tp2726
a(g68
g6
(g18
S'\x10\xd7<>'
p2727
tp2728
Rp2729
tp2730
a(g1292
g6
(g18
S'\x1f\xff6<'
p2731
tp2732
Rp2733
tp2734
a(g56
g6
(g18
S'\xa1\x1e\xf2;'
p2735
tp2736
Rp2737
tp2738
asg73
g15
sa(dp2739
g2
S'../../../data/emanuela/activity-recognition/images/NTCIR-Lifelog-256/u3/2015-07-11/b00001049_21i79q_20150711_165403e.jpg'
p2740
sg4
(lp2741
(g44
g6
(g18
S'=n\x06?'
p2742
tp2743
Rp2744
tp2745
a(g15
g6
(g18
S')\x1e\xb4>'
p2746
tp2747
Rp2748
tp2749
a(g1027
g6
(g18
S'p\xd1z='
p2750
tp2751
Rp2752
tp2753
a(g32
g6
(g18
S'\x89a\x95<'
p2754
tp2755
Rp2756
tp2757
a(g68
g6
(g18
S'\x9e\x8c\x02<'
p2758
tp2759
Rp2760
tp2761
asg73
g15
sa(dp2762
g2
S'../../../data/emanuela/activity-recognition/images/NTCIR-Lifelog-256/u2/2015-05-01/b00001795_21i7lf_20150501_091602e.jpg'
p2763
sg4
(lp2764
(g44
g6
(g18
S'`\x02\xd7>'
p2765
tp2766
Rp2767
tp2768
a(g68
g6
(g18
S'\x90!\xbb>'
p2769
tp2770
Rp2771
tp2772
a(g15
g6
(g18
S'\xa8R\xde='
p2773
tp2774
Rp2775
tp2776
a(g108
g6
(g18
S'\x97+4='
p2777
tp2778
Rp2779
tp2780
a(g32
g6
(g18
S'n\x9f\xad<'
p2781
tp2782
Rp2783
tp2784
asg73
g15
sa(dp2785
g2
S'../../../data/emanuela/activity-recognition/images/NTCIR-Lifelog-256/u2/2015-04-26/b00004188_21i7lf_20150426_161059e.jpg'
p2786
sg4
(lp2787
(g68
g6
(g18
S'\xd0NE?'
p2788
tp2789
Rp2790
tp2791
a(g15
g6
(g18
S'\xca\x8f\xd5='
p2792
tp2793
Rp2794
tp2795
a(g32
g6
(g18
S'T\x9eA='
p2796
tp2797
Rp2798
tp2799
a(g178
g6
(g18
S'^\xfb\xb6<'
p2800
tp2801
Rp2802
tp2803
a(g92
g6
(g18
S'3\x98\x83<'
p2804
tp2805
Rp2806
tp2807
asg73
g15
sa(dp2808
g2
S'../../../data/emanuela/activity-recognition/images/NTCIR-Lifelog-256/u2/2015-04-21/b00000917_21i7lf_20150421_201329e.jpg'
p2809
sg4
(lp2810
(g15
g6
(g18
S'D\xc8W?'
p2811
tp2812
Rp2813
tp2814
a(g32
g6
(g18
S'\xcf\x0f\xea='
p2815
tp2816
Rp2817
tp2818
a(g44
g6
(g18
S';\xd7\x94<'
p2819
tp2820
Rp2821
tp2822
a(g68
g6
(g18
S'\r$\xf0;'
p2823
tp2824
Rp2825
tp2826
a(g178
g6
(g18
S'@\xfbk;'
p2827
tp2828
Rp2829
tp2830
asg73
g15
sa(dp2831
g2
S'../../../data/emanuela/activity-recognition/images/NTCIR-Lifelog-256/u3/2015-06-28/b00000208_21i79q_20150628_162748e.jpg'
p2832
sg4
(lp2833
(g15
g6
(g18
S'\x98\xa7Y?'
p2834
tp2835
Rp2836
tp2837
a(g32
g6
(g18
S'p\xd2\x92='
p2838
tp2839
Rp2840
tp2841
a(g44
g6
(g18
S'V\xefY='
p2842
tp2843
Rp2844
tp2845
a(g68
g6
(g18
S'd4#<'
p2846
tp2847
Rp2848
tp2849
a(g147
g6
(g18
S'!\xa3\t;'
p2850
tp2851
Rp2852
tp2853
asg73
g15
sa(dp2854
g2
S'../../../data/emanuela/activity-recognition/images/NTCIR-Lifelog-256/u3/2015-06-28/b00000273_21i79q_20150628_170725e.jpg'
p2855
sg4
(lp2856
(g15
g6
(g18
S'<\x1e{?'
p2857
tp2858
Rp2859
tp2860
a(g32
g6
(g18
S'Q\xde0<'
p2861
tp2862
Rp2863
tp2864
a(g44
g6
(g18
S'-_\xc3;'
p2865
tp2866
Rp2867
tp2868
a(g68
g6
(g18
S'\xa6\xd0\xff:'
p2869
tp2870
Rp2871
tp2872
a(g108
g6
(g18
S'5\x8d99'
p2873
tp2874
Rp2875
tp2876
asg73
g15
sa(dp2877
g2
S'../../../data/emanuela/activity-recognition/images/NTCIR-Lifelog-256/u2/2015-04-23/b00001268_21i7lf_20150423_145100e.jpg'
p2878
sg4
(lp2879
(g15
g6
(g18
S'\x18(T?'
p2880
tp2881
Rp2882
tp2883
a(g32
g6
(g18
S'A_ >'
p2884
tp2885
Rp2886
tp2887
a(g44
g6
(g18
S'"\xc3\xa7;'
p2888
tp2889
Rp2890
tp2891
a(g178
g6
(g18
S'D\x7fH;'
p2892
tp2893
Rp2894
tp2895
a(g232
g6
(g18
S'-\xcc\xc6:'
p2896
tp2897
Rp2898
tp2899
asg73
g15
sa(dp2900
g2
S'../../../data/emanuela/activity-recognition/images/NTCIR-Lifelog-256/u3/2015-06-28/b00000233_21i79q_20150628_164307e.jpg'
p2901
sg4
(lp2902
(g15
g6
(g18
S'@C]?'
p2903
tp2904
Rp2905
tp2906
a(g32
g6
(g18
S'\x18\x1b\xf8='
p2907
tp2908
Rp2909
tp2910
a(g68
g6
(g18
S'\nh><'
p2911
tp2912
Rp2913
tp2914
a(g44
g6
(g18
S'\x8br\xbe:'
p2915
tp2916
Rp2917
tp2918
a(g178
g6
(g18
S'\x91\xb3n:'
p2919
tp2920
Rp2921
tp2922
asg73
g15
sa(dp2923
g2
S'../../../data/emanuela/activity-recognition/images/NTCIR-Lifelog-256/u1/2015-03-02/b00000240_21i6bq_20150302_092151e.jpg'
p2924
sg4
(lp2925
(g32
g6
(g18
S'MP\x02?'
p2926
tp2927
Rp2928
tp2929
a(g15
g6
(g18
S'i\x0b\x82>'
p2930
tp2931
Rp2932
tp2933
a(g68
g6
(g18
S'?\x82\xc7='
p2934
tp2935
Rp2936
tp2937
a(g178
g6
(g18
S'\xed\x0b\xaa='
p2938
tp2939
Rp2940
tp2941
a(g108
g6
(g18
S'f}T='
p2942
tp2943
Rp2944
tp2945
asg73
g15
sa(dp2946
g2
S'../../../data/emanuela/activity-recognition/images/NTCIR-Lifelog-256/u3/2015-07-11/b00000582_21i79q_20150711_122329e.jpg'
p2947
sg4
(lp2948
(g15
g6
(g18
S'@\x02p?'
p2949
tp2950
Rp2951
tp2952
a(g32
g6
(g18
S'\x0e\x8a=='
p2953
tp2954
Rp2955
tp2956
a(g92
g6
(g18
S'\xc5\xb9\xa5;'
p2957
tp2958
Rp2959
tp2960
a(g56
g6
(g18
S'\x18lR;'
p2961
tp2962
Rp2963
tp2964
a(g68
g6
(g18
S'?\xa5E;'
p2965
tp2966
Rp2967
tp2968
asg73
g15
sa(dp2969
g2
S'../../../data/emanuela/activity-recognition/images/NTCIR-Lifelog-256/u1/2015-03-06/b00001320_21i6bq_20150306_185455e.jpg'
p2970
sg4
(lp2971
(g15
g6
(g18
S'\xafND?'
p2972
tp2973
Rp2974
tp2975
a(g44
g6
(g18
S'g\x05\x13='
p2976
tp2977
Rp2978
tp2979
a(g1292
g6
(g18
S'\x98<\x08='
p2980
tp2981
Rp2982
tp2983
a(g32
g6
(g18
S'm\x06\x03='
p2984
tp2985
Rp2986
tp2987
a(g232
g6
(g18
S'\xef?\xbb<'
p2988
tp2989
Rp2990
tp2991
asg73
g15
sa(dp2992
g2
S'../../../data/emanuela/activity-recognition/images/NTCIR-Lifelog-256/u3/2015-07-11/b00001048_21i79q_20150711_165329e.jpg'
p2993
sg4
(lp2994
(g15
g6
(g18
S'"Y\x18?'
p2995
tp2996
Rp2997
tp2998
a(g44
g6
(g18
S'BZ\x85>'
p2999
tp3000
Rp3001
tp3002
a(g1027
g6
(g18
S'k\x96\xd8='
p3003
tp3004
Rp3005
tp3006
a(g32
g6
(g18
S'2\xa3\x05<'
p3007
tp3008
Rp3009
tp3010
a(g1764
g6
(g18
S'\x07\n\x93;'
p3011
tp3012
Rp3013
tp3014
asg73
g15
sa(dp3015
g2
S'../../../data/emanuela/activity-recognition/images/NTCIR-Lifelog-256/u2/2015-04-27/b00005831_21i7lf_20150427_175815e.jpg'
p3016
sg4
(lp3017
(g15
g6
(g18
S'm\xd4/?'
p3018
tp3019
Rp3020
tp3021
a(g44
g6
(g18
S'\x1c3h>'
p3022
tp3023
Rp3024
tp3025
a(g56
g6
(g18
S'V\x05\xd7<'
p3026
tp3027
Rp3028
tp3029
a(g32
g6
(g18
S'\xac`\x82<'
p3030
tp3031
Rp3032
tp3033
a(g68
g6
(g18
S'ctn<'
p3034
tp3035
Rp3036
tp3037
asg73
g15
sa(dp3038
g2
S'../../../data/emanuela/activity-recognition/images/NTCIR-Lifelog-256/u3/2015-07-11/b00000894_21i79q_20150711_152048e.jpg'
p3039
sg4
(lp3040
(g44
g6
(g18
S'\xbc\x06\x04?'
p3041
tp3042
Rp3043
tp3044
a(g15
g6
(g18
S'H\xea\x9f>'
p3045
tp3046
Rp3047
tp3048
a(g68
g6
(g18
S'\xfc\xe3\xcb='
p3049
tp3050
Rp3051
tp3052
a(g108
g6
(g18
S'\x95|\xe2<'
p3053
tp3054
Rp3055
tp3056
a(g32
g6
(g18
S'5`a<'
p3057
tp3058
Rp3059
tp3060
asg73
g15
sa(dp3061
g2
S'../../../data/emanuela/activity-recognition/images/NTCIR-Lifelog-256/u3/2015-07-18/b00000309_21i79q_20150718_142229e.jpg'
p3062
sg4
(lp3063
(g15
g6
(g18
S'\xbaB\xd2>'
p3064
tp3065
Rp3066
tp3067
a(g32
g6
(g18
S'\xddQo>'
p3068
tp3069
Rp3070
tp3071
a(g44
g6
(g18
S'rj\x13>'
p3072
tp3073
Rp3074
tp3075
a(g68
g6
(g18
S'\x1dC\xb7='
p3076
tp3077
Rp3078
tp3079
a(g317
g6
(g18
S'\\W!='
p3080
tp3081
Rp3082
tp3083
asg73
g15
sa(dp3084
g2
S'../../../data/emanuela/activity-recognition/images/NTCIR-Lifelog-256/u2/2015-04-27/b00005798_21i7lf_20150427_173858e.jpg'
p3085
sg4
(lp3086
(g15
g6
(g18
S'\xdc\x10E?'
p3087
tp3088
Rp3089
tp3090
a(g44
g6
(g18
S'\x89\x0b$>'
p3091
tp3092
Rp3093
tp3094
a(g56
g6
(g18
S'M\xe5\xc7<'
p3095
tp3096
Rp3097
tp3098
a(g32
g6
(g18
S'jDf<'
p3099
tp3100
Rp3101
tp3102
a(g263
g6
(g18
S'&\xcaR<'
p3103
tp3104
Rp3105
tp3106
asg73
g15
sa(dp3107
g2
S'../../../data/emanuela/activity-recognition/images/NTCIR-Lifelog-256/u3/2015-06-28/b00000374_21i79q_20150628_180413e.jpg'
p3108
sg4
(lp3109
(g15
g6
(g18
S'\xaeWq?'
p3110
tp3111
Rp3112
tp3113
a(g32
g6
(g18
S'\xba\x84L='
p3114
tp3115
Rp3116
tp3117
a(g68
g6
(g18
S'\x02\xce\xc8;'
p3118
tp3119
Rp3120
tp3121
a(g44
g6
(g18
S'\x9c\xd20:'
p3122
tp3123
Rp3124
tp3125
a(g108
g6
(g18
S'\x9ds}9'
p3126
tp3127
Rp3128
tp3129
asg73
g15
sa(dp3130
g2
S'../../../data/emanuela/activity-recognition/images/NTCIR-Lifelog-256/u2/2015-05-08/b00009537_21i7lf_20150508_184153e.jpg'
p3131
sg4
(lp3132
(g15
g6
(g18
S'\xe5\xf1m?'
p3133
tp3134
Rp3135
tp3136
a(g32
g6
(g18
S'i\xaa\x08='
p3137
tp3138
Rp3139
tp3140
a(g92
g6
(g18
S'\xdf\x92\xa5<'
p3141
tp3142
Rp3143
tp3144
a(g44
g6
(g18
S'\xdf\xe3\x0c<'
p3145
tp3146
Rp3147
tp3148
a(g68
g6
(g18
S'\x9f\x92\x7f;'
p3149
tp3150
Rp3151
tp3152
asg73
g15
sa(dp3153
g2
S'../../../data/emanuela/activity-recognition/images/NTCIR-Lifelog-256/u2/2015-05-03/b00003902_21i7lf_20150503_155812e.jpg'
p3154
sg4
(lp3155
(g68
g6
(g18
S'\xdd\xf43?'
p3156
tp3157
Rp3158
tp3159
a(g15
g6
(g18
S'K\x95x>'
p3160
tp3161
Rp3162
tp3163
a(g44
g6
(g18
S'~\xc5\xbd<'
p3164
tp3165
Rp3166
tp3167
a(g32
g6
(g18
S't\xe7\xb3<'
p3168
tp3169
Rp3170
tp3171
a(g178
g6
(g18
S'"\xf5\x18;'
p3172
tp3173
Rp3174
tp3175
asg73
g15
sa(dp3176
g2
S'../../../data/emanuela/activity-recognition/images/NTCIR-Lifelog-256/u3/2015-07-25/b00001622_21i79q_20150725_205233e.jpg'
p3177
sg4
(lp3178
(g15
g6
(g18
S'\\\x0f\r?'
p3179
tp3180
Rp3181
tp3182
a(g44
g6
(g18
S'\xba\xa1\x16>'
p3183
tp3184
Rp3185
tp3186
a(g131
g6
(g18
S'\x968k='
p3187
tp3188
Rp3189
tp3190
a(g32
g6
(g18
S'\x1d.h='
p3191
tp3192
Rp3193
tp3194
a(g1292
g6
(g18
S'L\x04\xcf<'
p3195
tp3196
Rp3197
tp3198
asg73
g15
sa(dp3199
g2
S'../../../data/emanuela/activity-recognition/images/NTCIR-Lifelog-256/u3/2015-07-11/b00000588_21i79q_20150711_122639e.jpg'
p3200
sg4
(lp3201
(g15
g6
(g18
S'\xf0aq?'
p3202
tp3203
Rp3204
tp3205
a(g32
g6
(g18
S'\xac\xc7\x15='
p3206
tp3207
Rp3208
tp3209
a(g92
g6
(g18
S'\x9d[\xf9;'
p3210
tp3211
Rp3212
tp3213
a(g56
g6
(g18
S'\xc2\xdd\xa9;'
p3214
tp3215
Rp3216
tp3217
a(g68
g6
(g18
S'm\xa8f;'
p3218
tp3219
Rp3220
tp3221
asg73
g15
sa(dp3222
g2
S'../../../data/emanuela/activity-recognition/images/NTCIR-Lifelog-256/u3/2015-06-28/b00000315_21i79q_20150628_173304e.jpg'
p3223
sg4
(lp3224
(g15
g6
(g18
S'\xee\xfe|?'
p3225
tp3226
Rp3227
tp3228
a(g32
g6
(g18
S'fQ%<'
p3229
tp3230
Rp3231
tp3232
a(g68
g6
(g18
S'\x1eg\x86:'
p3233
tp3234
Rp3235
tp3236
a(g44
g6
(g18
S'\x0bs\x0c:'
p3237
tp3238
Rp3239
tp3240
a(g108
g6
(g18
S'\x92r\xbe7'
p3241
tp3242
Rp3243
tp3244
asg73
g15
sa(dp3245
g2
S'../../../data/emanuela/activity-recognition/images/NTCIR-Lifelog-256/u1/2015-03-06/b00001283_21i6bq_20150306_183124e.jpg'
p3246
sg4
(lp3247
(g15
g6
(g18
S'_\x85U?'
p3248
tp3249
Rp3250
tp3251
a(g32
g6
(g18
S'Z\xb9\xd2='
p3252
tp3253
Rp3254
tp3255
a(g68
g6
(g18
S'z\xb2\x8e<'
p3256
tp3257
Rp3258
tp3259
a(g131
g6
(g18
S'z\x8bg<'
p3260
tp3261
Rp3262
tp3263
a(g178
g6
(g18
S'\x95\x9e\x12<'
p3264
tp3265
Rp3266
tp3267
asg73
g15
sa(dp3268
g2
S'../../../data/emanuela/activity-recognition/images/NTCIR-Lifelog-256/u3/2015-07-29/b00004099_21i79q_20150729_150828e.jpg'
p3269
sg4
(lp3270
(g15
g6
(g18
S'\xf1\xe2G?'
p3271
tp3272
Rp3273
tp3274
a(g44
g6
(g18
S'\x84M\xc9='
p3275
tp3276
Rp3277
tp3278
a(g56
g6
(g18
S'\xa8\x02;='
p3279
tp3280
Rp3281
tp3282
a(g68
g6
(g18
S'\xfe\xb3\x1d='
p3283
tp3284
Rp3285
tp3286
a(g131
g6
(g18
S'U\x1b\xa6<'
p3287
tp3288
Rp3289
tp3290
asg73
g15
sa(dp3291
g2
S'../../../data/emanuela/activity-recognition/images/NTCIR-Lifelog-256/u1/2015-03-02/b00000231_21i6bq_20150302_091531e.jpg'
p3292
sg4
(lp3293
(g44
g6
(g18
S'\xbb\xb02?'
p3294
tp3295
Rp3296
tp3297
a(g68
g6
(g18
S'i\xe4\xdf='
p3298
tp3299
Rp3300
tp3301
a(g178
g6
(g18
S'\xe4\x0f+='
p3302
tp3303
Rp3304
tp3305
a(g108
g6
(g18
S'\xc9\x9f\t='
p3306
tp3307
Rp3308
tp3309
a(g15
g6
(g18
S'=D\xf2<'
p3310
tp3311
Rp3312
tp3313
asg73
g15
sa(dp3314
g2
S'../../../data/emanuela/activity-recognition/images/NTCIR-Lifelog-256/u3/2015-07-25/b00001628_21i79q_20150725_205849e.jpg'
p3315
sg4
(lp3316
(g15
g6
(g18
S'\xb9ln?'
p3317
tp3318
Rp3319
tp3320
a(g56
g6
(g18
S'Bd\xa0<'
p3321
tp3322
Rp3323
tp3324
a(g32
g6
(g18
S'\xf74\x9f<'
p3325
tp3326
Rp3327
tp3328
a(g131
g6
(g18
S'(J\x1a<'
p3329
tp3330
Rp3331
tp3332
a(g68
g6
(g18
S'\x04\x07\x04<'
p3333
tp3334
Rp3335
tp3336
asg73
g15
sa(dp3337
g2
S'../../../data/emanuela/activity-recognition/images/NTCIR-Lifelog-256/u2/2015-04-27/b00005765_21i7lf_20150427_171840e.jpg'
p3338
sg4
(lp3339
(g15
g6
(g18
S'\x0e\xb2M?'
p3340
tp3341
Rp3342
tp3343
a(g44
g6
(g18
S'\x1eP\xb1='
p3344
tp3345
Rp3346
tp3347
a(g32
g6
(g18
S'\xc7=$='
p3348
tp3349
Rp3350
tp3351
a(g1292
g6
(g18
S'\xeeS\x10='
p3352
tp3353
Rp3354
tp3355
a(g68
g6
(g18
S'\x99\xd0\xdf;'
p3356
tp3357
Rp3358
tp3359
asg73
g15
sa(dp3360
g2
S'../../../data/emanuela/activity-recognition/images/NTCIR-Lifelog-256/u2/2015-05-08/b00009457_21i7lf_20150508_172942e.jpg'
p3361
sg4
(lp3362
(g15
g6
(g18
S'\x84\\e?'
p3363
tp3364
Rp3365
tp3366
a(g44
g6
(g18
S'\x04\x01\x98='
p3367
tp3368
Rp3369
tp3370
a(g56
g6
(g18
S'y\xf6I<'
p3371
tp3372
Rp3373
tp3374
a(g32
g6
(g18
S'%\x1a\x15<'
p3375
tp3376
Rp3377
tp3378
a(g68
g6
(g18
S'\xa1j\xb3;'
p3379
tp3380
Rp3381
tp3382
asg73
g15
sa(dp3383
g2
S'../../../data/emanuela/activity-recognition/images/NTCIR-Lifelog-256/u2/2015-05-03/b00003971_21i7lf_20150503_164237e.jpg'
p3384
sg4
(lp3385
(g15
g6
(g18
S'\x8d?o?'
p3386
tp3387
Rp3388
tp3389
a(g44
g6
(g18
S'\xb6\x19,='
p3390
tp3391
Rp3392
tp3393
a(g68
g6
(g18
S'\xacU\xad<'
p3394
tp3395
Rp3396
tp3397
a(g32
g6
(g18
S'\x9a\x9c\xe8:'
p3398
tp3399
Rp3400
tp3401
a(g131
g6
(g18
S'\x8eG\xb58'
p3402
tp3403
Rp3404
tp3405
asg73
g15
sa(dp3406
g2
S'../../../data/emanuela/activity-recognition/images/NTCIR-Lifelog-256/u3/2015-07-11/b00000544_21i79q_20150711_120641e.jpg'
p3407
sg4
(lp3408
(g15
g6
(g18
S'a\xb8P?'
p3409
tp3410
Rp3411
tp3412
a(g32
g6
(g18
S'~\xa3\x06>'
p3413
tp3414
Rp3415
tp3416
a(g92
g6
(g18
S'\xa3E\xcb<'
p3417
tp3418
Rp3419
tp3420
a(g68
g6
(g18
S'4\xf0\xa9;'
p3421
tp3422
Rp3423
tp3424
a(g263
g6
(g18
S'v\x04\xa9;'
p3425
tp3426
Rp3427
tp3428
asg73
g15
sa(dp3429
g2
S'../../../data/emanuela/activity-recognition/images/NTCIR-Lifelog-256/u3/2015-07-29/b00004102_21i79q_20150729_150831e.jpg'
p3430
sg4
(lp3431
(g15
g6
(g18
S'\xda\x17]?'
p3432
tp3433
Rp3434
tp3435
a(g44
g6
(g18
S'R\nv='
p3436
tp3437
Rp3438
tp3439
a(g56
g6
(g18
S'\xd36\xb1<'
p3440
tp3441
Rp3442
tp3443
a(g131
g6
(g18
S'ds\xa4<'
p3444
tp3445
Rp3446
tp3447
a(g68
g6
(g18
S's\xfe\x9c<'
p3448
tp3449
Rp3450
tp3451
asg73
g15
sa(dp3452
g2
S'../../../data/emanuela/activity-recognition/images/NTCIR-Lifelog-256/u3/2015-06-28/b00000247_21i79q_20150628_165142e.jpg'
p3453
sg4
(lp3454
(g15
g6
(g18
S'D\xed\x04?'
p3455
tp3456
Rp3457
tp3458
a(g32
g6
(g18
S'\xd4\xeb\xe0>'
p3459
tp3460
Rp3461
tp3462
a(g44
g6
(g18
S'\xc5V\xf1<'
p3463
tp3464
Rp3465
tp3466
a(g68
g6
(g18
S'#"\x98;'
p3467
tp3468
Rp3469
tp3470
a(g317
g6
(g18
S"'\xc8\x1a;"
p3471
tp3472
Rp3473
tp3474
asg73
g15
sa(dp3475
g2
S'../../../data/emanuela/activity-recognition/images/NTCIR-Lifelog-256/u3/2015-06-28/b00000210_21i79q_20150628_162855e.jpg'
p3476
sg4
(lp3477
(g15
g6
(g18
S'\x1cg.?'
p3478
tp3479
Rp3480
tp3481
a(g32
g6
(g18
S'\x81\xc6\xa0>'
p3482
tp3483
Rp3484
tp3485
a(g68
g6
(g18
S'h]\xee:'
p3486
tp3487
Rp3488
tp3489
a(g178
g6
(g18
S'\xb1w\x90:'
p3490
tp3491
Rp3492
tp3493
a(g44
g6
(g18
S'0*E:'
p3494
tp3495
Rp3496
tp3497
asg73
g15
sa(dp3498
g2
S'../../../data/emanuela/activity-recognition/images/NTCIR-Lifelog-256/u2/2015-05-08/b00009535_21i7lf_20150508_184032e.jpg'
p3499
sg4
(lp3500
(g15
g6
(g18
S'\xae\x16%?'
p3501
tp3502
Rp3503
tp3504
a(g44
g6
(g18
S'\xa0\x00\xbc='
p3505
tp3506
Rp3507
tp3508
a(g56
g6
(g18
S'X\x01\x8d='
p3509
tp3510
Rp3511
tp3512
a(g92
g6
(g18
S'HM0='
p3513
tp3514
Rp3515
tp3516
a(g32
g6
(g18
S'&\xef\x05='
p3517
tp3518
Rp3519
tp3520
asg73
g15
sa(dp3521
g2
S'../../../data/emanuela/activity-recognition/images/NTCIR-Lifelog-256/u1/2015-03-02/b00000232_21i6bq_20150302_091609e.jpg'
p3522
sg4
(lp3523
(g178
g6
(g18
S',;\xce>'
p3524
tp3525
Rp3526
tp3527
a(g68
g6
(g18
S'[\xcfY>'
p3528
tp3529
Rp3530
tp3531
a(g15
g6
(g18
S'\x94\x19">'
p3532
tp3533
Rp3534
tp3535
a(g108
g6
(g18
S'\xb3\x1a\x19>'
p3536
tp3537
Rp3538
tp3539
a(g32
g6
(g18
S'\x0bA\x7f='
p3540
tp3541
Rp3542
tp3543
asg73
g15
sa(dp3544
g2
S'../../../data/emanuela/activity-recognition/images/NTCIR-Lifelog-256/u1/2015-02-26/b00000741_21i6bq_20150226_141415e.jpg'
p3545
sg4
(lp3546
(g15
g6
(g18
S'"=<?'
p3547
tp3548
Rp3549
tp3550
a(g68
g6
(g18
S'\x06=\x92='
p3551
tp3552
Rp3553
tp3554
a(g44
g6
(g18
S'#ce='
p3555
tp3556
Rp3557
tp3558
a(g32
g6
(g18
S'\x9c\x8dd='
p3559
tp3560
Rp3561
tp3562
a(g131
g6
(g18
S'\xdd\xb3\x04='
p3563
tp3564
Rp3565
tp3566
asg73
g15
sa(dp3567
g2
S'../../../data/emanuela/activity-recognition/images/NTCIR-Lifelog-256/u2/2015-04-21/b00000889_21i7lf_20150421_192706e.jpg'
p3568
sg4
(lp3569
(g15
g6
(g18
S'UsL?'
p3570
tp3571
Rp3572
tp3573
a(g32
g6
(g18
S'a\x06\x88='
p3574
tp3575
Rp3576
tp3577
a(g44
g6
(g18
S'\x18W1='
p3578
tp3579
Rp3580
tp3581
a(g56
g6
(g18
S'\xeb\xdf\x03='
p3582
tp3583
Rp3584
tp3585
a(g131
g6
(g18
S'b2k<'
p3586
tp3587
Rp3588
tp3589
asg73
g15
sa(dp3590
g2
S'../../../data/emanuela/activity-recognition/images/NTCIR-Lifelog-256/u3/2015-06-28/b00000194_21i79q_20150628_161913e.jpg'
p3591
sg4
(lp3592
(g15
g6
(g18
S'2_y?'
p3593
tp3594
Rp3595
tp3596
a(g32
g6
(g18
S'/+\xca<'
p3597
tp3598
Rp3599
tp3600
a(g44
g6
(g18
S'$\xfbS:'
p3601
tp3602
Rp3603
tp3604
a(g68
g6
(g18
S'\xbeo\x8d9'
p3605
tp3606
Rp3607
tp3608
a(g317
g6
(g18
S'\xd0\xf5@8'
p3609
tp3610
Rp3611
tp3612
asg73
g15
sa(dp3613
g2
S'../../../data/emanuela/activity-recognition/images/NTCIR-Lifelog-256/u2/2015-05-08/b00009578_21i7lf_20150508_191048e.jpg'
p3614
sg4
(lp3615
(g32
g6
(g18
S'\xa9 \x17?'
p3616
tp3617
Rp3618
tp3619
a(g15
g6
(g18
S'*\x7fV>'
p3620
tp3621
Rp3622
tp3623
a(g92
g6
(g18
S'\x00_/>'
p3624
tp3625
Rp3626
tp3627
a(g44
g6
(g18
S'\xb6\xed$<'
p3628
tp3629
Rp3630
tp3631
a(g317
g6
(g18
S'\x1d\xd4$<'
p3632
tp3633
Rp3634
tp3635
asg73
g15
sa(dp3636
g2
S'../../../data/emanuela/activity-recognition/images/NTCIR-Lifelog-256/u3/2015-06-28/b00000466_21i79q_20150628_185938e.jpg'
p3637
sg4
(lp3638
(g15
g6
(g18
S'\x06\xc5\xe1>'
p3639
tp3640
Rp3641
tp3642
a(g44
g6
(g18
S'/?0>'
p3643
tp3644
Rp3645
tp3646
a(g32
g6
(g18
S'\x8b\xf6\x06>'
p3647
tp3648
Rp3649
tp3650
a(g1292
g6
(g18
S'\x05\xd2\xae='
p3651
tp3652
Rp3653
tp3654
a(g68
g6
(g18
S'\xe3\x1e\x1f='
p3655
tp3656
Rp3657
tp3658
asg73
g15
sa(dp3659
g2
S'../../../data/emanuela/activity-recognition/images/NTCIR-Lifelog-256/u3/2015-07-11/b00000356_21i79q_20150711_101503e.jpg'
p3660
sg4
(lp3661
(g15
g6
(g18
S'\x182y?'
p3662
tp3663
Rp3664
tp3665
a(g44
g6
(g18
S'\xe7@\x9d<'
p3666
tp3667
Rp3668
tp3669
a(g32
g6
(g18
S'/\xa6G;'
p3670
tp3671
Rp3672
tp3673
a(g232
g6
(g18
S'e\x01\x12;'
p3674
tp3675
Rp3676
tp3677
a(g68
g6
(g18
S'@\xa6|:'
p3678
tp3679
Rp3680
tp3681
asg73
g15
sa(dp3682
g2
S'../../../data/emanuela/activity-recognition/images/NTCIR-Lifelog-256/u2/2015-04-23/b00001265_21i7lf_20150423_144913e.jpg'
p3683
sg4
(lp3684
(g32
g6
(g18
S'\x9b\x16)?'
p3685
tp3686
Rp3687
tp3688
a(g15
g6
(g18
S"'\x9f\xa4>"
p3689
tp3690
Rp3691
tp3692
a(g178
g6
(g18
S'\r8\xcd;'
p3693
tp3694
Rp3695
tp3696
a(g263
g6
(g18
S'\xb2\xe8\x8f;'
p3697
tp3698
Rp3699
tp3700
a(g44
g6
(g18
S'/\xcc\x1a;'
p3701
tp3702
Rp3703
tp3704
asg73
g15
sa(dp3705
g2
S'../../../data/emanuela/activity-recognition/images/NTCIR-Lifelog-256/u3/2015-07-11/b00000919_21i79q_20150711_153500e.jpg'
p3706
sg4
(lp3707
(g15
g6
(g18
S'f\x10.?'
p3708
tp3709
Rp3710
tp3711
a(g44
g6
(g18
S'\x98\x93->'
p3712
tp3713
Rp3714
tp3715
a(g68
g6
(g18
S'\x1d!\x17>'
p3716
tp3717
Rp3718
tp3719
a(g56
g6
(g18
S'\t\x9c@:'
p3720
tp3721
Rp3722
tp3723
a(g32
g6
(g18
S'&\x88\x1c:'
p3724
tp3725
Rp3726
tp3727
asg73
g15
sa(dp3728
g2
S'../../../data/emanuela/activity-recognition/images/NTCIR-Lifelog-256/u3/2015-07-11/b00001034_21i79q_20150711_164423e.jpg'
p3729
sg4
(lp3730
(g15
g6
(g18
S'`\xfb4?'
p3731
tp3732
Rp3733
tp3734
a(g44
g6
(g18
S'\x07\xb0%>'
p3735
tp3736
Rp3737
tp3738
a(g32
g6
(g18
S'\x926\xef<'
p3739
tp3740
Rp3741
tp3742
a(g68
g6
(g18
S'\x99\xe6\xe5<'
p3743
tp3744
Rp3745
tp3746
a(g1292
g6
(g18
S'\xe6\xf8\x92<'
p3747
tp3748
Rp3749
tp3750
asg73
g15
sa(dp3751
g2
S'../../../data/emanuela/activity-recognition/images/NTCIR-Lifelog-256/u3/2015-06-28/b00000460_21i79q_20150628_185605e.jpg'
p3752
sg4
(lp3753
(g15
g6
(g18
S'\n\xba7?'
p3754
tp3755
Rp3756
tp3757
a(g44
g6
(g18
S'y\xca^>'
p3758
tp3759
Rp3760
tp3761
a(g68
g6
(g18
S'\xff\xa2\x01='
p3762
tp3763
Rp3764
tp3765
a(g32
g6
(g18
S'E7\xb2<'
p3766
tp3767
Rp3768
tp3769
a(g1292
g6
(g18
S'\xa8i-;'
p3770
tp3771
Rp3772
tp3773
asg73
g15
sa(dp3774
g2
S'../../../data/emanuela/activity-recognition/images/NTCIR-Lifelog-256/u3/2015-06-28/b00000495_21i79q_20150628_191633e.jpg'
p3775
sg4
(lp3776
(g15
g6
(g18
S'\x85\x01\x02?'
p3777
tp3778
Rp3779
tp3780
a(g44
g6
(g18
S'p\x98\xb3>'
p3781
tp3782
Rp3783
tp3784
a(g68
g6
(g18
S'U\x96\x9b='
p3785
tp3786
Rp3787
tp3788
a(g32
g6
(g18
S'\xac\xcf\xe2<'
p3789
tp3790
Rp3791
tp3792
a(g108
g6
(g18
S'\xcci\x0e<'
p3793
tp3794
Rp3795
tp3796
asg73
g15
sa(dp3797
g2
S'../../../data/emanuela/activity-recognition/images/NTCIR-Lifelog-256/u2/2015-05-03/b00003959_21i7lf_20150503_163500e.jpg'
p3798
sg4
(lp3799
(g15
g6
(g18
S'\xaa\xabi?'
p3800
tp3801
Rp3802
tp3803
a(g68
g6
(g18
S'0yP='
p3804
tp3805
Rp3806
tp3807
a(g44
g6
(g18
S'8&\xf7<'
p3808
tp3809
Rp3810
tp3811
a(g32
g6
(g18
S'\xe1\x0c\xbb;'
p3812
tp3813
Rp3814
tp3815
a(g263
g6
(g18
S'X\xe9\x0c9'
p3816
tp3817
Rp3818
tp3819
asg73
g15
sa(dp3820
g2
S'../../../data/emanuela/activity-recognition/images/NTCIR-Lifelog-256/u1/2015-03-06/b00001266_21i6bq_20150306_182008e.jpg'
p3821
sg4
(lp3822
(g15
g6
(g18
S'.$\x1e?'
p3823
tp3824
Rp3825
tp3826
a(g32
g6
(g18
S'\x08\x11\x97>'
p3827
tp3828
Rp3829
tp3830
a(g68
g6
(g18
S'\xccc\xa9<'
p3831
tp3832
Rp3833
tp3834
a(g131
g6
(g18
S'\xe9\x1dv<'
p3835
tp3836
Rp3837
tp3838
a(g56
g6
(g18
S'{\xdf3<'
p3839
tp3840
Rp3841
tp3842
asg73
g15
sa(dp3843
g2
S'../../../data/emanuela/activity-recognition/images/NTCIR-Lifelog-256/u2/2015-04-26/b00004194_21i7lf_20150426_161504e.jpg'
p3844
sg4
(lp3845
(g92
g6
(g18
S'\r\xde4>'
p3846
tp3847
Rp3848
tp3849
a(g44
g6
(g18
S'\x8d\x86\x0e>'
p3850
tp3851
Rp3852
tp3853
a(g263
g6
(g18
S'\xe5K\xec='
p3854
tp3855
Rp3856
tp3857
a(g15
g6
(g18
S'\x16\xd8\xd1='
p3858
tp3859
Rp3860
tp3861
a(g32
g6
(g18
S'\x02]\x89='
p3862
tp3863
Rp3864
tp3865
asg73
g15
sa(dp3866
g2
S'../../../data/emanuela/activity-recognition/images/NTCIR-Lifelog-256/u2/2015-04-21/b00000859_21i7lf_20150421_184752e.jpg'
p3867
sg4
(lp3868
(g15
g6
(g18
S'\xe9\x18l?'
p3869
tp3870
Rp3871
tp3872
a(g32
g6
(g18
S'p\x0bV='
p3873
tp3874
Rp3875
tp3876
a(g131
g6
(g18
S'\xaf`\xe0;'
p3877
tp3878
Rp3879
tp3880
a(g44
g6
(g18
S'v\xa6\x98;'
p3881
tp3882
Rp3883
tp3884
a(g68
g6
(g18
S'\xdaTD;'
p3885
tp3886
Rp3887
tp3888
asg73
g15
sa(dp3889
g2
S'../../../data/emanuela/activity-recognition/images/NTCIR-Lifelog-256/u3/2015-07-11/b00000521_21i79q_20150711_115332e.jpg'
p3890
sg4
(lp3891
(g15
g6
(g18
S'\x8d<Y?'
p3892
tp3893
Rp3894
tp3895
a(g32
g6
(g18
S'k\x9f\x0c>'
p3896
tp3897
Rp3898
tp3899
a(g68
g6
(g18
S'\xc0\t\xfa;'
p3900
tp3901
Rp3902
tp3903
a(g56
g6
(g18
S'\xa4\x17l;'
p3904
tp3905
Rp3906
tp3907
a(g92
g6
(g18
S'\x92Fk:'
p3908
tp3909
Rp3910
tp3911
asg73
g15
sa(dp3912
g2
S'../../../data/emanuela/activity-recognition/images/NTCIR-Lifelog-256/u1/2015-03-06/b00001234_21i6bq_20150306_175842e.jpg'
p3913
sg4
(lp3914
(g15
g6
(g18
S'\x88s\x97>'
p3915
tp3916
Rp3917
tp3918
a(g32
g6
(g18
S'\x816e>'
p3919
tp3920
Rp3921
tp3922
a(g131
g6
(g18
S'\x15\x10a>'
p3923
tp3924
Rp3925
tp3926
a(g178
g6
(g18
S'\xf8\xfa\x90='
p3927
tp3928
Rp3929
tp3930
a(g108
g6
(g18
S'\x0c\xf1[='
p3931
tp3932
Rp3933
tp3934
asg73
g15
sa(dp3935
g2
S'../../../data/emanuela/activity-recognition/images/NTCIR-Lifelog-256/u2/2015-05-03/b00003984_21i7lf_20150503_165031e.jpg'
p3936
sg4
(lp3937
(g15
g6
(g18
S'\xd8\xa7Y?'
p3938
tp3939
Rp3940
tp3941
a(g44
g6
(g18
S'\xbe\xfe\xcf='
p3942
tp3943
Rp3944
tp3945
a(g68
g6
(g18
S'\x0b\xeb\x12='
p3946
tp3947
Rp3948
tp3949
a(g32
g6
(g18
S'#\x07|;'
p3950
tp3951
Rp3952
tp3953
a(g1292
g6
(g18
S'2\xa8\xd2:'
p3954
tp3955
Rp3956
tp3957
asg73
g15
sa(dp3958
g2
S'../../../data/emanuela/activity-recognition/images/NTCIR-Lifelog-256/u2/2015-05-06/b00007185_21i7lf_20150506_183612e.jpg'
p3959
sg4
(lp3960
(g32
g6
(g18
S'\x02\xd1\x08?'
p3961
tp3962
Rp3963
tp3964
a(g15
g6
(g18
S'\xe8\x03\x80>'
p3965
tp3966
Rp3967
tp3968
a(g68
g6
(g18
S'\xbe\x0e\x9e='
p3969
tp3970
Rp3971
tp3972
a(g56
g6
(g18
S'\xabl\x89='
p3973
tp3974
Rp3975
tp3976
a(g44
g6
(g18
S'\x98A)='
p3977
tp3978
Rp3979
tp3980
asg73
g15
sa(dp3981
g2
S'../../../data/emanuela/activity-recognition/images/NTCIR-Lifelog-256/u2/2015-04-27/b00005768_21i7lf_20150427_172027e.jpg'
p3982
sg4
(lp3983
(g15
g6
(g18
S'.\xc2*?'
p3984
tp3985
Rp3986
tp3987
a(g1292
g6
(g18
S'\x95F(>'
p3988
tp3989
Rp3990
tp3991
a(g44
g6
(g18
S'\x0c\xbe\xb5='
p3992
tp3993
Rp3994
tp3995
a(g32
g6
(g18
S'N\x13\x05='
p3996
tp3997
Rp3998
tp3999
a(g1503
g6
(g18
S'J\xe9W<'
p4000
tp4001
Rp4002
tp4003
asg73
g15
sa(dp4004
g2
S'../../../data/emanuela/activity-recognition/images/NTCIR-Lifelog-256/u3/2015-06-20/b00001276_21i79q_20150620_010415e.jpg'
p4005
sg4
(lp4006
(g15
g6
(g18
S'6Vg?'
p4007
tp4008
Rp4009
tp4010
a(g44
g6
(g18
S'nd^='
p4011
tp4012
Rp4013
tp4014
a(g68
g6
(g18
S'\\*\xac<'
p4015
tp4016
Rp4017
tp4018
a(g32
g6
(g18
S'\xbc\xe8m<'
p4019
tp4020
Rp4021
tp4022
a(g56
g6
(g18
S'K\xbe&;'
p4023
tp4024
Rp4025
tp4026
asg73
g15
sa(dp4027
g2
S'../../../data/emanuela/activity-recognition/images/NTCIR-Lifelog-256/u2/2015-05-08/b00009571_21i7lf_20150508_190826e.jpg'
p4028
sg4
(lp4029
(g15
g6
(g18
S'\xd0\x11:?'
p4030
tp4031
Rp4032
tp4033
a(g44
g6
(g18
S'\x93Ab>'
p4034
tp4035
Rp4036
tp4037
a(g56
g6
(g18
S'\xe6i\x00='
p4038
tp4039
Rp4040
tp4041
a(g32
g6
(g18
S';=$<'
p4042
tp4043
Rp4044
tp4045
a(g68
g6
(g18
S'fIq;'
p4046
tp4047
Rp4048
tp4049
asg73
g15
sa(dp4050
g2
S'../../../data/emanuela/activity-recognition/images/NTCIR-Lifelog-256/u2/2015-05-08/b00009468_21i7lf_20150508_174007e.jpg'
p4051
sg4
(lp4052
(g15
g6
(g18
S'ZwT?'
p4053
tp4054
Rp4055
tp4056
a(g32
g6
(g18
S'\xb4\x14\x11>'
p4057
tp4058
Rp4059
tp4060
a(g44
g6
(g18
S'\x92J\x91<'
p4061
tp4062
Rp4063
tp4064
a(g56
g6
(g18
S'\xe9v\x94;'
p4065
tp4066
Rp4067
tp4068
a(g68
g6
(g18
S'\xcf\xbc&;'
p4069
tp4070
Rp4071
tp4072
asg73
g15
sa(dp4073
g2
S'../../../data/emanuela/activity-recognition/images/NTCIR-Lifelog-256/u2/2015-04-21/b00000898_21i7lf_20150421_193811e.jpg'
p4074
sg4
(lp4075
(g15
g6
(g18
S'\xa9?Y?'
p4076
tp4077
Rp4078
tp4079
a(g32
g6
(g18
S'\xe2\x85\xca='
p4080
tp4081
Rp4082
tp4083
a(g44
g6
(g18
S'\xcc6\x81<'
p4084
tp4085
Rp4086
tp4087
a(g131
g6
(g18
S'\x02\x8f#<'
p4088
tp4089
Rp4090
tp4091
a(g92
g6
(g18
S'\xa7\x81\xd9;'
p4092
tp4093
Rp4094
tp4095
asg73
g15
sa(dp4096
g2
S'../../../data/emanuela/activity-recognition/images/NTCIR-Lifelog-256/u3/2015-06-28/b00000446_21i79q_20150628_184732e.jpg'
p4097
sg4
(lp4098
(g44
g6
(g18
S'\xda\\\x84>'
p4099
tp4100
Rp4101
tp4102
a(g1027
g6
(g18
S'\x00\x05u>'
p4103
tp4104
Rp4105
tp4106
a(g32
g6
(g18
S'\x8b\xa6\xb2='
p4107
tp4108
Rp4109
tp4110
a(g15
g6
(g18
S'\xc0$\x8a='
p4111
tp4112
Rp4113
tp4114
a(g317
g6
(g18
S'\x1e=t='
p4115
tp4116
Rp4117
tp4118
asg73
g15
sa(dp4119
g2
S'../../../data/emanuela/activity-recognition/images/NTCIR-Lifelog-256/u2/2015-05-08/b00009488_21i7lf_20150508_175744e.jpg'
p4120
sg4
(lp4121
(g15
g6
(g18
S'&^D?'
p4122
tp4123
Rp4124
tp4125
a(g92
g6
(g18
S'\x13\xa0\xd5='
p4126
tp4127
Rp4128
tp4129
a(g44
g6
(g18
S'\x9a\xdfP='
p4130
tp4131
Rp4132
tp4133
a(g32
g6
(g18
S';v!='
p4134
tp4135
Rp4136
tp4137
a(g56
g6
(g18
S'{\x9f\xbe<'
p4138
tp4139
Rp4140
tp4141
asg73
g15
sa(dp4142
g2
S'../../../data/emanuela/activity-recognition/images/NTCIR-Lifelog-256/u2/2015-04-27/b00005803_21i7lf_20150427_174201e.jpg'
p4143
sg4
(lp4144
(g15
g6
(g18
S'\xea$[?'
p4145
tp4146
Rp4147
tp4148
a(g44
g6
(g18
S'\xca\x8d\xa8='
p4149
tp4150
Rp4151
tp4152
a(g32
g6
(g18
S'\x9e\x98\xd1<'
p4153
tp4154
Rp4155
tp4156
a(g263
g6
(g18
S'\xbd\xf2V<'
p4157
tp4158
Rp4159
tp4160
a(g56
g6
(g18
S'\x88\x1f*<'
p4161
tp4162
Rp4163
tp4164
asg73
g15
sa(dp4165
g2
S'../../../data/emanuela/activity-recognition/images/NTCIR-Lifelog-256/u2/2015-05-08/b00009449_21i7lf_20150508_172332e.jpg'
p4166
sg4
(lp4167
(g15
g6
(g18
S'a\xcfT?'
p4168
tp4169
Rp4170
tp4171
a(g32
g6
(g18
S'\x1bV\xd6='
p4172
tp4173
Rp4174
tp4175
a(g44
g6
(g18
S'\x80\x111='
p4176
tp4177
Rp4178
tp4179
a(g68
g6
(g18
S'%\x1eB<'
p4180
tp4181
Rp4182
tp4183
a(g56
g6
(g18
S'O\xb14;'
p4184
tp4185
Rp4186
tp4187
asg73
g15
sa(dp4188
g2
S'../../../data/emanuela/activity-recognition/images/NTCIR-Lifelog-256/u2/2015-05-08/b00009584_21i7lf_20150508_191149e.jpg'
p4189
sg4
(lp4190
(g15
g6
(g18
S'\xc0nj?'
p4191
tp4192
Rp4193
tp4194
a(g44
g6
(g18
S'W,\xf8<'
p4195
tp4196
Rp4197
tp4198
a(g56
g6
(g18
S'q\xf2\xca<'
p4199
tp4200
Rp4201
tp4202
a(g32
g6
(g18
S'J\xd4\xb8<'
p4203
tp4204
Rp4205
tp4206
a(g68
g6
(g18
S'\xddu\x19;'
p4207
tp4208
Rp4209
tp4210
asg73
g15
sa(dp4211
g2
S'../../../data/emanuela/activity-recognition/images/NTCIR-Lifelog-256/u3/2015-06-28/b00000376_21i79q_20150628_180530e.jpg'
p4212
sg4
(lp4213
(g15
g6
(g18
S'Q\xad_?'
p4214
tp4215
Rp4216
tp4217
a(g32
g6
(g18
S'WX\xcd='
p4218
tp4219
Rp4220
tp4221
a(g68
g6
(g18
S'\xa9\xd3\x91<'
p4222
tp4223
Rp4224
tp4225
a(g44
g6
(g18
S'\x83\x9b\x8f;'
p4226
tp4227
Rp4228
tp4229
a(g108
g6
(g18
S'\xd6\xd7\x00;'
p4230
tp4231
Rp4232
tp4233
asg73
g15
sa(dp4234
g2
S'../../../data/emanuela/activity-recognition/images/NTCIR-Lifelog-256/u3/2015-07-11/b00000534_21i79q_20150711_120059e.jpg'
p4235
sg4
(lp4236
(g15
g6
(g18
S'\xf0os?'
p4237
tp4238
Rp4239
tp4240
a(g32
g6
(g18
S'%\xae)='
p4241
tp4242
Rp4243
tp4244
a(g92
g6
(g18
S'\xd0\x93!;'
p4245
tp4246
Rp4247
tp4248
a(g68
g6
(g18
S'\x88\x1f!;'
p4249
tp4250
Rp4251
tp4252
a(g263
g6
(g18
S'a\xef\xb7:'
p4253
tp4254
Rp4255
tp4256
asg73
g15
sa(dp4257
g2
S'../../../data/emanuela/activity-recognition/images/NTCIR-Lifelog-256/u2/2015-04-21/b00000884_21i7lf_20150421_192355e.jpg'
p4258
sg4
(lp4259
(g15
g6
(g18
S'\x97\xdbd?'
p4260
tp4261
Rp4262
tp4263
a(g32
g6
(g18
S'\xf0\xce|='
p4264
tp4265
Rp4266
tp4267
a(g44
g6
(g18
S'\xe2\x0bf<'
p4268
tp4269
Rp4270
tp4271
a(g1292
g6
(g18
S'\x98\x98E<'
p4272
tp4273
Rp4274
tp4275
a(g56
g6
(g18
S'\xdb\x06\x95;'
p4276
tp4277
Rp4278
tp4279
asg73
g15
sa(dp4280
g2
S'../../../data/emanuela/activity-recognition/images/NTCIR-Lifelog-256/u3/2015-07-11/b00000612_21i79q_20150711_124012e.jpg'
p4281
sg4
(lp4282
(g15
g6
(g18
S'\xe6\xc2v?'
p4283
tp4284
Rp4285
tp4286
a(g32
g6
(g18
S'\x1f\xea\x02='
p4287
tp4288
Rp4289
tp4290
a(g92
g6
(g18
S'\x9b-\x9d:'
p4291
tp4292
Rp4293
tp4294
a(g56
g6
(g18
S'7\x94<:'
p4295
tp4296
Rp4297
tp4298
a(g68
g6
(g18
S'\x99p+:'
p4299
tp4300
Rp4301
tp4302
asg73
g15
sa(dp4303
g2
S'../../../data/emanuela/activity-recognition/images/NTCIR-Lifelog-256/u3/2015-06-28/b00000291_21i79q_20150628_171814e.jpg'
p4304
sg4
(lp4305
(g15
g6
(g18
S'4\xd5f?'
p4306
tp4307
Rp4308
tp4309
a(g32
g6
(g18
S'\x8e\\\xa3='
p4310
tp4311
Rp4312
tp4313
a(g44
g6
(g18
S'\xbf\x83\xcc;'
p4314
tp4315
Rp4316
tp4317
a(g178
g6
(g18
S'\xf0\xb5>;'
p4318
tp4319
Rp4320
tp4321
a(g108
g6
(g18
S'\xcfq\xf1:'
p4322
tp4323
Rp4324
tp4325
asg73
g15
sa(dp4326
g2
S'../../../data/emanuela/activity-recognition/images/NTCIR-Lifelog-256/u3/2015-07-11/b00000329_21i79q_20150711_095927e.jpg'
p4327
sg4
(lp4328
(g44
g6
(g18
S'O\x9b\xf2>'
p4329
tp4330
Rp4331
tp4332
a(g15
g6
(g18
S'Y<\xa6>'
p4333
tp4334
Rp4335
tp4336
a(g68
g6
(g18
S'\xd3\x8c\xd1='
p4337
tp4338
Rp4339
tp4340
a(g32
g6
(g18
S'\x9a\x89K='
p4341
tp4342
Rp4343
tp4344
a(g131
g6
(g18
S'\x906\xb0<'
p4345
tp4346
Rp4347
tp4348
asg73
g15
sa(dp4349
g2
S'../../../data/emanuela/activity-recognition/images/NTCIR-Lifelog-256/u2/2015-05-08/b00009429_21i7lf_20150508_171028e.jpg'
p4350
sg4
(lp4351
(g15
g6
(g18
S'\xc1\x04\xb5>'
p4352
tp4353
Rp4354
tp4355
a(g92
g6
(g18
S'\x17\xd6\x9b>'
p4356
tp4357
Rp4358
tp4359
a(g44
g6
(g18
S'20\n>'
p4360
tp4361
Rp4362
tp4363
a(g32
g6
(g18
S'\x1b$\xd0='
p4364
tp4365
Rp4366
tp4367
a(g56
g6
(g18
S';\xc8\x10='
p4368
tp4369
Rp4370
tp4371
asg73
g15
sa(dp4372
g2
S'../../../data/emanuela/activity-recognition/images/NTCIR-Lifelog-256/u3/2015-06-28/b00000184_21i79q_20150628_161326e.jpg'
p4373
sg4
(lp4374
(g15
g6
(g18
S'\x1dls?'
p4375
tp4376
Rp4377
tp4378
a(g32
g6
(g18
S'\xd7a@='
p4379
tp4380
Rp4381
tp4382
a(g68
g6
(g18
S'\xda\xd1\xba:'
p4383
tp4384
Rp4385
tp4386
a(g44
g6
(g18
S'e\xf0\t:'
p4387
tp4388
Rp4389
tp4390
a(g317
g6
(g18
S'\xb2,M8'
p4391
tp4392
Rp4393
tp4394
asg73
g15
sa(dp4395
g2
S'../../../data/emanuela/activity-recognition/images/NTCIR-Lifelog-256/u3/2015-07-25/b00001621_21i79q_20150725_205157e.jpg'
p4396
sg4
(lp4397
(g15
g6
(g18
S'\xe8\xbaX?'
p4398
tp4399
Rp4400
tp4401
a(g131
g6
(g18
S'\x00G\x15='
p4402
tp4403
Rp4404
tp4405
a(g44
g6
(g18
S']\xd5\xd5<'
p4406
tp4407
Rp4408
tp4409
a(g32
g6
(g18
S'\xc7\xea\xbf<'
p4410
tp4411
Rp4412
tp4413
a(g56
g6
(g18
S'{\x8d\x96<'
p4414
tp4415
Rp4416
tp4417
asg73
g15
sa(dp4418
g2
S'../../../data/emanuela/activity-recognition/images/NTCIR-Lifelog-256/u3/2015-07-18/b00000306_21i79q_20150718_142043e.jpg'
p4419
sg4
(lp4420
(g32
g6
(g18
S"\xd4'.?"
p4421
tp4422
Rp4423
tp4424
a(g15
g6
(g18
S'\xb7\xb4{>'
p4425
tp4426
Rp4427
tp4428
a(g317
g6
(g18
S'4w\xbe<'
p4429
tp4430
Rp4431
tp4432
a(g6
(g7
(S'S6'
p4433
I0
I1
tp4434
Rp4435
(I3
S'|'
p4436
NNNI6
I1
I0
tp4437
bS'biking'
p4438
tp4439
Rp4440
g6
(g18
S'\x0f\x14M<'
p4441
tp4442
Rp4443
tp4444
a(g232
g6
(g18
S'\x15\xdf"<'
p4445
tp4446
Rp4447
tp4448
asg73
g15
sa(dp4449
g2
S'../../../data/emanuela/activity-recognition/images/NTCIR-Lifelog-256/u3/2015-08-01/b00006350_21i79q_20150801_145241e.jpg'
p4450
sg4
(lp4451
(g15
g6
(g18
S'\xe9\xab{?'
p4452
tp4453
Rp4454
tp4455
a(g32
g6
(g18
S'cA\x04<'
p4456
tp4457
Rp4458
tp4459
a(g44
g6
(g18
S'>\xd3\xe2;'
p4460
tp4461
Rp4462
tp4463
a(g68
g6
(g18
S'9\x1bp:'
p4464
tp4465
Rp4466
tp4467
a(g147
g6
(g18
S'\x9c\x01\xd89'
p4468
tp4469
Rp4470
tp4471
asg73
g15
sa(dp4472
g2
S'../../../data/emanuela/activity-recognition/images/NTCIR-Lifelog-256/u2/2015-05-08/b00009565_21i7lf_20150508_190445e.jpg'
p4473
sg4
(lp4474
(g15
g6
(g18
S'!\xcf&?'
p4475
tp4476
Rp4477
tp4478
a(g32
g6
(g18
S'\xca\xa6\xe4='
p4479
tp4480
Rp4481
tp4482
a(g44
g6
(g18
S'\x81\x98\x9f='
p4483
tp4484
Rp4485
tp4486
a(g68
g6
(g18
S'\xf6Wk='
p4487
tp4488
Rp4489
tp4490
a(g92
g6
(g18
S'\xcc}U='
p4491
tp4492
Rp4493
tp4494
asg73
g15
sa(dp4495
g2
S'../../../data/emanuela/activity-recognition/images/NTCIR-Lifelog-256/u3/2015-06-28/b00000413_21i79q_20150628_182744e.jpg'
p4496
sg4
(lp4497
(g15
g6
(g18
S'\x0f\xb4G?'
p4498
tp4499
Rp4500
tp4501
a(g32
g6
(g18
S'\nL\x06>'
p4502
tp4503
Rp4504
tp4505
a(g44
g6
(g18
S'\x9e\xe7;='
p4506
tp4507
Rp4508
tp4509
a(g178
g6
(g18
S'\xc0s\x7f<'
p4510
tp4511
Rp4512
tp4513
a(g68
g6
(g18
S'\xc3-s<'
p4514
tp4515
Rp4516
tp4517
asg73
g15
sa(dp4518
g2
S'../../../data/emanuela/activity-recognition/images/NTCIR-Lifelog-256/u3/2015-07-11/b00001115_21i79q_20150711_173619e.jpg'
p4519
sg4
(lp4520
(g15
g6
(g18
S'\xaf\xa7X?'
p4521
tp4522
Rp4523
tp4524
a(g68
g6
(g18
S'\xf2\xe3\x00>'
p4525
tp4526
Rp4527
tp4528
a(g44
g6
(g18
S'\x9e%\xa8<'
p4529
tp4530
Rp4531
tp4532
a(g56
g6
(g18
S'7\xfe1;'
p4533
tp4534
Rp4535
tp4536
a(g32
g6
(g18
S'\xc2\x17";'
p4537
tp4538
Rp4539
tp4540
asg73
g15
sa(dp4541
g2
S'../../../data/emanuela/activity-recognition/images/NTCIR-Lifelog-256/u2/2015-05-01/b00001783_21i7lf_20150501_090850e.jpg'
p4542
sg4
(lp4543
(g15
g6
(g18
S'Q\xa7\xce>'
p4544
tp4545
Rp4546
tp4547
a(g68
g6
(g18
S'$\x8f\xaa>'
p4548
tp4549
Rp4550
tp4551
a(g32
g6
(g18
S'\xf1\x9f{>'
p4552
tp4553
Rp4554
tp4555
a(g44
g6
(g18
S'j\xee+<'
p4556
tp4557
Rp4558
tp4559
a(g178
g6
(g18
S'\xb6\xc0\xf8:'
p4560
tp4561
Rp4562
tp4563
asg73
g15
sa(dp4564
g2
S'../../../data/emanuela/activity-recognition/images/NTCIR-Lifelog-256/u3/2015-06-28/b00000235_21i79q_20150628_164426e.jpg'
p4565
sg4
(lp4566
(g32
g6
(g18
S'\xa6\xe5\x00?'
p4567
tp4568
Rp4569
tp4570
a(g15
g6
(g18
S'\x8f\x19\xea>'
p4571
tp4572
Rp4573
tp4574
a(g68
g6
(g18
S'\xe7\xca\xc8<'
p4575
tp4576
Rp4577
tp4578
a(g108
g6
(g18
S'\xbe\xc9\xd0;'
p4579
tp4580
Rp4581
tp4582
a(g44
g6
(g18
S'1\x13|;'
p4583
tp4584
Rp4585
tp4586
asg73
g15
sa(dp4587
g2
S'../../../data/emanuela/activity-recognition/images/NTCIR-Lifelog-256/u3/2015-07-11/b00000941_21i79q_20150711_154753e.jpg'
p4588
sg4
(lp4589
(g15
g6
(g18
S'\xc3#\xe6>'
p4590
tp4591
Rp4592
tp4593
a(g44
g6
(g18
S'\tE\xc6>'
p4594
tp4595
Rp4596
tp4597
a(g232
g6
(g18
S'\xab\x95\x8e='
p4598
tp4599
Rp4600
tp4601
a(g68
g6
(g18
S'R*b='
p4602
tp4603
Rp4604
tp4605
a(g108
g6
(g18
S'\\\xf8\xcb<'
p4606
tp4607
Rp4608
tp4609
asg73
g15
sa(dp4610
g2
S'../../../data/emanuela/activity-recognition/images/NTCIR-Lifelog-256/u3/2015-07-29/b00004095_21i79q_20150729_150826e.jpg'
p4611
sg4
(lp4612
(g15
g6
(g18
S'W\xb6=?'
p4613
tp4614
Rp4615
tp4616
a(g44
g6
(g18
S'\x9e`\xd3='
p4617
tp4618
Rp4619
tp4620
a(g56
g6
(g18
S't\xafQ='
p4621
tp4622
Rp4623
tp4624
a(g68
g6
(g18
S'\xd2?N='
p4625
tp4626
Rp4627
tp4628
a(g131
g6
(g18
S'\x85\xd1#='
p4629
tp4630
Rp4631
tp4632
asg73
g15
sa(dp4633
g2
S'../../../data/emanuela/activity-recognition/images/NTCIR-Lifelog-256/u2/2015-05-06/b00007099_21i7lf_20150506_174212e.jpg'
p4634
sg4
(lp4635
(g15
g6
(g18
S'\xf5*\x9b>'
p4636
tp4637
Rp4638
tp4639
a(g44
g6
(g18
S'=s\x88>'
p4640
tp4641
Rp4642
tp4643
a(g56
g6
(g18
S'\x84\xf5W>'
p4644
tp4645
Rp4646
tp4647
a(g32
g6
(g18
S'@\xca\xae='
p4648
tp4649
Rp4650
tp4651
a(g68
g6
(g18
S'\x08\x86\xa3='
p4652
tp4653
Rp4654
tp4655
asg73
g15
sa(dp4656
g2
S'../../../data/emanuela/activity-recognition/images/NTCIR-Lifelog-256/u2/2015-04-21/b00000861_21i7lf_20150421_185609e.jpg'
p4657
sg4
(lp4658
(g15
g6
(g18
S'[\xacb?'
p4659
tp4660
Rp4661
tp4662
a(g32
g6
(g18
S'\xbd\xc0\x9d='
p4663
tp4664
Rp4665
tp4666
a(g44
g6
(g18
S'R\x80\x9e<'
p4667
tp4668
Rp4669
tp4670
a(g1292
g6
(g18
S'\r\x10\xbb;'
p4671
tp4672
Rp4673
tp4674
a(g56
g6
(g18
S'\xc7EA;'
p4675
tp4676
Rp4677
tp4678
asg73
g15
sa(dp4679
g2
S'../../../data/emanuela/activity-recognition/images/NTCIR-Lifelog-256/u3/2015-06-28/b00000260_21i79q_20150628_165947e.jpg'
p4680
sg4
(lp4681
(g15
g6
(g18
S'\xees"?'
p4682
tp4683
Rp4684
tp4685
a(g32
g6
(g18
S'\xbbjY>'
p4686
tp4687
Rp4688
tp4689
a(g108
g6
(g18
S'=\xc2w='
p4690
tp4691
Rp4692
tp4693
a(g68
g6
(g18
S'\xbf-5='
p4694
tp4695
Rp4696
tp4697
a(g178
g6
(g18
S'\x8ad\r='
p4698
tp4699
Rp4700
tp4701
asg73
g15
sa(dp4702
g2
S'../../../data/emanuela/activity-recognition/images/NTCIR-Lifelog-256/u3/2015-07-25/b00001639_21i79q_20150725_210948e.jpg'
p4703
sg4
(lp4704
(g32
g6
(g18
S'_V\xf7>'
p4705
tp4706
Rp4707
tp4708
a(g15
g6
(g18
S'\x0e!J>'
p4709
tp4710
Rp4711
tp4712
a(g263
g6
(g18
S'\x15q\xab='
p4713
tp4714
Rp4715
tp4716
a(g44
g6
(g18
S'P\xab\x8e='
p4717
tp4718
Rp4719
tp4720
a(g92
g6
(g18
S'\xe0K<='
p4721
tp4722
Rp4723
tp4724
asg73
g15
sa(dp4725
g2
S'../../../data/emanuela/activity-recognition/images/NTCIR-Lifelog-256/u2/2015-04-23/b00001276_21i7lf_20150423_145553e.jpg'
p4726
sg4
(lp4727
(g15
g6
(g18
S'\xb8\xeb\r?'
p4728
tp4729
Rp4730
tp4731
a(g32
g6
(g18
S'\t\xef\x84>'
p4732
tp4733
Rp4734
tp4735
a(g178
g6
(g18
S'\xb0|\xfb='
p4736
tp4737
Rp4738
tp4739
a(g68
g6
(g18
S'\xd89\x05='
p4740
tp4741
Rp4742
tp4743
a(g44
g6
(g18
S'\xc5\x9d\x95<'
p4744
tp4745
Rp4746
tp4747
asg73
g15
sa.