(lp0
(dp1
S'image'
p2
S'../../../data/emanuela/activity-recognition/images/NTCIR-Lifelog-256/u3/2015-07-12/b00002023_21i79q_20150712_175142e.jpg'
p3
sS'result'
p4
(lp5
(cnumpy.core.multiarray
scalar
p6
(cnumpy
dtype
p7
(S'S24'
p8
I0
I1
tp9
Rp10
(I3
S'|'
p11
NNNI24
I1
I0
tp12
bS'having drinks/meal alone'
p13
tp14
Rp15
g6
(g7
(S'f4'
p16
I0
I1
tp17
Rp18
(I3
S'<'
p19
NNNI-1
I-1
I0
tp20
bS'\xa4je?'
p21
tp22
Rp23
tp24
a(g6
(g7
(S'S25'
p25
I0
I1
tp26
Rp27
(I3
S'|'
p28
NNNI25
I1
I0
tp29
bS'having meal with somebody'
p30
tp31
Rp32
g6
(g18
S'W4\xd4='
p33
tp34
Rp35
tp36
a(g6
(g7
(S'S8'
p37
I0
I1
tp38
Rp39
(I3
S'|'
p40
NNNI8
I1
I0
tp41
bS'shopping'
p42
tp43
Rp44
g6
(g18
S'\xc4\xf7\x8c8'
p45
tp46
Rp47
tp48
a(g6
(g7
(S'S7'
p49
I0
I1
tp50
Rp51
(I3
S'|'
p52
NNNI7
I1
I0
tp53
bS'cooking'
p54
tp55
Rp56
g6
(g18
S'\xc7\x00\x858'
p57
tp58
Rp59
tp60
a(g6
(g7
(S'S2'
p61
I0
I1
tp62
Rp63
(I3
S'|'
p64
NNNI2
I1
I0
tp65
bS'tv'
p66
tp67
Rp68
g6
(g18
S'DpK8'
p69
tp70
Rp71
tp72
asS'label'
p73
g15
sa(dp74
g2
S'../../../data/emanuela/activity-recognition/images/NTCIR-Lifelog-256/u1/2015-02-27/b00000141_21i6bq_20150227_083924e.jpg'
p75
sg4
(lp76
(g44
g6
(g18
S'\x9f\x8d\xe2>'
p77
tp78
Rp79
tp80
a(g15
g6
(g18
S'N\r\xe0>'
p81
tp82
Rp83
tp84
a(g32
g6
(g18
S'(\xf9\xdb='
p85
tp86
Rp87
tp88
a(g6
(g7
(S'S14'
p89
I0
I1
tp90
Rp91
(I3
S'|'
p92
NNNI14
I1
I0
tp93
bS'walking indoor'
p94
tp95
Rp96
g6
(g18
S'\xf13\xc1;'
p97
tp98
Rp99
tp100
a(g6
(g7
(S'S27'
p101
I0
I1
tp102
Rp103
(I3
S'|'
p104
NNNI27
I1
I0
tp105
bS'having drinks with somebody'
p106
tp107
Rp108
g6
(g18
S'\xc9,8;'
p109
tp110
Rp111
tp112
asg73
g15
sa(dp113
g2
S'../../../data/emanuela/activity-recognition/images/NTCIR-Lifelog-256/u2/2015-04-22/b00000965_21i7lf_20150422_081720e.jpg'
p114
sg4
(lp115
(g56
g6
(g18
S'v\x08\x08?'
p116
tp117
Rp118
tp119
a(g15
g6
(g18
S'g\x9a~>'
p120
tp121
Rp122
tp123
a(g32
g6
(g18
S' \x15.>'
p124
tp125
Rp126
tp127
a(g6
(g7
(S'S19'
p128
I0
I1
tp129
Rp130
(I3
S'|'
p131
NNNI19
I1
I0
tp132
bS'cleaning and chores'
p133
tp134
Rp135
g6
(g18
S'3\x1c\x85<'
p136
tp137
Rp138
tp139
a(g108
g6
(g18
S'\xb2\xfcp<'
p140
tp141
Rp142
tp143
asg73
g15
sa(dp144
g2
S'../../../data/emanuela/activity-recognition/images/NTCIR-Lifelog-256/u3/2015-06-24/b00000751_21i79q_20150624_163825e.jpg'
p145
sg4
(lp146
(g15
g6
(g18
S'\xe2\xcfr?'
p147
tp148
Rp149
tp150
a(g32
g6
(g18
S'k[P='
p151
tp152
Rp153
tp154
a(g68
g6
(g18
S'7\xdb\xa09'
p155
tp156
Rp157
tp158
a(g6
(g7
(S'S11'
p159
I0
I1
tp160
Rp161
(I3
S'|'
p162
NNNI11
I1
I0
tp163
bS'socializing'
p164
tp165
Rp166
g6
(g18
S'\x01l\xc28'
p167
tp168
Rp169
tp170
a(g44
g6
(g18
S',\x91\xa28'
p171
tp172
Rp173
tp174
asg73
g15
sa(dp175
g2
S'../../../data/emanuela/activity-recognition/images/NTCIR-Lifelog-256/u3/2015-06-28/b00000018_21i79q_20150628_143950e.jpg'
p176
sg4
(lp177
(g15
g6
(g18
S'\x1d}U?'
p178
tp179
Rp180
tp181
a(g6
(g7
(S'S7'
p182
I0
I1
tp183
Rp184
(I3
S'|'
p185
NNNI7
I1
I0
tp186
bS'meeting'
p187
tp188
Rp189
g6
(g18
S'{\xc2\xc1='
p190
tp191
Rp192
tp193
a(g108
g6
(g18
S'\xfd\xee\x19='
p194
tp195
Rp196
tp197
a(g6
(g7
(S'S7'
p198
I0
I1
tp199
Rp200
(I3
S'|'
p201
NNNI7
I1
I0
tp202
bS'reading'
p203
tp204
Rp205
g6
(g18
S'\xc6\x8f,<'
p206
tp207
Rp208
tp209
a(g166
g6
(g18
S'\xa7\x8b\xec;'
p210
tp211
Rp212
tp213
asg73
g15
sa(dp214
g2
S'../../../data/emanuela/activity-recognition/images/NTCIR-Lifelog-256/u3/2015-06-28/b00000048_21i79q_20150628_145659e.jpg'
p215
sg4
(lp216
(g15
g6
(g18
S'_\xe8d?'
p217
tp218
Rp219
tp220
a(g189
g6
(g18
S'\xeb\xd9\xda<'
p221
tp222
Rp223
tp224
a(g32
g6
(g18
S'\xadh\xd9<'
p225
tp226
Rp227
tp228
a(g166
g6
(g18
S'Q\xc1\xd3<'
p229
tp230
Rp231
tp232
a(g108
g6
(g18
S'\x0bT\xf9;'
p233
tp234
Rp235
tp236
asg73
g15
sa(dp237
g2
S'../../../data/emanuela/activity-recognition/images/NTCIR-Lifelog-256/u3/2015-07-30/b00005983_21i79q_20150730_212904e.jpg'
p238
sg4
(lp239
(g15
g6
(g18
S'rFo?'
p240
tp241
Rp242
tp243
a(g6
(g7
(S'S7'
p244
I0
I1
tp245
Rp246
(I3
S'|'
p247
NNNI7
I1
I0
tp248
bS'working'
p249
tp250
Rp251
g6
(g18
S'\x12a\xa7<'
p252
tp253
Rp254
tp255
a(g108
g6
(g18
S'U\xed\x8f<'
p256
tp257
Rp258
tp259
a(g32
g6
(g18
S'\xe0\xf2\x17<'
p260
tp261
Rp262
tp263
a(g68
g6
(g18
S'\x92/\xb7;'
p264
tp265
Rp266
tp267
asg73
g15
sa(dp268
g2
S'../../../data/emanuela/activity-recognition/images/NTCIR-Lifelog-256/u2/2015-06-16/b00001394_21i7lf_20150616_074827e.jpg'
p269
sg4
(lp270
(g15
g6
(g18
S'\xe0xq?'
p271
tp272
Rp273
tp274
a(g32
g6
(g18
S'f\x15I='
p275
tp276
Rp277
tp278
a(g108
g6
(g18
S'\xbe\xb7\xd9;'
p279
tp280
Rp281
tp282
a(g189
g6
(g18
S'\x95\xee\xcf9'
p283
tp284
Rp285
tp286
a(g6
(g7
(S'S7'
p287
I0
I1
tp288
Rp289
(I3
S'|'
p290
NNNI7
I1
I0
tp291
bS'talking'
p292
tp293
Rp294
g6
(g18
S'=\xa5S9'
p295
tp296
Rp297
tp298
asg73
g15
sa(dp299
g2
S'../../../data/emanuela/activity-recognition/images/NTCIR-Lifelog-256/u3/2015-06-15/b00000427_21i79q_20150615_124816e.jpg'
p300
sg4
(lp301
(g15
g6
(g18
S'\xe83\n?'
p302
tp303
Rp304
tp305
a(g32
g6
(g18
S'\xeav\xeb>'
p306
tp307
Rp308
tp309
a(g166
g6
(g18
S'\xa6@\xfc8'
p310
tp311
Rp312
tp313
a(g44
g6
(g18
S'\xa8\xb2S8'
p314
tp315
Rp316
tp317
a(g68
g6
(g18
S'p\xba\xb17'
p318
tp319
Rp320
tp321
asg73
g15
sa(dp322
g2
S'../../../data/emanuela/activity-recognition/images/NTCIR-Lifelog-256/u2/2015-06-19/b00003541_21i7lf_20150619_114944e.jpg'
p323
sg4
(lp324
(g15
g6
(g18
S'\xd1\t\x03?'
p325
tp326
Rp327
tp328
a(g108
g6
(g18
S'\x8d?%>'
p329
tp330
Rp331
tp332
a(g44
g6
(g18
S'9\xa8\xd3='
p333
tp334
Rp335
tp336
a(g32
g6
(g18
S'\x8d\xf5\xcd='
p337
tp338
Rp339
tp340
a(g6
(g7
(S'S6'
p341
I0
I1
tp342
Rp343
(I3
S'|'
p344
NNNI6
I1
I0
tp345
bS'mobile'
p346
tp347
Rp348
g6
(g18
S'\xbb\xbb\x1b='
p349
tp350
Rp351
tp352
asg73
g15
sa(dp353
g2
S'../../../data/emanuela/activity-recognition/images/NTCIR-Lifelog-256/u3/2015-06-21/b00000963_21i79q_20150621_214838e.jpg'
p354
sg4
(lp355
(g15
g6
(g18
S'\x97\xd7V?'
p356
tp357
Rp358
tp359
a(g32
g6
(g18
S'_\x9d\x03>'
p360
tp361
Rp362
tp363
a(g56
g6
(g18
S'\x18Q\x96<'
p364
tp365
Rp366
tp367
a(g108
g6
(g18
S'E\\\x8e;'
p368
tp369
Rp370
tp371
a(g135
g6
(g18
S'I\x08\x1a;'
p372
tp373
Rp374
tp375
asg73
g15
sa(dp376
g2
S'../../../data/emanuela/activity-recognition/images/NTCIR-Lifelog-256/u1/2015-03-14/b00000261_21i6bq_20150314_084500e.jpg'
p377
sg4
(lp378
(g15
g6
(g18
S'\xbbqm?'
p379
tp380
Rp381
tp382
a(g108
g6
(g18
S'\xd2\xadJ='
p383
tp384
Rp385
tp386
a(g32
g6
(g18
S'#\x976<'
p387
tp388
Rp389
tp390
a(g166
g6
(g18
S'\x08p\x94;'
p391
tp392
Rp393
tp394
a(g205
g6
(g18
S"'}J;"
p395
tp396
Rp397
tp398
asg73
g15
sa(dp399
g2
S'../../../data/emanuela/activity-recognition/images/NTCIR-Lifelog-256/u3/2015-06-15/b00000902_21i79q_20150615_170602e.jpg'
p400
sg4
(lp401
(g15
g6
(g18
S'qf=?'
p402
tp403
Rp404
tp405
a(g32
g6
(g18
S'U)W>'
p406
tp407
Rp408
tp409
a(g44
g6
(g18
S'\x82\x13\x1a<'
p410
tp411
Rp412
tp413
a(g348
g6
(g18
S'g\xe2\x01<'
p414
tp415
Rp416
tp417
a(g56
g6
(g18
S'\xf0\x8d\xe3;'
p418
tp419
Rp420
tp421
asg73
g15
sa(dp422
g2
S'../../../data/emanuela/activity-recognition/images/NTCIR-Lifelog-256/u2/2015-06-17/b00002309_21i7lf_20150617_122708e.jpg'
p423
sg4
(lp424
(g108
g6
(g18
S'\xc4\xc4j?'
p425
tp426
Rp427
tp428
a(g166
g6
(g18
S"1_'="
p429
tp430
Rp431
tp432
a(g15
g6
(g18
S"\xe4\x83'<"
p433
tp434
Rp435
tp436
a(g32
g6
(g18
S'\x044\x0c<'
p437
tp438
Rp439
tp440
a(g294
g6
(g18
S'4\xe9\x9e;'
p441
tp442
Rp443
tp444
asg73
g15
sa(dp445
g2
S'../../../data/emanuela/activity-recognition/images/NTCIR-Lifelog-256/u3/2015-07-29/b00004664_21i79q_20150729_205549e.jpg'
p446
sg4
(lp447
(g15
g6
(g18
S'\xbd\x1ba?'
p448
tp449
Rp450
tp451
a(g32
g6
(g18
S'\xd6H\xe0='
p452
tp453
Rp454
tp455
a(g108
g6
(g18
S'WM\xc1;'
p456
tp457
Rp458
tp459
a(g68
g6
(g18
S'1\xfa\xb1:'
p460
tp461
Rp462
tp463
a(g56
g6
(g18
S'\x93\xb7\x81:'
p464
tp465
Rp466
tp467
asg73
g15
sa(dp468
g2
S'../../../data/emanuela/activity-recognition/images/NTCIR-Lifelog-256/u3/2015-06-15/b00000905_21i79q_20150615_170752e.jpg'
p469
sg4
(lp470
(g15
g6
(g18
S'|\xe0R?'
p471
tp472
Rp473
tp474
a(g32
g6
(g18
S'\x06n\x0f>'
p475
tp476
Rp477
tp478
a(g108
g6
(g18
S'&\xe8\x82<'
p479
tp480
Rp481
tp482
a(g96
g6
(g18
S'\n\xe4\x87;'
p483
tp484
Rp485
tp486
a(g166
g6
(g18
S'O\xddm;'
p487
tp488
Rp489
tp490
asg73
g15
sa(dp491
g2
S'../../../data/emanuela/activity-recognition/images/NTCIR-Lifelog-256/u1/2015-03-08/b00000007_21i6bq_20150308_080158e.jpg'
p492
sg4
(lp493
(g108
g6
(g18
S'\xf9/\x0f?'
p494
tp495
Rp496
tp497
a(g32
g6
(g18
S'\xb4\x98\x94>'
p498
tp499
Rp500
tp501
a(g15
g6
(g18
S'\xef\x01\xa0='
p502
tp503
Rp504
tp505
a(g166
g6
(g18
S'O[S='
p506
tp507
Rp508
tp509
a(g294
g6
(g18
S'\xc3\x15\xa9;'
p510
tp511
Rp512
tp513
asg73
g15
sa(dp514
g2
S'../../../data/emanuela/activity-recognition/images/NTCIR-Lifelog-256/u2/2015-05-08/b00009642_21i7lf_20150508_195707e.jpg'
p515
sg4
(lp516
(g15
g6
(g18
S'\xe4\x16{?'
p517
tp518
Rp519
tp520
a(g32
g6
(g18
S'\x06d&<'
p521
tp522
Rp523
tp524
a(g68
g6
(g18
S'\xaa\xc7\x1a;'
p525
tp526
Rp527
tp528
a(g251
g6
(g18
S'=\xa4\x08;'
p529
tp530
Rp531
tp532
a(g166
g6
(g18
S'hOj:'
p533
tp534
Rp535
tp536
asg73
g15
sa(dp537
g2
S'../../../data/emanuela/activity-recognition/images/NTCIR-Lifelog-256/u3/2015-07-29/b00004670_21i79q_20150729_205942e.jpg'
p538
sg4
(lp539
(g15
g6
(g18
S'\xa0\xb8w?'
p540
tp541
Rp542
tp543
a(g32
g6
(g18
S'\xac\x93\xfa<'
p544
tp545
Rp546
tp547
a(g56
g6
(g18
S'i]\x08:'
p548
tp549
Rp550
tp551
a(g68
g6
(g18
S'.2\xe79'
p552
tp553
Rp554
tp555
a(g166
g6
(g18
S'\xcb\xd0\xa99'
p556
tp557
Rp558
tp559
asg73
g15
sa(dp560
g2
S'../../../data/emanuela/activity-recognition/images/NTCIR-Lifelog-256/u1/2015-03-18/b00000439_21i6bq_20150318_122721e.jpg'
p561
sg4
(lp562
(g15
g6
(g18
S'u\x9a\xf9>'
p563
tp564
Rp565
tp566
a(g108
g6
(g18
S'\n\xe9c>'
p567
tp568
Rp569
tp570
a(g32
g6
(g18
S'\x9eVI>'
p571
tp572
Rp573
tp574
a(g166
g6
(g18
S'\x8f\xb26='
p575
tp576
Rp577
tp578
a(g6
(g7
(S'S7'
p579
I0
I1
tp580
Rp581
(I3
S'|'
p582
NNNI7
I1
I0
tp583
bS'driving'
p584
tp585
Rp586
g6
(g18
S'\x15\xd6\xad<'
p587
tp588
Rp589
tp590
asg73
g15
sa(dp591
g2
S'../../../data/emanuela/activity-recognition/images/NTCIR-Lifelog-256/u3/2015-07-22/b00000510_21i79q_20150722_150014e.jpg'
p592
sg4
(lp593
(g15
g6
(g18
S'\x04\xb4y?'
p594
tp595
Rp596
tp597
a(g32
g6
(g18
S'\x1fh\xaa<'
p598
tp599
Rp600
tp601
a(g56
g6
(g18
S'\xbac\xa7:'
p602
tp603
Rp604
tp605
a(g68
g6
(g18
S'\x9bf\x8c:'
p606
tp607
Rp608
tp609
a(g205
g6
(g18
S'Ht\xc09'
p610
tp611
Rp612
tp613
asg73
g15
sa(dp614
g2
S'../../../data/emanuela/activity-recognition/images/NTCIR-Lifelog-256/u3/2015-07-23/b00000272_21i79q_20150723_152100e.jpg'
p615
sg4
(lp616
(g15
g6
(g18
S'\xf3\xbax?'
p617
tp618
Rp619
tp620
a(g32
g6
(g18
S'\x02V\x9a<'
p621
tp622
Rp623
tp624
a(g108
g6
(g18
S'7\x96f;'
p625
tp626
Rp627
tp628
a(g68
g6
(g18
S'H\xc5\xb2:'
p629
tp630
Rp631
tp632
a(g56
g6
(g18
S'\xd2\xfd\x84:'
p633
tp634
Rp635
tp636
asg73
g15
sa(dp637
g2
S'../../../data/emanuela/activity-recognition/images/NTCIR-Lifelog-256/u1/2015-03-14/b00000263_21i6bq_20150314_084614e.jpg'
p638
sg4
(lp639
(g15
g6
(g18
S'qxr?'
p640
tp641
Rp642
tp643
a(g108
g6
(g18
S'\x08\x9a\x1d='
p644
tp645
Rp646
tp647
a(g32
g6
(g18
S'\xe5\xc1\x07<'
p648
tp649
Rp650
tp651
a(g166
g6
(g18
S'\xfc\x01\x1c;'
p652
tp653
Rp654
tp655
a(g44
g6
(g18
S'\x8a\x9e\x0e;'
p656
tp657
Rp658
tp659
asg73
g15
sa(dp660
g2
S'../../../data/emanuela/activity-recognition/images/NTCIR-Lifelog-256/u3/2015-07-25/b00001416_21i79q_20150725_173945e.jpg'
p661
sg4
(lp662
(g15
g6
(g18
S'\xe7TB?'
p663
tp664
Rp665
tp666
a(g108
g6
(g18
S'\xbeb/>'
p667
tp668
Rp669
tp670
a(g135
g6
(g18
S'\xe9N\xdf<'
p671
tp672
Rp673
tp674
a(g56
g6
(g18
S'R\xc4\x12<'
p675
tp676
Rp677
tp678
a(g348
g6
(g18
S'i \x11<'
p679
tp680
Rp681
tp682
asg73
g15
sa(dp683
g2
S'../../../data/emanuela/activity-recognition/images/NTCIR-Lifelog-256/u3/2015-06-28/b00000014_21i79q_20150628_143744e.jpg'
p684
sg4
(lp685
(g15
g6
(g18
S'\x1eWp?'
p686
tp687
Rp688
tp689
a(g189
g6
(g18
S'p\xa3\xb0<'
p690
tp691
Rp692
tp693
a(g166
g6
(g18
S'Py\x85<'
p694
tp695
Rp696
tp697
a(g108
g6
(g18
S'F\xd0\x1c<'
p698
tp699
Rp700
tp701
a(g32
g6
(g18
S'\x1fR\xb7;'
p702
tp703
Rp704
tp705
asg73
g15
sa(dp706
g2
S'../../../data/emanuela/activity-recognition/images/NTCIR-Lifelog-256/u2/2015-04-20/b00000131_21i7lf_20150420_105536e.jpg'
p707
sg4
(lp708
(g15
g6
(g18
S'~\x17\x18?'
p709
tp710
Rp711
tp712
a(g166
g6
(g18
S'\x9e\n\xd3='
p713
tp714
Rp715
tp716
a(g108
g6
(g18
S'mP\x8e='
p717
tp718
Rp719
tp720
a(g32
g6
(g18
S'\x86<\x12='
p721
tp722
Rp723
tp724
a(g96
g6
(g18
S'\xbf\xef\x05='
p725
tp726
Rp727
tp728
asg73
g15
sa(dp729
g2
S'../../../data/emanuela/activity-recognition/images/NTCIR-Lifelog-256/u1/2015-03-16/b00002266_21i6bq_20150316_143942e.jpg'
p730
sg4
(lp731
(g15
g6
(g18
S'\x135}?'
p732
tp733
Rp734
tp735
a(g32
g6
(g18
S'\xc3\xed\xbc;'
p736
tp737
Rp738
tp739
a(g205
g6
(g18
S'\x84w\xcd:'
p740
tp741
Rp742
tp743
a(g251
g6
(g18
S'\x80H\x87:'
p744
tp745
Rp746
tp747
a(g348
g6
(g18
S'\xe7\x10s:'
p748
tp749
Rp750
tp751
asg73
g15
sa(dp752
g2
S'../../../data/emanuela/activity-recognition/images/NTCIR-Lifelog-256/u3/2015-07-23/b00000286_21i79q_20150723_152932e.jpg'
p753
sg4
(lp754
(g15
g6
(g18
S'\x9c\x98f?'
p755
tp756
Rp757
tp758
a(g32
g6
(g18
S'\xbe\xb9\x96='
p759
tp760
Rp761
tp762
a(g108
g6
(g18
S'\xb4\xde\x06<'
p763
tp764
Rp765
tp766
a(g294
g6
(g18
S'\xa7;\x85;'
p767
tp768
Rp769
tp770
a(g251
g6
(g18
S'\xd8\x87\x13;'
p771
tp772
Rp773
tp774
asg73
g15
sa(dp775
g2
S'../../../data/emanuela/activity-recognition/images/NTCIR-Lifelog-256/u2/2015-04-22/b00001350_21i7lf_20150422_121935e.jpg'
p776
sg4
(lp777
(g15
g6
(g18
S'?\x88|?'
p778
tp779
Rp780
tp781
a(g32
g6
(g18
S'\xb0\x92K<'
p782
tp783
Rp784
tp785
a(g251
g6
(g18
S'\xc2\x1d\xca9'
p786
tp787
Rp788
tp789
a(g44
g6
(g18
S'\x03\xf3&9'
p790
tp791
Rp792
tp793
a(g68
g6
(g18
S'\xf7\xe4\x179'
p794
tp795
Rp796
tp797
asg73
g15
sa(dp798
g2
S'../../../data/emanuela/activity-recognition/images/NTCIR-Lifelog-256/u1/2015-02-25/b00000265_21i6bq_20150225_084416e.jpg'
p799
sg4
(lp800
(g32
g6
(g18
S'2\x17\x05?'
p801
tp802
Rp803
tp804
a(g108
g6
(g18
S'\xcd\x8fw>'
p805
tp806
Rp807
tp808
a(g166
g6
(g18
S'\xb2<\x1c>'
p809
tp810
Rp811
tp812
a(g294
g6
(g18
S'\x16\x871='
p813
tp814
Rp815
tp816
a(g15
g6
(g18
S'\x072\xb5<'
p817
tp818
Rp819
tp820
asg73
g15
sa(dp821
g2
S'../../../data/emanuela/activity-recognition/images/NTCIR-Lifelog-256/u2/2015-05-08/b00009686_21i7lf_20150508_203432e.jpg'
p822
sg4
(lp823
(g15
g6
(g18
S'\xf5.~?'
p824
tp825
Rp826
tp827
a(g32
g6
(g18
S'03\x8d;'
p828
tp829
Rp830
tp831
a(g68
g6
(g18
S'~\xa0\x17:'
p832
tp833
Rp834
tp835
a(g108
g6
(g18
S'^\xd1\xee9'
p836
tp837
Rp838
tp839
a(g6
(g7
(S'S19'
p840
I0
I1
tp841
Rp842
(I3
S'|'
p843
NNNI19
I1
I0
tp844
bS'attending a seminar'
p845
tp846
Rp847
g6
(g18
S'\x1f\x8c\xc99'
p848
tp849
Rp850
tp851
asg73
g15
sa(dp852
g2
S'../../../data/emanuela/activity-recognition/images/NTCIR-Lifelog-256/u3/2015-07-23/b00000288_21i79q_20150723_153044e.jpg'
p853
sg4
(lp854
(g15
g6
(g18
S'h\xa8R?'
p855
tp856
Rp857
tp858
a(g32
g6
(g18
S'\xd4\x98\x1d>'
p859
tp860
Rp861
tp862
a(g108
g6
(g18
S'\xdb\xcb <'
p863
tp864
Rp865
tp866
a(g294
g6
(g18
S'\xba\xee\x15;'
p867
tp868
Rp869
tp870
a(g205
g6
(g18
S'\xe6\xa9\x06;'
p871
tp872
Rp873
tp874
asg73
g15
sa(dp875
g2
S'../../../data/emanuela/activity-recognition/images/NTCIR-Lifelog-256/u1/2015-03-02/b00001147_21i6bq_20150302_190651e.jpg'
p876
sg4
(lp877
(g15
g6
(g18
S'\x86\xdfP?'
p878
tp879
Rp880
tp881
a(g56
g6
(g18
S'\n\x8f\x15>'
p882
tp883
Rp884
tp885
a(g32
g6
(g18
S'\x95@\x05='
p886
tp887
Rp888
tp889
a(g135
g6
(g18
S'\xff\x080;'
p890
tp891
Rp892
tp893
a(g44
g6
(g18
S'T\x0f\x13;'
p894
tp895
Rp896
tp897
asg73
g15
sa(dp898
g2
S'../../../data/emanuela/activity-recognition/images/NTCIR-Lifelog-256/u2/2015-06-21/b00004999_21i7lf_20150621_114316e.jpg'
p899
sg4
(lp900
(g15
g6
(g18
S'\xd5\x86M?'
p901
tp902
Rp903
tp904
a(g32
g6
(g18
S'\x1c\xaf6>'
p905
tp906
Rp907
tp908
a(g108
g6
(g18
S'\xea\x05T<'
p909
tp910
Rp911
tp912
a(g166
g6
(g18
S'<\xf2\xe7:'
p913
tp914
Rp915
tp916
a(g44
g6
(g18
S'%Z\x9c:'
p917
tp918
Rp919
tp920
asg73
g15
sa(dp921
g2
S'../../../data/emanuela/activity-recognition/images/NTCIR-Lifelog-256/u1/2015-03-03/b00000590_21i6bq_20150303_130140e.jpg'
p922
sg4
(lp923
(g15
g6
(g18
S'nUV?'
p924
tp925
Rp926
tp927
a(g32
g6
(g18
S'\x04\xef%>'
p928
tp929
Rp930
tp931
a(g348
g6
(g18
S'\x15s\xab9'
p932
tp933
Rp934
tp935
a(g44
g6
(g18
S'\x8a\xee\xb18'
p936
tp937
Rp938
tp939
a(g108
g6
(g18
S'\x97q\x978'
p940
tp941
Rp942
tp943
asg73
g15
sa(dp944
g2
S'../../../data/emanuela/activity-recognition/images/NTCIR-Lifelog-256/u3/2015-06-24/b00001255_21i79q_20150624_214926e.jpg'
p945
sg4
(lp946
(g6
(g7
(S'S7'
p947
I0
I1
tp948
Rp949
(I3
S'|'
p950
NNNI7
I1
I0
tp951
bS'resting'
p952
tp953
Rp954
g6
(g18
S'\xe6;\xa8>'
p955
tp956
Rp957
tp958
a(g15
g6
(g18
S'+\xe2q>'
p959
tp960
Rp961
tp962
a(g348
g6
(g18
S',\x06\x0c>'
p963
tp964
Rp965
tp966
a(g205
g6
(g18
S's\xbd\xc6='
p967
tp968
Rp969
tp970
a(g32
g6
(g18
S'\x90\x93\xbb='
p971
tp972
Rp973
tp974
asg73
g15
sa(dp975
g2
S'../../../data/emanuela/activity-recognition/images/NTCIR-Lifelog-256/u3/2015-07-12/b00002027_21i79q_20150712_175406e.jpg'
p976
sg4
(lp977
(g15
g6
(g18
S'BMV?'
p978
tp979
Rp980
tp981
a(g32
g6
(g18
S'-*%>'
p982
tp983
Rp984
tp985
a(g166
g6
(g18
S'\x84+\x04:'
p986
tp987
Rp988
tp989
a(g44
g6
(g18
S'\xf2\xe1\xc19'
p990
tp991
Rp992
tp993
a(g108
g6
(g18
S'\xdf\n\x839'
p994
tp995
Rp996
tp997
asg73
g15
sa(dp998
g2
S'../../../data/emanuela/activity-recognition/images/NTCIR-Lifelog-256/u1/2015-02-24/b00001377_21i6bq_20150224_204037e.jpg'
p999
sg4
(lp1000
(g205
g6
(g18
S';\xe2p?'
p1001
tp1002
Rp1003
tp1004
a(g15
g6
(g18
S'=n\x9c<'
p1005
tp1006
Rp1007
tp1008
a(g32
g6
(g18
S"'\xd0\x1f<"
p1009
tp1010
Rp1011
tp1012
a(g348
g6
(g18
S'\x88"\xc0;'
p1013
tp1014
Rp1015
tp1016
a(g294
g6
(g18
S'\x06\xb8\xa7;'
p1017
tp1018
Rp1019
tp1020
asg73
g15
sa(dp1021
g2
S'../../../data/emanuela/activity-recognition/images/NTCIR-Lifelog-256/u1/2015-03-02/b00001150_21i6bq_20150302_190854e.jpg'
p1022
sg4
(lp1023
(g15
g6
(g18
S'/@\xe4>'
p1024
tp1025
Rp1026
tp1027
a(g56
g6
(g18
S'\xc7,p>'
p1028
tp1029
Rp1030
tp1031
a(g32
g6
(g18
S'\x82\x0f!>'
p1032
tp1033
Rp1034
tp1035
a(g135
g6
(g18
S'\xd7v\x87='
p1036
tp1037
Rp1038
tp1039
a(g44
g6
(g18
S'x\xa9\x9a<'
p1040
tp1041
Rp1042
tp1043
asg73
g15
sa(dp1044
g2
S'../../../data/emanuela/activity-recognition/images/NTCIR-Lifelog-256/u1/2015-03-14/b00000225_21i6bq_20150314_082322e.jpg'
p1045
sg4
(lp1046
(g15
g6
(g18
S'i\x04M?'
p1047
tp1048
Rp1049
tp1050
a(g108
g6
(g18
S'*\x9b#>'
p1051
tp1052
Rp1053
tp1054
a(g32
g6
(g18
S'6\xb0\xaa<'
p1055
tp1056
Rp1057
tp1058
a(g44
g6
(g18
S'\x8e\xe5h;'
p1059
tp1060
Rp1061
tp1062
a(g166
g6
(g18
S'\xb7fY;'
p1063
tp1064
Rp1065
tp1066
asg73
g15
sa(dp1067
g2
S'../../../data/emanuela/activity-recognition/images/NTCIR-Lifelog-256/u2/2015-04-30/b00001571_21i7lf_20150430_191557e.jpg'
p1068
sg4
(lp1069
(g15
g6
(g18
S'\xbd\xef}?'
p1070
tp1071
Rp1072
tp1073
a(g32
g6
(g18
S',#\xf0;'
p1074
tp1075
Rp1076
tp1077
a(g56
g6
(g18
S'u|K9'
p1078
tp1079
Rp1080
tp1081
a(g251
g6
(g18
S'\xe3D\xd08'
p1082
tp1083
Rp1084
tp1085
a(g68
g6
(g18
S'\x12\x15\x9f8'
p1086
tp1087
Rp1088
tp1089
asg73
g15
sa(dp1090
g2
S'../../../data/emanuela/activity-recognition/images/NTCIR-Lifelog-256/u1/2015-03-16/b00002273_21i6bq_20150316_144407e.jpg'
p1091
sg4
(lp1092
(g15
g6
(g18
S'\n~\x7f?'
p1093
tp1094
Rp1095
tp1096
a(g32
g6
(g18
S'\xd6\xd9\xac:'
p1097
tp1098
Rp1099
tp1100
a(g205
g6
(g18
S'\xb6\x07\x839'
p1101
tp1102
Rp1103
tp1104
a(g251
g6
(g18
S'\x8bc\x189'
p1105
tp1106
Rp1107
tp1108
a(g108
g6
(g18
S'\xfc\x0e\xef8'
p1109
tp1110
Rp1111
tp1112
asg73
g15
sa(dp1113
g2
S'../../../data/emanuela/activity-recognition/images/NTCIR-Lifelog-256/u2/2015-04-29/b00000283_21i7lf_20150429_195554e.jpg'
p1114
sg4
(lp1115
(g15
g6
(g18
S'd\xf6Q?'
p1116
tp1117
Rp1118
tp1119
a(g32
g6
(g18
S'\xb8A\x06>'
p1120
tp1121
Rp1122
tp1123
a(g108
g6
(g18
S'J+\xc8<'
p1124
tp1125
Rp1126
tp1127
a(g56
g6
(g18
S'\\\xae\xc6;'
p1128
tp1129
Rp1130
tp1131
a(g166
g6
(g18
S'\xa5vm;'
p1132
tp1133
Rp1134
tp1135
asg73
g15
sa(dp1136
g2
S'../../../data/emanuela/activity-recognition/images/NTCIR-Lifelog-256/u3/2015-06-24/b00000781_21i79q_20150624_165503e.jpg'
p1137
sg4
(lp1138
(g15
g6
(g18
S'FR_?'
p1139
tp1140
Rp1141
tp1142
a(g32
g6
(g18
S'4;\xb6='
p1143
tp1144
Rp1145
tp1146
a(g348
g6
(g18
S'\x87\xf3\x0b<'
p1147
tp1148
Rp1149
tp1150
a(g108
g6
(g18
S'q\x19\x03<'
p1151
tp1152
Rp1153
tp1154
a(g56
g6
(g18
S'\xeb9\xbf;'
p1155
tp1156
Rp1157
tp1158
asg73
g15
sa(dp1159
g2
S'../../../data/emanuela/activity-recognition/images/NTCIR-Lifelog-256/u3/2015-07-11/b00000457_21i79q_20150711_111340e.jpg'
p1160
sg4
(lp1161
(g15
g6
(g18
S'C\xbcW?'
p1162
tp1163
Rp1164
tp1165
a(g108
g6
(g18
S"\xa8\x0c'="
p1166
tp1167
Rp1168
tp1169
a(g348
g6
(g18
S'm\xcc\xca<'
p1170
tp1171
Rp1172
tp1173
a(g96
g6
(g18
S'\x92[v<'
p1174
tp1175
Rp1176
tp1177
a(g189
g6
(g18
S'Dy\\<'
p1178
tp1179
Rp1180
tp1181
asg73
g15
sa(dp1182
g2
S'../../../data/emanuela/activity-recognition/images/NTCIR-Lifelog-256/u2/2015-06-19/b00003543_21i7lf_20150619_115101e.jpg'
p1183
sg4
(lp1184
(g108
g6
(g18
S'\xf5\x13\xa5>'
p1185
tp1186
Rp1187
tp1188
a(g15
g6
(g18
S'\x96\t\x8b>'
p1189
tp1190
Rp1191
tp1192
a(g166
g6
(g18
S'd\x84\x7f>'
p1193
tp1194
Rp1195
tp1196
a(g32
g6
(g18
S'\xfb\x81\x1f='
p1197
tp1198
Rp1199
tp1200
a(g294
g6
(g18
S'\x14\xb1\xf8<'
p1201
tp1202
Rp1203
tp1204
asg73
g15
sa(dp1205
g2
S'../../../data/emanuela/activity-recognition/images/NTCIR-Lifelog-256/u2/2015-04-24/b00002350_21i7lf_20150424_132855e.jpg'
p1206
sg4
(lp1207
(g15
g6
(g18
S'\xd1JC?'
p1208
tp1209
Rp1210
tp1211
a(g251
g6
(g18
S'sI^>'
p1212
tp1213
Rp1214
tp1215
a(g135
g6
(g18
S'#\xf4w;'
p1216
tp1217
Rp1218
tp1219
a(g32
g6
(g18
S'\xd3\x14c;'
p1220
tp1221
Rp1222
tp1223
a(g56
g6
(g18
S'T\x0bb;'
p1224
tp1225
Rp1226
tp1227
asg73
g15
sa(dp1228
g2
S'../../../data/emanuela/activity-recognition/images/NTCIR-Lifelog-256/u2/2015-04-22/b00001365_21i7lf_20150422_122852e.jpg'
p1229
sg4
(lp1230
(g15
g6
(g18
S'\xd9n[?'
p1231
tp1232
Rp1233
tp1234
a(g251
g6
(g18
S'uw\x0c>'
p1235
tp1236
Rp1237
tp1238
a(g205
g6
(g18
S'\x03\xdf\xfe:'
p1239
tp1240
Rp1241
tp1242
a(g32
g6
(g18
S'\xbcm\x9b:'
p1243
tp1244
Rp1245
tp1246
a(g68
g6
(g18
S'\xd3*F:'
p1247
tp1248
Rp1249
tp1250
asg73
g15
sa(dp1251
g2
S'../../../data/emanuela/activity-recognition/images/NTCIR-Lifelog-256/u2/2015-06-17/b00002322_21i7lf_20150617_123512e.jpg'
p1252
sg4
(lp1253
(g15
g6
(g18
S'\xc4\xc9W?'
p1254
tp1255
Rp1256
tp1257
a(g32
g6
(g18
S'\x87Z\x12>'
p1258
tp1259
Rp1260
tp1261
a(g108
g6
(g18
S'\tZ3<'
p1262
tp1263
Rp1264
tp1265
a(g166
g6
(g18
S'\xa5v\x19;'
p1266
tp1267
Rp1268
tp1269
a(g68
g6
(g18
S'\xe3\x9d\xee9'
p1270
tp1271
Rp1272
tp1273
asg73
g15
sa(dp1274
g2
S'../../../data/emanuela/activity-recognition/images/NTCIR-Lifelog-256/u1/2015-03-08/b00000040_21i6bq_20150308_082516e.jpg'
p1275
sg4
(lp1276
(g15
g6
(g18
S'\x9fwX?'
p1277
tp1278
Rp1279
tp1280
a(g32
g6
(g18
S'k\xe1\x1c>'
p1281
tp1282
Rp1283
tp1284
a(g108
g6
(g18
S'D\x99\x969'
p1285
tp1286
Rp1287
tp1288
a(g44
g6
(g18
S'+\x0el9'
p1289
tp1290
Rp1291
tp1292
a(g56
g6
(g18
S's\xbfM9'
p1293
tp1294
Rp1295
tp1296
asg73
g15
sa(dp1297
g2
S'../../../data/emanuela/activity-recognition/images/NTCIR-Lifelog-256/u3/2015-07-01/b00000827_21i79q_20150701_202512e.jpg'
p1298
sg4
(lp1299
(g15
g6
(g18
S'>\x17\xf0>'
p1300
tp1301
Rp1302
tp1303
a(g32
g6
(g18
S'\xe9:\x9b>'
p1304
tp1305
Rp1306
tp1307
a(g108
g6
(g18
S'\x004\xfa='
p1308
tp1309
Rp1310
tp1311
a(g166
g6
(g18
S'\xb3\x04\x81='
p1312
tp1313
Rp1314
tp1315
a(g44
g6
(g18
S'Nx\xb4<'
p1316
tp1317
Rp1318
tp1319
asg73
g15
sa(dp1320
g2
S'../../../data/emanuela/activity-recognition/images/NTCIR-Lifelog-256/u2/2015-05-05/b00005981_21i7lf_20150505_184947e.jpg'
p1321
sg4
(lp1322
(g15
g6
(g18
S'I0!?'
p1323
tp1324
Rp1325
tp1326
a(g251
g6
(g18
S'l\xd4\xcc='
p1327
tp1328
Rp1329
tp1330
a(g32
g6
(g18
S'\x14\xd3\xa9='
p1331
tp1332
Rp1333
tp1334
a(g68
g6
(g18
S'\xe4\xbaW='
p1335
tp1336
Rp1337
tp1338
a(g108
g6
(g18
S'o\\\xed<'
p1339
tp1340
Rp1341
tp1342
asg73
g15
sa(dp1343
g2
S'../../../data/emanuela/activity-recognition/images/NTCIR-Lifelog-256/u2/2015-06-21/b00004992_21i7lf_20150621_113716e.jpg'
p1344
sg4
(lp1345
(g108
g6
(g18
S'7\xbf\xc0>'
p1346
tp1347
Rp1348
tp1349
a(g15
g6
(g18
S'16N>'
p1350
tp1351
Rp1352
tp1353
a(g348
g6
(g18
S')8\x17>'
p1354
tp1355
Rp1356
tp1357
a(g32
g6
(g18
S'\xa0\x89U='
p1358
tp1359
Rp1360
tp1361
a(g166
g6
(g18
S'\x8d,D='
p1362
tp1363
Rp1364
tp1365
asg73
g15
sa(dp1366
g2
S'../../../data/emanuela/activity-recognition/images/NTCIR-Lifelog-256/u1/2015-03-16/b00002284_21i6bq_20150316_145042e.jpg'
p1367
sg4
(lp1368
(g15
g6
(g18
S'\x02\xd0}?'
p1369
tp1370
Rp1371
tp1372
a(g32
g6
(g18
S'\xd9\xc1\xf0;'
p1373
tp1374
Rp1375
tp1376
a(g108
g6
(g18
S'_\xf6\xdb9'
p1377
tp1378
Rp1379
tp1380
a(g205
g6
(g18
S'\x02\xae\x809'
p1381
tp1382
Rp1383
tp1384
a(g166
g6
(g18
S'\xcc\xcdy9'
p1385
tp1386
Rp1387
tp1388
asg73
g15
sa(dp1389
g2
S'../../../data/emanuela/activity-recognition/images/NTCIR-Lifelog-256/u1/2015-03-08/b00000042_21i6bq_20150308_082618e.jpg'
p1390
sg4
(lp1391
(g15
g6
(g18
S'\xcf"G?'
p1392
tp1393
Rp1394
tp1395
a(g32
g6
(g18
S'm\xdcX>'
p1396
tp1397
Rp1398
tp1399
a(g847
g6
(g18
S'\xa3\x86\x8a;'
p1400
tp1401
Rp1402
tp1403
a(g108
g6
(g18
S'\x8b6\x04;'
p1404
tp1405
Rp1406
tp1407
a(g166
g6
(g18
S'\xcdE\xc4:'
p1408
tp1409
Rp1410
tp1411
asg73
g15
sa(dp1412
g2
S'../../../data/emanuela/activity-recognition/images/NTCIR-Lifelog-256/u2/2015-04-20/b00001063_21i7lf_20150420_203313e.jpg'
p1413
sg4
(lp1414
(g15
g6
(g18
S'pcz?'
p1415
tp1416
Rp1417
tp1418
a(g32
g6
(g18
S'\xb2\x91\xae<'
p1419
tp1420
Rp1421
tp1422
a(g108
g6
(g18
S'Q\xd0\x149'
p1423
tp1424
Rp1425
tp1426
a(g44
g6
(g18
S'pu\x0e9'
p1427
tp1428
Rp1429
tp1430
a(g68
g6
(g18
S'-\x80\xff8'
p1431
tp1432
Rp1433
tp1434
asg73
g15
sa(dp1435
g2
S'../../../data/emanuela/activity-recognition/images/NTCIR-Lifelog-256/u1/2015-02-23/b00000030_21i6bq_20150223_072014e.jpg'
p1436
sg4
(lp1437
(g68
g6
(g18
S'!\xdc1>'
p1438
tp1439
Rp1440
tp1441
a(g166
g6
(g18
S'\x84\xb81>'
p1442
tp1443
Rp1444
tp1445
a(g847
g6
(g18
S'T\x84/>'
p1446
tp1447
Rp1448
tp1449
a(g205
g6
(g18
S'\xf8z\x13>'
p1450
tp1451
Rp1452
tp1453
a(g15
g6
(g18
S'\xc9}\xd9='
p1454
tp1455
Rp1456
tp1457
asg73
g15
sa(dp1458
g2
S'../../../data/emanuela/activity-recognition/images/NTCIR-Lifelog-256/u3/2015-07-11/b00000964_21i79q_20150711_160041e.jpg'
p1459
sg4
(lp1460
(g108
g6
(g18
S'Q\x00\x16?'
p1461
tp1462
Rp1463
tp1464
a(g15
g6
(g18
S'\xef\x9b\xc9>'
p1465
tp1466
Rp1467
tp1468
a(g32
g6
(g18
S'Ab\x03<'
p1469
tp1470
Rp1471
tp1472
a(g189
g6
(g18
S'y\x8aH;'
p1473
tp1474
Rp1475
tp1476
a(g166
g6
(g18
S'd=:;'
p1477
tp1478
Rp1479
tp1480
asg73
g15
sa(dp1481
g2
S'../../../data/emanuela/activity-recognition/images/NTCIR-Lifelog-256/u1/2015-03-08/b00000021_21i6bq_20150308_081336e.jpg'
p1482
sg4
(lp1483
(g15
g6
(g18
S'\xf8\x91\t?'
p1484
tp1485
Rp1486
tp1487
a(g32
g6
(g18
S'\x93\x8f\xd8>'
p1488
tp1489
Rp1490
tp1491
a(g108
g6
(g18
S'p\xf1\x8a<'
p1492
tp1493
Rp1494
tp1495
a(g166
g6
(g18
S'\x1b\xdeP<'
p1496
tp1497
Rp1498
tp1499
a(g847
g6
(g18
S'\xbdV\x97;'
p1500
tp1501
Rp1502
tp1503
asg73
g15
sa(dp1504
g2
S'../../../data/emanuela/activity-recognition/images/NTCIR-Lifelog-256/u3/2015-07-22/b00000498_21i79q_20150722_145312e.jpg'
p1505
sg4
(lp1506
(g15
g6
(g18
S'\x9ad;?'
p1507
tp1508
Rp1509
tp1510
a(g32
g6
(g18
S'\xfd(\x89>'
p1511
tp1512
Rp1513
tp1514
a(g44
g6
(g18
S'kn\n8'
p1515
tp1516
Rp1517
tp1518
a(g166
g6
(g18
S'Z\xc2\x907'
p1519
tp1520
Rp1521
tp1522
a(g56
g6
(g18
S'\t\xba\x877'
p1523
tp1524
Rp1525
tp1526
asg73
g15
sa(dp1527
g2
S'../../../data/emanuela/activity-recognition/images/NTCIR-Lifelog-256/u3/2015-07-25/b00001516_21i79q_20150725_183516e.jpg'
p1528
sg4
(lp1529
(g15
g6
(g18
S'`\xf0I?'
p1530
tp1531
Rp1532
tp1533
a(g6
(g7
(S'S15'
p1534
I0
I1
tp1535
Rp1536
(I3
S'|'
p1537
NNNI15
I1
I0
tp1538
bS'walking outdoor'
p1539
tp1540
Rp1541
g6
(g18
S'\xd5b\x0c>'
p1542
tp1543
Rp1544
tp1545
a(g108
g6
(g18
S'c\x96\xac<'
p1546
tp1547
Rp1548
tp1549
a(g348
g6
(g18
S'-|\xa9<'
p1550
tp1551
Rp1552
tp1553
a(g166
g6
(g18
S'wz[<'
p1554
tp1555
Rp1556
tp1557
asg73
g15
sa(dp1558
g2
S'../../../data/emanuela/activity-recognition/images/NTCIR-Lifelog-256/u3/2015-07-30/b00005298_21i79q_20150730_145935e.jpg'
p1559
sg4
(lp1560
(g15
g6
(g18
S'p\x94S?'
p1561
tp1562
Rp1563
tp1564
a(g251
g6
(g18
S'[&\xf2<'
p1565
tp1566
Rp1567
tp1568
a(g108
g6
(g18
S'WS\xf0<'
p1569
tp1570
Rp1571
tp1572
a(g205
g6
(g18
S'\n\x96\xd0<'
p1573
tp1574
Rp1575
tp1576
a(g348
g6
(g18
S'\x9d\xf5\xbe<'
p1577
tp1578
Rp1579
tp1580
asg73
g15
sa(dp1581
g2
S'../../../data/emanuela/activity-recognition/images/NTCIR-Lifelog-256/u2/2015-05-08/b00009675_21i7lf_20150508_202349e.jpg'
p1582
sg4
(lp1583
(g15
g6
(g18
S'<\x06G?'
p1584
tp1585
Rp1586
tp1587
a(g847
g6
(g18
S'\x90\xea\x17>'
p1588
tp1589
Rp1590
tp1591
a(g68
g6
(g18
S'\x94!\x92<'
p1592
tp1593
Rp1594
tp1595
a(g32
g6
(g18
S'\x82\xdd\x89<'
p1596
tp1597
Rp1598
tp1599
a(g251
g6
(g18
S'\xccTU<'
p1600
tp1601
Rp1602
tp1603
asg73
g15
sa(dp1604
g2
S'../../../data/emanuela/activity-recognition/images/NTCIR-Lifelog-256/u3/2015-07-24/b00000486_21i79q_20150724_160915e.jpg'
p1605
sg4
(lp1606
(g15
g6
(g18
S'\xb4\xa0\x1e?'
p1607
tp1608
Rp1609
tp1610
a(g108
g6
(g18
S'\xe8#r>'
p1611
tp1612
Rp1613
tp1614
a(g166
g6
(g18
S'\x8d\xba\xc6='
p1615
tp1616
Rp1617
tp1618
a(g32
g6
(g18
S'\xb5\x1d\x1e='
p1619
tp1620
Rp1621
tp1622
a(g68
g6
(g18
S'\x02\xf0h;'
p1623
tp1624
Rp1625
tp1626
asg73
g15
sa(dp1627
g2
S'../../../data/emanuela/activity-recognition/images/NTCIR-Lifelog-256/u3/2015-07-17/b00000049_21i79q_20150717_141206e.jpg'
p1628
sg4
(lp1629
(g15
g6
(g18
S'\x88)o?'
p1630
tp1631
Rp1632
tp1633
a(g251
g6
(g18
S'\x10g\xdc<'
p1634
tp1635
Rp1636
tp1637
a(g32
g6
(g18
S'a\xddg<'
p1638
tp1639
Rp1640
tp1641
a(g205
g6
(g18
S'J\xc0&<'
p1642
tp1643
Rp1644
tp1645
a(g348
g6
(g18
S'\xf8\x04\xff;'
p1646
tp1647
Rp1648
tp1649
asg73
g15
sa(dp1650
g2
S'../../../data/emanuela/activity-recognition/images/NTCIR-Lifelog-256/u1/2015-03-02/b00001142_21i6bq_20150302_190237e.jpg'
p1651
sg4
(lp1652
(g847
g6
(g18
S'\xdaD\x9b>'
p1653
tp1654
Rp1655
tp1656
a(g15
g6
(g18
S'\tM\xd8='
p1657
tp1658
Rp1659
tp1660
a(g135
g6
(g18
S'\x19a\xcb='
p1661
tp1662
Rp1663
tp1664
a(g96
g6
(g18
S'\xd8\x0f\xb1='
p1665
tp1666
Rp1667
tp1668
a(g108
g6
(g18
S'\t\x02\xa8='
p1669
tp1670
Rp1671
tp1672
asg73
g15
sa(dp1673
g2
S'../../../data/emanuela/activity-recognition/images/NTCIR-Lifelog-256/u3/2015-07-24/b00000475_21i79q_20150724_160236e.jpg'
p1674
sg4
(lp1675
(g15
g6
(g18
S'\x0b\xe3G?'
p1676
tp1677
Rp1678
tp1679
a(g32
g6
(g18
S'\xa8\xbfZ>'
p1680
tp1681
Rp1682
tp1683
a(g108
g6
(g18
S'\xf0v%;'
p1684
tp1685
Rp1686
tp1687
a(g166
g6
(g18
S'I\xac\xa4:'
p1688
tp1689
Rp1690
tp1691
a(g205
g6
(g18
S'\x9a\xd1\xd79'
p1692
tp1693
Rp1694
tp1695
asg73
g15
sa(dp1696
g2
S'../../../data/emanuela/activity-recognition/images/NTCIR-Lifelog-256/u3/2015-06-28/b00000069_21i79q_20150628_150835e.jpg'
p1697
sg4
(lp1698
(g15
g6
(g18
S'\x1a"V?'
p1699
tp1700
Rp1701
tp1702
a(g108
g6
(g18
S'\xec\xe6n='
p1703
tp1704
Rp1705
tp1706
a(g189
g6
(g18
S'l\xc7\x0e='
p1707
tp1708
Rp1709
tp1710
a(g32
g6
(g18
S'\x81\xa5\xd7<'
p1711
tp1712
Rp1713
tp1714
a(g166
g6
(g18
S'/\xab\xbc<'
p1715
tp1716
Rp1717
tp1718
asg73
g15
sa(dp1719
g2
S'../../../data/emanuela/activity-recognition/images/NTCIR-Lifelog-256/u3/2015-06-28/b00000056_21i79q_20150628_150125e.jpg'
p1720
sg4
(lp1721
(g15
g6
(g18
S'\xb2\x03\\?'
p1722
tp1723
Rp1724
tp1725
a(g189
g6
(g18
S'\x8e\xd9\x84='
p1726
tp1727
Rp1728
tp1729
a(g166
g6
(g18
S')L\xb9<'
p1730
tp1731
Rp1732
tp1733
a(g205
g6
(g18
S'\xa5\xbb\xab<'
p1734
tp1735
Rp1736
tp1737
a(g108
g6
(g18
S'\xac\x9a\x8c<'
p1738
tp1739
Rp1740
tp1741
asg73
g15
sa(dp1742
g2
S'../../../data/emanuela/activity-recognition/images/NTCIR-Lifelog-256/u1/2015-03-02/b00000047_21i6bq_20150302_070237e.jpg'
p1743
sg4
(lp1744
(g15
g6
(g18
S'c\xb0\x7f?'
p1745
tp1746
Rp1747
tp1748
a(g32
g6
(g18
S'\xa9\xcf7:'
p1749
tp1750
Rp1751
tp1752
a(g68
g6
(g18
S'\x87\xb1\x979'
p1753
tp1754
Rp1755
tp1756
a(g56
g6
(g18
S'p\xac+9'
p1757
tp1758
Rp1759
tp1760
a(g44
g6
(g18
S'\x03Z\x8f7'
p1761
tp1762
Rp1763
tp1764
asg73
g15
sa(dp1765
g2
S'../../../data/emanuela/activity-recognition/images/NTCIR-Lifelog-256/u2/2015-04-20/b00000125_21i7lf_20150420_105156e.jpg'
p1766
sg4
(lp1767
(g15
g6
(g18
S'\xfbcd>'
p1768
tp1769
Rp1770
tp1771
a(g135
g6
(g18
S'@\x8fZ>'
p1772
tp1773
Rp1774
tp1775
a(g251
g6
(g18
S'F\xa9\xe9='
p1776
tp1777
Rp1778
tp1779
a(g205
g6
(g18
S'\xedb\xa9='
p1780
tp1781
Rp1782
tp1783
a(g96
g6
(g18
S'\xb4\xab\xa7='
p1784
tp1785
Rp1786
tp1787
asg73
g15
sa(dp1788
g2
S'../../../data/emanuela/activity-recognition/images/NTCIR-Lifelog-256/u3/2015-06-28/b00000356_21i79q_20150628_175321e.jpg'
p1789
sg4
(lp1790
(g108
g6
(g18
S'{\xba\x17?'
p1791
tp1792
Rp1793
tp1794
a(g15
g6
(g18
S'cR\xb5>'
p1795
tp1796
Rp1797
tp1798
a(g32
g6
(g18
S'e\xf4\x03='
p1799
tp1800
Rp1801
tp1802
a(g166
g6
(g18
S'_\xc9\x1d<'
p1803
tp1804
Rp1805
tp1806
a(g205
g6
(g18
S'\r1\xc8:'
p1807
tp1808
Rp1809
tp1810
asg73
g15
sa(dp1811
g2
S'../../../data/emanuela/activity-recognition/images/NTCIR-Lifelog-256/u1/2015-03-04/b00000517_21i6bq_20150304_120948e.jpg'
p1812
sg4
(lp1813
(g15
g6
(g18
S'7\xb4R?'
p1814
tp1815
Rp1816
tp1817
a(g32
g6
(g18
S'R\x811>'
p1818
tp1819
Rp1820
tp1821
a(g166
g6
(g18
S'\xef{\xbf:'
p1822
tp1823
Rp1824
tp1825
a(g108
g6
(g18
S'5\n :'
p1826
tp1827
Rp1828
tp1829
a(g44
g6
(g18
S'\xc4\x9d\xda9'
p1830
tp1831
Rp1832
tp1833
asg73
g15
sa(dp1834
g2
S'../../../data/emanuela/activity-recognition/images/NTCIR-Lifelog-256/u3/2015-07-23/b00000271_21i79q_20150723_152027e.jpg'
p1835
sg4
(lp1836
(g15
g6
(g18
S'\xb6\xacz?'
p1837
tp1838
Rp1839
tp1840
a(g32
g6
(g18
S'\xcbX~<'
p1841
tp1842
Rp1843
tp1844
a(g56
g6
(g18
S' \xe7\xb1:'
p1845
tp1846
Rp1847
tp1848
a(g108
g6
(g18
S' /\x9d:'
p1849
tp1850
Rp1851
tp1852
a(g68
g6
(g18
S'\xe2\xab\x8b:'
p1853
tp1854
Rp1855
tp1856
asg73
g15
sa(dp1857
g2
S'../../../data/emanuela/activity-recognition/images/NTCIR-Lifelog-256/u2/2015-06-21/b00004982_21i7lf_20150621_113039e.jpg'
p1858
sg4
(lp1859
(g44
g6
(g18
S'\x08\xb5\xc6>'
p1860
tp1861
Rp1862
tp1863
a(g108
g6
(g18
S'\xe5\xf5\x94>'
p1864
tp1865
Rp1866
tp1867
a(g96
g6
(g18
S'W>\xf4='
p1868
tp1869
Rp1870
tp1871
a(g6
(g7
(S'S16'
p1872
I0
I1
tp1873
Rp1874
(I3
S'|'
p1875
NNNI16
I1
I0
tp1876
bS'public transport'
p1877
tp1878
Rp1879
g6
(g18
S'0\xf0\x99='
p1880
tp1881
Rp1882
tp1883
a(g15
g6
(g18
S'-\xa4f='
p1884
tp1885
Rp1886
tp1887
asg73
g15
sa(dp1888
g2
S'../../../data/emanuela/activity-recognition/images/NTCIR-Lifelog-256/u1/2015-03-02/b00000058_21i6bq_20150302_070913e.jpg'
p1889
sg4
(lp1890
(g15
g6
(g18
S'\xda\x08T?'
p1891
tp1892
Rp1893
tp1894
a(g68
g6
(g18
S'\x98\xb5\xf6='
p1895
tp1896
Rp1897
tp1898
a(g135
g6
(g18
S'TCT<'
p1899
tp1900
Rp1901
tp1902
a(g251
g6
(g18
S'\xeb\xfd\x13<'
p1903
tp1904
Rp1905
tp1906
a(g847
g6
(g18
S'\xad\x0c\xbd;'
p1907
tp1908
Rp1909
tp1910
asg73
g15
sa(dp1911
g2
S'../../../data/emanuela/activity-recognition/images/NTCIR-Lifelog-256/u1/2015-03-01/b00000099_21i6bq_20150301_075516e.jpg'
p1912
sg4
(lp1913
(g15
g6
(g18
S' \x13|?'
p1914
tp1915
Rp1916
tp1917
a(g68
g6
(g18
S'\xb7\x95P<'
p1918
tp1919
Rp1920
tp1921
a(g32
g6
(g18
S'\x03\x80\xab:'
p1922
tp1923
Rp1924
tp1925
a(g166
g6
(g18
S'\x0f\xc2\xe79'
p1926
tp1927
Rp1928
tp1929
a(g251
g6
(g18
S'V\x8b\xcf9'
p1930
tp1931
Rp1932
tp1933
asg73
g15
sa(dp1934
g2
S'../../../data/emanuela/activity-recognition/images/NTCIR-Lifelog-256/u2/2015-06-17/b00002303_21i7lf_20150617_122309e.jpg'
p1935
sg4
(lp1936
(g108
g6
(g18
S'\x1e\xfd1?'
p1937
tp1938
Rp1939
tp1940
a(g166
g6
(g18
S'\r\xd1\x89>'
p1941
tp1942
Rp1943
tp1944
a(g15
g6
(g18
S'\xd3:2<'
p1945
tp1946
Rp1947
tp1948
a(g68
g6
(g18
S'\xe4U\xe3;'
p1949
tp1950
Rp1951
tp1952
a(g32
g6
(g18
S'\x96\x0f\xbf;'
p1953
tp1954
Rp1955
tp1956
asg73
g15
sa(dp1957
g2
S'../../../data/emanuela/activity-recognition/images/NTCIR-Lifelog-256/u1/2015-02-23/b00001027_21i6bq_20150223_181924e.jpg'
p1958
sg4
(lp1959
(g15
g6
(g18
S'\xcc\x83~?'
p1960
tp1961
Rp1962
tp1963
a(g68
g6
(g18
S'L\x1d\xbb;'
p1964
tp1965
Rp1966
tp1967
a(g32
g6
(g18
S'\xd3a\x9b8'
p1968
tp1969
Rp1970
tp1971
a(g56
g6
(g18
S'\x18\\\xf16'
p1972
tp1973
Rp1974
tp1975
a(g135
g6
(g18
S'\x010m6'
p1976
tp1977
Rp1978
tp1979
asg73
g15
sa(dp1980
g2
S'../../../data/emanuela/activity-recognition/images/NTCIR-Lifelog-256/u1/2015-03-07/b00000517_21i6bq_20150307_115155e.jpg'
p1981
sg4
(lp1982
(g15
g6
(g18
S'\xe7\xe5L?'
p1983
tp1984
Rp1985
tp1986
a(g32
g6
(g18
S'\xf0\xfa\xfb='
p1987
tp1988
Rp1989
tp1990
a(g108
g6
(g18
S'Z\xbdF='
p1991
tp1992
Rp1993
tp1994
a(g166
g6
(g18
S'-\xeb\xfe;'
p1995
tp1996
Rp1997
tp1998
a(g68
g6
(g18
S'IL\xb3;'
p1999
tp2000
Rp2001
tp2002
asg73
g15
sa(dp2003
g2
S'../../../data/emanuela/activity-recognition/images/NTCIR-Lifelog-256/u1/2015-03-11/b00000596_21i6bq_20150311_125949e.jpg'
p2004
sg4
(lp2005
(g15
g6
(g18
S'lz\xb8>'
p2006
tp2007
Rp2008
tp2009
a(g205
g6
(g18
S'\xfd?+>'
p2010
tp2011
Rp2012
tp2013
a(g954
g6
(g18
S'+\xc4\x10>'
p2014
tp2015
Rp2016
tp2017
a(g348
g6
(g18
S'\x04Ue='
p2018
tp2019
Rp2020
tp2021
a(g294
g6
(g18
S'\x87\xff/='
p2022
tp2023
Rp2024
tp2025
asg73
g15
sa(dp2026
g2
S'../../../data/emanuela/activity-recognition/images/NTCIR-Lifelog-256/u2/2015-04-24/b00002352_21i7lf_20150424_133003e.jpg'
p2027
sg4
(lp2028
(g251
g6
(g18
S'\xd2f\xf2>'
p2029
tp2030
Rp2031
tp2032
a(g205
g6
(g18
S'\x06\xff\xc5>'
p2033
tp2034
Rp2035
tp2036
a(g348
g6
(g18
S'\xc6\x93\x92='
p2037
tp2038
Rp2039
tp2040
a(g15
g6
(g18
S'\x8c\x1d)='
p2041
tp2042
Rp2043
tp2044
a(g294
g6
(g18
S'\xeci\xf4;'
p2045
tp2046
Rp2047
tp2048
asg73
g15
sa(dp2049
g2
S'../../../data/emanuela/activity-recognition/images/NTCIR-Lifelog-256/u3/2015-06-28/b00000013_21i79q_20150628_143714e.jpg'
p2050
sg4
(lp2051
(g15
g6
(g18
S'=\xf1t?'
p2052
tp2053
Rp2054
tp2055
a(g166
g6
(g18
S'NJS<'
p2056
tp2057
Rp2058
tp2059
a(g108
g6
(g18
S'\r3@<'
p2060
tp2061
Rp2062
tp2063
a(g189
g6
(g18
S'\xa2\xb6-<'
p2064
tp2065
Rp2066
tp2067
a(g32
g6
(g18
S'P$G;'
p2068
tp2069
Rp2070
tp2071
asg73
g15
sa(dp2072
g2
S'../../../data/emanuela/activity-recognition/images/NTCIR-Lifelog-256/u3/2015-06-28/b00000065_21i79q_20150628_150623e.jpg'
p2073
sg4
(lp2074
(g15
g6
(g18
S'*\xf1g?'
p2075
tp2076
Rp2077
tp2078
a(g189
g6
(g18
S'\xf7CA='
p2079
tp2080
Rp2081
tp2082
a(g108
g6
(g18
S'\xb9%\x9f<'
p2083
tp2084
Rp2085
tp2086
a(g32
g6
(g18
S'>A\x1e<'
p2087
tp2088
Rp2089
tp2090
a(g166
g6
(g18
S'\xb9"\n<'
p2091
tp2092
Rp2093
tp2094
asg73
g15
sa(dp2095
g2
S'../../../data/emanuela/activity-recognition/images/NTCIR-Lifelog-256/u3/2015-07-30/b00005296_21i79q_20150730_145829e.jpg'
p2096
sg4
(lp2097
(g15
g6
(g18
S'R\rZ?'
p2098
tp2099
Rp2100
tp2101
a(g251
g6
(g18
S'\xdfM\xba='
p2102
tp2103
Rp2104
tp2105
a(g68
g6
(g18
S'\\\x7f\x03='
p2106
tp2107
Rp2108
tp2109
a(g294
g6
(g18
S'\xdf1\xc1;'
p2110
tp2111
Rp2112
tp2113
a(g205
g6
(g18
S'\xb77\x86;'
p2114
tp2115
Rp2116
tp2117
asg73
g15
sa(dp2118
g2
S'../../../data/emanuela/activity-recognition/images/NTCIR-Lifelog-256/u1/2015-03-06/b00001379_21i6bq_20150306_193757e.jpg'
p2119
sg4
(lp2120
(g32
g6
(g18
S'O6\x0e?'
p2121
tp2122
Rp2123
tp2124
a(g15
g6
(g18
S'e\xdf\xd4>'
p2125
tp2126
Rp2127
tp2128
a(g108
g6
(g18
S'\xf9\xca\xde<'
p2129
tp2130
Rp2131
tp2132
a(g166
g6
(g18
S'O]+:'
p2133
tp2134
Rp2135
tp2136
a(g44
g6
(g18
S'MG\xea9'
p2137
tp2138
Rp2139
tp2140
asg73
g15
sa(dp2141
g2
S'../../../data/emanuela/activity-recognition/images/NTCIR-Lifelog-256/u3/2015-07-01/b00000452_21i79q_20150701_165011e.jpg'
p2142
sg4
(lp2143
(g348
g6
(g18
S'\xd7\xbb\xd1>'
p2144
tp2145
Rp2146
tp2147
a(g15
g6
(g18
S'\x9cJ~>'
p2148
tp2149
Rp2150
tp2151
a(g32
g6
(g18
S'\xd7\x1c\xd4='
p2152
tp2153
Rp2154
tp2155
a(g1541
g6
(g18
S'\x03\x13,='
p2156
tp2157
Rp2158
tp2159
a(g1879
g6
(g18
S'\xd5\x05\xd2<'
p2160
tp2161
Rp2162
tp2163
asg73
g15
sa(dp2164
g2
S'../../../data/emanuela/activity-recognition/images/NTCIR-Lifelog-256/u2/2015-06-17/b00002320_21i7lf_20150617_123347e.jpg'
p2165
sg4
(lp2166
(g15
g6
(g18
S'\x86Cc?'
p2167
tp2168
Rp2169
tp2170
a(g32
g6
(g18
S'$=\xe0='
p2171
tp2172
Rp2173
tp2174
a(g108
g6
(g18
S'[\xb5\x13;'
p2175
tp2176
Rp2177
tp2178
a(g166
g6
(g18
S'\xb1\xb2 9'
p2179
tp2180
Rp2181
tp2182
a(g56
g6
(g18
S'\x91\xb2\xe18'
p2183
tp2184
Rp2185
tp2186
asg73
g15
sa(dp2187
g2
S'../../../data/emanuela/activity-recognition/images/NTCIR-Lifelog-256/u2/2015-04-20/b00001071_21i7lf_20150420_203807e.jpg'
p2188
sg4
(lp2189
(g15
g6
(g18
S'[ig?'
p2190
tp2191
Rp2192
tp2193
a(g32
g6
(g18
S'\x95\xcd\x7f='
p2194
tp2195
Rp2196
tp2197
a(g108
g6
(g18
S'Bf\x99<'
p2198
tp2199
Rp2200
tp2201
a(g44
g6
(g18
S'<)\x0e;'
p2202
tp2203
Rp2204
tp2205
a(g68
g6
(g18
S'2;\x00;'
p2206
tp2207
Rp2208
tp2209
asg73
g15
sa(dp2210
g2
S'../../../data/emanuela/activity-recognition/images/NTCIR-Lifelog-256/u3/2015-07-13/b00002729_21i79q_20150713_175735e.jpg'
p2211
sg4
(lp2212
(g15
g6
(g18
S'\xd2\xb6q?'
p2213
tp2214
Rp2215
tp2216
a(g32
g6
(g18
S'\x881`='
p2217
tp2218
Rp2219
tp2220
a(g44
g6
(g18
S'\x80\t\x989'
p2221
tp2222
Rp2223
tp2224
a(g56
g6
(g18
S'\x0b\x80b9'
p2225
tp2226
Rp2227
tp2228
a(g68
g6
(g18
S'\xa2\x84N9'
p2229
tp2230
Rp2231
tp2232
asg73
g15
sa(dp2233
g2
S'../../../data/emanuela/activity-recognition/images/NTCIR-Lifelog-256/u3/2015-07-24/b00000837_21i79q_20150724_192752e.jpg'
p2234
sg4
(lp2235
(g166
g6
(g18
S'\xfa`1?'
p2236
tp2237
Rp2238
tp2239
a(g348
g6
(g18
S'\xf6\x02\xb2='
p2240
tp2241
Rp2242
tp2243
a(g1541
g6
(g18
S'n\x90\x14='
p2244
tp2245
Rp2246
tp2247
a(g15
g6
(g18
S'\x0c.\x04='
p2248
tp2249
Rp2250
tp2251
a(g294
g6
(g18
S'\xe3\xf3\x02='
p2252
tp2253
Rp2254
tp2255
asg73
g15
sa(dp2256
g2
S'../../../data/emanuela/activity-recognition/images/NTCIR-Lifelog-256/u2/2015-04-22/b00000619_21i7lf_20150422_190744e.jpg'
p2257
sg4
(lp2258
(g15
g6
(g18
S'\xc9,\xa8>'
p2259
tp2260
Rp2261
tp2262
a(g189
g6
(g18
S'\x1a\xfb=>'
p2263
tp2264
Rp2265
tp2266
a(g108
g6
(g18
S'Z\xaf\x07>'
p2267
tp2268
Rp2269
tp2270
a(g32
g6
(g18
S'\x81H\x85='
p2271
tp2272
Rp2273
tp2274
a(g294
g6
(g18
S'\xf3\xf2\x83='
p2275
tp2276
Rp2277
tp2278
asg73
g15
sa(dp2279
g2
S'../../../data/emanuela/activity-recognition/images/NTCIR-Lifelog-256/u3/2015-06-24/b00001234_21i79q_20150624_213638e.jpg'
p2280
sg4
(lp2281
(g954
g6
(g18
S'c\xaf\xe9>'
p2282
tp2283
Rp2284
tp2285
a(g205
g6
(g18
S'V\x8bh>'
p2286
tp2287
Rp2288
tp2289
a(g294
g6
(g18
S'VB\xb2='
p2290
tp2291
Rp2292
tp2293
a(g348
g6
(g18
S'\xdc\xb9\x8e='
p2294
tp2295
Rp2296
tp2297
a(g68
g6
(g18
S'\xaeW\x1f='
p2298
tp2299
Rp2300
tp2301
asg73
g15
sa(dp2302
g2
S'../../../data/emanuela/activity-recognition/images/NTCIR-Lifelog-256/u2/2015-06-19/b00003281_21i7lf_20150619_085615e.jpg'
p2303
sg4
(lp2304
(g15
g6
(g18
S'\x11\x0f|?'
p2305
tp2306
Rp2307
tp2308
a(g32
g6
(g18
S'=\x89Y<'
p2309
tp2310
Rp2311
tp2312
a(g108
g6
(g18
S'j"\xc7:'
p2313
tp2314
Rp2315
tp2316
a(g56
g6
(g18
S'\x1c\xed\x879'
p2317
tp2318
Rp2319
tp2320
a(g205
g6
(g18
S'e\xab\x0b9'
p2321
tp2322
Rp2323
tp2324
asg73
g15
sa(dp2325
g2
S'../../../data/emanuela/activity-recognition/images/NTCIR-Lifelog-256/u3/2015-07-15/b00000711_21i79q_20150715_190806e.jpg'
p2326
sg4
(lp2327
(g166
g6
(g18
S'P-\xf3>'
p2328
tp2329
Rp2330
tp2331
a(g15
g6
(g18
S'\xde\r\x9c>'
p2332
tp2333
Rp2334
tp2335
a(g68
g6
(g18
S'\x1cZI>'
p2336
tp2337
Rp2338
tp2339
a(g108
g6
(g18
S'\xfa\x0e-<'
p2340
tp2341
Rp2342
tp2343
a(g32
g6
(g18
S'P\xf5\xfa;'
p2344
tp2345
Rp2346
tp2347
asg73
g15
sa(dp2348
g2
S'../../../data/emanuela/activity-recognition/images/NTCIR-Lifelog-256/u2/2015-04-22/b00000624_21i7lf_20150422_191055e.jpg'
p2349
sg4
(lp2350
(g189
g6
(g18
S'\xee%\xde>'
p2351
tp2352
Rp2353
tp2354
a(g15
g6
(g18
S'\xbb\xae\x92>'
p2355
tp2356
Rp2357
tp2358
a(g166
g6
(g18
S'\xf96\xfa='
p2359
tp2360
Rp2361
tp2362
a(g294
g6
(g18
S'mP\xf9<'
p2363
tp2364
Rp2365
tp2366
a(g108
g6
(g18
S'\xb8\xa5\xd5<'
p2367
tp2368
Rp2369
tp2370
asg73
g15
sa(dp2371
g2
S'../../../data/emanuela/activity-recognition/images/NTCIR-Lifelog-256/u2/2015-06-19/b00003261_21i7lf_20150619_084922e.jpg'
p2372
sg4
(lp2373
(g15
g6
(g18
S'q\xfds?'
p2374
tp2375
Rp2376
tp2377
a(g32
g6
(g18
S'<\xbf7='
p2378
tp2379
Rp2380
tp2381
a(g108
g6
(g18
S'i\xa8\xf0:'
p2382
tp2383
Rp2384
tp2385
a(g166
g6
(g18
S'\x04jq8'
p2386
tp2387
Rp2388
tp2389
a(g56
g6
(g18
S'\xdd\xb4O8'
p2390
tp2391
Rp2392
tp2393
asg73
g15
sa(dp2394
g2
S'../../../data/emanuela/activity-recognition/images/NTCIR-Lifelog-256/u2/2015-06-19/b00003538_21i7lf_20150619_114644e.jpg'
p2395
sg4
(lp2396
(g108
g6
(g18
S'\xc2\x1a\xe0>'
p2397
tp2398
Rp2399
tp2400
a(g166
g6
(g18
S'\x9e\xd4\x9b>'
p2401
tp2402
Rp2403
tp2404
a(g15
g6
(g18
S'#\xe0\x9c='
p2405
tp2406
Rp2407
tp2408
a(g96
g6
(g18
S'\x9c\x86A='
p2409
tp2410
Rp2411
tp2412
a(g44
g6
(g18
S'\xcc\x99\xda<'
p2413
tp2414
Rp2415
tp2416
asg73
g15
sa(dp2417
g2
S'../../../data/emanuela/activity-recognition/images/NTCIR-Lifelog-256/u2/2015-06-20/b00004564_21i7lf_20150620_121753e.jpg'
p2418
sg4
(lp2419
(g15
g6
(g18
S'\xac\x14+?'
p2420
tp2421
Rp2422
tp2423
a(g32
g6
(g18
S'\xd7\xa6\xa8>'
p2424
tp2425
Rp2426
tp2427
a(g108
g6
(g18
S'\xb42m:'
p2428
tp2429
Rp2430
tp2431
a(g166
g6
(g18
S'\x98\xdb":'
p2432
tp2433
Rp2434
tp2435
a(g44
g6
(g18
S'\xbd\x81\xab9'
p2436
tp2437
Rp2438
tp2439
asg73
g15
sa(dp2440
g2
S'../../../data/emanuela/activity-recognition/images/NTCIR-Lifelog-256/u3/2015-06-28/b00000331_21i79q_20150628_173832e.jpg'
p2441
sg4
(lp2442
(g108
g6
(g18
S'@\xb3J?'
p2443
tp2444
Rp2445
tp2446
a(g15
g6
(g18
S'\xb4\x1b7>'
p2447
tp2448
Rp2449
tp2450
a(g166
g6
(g18
S'\xc5O\x80<'
p2451
tp2452
Rp2453
tp2454
a(g32
g6
(g18
S'\xb0\n\xb6;'
p2455
tp2456
Rp2457
tp2458
a(g189
g6
(g18
S'MQ\x06;'
p2459
tp2460
Rp2461
tp2462
asg73
g15
sa(dp2463
g2
S'../../../data/emanuela/activity-recognition/images/NTCIR-Lifelog-256/u3/2015-07-30/b00005293_21i79q_20150730_145637e.jpg'
p2464
sg4
(lp2465
(g15
g6
(g18
S'?\x80O?'
p2466
tp2467
Rp2468
tp2469
a(g294
g6
(g18
S'\x16!#='
p2470
tp2471
Rp2472
tp2473
a(g251
g6
(g18
S'\x93a!='
p2474
tp2475
Rp2476
tp2477
a(g166
g6
(g18
S'\x90#\xf8<'
p2478
tp2479
Rp2480
tp2481
a(g108
g6
(g18
S'L\x93\xc4<'
p2482
tp2483
Rp2484
tp2485
asg73
g15
sa(dp2486
g2
S'../../../data/emanuela/activity-recognition/images/NTCIR-Lifelog-256/u2/2015-04-20/b00001065_21i7lf_20150420_203425e.jpg'
p2487
sg4
(lp2488
(g15
g6
(g18
S'F\xc2x?'
p2489
tp2490
Rp2491
tp2492
a(g32
g6
(g18
S'\x89z\xb7<'
p2493
tp2494
Rp2495
tp2496
a(g108
g6
(g18
S']Of;'
p2497
tp2498
Rp2499
tp2500
a(g68
g6
(g18
S'\xff\x91*:'
p2501
tp2502
Rp2503
tp2504
a(g251
g6
(g18
S'-\xb6\xef9'
p2505
tp2506
Rp2507
tp2508
asg73
g15
sa(dp2509
g2
S'../../../data/emanuela/activity-recognition/images/NTCIR-Lifelog-256/u3/2015-06-24/b00000748_21i79q_20150624_163638e.jpg'
p2510
sg4
(lp2511
(g15
g6
(g18
S'l\x86|?'
p2512
tp2513
Rp2514
tp2515
a(g32
g6
(g18
S'\xc8\xa8V<'
p2516
tp2517
Rp2518
tp2519
a(g68
g6
(g18
S'\xcc\xca\xb69'
p2520
tp2521
Rp2522
tp2523
a(g108
g6
(g18
S'\xd1\xd1\t8'
p2524
tp2525
Rp2526
tp2527
a(g56
g6
(g18
S'\x00\xa2\t8'
p2528
tp2529
Rp2530
tp2531
asg73
g15
sa(dp2532
g2
S'../../../data/emanuela/activity-recognition/images/NTCIR-Lifelog-256/u3/2015-07-13/b00002724_21i79q_20150713_175440e.jpg'
p2533
sg4
(lp2534
(g15
g6
(g18
S'\x87\xb7b?'
p2535
tp2536
Rp2537
tp2538
a(g32
g6
(g18
S'<\t\xe7='
p2539
tp2540
Rp2541
tp2542
a(g56
g6
(g18
S'\x0f\xfc\xfd9'
p2543
tp2544
Rp2545
tp2546
a(g108
g6
(g18
S'\xeb\x19\xea9'
p2547
tp2548
Rp2549
tp2550
a(g44
g6
(g18
S'.\xc3\x979'
p2551
tp2552
Rp2553
tp2554
asg73
g15
sa(dp2555
g2
S'../../../data/emanuela/activity-recognition/images/NTCIR-Lifelog-256/u3/2015-07-25/b00001350_21i79q_20150725_170027e.jpg'
p2556
sg4
(lp2557
(g15
g6
(g18
S'u\xad\x9a>'
p2558
tp2559
Rp2560
tp2561
a(g1541
g6
(g18
S'\x91\r/>'
p2562
tp2563
Rp2564
tp2565
a(g348
g6
(g18
S'\x9f\xfe\x1b>'
p2566
tp2567
Rp2568
tp2569
a(g135
g6
(g18
S'\xda\x16\x05>'
p2570
tp2571
Rp2572
tp2573
a(g6
(g7
(S'S6'
p2574
I0
I1
tp2575
Rp2576
(I3
S'|'
p2577
NNNI6
I1
I0
tp2578
bS'biking'
p2579
tp2580
Rp2581
g6
(g18
S'\xa0\x96\xce='
p2582
tp2583
Rp2584
tp2585
asg73
g15
sa(dp2586
g2
S'../../../data/emanuela/activity-recognition/images/NTCIR-Lifelog-256/u3/2015-07-30/b00005976_21i79q_20150730_212454e.jpg'
p2587
sg4
(lp2588
(g15
g6
(g18
S'\x01\x80N?'
p2589
tp2590
Rp2591
tp2592
a(g108
g6
(g18
S'&k\x17>'
p2593
tp2594
Rp2595
tp2596
a(g32
g6
(g18
S'Fr\x89<'
p2597
tp2598
Rp2599
tp2600
a(g348
g6
(g18
S' "M<'
p2601
tp2602
Rp2603
tp2604
a(g586
g6
(g18
S'\x94J\xbd;'
p2605
tp2606
Rp2607
tp2608
asg73
g15
sa(dp2609
g2
S'../../../data/emanuela/activity-recognition/images/NTCIR-Lifelog-256/u2/2015-04-26/b00003875_21i7lf_20150426_120357e.jpg'
p2610
sg4
(lp2611
(g15
g6
(g18
S'\x99u\x7f?'
p2612
tp2613
Rp2614
tp2615
a(g32
g6
(g18
S'#+\xb1:'
p2616
tp2617
Rp2618
tp2619
a(g68
g6
(g18
S'Wn\x1e:'
p2620
tp2621
Rp2622
tp2623
a(g56
g6
(g18
S'\xb0#\x0e8'
p2624
tp2625
Rp2626
tp2627
a(g251
g6
(g18
S'[:\x008'
p2628
tp2629
Rp2630
tp2631
asg73
g15
sa(dp2632
g2
S'../../../data/emanuela/activity-recognition/images/NTCIR-Lifelog-256/u3/2015-07-15/b00000715_21i79q_20150715_191037e.jpg'
p2633
sg4
(lp2634
(g15
g6
(g18
S'\xb8\x147?'
p2635
tp2636
Rp2637
tp2638
a(g166
g6
(g18
S'\x93u\xe7='
p2639
tp2640
Rp2641
tp2642
a(g32
g6
(g18
S'\xe2\x99\xd0='
p2643
tp2644
Rp2645
tp2646
a(g108
g6
(g18
S'\xdf5\x81='
p2647
tp2648
Rp2649
tp2650
a(g68
g6
(g18
S'\x9a\xa1c;'
p2651
tp2652
Rp2653
tp2654
asg73
g15
sa(dp2655
g2
S'../../../data/emanuela/activity-recognition/images/NTCIR-Lifelog-256/u3/2015-06-28/b00000349_21i79q_20150628_174921e.jpg'
p2656
sg4
(lp2657
(g108
g6
(g18
S'\x06\x03m>'
p2658
tp2659
Rp2660
tp2661
a(g15
g6
(g18
S'(6\r>'
p2662
tp2663
Rp2664
tp2665
a(g586
g6
(g18
S'\xea\x1b\xf0='
p2666
tp2667
Rp2668
tp2669
a(g166
g6
(g18
S'\xdfg\xca='
p2670
tp2671
Rp2672
tp2673
a(g205
g6
(g18
S'\xa2q\xb6='
p2674
tp2675
Rp2676
tp2677
asg73
g15
sa(dp2678
g2
S'../../../data/emanuela/activity-recognition/images/NTCIR-Lifelog-256/u1/2015-02-26/b00000222_21i6bq_20150226_083730e.jpg'
p2679
sg4
(lp2680
(g15
g6
(g18
S'\x98\x98T?'
p2681
tp2682
Rp2683
tp2684
a(g32
g6
(g18
S'\x10=\xab='
p2685
tp2686
Rp2687
tp2688
a(g44
g6
(g18
S'\xcbn(='
p2689
tp2690
Rp2691
tp2692
a(g96
g6
(g18
S'\xc8\xa3\x93<'
p2693
tp2694
Rp2695
tp2696
a(g108
g6
(g18
S'\xfd\x89\x0f<'
p2697
tp2698
Rp2699
tp2700
asg73
g15
sa(dp2701
g2
S'../../../data/emanuela/activity-recognition/images/NTCIR-Lifelog-256/u3/2015-07-29/b00004676_21i79q_20150729_210739e.jpg'
p2702
sg4
(lp2703
(g68
g6
(g18
S'\xaf/\xab>'
p2704
tp2705
Rp2706
tp2707
a(g135
g6
(g18
S'3\np>'
p2708
tp2709
Rp2710
tp2711
a(g166
g6
(g18
S'\xd7\x8d_>'
p2712
tp2713
Rp2714
tp2715
a(g96
g6
(g18
S':\x8b\xc1='
p2716
tp2717
Rp2718
tp2719
a(g15
g6
(g18
S'\xee\xa0,='
p2720
tp2721
Rp2722
tp2723
asg73
g15
sa(dp2724
g2
S'../../../data/emanuela/activity-recognition/images/NTCIR-Lifelog-256/u1/2015-02-23/b00000013_21i6bq_20150223_071008e.jpg'
p2725
sg4
(lp2726
(g56
g6
(g18
S'\xe1n\xeb>'
p2727
tp2728
Rp2729
tp2730
a(g135
g6
(g18
S'\x9eK\x87>'
p2731
tp2732
Rp2733
tp2734
a(g15
g6
(g18
S'\xf9\x99\x01>'
p2735
tp2736
Rp2737
tp2738
a(g96
g6
(g18
S'8\x12\xc3='
p2739
tp2740
Rp2741
tp2742
a(g32
g6
(g18
S'f\x8d\xaf<'
p2743
tp2744
Rp2745
tp2746
asg73
g15
sa(dp2747
g2
S'../../../data/emanuela/activity-recognition/images/NTCIR-Lifelog-256/u2/2015-06-19/b00003285_21i7lf_20150619_085731e.jpg'
p2748
sg4
(lp2749
(g15
g6
(g18
S'\xb9\xd2y?'
p2750
tp2751
Rp2752
tp2753
a(g32
g6
(g18
S'\xbeH\xa4<'
p2754
tp2755
Rp2756
tp2757
a(g108
g6
(g18
S'\x99\x12g;'
p2758
tp2759
Rp2760
tp2761
a(g205
g6
(g18
S'\x0c\xa4\\9'
p2762
tp2763
Rp2764
tp2765
a(g166
g6
(g18
S'\xec\xcc\x119'
p2766
tp2767
Rp2768
tp2769
asg73
g15
sa(dp2770
g2
S'../../../data/emanuela/activity-recognition/images/NTCIR-Lifelog-256/u1/2015-02-24/b00001385_21i6bq_20150224_204609e.jpg'
p2771
sg4
(lp2772
(g15
g6
(g18
S'\x8f\x87\x10?'
p2773
tp2774
Rp2775
tp2776
a(g205
g6
(g18
S'\xfa\xcd\x0e>'
p2777
tp2778
Rp2779
tp2780
a(g32
g6
(g18
S'\xcb\xc0\x00>'
p2781
tp2782
Rp2783
tp2784
a(g108
g6
(g18
S'=\x15M='
p2785
tp2786
Rp2787
tp2788
a(g954
g6
(g18
S'|T>='
p2789
tp2790
Rp2791
tp2792
asg73
g15
sa(dp2793
g2
S'../../../data/emanuela/activity-recognition/images/NTCIR-Lifelog-256/u3/2015-07-30/b00005984_21i79q_20150730_212946e.jpg'
p2794
sg4
(lp2795
(g15
g6
(g18
S'\x04\xd0w?'
p2796
tp2797
Rp2798
tp2799
a(g251
g6
(g18
S'\xdd\x08F<'
p2800
tp2801
Rp2802
tp2803
a(g108
g6
(g18
S'\x11t\x1a<'
p2804
tp2805
Rp2806
tp2807
a(g32
g6
(g18
S'i\xbc\xa4;'
p2808
tp2809
Rp2810
tp2811
a(g68
g6
(g18
S'\x8a\xe1\xa8:'
p2812
tp2813
Rp2814
tp2815
asg73
g15
sa(dp2816
g2
S'../../../data/emanuela/activity-recognition/images/NTCIR-Lifelog-256/u2/2015-06-18/b00002436_21i7lf_20150618_073826e.jpg'
p2817
sg4
(lp2818
(g15
g6
(g18
S'\x97\xdc4?'
p2819
tp2820
Rp2821
tp2822
a(g32
g6
(g18
S'\xf6\xa9\x1f>'
p2823
tp2824
Rp2825
tp2826
a(g56
g6
(g18
S'\xdfr\xc2='
p2827
tp2828
Rp2829
tp2830
a(g108
g6
(g18
S'\r$e<'
p2831
tp2832
Rp2833
tp2834
a(g135
g6
(g18
S'\xd1Z/<'
p2835
tp2836
Rp2837
tp2838
asg73
g15
sa(dp2839
g2
S'../../../data/emanuela/activity-recognition/images/NTCIR-Lifelog-256/u3/2015-07-29/b00004658_21i79q_20150729_205158e.jpg'
p2840
sg4
(lp2841
(g15
g6
(g18
S"R'G?"
p2842
tp2843
Rp2844
tp2845
a(g32
g6
(g18
S'a\xedb>'
p2846
tp2847
Rp2848
tp2849
a(g68
g6
(g18
S'\xbe\x85\x0c9'
p2850
tp2851
Rp2852
tp2853
a(g108
g6
(g18
S'\xf3\xe8\xa58'
p2854
tp2855
Rp2856
tp2857
a(g56
g6
(g18
S'\x0bAP8'
p2858
tp2859
Rp2860
tp2861
asg73
g15
sa(dp2862
g2
S'../../../data/emanuela/activity-recognition/images/NTCIR-Lifelog-256/u2/2015-06-21/b00004997_21i7lf_20150621_114122e.jpg'
p2863
sg4
(lp2864
(g15
g6
(g18
S'\x98"S?'
p2865
tp2866
Rp2867
tp2868
a(g32
g6
(g18
S'N\xa5\x1d>'
p2869
tp2870
Rp2871
tp2872
a(g108
g6
(g18
S'J\xde6<'
p2873
tp2874
Rp2875
tp2876
a(g189
g6
(g18
S',IZ;'
p2877
tp2878
Rp2879
tp2880
a(g166
g6
(g18
S')\xd4I;'
p2881
tp2882
Rp2883
tp2884
asg73
g15
sa(dp2885
g2
S'../../../data/emanuela/activity-recognition/images/NTCIR-Lifelog-256/u1/2015-03-14/b00000649_21i6bq_20150314_123909e.jpg'
p2886
sg4
(lp2887
(g32
g6
(g18
S'&q\x17?'
p2888
tp2889
Rp2890
tp2891
a(g15
g6
(g18
S'\x87\xd1\xa6>'
p2892
tp2893
Rp2894
tp2895
a(g44
g6
(g18
S'd\x19\x17='
p2896
tp2897
Rp2898
tp2899
a(g205
g6
(g18
S'\x19\xb4\x86<'
p2900
tp2901
Rp2902
tp2903
a(g954
g6
(g18
S'\x90v\xc2;'
p2904
tp2905
Rp2906
tp2907
asg73
g15
sa(dp2908
g2
S'../../../data/emanuela/activity-recognition/images/NTCIR-Lifelog-256/u3/2015-06-24/b00001252_21i79q_20150624_214737e.jpg'
p2909
sg4
(lp2910
(g15
g6
(g18
S'\x06;\x0f?'
p2911
tp2912
Rp2913
tp2914
a(g32
g6
(g18
S'g\xd5\x05>'
p2915
tp2916
Rp2917
tp2918
a(g56
g6
(g18
S'Gd\xe1='
p2919
tp2920
Rp2921
tp2922
a(g205
g6
(g18
S'\xf75S='
p2923
tp2924
Rp2925
tp2926
a(g348
g6
(g18
S'\xc8\xcc(='
p2927
tp2928
Rp2929
tp2930
asg73
g15
sa(dp2931
g2
S'../../../data/emanuela/activity-recognition/images/NTCIR-Lifelog-256/u1/2015-02-25/b00000268_21i6bq_20150225_084604e.jpg'
p2932
sg4
(lp2933
(g15
g6
(g18
S'\xca\xd4\xb5>'
p2934
tp2935
Rp2936
tp2937
a(g135
g6
(g18
S'\x05\x82<>'
p2938
tp2939
Rp2940
tp2941
a(g96
g6
(g18
S'\x93Z\xd8='
p2942
tp2943
Rp2944
tp2945
a(g32
g6
(g18
S'\xd3\xc5\x9a='
p2946
tp2947
Rp2948
tp2949
a(g108
g6
(g18
S'\xef\xa1\x8a='
p2950
tp2951
Rp2952
tp2953
asg73
g15
sa(dp2954
g2
S'../../../data/emanuela/activity-recognition/images/NTCIR-Lifelog-256/u3/2015-06-28/b00000051_21i79q_20150628_145839e.jpg'
p2955
sg4
(lp2956
(g15
g6
(g18
S'g\x02n?'
p2957
tp2958
Rp2959
tp2960
a(g32
g6
(g18
S'\xb1\x90\x10='
p2961
tp2962
Rp2963
tp2964
a(g189
g6
(g18
S'\x04\xe2H<'
p2965
tp2966
Rp2967
tp2968
a(g166
g6
(g18
S'\xcc\x8d\x0e<'
p2969
tp2970
Rp2971
tp2972
a(g108
g6
(g18
S'\\7\xc6;'
p2973
tp2974
Rp2975
tp2976
asg73
g15
sa(dp2977
g2
S'../../../data/emanuela/activity-recognition/images/NTCIR-Lifelog-256/u1/2015-03-14/b00000658_21i6bq_20150314_124614e.jpg'
p2978
sg4
(lp2979
(g15
g6
(g18
S'6\xea9?'
p2980
tp2981
Rp2982
tp2983
a(g32
g6
(g18
S'\x10\xa85>'
p2984
tp2985
Rp2986
tp2987
a(g108
g6
(g18
S'\x83\xd6\x8b='
p2988
tp2989
Rp2990
tp2991
a(g166
g6
(g18
S'\x08\xe07<'
p2992
tp2993
Rp2994
tp2995
a(g56
g6
(g18
S'\x12\xd6p;'
p2996
tp2997
Rp2998
tp2999
asg73
g15
sa(dp3000
g2
S'../../../data/emanuela/activity-recognition/images/NTCIR-Lifelog-256/u3/2015-06-28/b00000062_21i79q_20150628_150443e.jpg'
p3001
sg4
(lp3002
(g15
g6
(g18
S'f\x83O?'
p3003
tp3004
Rp3005
tp3006
a(g189
g6
(g18
S'\xa3\\\xee='
p3007
tp3008
Rp3009
tp3010
a(g166
g6
(g18
S'@\xe2\xc7<'
p3011
tp3012
Rp3013
tp3014
a(g32
g6
(g18
S'\x9e\r\xb0<'
p3015
tp3016
Rp3017
tp3018
a(g108
g6
(g18
S'c\xf0)<'
p3019
tp3020
Rp3021
tp3022
asg73
g15
sa(dp3023
g2
S'../../../data/emanuela/activity-recognition/images/NTCIR-Lifelog-256/u3/2015-06-24/b00001272_21i79q_20150624_220040e.jpg'
p3024
sg4
(lp3025
(g15
g6
(g18
S'*qd?'
p3026
tp3027
Rp3028
tp3029
a(g32
g6
(g18
S'a\xe0\xb1='
p3030
tp3031
Rp3032
tp3033
a(g56
g6
(g18
S'-M\x93<'
p3034
tp3035
Rp3036
tp3037
a(g44
g6
(g18
S's\xf3\xba:'
p3038
tp3039
Rp3040
tp3041
a(g135
g6
(g18
S'-\x00\x1c:'
p3042
tp3043
Rp3044
tp3045
asg73
g15
sa(dp3046
g2
S'../../../data/emanuela/activity-recognition/images/NTCIR-Lifelog-256/u1/2015-03-07/b00000513_21i6bq_20150307_114934e.jpg'
p3047
sg4
(lp3048
(g15
g6
(g18
S'\xe3\xe8_?'
p3049
tp3050
Rp3051
tp3052
a(g32
g6
(g18
S'0s\xa7='
p3053
tp3054
Rp3055
tp3056
a(g108
g6
(g18
S'c\xe1\t='
p3057
tp3058
Rp3059
tp3060
a(g135
g6
(g18
S'\xa6L\x0f;'
p3061
tp3062
Rp3063
tp3064
a(g68
g6
(g18
S'\xed\x17\xdf:'
p3065
tp3066
Rp3067
tp3068
asg73
g15
sa(dp3069
g2
S'../../../data/emanuela/activity-recognition/images/NTCIR-Lifelog-256/u1/2015-03-14/b00000269_21i6bq_20150314_084948e.jpg'
p3070
sg4
(lp3071
(g15
g6
(g18
S'\xdd\xc9W?'
p3072
tp3073
Rp3074
tp3075
a(g108
g6
(g18
S'\xf8\x1c\xb6='
p3076
tp3077
Rp3078
tp3079
a(g32
g6
(g18
S'\xa0z,='
p3080
tp3081
Rp3082
tp3083
a(g166
g6
(g18
S'IB\x86<'
p3084
tp3085
Rp3086
tp3087
a(g44
g6
(g18
S'\x1b\x85\x7f;'
p3088
tp3089
Rp3090
tp3091
asg73
g15
sa(dp3092
g2
S'../../../data/emanuela/activity-recognition/images/NTCIR-Lifelog-256/u1/2015-03-19/b00002646_21i6bq_20150319_184142e.jpg'
p3093
sg4
(lp3094
(g32
g6
(g18
S'\xf4=g>'
p3095
tp3096
Rp3097
tp3098
a(g135
g6
(g18
S'\x08\x96`>'
p3099
tp3100
Rp3101
tp3102
a(g15
g6
(g18
S'l\xf39>'
p3103
tp3104
Rp3105
tp3106
a(g56
g6
(g18
S'\x04#\x05>'
p3107
tp3108
Rp3109
tp3110
a(g108
g6
(g18
S'\x04\xa7\xae='
p3111
tp3112
Rp3113
tp3114
asg73
g15
sa(dp3115
g2
S'../../../data/emanuela/activity-recognition/images/NTCIR-Lifelog-256/u3/2015-06-28/b00000034_21i79q_20150628_144906e.jpg'
p3116
sg4
(lp3117
(g15
g6
(g18
S';\xbcy?'
p3118
tp3119
Rp3120
tp3121
a(g166
g6
(g18
S'\x83"\xf8;'
p3122
tp3123
Rp3124
tp3125
a(g108
g6
(g18
S'\xbb\x11\xcb;'
p3126
tp3127
Rp3128
tp3129
a(g189
g6
(g18
S'\xc5\xe8\x96;'
p3130
tp3131
Rp3132
tp3133
a(g32
g6
(g18
S'\x87\x8fk;'
p3134
tp3135
Rp3136
tp3137
asg73
g15
sa(dp3138
g2
S'../../../data/emanuela/activity-recognition/images/NTCIR-Lifelog-256/u1/2015-02-24/b00001383_21i6bq_20150224_204502e.jpg'
p3139
sg4
(lp3140
(g205
g6
(g18
S'\xe2\xf3\xa1>'
p3141
tp3142
Rp3143
tp3144
a(g15
g6
(g18
S'\xc7\xad\x91>'
p3145
tp3146
Rp3147
tp3148
a(g954
g6
(g18
S'\x1aU\xdf='
p3149
tp3150
Rp3151
tp3152
a(g108
g6
(g18
S't\xd1\xd6='
p3153
tp3154
Rp3155
tp3156
a(g586
g6
(g18
S'D\x03/='
p3157
tp3158
Rp3159
tp3160
asg73
g15
sa(dp3161
g2
S'../../../data/emanuela/activity-recognition/images/NTCIR-Lifelog-256/u3/2015-07-22/b00000517_21i79q_20150722_150411e.jpg'
p3162
sg4
(lp3163
(g15
g6
(g18
S'\x1b\xcbt?'
p3164
tp3165
Rp3166
tp3167
a(g32
g6
(g18
S'Td\x1d='
p3168
tp3169
Rp3170
tp3171
a(g166
g6
(g18
S'W\x11\xc4:'
p3172
tp3173
Rp3174
tp3175
a(g68
g6
(g18
S'I\xf4\xb7:'
p3176
tp3177
Rp3178
tp3179
a(g294
g6
(g18
S'$\xbf[:'
p3180
tp3181
Rp3182
tp3183
asg73
g15
sa(dp3184
g2
S'../../../data/emanuela/activity-recognition/images/NTCIR-Lifelog-256/u1/2015-03-14/b00000240_21i6bq_20150314_083212e.jpg'
p3185
sg4
(lp3186
(g15
g6
(g18
S'}G\xd1>'
p3187
tp3188
Rp3189
tp3190
a(g108
g6
(g18
S'\xb9\xb9r>'
p3191
tp3192
Rp3193
tp3194
a(g32
g6
(g18
S'C>F>'
p3195
tp3196
Rp3197
tp3198
a(g166
g6
(g18
S'\xacz\xab='
p3199
tp3200
Rp3201
tp3202
a(g44
g6
(g18
S'\xee\xa3\xce<'
p3203
tp3204
Rp3205
tp3206
asg73
g15
sa(dp3207
g2
S'../../../data/emanuela/activity-recognition/images/NTCIR-Lifelog-256/u1/2015-02-27/b00001194_21i6bq_20150227_211857e.jpg'
p3208
sg4
(lp3209
(g205
g6
(g18
S'\xbb\x01V?'
p3210
tp3211
Rp3212
tp3213
a(g32
g6
(g18
S'\xc0g$='
p3214
tp3215
Rp3216
tp3217
a(g348
g6
(g18
S'i\xba\x16='
p3218
tp3219
Rp3220
tp3221
a(g15
g6
(g18
S']s\xf4<'
p3222
tp3223
Rp3224
tp3225
a(g954
g6
(g18
S'Gz\xf0<'
p3226
tp3227
Rp3228
tp3229
asg73
g15
sa(dp3230
g2
S'../../../data/emanuela/activity-recognition/images/NTCIR-Lifelog-256/u3/2015-06-15/b00000904_21i79q_20150615_170714e.jpg'
p3231
sg4
(lp3232
(g15
g6
(g18
S'C\xbe\x1f?'
p3233
tp3234
Rp3235
tp3236
a(g32
g6
(g18
S'\x1f\xec\x82>'
p3237
tp3238
Rp3239
tp3240
a(g166
g6
(g18
S'm\xde\xde<'
p3241
tp3242
Rp3243
tp3244
a(g68
g6
(g18
S'\x17 \xa8<'
p3245
tp3246
Rp3247
tp3248
a(g96
g6
(g18
S'\xf9G\x9c<'
p3249
tp3250
Rp3251
tp3252
asg73
g15
sa(dp3253
g2
S'../../../data/emanuela/activity-recognition/images/NTCIR-Lifelog-256/u1/2015-03-01/b00000352_21i6bq_20150301_102110e.jpg'
p3254
sg4
(lp3255
(g15
g6
(g18
S'`_<?'
p3256
tp3257
Rp3258
tp3259
a(g32
g6
(g18
S'~@\xfe='
p3260
tp3261
Rp3262
tp3263
a(g166
g6
(g18
S'+\xc8\x06='
p3264
tp3265
Rp3266
tp3267
a(g68
g6
(g18
S'-\x17\xf5<'
p3268
tp3269
Rp3270
tp3271
a(g135
g6
(g18
S'H\x1c\xd5<'
p3272
tp3273
Rp3274
tp3275
asg73
g15
sa(dp3276
g2
S'../../../data/emanuela/activity-recognition/images/NTCIR-Lifelog-256/u3/2015-06-28/b00000052_21i79q_20150628_145915e.jpg'
p3277
sg4
(lp3278
(g15
g6
(g18
S'\xc8\xa6F?'
p3279
tp3280
Rp3281
tp3282
a(g189
g6
(g18
S'\xe9\xdb\x03>'
p3283
tp3284
Rp3285
tp3286
a(g32
g6
(g18
S'\xfa\xf8K='
p3287
tp3288
Rp3289
tp3290
a(g205
g6
(g18
S'\x8aG\x88<'
p3291
tp3292
Rp3293
tp3294
a(g166
g6
(g18
S't\xd71<'
p3295
tp3296
Rp3297
tp3298
asg73
g15
sa(dp3299
g2
S'../../../data/emanuela/activity-recognition/images/NTCIR-Lifelog-256/u3/2015-07-13/b00002212_21i79q_20150713_124514e.jpg'
p3300
sg4
(lp3301
(g15
g6
(g18
S'L\xc8{?'
p3302
tp3303
Rp3304
tp3305
a(g56
g6
(g18
S'\xd5\xb4\xe3;'
p3306
tp3307
Rp3308
tp3309
a(g32
g6
(g18
S'\xa0\xc1/;'
p3310
tp3311
Rp3312
tp3313
a(g135
g6
(g18
S'N\x02(;'
p3314
tp3315
Rp3316
tp3317
a(g108
g6
(g18
S'\xc5\xf4\xd4:'
p3318
tp3319
Rp3320
tp3321
asg73
g15
sa(dp3322
g2
S'../../../data/emanuela/activity-recognition/images/NTCIR-Lifelog-256/u3/2015-07-14/b00003787_21i79q_20150714_182657e.jpg'
p3323
sg4
(lp3324
(g15
g6
(g18
S'k\x1an?'
p3325
tp3326
Rp3327
tp3328
a(g32
g6
(g18
S'\xf2\x1e\x13='
p3329
tp3330
Rp3331
tp3332
a(g166
g6
(g18
S'\xf4\x82\x80<'
p3333
tp3334
Rp3335
tp3336
a(g294
g6
(g18
S'\xb0\x13\xd7;'
p3337
tp3338
Rp3339
tp3340
a(g68
g6
(g18
S'\xaa\x9fh;'
p3341
tp3342
Rp3343
tp3344
asg73
g15
sa(dp3345
g2
S'../../../data/emanuela/activity-recognition/images/NTCIR-Lifelog-256/u2/2015-06-20/b00004563_21i7lf_20150620_121710e.jpg'
p3346
sg4
(lp3347
(g15
g6
(g18
S'\xda\x17F?'
p3348
tp3349
Rp3350
tp3351
a(g56
g6
(g18
S'\xe4\x92\x12>'
p3352
tp3353
Rp3354
tp3355
a(g32
g6
(g18
S'\xe5N\xd8<'
p3356
tp3357
Rp3358
tp3359
a(g96
g6
(g18
S'\x1a\x95\x9c<'
p3360
tp3361
Rp3362
tp3363
a(g44
g6
(g18
S'\xbcJ\x95<'
p3364
tp3365
Rp3366
tp3367
asg73
g15
sa(dp3368
g2
S'../../../data/emanuela/activity-recognition/images/NTCIR-Lifelog-256/u2/2015-06-17/b00002323_21i7lf_20150617_123559e.jpg'
p3369
sg4
(lp3370
(g15
g6
(g18
S'\x1e\x8aT?'
p3371
tp3372
Rp3373
tp3374
a(g32
g6
(g18
S'\xf40 >'
p3375
tp3376
Rp3377
tp3378
a(g108
g6
(g18
S'\xfc$\x02<'
p3379
tp3380
Rp3381
tp3382
a(g166
g6
(g18
S'*i:;'
p3383
tp3384
Rp3385
tp3386
a(g68
g6
(g18
S'\x87n\xd6:'
p3387
tp3388
Rp3389
tp3390
asg73
g15
sa(dp3391
g2
S'../../../data/emanuela/activity-recognition/images/NTCIR-Lifelog-256/u1/2015-03-14/b00000652_21i6bq_20150314_124129e.jpg'
p3392
sg4
(lp3393
(g15
g6
(g18
S'\xa1\x12V?'
p3394
tp3395
Rp3396
tp3397
a(g32
g6
(g18
S'\x0b\x0b\x15>'
p3398
tp3399
Rp3400
tp3401
a(g108
g6
(g18
S'F\xce\x19<'
p3402
tp3403
Rp3404
tp3405
a(g44
g6
(g18
S'\xee\xf4<;'
p3406
tp3407
Rp3408
tp3409
a(g56
g6
(g18
S'\x85n\x00;'
p3410
tp3411
Rp3412
tp3413
asg73
g15
sa(dp3414
g2
S'../../../data/emanuela/activity-recognition/images/NTCIR-Lifelog-256/u3/2015-06-28/b00000022_21i79q_20150628_144206e.jpg'
p3415
sg4
(lp3416
(g15
g6
(g18
S'\xd0\xc2J?'
p3417
tp3418
Rp3419
tp3420
a(g189
g6
(g18
S'Z\x16\xe6='
p3421
tp3422
Rp3423
tp3424
a(g108
g6
(g18
S'f\x85\x1f='
p3425
tp3426
Rp3427
tp3428
a(g166
g6
(g18
S'\xb9\xc0\x96<'
p3429
tp3430
Rp3431
tp3432
a(g205
g6
(g18
S't\x9bl<'
p3433
tp3434
Rp3435
tp3436
asg73
g15
sa(dp3437
g2
S'../../../data/emanuela/activity-recognition/images/NTCIR-Lifelog-256/u1/2015-03-07/b00001208_21i6bq_20150307_194301e.jpg'
p3438
sg4
(lp3439
(g15
g6
(g18
S'U\x900?'
p3440
tp3441
Rp3442
tp3443
a(g32
g6
(g18
S'\xd9\xedy>'
p3444
tp3445
Rp3446
tp3447
a(g108
g6
(g18
S'\xb47=='
p3448
tp3449
Rp3450
tp3451
a(g166
g6
(g18
S'\xbf\xd2\x05<'
p3452
tp3453
Rp3454
tp3455
a(g205
g6
(g18
S'\xc7\x9e\x80;'
p3456
tp3457
Rp3458
tp3459
asg73
g15
sa(dp3460
g2
S'../../../data/emanuela/activity-recognition/images/NTCIR-Lifelog-256/u3/2015-06-24/b00000016_21i79q_20150624_095625e.jpg'
p3461
sg4
(lp3462
(g15
g6
(g18
S'Smh?'
p3463
tp3464
Rp3465
tp3466
a(g32
g6
(g18
S'\xb5\xfd\xae='
p3467
tp3468
Rp3469
tp3470
a(g108
g6
(g18
S'\xf3\xd7\x9d;'
p3471
tp3472
Rp3473
tp3474
a(g166
g6
(g18
S'\xde\xab\xc7:'
p3475
tp3476
Rp3477
tp3478
a(g68
g6
(g18
S'W\xa4\n9'
p3479
tp3480
Rp3481
tp3482
asg73
g15
sa(dp3483
g2
S'../../../data/emanuela/activity-recognition/images/NTCIR-Lifelog-256/u3/2015-07-13/b00002741_21i79q_20150713_180441e.jpg'
p3484
sg4
(lp3485
(g15
g6
(g18
S'\x18\xd01?'
p3486
tp3487
Rp3488
tp3489
a(g32
g6
(g18
S'\xc7\x87\x9b>'
p3490
tp3491
Rp3492
tp3493
a(g108
g6
(g18
S'\x9b\xf7Q:'
p3494
tp3495
Rp3496
tp3497
a(g166
g6
(g18
S'l\xba\xfa9'
p3498
tp3499
Rp3500
tp3501
a(g294
g6
(g18
S'a\xda\xea8'
p3502
tp3503
Rp3504
tp3505
asg73
g15
sa(dp3506
g2
S'../../../data/emanuela/activity-recognition/images/NTCIR-Lifelog-256/u3/2015-06-24/b00001282_21i79q_20150624_220650e.jpg'
p3507
sg4
(lp3508
(g15
g6
(g18
S'\xf1\xbcj?'
p3509
tp3510
Rp3511
tp3512
a(g32
g6
(g18
S'\xb9\x85\x98='
p3513
tp3514
Rp3515
tp3516
a(g56
g6
(g18
S'\xa4{|;'
p3517
tp3518
Rp3519
tp3520
a(g44
g6
(g18
S'\x1aW\xe2:'
p3521
tp3522
Rp3523
tp3524
a(g68
g6
(g18
S'\x12!\x91:'
p3525
tp3526
Rp3527
tp3528
asg73
g15
sa(dp3529
g2
S'../../../data/emanuela/activity-recognition/images/NTCIR-Lifelog-256/u1/2015-03-08/b00000016_21i6bq_20150308_080729e.jpg'
p3530
sg4
(lp3531
(g847
g6
(g18
S'\x07\xf4\x8d>'
p3532
tp3533
Rp3534
tp3535
a(g166
g6
(g18
S'\xbc\xbf\x80>'
p3536
tp3537
Rp3538
tp3539
a(g15
g6
(g18
S'\xfc\x95\x04>'
p3540
tp3541
Rp3542
tp3543
a(g135
g6
(g18
S'sX\xa2='
p3544
tp3545
Rp3546
tp3547
a(g44
g6
(g18
S'\xe7\xb6q='
p3548
tp3549
Rp3550
tp3551
asg73
g15
sa(dp3552
g2
S'../../../data/emanuela/activity-recognition/images/NTCIR-Lifelog-256/u3/2015-07-14/b00003625_21i79q_20150714_170104e.jpg'
p3553
sg4
(lp3554
(g15
g6
(g18
S'\xde\x15L?'
p3555
tp3556
Rp3557
tp3558
a(g32
g6
(g18
S'\x1cYB='
p3559
tp3560
Rp3561
tp3562
a(g205
g6
(g18
S'J\xbb%='
p3563
tp3564
Rp3565
tp3566
a(g56
g6
(g18
S'\xa7\x93\r='
p3567
tp3568
Rp3569
tp3570
a(g108
g6
(g18
S'\xe0\x8c\x95<'
p3571
tp3572
Rp3573
tp3574
asg73
g15
sa(dp3575
g2
S'../../../data/emanuela/activity-recognition/images/NTCIR-Lifelog-256/u3/2015-07-23/b00000269_21i79q_20150723_151912e.jpg'
p3576
sg4
(lp3577
(g15
g6
(g18
S'\n\r}?'
p3578
tp3579
Rp3580
tp3581
a(g32
g6
(g18
S'm\x9d\xc6;'
p3582
tp3583
Rp3584
tp3585
a(g108
g6
(g18
S'K\xe2\x18;'
p3586
tp3587
Rp3588
tp3589
a(g56
g6
(g18
S'+\xf9\xd2:'
p3590
tp3591
Rp3592
tp3593
a(g348
g6
(g18
S'\xc2\xc3\x9b9'
p3594
tp3595
Rp3596
tp3597
asg73
g15
sa(dp3598
g2
S'../../../data/emanuela/activity-recognition/images/NTCIR-Lifelog-256/u3/2015-07-24/b00000483_21i79q_20150724_160727e.jpg'
p3599
sg4
(lp3600
(g15
g6
(g18
S'\xa1\xa8]?'
p3601
tp3602
Rp3603
tp3604
a(g56
g6
(g18
S'\xe8\x0c\x0e='
p3605
tp3606
Rp3607
tp3608
a(g32
g6
(g18
S'\xe8\xfb\xe7<'
p3609
tp3610
Rp3611
tp3612
a(g108
g6
(g18
S'\x10\xd9\xba<'
p3613
tp3614
Rp3615
tp3616
a(g135
g6
(g18
S'\r\x1e\xd5;'
p3617
tp3618
Rp3619
tp3620
asg73
g15
sa(dp3621
g2
S'../../../data/emanuela/activity-recognition/images/NTCIR-Lifelog-256/u3/2015-07-17/b00000028_21i79q_20150717_135924e.jpg'
p3622
sg4
(lp3623
(g15
g6
(g18
S'&\xe5y?'
p3624
tp3625
Rp3626
tp3627
a(g32
g6
(g18
S'j\xc3\x9b<'
p3628
tp3629
Rp3630
tp3631
a(g68
g6
(g18
S'\xfb<\xc2:'
p3632
tp3633
Rp3634
tp3635
a(g56
g6
(g18
S'|\xae\xbe:'
p3636
tp3637
Rp3638
tp3639
a(g348
g6
(g18
S'\x11\x95\x15:'
p3640
tp3641
Rp3642
tp3643
asg73
g15
sa(dp3644
g2
S'../../../data/emanuela/activity-recognition/images/NTCIR-Lifelog-256/u3/2015-07-30/b00005290_21i79q_20150730_145443e.jpg'
p3645
sg4
(lp3646
(g15
g6
(g18
S'2?L?'
p3647
tp3648
Rp3649
tp3650
a(g348
g6
(g18
S'\r>\x8a='
p3651
tp3652
Rp3653
tp3654
a(g251
g6
(g18
S'u\xa1\x82='
p3655
tp3656
Rp3657
tp3658
a(g68
g6
(g18
S'i\x0e\xbf<'
p3659
tp3660
Rp3661
tp3662
a(g166
g6
(g18
S'X\xb1\\<'
p3663
tp3664
Rp3665
tp3666
asg73
g15
sa(dp3667
g2
S'../../../data/emanuela/activity-recognition/images/NTCIR-Lifelog-256/u3/2015-06-15/b00000429_21i79q_20150615_124929e.jpg'
p3668
sg4
(lp3669
(g15
g6
(g18
S'\xd3\x870?'
p3670
tp3671
Rp3672
tp3673
a(g32
g6
(g18
S'kk\x98>'
p3674
tp3675
Rp3676
tp3677
a(g108
g6
(g18
S'"\xb7\x04<'
p3678
tp3679
Rp3680
tp3681
a(g166
g6
(g18
S'\xebUs;'
p3682
tp3683
Rp3684
tp3685
a(g847
g6
(g18
S'\xdav\x9d9'
p3686
tp3687
Rp3688
tp3689
asg73
g15
sa(dp3690
g2
S'../../../data/emanuela/activity-recognition/images/NTCIR-Lifelog-256/u2/2015-04-22/b00000635_21i7lf_20150422_191738e.jpg'
p3691
sg4
(lp3692
(g15
g6
(g18
S'`\x80w?'
p3693
tp3694
Rp3695
tp3696
a(g32
g6
(g18
S'\x92O{<'
p3697
tp3698
Rp3699
tp3700
a(g108
g6
(g18
S'p\\\xa5;'
p3701
tp3702
Rp3703
tp3704
a(g251
g6
(g18
S'\x9b\xa9N;'
p3705
tp3706
Rp3707
tp3708
a(g56
g6
(g18
S'\xfd\xa56;'
p3709
tp3710
Rp3711
tp3712
asg73
g15
sa(dp3713
g2
S'../../../data/emanuela/activity-recognition/images/NTCIR-Lifelog-256/u1/2015-03-08/b00000041_21i6bq_20150308_082547e.jpg'
p3714
sg4
(lp3715
(g15
g6
(g18
S'\xfcoF?'
p3716
tp3717
Rp3718
tp3719
a(g32
g6
(g18
S'.?d>'
p3720
tp3721
Rp3722
tp3723
a(g108
g6
(g18
S'\xd0?\xf49'
p3724
tp3725
Rp3726
tp3727
a(g847
g6
(g18
S'\xb3t\xe49'
p3728
tp3729
Rp3730
tp3731
a(g166
g6
(g18
S'm\x1a\xc69'
p3732
tp3733
Rp3734
tp3735
asg73
g15
sa(dp3736
g2
S'../../../data/emanuela/activity-recognition/images/NTCIR-Lifelog-256/u1/2015-03-12/b00000455_21i6bq_20150312_120814e.jpg'
p3737
sg4
(lp3738
(g15
g6
(g18
S'(jF?'
p3739
tp3740
Rp3741
tp3742
a(g32
g6
(g18
S';\x0e/>'
p3743
tp3744
Rp3745
tp3746
a(g108
g6
(g18
S'\xf1]\xdf;'
p3747
tp3748
Rp3749
tp3750
a(g68
g6
(g18
S'\x94\x13\xda;'
p3751
tp3752
Rp3753
tp3754
a(g189
g6
(g18
S'\xe6v\xd8;'
p3755
tp3756
Rp3757
tp3758
asg73
g15
sa(dp3759
g2
S'../../../data/emanuela/activity-recognition/images/NTCIR-Lifelog-256/u2/2015-04-26/b00003879_21i7lf_20150426_120625e.jpg'
p3760
sg4
(lp3761
(g15
g6
(g18
S'V;:?'
p3762
tp3763
Rp3764
tp3765
a(g32
g6
(g18
S'\xfc/\x96='
p3766
tp3767
Rp3768
tp3769
a(g586
g6
(g18
S'\x05o\xfb<'
p3770
tp3771
Rp3772
tp3773
a(g205
g6
(g18
S'j\xcb\xf4<'
p3774
tp3775
Rp3776
tp3777
a(g166
g6
(g18
S'\xccv\xe8<'
p3778
tp3779
Rp3780
tp3781
asg73
g15
sa(dp3782
g2
S'../../../data/emanuela/activity-recognition/images/NTCIR-Lifelog-256/u3/2015-06-15/b00000900_21i79q_20150615_170452e.jpg'
p3783
sg4
(lp3784
(g15
g6
(g18
S'\xab 7?'
p3785
tp3786
Rp3787
tp3788
a(g32
g6
(g18
S'\xdc{\x91>'
p3789
tp3790
Rp3791
tp3792
a(g56
g6
(g18
S'\xa6(\r9'
p3793
tp3794
Rp3795
tp3796
a(g135
g6
(g18
S'9 \xb88'
p3797
tp3798
Rp3799
tp3800
a(g44
g6
(g18
S'\xe5V|8'
p3801
tp3802
Rp3803
tp3804
asg73
g15
sa(dp3805
g2
S'../../../data/emanuela/activity-recognition/images/NTCIR-Lifelog-256/u1/2015-03-18/b00000448_21i6bq_20150318_123317e.jpg'
p3806
sg4
(lp3807
(g15
g6
(g18
S'R}l?'
p3808
tp3809
Rp3810
tp3811
a(g32
g6
(g18
S'8\xf6\xeb<'
p3812
tp3813
Rp3814
tp3815
a(g108
g6
(g18
S'?\xee\xb0<'
p3816
tp3817
Rp3818
tp3819
a(g205
g6
(g18
S'\xe5\x8e\x81<'
p3820
tp3821
Rp3822
tp3823
a(g166
g6
(g18
S'm\xa3\x0c;'
p3824
tp3825
Rp3826
tp3827
asg73
g15
sa(dp3828
g2
S'../../../data/emanuela/activity-recognition/images/NTCIR-Lifelog-256/u2/2015-06-19/b00003262_21i7lf_20150619_084946e.jpg'
p3829
sg4
(lp3830
(g15
g6
(g18
S'\xf2\xdeD?'
p3831
tp3832
Rp3833
tp3834
a(g205
g6
(g18
S'\xc1\xf0\xa1='
p3835
tp3836
Rp3837
tp3838
a(g251
g6
(g18
S'\x9d\xear='
p3839
tp3840
Rp3841
tp3842
a(g32
g6
(g18
S'\x93\x8a\x1d='
p3843
tp3844
Rp3845
tp3846
a(g108
g6
(g18
S'\x8e\x92\x87<'
p3847
tp3848
Rp3849
tp3850
asg73
g15
sa(dp3851
g2
S'../../../data/emanuela/activity-recognition/images/NTCIR-Lifelog-256/u1/2015-03-14/b00000244_21i6bq_20150314_083437e.jpg'
p3852
sg4
(lp3853
(g15
g6
(g18
S'\x1b#p?'
p3854
tp3855
Rp3856
tp3857
a(g108
g6
(g18
S'\x9dL\xe8<'
p3858
tp3859
Rp3860
tp3861
a(g32
g6
(g18
S'J\xdd\xce<'
p3862
tp3863
Rp3864
tp3865
a(g166
g6
(g18
S'\x97.\x81;'
p3866
tp3867
Rp3868
tp3869
a(g205
g6
(g18
S'\xcc\xf2\x11;'
p3870
tp3871
Rp3872
tp3873
asg73
g15
sa(dp3874
g2
S'../../../data/emanuela/activity-recognition/images/NTCIR-Lifelog-256/u1/2015-03-08/b00000018_21i6bq_20150308_080954e.jpg'
p3875
sg4
(lp3876
(g15
g6
(g18
S'3Zc?'
p3877
tp3878
Rp3879
tp3880
a(g32
g6
(g18
S'Bg\xcb='
p3881
tp3882
Rp3883
tp3884
a(g108
g6
(g18
S'p\x17\x8c;'
p3885
tp3886
Rp3887
tp3888
a(g44
g6
(g18
S'o&v;'
p3889
tp3890
Rp3891
tp3892
a(g56
g6
(g18
S'\xfb\x11\x12;'
p3893
tp3894
Rp3895
tp3896
asg73
g15
sa(dp3897
g2
S'../../../data/emanuela/activity-recognition/images/NTCIR-Lifelog-256/u1/2015-03-14/b00000237_21i6bq_20150314_083025e.jpg'
p3898
sg4
(lp3899
(g15
g6
(g18
S'\xb9\xfa&?'
p3900
tp3901
Rp3902
tp3903
a(g108
g6
(g18
S'\xb3\xb2V>'
p3904
tp3905
Rp3906
tp3907
a(g166
g6
(g18
S'\xe0\x88\xc3='
p3908
tp3909
Rp3910
tp3911
a(g32
g6
(g18
S'\xd6\x9d\x14='
p3912
tp3913
Rp3914
tp3915
a(g205
g6
(g18
S'\x97J);'
p3916
tp3917
Rp3918
tp3919
asg73
g15
sa(dp3920
g2
S'../../../data/emanuela/activity-recognition/images/NTCIR-Lifelog-256/u3/2015-07-30/b00005913_21i79q_20150730_203659e.jpg'
p3921
sg4
(lp3922
(g15
g6
(g18
S'\t\x1aZ?'
p3923
tp3924
Rp3925
tp3926
a(g68
g6
(g18
S'\xe8;\xe6='
p3927
tp3928
Rp3929
tp3930
a(g32
g6
(g18
S'\xb6.V<'
p3931
tp3932
Rp3933
tp3934
a(g847
g6
(g18
S';\xde\x14<'
p3935
tp3936
Rp3937
tp3938
a(g166
g6
(g18
S'\xea\x02/;'
p3939
tp3940
Rp3941
tp3942
asg73
g15
sa(dp3943
g2
S'../../../data/emanuela/activity-recognition/images/NTCIR-Lifelog-256/u1/2015-03-08/b00000031_21i6bq_20150308_082001e.jpg'
p3944
sg4
(lp3945
(g15
g6
(g18
S'\xea\xb2Y?'
p3946
tp3947
Rp3948
tp3949
a(g32
g6
(g18
S'\xc8\x0c\x00>'
p3950
tp3951
Rp3952
tp3953
a(g108
g6
(g18
S'*\xe3&<'
p3954
tp3955
Rp3956
tp3957
a(g847
g6
(g18
S'\x11\x08\xe3;'
p3958
tp3959
Rp3960
tp3961
a(g166
g6
(g18
S'\xae\xf21;'
p3962
tp3963
Rp3964
tp3965
asg73
g15
sa(dp3966
g2
S'../../../data/emanuela/activity-recognition/images/NTCIR-Lifelog-256/u3/2015-07-23/b00000807_21i79q_20150723_204914e.jpg'
p3967
sg4
(lp3968
(g15
g6
(g18
S'\x1f\xb7n?'
p3969
tp3970
Rp3971
tp3972
a(g32
g6
(g18
S'\xd9\xedi='
p3973
tp3974
Rp3975
tp3976
a(g166
g6
(g18
S'\x9e\x80\x9a;'
p3977
tp3978
Rp3979
tp3980
a(g68
g6
(g18
S'\x82\xe4\x06;'
p3981
tp3982
Rp3983
tp3984
a(g108
g6
(g18
S'e\x9d\xc8:'
p3985
tp3986
Rp3987
tp3988
asg73
g15
sa(dp3989
g2
S'../../../data/emanuela/activity-recognition/images/NTCIR-Lifelog-256/u1/2015-02-27/b00001192_21i6bq_20150227_211749e.jpg'
p3990
sg4
(lp3991
(g15
g6
(g18
S'a\x03\xe2>'
p3992
tp3993
Rp3994
tp3995
a(g32
g6
(g18
S'x\xb5n>'
p3996
tp3997
Rp3998
tp3999
a(g205
g6
(g18
S'\x83$Y>'
p4000
tp4001
Rp4002
tp4003
a(g954
g6
(g18
S'x\xe3\x02='
p4004
tp4005
Rp4006
tp4007
a(g586
g6
(g18
S'\xb2G\xf2<'
p4008
tp4009
Rp4010
tp4011
asg73
g15
sa(dp4012
g2
S'../../../data/emanuela/activity-recognition/images/NTCIR-Lifelog-256/u2/2015-04-30/b00001576_21i7lf_20150430_191824e.jpg'
p4013
sg4
(lp4014
(g15
g6
(g18
S'\xa2cr?'
p4015
tp4016
Rp4017
tp4018
a(g32
g6
(g18
S'\x9b\x1aV='
p4019
tp4020
Rp4021
tp4022
a(g108
g6
(g18
S'%\xd8\xc89'
p4023
tp4024
Rp4025
tp4026
a(g56
g6
(g18
S't\xd1\xd08'
p4027
tp4028
Rp4029
tp4030
a(g44
g6
(g18
S'\xdb\x16\xb98'
p4031
tp4032
Rp4033
tp4034
asg73
g15
sa(dp4035
g2
S'../../../data/emanuela/activity-recognition/images/NTCIR-Lifelog-256/u1/2015-03-14/b00000256_21i6bq_20150314_084200e.jpg'
p4036
sg4
(lp4037
(g15
g6
(g18
S'\xe8Bl?'
p4038
tp4039
Rp4040
tp4041
a(g108
g6
(g18
S'\xad^\x1b='
p4042
tp4043
Rp4044
tp4045
a(g32
g6
(g18
S')c\t='
p4046
tp4047
Rp4048
tp4049
a(g44
g6
(g18
S'8\xa3\x1e;'
p4050
tp4051
Rp4052
tp4053
a(g205
g6
(g18
S'\x91{\x8e:'
p4054
tp4055
Rp4056
tp4057
asg73
g15
sa(dp4058
g2
S'../../../data/emanuela/activity-recognition/images/NTCIR-Lifelog-256/u3/2015-06-28/b00000036_21i79q_20150628_145006e.jpg'
p4059
sg4
(lp4060
(g15
g6
(g18
S'APh?'
p4061
tp4062
Rp4063
tp4064
a(g189
g6
(g18
S'\xfb\xe8F='
p4065
tp4066
Rp4067
tp4068
a(g32
g6
(g18
S'\xcb\xeds<'
p4069
tp4070
Rp4071
tp4072
a(g108
g6
(g18
S'M\xd8\r<'
p4073
tp4074
Rp4075
tp4076
a(g205
g6
(g18
S'%t\xe4;'
p4077
tp4078
Rp4079
tp4080
asg73
g15
sa(dp4081
g2
S'../../../data/emanuela/activity-recognition/images/NTCIR-Lifelog-256/u1/2015-02-26/b00000031_21i6bq_20150226_062450e.jpg'
p4082
sg4
(lp4083
(g15
g6
(g18
S'#uv?'
p4084
tp4085
Rp4086
tp4087
a(g68
g6
(g18
S'4\t\xee<'
p4088
tp4089
Rp4090
tp4091
a(g847
g6
(g18
S'\xf3}!;'
p4092
tp4093
Rp4094
tp4095
a(g32
g6
(g18
S'\xeb\x1c\xfc:'
p4096
tp4097
Rp4098
tp4099
a(g135
g6
(g18
S'h_\xa5:'
p4100
tp4101
Rp4102
tp4103
asg73
g15
sa(dp4104
g2
S'../../../data/emanuela/activity-recognition/images/NTCIR-Lifelog-256/u1/2015-03-16/b00002280_21i6bq_20150316_144812e.jpg'
p4105
sg4
(lp4106
(g15
g6
(g18
S'\x1c?\xb3>'
p4107
tp4108
Rp4109
tp4110
a(g205
g6
(g18
S'`\xef\x18>'
p4111
tp4112
Rp4113
tp4114
a(g108
g6
(g18
S'\x15\xf5\x14>'
p4115
tp4116
Rp4117
tp4118
a(g32
g6
(g18
S'\x85\xbe\xe6='
p4119
tp4120
Rp4121
tp4122
a(g348
g6
(g18
S'`\x8b\xa5='
p4123
tp4124
Rp4125
tp4126
asg73
g15
sa(dp4127
g2
S'../../../data/emanuela/activity-recognition/images/NTCIR-Lifelog-256/u2/2015-06-16/b00001793_21i7lf_20150616_152616e.jpg'
p4128
sg4
(lp4129
(g15
g6
(g18
S'\x91\x13\xc2>'
p4130
tp4131
Rp4132
tp4133
a(g6
(g7
(S'S5'
p4134
I0
I1
tp4135
Rp4136
(I3
S'|'
p4137
NNNI5
I1
I0
tp4138
bS'plane'
p4139
tp4140
Rp4141
g6
(g18
S'\x12\xb5r>'
p4142
tp4143
Rp4144
tp4145
a(g44
g6
(g18
S'\x10\xb9\x9f='
p4146
tp4147
Rp4148
tp4149
a(g32
g6
(g18
S'%F>='
p4150
tp4151
Rp4152
tp4153
a(g251
g6
(g18
S'\xe0U.='
p4154
tp4155
Rp4156
tp4157
asg73
g15
sa(dp4158
g2
S'../../../data/emanuela/activity-recognition/images/NTCIR-Lifelog-256/u1/2015-03-18/b00000440_21i6bq_20150318_122756e.jpg'
p4159
sg4
(lp4160
(g15
g6
(g18
S'\xabHd?'
p4161
tp4162
Rp4163
tp4164
a(g32
g6
(g18
S'9\x08A='
p4165
tp4166
Rp4167
tp4168
a(g108
g6
(g18
S'\xef\xb1\xbb<'
p4169
tp4170
Rp4171
tp4172
a(g847
g6
(g18
S'K_y<'
p4173
tp4174
Rp4175
tp4176
a(g166
g6
(g18
S'\x81\xf9\xd8;'
p4177
tp4178
Rp4179
tp4180
asg73
g15
sa(dp4181
g2
S'../../../data/emanuela/activity-recognition/images/NTCIR-Lifelog-256/u2/2015-06-18/b00002438_21i7lf_20150618_073826e.jpg'
p4182
sg4
(lp4183
(g15
g6
(g18
S',\xe5\xf9>'
p4184
tp4185
Rp4186
tp4187
a(g135
g6
(g18
S'\xe0 T>'
p4188
tp4189
Rp4190
tp4191
a(g56
g6
(g18
S'\xfa\xbd\x15>'
p4192
tp4193
Rp4194
tp4195
a(g32
g6
(g18
S'=\r\xce='
p4196
tp4197
Rp4198
tp4199
a(g108
g6
(g18
S'\xec\xcc\x8e<'
p4200
tp4201
Rp4202
tp4203
asg73
g15
sa(dp4204
g2
S'../../../data/emanuela/activity-recognition/images/NTCIR-Lifelog-256/u1/2015-03-14/b00000243_21i6bq_20150314_083402e.jpg'
p4205
sg4
(lp4206
(g15
g6
(g18
S'\x97?Q?'
p4207
tp4208
Rp4209
tp4210
a(g32
g6
(g18
S'QS\xfc='
p4211
tp4212
Rp4213
tp4214
a(g108
g6
(g18
S'\xc2\x8c\xf5<'
p4215
tp4216
Rp4217
tp4218
a(g205
g6
(g18
S'\x9d\xa3\x05<'
p4219
tp4220
Rp4221
tp4222
a(g166
g6
(g18
S'\xd5\xdf\xe3;'
p4223
tp4224
Rp4225
tp4226
asg73
g15
sa(dp4227
g2
S'../../../data/emanuela/activity-recognition/images/NTCIR-Lifelog-256/u3/2015-07-11/b00000967_21i79q_20150711_160234e.jpg'
p4228
sg4
(lp4229
(g15
g6
(g18
S'\x1d\xf3\x05?'
p4230
tp4231
Rp4232
tp4233
a(g108
g6
(g18
S'Gk\xcc>'
p4234
tp4235
Rp4236
tp4237
a(g32
g6
(g18
S'\x90r\x86='
p4238
tp4239
Rp4240
tp4241
a(g166
g6
(g18
S'\x0b"\x0e;'
p4242
tp4243
Rp4244
tp4245
a(g189
g6
(g18
S'w\xe0\x07;'
p4246
tp4247
Rp4248
tp4249
asg73
g15
sa(dp4250
g2
S'../../../data/emanuela/activity-recognition/images/NTCIR-Lifelog-256/u2/2015-06-21/b00005010_21i7lf_20150621_115042e.jpg'
p4251
sg4
(lp4252
(g15
g6
(g18
S'\xd4\x1d\x94>'
p4253
tp4254
Rp4255
tp4256
a(g166
g6
(g18
S'\xac\x97\x83>'
p4257
tp4258
Rp4259
tp4260
a(g32
g6
(g18
S'\xf3\xfc\x82>'
p4261
tp4262
Rp4263
tp4264
a(g294
g6
(g18
S'\xd0\x1c\x89='
p4265
tp4266
Rp4267
tp4268
a(g108
g6
(g18
S'\xacB4='
p4269
tp4270
Rp4271
tp4272
asg73
g15
sa(dp4273
g2
S'../../../data/emanuela/activity-recognition/images/NTCIR-Lifelog-256/u2/2015-05-01/b00002133_21i7lf_20150501_124343e.jpg'
p4274
sg4
(lp4275
(g32
g6
(g18
S'\xfb\xb0-?'
p4276
tp4277
Rp4278
tp4279
a(g15
g6
(g18
S'\xf0\xd7\x9a>'
p4280
tp4281
Rp4282
tp4283
a(g205
g6
(g18
S'\xec#%<'
p4284
tp4285
Rp4286
tp4287
a(g108
g6
(g18
S'\xb9b\xe3;'
p4288
tp4289
Rp4290
tp4291
a(g96
g6
(g18
S'\x7f\xd5\xa09'
p4292
tp4293
Rp4294
tp4295
asg73
g15
sa(dp4296
g2
S'../../../data/emanuela/activity-recognition/images/NTCIR-Lifelog-256/u1/2015-03-14/b00000266_21i6bq_20150314_084757e.jpg'
p4297
sg4
(lp4298
(g15
g6
(g18
S'H\xde\n?'
p4299
tp4300
Rp4301
tp4302
a(g348
g6
(g18
S'\xeaw\x99>'
p4303
tp4304
Rp4305
tp4306
a(g108
g6
(g18
S'Z\x97\xbd='
p4307
tp4308
Rp4309
tp4310
a(g32
g6
(g18
S'x\xb2\xff<'
p4311
tp4312
Rp4313
tp4314
a(g44
g6
(g18
S'\x15\x0b$<'
p4315
tp4316
Rp4317
tp4318
asg73
g15
sa(dp4319
g2
S'../../../data/emanuela/activity-recognition/images/NTCIR-Lifelog-256/u3/2015-07-29/b00004657_21i79q_20150729_205120e.jpg'
p4320
sg4
(lp4321
(g15
g6
(g18
S'{La?'
p4322
tp4323
Rp4324
tp4325
a(g32
g6
(g18
S'1\xc8\xa8='
p4326
tp4327
Rp4328
tp4329
a(g108
g6
(g18
S'T9\x8f<'
p4330
tp4331
Rp4332
tp4333
a(g205
g6
(g18
S'\xd9\x7f\xf3;'
p4334
tp4335
Rp4336
tp4337
a(g251
g6
(g18
S'PPk;'
p4338
tp4339
Rp4340
tp4341
asg73
g15
sa(dp4342
g2
S'../../../data/emanuela/activity-recognition/images/NTCIR-Lifelog-256/u1/2015-03-07/b00000034_21i6bq_20150307_073836e.jpg'
p4343
sg4
(lp4344
(g108
g6
(g18
S'\xc4\xc2\xf2>'
p4345
tp4346
Rp4347
tp4348
a(g15
g6
(g18
S'\xe6\xea\xb9>'
p4349
tp4350
Rp4351
tp4352
a(g32
g6
(g18
S'G\x17Y='
p4353
tp4354
Rp4355
tp4356
a(g56
g6
(g18
S'\x8f8+='
p4357
tp4358
Rp4359
tp4360
a(g135
g6
(g18
S'\xad;\xfc<'
p4361
tp4362
Rp4363
tp4364
asg73
g15
sa(dp4365
g2
S'../../../data/emanuela/activity-recognition/images/NTCIR-Lifelog-256/u3/2015-06-28/b00000015_21i79q_20150628_143816e.jpg'
p4366
sg4
(lp4367
(g15
g6
(g18
S'k\x94i?'
p4368
tp4369
Rp4370
tp4371
a(g189
g6
(g18
S'K\xd1\xf9<'
p4372
tp4373
Rp4374
tp4375
a(g205
g6
(g18
S'+\xa1\xbb<'
p4376
tp4377
Rp4378
tp4379
a(g166
g6
(g18
S'\xe6\x1dO<'
p4380
tp4381
Rp4382
tp4383
a(g108
g6
(g18
S'\xd18\xef;'
p4384
tp4385
Rp4386
tp4387
asg73
g15
sa(dp4388
g2
S'../../../data/emanuela/activity-recognition/images/NTCIR-Lifelog-256/u2/2015-06-18/b00002443_21i7lf_20150618_073838e.jpg'
p4389
sg4
(lp4390
(g15
g6
(g18
S'\xe1)D?'
p4391
tp4392
Rp4393
tp4394
a(g32
g6
(g18
S'\x9e\xb4\xa2='
p4395
tp4396
Rp4397
tp4398
a(g56
g6
(g18
S')\x87\x91='
p4399
tp4400
Rp4401
tp4402
a(g135
g6
(g18
S';M\x8a='
p4403
tp4404
Rp4405
tp4406
a(g108
g6
(g18
S'\x8b\xb2\x88;'
p4407
tp4408
Rp4409
tp4410
asg73
g15
sa(dp4411
g2
S'../../../data/emanuela/activity-recognition/images/NTCIR-Lifelog-256/u3/2015-07-15/b00000707_21i79q_20150715_190546e.jpg'
p4412
sg4
(lp4413
(g15
g6
(g18
S'2Q\x1a?'
p4414
tp4415
Rp4416
tp4417
a(g32
g6
(g18
S'6\xd22>'
p4418
tp4419
Rp4420
tp4421
a(g108
g6
(g18
S'T\xdd\xe8='
p4422
tp4423
Rp4424
tp4425
a(g166
g6
(g18
S'B\xc5\xaa='
p4426
tp4427
Rp4428
tp4429
a(g189
g6
(g18
S'\xec\xae\xcf;'
p4430
tp4431
Rp4432
tp4433
asg73
g15
sa(dp4434
g2
S'../../../data/emanuela/activity-recognition/images/NTCIR-Lifelog-256/u2/2015-04-20/b00001051_21i7lf_20150420_202533e.jpg'
p4435
sg4
(lp4436
(g15
g6
(g18
S'\xca\xd8~?'
p4437
tp4438
Rp4439
tp4440
a(g32
g6
(g18
S'e\x14t;'
p4441
tp4442
Rp4443
tp4444
a(g68
g6
(g18
S'\x92\x8c\xf19'
p4445
tp4446
Rp4447
tp4448
a(g108
g6
(g18
S'\x18\x9f\xa78'
p4449
tp4450
Rp4451
tp4452
a(g251
g6
(g18
S'\x14\xf5\x858'
p4453
tp4454
Rp4455
tp4456
asg73
g15
sa(dp4457
g2
S'../../../data/emanuela/activity-recognition/images/NTCIR-Lifelog-256/u3/2015-07-13/b00002726_21i79q_20150713_175554e.jpg'
p4458
sg4
(lp4459
(g15
g6
(g18
S'$\xa4w?'
p4460
tp4461
Rp4462
tp4463
a(g32
g6
(g18
S'\x91\xed\x04='
p4464
tp4465
Rp4466
tp4467
a(g44
g6
(g18
S']b\x928'
p4468
tp4469
Rp4470
tp4471
a(g56
g6
(g18
S'0\xa9\xd87'
p4472
tp4473
Rp4474
tp4475
a(g251
g6
(g18
S'\x82|\xcd7'
p4476
tp4477
Rp4478
tp4479
asg73
g15
sa(dp4480
g2
S'../../../data/emanuela/activity-recognition/images/NTCIR-Lifelog-256/u2/2015-06-19/b00003250_21i7lf_20150619_084533e.jpg'
p4481
sg4
(lp4482
(g15
g6
(g18
S'o\x97Z?'
p4483
tp4484
Rp4485
tp4486
a(g32
g6
(g18
S'TH\x07>'
p4487
tp4488
Rp4489
tp4490
a(g108
g6
(g18
S'a\xb5\x1e<'
p4491
tp4492
Rp4493
tp4494
a(g44
g6
(g18
S'\x14\x85\x1c;'
p4495
tp4496
Rp4497
tp4498
a(g56
g6
(g18
S'\x93\x0f\x9c:'
p4499
tp4500
Rp4501
tp4502
asg73
g15
sa(dp4503
g2
S'../../../data/emanuela/activity-recognition/images/NTCIR-Lifelog-256/u1/2015-03-14/b00000229_21i6bq_20150314_082544e.jpg'
p4504
sg4
(lp4505
(g15
g6
(g18
S'\xb9YW?'
p4506
tp4507
Rp4508
tp4509
a(g108
g6
(g18
S'\xb5u\r>'
p4510
tp4511
Rp4512
tp4513
a(g32
g6
(g18
S'*\xaf\x11<'
p4514
tp4515
Rp4516
tp4517
a(g44
g6
(g18
S'h\xf5\x81;'
p4518
tp4519
Rp4520
tp4521
a(g166
g6
(g18
S'\xf1Z#;'
p4522
tp4523
Rp4524
tp4525
asg73
g15
sa(dp4526
g2
S'../../../data/emanuela/activity-recognition/images/NTCIR-Lifelog-256/u1/2015-03-02/b00000066_21i6bq_20150302_071405e.jpg'
p4527
sg4
(lp4528
(g15
g6
(g18
S'\xfa\xc3|?'
p4529
tp4530
Rp4531
tp4532
a(g32
g6
(g18
S'\xa5\xc2\x18<'
p4533
tp4534
Rp4535
tp4536
a(g108
g6
(g18
S'o\x1f\x82:'
p4537
tp4538
Rp4539
tp4540
a(g56
g6
(g18
S'\xbaO\x03:'
p4541
tp4542
Rp4543
tp4544
a(g44
g6
(g18
S'"\x06\xea9'
p4545
tp4546
Rp4547
tp4548
asg73
g15
sa(dp4549
g2
S'../../../data/emanuela/activity-recognition/images/NTCIR-Lifelog-256/u1/2015-02-28/b00000268_21i6bq_20150228_082837e.jpg'
p4550
sg4
(lp4551
(g108
g6
(g18
S'\xb4\xd4\xda>'
p4552
tp4553
Rp4554
tp4555
a(g15
g6
(g18
S'<2\xda>'
p4556
tp4557
Rp4558
tp4559
a(g166
g6
(g18
S'\xa2\xd6\x95='
p4560
tp4561
Rp4562
tp4563
a(g32
g6
(g18
S'\xf2aM='
p4564
tp4565
Rp4566
tp4567
a(g205
g6
(g18
S'\xac\x80\n<'
p4568
tp4569
Rp4570
tp4571
asg73
g15
sa(dp4572
g2
S'../../../data/emanuela/activity-recognition/images/NTCIR-Lifelog-256/u1/2015-03-05/b00001249_21i6bq_20150305_203112e.jpg'
p4573
sg4
(lp4574
(g15
g6
(g18
S'\xf0-r?'
p4575
tp4576
Rp4577
tp4578
a(g68
g6
(g18
S'\x1a&\xf0<'
p4579
tp4580
Rp4581
tp4582
a(g32
g6
(g18
S'*?\x87<'
p4583
tp4584
Rp4585
tp4586
a(g166
g6
(g18
S'\xf8eS;'
p4587
tp4588
Rp4589
tp4590
a(g847
g6
(g18
S'-\x0bR;'
p4591
tp4592
Rp4593
tp4594
asg73
g15
sa(dp4595
g2
S'../../../data/emanuela/activity-recognition/images/NTCIR-Lifelog-256/u3/2015-07-11/b00000961_21i79q_20150711_155900e.jpg'
p4596
sg4
(lp4597
(g108
g6
(g18
S'\x0f\x84\xc4>'
p4598
tp4599
Rp4600
tp4601
a(g348
g6
(g18
S'\x8b\x19\xb8>'
p4602
tp4603
Rp4604
tp4605
a(g15
g6
(g18
S'\xd2\x1fS>'
p4606
tp4607
Rp4608
tp4609
a(g189
g6
(g18
S'\xb7\xe2\xc9<'
p4610
tp4611
Rp4612
tp4613
a(g32
g6
(g18
S'\x13\xb8\xe6;'
p4614
tp4615
Rp4616
tp4617
asg73
g15
sa(dp4618
g2
S'../../../data/emanuela/activity-recognition/images/NTCIR-Lifelog-256/u2/2015-04-20/b00001074_21i7lf_20150420_204004e.jpg'
p4619
sg4
(lp4620
(g15
g6
(g18
S'YK^?'
p4621
tp4622
Rp4623
tp4624
a(g32
g6
(g18
S'=\xd5\xa2='
p4625
tp4626
Rp4627
tp4628
a(g135
g6
(g18
S'\x1f\xa3\x12<'
p4629
tp4630
Rp4631
tp4632
a(g96
g6
(g18
S'\xe3D\xe3;'
p4633
tp4634
Rp4635
tp4636
a(g166
g6
(g18
S'\xe5+\xc6;'
p4637
tp4638
Rp4639
tp4640
asg73
g15
sa(dp4641
g2
S'../../../data/emanuela/activity-recognition/images/NTCIR-Lifelog-256/u2/2015-04-20/b00001053_21i7lf_20150420_202647e.jpg'
p4642
sg4
(lp4643
(g15
g6
(g18
S'L{x?'
p4644
tp4645
Rp4646
tp4647
a(g32
g6
(g18
S'\t\xa3\xc1<'
p4648
tp4649
Rp4650
tp4651
a(g108
g6
(g18
S'5\xb2\x86;'
p4652
tp4653
Rp4654
tp4655
a(g68
g6
(g18
S'\x9f\xba\xbe9'
p4656
tp4657
Rp4658
tp4659
a(g44
g6
(g18
S'\xc1\xdb\xa29'
p4660
tp4661
Rp4662
tp4663
asg73
g15
sa(dp4664
g2
S'../../../data/emanuela/activity-recognition/images/NTCIR-Lifelog-256/u3/2015-06-24/b00000758_21i79q_20150624_164235e.jpg'
p4665
sg4
(lp4666
(g15
g6
(g18
S'\xa9"\xa2>'
p4667
tp4668
Rp4669
tp4670
a(g348
g6
(g18
S'N\xe8\x9a>'
p4671
tp4672
Rp4673
tp4674
a(g954
g6
(g18
S'\xe8)\x13>'
p4675
tp4676
Rp4677
tp4678
a(g205
g6
(g18
S'k\xd7\xde='
p4679
tp4680
Rp4681
tp4682
a(g56
g6
(g18
S'\x03\xfd\r='
p4683
tp4684
Rp4685
tp4686
asg73
g15
sa(dp4687
g2
S'../../../data/emanuela/activity-recognition/images/NTCIR-Lifelog-256/u3/2015-07-25/b00001291_21i79q_20150725_162337e.jpg'
p4688
sg4
(lp4689
(g15
g6
(g18
S'\x19\xe7G?'
p4690
tp4691
Rp4692
tp4693
a(g108
g6
(g18
S'^\xcc\x97='
p4694
tp4695
Rp4696
tp4697
a(g348
g6
(g18
S'\xe3Sf='
p4698
tp4699
Rp4700
tp4701
a(g135
g6
(g18
S'0\xc2Q='
p4702
tp4703
Rp4704
tp4705
a(g2581
g6
(g18
S'\x88a\x9a<'
p4706
tp4707
Rp4708
tp4709
asg73
g15
sa(dp4710
g2
S'../../../data/emanuela/activity-recognition/images/NTCIR-Lifelog-256/u3/2015-07-29/b00004660_21i79q_20150729_205316e.jpg'
p4711
sg4
(lp4712
(g15
g6
(g18
S'\xac"n?'
p4713
tp4714
Rp4715
tp4716
a(g32
g6
(g18
S'\xebG\x8e='
p4717
tp4718
Rp4719
tp4720
a(g56
g6
(g18
S'\xde\xde\xd68'
p4721
tp4722
Rp4723
tp4724
a(g68
g6
(g18
S'\x8f\x02\xbf8'
p4725
tp4726
Rp4727
tp4728
a(g44
g6
(g18
S',\xb9\x048'
p4729
tp4730
Rp4731
tp4732
asg73
g15
sa(dp4733
g2
S'../../../data/emanuela/activity-recognition/images/NTCIR-Lifelog-256/u1/2015-03-14/b00000274_21i6bq_20150314_085258e.jpg'
p4734
sg4
(lp4735
(g15
g6
(g18
S's\xedv?'
p4736
tp4737
Rp4738
tp4739
a(g32
g6
(g18
S'\xdb\xd4\xa7<'
p4740
tp4741
Rp4742
tp4743
a(g108
g6
(g18
S'X\xe3-<'
p4744
tp4745
Rp4746
tp4747
a(g44
g6
(g18
S'-Q\xcd:'
p4748
tp4749
Rp4750
tp4751
a(g166
g6
(g18
S']b\x9d:'
p4752
tp4753
Rp4754
tp4755
asg73
g15
sa(dp4756
g2
S'../../../data/emanuela/activity-recognition/images/NTCIR-Lifelog-256/u3/2015-07-23/b00000799_21i79q_20150723_204435e.jpg'
p4757
sg4
(lp4758
(g15
g6
(g18
S'\xcb\xde|?'
p4759
tp4760
Rp4761
tp4762
a(g32
g6
(g18
S'=\xb5&<'
p4763
tp4764
Rp4765
tp4766
a(g166
g6
(g18
S'gjG:'
p4767
tp4768
Rp4769
tp4770
a(g108
g6
(g18
S'@x>:'
p4771
tp4772
Rp4773
tp4774
a(g68
g6
(g18
S'*7\x859'
p4775
tp4776
Rp4777
tp4778
asg73
g15
sa(dp4779
g2
S'../../../data/emanuela/activity-recognition/images/NTCIR-Lifelog-256/u2/2015-06-16/b00001791_21i7lf_20150616_152318e.jpg'
p4780
sg4
(lp4781
(g15
g6
(g18
S'G\xc7<?'
p4782
tp4783
Rp4784
tp4785
a(g32
g6
(g18
S')v\xf9='
p4786
tp4787
Rp4788
tp4789
a(g56
g6
(g18
S'\x15\xbf\x82='
p4790
tp4791
Rp4792
tp4793
a(g135
g6
(g18
S'\x1b"\xe4<'
p4794
tp4795
Rp4796
tp4797
a(g44
g6
(g18
S')\x1a\x88<'
p4798
tp4799
Rp4800
tp4801
asg73
g15
sa(dp4802
g2
S'../../../data/emanuela/activity-recognition/images/NTCIR-Lifelog-256/u3/2015-07-12/b00002018_21i79q_20150712_174836e.jpg'
p4803
sg4
(lp4804
(g15
g6
(g18
S'I\xa8p?'
p4805
tp4806
Rp4807
tp4808
a(g32
g6
(g18
S'R\xf4q='
p4809
tp4810
Rp4811
tp4812
a(g44
g6
(g18
S'\xd6k\x949'
p4813
tp4814
Rp4815
tp4816
a(g68
g6
(g18
S'\xbfR#9'
p4817
tp4818
Rp4819
tp4820
a(g56
g6
(g18
S'\xb0! 9'
p4821
tp4822
Rp4823
tp4824
asg73
g15
sa(dp4825
g2
S'../../../data/emanuela/activity-recognition/images/NTCIR-Lifelog-256/u3/2015-06-15/b00000431_21i79q_20150615_125038e.jpg'
p4826
sg4
(lp4827
(g15
g6
(g18
S'\x18^Q?'
p4828
tp4829
Rp4830
tp4831
a(g32
g6
(g18
S'\xd05:>'
p4832
tp4833
Rp4834
tp4835
a(g108
g6
(g18
S'\x94WK9'
p4836
tp4837
Rp4838
tp4839
a(g68
g6
(g18
S'$\x13k8'
p4840
tp4841
Rp4842
tp4843
a(g166
g6
(g18
S'C\xde\x188'
p4844
tp4845
Rp4846
tp4847
asg73
g15
sa(dp4848
g2
S'../../../data/emanuela/activity-recognition/images/NTCIR-Lifelog-256/u3/2015-07-14/b00003788_21i79q_20150714_182735e.jpg'
p4849
sg4
(lp4850
(g15
g6
(g18
S'\xcd\x1b^?'
p4851
tp4852
Rp4853
tp4854
a(g32
g6
(g18
S'\x0c\x04\xb8='
p4855
tp4856
Rp4857
tp4858
a(g294
g6
(g18
S'*\xfb^<'
p4859
tp4860
Rp4861
tp4862
a(g166
g6
(g18
S'\x8c\xd3#<'
p4863
tp4864
Rp4865
tp4866
a(g68
g6
(g18
S'\x95\x91\xa3;'
p4867
tp4868
Rp4869
tp4870
asg73
g15
sa(dp4871
g2
S'../../../data/emanuela/activity-recognition/images/NTCIR-Lifelog-256/u1/2015-03-19/b00002649_21i6bq_20150319_184145e.jpg'
p4872
sg4
(lp4873
(g135
g6
(g18
S'|\x02H>'
p4874
tp4875
Rp4876
tp4877
a(g56
g6
(g18
S'\x88\xcd\r>'
p4878
tp4879
Rp4880
tp4881
a(g15
g6
(g18
S'\xa2}\xdf='
p4882
tp4883
Rp4884
tp4885
a(g205
g6
(g18
S'\xee\x85\xdb='
p4886
tp4887
Rp4888
tp4889
a(g108
g6
(g18
S'\xce\xc4\xcb='
p4890
tp4891
Rp4892
tp4893
asg73
g15
sa(dp4894
g2
S'../../../data/emanuela/activity-recognition/images/NTCIR-Lifelog-256/u2/2015-05-08/b00009680_21i7lf_20150508_202904e.jpg'
p4895
sg4
(lp4896
(g15
g6
(g18
S'|`\x7f?'
p4897
tp4898
Rp4899
tp4900
a(g32
g6
(g18
S'\x8a\x91\x98:'
p4901
tp4902
Rp4903
tp4904
a(g68
g6
(g18
S'\xd6\x10\x85:'
p4905
tp4906
Rp4907
tp4908
a(g96
g6
(g18
S'?zG8'
p4909
tp4910
Rp4911
tp4912
a(g847
g6
(g18
S'\xf04A8'
p4913
tp4914
Rp4915
tp4916
asg73
g15
sa(dp4917
g2
S'../../../data/emanuela/activity-recognition/images/NTCIR-Lifelog-256/u2/2015-05-04/b00004517_21i7lf_20150504_102003e.jpg'
p4918
sg4
(lp4919
(g15
g6
(g18
S'M"Y?'
p4920
tp4921
Rp4922
tp4923
a(g32
g6
(g18
S'\xc0R\xf6='
p4924
tp4925
Rp4926
tp4927
a(g251
g6
(g18
S'~0\xb7;'
p4928
tp4929
Rp4930
tp4931
a(g294
g6
(g18
S'K\xf5\x97;'
p4932
tp4933
Rp4934
tp4935
a(g348
g6
(g18
S'g\xfd\x8c;'
p4936
tp4937
Rp4938
tp4939
asg73
g15
sa(dp4940
g2
S'../../../data/emanuela/activity-recognition/images/NTCIR-Lifelog-256/u2/2015-04-29/b00000278_21i7lf_20150429_195249e.jpg'
p4941
sg4
(lp4942
(g15
g6
(g18
S'\xaf%)?'
p4943
tp4944
Rp4945
tp4946
a(g32
g6
(g18
S'\xa6\xe5\xa7>'
p4947
tp4948
Rp4949
tp4950
a(g56
g6
(g18
S'\x1d\xfb\xef;'
p4951
tp4952
Rp4953
tp4954
a(g108
g6
(g18
S'v\xab\xa9:'
p4955
tp4956
Rp4957
tp4958
a(g44
g6
(g18
S'\xf5\xe3q:'
p4959
tp4960
Rp4961
tp4962
asg73
g15
sa(dp4963
g2
S'../../../data/emanuela/activity-recognition/images/NTCIR-Lifelog-256/u1/2015-03-02/b00000045_21i6bq_20150302_070121e.jpg'
p4964
sg4
(lp4965
(g15
g6
(g18
S'\x0c\xeb[?'
p4966
tp4967
Rp4968
tp4969
a(g32
g6
(g18
S'+\xff\xda='
p4970
tp4971
Rp4972
tp4973
a(g108
g6
(g18
S'?\xa7\x1d<'
p4974
tp4975
Rp4976
tp4977
a(g56
g6
(g18
S'(\xd0\xe8;'
p4978
tp4979
Rp4980
tp4981
a(g348
g6
(g18
S'\xe2\xf8\xe5;'
p4982
tp4983
Rp4984
tp4985
asg73
g15
sa(dp4986
g2
S'../../../data/emanuela/activity-recognition/images/NTCIR-Lifelog-256/u2/2015-05-01/b00002666_21i7lf_20150501_210307e.jpg'
p4987
sg4
(lp4988
(g251
g6
(g18
S'I\x1c\xc0>'
p4989
tp4990
Rp4991
tp4992
a(g15
g6
(g18
S'qc\xbf>'
p4993
tp4994
Rp4995
tp4996
a(g294
g6
(g18
S'-\xd3j='
p4997
tp4998
Rp4999
tp5000
a(g189
g6
(g18
S'Q\x89L='
p5001
tp5002
Rp5003
tp5004
a(g348
g6
(g18
S'\\7*='
p5005
tp5006
Rp5007
tp5008
asg73
g15
sa(dp5009
g2
S'../../../data/emanuela/activity-recognition/images/NTCIR-Lifelog-256/u1/2015-03-14/b00000210_21i6bq_20150314_081659e.jpg'
p5010
sg4
(lp5011
(g15
g6
(g18
S'f`G?'
p5012
tp5013
Rp5014
tp5015
a(g108
g6
(g18
S'41E>'
p5016
tp5017
Rp5018
tp5019
a(g166
g6
(g18
S'`_{<'
p5020
tp5021
Rp5022
tp5023
a(g32
g6
(g18
S'\xc8\xa0\x16<'
p5024
tp5025
Rp5026
tp5027
a(g56
g6
(g18
S'\x85\x9f\xa3:'
p5028
tp5029
Rp5030
tp5031
asg73
g15
sa(dp5032
g2
S'../../../data/emanuela/activity-recognition/images/NTCIR-Lifelog-256/u3/2015-07-25/b00001349_21i79q_20150725_165952e.jpg'
p5033
sg4
(lp5034
(g135
g6
(g18
S'\xdc.\x84>'
p5035
tp5036
Rp5037
tp5038
a(g15
g6
(g18
S'\xff\x9fj>'
p5039
tp5040
Rp5041
tp5042
a(g96
g6
(g18
S'[Y\xc5='
p5043
tp5044
Rp5045
tp5046
a(g189
g6
(g18
S'7{\xc0='
p5047
tp5048
Rp5049
tp5050
a(g1541
g6
(g18
S'\x99\x9c\x91='
p5051
tp5052
Rp5053
tp5054
asg73
g15
sa(dp5055
g2
S'../../../data/emanuela/activity-recognition/images/NTCIR-Lifelog-256/u2/2015-05-06/b00006599_21i7lf_20150506_122606e.jpg'
p5056
sg4
(lp5057
(g15
g6
(g18
S'\x1e$\x00?'
p5058
tp5059
Rp5060
tp5061
a(g32
g6
(g18
S'\xc2S\xfc>'
p5062
tp5063
Rp5064
tp5065
a(g44
g6
(g18
S"\xd9'8;"
p5066
tp5067
Rp5068
tp5069
a(g166
g6
(g18
S'\xd23\xbd:'
p5070
tp5071
Rp5072
tp5073
a(g847
g6
(g18
S'\xe08;:'
p5074
tp5075
Rp5076
tp5077
asg73
g15
sa(dp5078
g2
S'../../../data/emanuela/activity-recognition/images/NTCIR-Lifelog-256/u3/2015-06-24/b00000759_21i79q_20150624_164313e.jpg'
p5079
sg4
(lp5080
(g348
g6
(g18
S'\x97GE?'
p5081
tp5082
Rp5083
tp5084
a(g15
g6
(g18
S'@\x0e\x1a>'
p5085
tp5086
Rp5087
tp5088
a(g205
g6
(g18
S'\x7f\xeb\xaa<'
p5089
tp5090
Rp5091
tp5092
a(g954
g6
(g18
S'\xa5\xca~<'
p5093
tp5094
Rp5095
tp5096
a(g135
g6
(g18
S'\x0bN\x0e<'
p5097
tp5098
Rp5099
tp5100
asg73
g15
sa(dp5101
g2
S'../../../data/emanuela/activity-recognition/images/NTCIR-Lifelog-256/u3/2015-07-17/b00000036_21i79q_20150717_140407e.jpg'
p5102
sg4
(lp5103
(g15
g6
(g18
S'Q\xc3t?'
p5104
tp5105
Rp5106
tp5107
a(g32
g6
(g18
S'\xc7Z$='
p5108
tp5109
Rp5110
tp5111
a(g205
g6
(g18
S'8\xbbn:'
p5112
tp5113
Rp5114
tp5115
a(g108
g6
(g18
S'Y\xd0m:'
p5116
tp5117
Rp5118
tp5119
a(g251
g6
(g18
S'\xc5&g:'
p5120
tp5121
Rp5122
tp5123
asg73
g15
sa(dp5124
g2
S'../../../data/emanuela/activity-recognition/images/NTCIR-Lifelog-256/u2/2015-04-28/b00006658_21i7lf_20150428_123734e.jpg'
p5125
sg4
(lp5126
(g32
g6
(g18
S'"T\x15?'
p5127
tp5128
Rp5129
tp5130
a(g15
g6
(g18
S'\xc8C\xab>'
p5131
tp5132
Rp5133
tp5134
a(g108
g6
(g18
S'@n\x85='
p5135
tp5136
Rp5137
tp5138
a(g44
g6
(g18
S'\xa3\x0f\x9c;'
p5139
tp5140
Rp5141
tp5142
a(g251
g6
(g18
S'\xee\x002;'
p5143
tp5144
Rp5145
tp5146
asg73
g15
sa(dp5147
g2
S'../../../data/emanuela/activity-recognition/images/NTCIR-Lifelog-256/u1/2015-02-26/b00000035_21i6bq_20150226_062721e.jpg'
p5148
sg4
(lp5149
(g15
g6
(g18
S'N\xa1y?'
p5150
tp5151
Rp5152
tp5153
a(g68
g6
(g18
S'\x90,\x8a<'
p5154
tp5155
Rp5156
tp5157
a(g32
g6
(g18
S'\t\xbe!;'
p5158
tp5159
Rp5160
tp5161
a(g847
g6
(g18
S'\x9d3\xc7:'
p5162
tp5163
Rp5164
tp5165
a(g135
g6
(g18
S'\x08.W:'
p5166
tp5167
Rp5168
tp5169
asg73
g15
sa(dp5170
g2
S'../../../data/emanuela/activity-recognition/images/NTCIR-Lifelog-256/u2/2015-04-27/b00005905_21i7lf_20150427_184517e.jpg'
p5171
sg4
(lp5172
(g15
g6
(g18
S'5\xf1}?'
p5173
tp5174
Rp5175
tp5176
a(g251
g6
(g18
S'\x1c.\x94;'
p5177
tp5178
Rp5179
tp5180
a(g32
g6
(g18
S'\x8f\xf9>;'
p5181
tp5182
Rp5183
tp5184
a(g68
g6
(g18
S'\xd0S\x8f9'
p5185
tp5186
Rp5187
tp5188
a(g205
g6
(g18
S'\x87\x9a\x818'
p5189
tp5190
Rp5191
tp5192
asg73
g15
sa(dp5193
g2
S'../../../data/emanuela/activity-recognition/images/NTCIR-Lifelog-256/u3/2015-07-13/b00002734_21i79q_20150713_180025e.jpg'
p5194
sg4
(lp5195
(g15
g6
(g18
S'\xa9ls?'
p5196
tp5197
Rp5198
tp5199
a(g32
g6
(g18
S'\x9cg\xa7<'
p5200
tp5201
Rp5202
tp5203
a(g205
g6
(g18
S'_\xaf\n<'
p5204
tp5205
Rp5206
tp5207
a(g251
g6
(g18
S'\xe1\x9b\xc4;'
p5208
tp5209
Rp5210
tp5211
a(g108
g6
(g18
S'\x8b\xa5\xb2;'
p5212
tp5213
Rp5214
tp5215
asg73
g15
sa(dp5216
g2
S'../../../data/emanuela/activity-recognition/images/NTCIR-Lifelog-256/u1/2015-03-16/b00002278_21i6bq_20150316_144706e.jpg'
p5217
sg4
(lp5218
(g15
g6
(g18
S'6v\x7f?'
p5219
tp5220
Rp5221
tp5222
a(g32
g6
(g18
S'#.\xaf:'
p5223
tp5224
Rp5225
tp5226
a(g108
g6
(g18
S'Sl\x979'
p5227
tp5228
Rp5229
tp5230
a(g205
g6
(g18
S'\xad;\xf58'
p5231
tp5232
Rp5233
tp5234
a(g166
g6
(g18
S'\xe7h\xc58'
p5235
tp5236
Rp5237
tp5238
asg73
g15
sa(dp5239
g2
S'../../../data/emanuela/activity-recognition/images/NTCIR-Lifelog-256/u2/2015-04-20/b00001059_21i7lf_20150420_203034e.jpg'
p5240
sg4
(lp5241
(g15
g6
(g18
S'"?x?'
p5242
tp5243
Rp5244
tp5245
a(g32
g6
(g18
S'j\x9e\x98<'
p5246
tp5247
Rp5248
tp5249
a(g96
g6
(g18
S'\xfe\\\xdf:'
p5250
tp5251
Rp5252
tp5253
a(g68
g6
(g18
S'\xd3\x9c\xda:'
p5254
tp5255
Rp5256
tp5257
a(g44
g6
(g18
S'\xd6\xfb\xc5:'
p5258
tp5259
Rp5260
tp5261
asg73
g15
sa(dp5262
g2
S'../../../data/emanuela/activity-recognition/images/NTCIR-Lifelog-256/u2/2015-05-08/b00009674_21i7lf_20150508_202243e.jpg'
p5263
sg4
(lp5264
(g15
g6
(g18
S'\xc1\xb4~?'
p5265
tp5266
Rp5267
tp5268
a(g32
g6
(g18
S'\x92\xcd\xd4:'
p5269
tp5270
Rp5271
tp5272
a(g68
g6
(g18
S'>\xc2\x81:'
p5273
tp5274
Rp5275
tp5276
a(g251
g6
(g18
S'E\xe47:'
p5277
tp5278
Rp5279
tp5280
a(g847
g6
(g18
S'{\xce3:'
p5281
tp5282
Rp5283
tp5284
asg73
g15
sa(dp5285
g2
S'../../../data/emanuela/activity-recognition/images/NTCIR-Lifelog-256/u3/2015-06-28/b00000332_21i79q_20150628_173908e.jpg'
p5286
sg4
(lp5287
(g108
g6
(g18
S'VF\xc9>'
p5288
tp5289
Rp5290
tp5291
a(g15
g6
(g18
S' \x10\xae>'
p5292
tp5293
Rp5294
tp5295
a(g1541
g6
(g18
S'q\xa7\xa9='
p5296
tp5297
Rp5298
tp5299
a(g166
g6
(g18
S'\xe6\x91\x98='
p5300
tp5301
Rp5302
tp5303
a(g348
g6
(g18
S'Gd\xfc<'
p5304
tp5305
Rp5306
tp5307
asg73
g15
sa(dp5308
g2
S'../../../data/emanuela/activity-recognition/images/NTCIR-Lifelog-256/u1/2015-03-04/b00000524_21i6bq_20150304_121514e.jpg'
p5309
sg4
(lp5310
(g15
g6
(g18
S'[\xb9R?'
p5311
tp5312
Rp5313
tp5314
a(g32
g6
(g18
S'\x0e\xd0\xbf='
p5315
tp5316
Rp5317
tp5318
a(g251
g6
(g18
S'\x07\xe6\xd9<'
p5319
tp5320
Rp5321
tp5322
a(g44
g6
(g18
S'\xf9-\x94<'
p5323
tp5324
Rp5325
tp5326
a(g205
g6
(g18
S'\x05mA<'
p5327
tp5328
Rp5329
tp5330
asg73
g15
sa(dp5331
g2
S'../../../data/emanuela/activity-recognition/images/NTCIR-Lifelog-256/u2/2015-05-05/b00005989_21i7lf_20150505_185443e.jpg'
p5332
sg4
(lp5333
(g15
g6
(g18
S'\xc2\xe9}?'
p5334
tp5335
Rp5336
tp5337
a(g32
g6
(g18
S'-`\x04<'
p5338
tp5339
Rp5340
tp5341
a(g251
g6
(g18
S'\ri\t8'
p5342
tp5343
Rp5344
tp5345
a(g56
g6
(g18
S' >@7'
p5346
tp5347
Rp5348
tp5349
a(g68
g6
(g18
S"\xe0'\x057"
p5350
tp5351
Rp5352
tp5353
asg73
g15
sa(dp5354
g2
S'../../../data/emanuela/activity-recognition/images/NTCIR-Lifelog-256/u3/2015-06-28/b00000030_21i79q_20150628_144646e.jpg'
p5355
sg4
(lp5356
(g15
g6
(g18
S'\x05>1?'
p5357
tp5358
Rp5359
tp5360
a(g189
g6
(g18
S'_r\x1d>'
p5361
tp5362
Rp5363
tp5364
a(g166
g6
(g18
S'y\xab\x1f='
p5365
tp5366
Rp5367
tp5368
a(g32
g6
(g18
S'\xde\xfc\x16='
p5369
tp5370
Rp5371
tp5372
a(g108
g6
(g18
S'\xd6l\xe8<'
p5373
tp5374
Rp5375
tp5376
asg73
g15
sa(dp5377
g2
S'../../../data/emanuela/activity-recognition/images/NTCIR-Lifelog-256/u1/2015-03-14/b00000253_21i6bq_20150314_084009e.jpg'
p5378
sg4
(lp5379
(g1879
g6
(g18
S'\x01h\x96>'
p5380
tp5381
Rp5382
tp5383
a(g166
g6
(g18
S'Y\x1e0>'
p5384
tp5385
Rp5386
tp5387
a(g108
g6
(g18
S'r\xa2\x1d>'
p5388
tp5389
Rp5390
tp5391
a(g15
g6
(g18
S'R\xbe\n>'
p5392
tp5393
Rp5394
tp5395
a(g294
g6
(g18
S'=T\x8a='
p5396
tp5397
Rp5398
tp5399
asg73
g15
sa(dp5400
g2
S'../../../data/emanuela/activity-recognition/images/NTCIR-Lifelog-256/u2/2015-04-27/b00005908_21i7lf_20150427_184714e.jpg'
p5401
sg4
(lp5402
(g15
g6
(g18
S'\xd8\x07z?'
p5403
tp5404
Rp5405
tp5406
a(g251
g6
(g18
S'\x00 r<'
p5407
tp5408
Rp5409
tp5410
a(g32
g6
(g18
S'\x85\xb5\xc1;'
p5411
tp5412
Rp5413
tp5414
a(g135
g6
(g18
S'un5:'
p5415
tp5416
Rp5417
tp5418
a(g205
g6
(g18
S'\x92\xaa\x18:'
p5419
tp5420
Rp5421
tp5422
asg73
g15
sa(dp5423
g2
S'../../../data/emanuela/activity-recognition/images/NTCIR-Lifelog-256/u3/2015-06-28/b00000035_21i79q_20150628_144936e.jpg'
p5424
sg4
(lp5425
(g15
g6
(g18
S'H\xa7G?'
p5426
tp5427
Rp5428
tp5429
a(g166
g6
(g18
S'\x0f\x11\xac='
p5430
tp5431
Rp5432
tp5433
a(g108
g6
(g18
S'\x05M\x83='
p5434
tp5435
Rp5436
tp5437
a(g32
g6
(g18
S'\x00\xa2\xf7<'
p5438
tp5439
Rp5440
tp5441
a(g189
g6
(g18
S'8\x9c\xe2<'
p5442
tp5443
Rp5444
tp5445
asg73
g15
sa(dp5446
g2
S'../../../data/emanuela/activity-recognition/images/NTCIR-Lifelog-256/u1/2015-03-09/b00001091_21i6bq_20150309_182805e.jpg'
p5447
sg4
(lp5448
(g68
g6
(g18
S'\r\xa4\x12?'
p5449
tp5450
Rp5451
tp5452
a(g15
g6
(g18
S'\xf7\xad\xbe>'
p5453
tp5454
Rp5455
tp5456
a(g251
g6
(g18
S'\xa5\xe4\xaf<'
p5457
tp5458
Rp5459
tp5460
a(g847
g6
(g18
S'F\xdeE<'
p5461
tp5462
Rp5463
tp5464
a(g135
g6
(g18
S'\x80\x8a\x1b<'
p5465
tp5466
Rp5467
tp5468
asg73
g15
sa(dp5469
g2
S'../../../data/emanuela/activity-recognition/images/NTCIR-Lifelog-256/u1/2015-03-04/b00000060_21i6bq_20150304_071541e.jpg'
p5470
sg4
(lp5471
(g15
g6
(g18
S'+\x8f`?'
p5472
tp5473
Rp5474
tp5475
a(g251
g6
(g18
S':jb='
p5476
tp5477
Rp5478
tp5479
a(g68
g6
(g18
S'\xb8\x19C='
p5480
tp5481
Rp5482
tp5483
a(g847
g6
(g18
S'\xafF\x83;'
p5484
tp5485
Rp5486
tp5487
a(g96
g6
(g18
S'\xfa\x069;'
p5488
tp5489
Rp5490
tp5491
asg73
g15
sa(dp5492
g2
S'../../../data/emanuela/activity-recognition/images/NTCIR-Lifelog-256/u3/2015-07-24/b00000476_21i79q_20150724_160312e.jpg'
p5493
sg4
(lp5494
(g15
g6
(g18
S'bff?'
p5495
tp5496
Rp5497
tp5498
a(g32
g6
(g18
S'\x056\xc7='
p5499
tp5500
Rp5501
tp5502
a(g56
g6
(g18
S'q\xbe\x84:'
p5503
tp5504
Rp5505
tp5506
a(g108
g6
(g18
S'\xb21*:'
p5507
tp5508
Rp5509
tp5510
a(g166
g6
(g18
S'-}W9'
p5511
tp5512
Rp5513
tp5514
asg73
g15
sa(dp5515
g2
S'../../../data/emanuela/activity-recognition/images/NTCIR-Lifelog-256/u1/2015-03-15/b00000051_21i6bq_20150315_081442e.jpg'
p5516
sg4
(lp5517
(g135
g6
(g18
S'\xdb\xb7\xba>'
p5518
tp5519
Rp5520
tp5521
a(g15
g6
(g18
S'\x1c<\x8e>'
p5522
tp5523
Rp5524
tp5525
a(g68
g6
(g18
S'\x06\x12\xb2='
p5526
tp5527
Rp5528
tp5529
a(g166
g6
(g18
S'\x10\xa2\xa0='
p5530
tp5531
Rp5532
tp5533
a(g96
g6
(g18
S'\xa5\xcc6='
p5534
tp5535
Rp5536
tp5537
asg73
g15
sa(dp5538
g2
S'../../../data/emanuela/activity-recognition/images/NTCIR-Lifelog-256/u2/2015-06-20/b00004575_21i7lf_20150620_122421e.jpg'
p5539
sg4
(lp5540
(g15
g6
(g18
S'2ot?'
p5541
tp5542
Rp5543
tp5544
a(g32
g6
(g18
S'1\xfa$='
p5545
tp5546
Rp5547
tp5548
a(g108
g6
(g18
S'A\x1d:;'
p5549
tp5550
Rp5551
tp5552
a(g166
g6
(g18
S'\x15\xc0\xb9:'
p5553
tp5554
Rp5555
tp5556
a(g348
g6
(g18
S'A\xcc\x0e9'
p5557
tp5558
Rp5559
tp5560
asg73
g15
sa(dp5561
g2
S'../../../data/emanuela/activity-recognition/images/NTCIR-Lifelog-256/u3/2015-07-27/b00002337_21i79q_20150727_164545e.jpg'
p5562
sg4
(lp5563
(g15
g6
(g18
S'\xc99o?'
p5564
tp5565
Rp5566
tp5567
a(g32
g6
(g18
S'ZX~='
p5568
tp5569
Rp5570
tp5571
a(g108
g6
(g18
S'\x8d\xb1\xbc:'
p5572
tp5573
Rp5574
tp5575
a(g56
g6
(g18
S'ZX\t:'
p5576
tp5577
Rp5578
tp5579
a(g205
g6
(g18
S'\x17\x80\xc29'
p5580
tp5581
Rp5582
tp5583
asg73
g15
sa(dp5584
g2
S'../../../data/emanuela/activity-recognition/images/NTCIR-Lifelog-256/u3/2015-06-24/b00001266_21i79q_20150624_215554e.jpg'
p5585
sg4
(lp5586
(g954
g6
(g18
S'5\xfa\xe9>'
p5587
tp5588
Rp5589
tp5590
a(g15
g6
(g18
S'3\xe5\xa6>'
p5591
tp5592
Rp5593
tp5594
a(g348
g6
(g18
S'\x08;\xa2='
p5595
tp5596
Rp5597
tp5598
a(g32
g6
(g18
S'#\x10H='
p5599
tp5600
Rp5601
tp5602
a(g205
g6
(g18
S'\xdd\x9a\xb5<'
p5603
tp5604
Rp5605
tp5606
asg73
g15
sa(dp5607
g2
S'../../../data/emanuela/activity-recognition/images/NTCIR-Lifelog-256/u3/2015-07-30/b00005902_21i79q_20150730_202651e.jpg'
p5608
sg4
(lp5609
(g15
g6
(g18
S'\x17\xefA?'
p5610
tp5611
Rp5612
tp5613
a(g32
g6
(g18
S'K>\x8a='
p5614
tp5615
Rp5616
tp5617
a(g108
g6
(g18
S"\xa9'A="
p5618
tp5619
Rp5620
tp5621
a(g135
g6
(g18
S'1\\\xa7<'
p5622
tp5623
Rp5624
tp5625
a(g56
g6
(g18
S'\xb1\x80~<'
p5626
tp5627
Rp5628
tp5629
asg73
g15
sa.