(lp0
(dp1
S'image'
p2
S'../../../data/emanuela/activity-recognition/images/NTCIR-Lifelog-256/u1/2015-02-24/b00000925_21i6bq_20150224_160636e.jpg'
p3
sS'result'
p4
(lp5
(cnumpy.core.multiarray
scalar
p6
(cnumpy
dtype
p7
(S'S25'
p8
I0
I1
tp9
Rp10
(I3
S'|'
p11
NNNI25
I1
I0
tp12
bS'having meal with somebody'
p13
tp14
Rp15
g6
(g7
(S'f4'
p16
I0
I1
tp17
Rp18
(I3
S'<'
p19
NNNI-1
I-1
I0
tp20
bS'A\xa3j?'
p21
tp22
Rp23
tp24
a(g6
(g7
(S'S24'
p25
I0
I1
tp26
Rp27
(I3
S'|'
p28
NNNI24
I1
I0
tp29
bS'having drinks/meal alone'
p30
tp31
Rp32
g6
(g18
S'1H\xa4='
p33
tp34
Rp35
tp36
a(g6
(g7
(S'S27'
p37
I0
I1
tp38
Rp39
(I3
S'|'
p40
NNNI27
I1
I0
tp41
bS'having drinks with somebody'
p42
tp43
Rp44
g6
(g18
S'~\xd5\xcd:'
p45
tp46
Rp47
tp48
a(g6
(g7
(S'S7'
p49
I0
I1
tp50
Rp51
(I3
S'|'
p52
NNNI7
I1
I0
tp53
bS'talking'
p54
tp55
Rp56
g6
(g18
S'\xd4\xbcn:'
p57
tp58
Rp59
tp60
a(g6
(g7
(S'S8'
p61
I0
I1
tp62
Rp63
(I3
S'|'
p64
NNNI8
I1
I0
tp65
bS'shopping'
p66
tp67
Rp68
g6
(g18
S'\x18\x05\xb59'
p69
tp70
Rp71
tp72
asS'label'
p73
g15
sa(dp74
g2
S'../../../data/emanuela/activity-recognition/images/NTCIR-Lifelog-256/u3/2015-06-15/b00000891_21i79q_20150615_165924e.jpg'
p75
sg4
(lp76
(g15
g6
(g18
S'}\xd7j?'
p77
tp78
Rp79
tp80
a(g32
g6
(g18
S'i>\xa3='
p81
tp82
Rp83
tp84
a(g44
g6
(g18
S'\xfb\xe8\x0b;'
p85
tp86
Rp87
tp88
a(g6
(g7
(S'S11'
p89
I0
I1
tp90
Rp91
(I3
S'|'
p92
NNNI11
I1
I0
tp93
bS'socializing'
p94
tp95
Rp96
g6
(g18
S'\xa5\n\x949'
p97
tp98
Rp99
tp100
a(g68
g6
(g18
S'K\xb9?9'
p101
tp102
Rp103
tp104
asg73
g15
sa(dp105
g2
S'../../../data/emanuela/activity-recognition/images/NTCIR-Lifelog-256/u2/2015-04-26/b00004200_21i7lf_20150426_161844e.jpg'
p106
sg4
(lp107
(g15
g6
(g18
S'\xbc\xa9~?'
p108
tp109
Rp110
tp111
a(g32
g6
(g18
S'&]h;'
p112
tp113
Rp114
tp115
a(g44
g6
(g18
S'*\x9e\xb9:'
p116
tp117
Rp118
tp119
a(g68
g6
(g18
S'M\xe1\x059'
p120
tp121
Rp122
tp123
a(g96
g6
(g18
S'\xf2U\xb48'
p124
tp125
Rp126
tp127
asg73
g15
sa(dp128
g2
S'../../../data/emanuela/activity-recognition/images/NTCIR-Lifelog-256/u2/2015-05-03/b00003880_21i7lf_20150503_154422e.jpg'
p129
sg4
(lp130
(g15
g6
(g18
S'\xe2\xc3q?'
p131
tp132
Rp133
tp134
a(g44
g6
(g18
S'\xee\x997='
p135
tp136
Rp137
tp138
a(g32
g6
(g18
S'9\xff\xd5;'
p139
tp140
Rp141
tp142
a(g96
g6
(g18
S'OI\x07;'
p143
tp144
Rp145
tp146
a(g56
g6
(g18
S'y0]:'
p147
tp148
Rp149
tp150
asg73
g15
sa(dp151
g2
S'../../../data/emanuela/activity-recognition/images/NTCIR-Lifelog-256/u1/2015-02-26/b00000749_21i6bq_20150226_141722e.jpg'
p152
sg4
(lp153
(g15
g6
(g18
S'\xdb\x02\x7f?'
p154
tp155
Rp156
tp157
a(g44
g6
(g18
S'Gr\r;'
p158
tp159
Rp160
tp161
a(g32
g6
(g18
S'\x82~\xb6:'
p162
tp163
Rp164
tp165
a(g96
g6
(g18
S'\xe7\xa5Q9'
p166
tp167
Rp168
tp169
a(g68
g6
(g18
S'\x1b\x06\xab8'
p170
tp171
Rp172
tp173
asg73
g15
sa(dp174
g2
S'../../../data/emanuela/activity-recognition/images/NTCIR-Lifelog-256/u1/2015-03-16/b00002902_21i6bq_20150316_200255e.jpg'
p175
sg4
(lp176
(g15
g6
(g18
S'\xf3\xfe-?'
p177
tp178
Rp179
tp180
a(g44
g6
(g18
S'\xbfOW>'
p181
tp182
Rp183
tp184
a(g96
g6
(g18
S'\x95\x1e\x89='
p185
tp186
Rp187
tp188
a(g32
g6
(g18
S'L\x84\xe7<'
p189
tp190
Rp191
tp192
a(g56
g6
(g18
S'\x89\x14\xf4;'
p193
tp194
Rp195
tp196
asg73
g15
sa(dp197
g2
S'../../../data/emanuela/activity-recognition/images/NTCIR-Lifelog-256/u1/2015-02-24/b00000917_21i6bq_20150224_160138e.jpg'
p198
sg4
(lp199
(g15
g6
(g18
S'\x08\xc1|?'
p200
tp201
Rp202
tp203
a(g32
g6
(g18
S'\x17C$<'
p204
tp205
Rp206
tp207
a(g44
g6
(g18
S'\x82\xee\x83:'
p208
tp209
Rp210
tp211
a(g56
g6
(g18
S'q\xef6:'
p212
tp213
Rp214
tp215
a(g96
g6
(g18
S'\x0f\x84\xca9'
p216
tp217
Rp218
tp219
asg73
g15
sa(dp220
g2
S'../../../data/emanuela/activity-recognition/images/NTCIR-Lifelog-256/u1/2015-03-02/b00000562_21i6bq_20150302_125621e.jpg'
p221
sg4
(lp222
(g6
(g7
(S'S7'
p223
I0
I1
tp224
Rp225
(I3
S'|'
p226
NNNI7
I1
I0
tp227
bS'driving'
p228
tp229
Rp230
g6
(g18
S'?,\xcf>'
p231
tp232
Rp233
tp234
a(g32
g6
(g18
S'w\x8e(>'
p235
tp236
Rp237
tp238
a(g6
(g7
(S'S7'
p239
I0
I1
tp240
Rp241
(I3
S'|'
p242
NNNI7
I1
I0
tp243
bS'reading'
p244
tp245
Rp246
g6
(g18
S'\xde\x06\xc4='
p247
tp248
Rp249
tp250
a(g44
g6
(g18
S'\xe0Y\xa0='
p251
tp252
Rp253
tp254
a(g6
(g7
(S'S7'
p255
I0
I1
tp256
Rp257
(I3
S'|'
p258
NNNI7
I1
I0
tp259
bS'working'
p260
tp261
Rp262
g6
(g18
S'\xb2\x90\x91='
p263
tp264
Rp265
tp266
asg73
g15
sa(dp267
g2
S'../../../data/emanuela/activity-recognition/images/NTCIR-Lifelog-256/u3/2015-06-28/b00000699_21i79q_20150628_210047e.jpg'
p268
sg4
(lp269
(g15
g6
(g18
S' \x89X?'
p270
tp271
Rp272
tp273
a(g32
g6
(g18
S'\x13I\xc6='
p274
tp275
Rp276
tp277
a(g6
(g7
(S'S7'
p278
I0
I1
tp279
Rp280
(I3
S'|'
p281
NNNI7
I1
I0
tp282
bS'cooking'
p283
tp284
Rp285
g6
(g18
S'\x89|\x9c<'
p286
tp287
Rp288
tp289
a(g68
g6
(g18
S'\xf4\xa1_<'
p290
tp291
Rp292
tp293
a(g96
g6
(g18
S'V\x96\x06<'
p294
tp295
Rp296
tp297
asg73
g15
sa(dp298
g2
S'../../../data/emanuela/activity-recognition/images/NTCIR-Lifelog-256/u1/2015-02-27/b00000621_21i6bq_20150227_134859e.jpg'
p299
sg4
(lp300
(g15
g6
(g18
S'CR|?'
p301
tp302
Rp303
tp304
a(g44
g6
(g18
S'y\x162<'
p305
tp306
Rp307
tp308
a(g32
g6
(g18
S'\xbb\xef\x1d;'
p309
tp310
Rp311
tp312
a(g56
g6
(g18
S'\x90\x11%:'
p313
tp314
Rp315
tp316
a(g96
g6
(g18
S'b\x05\xad9'
p317
tp318
Rp319
tp320
asg73
g15
sa(dp321
g2
S'../../../data/emanuela/activity-recognition/images/NTCIR-Lifelog-256/u2/2015-05-07/b00007553_21i7lf_20150507_110958e.jpg'
p322
sg4
(lp323
(g15
g6
(g18
S'\x11\x83P?'
p324
tp325
Rp326
tp327
a(g32
g6
(g18
S'\x89\xac0>'
p328
tp329
Rp330
tp331
a(g68
g6
(g18
S'(\x14\xe4;'
p332
tp333
Rp334
tp335
a(g96
g6
(g18
S'AS\x17;'
p336
tp337
Rp338
tp339
a(g44
g6
(g18
S'\x11\x8d\xf9:'
p340
tp341
Rp342
tp343
asg73
g15
sa(dp344
g2
S'../../../data/emanuela/activity-recognition/images/NTCIR-Lifelog-256/u1/2015-03-04/b00000981_21i6bq_20150304_171002e.jpg'
p345
sg4
(lp346
(g15
g6
(g18
S'o[}?'
p347
tp348
Rp349
tp350
a(g32
g6
(g18
S'$\xf0\t<'
p351
tp352
Rp353
tp354
a(g68
g6
(g18
S'+\x1b\x85:'
p355
tp356
Rp357
tp358
a(g44
g6
(g18
S'\x80\xb1\xb39'
p359
tp360
Rp361
tp362
a(g96
g6
(g18
S'\x16\x1dl9'
p363
tp364
Rp365
tp366
asg73
g15
sa(dp367
g2
S'../../../data/emanuela/activity-recognition/images/NTCIR-Lifelog-256/u2/2015-04-27/b00005387_21i7lf_20150427_132453e.jpg'
p368
sg4
(lp369
(g15
g6
(g18
S'@\xbcu?'
p370
tp371
Rp372
tp373
a(g32
g6
(g18
S'$o\x1b='
p374
tp375
Rp376
tp377
a(g44
g6
(g18
S'-\x87\xae:'
p378
tp379
Rp380
tp381
a(g6
(g7
(S'S7'
p382
I0
I1
tp383
Rp384
(I3
S'|'
p385
NNNI7
I1
I0
tp386
bS'meeting'
p387
tp388
Rp389
g6
(g18
S's\xcc\xef9'
p390
tp391
Rp392
tp393
a(g96
g6
(g18
S'\xc0,\x1d9'
p394
tp395
Rp396
tp397
asg73
g15
sa(dp398
g2
S'../../../data/emanuela/activity-recognition/images/NTCIR-Lifelog-256/u1/2015-02-26/b00000774_21i6bq_20150226_143036e.jpg'
p399
sg4
(lp400
(g15
g6
(g18
S'\xd7gb?'
p401
tp402
Rp403
tp404
a(g44
g6
(g18
S'/\xcf\xc3='
p405
tp406
Rp407
tp408
a(g32
g6
(g18
S'\xe6+]<'
p409
tp410
Rp411
tp412
a(g96
g6
(g18
S'\xac4\x88;'
p413
tp414
Rp415
tp416
a(g68
g6
(g18
S'\x83\xb1\xd8:'
p417
tp418
Rp419
tp420
asg73
g15
sa(dp421
g2
S'../../../data/emanuela/activity-recognition/images/NTCIR-Lifelog-256/u2/2015-05-03/b00003846_21i7lf_20150503_152345e.jpg'
p422
sg4
(lp423
(g15
g6
(g18
S'\x14\xf7u?'
p424
tp425
Rp426
tp427
a(g32
g6
(g18
S'_\xdf\xbe<'
p428
tp429
Rp430
tp431
a(g44
g6
(g18
S'\xa6\xe2-<'
p432
tp433
Rp434
tp435
a(g68
g6
(g18
S'\xc2$\xfa:'
p436
tp437
Rp438
tp439
a(g96
g6
(g18
S'\x91i\xf7:'
p440
tp441
Rp442
tp443
asg73
g15
sa(dp444
g2
S'../../../data/emanuela/activity-recognition/images/NTCIR-Lifelog-256/u1/2015-03-04/b00001013_21i6bq_20150304_173026e.jpg'
p445
sg4
(lp446
(g15
g6
(g18
S'\xaf"y?'
p447
tp448
Rp449
tp450
a(g32
g6
(g18
S'\x96J\xce<'
p451
tp452
Rp453
tp454
a(g44
g6
(g18
S'a\xea&:'
p455
tp456
Rp457
tp458
a(g96
g6
(g18
S'\xec\x9f\xf39'
p459
tp460
Rp461
tp462
a(g68
g6
(g18
S'\x01\x1em9'
p463
tp464
Rp465
tp466
asg73
g15
sa(dp467
g2
S'../../../data/emanuela/activity-recognition/images/NTCIR-Lifelog-256/u1/2015-02-24/b00000468_21i6bq_20150224_112645e.jpg'
p468
sg4
(lp469
(g32
g6
(g18
S'\t(K?'
p470
tp471
Rp472
tp473
a(g15
g6
(g18
S'\xa8\x82G>'
p474
tp475
Rp476
tp477
a(g44
g6
(g18
S'[(\xbc;'
p478
tp479
Rp480
tp481
a(g68
g6
(g18
S'\x84vq;'
p482
tp483
Rp484
tp485
a(g96
g6
(g18
S'\xd1\x06\xab:'
p486
tp487
Rp488
tp489
asg73
g15
sa(dp490
g2
S'../../../data/emanuela/activity-recognition/images/NTCIR-Lifelog-256/u1/2015-02-23/b00000681_21i6bq_20150223_141209e.jpg'
p491
sg4
(lp492
(g15
g6
(g18
S'\xac\xcdz?'
p493
tp494
Rp495
tp496
a(g44
g6
(g18
S'\xc6\xb7\x16<'
p497
tp498
Rp499
tp500
a(g389
g6
(g18
S'dX\xc2;'
p501
tp502
Rp503
tp504
a(g96
g6
(g18
S'JiI;'
p505
tp506
Rp507
tp508
a(g56
g6
(g18
S'E>\xad:'
p509
tp510
Rp511
tp512
asg73
g15
sa(dp513
g2
S'../../../data/emanuela/activity-recognition/images/NTCIR-Lifelog-256/u3/2015-06-28/b00000698_21i79q_20150628_210012e.jpg'
p514
sg4
(lp515
(g15
g6
(g18
S'\x08VY?'
p516
tp517
Rp518
tp519
a(g68
g6
(g18
S'\xc0\x9f\x88='
p520
tp521
Rp522
tp523
a(g285
g6
(g18
S'\xeb\x85\xc5<'
p524
tp525
Rp526
tp527
a(g32
g6
(g18
S'C\x9e\xaf<'
p528
tp529
Rp530
tp531
a(g44
g6
(g18
S'\x91\xc7~<'
p532
tp533
Rp534
tp535
asg73
g15
sa(dp536
g2
S'../../../data/emanuela/activity-recognition/images/NTCIR-Lifelog-256/u2/2015-05-03/b00003919_21i7lf_20150503_160839e.jpg'
p537
sg4
(lp538
(g15
g6
(g18
S'\xaa{\x9d>'
p539
tp540
Rp541
tp542
a(g44
g6
(g18
S' \xe0\x9a>'
p543
tp544
Rp545
tp546
a(g32
g6
(g18
S'_\xcc >'
p547
tp548
Rp549
tp550
a(g6
(g7
(S'S19'
p551
I0
I1
tp552
Rp553
(I3
S'|'
p554
NNNI19
I1
I0
tp555
bS'cleaning and chores'
p556
tp557
Rp558
g6
(g18
S'\xa3\x10\x98='
p559
tp560
Rp561
tp562
a(g96
g6
(g18
S'O#*='
p563
tp564
Rp565
tp566
asg73
g15
sa(dp567
g2
S'../../../data/emanuela/activity-recognition/images/NTCIR-Lifelog-256/u2/2015-05-08/b00008994_21i7lf_20150508_123414e.jpg'
p568
sg4
(lp569
(g56
g6
(g18
S'{>\xd9>'
p570
tp571
Rp572
tp573
a(g389
g6
(g18
S'\xcd0\xd0>'
p574
tp575
Rp576
tp577
a(g15
g6
(g18
S'\xc8\r\x88='
p578
tp579
Rp580
tp581
a(g44
g6
(g18
S'\xd2\x8c>='
p582
tp583
Rp584
tp585
a(g96
g6
(g18
S'\x05\xc64='
p586
tp587
Rp588
tp589
asg73
g15
sa(dp590
g2
S'../../../data/emanuela/activity-recognition/images/NTCIR-Lifelog-256/u2/2015-05-07/b00007538_21i7lf_20150507_110051e.jpg'
p591
sg4
(lp592
(g15
g6
(g18
S'\xa1\xed]?'
p593
tp594
Rp595
tp596
a(g96
g6
(g18
S'9L\xb7='
p597
tp598
Rp599
tp600
a(g44
g6
(g18
S'C;\xf3<'
p601
tp602
Rp603
tp604
a(g32
g6
(g18
S'\xf2\xe2\x0f<'
p605
tp606
Rp607
tp608
a(g68
g6
(g18
S'P\x98\x82;'
p609
tp610
Rp611
tp612
asg73
g15
sa(dp613
g2
S'../../../data/emanuela/activity-recognition/images/NTCIR-Lifelog-256/u3/2015-06-18/b00000957_21i79q_20150618_224843e.jpg'
p614
sg4
(lp615
(g15
g6
(g18
S'?ET?'
p616
tp617
Rp618
tp619
a(g32
g6
(g18
S'\xeb\xe9\x15>'
p620
tp621
Rp622
tp623
a(g44
g6
(g18
S'\xa9bU<'
p624
tp625
Rp626
tp627
a(g96
g6
(g18
S'(\xfe\x05<'
p628
tp629
Rp630
tp631
a(g285
g6
(g18
S'p9b:'
p632
tp633
Rp634
tp635
asg73
g15
sa(dp636
g2
S'../../../data/emanuela/activity-recognition/images/NTCIR-Lifelog-256/u3/2015-06-18/b00000956_21i79q_20150618_224809e.jpg'
p637
sg4
(lp638
(g15
g6
(g18
S'\x87\x917?'
p639
tp640
Rp641
tp642
a(g44
g6
(g18
S'\xdb\xbb)>'
p643
tp644
Rp645
tp646
a(g96
g6
(g18
S'V\x06d='
p647
tp648
Rp649
tp650
a(g32
g6
(g18
S'\xacYZ='
p651
tp652
Rp653
tp654
a(g6
(g7
(S'S19'
p655
I0
I1
tp656
Rp657
(I3
S'|'
p658
NNNI19
I1
I0
tp659
bS'attending a seminar'
p660
tp661
Rp662
g6
(g18
S'j\x07\xe8;'
p663
tp664
Rp665
tp666
asg73
g15
sa(dp667
g2
S'../../../data/emanuela/activity-recognition/images/NTCIR-Lifelog-256/u1/2015-03-15/b00000877_21i6bq_20150315_160850e.jpg'
p668
sg4
(lp669
(g32
g6
(g18
S'\x1d\xbf\x18?'
p670
tp671
Rp672
tp673
a(g96
g6
(g18
S'O:D>'
p674
tp675
Rp676
tp677
a(g44
g6
(g18
S'\x91h\x85='
p678
tp679
Rp680
tp681
a(g15
g6
(g18
S'h\x98>='
p682
tp683
Rp684
tp685
a(g6
(g7
(S'S2'
p686
I0
I1
tp687
Rp688
(I3
S'|'
p689
NNNI2
I1
I0
tp690
bS'tv'
p691
tp692
Rp693
g6
(g18
S'\x86,\x1a='
p694
tp695
Rp696
tp697
asg73
g15
sa(dp698
g2
S'../../../data/emanuela/activity-recognition/images/NTCIR-Lifelog-256/u1/2015-02-26/b00000769_21i6bq_20150226_142735e.jpg'
p699
sg4
(lp700
(g15
g6
(g18
S'\xf1\x98W?'
p701
tp702
Rp703
tp704
a(g32
g6
(g18
S'`\x11\xf6='
p705
tp706
Rp707
tp708
a(g44
g6
(g18
S'\xa1\xed\xe4<'
p709
tp710
Rp711
tp712
a(g68
g6
(g18
S'\xca\x98\x84;'
p713
tp714
Rp715
tp716
a(g285
g6
(g18
S'e\xc7A;'
p717
tp718
Rp719
tp720
asg73
g15
sa(dp721
g2
S'../../../data/emanuela/activity-recognition/images/NTCIR-Lifelog-256/u1/2015-03-02/b00000565_21i6bq_20150302_125805e.jpg'
p722
sg4
(lp723
(g15
g6
(g18
S"'\xc2~?"
p724
tp725
Rp726
tp727
a(g44
g6
(g18
S'*\xfb\x00;'
p728
tp729
Rp730
tp731
a(g96
g6
(g18
S'b\xe0\xd2:'
p732
tp733
Rp734
tp735
a(g32
g6
(g18
S'\xd8\xe0\x9b:'
p736
tp737
Rp738
tp739
a(g389
g6
(g18
S'\x91l\xe17'
p740
tp741
Rp742
tp743
asg73
g15
sa(dp744
g2
S'../../../data/emanuela/activity-recognition/images/NTCIR-Lifelog-256/u1/2015-03-11/b00001277_21i6bq_20150311_212928e.jpg'
p745
sg4
(lp746
(g15
g6
(g18
S'\x9b\xe9\x14?'
p747
tp748
Rp749
tp750
a(g32
g6
(g18
S'_\xfcF>'
p751
tp752
Rp753
tp754
a(g389
g6
(g18
S'\xf9\xa6\xab='
p755
tp756
Rp757
tp758
a(g44
g6
(g18
S'i\x08,='
p759
tp760
Rp761
tp762
a(g96
g6
(g18
S'\xc0\xdf\r='
p763
tp764
Rp765
tp766
asg73
g15
sa(dp767
g2
S'../../../data/emanuela/activity-recognition/images/NTCIR-Lifelog-256/u1/2015-02-25/b00000978_21i6bq_20150225_161227e.jpg'
p768
sg4
(lp769
(g15
g6
(g18
S'\xebuz?'
p770
tp771
Rp772
tp773
a(g32
g6
(g18
S'y \xa8<'
p774
tp775
Rp776
tp777
a(g68
g6
(g18
S'R\xb8N:'
p778
tp779
Rp780
tp781
a(g44
g6
(g18
S'zK\x0b9'
p782
tp783
Rp784
tp785
a(g285
g6
(g18
S'or\xbf8'
p786
tp787
Rp788
tp789
asg73
g15
sa(dp790
g2
S'../../../data/emanuela/activity-recognition/images/NTCIR-Lifelog-256/u2/2015-04-28/b00006663_21i7lf_20150428_124030e.jpg'
p791
sg4
(lp792
(g15
g6
(g18
S'\xcb\x82~?'
p793
tp794
Rp795
tp796
a(g32
g6
(g18
S'ft\xbc;'
p797
tp798
Rp799
tp800
a(g44
g6
(g18
S'\xbd\xb3l8'
p801
tp802
Rp803
tp804
a(g68
g6
(g18
S'\xfc=\xc66'
p805
tp806
Rp807
tp808
a(g96
g6
(g18
S'\rq\x036'
p809
tp810
Rp811
tp812
asg73
g15
sa(dp813
g2
S'../../../data/emanuela/activity-recognition/images/NTCIR-Lifelog-256/u3/2015-07-11/b00000875_21i79q_20150711_150930e.jpg'
p814
sg4
(lp815
(g15
g6
(g18
S'\x86OG?'
p816
tp817
Rp818
tp819
a(g32
g6
(g18
S'"\xfe\n>'
p820
tp821
Rp822
tp823
a(g44
g6
(g18
S'\xde\xa3\xa3='
p824
tp825
Rp826
tp827
a(g96
g6
(g18
S'ZP\x99;'
p828
tp829
Rp830
tp831
a(g389
g6
(g18
S'4\x82\xed9'
p832
tp833
Rp834
tp835
asg73
g15
sa(dp836
g2
S'../../../data/emanuela/activity-recognition/images/NTCIR-Lifelog-256/u1/2015-02-25/b00001029_21i6bq_20150225_164341e.jpg'
p837
sg4
(lp838
(g15
g6
(g18
S'86!?'
p839
tp840
Rp841
tp842
a(g56
g6
(g18
S'3;w>'
p843
tp844
Rp845
tp846
a(g96
g6
(g18
S'\xb0\x16i='
p847
tp848
Rp849
tp850
a(g44
g6
(g18
S'$J\xde<'
p851
tp852
Rp853
tp854
a(g389
g6
(g18
S'h\xba\xd1<'
p855
tp856
Rp857
tp858
asg73
g15
sa(dp859
g2
S'../../../data/emanuela/activity-recognition/images/NTCIR-Lifelog-256/u1/2015-03-11/b00001334_21i6bq_20150311_221029e.jpg'
p860
sg4
(lp861
(g15
g6
(g18
S'\x97/H?'
p862
tp863
Rp864
tp865
a(g96
g6
(g18
S'|\x0f\x8b='
p866
tp867
Rp868
tp869
a(g44
g6
(g18
S'\xed!A='
p870
tp871
Rp872
tp873
a(g389
g6
(g18
S'\xe1\xba ='
p874
tp875
Rp876
tp877
a(g32
g6
(g18
S'(\x91\x03='
p878
tp879
Rp880
tp881
asg73
g15
sa(dp882
g2
S'../../../data/emanuela/activity-recognition/images/NTCIR-Lifelog-256/u3/2015-07-11/b00000874_21i79q_20150711_150856e.jpg'
p883
sg4
(lp884
(g44
g6
(g18
S'\xb4^\xd4>'
p885
tp886
Rp887
tp888
a(g32
g6
(g18
S'0P\xba>'
p889
tp890
Rp891
tp892
a(g68
g6
(g18
S'Q\xea\xdb='
p893
tp894
Rp895
tp896
a(g15
g6
(g18
S'\xfdM\x89='
p897
tp898
Rp899
tp900
a(g96
g6
(g18
S'\xaa\x1b\xcf<'
p901
tp902
Rp903
tp904
asg73
g15
sa(dp905
g2
S'../../../data/emanuela/activity-recognition/images/NTCIR-Lifelog-256/u2/2015-05-03/b00003807_21i7lf_20150503_150005e.jpg'
p906
sg4
(lp907
(g389
g6
(g18
S'\xf3\x8d\xe4>'
p908
tp909
Rp910
tp911
a(g56
g6
(g18
S'w\xe1\x9f>'
p912
tp913
Rp914
tp915
a(g15
g6
(g18
S'\x0f\xda\x1e>'
p916
tp917
Rp918
tp919
a(g246
g6
(g18
S'\xaa\x07\xf9<'
p920
tp921
Rp922
tp923
a(g6
(g7
(S'S15'
p924
I0
I1
tp925
Rp926
(I3
S'|'
p927
NNNI15
I1
I0
tp928
bS'walking outdoor'
p929
tp930
Rp931
g6
(g18
S'0sv<'
p932
tp933
Rp934
tp935
asg73
g15
sa(dp936
g2
S'../../../data/emanuela/activity-recognition/images/NTCIR-Lifelog-256/u1/2015-03-11/b00001323_21i6bq_20150311_220341e.jpg'
p937
sg4
(lp938
(g15
g6
(g18
S'\xdb\x1f\xba>'
p939
tp940
Rp941
tp942
a(g44
g6
(g18
S'\xa0\xf4\x93>'
p943
tp944
Rp945
tp946
a(g96
g6
(g18
S'M]A>'
p947
tp948
Rp949
tp950
a(g558
g6
(g18
S'n\x8a\x07='
p951
tp952
Rp953
tp954
a(g32
g6
(g18
S'\x04\xda\xc7<'
p955
tp956
Rp957
tp958
asg73
g15
sa(dp959
g2
S'../../../data/emanuela/activity-recognition/images/NTCIR-Lifelog-256/u1/2015-02-24/b00000918_21i6bq_20150224_160217e.jpg'
p960
sg4
(lp961
(g15
g6
(g18
S'H\x8bx?'
p962
tp963
Rp964
tp965
a(g32
g6
(g18
S'\xfd\x0f\xab<'
p966
tp967
Rp968
tp969
a(g44
g6
(g18
S'\xe4\x82=;'
p970
tp971
Rp972
tp973
a(g96
g6
(g18
S'\xaf\x94\t;'
p974
tp975
Rp976
tp977
a(g56
g6
(g18
S'\x92r\xeb:'
p978
tp979
Rp980
tp981
asg73
g15
sa(dp982
g2
S'../../../data/emanuela/activity-recognition/images/NTCIR-Lifelog-256/u2/2015-04-21/b00000348_21i7lf_20150421_132654e.jpg'
p983
sg4
(lp984
(g15
g6
(g18
S'\x84\xb6[?'
p985
tp986
Rp987
tp988
a(g32
g6
(g18
S'\xa7m\x08>'
p989
tp990
Rp991
tp992
a(g44
g6
(g18
S'Q0q;'
p993
tp994
Rp995
tp996
a(g389
g6
(g18
S')O\x11;'
p997
tp998
Rp999
tp1000
a(g96
g6
(g18
S'y(!:'
p1001
tp1002
Rp1003
tp1004
asg73
g15
sa(dp1005
g2
S'../../../data/emanuela/activity-recognition/images/NTCIR-Lifelog-256/u1/2015-03-06/b00000865_21i6bq_20150306_142234e.jpg'
p1006
sg4
(lp1007
(g32
g6
(g18
S'\xa97\x14?'
p1008
tp1009
Rp1010
tp1011
a(g285
g6
(g18
S't\xe6\x15>'
p1012
tp1013
Rp1014
tp1015
a(g662
g6
(g18
S'\x94\x07\x8e='
p1016
tp1017
Rp1018
tp1019
a(g15
g6
(g18
S'UY{='
p1020
tp1021
Rp1022
tp1023
a(g558
g6
(g18
S'\xf9\x92x='
p1024
tp1025
Rp1026
tp1027
asg73
g15
sa(dp1028
g2
S'../../../data/emanuela/activity-recognition/images/NTCIR-Lifelog-256/u1/2015-02-27/b00000627_21i6bq_20150227_135255e.jpg'
p1029
sg4
(lp1030
(g15
g6
(g18
S'\x06b\x7f?'
p1031
tp1032
Rp1033
tp1034
a(g32
g6
(g18
S'\xce0\xf8:'
p1035
tp1036
Rp1037
tp1038
a(g44
g6
(g18
S'\xd4\x8b&9'
p1039
tp1040
Rp1041
tp1042
a(g56
g6
(g18
S'\xe8E\x089'
p1043
tp1044
Rp1045
tp1046
a(g96
g6
(g18
S'~G\xb88'
p1047
tp1048
Rp1049
tp1050
asg73
g15
sa(dp1051
g2
S'../../../data/emanuela/activity-recognition/images/NTCIR-Lifelog-256/u3/2015-08-03/b00000426_21i79q_20150803_160857e.jpg'
p1052
sg4
(lp1053
(g96
g6
(g18
S'o=W?'
p1054
tp1055
Rp1056
tp1057
a(g56
g6
(g18
S'\xa2W\xf8='
p1058
tp1059
Rp1060
tp1061
a(g15
g6
(g18
S'\xd4U_<'
p1062
tp1063
Rp1064
tp1065
a(g662
g6
(g18
S'"\xa7\x1b<'
p1066
tp1067
Rp1068
tp1069
a(g44
g6
(g18
S'\xbf\xfb\x96;'
p1070
tp1071
Rp1072
tp1073
asg73
g15
sa(dp1074
g2
S'../../../data/emanuela/activity-recognition/images/NTCIR-Lifelog-256/u1/2015-03-15/b00001372_21i6bq_20150315_205643e.jpg'
p1075
sg4
(lp1076
(g44
g6
(g18
S'p\xd2\xdf>'
p1077
tp1078
Rp1079
tp1080
a(g96
g6
(g18
S'\x9c\xb9S>'
p1081
tp1082
Rp1083
tp1084
a(g15
g6
(g18
S'\xd9\xd7\x19>'
p1085
tp1086
Rp1087
tp1088
a(g56
g6
(g18
S'\xab\x81\xb5='
p1089
tp1090
Rp1091
tp1092
a(g389
g6
(g18
S'{\xbcP='
p1093
tp1094
Rp1095
tp1096
asg73
g15
sa(dp1097
g2
S'../../../data/emanuela/activity-recognition/images/NTCIR-Lifelog-256/u2/2015-05-02/b00003273_21i7lf_20150502_143555e.jpg'
p1098
sg4
(lp1099
(g44
g6
(g18
S'&\x9f\x97>'
p1100
tp1101
Rp1102
tp1103
a(g15
g6
(g18
S'\x94\xc3\x95>'
p1104
tp1105
Rp1106
tp1107
a(g96
g6
(g18
S'd\x16Z>'
p1108
tp1109
Rp1110
tp1111
a(g32
g6
(g18
S'\xc4\xdb\xdf='
p1112
tp1113
Rp1114
tp1115
a(g68
g6
(g18
S'?\xeb\xb7<'
p1116
tp1117
Rp1118
tp1119
asg73
g15
sa(dp1120
g2
S'../../../data/emanuela/activity-recognition/images/NTCIR-Lifelog-256/u1/2015-03-11/b00001282_21i6bq_20150311_213340e.jpg'
p1121
sg4
(lp1122
(g15
g6
(g18
S'\x90{\x00?'
p1123
tp1124
Rp1125
tp1126
a(g32
g6
(g18
S'\xb34\xfb>'
p1127
tp1128
Rp1129
tp1130
a(g285
g6
(g18
S'\x8e\x1a\x0b;'
p1131
tp1132
Rp1133
tp1134
a(g68
g6
(g18
S'C\x1d\xdd:'
p1135
tp1136
Rp1137
tp1138
a(g558
g6
(g18
S'Yj\x8f:'
p1139
tp1140
Rp1141
tp1142
asg73
g15
sa(dp1143
g2
S'../../../data/emanuela/activity-recognition/images/NTCIR-Lifelog-256/u1/2015-03-04/b00001012_21i6bq_20150304_172951e.jpg'
p1144
sg4
(lp1145
(g15
g6
(g18
S'\x82]u?'
p1146
tp1147
Rp1148
tp1149
a(g32
g6
(g18
S'f\x05\x19='
p1150
tp1151
Rp1152
tp1153
a(g44
g6
(g18
S'\x85\xa1\xc1:'
p1154
tp1155
Rp1156
tp1157
a(g68
g6
(g18
S'\x04\xa8\x96:'
p1158
tp1159
Rp1160
tp1161
a(g96
g6
(g18
S'\x8ah0:'
p1162
tp1163
Rp1164
tp1165
asg73
g15
sa(dp1166
g2
S'../../../data/emanuela/activity-recognition/images/NTCIR-Lifelog-256/u3/2015-06-28/b00000721_21i79q_20150628_211347e.jpg'
p1167
sg4
(lp1168
(g15
g6
(g18
S'\x0e\xffJ?'
p1169
tp1170
Rp1171
tp1172
a(g96
g6
(g18
S')\xba\x1e>'
p1173
tp1174
Rp1175
tp1176
a(g32
g6
(g18
S'*\x10C<'
p1177
tp1178
Rp1179
tp1180
a(g558
g6
(g18
S'\x98Y#<'
p1181
tp1182
Rp1183
tp1184
a(g285
g6
(g18
S' \xcd\x0b<'
p1185
tp1186
Rp1187
tp1188
asg73
g15
sa(dp1189
g2
S'../../../data/emanuela/activity-recognition/images/NTCIR-Lifelog-256/u1/2015-03-02/b00000556_21i6bq_20150302_125223e.jpg'
p1190
sg4
(lp1191
(g15
g6
(g18
S'\x89}[?'
p1192
tp1193
Rp1194
tp1195
a(g32
g6
(g18
S'\xb2\x15\xcc='
p1196
tp1197
Rp1198
tp1199
a(g44
g6
(g18
S'a\x88t<'
p1200
tp1201
Rp1202
tp1203
a(g68
g6
(g18
S'\x00e?<'
p1204
tp1205
Rp1206
tp1207
a(g96
g6
(g18
S'\xf8\x7fx;'
p1208
tp1209
Rp1210
tp1211
asg73
g15
sa(dp1212
g2
S'../../../data/emanuela/activity-recognition/images/NTCIR-Lifelog-256/u3/2015-06-18/b00000072_21i79q_20150618_142059e.jpg'
p1213
sg4
(lp1214
(g15
g6
(g18
S'H%\xf9>'
p1215
tp1216
Rp1217
tp1218
a(g96
g6
(g18
S'\xac\x81\x97>'
p1219
tp1220
Rp1221
tp1222
a(g44
g6
(g18
S'wG\x14>'
p1223
tp1224
Rp1225
tp1226
a(g56
g6
(g18
S'D\x17\x1d='
p1227
tp1228
Rp1229
tp1230
a(g32
g6
(g18
S'\x8e\xe4\x96<'
p1231
tp1232
Rp1233
tp1234
asg73
g15
sa(dp1235
g2
S'../../../data/emanuela/activity-recognition/images/NTCIR-Lifelog-256/u1/2015-02-26/b00000754_21i6bq_20150226_141812e.jpg'
p1236
sg4
(lp1237
(g15
g6
(g18
S'yld?'
p1238
tp1239
Rp1240
tp1241
a(g32
g6
(g18
S'\x89-\xbb='
p1242
tp1243
Rp1244
tp1245
a(g44
g6
(g18
S'\xb1,E<'
p1246
tp1247
Rp1248
tp1249
a(g68
g6
(g18
S'\x83\xa4\xd9:'
p1250
tp1251
Rp1252
tp1253
a(g96
g6
(g18
S'c\xa0\x97:'
p1254
tp1255
Rp1256
tp1257
asg73
g15
sa(dp1258
g2
S'../../../data/emanuela/activity-recognition/images/NTCIR-Lifelog-256/u1/2015-03-01/b00000513_21i6bq_20150301_115715e.jpg'
p1259
sg4
(lp1260
(g15
g6
(g18
S'\x1b\x85t?'
p1261
tp1262
Rp1263
tp1264
a(g96
g6
(g18
S'pu\xec<'
p1265
tp1266
Rp1267
tp1268
a(g32
g6
(g18
S'A\x8e\xdf;'
p1269
tp1270
Rp1271
tp1272
a(g44
g6
(g18
S'\xc6\xdc\xaf;'
p1273
tp1274
Rp1275
tp1276
a(g56
g6
(g18
S'`r\xaa:'
p1277
tp1278
Rp1279
tp1280
asg73
g15
sa(dp1281
g2
S'../../../data/emanuela/activity-recognition/images/NTCIR-Lifelog-256/u2/2015-04-28/b00006673_21i7lf_20150428_124646e.jpg'
p1282
sg4
(lp1283
(g15
g6
(g18
S'\xdf\x17\x7f?'
p1284
tp1285
Rp1286
tp1287
a(g32
g6
(g18
S'T\xceX;'
p1288
tp1289
Rp1290
tp1291
a(g44
g6
(g18
S'\xb49g9'
p1292
tp1293
Rp1294
tp1295
a(g56
g6
(g18
S'\xc8w\x8e6'
p1296
tp1297
Rp1298
tp1299
a(g68
g6
(g18
S'\xa5or6'
p1300
tp1301
Rp1302
tp1303
asg73
g15
sa(dp1304
g2
S'../../../data/emanuela/activity-recognition/images/NTCIR-Lifelog-256/u3/2015-07-24/b00000058_21i79q_20150724_115658e.jpg'
p1305
sg4
(lp1306
(g15
g6
(g18
S'\xb3\x85q?'
p1307
tp1308
Rp1309
tp1310
a(g32
g6
(g18
S'R@\x05='
p1311
tp1312
Rp1313
tp1314
a(g44
g6
(g18
S'\x1f\xc4\xab<'
p1315
tp1316
Rp1317
tp1318
a(g96
g6
(g18
S'\xe4\xca#;'
p1319
tp1320
Rp1321
tp1322
a(g389
g6
(g18
S'Y\xd9\xc49'
p1323
tp1324
Rp1325
tp1326
asg73
g15
sa(dp1327
g2
S'../../../data/emanuela/activity-recognition/images/NTCIR-Lifelog-256/u1/2015-02-27/b00000618_21i6bq_20150227_134706e.jpg'
p1328
sg4
(lp1329
(g15
g6
(g18
S'\xab\x9c\x7f?'
p1330
tp1331
Rp1332
tp1333
a(g44
g6
(g18
S'\x0f]::'
p1334
tp1335
Rp1336
tp1337
a(g32
g6
(g18
S'\xee\xdb\n:'
p1338
tp1339
Rp1340
tp1341
a(g56
g6
(g18
S'\xe9\x8e\x1c9'
p1342
tp1343
Rp1344
tp1345
a(g96
g6
(g18
S'[\xca\xe08'
p1346
tp1347
Rp1348
tp1349
asg73
g15
sa(dp1350
g2
S'../../../data/emanuela/activity-recognition/images/NTCIR-Lifelog-256/u2/2015-05-08/b00009012_21i7lf_20150508_124530e.jpg'
p1351
sg4
(lp1352
(g15
g6
(g18
S'dS6?'
p1353
tp1354
Rp1355
tp1356
a(g32
g6
(g18
S'\x02D\x93>'
p1357
tp1358
Rp1359
tp1360
a(g44
g6
(g18
S'PJ\xc68'
p1361
tp1362
Rp1363
tp1364
a(g285
g6
(g18
S'[\x8c\xd37'
p1365
tp1366
Rp1367
tp1368
a(g68
g6
(g18
S'L\x83q7'
p1369
tp1370
Rp1371
tp1372
asg73
g15
sa(dp1373
g2
S'../../../data/emanuela/activity-recognition/images/NTCIR-Lifelog-256/u3/2015-06-18/b00000575_21i79q_20150618_185528e.jpg'
p1374
sg4
(lp1375
(g15
g6
(g18
S'ck|?'
p1376
tp1377
Rp1378
tp1379
a(g32
g6
(g18
S'\xf8\xfa\\<'
p1380
tp1381
Rp1382
tp1383
a(g96
g6
(g18
S'\x0fbY9'
p1384
tp1385
Rp1386
tp1387
a(g44
g6
(g18
S'6\x9c,9'
p1388
tp1389
Rp1390
tp1391
a(g68
g6
(g18
S'\x99\xec\xbd8'
p1392
tp1393
Rp1394
tp1395
asg73
g15
sa(dp1396
g2
S'../../../data/emanuela/activity-recognition/images/NTCIR-Lifelog-256/u3/2015-07-18/b00000380_21i79q_20150718_150521e.jpg'
p1397
sg4
(lp1398
(g44
g6
(g18
S'\xe5\x0c\x1c?'
p1399
tp1400
Rp1401
tp1402
a(g96
g6
(g18
S'b4\x11>'
p1403
tp1404
Rp1405
tp1406
a(g32
g6
(g18
S']\x82\x00>'
p1407
tp1408
Rp1409
tp1410
a(g15
g6
(g18
S']\x07\x9d='
p1411
tp1412
Rp1413
tp1414
a(g56
g6
(g18
S'\xaf\xcb\x1f<'
p1415
tp1416
Rp1417
tp1418
asg73
g15
sa(dp1419
g2
S'../../../data/emanuela/activity-recognition/images/NTCIR-Lifelog-256/u2/2015-04-21/b00000346_21i7lf_20150421_132542e.jpg'
p1420
sg4
(lp1421
(g15
g6
(g18
S'\xc4\x1a]?'
p1422
tp1423
Rp1424
tp1425
a(g32
g6
(g18
S'Z~\t>'
p1426
tp1427
Rp1428
tp1429
a(g44
g6
(g18
S'\x0bZ\xca:'
p1430
tp1431
Rp1432
tp1433
a(g96
g6
(g18
S'\xd6m\xfb8'
p1434
tp1435
Rp1436
tp1437
a(g389
g6
(g18
S'#\xf2\xd58'
p1438
tp1439
Rp1440
tp1441
asg73
g15
sa(dp1442
g2
S'../../../data/emanuela/activity-recognition/images/NTCIR-Lifelog-256/u1/2015-03-16/b00002919_21i6bq_20150316_201642e.jpg'
p1443
sg4
(lp1444
(g15
g6
(g18
S'\x01DB?'
p1445
tp1446
Rp1447
tp1448
a(g32
g6
(g18
S'\xc5\xebA>'
p1449
tp1450
Rp1451
tp1452
a(g44
g6
(g18
S'L\xf2r<'
p1453
tp1454
Rp1455
tp1456
a(g68
g6
(g18
S'\xfb\xadM<'
p1457
tp1458
Rp1459
tp1460
a(g96
g6
(g18
S'A\x82\x1b<'
p1461
tp1462
Rp1463
tp1464
asg73
g15
sa(dp1465
g2
S'../../../data/emanuela/activity-recognition/images/NTCIR-Lifelog-256/u2/2015-05-01/b00002613_21i7lf_20150501_183510e.jpg'
p1466
sg4
(lp1467
(g15
g6
(g18
S'k1\xea>'
p1468
tp1469
Rp1470
tp1471
a(g32
g6
(g18
S'\xe5\xf7Z>'
p1472
tp1473
Rp1474
tp1475
a(g285
g6
(g18
S'pG\xf5='
p1476
tp1477
Rp1478
tp1479
a(g246
g6
(g18
S'yj\xc9='
p1480
tp1481
Rp1482
tp1483
a(g558
g6
(g18
S'\xad\xefp='
p1484
tp1485
Rp1486
tp1487
asg73
g15
sa(dp1488
g2
S'../../../data/emanuela/activity-recognition/images/NTCIR-Lifelog-256/u1/2015-03-01/b00000489_21i6bq_20150301_114228e.jpg'
p1489
sg4
(lp1490
(g15
g6
(g18
S'\xf4\xa5V?'
p1491
tp1492
Rp1493
tp1494
a(g32
g6
(g18
S'%H\xdb='
p1495
tp1496
Rp1497
tp1498
a(g44
g6
(g18
S'`\nM='
p1499
tp1500
Rp1501
tp1502
a(g96
g6
(g18
S'\x05\xd5J;'
p1503
tp1504
Rp1505
tp1506
a(g68
g6
(g18
S'|\xc5\n:'
p1507
tp1508
Rp1509
tp1510
asg73
g15
sa(dp1511
g2
S'../../../data/emanuela/activity-recognition/images/NTCIR-Lifelog-256/u1/2015-02-23/b00000661_21i6bq_20150223_135946e.jpg'
p1512
sg4
(lp1513
(g15
g6
(g18
S'i\xec\x7f?'
p1514
tp1515
Rp1516
tp1517
a(g32
g6
(g18
S'\xd5\xad\x1d9'
p1518
tp1519
Rp1520
tp1521
a(g44
g6
(g18
S'\xba\x8e\xc58'
p1522
tp1523
Rp1524
tp1525
a(g96
g6
(g18
S' \x9b\t8'
p1526
tp1527
Rp1528
tp1529
a(g389
g6
(g18
S'\xa8%07'
p1530
tp1531
Rp1532
tp1533
asg73
g15
sa(dp1534
g2
S'../../../data/emanuela/activity-recognition/images/NTCIR-Lifelog-256/u2/2015-05-08/b00009017_21i7lf_20150508_124831e.jpg'
p1535
sg4
(lp1536
(g15
g6
(g18
S';\xf8|?'
p1537
tp1538
Rp1539
tp1540
a(g32
g6
(g18
S'h\x94;<'
p1541
tp1542
Rp1543
tp1544
a(g44
g6
(g18
S'~\xac\x889'
p1545
tp1546
Rp1547
tp1548
a(g389
g6
(g18
S'e\xe5|8'
p1549
tp1550
Rp1551
tp1552
a(g96
g6
(g18
S'\xea\x19$8'
p1553
tp1554
Rp1555
tp1556
asg73
g15
sa(dp1557
g2
S'../../../data/emanuela/activity-recognition/images/NTCIR-Lifelog-256/u3/2015-07-24/b00000056_21i79q_20150724_115540e.jpg'
p1558
sg4
(lp1559
(g15
g6
(g18
S'\xbd\x0bw?'
p1560
tp1561
Rp1562
tp1563
a(g32
g6
(g18
S'\xfeH\xe4<'
p1564
tp1565
Rp1566
tp1567
a(g44
g6
(g18
S'}x\xba;'
p1568
tp1569
Rp1570
tp1571
a(g96
g6
(g18
S'[a\x96:'
p1572
tp1573
Rp1574
tp1575
a(g389
g6
(g18
S'8(\x159'
p1576
tp1577
Rp1578
tp1579
asg73
g15
sa(dp1580
g2
S'../../../data/emanuela/activity-recognition/images/NTCIR-Lifelog-256/u1/2015-02-24/b00000936_21i6bq_20150224_161310e.jpg'
p1581
sg4
(lp1582
(g15
g6
(g18
S'x\x16}?'
p1583
tp1584
Rp1585
tp1586
a(g32
g6
(g18
S'\xbe\xbe1<'
p1587
tp1588
Rp1589
tp1590
a(g44
g6
(g18
S'\xf6\xb4\x879'
p1591
tp1592
Rp1593
tp1594
a(g96
g6
(g18
S';[+9'
p1595
tp1596
Rp1597
tp1598
a(g68
g6
(g18
S'\xa2Z88'
p1599
tp1600
Rp1601
tp1602
asg73
g15
sa(dp1603
g2
S'../../../data/emanuela/activity-recognition/images/NTCIR-Lifelog-256/u1/2015-03-04/b00000983_21i6bq_20150304_171116e.jpg'
p1604
sg4
(lp1605
(g15
g6
(g18
S'\x0f\x91~?'
p1606
tp1607
Rp1608
tp1609
a(g32
g6
(g18
S'm\xaa\x9d;'
p1610
tp1611
Rp1612
tp1613
a(g68
g6
(g18
S'\xbbI\x859'
p1614
tp1615
Rp1616
tp1617
a(g96
g6
(g18
S'\xae\x8739'
p1618
tp1619
Rp1620
tp1621
a(g56
g6
(g18
S'\xda\x14\x1f9'
p1622
tp1623
Rp1624
tp1625
asg73
g15
sa(dp1626
g2
S'../../../data/emanuela/activity-recognition/images/NTCIR-Lifelog-256/u2/2015-05-02/b00003280_21i7lf_20150502_144021e.jpg'
p1627
sg4
(lp1628
(g32
g6
(g18
S'\xf89\xef>'
p1629
tp1630
Rp1631
tp1632
a(g15
g6
(g18
S'\xb4\x18t>'
p1633
tp1634
Rp1635
tp1636
a(g44
g6
(g18
S'l\xfc\x04>'
p1637
tp1638
Rp1639
tp1640
a(g246
g6
(g18
S'S\xaez='
p1641
tp1642
Rp1643
tp1644
a(g96
g6
(g18
S'\xbf\xd0G<'
p1645
tp1646
Rp1647
tp1648
asg73
g15
sa(dp1649
g2
S'../../../data/emanuela/activity-recognition/images/NTCIR-Lifelog-256/u2/2015-04-30/b00001021_21i7lf_20150430_131152e.jpg'
p1650
sg4
(lp1651
(g15
g6
(g18
S'\xbe\x9d\x7f?'
p1652
tp1653
Rp1654
tp1655
a(g32
g6
(g18
S'\x02\xd8\x9f:'
p1656
tp1657
Rp1658
tp1659
a(g44
g6
(g18
S'j t9'
p1660
tp1661
Rp1662
tp1663
a(g96
g6
(g18
S'\xf3\xc3\x188'
p1664
tp1665
Rp1666
tp1667
a(g68
g6
(g18
S'\xc9\x0f\xca6'
p1668
tp1669
Rp1670
tp1671
asg73
g15
sa(dp1672
g2
S'../../../data/emanuela/activity-recognition/images/NTCIR-Lifelog-256/u1/2015-03-04/b00000994_21i6bq_20150304_171752e.jpg'
p1673
sg4
(lp1674
(g15
g6
(g18
S'\x19\x0b|?'
p1675
tp1676
Rp1677
tp1678
a(g32
g6
(g18
S'\xfc\x0c_<'
p1679
tp1680
Rp1681
tp1682
a(g44
g6
(g18
S'l+-:'
p1683
tp1684
Rp1685
tp1686
a(g68
g6
(g18
S"g\xe6':"
p1687
tp1688
Rp1689
tp1690
a(g96
g6
(g18
S'\xbe\xc7m9'
p1691
tp1692
Rp1693
tp1694
asg73
g15
sa(dp1695
g2
S'../../../data/emanuela/activity-recognition/images/NTCIR-Lifelog-256/u2/2015-05-03/b00003803_21i7lf_20150503_145734e.jpg'
p1696
sg4
(lp1697
(g32
g6
(g18
S'\xb97\xac>'
p1698
tp1699
Rp1700
tp1701
a(g56
g6
(g18
S'w\x05\x83>'
p1702
tp1703
Rp1704
tp1705
a(g389
g6
(g18
S'\x90\x84!>'
p1706
tp1707
Rp1708
tp1709
a(g6
(g7
(S'S14'
p1710
I0
I1
tp1711
Rp1712
(I3
S'|'
p1713
NNNI14
I1
I0
tp1714
bS'walking indoor'
p1715
tp1716
Rp1717
g6
(g18
S'\xb8\xc8\x99='
p1718
tp1719
Rp1720
tp1721
a(g15
g6
(g18
S'\x1d\xe2i='
p1722
tp1723
Rp1724
tp1725
asg73
g15
sa(dp1726
g2
S'../../../data/emanuela/activity-recognition/images/NTCIR-Lifelog-256/u2/2015-05-07/b00007539_21i7lf_20150507_110128e.jpg'
p1727
sg4
(lp1728
(g15
g6
(g18
S'A+t?'
p1729
tp1730
Rp1731
tp1732
a(g96
g6
(g18
S'\x93\x85\x02='
p1733
tp1734
Rp1735
tp1736
a(g68
g6
(g18
S'i\x19\xab;'
p1737
tp1738
Rp1739
tp1740
a(g32
g6
(g18
S'^\xc2\x9a;'
p1741
tp1742
Rp1743
tp1744
a(g44
g6
(g18
S'\xee\x90P;'
p1745
tp1746
Rp1747
tp1748
asg73
g15
sa(dp1749
g2
S'../../../data/emanuela/activity-recognition/images/NTCIR-Lifelog-256/u3/2015-07-24/b00000055_21i79q_20150724_115506e.jpg'
p1750
sg4
(lp1751
(g15
g6
(g18
S'W\xfcn?'
p1752
tp1753
Rp1754
tp1755
a(g32
g6
(g18
S'\x1e\x82u='
p1756
tp1757
Rp1758
tp1759
a(g44
g6
(g18
S'}V\xb1;'
p1760
tp1761
Rp1762
tp1763
a(g96
g6
(g18
S'(\tV:'
p1764
tp1765
Rp1766
tp1767
a(g389
g6
(g18
S'\x83\xe2,9'
p1768
tp1769
Rp1770
tp1771
asg73
g15
sa(dp1772
g2
S'../../../data/emanuela/activity-recognition/images/NTCIR-Lifelog-256/u2/2015-05-07/b00007546_21i7lf_20150507_110553e.jpg'
p1773
sg4
(lp1774
(g15
g6
(g18
S'\x90\xd9#?'
p1775
tp1776
Rp1777
tp1778
a(g32
g6
(g18
S'\xf4\xdb\xb2>'
p1779
tp1780
Rp1781
tp1782
a(g68
g6
(g18
S'v\xafO;'
p1783
tp1784
Rp1785
tp1786
a(g44
g6
(g18
S'FEL;'
p1787
tp1788
Rp1789
tp1790
a(g96
g6
(g18
S'\xd9\xb51;'
p1791
tp1792
Rp1793
tp1794
asg73
g15
sa(dp1795
g2
S'../../../data/emanuela/activity-recognition/images/NTCIR-Lifelog-256/u1/2015-03-01/b00000494_21i6bq_20150301_114608e.jpg'
p1796
sg4
(lp1797
(g44
g6
(g18
S'\x9d\x07\x00?'
p1798
tp1799
Rp1800
tp1801
a(g15
g6
(g18
S'\xec\\r>'
p1802
tp1803
Rp1804
tp1805
a(g32
g6
(g18
S'\x1c\xc2\xff='
p1806
tp1807
Rp1808
tp1809
a(g558
g6
(g18
S',_ ='
p1810
tp1811
Rp1812
tp1813
a(g96
g6
(g18
S'\x11\x90\x18='
p1814
tp1815
Rp1816
tp1817
asg73
g15
sa(dp1818
g2
S'../../../data/emanuela/activity-recognition/images/NTCIR-Lifelog-256/u3/2015-06-28/b00000688_21i79q_20150628_205418e.jpg'
p1819
sg4
(lp1820
(g15
g6
(g18
S'\x1a\x8en?'
p1821
tp1822
Rp1823
tp1824
a(g32
g6
(g18
S'\x05\x8eJ='
p1825
tp1826
Rp1827
tp1828
a(g44
g6
(g18
S'1[\xc9;'
p1829
tp1830
Rp1831
tp1832
a(g96
g6
(g18
S'\xd4\xc5\x89;'
p1833
tp1834
Rp1835
tp1836
a(g285
g6
(g18
S'aZm;'
p1837
tp1838
Rp1839
tp1840
asg73
g15
sa(dp1841
g2
S'../../../data/emanuela/activity-recognition/images/NTCIR-Lifelog-256/u1/2015-02-25/b00000997_21i6bq_20150225_162400e.jpg'
p1842
sg4
(lp1843
(g15
g6
(g18
S'H\xce\x7f?'
p1844
tp1845
Rp1846
tp1847
a(g96
g6
(g18
S'\x0c\xcb\xa09'
p1848
tp1849
Rp1850
tp1851
a(g56
g6
(g18
S's\xf2:9'
p1852
tp1853
Rp1854
tp1855
a(g389
g6
(g18
S'\x8a\xcc\x0f9'
p1856
tp1857
Rp1858
tp1859
a(g44
g6
(g18
S'\x81\x18\xb28'
p1860
tp1861
Rp1862
tp1863
asg73
g15
sa(dp1864
g2
S'../../../data/emanuela/activity-recognition/images/NTCIR-Lifelog-256/u1/2015-03-11/b00001248_21i6bq_20150311_210310e.jpg'
p1865
sg4
(lp1866
(g15
g6
(g18
S'=\x10$?'
p1867
tp1868
Rp1869
tp1870
a(g32
g6
(g18
S'\x7f4\xb7>'
p1871
tp1872
Rp1873
tp1874
a(g44
g6
(g18
S'\xd0a\x11:'
p1875
tp1876
Rp1877
tp1878
a(g285
g6
(g18
S'\xdd\x15\xee9'
p1879
tp1880
Rp1881
tp1882
a(g68
g6
(g18
S'\xbd~\x199'
p1883
tp1884
Rp1885
tp1886
asg73
g15
sa(dp1887
g2
S'../../../data/emanuela/activity-recognition/images/NTCIR-Lifelog-256/u3/2015-06-18/b00000591_21i79q_20150618_190423e.jpg'
p1888
sg4
(lp1889
(g15
g6
(g18
S'\xbd\x8d7?'
p1890
tp1891
Rp1892
tp1893
a(g32
g6
(g18
S'\xe9\x95\x90>'
p1894
tp1895
Rp1896
tp1897
a(g96
g6
(g18
S'\x1c\xfbg9'
p1898
tp1899
Rp1900
tp1901
a(g44
g6
(g18
S'\xe4Cf9'
p1902
tp1903
Rp1904
tp1905
a(g693
g6
(g18
S'\x12\xc058'
p1906
tp1907
Rp1908
tp1909
asg73
g15
sa(dp1910
g2
S'../../../data/emanuela/activity-recognition/images/NTCIR-Lifelog-256/u1/2015-03-02/b00000570_21i6bq_20150302_130129e.jpg'
p1911
sg4
(lp1912
(g15
g6
(g18
S'\x9c\xf8}?'
p1913
tp1914
Rp1915
tp1916
a(g44
g6
(g18
S'\x9c\xfdh;'
p1917
tp1918
Rp1919
tp1920
a(g96
g6
(g18
S'84C;'
p1921
tp1922
Rp1923
tp1924
a(g32
g6
(g18
S'Gr\x9f:'
p1925
tp1926
Rp1927
tp1928
a(g389
g6
(g18
S'<&\xb58'
p1929
tp1930
Rp1931
tp1932
asg73
g15
sa(dp1933
g2
S'../../../data/emanuela/activity-recognition/images/NTCIR-Lifelog-256/u2/2015-05-05/b00005337_21i7lf_20150505_121101e.jpg'
p1934
sg4
(lp1935
(g15
g6
(g18
S'\xdc\xd6j?'
p1936
tp1937
Rp1938
tp1939
a(g32
g6
(g18
S'/\x10\xa2='
p1940
tp1941
Rp1942
tp1943
a(g96
g6
(g18
S'\xf1\xbc\xec:'
p1944
tp1945
Rp1946
tp1947
a(g44
g6
(g18
S's\xb1\xc7:'
p1948
tp1949
Rp1950
tp1951
a(g56
g6
(g18
S'}\xbe\x808'
p1952
tp1953
Rp1954
tp1955
asg73
g15
sa(dp1956
g2
S'../../../data/emanuela/activity-recognition/images/NTCIR-Lifelog-256/u3/2015-06-28/b00000678_21i79q_20150628_204955e.jpg'
p1957
sg4
(lp1958
(g15
g6
(g18
S'\xb1\xe6\xf5>'
p1959
tp1960
Rp1961
tp1962
a(g96
g6
(g18
S'M\xb5\xe4>'
p1963
tp1964
Rp1965
tp1966
a(g68
g6
(g18
S"\xff_'="
p1967
tp1968
Rp1969
tp1970
a(g44
g6
(g18
S'|@3<'
p1971
tp1972
Rp1973
tp1974
a(g56
g6
(g18
S'\xf7w\xb5;'
p1975
tp1976
Rp1977
tp1978
asg73
g15
sa(dp1979
g2
S'../../../data/emanuela/activity-recognition/images/NTCIR-Lifelog-256/u2/2015-04-30/b00001024_21i7lf_20150430_131349e.jpg'
p1980
sg4
(lp1981
(g15
g6
(g18
S'"\xa7|?'
p1982
tp1983
Rp1984
tp1985
a(g44
g6
(g18
S".'\xe4;"
p1986
tp1987
Rp1988
tp1989
a(g32
g6
(g18
S'\xa2\xe7\xab;'
p1990
tp1991
Rp1992
tp1993
a(g246
g6
(g18
S'=f\xed9'
p1994
tp1995
Rp1996
tp1997
a(g96
g6
(g18
S"\x10'\x189"
p1998
tp1999
Rp2000
tp2001
asg73
g15
sa(dp2002
g2
S'../../../data/emanuela/activity-recognition/images/NTCIR-Lifelog-256/u3/2015-06-18/b00000576_21i79q_20150618_185535e.jpg'
p2003
sg4
(lp2004
(g15
g6
(g18
S'\xa1\xe7B?'
p2005
tp2006
Rp2007
tp2008
a(g96
g6
(g18
S'wn">'
p2009
tp2010
Rp2011
tp2012
a(g44
g6
(g18
S'\xe1|e='
p2013
tp2014
Rp2015
tp2016
a(g32
g6
(g18
S'\xcc&\x1d<'
p2017
tp2018
Rp2019
tp2020
a(g68
g6
(g18
S'\xe7\x81\xdc;'
p2021
tp2022
Rp2023
tp2024
asg73
g15
sa(dp2025
g2
S'../../../data/emanuela/activity-recognition/images/NTCIR-Lifelog-256/u2/2015-05-08/b00009010_21i7lf_20150508_124410e.jpg'
p2026
sg4
(lp2027
(g32
g6
(g18
S'Ls ?'
p2028
tp2029
Rp2030
tp2031
a(g15
g6
(g18
S'4\xdb\xbe>'
p2032
tp2033
Rp2034
tp2035
a(g68
g6
(g18
S'\xfc]\x029'
p2036
tp2037
Rp2038
tp2039
a(g44
g6
(g18
S"\xd7'\xc38"
p2040
tp2041
Rp2042
tp2043
a(g285
g6
(g18
S'\xab\xf1\xb88'
p2044
tp2045
Rp2046
tp2047
asg73
g15
sa(dp2048
g2
S'../../../data/emanuela/activity-recognition/images/NTCIR-Lifelog-256/u1/2015-03-15/b00000878_21i6bq_20150315_160923e.jpg'
p2049
sg4
(lp2050
(g32
g6
(g18
S':\xcc9?'
p2051
tp2052
Rp2053
tp2054
a(g44
g6
(g18
S'\xcd\x8d\x13>'
p2055
tp2056
Rp2057
tp2058
a(g96
g6
(g18
S'\xe8ek='
p2059
tp2060
Rp2061
tp2062
a(g15
g6
(g18
S'2\x88\xf7<'
p2063
tp2064
Rp2065
tp2066
a(g693
g6
(g18
S'\xa4\x05:<'
p2067
tp2068
Rp2069
tp2070
asg73
g15
sa(dp2071
g2
S'../../../data/emanuela/activity-recognition/images/NTCIR-Lifelog-256/u3/2015-06-15/b00000892_21i79q_20150615_170001e.jpg'
p2072
sg4
(lp2073
(g15
g6
(g18
S't\x95K?'
p2074
tp2075
Rp2076
tp2077
a(g32
g6
(g18
S'\xdcCQ>'
p2078
tp2079
Rp2080
tp2081
a(g96
g6
(g18
S'@d\xe48'
p2082
tp2083
Rp2084
tp2085
a(g285
g6
(g18
S'l\xb3\x888'
p2086
tp2087
Rp2088
tp2089
a(g44
g6
(g18
S'\x84\xcd28'
p2090
tp2091
Rp2092
tp2093
asg73
g15
sa(dp2094
g2
S'../../../data/emanuela/activity-recognition/images/NTCIR-Lifelog-256/u3/2015-07-11/b00000865_21i79q_20150711_150333e.jpg'
p2095
sg4
(lp2096
(g15
g6
(g18
S'\xf4\xc3R?'
p2097
tp2098
Rp2099
tp2100
a(g32
g6
(g18
S'f\xc0%>'
p2101
tp2102
Rp2103
tp2104
a(g68
g6
(g18
S')S\xe1;'
p2105
tp2106
Rp2107
tp2108
a(g44
g6
(g18
S'\xd7>\xa3;'
p2109
tp2110
Rp2111
tp2112
a(g96
g6
(g18
S'\x06\xbc\x08;'
p2113
tp2114
Rp2115
tp2116
asg73
g15
sa(dp2117
g2
S'../../../data/emanuela/activity-recognition/images/NTCIR-Lifelog-256/u1/2015-03-04/b00000965_21i6bq_20150304_165934e.jpg'
p2118
sg4
(lp2119
(g15
g6
(g18
S'\xd2\xe4|?'
p2120
tp2121
Rp2122
tp2123
a(g32
g6
(g18
S'\x98\xc01<'
p2124
tp2125
Rp2126
tp2127
a(g44
g6
(g18
S'\xe8\xd4!:'
p2128
tp2129
Rp2130
tp2131
a(g68
g6
(g18
S'\xf8\xb9\xdb9'
p2132
tp2133
Rp2134
tp2135
a(g96
g6
(g18
S'\x91 \xe58'
p2136
tp2137
Rp2138
tp2139
asg73
g15
sa(dp2140
g2
S'../../../data/emanuela/activity-recognition/images/NTCIR-Lifelog-256/u1/2015-02-25/b00000994_21i6bq_20150225_162211e.jpg'
p2141
sg4
(lp2142
(g15
g6
(g18
S'G\xd1\x7f?'
p2143
tp2144
Rp2145
tp2146
a(g32
g6
(g18
S'\x1bv\xde9'
p2147
tp2148
Rp2149
tp2150
a(g96
g6
(g18
S'\x06\xeb\xf98'
p2151
tp2152
Rp2153
tp2154
a(g56
g6
(g18
S'3\x8cT8'
p2155
tp2156
Rp2157
tp2158
a(g44
g6
(g18
S'qMQ8'
p2159
tp2160
Rp2161
tp2162
asg73
g15
sa(dp2163
g2
S'../../../data/emanuela/activity-recognition/images/NTCIR-Lifelog-256/u2/2015-05-03/b00003914_21i7lf_20150503_160530e.jpg'
p2164
sg4
(lp2165
(g44
g6
(g18
S'$[\xf9>'
p2166
tp2167
Rp2168
tp2169
a(g15
g6
(g18
S'\xcf\x84\xb3>'
p2170
tp2171
Rp2172
tp2173
a(g32
g6
(g18
S'\x7f0\x93='
p2174
tp2175
Rp2176
tp2177
a(g558
g6
(g18
S'c[7='
p2178
tp2179
Rp2180
tp2181
a(g285
g6
(g18
S'ZS\x1b<'
p2182
tp2183
Rp2184
tp2185
asg73
g15
sa(dp2186
g2
S'../../../data/emanuela/activity-recognition/images/NTCIR-Lifelog-256/u1/2015-03-11/b00001274_21i6bq_20150311_212632e.jpg'
p2187
sg4
(lp2188
(g32
g6
(g18
S'\xa4\x8a\xf8>'
p2189
tp2190
Rp2191
tp2192
a(g15
g6
(g18
S'j$\xeb>'
p2193
tp2194
Rp2195
tp2196
a(g44
g6
(g18
S'WT\xd1<'
p2197
tp2198
Rp2199
tp2200
a(g558
g6
(g18
S'N\x82U<'
p2201
tp2202
Rp2203
tp2204
a(g285
g6
(g18
S'X6\xd3;'
p2205
tp2206
Rp2207
tp2208
asg73
g15
sa(dp2209
g2
S'../../../data/emanuela/activity-recognition/images/NTCIR-Lifelog-256/u2/2015-05-03/b00003891_21i7lf_20150503_155143e.jpg'
p2210
sg4
(lp2211
(g15
g6
(g18
S'\xba\xa7v?'
p2212
tp2213
Rp2214
tp2215
a(g32
g6
(g18
S'\xd21\x05='
p2216
tp2217
Rp2218
tp2219
a(g44
g6
(g18
S'uE\xab:'
p2220
tp2221
Rp2222
tp2223
a(g68
g6
(g18
S',\xcf\x80:'
p2224
tp2225
Rp2226
tp2227
a(g96
g6
(g18
S'\xc0\xfc :'
p2228
tp2229
Rp2230
tp2231
asg73
g15
sa(dp2232
g2
S'../../../data/emanuela/activity-recognition/images/NTCIR-Lifelog-256/u1/2015-02-25/b00000988_21i6bq_20150225_161831e.jpg'
p2233
sg4
(lp2234
(g15
g6
(g18
S'\xdbQ\x7f?'
p2235
tp2236
Rp2237
tp2238
a(g32
g6
(g18
S'\xfc\xc4(;'
p2239
tp2240
Rp2241
tp2242
a(g68
g6
(g18
S'\x19\xe7t8'
p2243
tp2244
Rp2245
tp2246
a(g44
g6
(g18
S'\xebC\xe96'
p2247
tp2248
Rp2249
tp2250
a(g56
g6
(g18
S'\xed\x98\x9f6'
p2251
tp2252
Rp2253
tp2254
asg73
g15
sa(dp2255
g2
S'../../../data/emanuela/activity-recognition/images/NTCIR-Lifelog-256/u3/2015-07-11/b00000879_21i79q_20150711_151154e.jpg'
p2256
sg4
(lp2257
(g15
g6
(g18
S'\x7f5\xbe>'
p2258
tp2259
Rp2260
tp2261
a(g68
g6
(g18
S'\xecC{>'
p2262
tp2263
Rp2264
tp2265
a(g32
g6
(g18
S'XBU>'
p2266
tp2267
Rp2268
tp2269
a(g44
g6
(g18
S'\xe5M\x81='
p2270
tp2271
Rp2272
tp2273
a(g96
g6
(g18
S'\xf4BD='
p2274
tp2275
Rp2276
tp2277
asg73
g15
sa(dp2278
g2
S'../../../data/emanuela/activity-recognition/images/NTCIR-Lifelog-256/u3/2015-06-28/b00000693_21i79q_20150628_205724e.jpg'
p2279
sg4
(lp2280
(g15
g6
(g18
S'\x89\x8bq?'
p2281
tp2282
Rp2283
tp2284
a(g96
g6
(g18
S'@\x87\x7f<'
p2285
tp2286
Rp2287
tp2288
a(g44
g6
(g18
S'F\xcde<'
p2289
tp2290
Rp2291
tp2292
a(g32
g6
(g18
S'\xf6\xef?<'
p2293
tp2294
Rp2295
tp2296
a(g68
g6
(g18
S'\xe5\xfc&<'
p2297
tp2298
Rp2299
tp2300
asg73
g15
sa(dp2301
g2
S'../../../data/emanuela/activity-recognition/images/NTCIR-Lifelog-256/u2/2015-05-01/b00002598_21i7lf_20150501_182601e.jpg'
p2302
sg4
(lp2303
(g15
g6
(g18
S'\x10\x07H?'
p2304
tp2305
Rp2306
tp2307
a(g32
g6
(g18
S'\xceL\xd1='
p2308
tp2309
Rp2310
tp2311
a(g96
g6
(g18
S'\xff\xebc='
p2312
tp2313
Rp2314
tp2315
a(g44
g6
(g18
S'\x92\x8bG='
p2316
tp2317
Rp2318
tp2319
a(g56
g6
(g18
S'\x84\xc1>;'
p2320
tp2321
Rp2322
tp2323
asg73
g15
sa(dp2324
g2
S'../../../data/emanuela/activity-recognition/images/NTCIR-Lifelog-256/u3/2015-08-03/b00000418_21i79q_20150803_160359e.jpg'
p2325
sg4
(lp2326
(g32
g6
(g18
S'\x03\xd6z?'
p2327
tp2328
Rp2329
tp2330
a(g15
g6
(g18
S'gM\xa3<'
p2331
tp2332
Rp2333
tp2334
a(g285
g6
(g18
S'\x85\xa3\xa58'
p2335
tp2336
Rp2337
tp2338
a(g44
g6
(g18
S'\x8dNY8'
p2339
tp2340
Rp2341
tp2342
a(g68
g6
(g18
S')\x84:8'
p2343
tp2344
Rp2345
tp2346
asg73
g15
sa(dp2347
g2
S'../../../data/emanuela/activity-recognition/images/NTCIR-Lifelog-256/u1/2015-03-11/b00001309_21i6bq_20150311_215136e.jpg'
p2348
sg4
(lp2349
(g15
g6
(g18
S'\xb4 \n?'
p2350
tp2351
Rp2352
tp2353
a(g44
g6
(g18
S'6\xeb\x85>'
p2354
tp2355
Rp2356
tp2357
a(g96
g6
(g18
S'q1\xaf='
p2358
tp2359
Rp2360
tp2361
a(g32
g6
(g18
S'\xc2\xce\x02='
p2362
tp2363
Rp2364
tp2365
a(g558
g6
(g18
S'\xf8\xe2\xbd<'
p2366
tp2367
Rp2368
tp2369
asg73
g15
sa(dp2370
g2
S'../../../data/emanuela/activity-recognition/images/NTCIR-Lifelog-256/u2/2015-05-08/b00009004_21i7lf_20150508_124030e.jpg'
p2371
sg4
(lp2372
(g15
g6
(g18
S'\xe74~?'
p2373
tp2374
Rp2375
tp2376
a(g32
g6
(g18
S':\xbf\xd4;'
p2377
tp2378
Rp2379
tp2380
a(g44
g6
(g18
S'\x1a\xba\xfa9'
p2381
tp2382
Rp2383
tp2384
a(g389
g6
(g18
S'\xa9\xc5C7'
p2385
tp2386
Rp2387
tp2388
a(g96
g6
(g18
S'\xd5\xe5"7'
p2389
tp2390
Rp2391
tp2392
asg73
g15
sa(dp2393
g2
S'../../../data/emanuela/activity-recognition/images/NTCIR-Lifelog-256/u2/2015-05-02/b00003275_21i7lf_20150502_143710e.jpg'
p2394
sg4
(lp2395
(g32
g6
(g18
S'\x9a\xb3\x1b?'
p2396
tp2397
Rp2398
tp2399
a(g15
g6
(g18
S'|u\x88>'
p2400
tp2401
Rp2402
tp2403
a(g285
g6
(g18
S'H\xd0-='
p2404
tp2405
Rp2406
tp2407
a(g44
g6
(g18
S'\xef\xaa\x15='
p2408
tp2409
Rp2410
tp2411
a(g68
g6
(g18
S'\xf4\x8c]<'
p2412
tp2413
Rp2414
tp2415
asg73
g15
sa(dp2416
g2
S'../../../data/emanuela/activity-recognition/images/NTCIR-Lifelog-256/u1/2015-02-23/b00000659_21i6bq_20150223_135826e (1).jpg'
p2417
sg4
(lp2418
(g15
g6
(g18
S'-\xe4\x7f?'
p2419
tp2420
Rp2421
tp2422
a(g32
g6
(g18
S'"\tC9'
p2423
tp2424
Rp2425
tp2426
a(g96
g6
(g18
S'\xaa\xde\xea8'
p2427
tp2428
Rp2429
tp2430
a(g44
g6
(g18
S'\x0e\x12D8'
p2431
tp2432
Rp2433
tp2434
a(g56
g6
(g18
S'\x10\xbb\x078'
p2435
tp2436
Rp2437
tp2438
asg73
g15
sa(dp2439
g2
S'../../../data/emanuela/activity-recognition/images/NTCIR-Lifelog-256/u3/2015-06-28/b00000674_21i79q_20150628_204954e.jpg'
p2440
sg4
(lp2441
(g96
g6
(g18
S'\xbc\x9d@?'
p2442
tp2443
Rp2444
tp2445
a(g15
g6
(g18
S'\x8cMR>'
p2446
tp2447
Rp2448
tp2449
a(g44
g6
(g18
S'\xf0Ni<'
p2450
tp2451
Rp2452
tp2453
a(g558
g6
(g18
S'\xd4\xdb\xe8;'
p2454
tp2455
Rp2456
tp2457
a(g68
g6
(g18
S'\xc3R\xc7;'
p2458
tp2459
Rp2460
tp2461
asg73
g15
sa(dp2462
g2
S'../../../data/emanuela/activity-recognition/images/NTCIR-Lifelog-256/u2/2015-05-07/b00007541_21i7lf_20150507_110250e.jpg'
p2463
sg4
(lp2464
(g15
g6
(g18
S'ZVc?'
p2465
tp2466
Rp2467
tp2468
a(g68
g6
(g18
S'\x8f!\x89='
p2469
tp2470
Rp2471
tp2472
a(g32
g6
(g18
S'\xf8\x81\x1d='
p2473
tp2474
Rp2475
tp2476
a(g44
g6
(g18
S'\x19\xa6\x98;'
p2477
tp2478
Rp2479
tp2480
a(g96
g6
(g18
S'\n\xf9\\:'
p2481
tp2482
Rp2483
tp2484
asg73
g15
sa(dp2485
g2
S'../../../data/emanuela/activity-recognition/images/NTCIR-Lifelog-256/u3/2015-06-18/b00000574_21i79q_20150618_185528e.jpg'
p2486
sg4
(lp2487
(g15
g6
(g18
S'\xa3zt?'
p2488
tp2489
Rp2490
tp2491
a(g32
g6
(g18
S'\x08\xa3\x1d='
p2492
tp2493
Rp2494
tp2495
a(g96
g6
(g18
S'*\xcd\x83;'
p2496
tp2497
Rp2498
tp2499
a(g44
g6
(g18
S'\x8cd\x13;'
p2500
tp2501
Rp2502
tp2503
a(g68
g6
(g18
S'g\x96\xe08'
p2504
tp2505
Rp2506
tp2507
asg73
g15
sa(dp2508
g2
S'../../../data/emanuela/activity-recognition/images/NTCIR-Lifelog-256/u1/2015-03-11/b00001313_21i6bq_20150311_215517e.jpg'
p2509
sg4
(lp2510
(g96
g6
(g18
S'\x86`\xf2>'
p2511
tp2512
Rp2513
tp2514
a(g15
g6
(g18
S'\x8ab\xf0>'
p2515
tp2516
Rp2517
tp2518
a(g44
g6
(g18
S'\xe12\xd4<'
p2519
tp2520
Rp2521
tp2522
a(g558
g6
(g18
S'\x15\x07\xec;'
p2523
tp2524
Rp2525
tp2526
a(g56
g6
(g18
S'\xa2`\xbd;'
p2527
tp2528
Rp2529
tp2530
asg73
g15
sa(dp2531
g2
S'../../../data/emanuela/activity-recognition/images/NTCIR-Lifelog-256/u1/2015-03-11/b00001312_21i6bq_20150311_215445e.jpg'
p2532
sg4
(lp2533
(g15
g6
(g18
S'\xda\x10"?'
p2534
tp2535
Rp2536
tp2537
a(g96
g6
(g18
S'3\x0e\x13>'
p2538
tp2539
Rp2540
tp2541
a(g56
g6
(g18
S'\x9c\xe7\xc9='
p2542
tp2543
Rp2544
tp2545
a(g44
g6
(g18
S'\xb2\xf0]='
p2546
tp2547
Rp2548
tp2549
a(g389
g6
(g18
S'\x8e\xad<='
p2550
tp2551
Rp2552
tp2553
asg73
g15
sa(dp2554
g2
S'../../../data/emanuela/activity-recognition/images/NTCIR-Lifelog-256/u3/2015-06-18/b00000583_21i79q_20150618_185939e.jpg'
p2555
sg4
(lp2556
(g15
g6
(g18
S'M\xe7~?'
p2557
tp2558
Rp2559
tp2560
a(g32
g6
(g18
S'Q\xe5\x83;'
p2561
tp2562
Rp2563
tp2564
a(g96
g6
(g18
S'+\xe1\x139'
p2565
tp2566
Rp2567
tp2568
a(g44
g6
(g18
S'\xf4S\x828'
p2569
tp2570
Rp2571
tp2572
a(g662
g6
(g18
S'\x913\x957'
p2573
tp2574
Rp2575
tp2576
asg73
g15
sa(dp2577
g2
S'../../../data/emanuela/activity-recognition/images/NTCIR-Lifelog-256/u2/2015-05-03/b00003826_21i7lf_20150503_151134e.jpg'
p2578
sg4
(lp2579
(g15
g6
(g18
S'f\x12c?'
p2580
tp2581
Rp2582
tp2583
a(g32
g6
(g18
S']\x98E='
p2584
tp2585
Rp2586
tp2587
a(g44
g6
(g18
S'\x85\xc6*='
p2588
tp2589
Rp2590
tp2591
a(g96
g6
(g18
S'0+h<'
p2592
tp2593
Rp2594
tp2595
a(g56
g6
(g18
S'4\xbe4;'
p2596
tp2597
Rp2598
tp2599
asg73
g15
sa(dp2600
g2
S'../../../data/emanuela/activity-recognition/images/NTCIR-Lifelog-256/u2/2015-05-07/b00007523_21i7lf_20150507_105144e.jpg'
p2601
sg4
(lp2602
(g15
g6
(g18
S'\x9b\x02x?'
p2603
tp2604
Rp2605
tp2606
a(g32
g6
(g18
S'=a\x9b<'
p2607
tp2608
Rp2609
tp2610
a(g96
g6
(g18
S'1/\xe7;'
p2611
tp2612
Rp2613
tp2614
a(g44
g6
(g18
S'M\xa3];'
p2615
tp2616
Rp2617
tp2618
a(g68
g6
(g18
S'A\xef\xa0:'
p2619
tp2620
Rp2621
tp2622
asg73
g15
sa(dp2623
g2
S'../../../data/emanuela/activity-recognition/images/NTCIR-Lifelog-256/u2/2015-05-03/b00003822_21i7lf_20150503_150856e.jpg'
p2624
sg4
(lp2625
(g15
g6
(g18
S'\x974\xee>'
p2626
tp2627
Rp2628
tp2629
a(g44
g6
(g18
S'\xe3\x13\xc9>'
p2630
tp2631
Rp2632
tp2633
a(g32
g6
(g18
S'HY\xb6='
p2634
tp2635
Rp2636
tp2637
a(g558
g6
(g18
S'1\xf5\x8b<'
p2638
tp2639
Rp2640
tp2641
a(g96
g6
(g18
S'\x18\xa3U<'
p2642
tp2643
Rp2644
tp2645
asg73
g15
sa(dp2646
g2
S'../../../data/emanuela/activity-recognition/images/NTCIR-Lifelog-256/u3/2015-06-18/b00000580_21i79q_20150618_185755e.jpg'
p2647
sg4
(lp2648
(g15
g6
(g18
S'\x9b\x8b~?'
p2649
tp2650
Rp2651
tp2652
a(g32
g6
(g18
S'B)\xac;'
p2653
tp2654
Rp2655
tp2656
a(g96
g6
(g18
S'\xd7\xb0n9'
p2657
tp2658
Rp2659
tp2660
a(g44
g6
(g18
S'6\xedK9'
p2661
tp2662
Rp2663
tp2664
a(g68
g6
(g18
S'\xf2\x19\xe15'
p2665
tp2666
Rp2667
tp2668
asg73
g15
sa(dp2669
g2
S'../../../data/emanuela/activity-recognition/images/NTCIR-Lifelog-256/u2/2015-04-30/b00001029_21i7lf_20150430_131641e.jpg'
p2670
sg4
(lp2671
(g15
g6
(g18
S'6]\x7f?'
p2672
tp2673
Rp2674
tp2675
a(g32
g6
(g18
S'\xad\x04\x03;'
p2676
tp2677
Rp2678
tp2679
a(g44
g6
(g18
S'\xd4\xe0\xab9'
p2680
tp2681
Rp2682
tp2683
a(g389
g6
(g18
S'\x94x[8'
p2684
tp2685
Rp2686
tp2687
a(g96
g6
(g18
S'\xa0\x1aE8'
p2688
tp2689
Rp2690
tp2691
asg73
g15
sa(dp2692
g2
S'../../../data/emanuela/activity-recognition/images/NTCIR-Lifelog-256/u1/2015-03-12/b00001221_21i6bq_20150312_210514e.jpg'
p2693
sg4
(lp2694
(g15
g6
(g18
S'\xca^7?'
p2695
tp2696
Rp2697
tp2698
a(g44
g6
(g18
S'\xc3\xf24>'
p2699
tp2700
Rp2701
tp2702
a(g96
g6
(g18
S'Y\xcf\xad='
p2703
tp2704
Rp2705
tp2706
a(g32
g6
(g18
S'mm^<'
p2707
tp2708
Rp2709
tp2710
a(g662
g6
(g18
S'\xe1,\xb7;'
p2711
tp2712
Rp2713
tp2714
asg73
g15
sa(dp2715
g2
S'../../../data/emanuela/activity-recognition/images/NTCIR-Lifelog-256/u2/2015-05-03/b00003910_21i7lf_20150503_160300e.jpg'
p2716
sg4
(lp2717
(g15
g6
(g18
S'.\xd7\xf0>'
p2718
tp2719
Rp2720
tp2721
a(g44
g6
(g18
S'\x1e\x04\xa1>'
p2722
tp2723
Rp2724
tp2725
a(g32
g6
(g18
S'\xd8\x93\xc9='
p2726
tp2727
Rp2728
tp2729
a(g558
g6
(g18
S'[T\x1a='
p2730
tp2731
Rp2732
tp2733
a(g285
g6
(g18
S'\x87@\xd0<'
p2734
tp2735
Rp2736
tp2737
asg73
g15
sa(dp2738
g2
S'../../../data/emanuela/activity-recognition/images/NTCIR-Lifelog-256/u1/2015-02-24/b00000469_21i6bq_20150224_112716e.jpg'
p2739
sg4
(lp2740
(g15
g6
(g18
S'\x9c\x1bO?'
p2741
tp2742
Rp2743
tp2744
a(g32
g6
(g18
S'C\xe63>'
p2745
tp2746
Rp2747
tp2748
a(g44
g6
(g18
S'n\x89J<'
p2749
tp2750
Rp2751
tp2752
a(g96
g6
(g18
S'r\xf0\x10;'
p2753
tp2754
Rp2755
tp2756
a(g68
g6
(g18
S'4\xce\x08:'
p2757
tp2758
Rp2759
tp2760
asg73
g15
sa(dp2761
g2
S'../../../data/emanuela/activity-recognition/images/NTCIR-Lifelog-256/u1/2015-02-24/b00000929_21i6bq_20150224_160858e.jpg'
p2762
sg4
(lp2763
(g15
g6
(g18
S'\xfddi?'
p2764
tp2765
Rp2766
tp2767
a(g32
g6
(g18
S'\xb8\xc0\xad='
p2768
tp2769
Rp2770
tp2771
a(g44
g6
(g18
S'G\xd7%;'
p2772
tp2773
Rp2774
tp2775
a(g68
g6
(g18
S'IU\xb99'
p2776
tp2777
Rp2778
tp2779
a(g96
g6
(g18
S'\xb1J\x8d9'
p2780
tp2781
Rp2782
tp2783
asg73
g15
sa(dp2784
g2
S'../../../data/emanuela/activity-recognition/images/NTCIR-Lifelog-256/u2/2015-05-06/b00006615_21i7lf_20150506_123609e.jpg'
p2785
sg4
(lp2786
(g15
g6
(g18
S'\xd3\x05R?'
p2787
tp2788
Rp2789
tp2790
a(g32
g6
(g18
S'\xb0g\x1e>'
p2791
tp2792
Rp2793
tp2794
a(g44
g6
(g18
S'\x13e\x85<'
p2795
tp2796
Rp2797
tp2798
a(g246
g6
(g18
S'gth;'
p2799
tp2800
Rp2801
tp2802
a(g389
g6
(g18
S'J\x8d\x89:'
p2803
tp2804
Rp2805
tp2806
asg73
g15
sa(dp2807
g2
S'../../../data/emanuela/activity-recognition/images/NTCIR-Lifelog-256/u1/2015-02-27/b00000635_21i6bq_20150227_135900e.jpg'
p2808
sg4
(lp2809
(g15
g6
(g18
S'\x0e\xe7\x7f?'
p2810
tp2811
Rp2812
tp2813
a(g32
g6
(g18
S'n\xf9B9'
p2814
tp2815
Rp2816
tp2817
a(g44
g6
(g18
S'[D,9'
p2818
tp2819
Rp2820
tp2821
a(g96
g6
(g18
S'*\xae\x987'
p2822
tp2823
Rp2824
tp2825
a(g68
g6
(g18
S'\xc4\xb3\xf76'
p2826
tp2827
Rp2828
tp2829
asg73
g15
sa(dp2830
g2
S'../../../data/emanuela/activity-recognition/images/NTCIR-Lifelog-256/u1/2015-02-25/b00000962_21i6bq_20150225_160229e.jpg'
p2831
sg4
(lp2832
(g15
g6
(g18
S'\x83\x87\x15?'
p2833
tp2834
Rp2835
tp2836
a(g44
g6
(g18
S'\x16F\x18>'
p2837
tp2838
Rp2839
tp2840
a(g32
g6
(g18
S'\x16B\x8d='
p2841
tp2842
Rp2843
tp2844
a(g662
g6
(g18
S'\xd8\xc1\x02='
p2845
tp2846
Rp2847
tp2848
a(g558
g6
(g18
S'\x854\xf5<'
p2849
tp2850
Rp2851
tp2852
asg73
g15
sa(dp2853
g2
S'../../../data/emanuela/activity-recognition/images/NTCIR-Lifelog-256/u2/2015-05-08/b00009020_21i7lf_20150508_125024e.jpg'
p2854
sg4
(lp2855
(g15
g6
(g18
S'\xbe\x96c?'
p2856
tp2857
Rp2858
tp2859
a(g32
g6
(g18
S'\xa8\xad\xcb='
p2860
tp2861
Rp2862
tp2863
a(g44
g6
(g18
S'\x00.\x86;'
p2864
tp2865
Rp2866
tp2867
a(g389
g6
(g18
S'\xe8\x03_;'
p2868
tp2869
Rp2870
tp2871
a(g6
(g7
(S'S6'
p2872
I0
I1
tp2873
Rp2874
(I3
S'|'
p2875
NNNI6
I1
I0
tp2876
bS'mobile'
p2877
tp2878
Rp2879
g6
(g18
S'\xd9\x9eP:'
p2880
tp2881
Rp2882
tp2883
asg73
g15
sa(dp2884
g2
S'../../../data/emanuela/activity-recognition/images/NTCIR-Lifelog-256/u1/2015-02-25/b00001010_21i6bq_20150225_163204e.jpg'
p2885
sg4
(lp2886
(g15
g6
(g18
S'\x80\xf6\x7f?'
p2887
tp2888
Rp2889
tp2890
a(g32
g6
(g18
S'\x98\nk8'
p2891
tp2892
Rp2893
tp2894
a(g68
g6
(g18
S'\x9f\\\xd37'
p2895
tp2896
Rp2897
tp2898
a(g96
g6
(g18
S'\xae$\xc67'
p2899
tp2900
Rp2901
tp2902
a(g56
g6
(g18
S'+N\x977'
p2903
tp2904
Rp2905
tp2906
asg73
g15
sa(dp2907
g2
S'../../../data/emanuela/activity-recognition/images/NTCIR-Lifelog-256/u2/2015-05-01/b00002601_21i7lf_20150501_182751e.jpg'
p2908
sg4
(lp2909
(g15
g6
(g18
S'!\x8dv?'
p2910
tp2911
Rp2912
tp2913
a(g96
g6
(g18
S'Zg\xa2<'
p2914
tp2915
Rp2916
tp2917
a(g44
g6
(g18
S'\x082\x08<'
p2918
tp2919
Rp2920
tp2921
a(g32
g6
(g18
S'<j\x84;'
p2922
tp2923
Rp2924
tp2925
a(g56
g6
(g18
S'P\xb4\x03;'
p2926
tp2927
Rp2928
tp2929
asg73
g15
sa(dp2930
g2
S'../../../data/emanuela/activity-recognition/images/NTCIR-Lifelog-256/u1/2015-02-25/b00000966_21i6bq_20150225_160500e.jpg'
p2931
sg4
(lp2932
(g15
g6
(g18
S'\t~.?'
p2933
tp2934
Rp2935
tp2936
a(g56
g6
(g18
S'\x8e\x0b\xab='
p2937
tp2938
Rp2939
tp2940
a(g246
g6
(g18
S'\xae[\x99='
p2941
tp2942
Rp2943
tp2944
a(g96
g6
(g18
S'}\xdb\x98='
p2945
tp2946
Rp2947
tp2948
a(g662
g6
(g18
S'#\xf2\xd7<'
p2949
tp2950
Rp2951
tp2952
asg73
g15
sa(dp2953
g2
S'../../../data/emanuela/activity-recognition/images/NTCIR-Lifelog-256/u2/2015-04-30/b00001028_21i7lf_20150430_131607e.jpg'
p2954
sg4
(lp2955
(g15
g6
(g18
S'T\xc0}?'
p2956
tp2957
Rp2958
tp2959
a(g44
g6
(g18
S'wf\x91;'
p2960
tp2961
Rp2962
tp2963
a(g32
g6
(g18
S'\xa8\xc2W;'
p2964
tp2965
Rp2966
tp2967
a(g389
g6
(g18
S'\x9d%::'
p2968
tp2969
Rp2970
tp2971
a(g56
g6
(g18
S'\xee\x04\x129'
p2972
tp2973
Rp2974
tp2975
asg73
g15
sa(dp2976
g2
S'../../../data/emanuela/activity-recognition/images/NTCIR-Lifelog-256/u1/2015-02-27/b00000641_21i6bq_20150227_140308e.jpg'
p2977
sg4
(lp2978
(g15
g6
(g18
S'[\xcch?'
p2979
tp2980
Rp2981
tp2982
a(g44
g6
(g18
S'R\xcb\x8e='
p2983
tp2984
Rp2985
tp2986
a(g32
g6
(g18
S'\xffFK<'
p2987
tp2988
Rp2989
tp2990
a(g56
g6
(g18
S'\x01B\xb5;'
p2991
tp2992
Rp2993
tp2994
a(g96
g6
(g18
S'Jr\xc0:'
p2995
tp2996
Rp2997
tp2998
asg73
g15
sa(dp2999
g2
S'../../../data/emanuela/activity-recognition/images/NTCIR-Lifelog-256/u3/2015-07-11/b00000857_21i79q_20150711_145839e.jpg'
p3000
sg4
(lp3001
(g32
g6
(g18
S'c\xe0O?'
p3002
tp3003
Rp3004
tp3005
a(g44
g6
(g18
S'Sk\xd5='
p3006
tp3007
Rp3008
tp3009
a(g96
g6
(g18
S'[\xf5P='
p3010
tp3011
Rp3012
tp3013
a(g15
g6
(g18
S'B\xd6\x97<'
p3014
tp3015
Rp3016
tp3017
a(g68
g6
(g18
S'\xdf\xfc\xa0;'
p3018
tp3019
Rp3020
tp3021
asg73
g15
sa(dp3022
g2
S'../../../data/emanuela/activity-recognition/images/NTCIR-Lifelog-256/u3/2015-06-18/b00000597_21i79q_20150618_190747e.jpg'
p3023
sg4
(lp3024
(g15
g6
(g18
S'\x8f\xd3 ?'
p3025
tp3026
Rp3027
tp3028
a(g32
g6
(g18
S'\x9aZ\xb8>'
p3029
tp3030
Rp3031
tp3032
a(g558
g6
(g18
S'\x80<\x83;'
p3033
tp3034
Rp3035
tp3036
a(g1717
g6
(g18
S'\xa5\xfa`;'
p3037
tp3038
Rp3039
tp3040
a(g693
g6
(g18
S'uc\xa9:'
p3041
tp3042
Rp3043
tp3044
asg73
g15
sa(dp3045
g2
S'../../../data/emanuela/activity-recognition/images/NTCIR-Lifelog-256/u1/2015-03-11/b00001340_21i6bq_20150311_221658e.jpg'
p3046
sg4
(lp3047
(g558
g6
(g18
S'\xddP\x9f>'
p3048
tp3049
Rp3050
tp3051
a(g285
g6
(g18
S'G\xc11>'
p3052
tp3053
Rp3054
tp3055
a(g32
g6
(g18
S'\x00\x92\x04>'
p3056
tp3057
Rp3058
tp3059
a(g1717
g6
(g18
S'r\xff\x92='
p3060
tp3061
Rp3062
tp3063
a(g246
g6
(g18
S'\xad\xb2\x80='
p3064
tp3065
Rp3066
tp3067
asg73
g15
sa(dp3068
g2
S'../../../data/emanuela/activity-recognition/images/NTCIR-Lifelog-256/u1/2015-03-01/b00000506_21i6bq_20150301_115319e.jpg'
p3069
sg4
(lp3070
(g15
g6
(g18
S'\x80{l?'
p3071
tp3072
Rp3073
tp3074
a(g96
g6
(g18
S']w\xf1<'
p3075
tp3076
Rp3077
tp3078
a(g56
g6
(g18
S'\xd7\x9c\xca<'
p3079
tp3080
Rp3081
tp3082
a(g32
g6
(g18
S'Mc\x15<'
p3083
tp3084
Rp3085
tp3086
a(g44
g6
(g18
S'op\xdc;'
p3087
tp3088
Rp3089
tp3090
asg73
g15
sa(dp3091
g2
S'../../../data/emanuela/activity-recognition/images/NTCIR-Lifelog-256/u3/2015-06-28/b00000709_21i79q_20150628_210642e.jpg'
p3092
sg4
(lp3093
(g15
g6
(g18
S'\xad\\h?'
p3094
tp3095
Rp3096
tp3097
a(g96
g6
(g18
S'\xa0n\xa9='
p3098
tp3099
Rp3100
tp3101
a(g56
g6
(g18
S'\xff\x95\x0f;'
p3102
tp3103
Rp3104
tp3105
a(g68
g6
(g18
S'\x03/\x08;'
p3106
tp3107
Rp3108
tp3109
a(g32
g6
(g18
S'\xc1\xb8\xdd:'
p3110
tp3111
Rp3112
tp3113
asg73
g15
sa(dp3114
g2
S'../../../data/emanuela/activity-recognition/images/NTCIR-Lifelog-256/u1/2015-02-25/b00000961_21i6bq_20150225_160157e.jpg'
p3115
sg4
(lp3116
(g15
g6
(g18
S'\xd6\xcbv?'
p3117
tp3118
Rp3119
tp3120
a(g32
g6
(g18
S'%\x99\x02<'
p3121
tp3122
Rp3123
tp3124
a(g246
g6
(g18
S'\xe3\xc7\xb2;'
p3125
tp3126
Rp3127
tp3128
a(g44
g6
(g18
S':\x8b\xa3;'
p3129
tp3130
Rp3131
tp3132
a(g96
g6
(g18
S'\x8c=};'
p3133
tp3134
Rp3135
tp3136
asg73
g15
sa(dp3137
g2
S'../../../data/emanuela/activity-recognition/images/NTCIR-Lifelog-256/u1/2015-03-04/b00000952_21i6bq_20150304_165108e.jpg'
p3138
sg4
(lp3139
(g15
g6
(g18
S'V;u?'
p3140
tp3141
Rp3142
tp3143
a(g32
g6
(g18
S'\x8f{\xfa<'
p3144
tp3145
Rp3146
tp3147
a(g44
g6
(g18
S'dO <'
p3148
tp3149
Rp3150
tp3151
a(g96
g6
(g18
S'\x9a\xc7\xc8:'
p3152
tp3153
Rp3154
tp3155
a(g662
g6
(g18
S'6\xd9X8'
p3156
tp3157
Rp3158
tp3159
asg73
g15
sa(dp3160
g2
S'../../../data/emanuela/activity-recognition/images/NTCIR-Lifelog-256/u1/2015-02-26/b00000775_21i6bq_20150226_143114e.jpg'
p3161
sg4
(lp3162
(g15
g6
(g18
S'0\xe3Q?'
p3163
tp3164
Rp3165
tp3166
a(g44
g6
(g18
S'\xdf\xb0\x14>'
p3167
tp3168
Rp3169
tp3170
a(g96
g6
(g18
S'TP\xba<'
p3171
tp3172
Rp3173
tp3174
a(g56
g6
(g18
S'&\xfc\x8a;'
p3175
tp3176
Rp3177
tp3178
a(g32
g6
(g18
S'!\xa5y;'
p3179
tp3180
Rp3181
tp3182
asg73
g15
sa(dp3183
g2
S'../../../data/emanuela/activity-recognition/images/NTCIR-Lifelog-256/u1/2015-03-11/b00001286_21i6bq_20150311_213621e.jpg'
p3184
sg4
(lp3185
(g32
g6
(g18
S';\xb9\x01?'
p3186
tp3187
Rp3188
tp3189
a(g15
g6
(g18
S'<\x03\x89>'
p3190
tp3191
Rp3192
tp3193
a(g1717
g6
(g18
S'\x1d!\x85='
p3194
tp3195
Rp3196
tp3197
a(g558
g6
(g18
S'>\xd8S='
p3198
tp3199
Rp3200
tp3201
a(g44
g6
(g18
S'\tB>='
p3202
tp3203
Rp3204
tp3205
asg73
g15
sa(dp3206
g2
S'../../../data/emanuela/activity-recognition/images/NTCIR-Lifelog-256/u3/2015-06-18/b00000067_21i79q_20150618_141755e.jpg'
p3207
sg4
(lp3208
(g15
g6
(g18
S'\xb8\xe7~?'
p3209
tp3210
Rp3211
tp3212
a(g96
g6
(g18
S'\x8a\x1dJ;'
p3213
tp3214
Rp3215
tp3216
a(g44
g6
(g18
S'\xc5\\V:'
p3217
tp3218
Rp3219
tp3220
a(g32
g6
(g18
S'W\x9e\xa99'
p3221
tp3222
Rp3223
tp3224
a(g56
g6
(g18
S'\x8e\xfd\x148'
p3225
tp3226
Rp3227
tp3228
asg73
g15
sa(dp3229
g2
S'../../../data/emanuela/activity-recognition/images/NTCIR-Lifelog-256/u1/2015-02-26/b00000781_21i6bq_20150226_143453e.jpg'
p3230
sg4
(lp3231
(g15
g6
(g18
S'"3x?'
p3232
tp3233
Rp3234
tp3235
a(g32
g6
(g18
S'\xbbw\xa4<'
p3236
tp3237
Rp3238
tp3239
a(g68
g6
(g18
S'\x13h\xe6;'
p3240
tp3241
Rp3242
tp3243
a(g44
g6
(g18
S'T\xdf\x0b;'
p3244
tp3245
Rp3246
tp3247
a(g56
g6
(g18
S'\xd2\xb9\xeb9'
p3248
tp3249
Rp3250
tp3251
asg73
g15
sa(dp3252
g2
S'../../../data/emanuela/activity-recognition/images/NTCIR-Lifelog-256/u2/2015-04-26/b00004211_21i7lf_20150426_162642e.jpg'
p3253
sg4
(lp3254
(g15
g6
(g18
S'\x97\xbd\x7f?'
p3255
tp3256
Rp3257
tp3258
a(g32
g6
(g18
S'\x03\x1e>:'
p3259
tp3260
Rp3261
tp3262
a(g96
g6
(g18
S'\x8b!\x1e9'
p3263
tp3264
Rp3265
tp3266
a(g44
g6
(g18
S'\x85\xec\x948'
p3267
tp3268
Rp3269
tp3270
a(g56
g6
(g18
S'{\xfd\xed7'
p3271
tp3272
Rp3273
tp3274
asg73
g15
sa(dp3275
g2
S'../../../data/emanuela/activity-recognition/images/NTCIR-Lifelog-256/u2/2015-05-03/b00003825_21i7lf_20150503_151053e.jpg'
p3276
sg4
(lp3277
(g15
g6
(g18
S'\x0b\xa7m?'
p3278
tp3279
Rp3280
tp3281
a(g32
g6
(g18
S'\xd3\xc9-='
p3282
tp3283
Rp3284
tp3285
a(g44
g6
(g18
S'\x97\xd5\xd3<'
p3286
tp3287
Rp3288
tp3289
a(g96
g6
(g18
S'\x94\xbb\x91:'
p3290
tp3291
Rp3292
tp3293
a(g68
g6
(g18
S'\xc2Ke:'
p3294
tp3295
Rp3296
tp3297
asg73
g15
sa(dp3298
g2
S'../../../data/emanuela/activity-recognition/images/NTCIR-Lifelog-256/u2/2015-05-03/b00003849_21i7lf_20150503_152532e.jpg'
p3299
sg4
(lp3300
(g15
g6
(g18
S'\xeb\x0fa?'
p3301
tp3302
Rp3303
tp3304
a(g32
g6
(g18
S'\x92E\xa4='
p3305
tp3306
Rp3307
tp3308
a(g44
g6
(g18
S'@\x07\xeb<'
p3309
tp3310
Rp3311
tp3312
a(g285
g6
(g18
S'\xbc\x87v;'
p3313
tp3314
Rp3315
tp3316
a(g558
g6
(g18
S'\xbe\x8fP;'
p3317
tp3318
Rp3319
tp3320
asg73
g15
sa(dp3321
g2
S'../../../data/emanuela/activity-recognition/images/NTCIR-Lifelog-256/u2/2015-05-02/b00003276_21i7lf_20150502_143751e.jpg'
p3322
sg4
(lp3323
(g96
g6
(g18
S' \x8b\x01?'
p3324
tp3325
Rp3326
tp3327
a(g15
g6
(g18
S'\xee\x0f\xe8>'
p3328
tp3329
Rp3330
tp3331
a(g56
g6
(g18
S'\xde\xe6\x8a<'
p3332
tp3333
Rp3334
tp3335
a(g389
g6
(g18
S'\xfb\xc3\x0f<'
p3336
tp3337
Rp3338
tp3339
a(g44
g6
(g18
S'\x8c\xa2\x02<'
p3340
tp3341
Rp3342
tp3343
asg73
g15
sa(dp3344
g2
S'../../../data/emanuela/activity-recognition/images/NTCIR-Lifelog-256/u2/2015-05-06/b00006606_21i7lf_20150506_123024e.jpg'
p3345
sg4
(lp3346
(g15
g6
(g18
S'mr{?'
p3347
tp3348
Rp3349
tp3350
a(g32
g6
(g18
S'\xd5wv<'
p3351
tp3352
Rp3353
tp3354
a(g44
g6
(g18
S'\x10\xb2.;'
p3355
tp3356
Rp3357
tp3358
a(g96
g6
(g18
S'\x19\x07\x828'
p3359
tp3360
Rp3361
tp3362
a(g68
g6
(g18
S'\x16\xa3\xf76'
p3363
tp3364
Rp3365
tp3366
asg73
g15
sa(dp3367
g2
S'../../../data/emanuela/activity-recognition/images/NTCIR-Lifelog-256/u3/2015-07-18/b00000367_21i79q_20150718_145744e.jpg'
p3368
sg4
(lp3369
(g15
g6
(g18
S'H\x9eU?'
p3370
tp3371
Rp3372
tp3373
a(g44
g6
(g18
S'\x10m\x9f='
p3374
tp3375
Rp3376
tp3377
a(g96
g6
(g18
S'\xd5\xa8h='
p3378
tp3379
Rp3380
tp3381
a(g32
g6
(g18
S'\xbd\xf1\xd5<'
p3382
tp3383
Rp3384
tp3385
a(g56
g6
(g18
S'\xaaS\x1a;'
p3386
tp3387
Rp3388
tp3389
asg73
g15
sa(dp3390
g2
S'../../../data/emanuela/activity-recognition/images/NTCIR-Lifelog-256/u2/2015-04-26/b00004217_21i7lf_20150426_163219e.jpg'
p3391
sg4
(lp3392
(g15
g6
(g18
S'\x0e5x?'
p3393
tp3394
Rp3395
tp3396
a(g96
g6
(g18
S'\xd7\x009<'
p3397
tp3398
Rp3399
tp3400
a(g44
g6
(g18
S'u\x1b\xc5;'
p3401
tp3402
Rp3403
tp3404
a(g662
g6
(g18
S'\xc6\xf5\xaf;'
p3405
tp3406
Rp3407
tp3408
a(g32
g6
(g18
S'\xc1\x1dd;'
p3409
tp3410
Rp3411
tp3412
asg73
g15
sa(dp3413
g2
S'../../../data/emanuela/activity-recognition/images/NTCIR-Lifelog-256/u1/2015-02-25/b00000960_21i6bq_20150225_160117e.jpg'
p3414
sg4
(lp3415
(g15
g6
(g18
S'LPd?'
p3416
tp3417
Rp3418
tp3419
a(g44
g6
(g18
S'.\xa6n='
p3420
tp3421
Rp3422
tp3423
a(g32
g6
(g18
S'\xec\x9f5<'
p3424
tp3425
Rp3426
tp3427
a(g68
g6
(g18
S'\x84\xaf\xd7;'
p3428
tp3429
Rp3430
tp3431
a(g1717
g6
(g18
S'\xad\t\xce;'
p3432
tp3433
Rp3434
tp3435
asg73
g15
sa(dp3436
g2
S'../../../data/emanuela/activity-recognition/images/NTCIR-Lifelog-256/u2/2015-05-07/b00007536_21i7lf_20150507_105939e.jpg'
p3437
sg4
(lp3438
(g15
g6
(g18
S'\xb4\xa4s?'
p3439
tp3440
Rp3441
tp3442
a(g96
g6
(g18
S'\x96\xc0\xf2<'
p3443
tp3444
Rp3445
tp3446
a(g44
g6
(g18
S'\xd2\xc6 <'
p3447
tp3448
Rp3449
tp3450
a(g32
g6
(g18
S'}\xc1\xe3;'
p3451
tp3452
Rp3453
tp3454
a(g68
g6
(g18
S'\x8b\xe6\x84:'
p3455
tp3456
Rp3457
tp3458
asg73
g15
sa(dp3459
g2
S'../../../data/emanuela/activity-recognition/images/NTCIR-Lifelog-256/u2/2015-05-05/b00005333_21i7lf_20150505_120839e.jpg'
p3460
sg4
(lp3461
(g15
g6
(g18
S'\x93;~?'
p3462
tp3463
Rp3464
tp3465
a(g32
g6
(g18
S'\x99\x13\xd5;'
p3466
tp3467
Rp3468
tp3469
a(g96
g6
(g18
S'z\xf6_9'
p3470
tp3471
Rp3472
tp3473
a(g44
g6
(g18
S'\xf4\xca\x179'
p3474
tp3475
Rp3476
tp3477
a(g56
g6
(g18
S'\xdc\x00\x867'
p3478
tp3479
Rp3480
tp3481
asg73
g15
sa(dp3482
g2
S'../../../data/emanuela/activity-recognition/images/NTCIR-Lifelog-256/u1/2015-03-11/b00001339_21i6bq_20150311_221625e.jpg'
p3483
sg4
(lp3484
(g15
g6
(g18
S'\xd6U\xdc>'
p3485
tp3486
Rp3487
tp3488
a(g44
g6
(g18
S'\x9d+^>'
p3489
tp3490
Rp3491
tp3492
a(g558
g6
(g18
S'v\x90\x16>'
p3493
tp3494
Rp3495
tp3496
a(g285
g6
(g18
S'\x87f.='
p3497
tp3498
Rp3499
tp3500
a(g96
g6
(g18
S's\xb5\x1e='
p3501
tp3502
Rp3503
tp3504
asg73
g15
sa(dp3505
g2
S'../../../data/emanuela/activity-recognition/images/NTCIR-Lifelog-256/u3/2015-06-28/b00000696_21i79q_20150628_205902e.jpg'
p3506
sg4
(lp3507
(g32
g6
(g18
S'G\xf2.?'
p3508
tp3509
Rp3510
tp3511
a(g15
g6
(g18
S'\x0c\xeeQ>'
p3512
tp3513
Rp3514
tp3515
a(g246
g6
(g18
S'\x88\x8c\xdc<'
p3516
tp3517
Rp3518
tp3519
a(g558
g6
(g18
S'9\xb9\xa8<'
p3520
tp3521
Rp3522
tp3523
a(g285
g6
(g18
S'\xbeh\xa2<'
p3524
tp3525
Rp3526
tp3527
asg73
g15
sa(dp3528
g2
S'../../../data/emanuela/activity-recognition/images/NTCIR-Lifelog-256/u2/2015-05-03/b00003832_21i7lf_20150503_151512e.jpg'
p3529
sg4
(lp3530
(g15
g6
(g18
S'\xe1\xff,?'
p3531
tp3532
Rp3533
tp3534
a(g32
g6
(g18
S'\xed\xb3Z>'
p3535
tp3536
Rp3537
tp3538
a(g44
g6
(g18
S'K\x87\xbc='
p3539
tp3540
Rp3541
tp3542
a(g389
g6
(g18
S'\x07\xfa\xc1;'
p3543
tp3544
Rp3545
tp3546
a(g96
g6
(g18
S'\xdf\xf7\x94;'
p3547
tp3548
Rp3549
tp3550
asg73
g15
sa(dp3551
g2
S'../../../data/emanuela/activity-recognition/images/NTCIR-Lifelog-256/u2/2015-05-03/b00003897_21i7lf_20150503_155511e.jpg'
p3552
sg4
(lp3553
(g15
g6
(g18
S'!\xd52?'
p3554
tp3555
Rp3556
tp3557
a(g32
g6
(g18
S'~Bm>'
p3558
tp3559
Rp3560
tp3561
a(g44
g6
(g18
S'J\xe2\x15='
p3562
tp3563
Rp3564
tp3565
a(g285
g6
(g18
S'\x14\xdfV<'
p3566
tp3567
Rp3568
tp3569
a(g558
g6
(g18
S'z\xa4!<'
p3570
tp3571
Rp3572
tp3573
asg73
g15
sa(dp3574
g2
S'../../../data/emanuela/activity-recognition/images/NTCIR-Lifelog-256/u2/2015-04-21/b00000356_21i7lf_20150421_133156e.jpg'
p3575
sg4
(lp3576
(g15
g6
(g18
S'n\xafY?'
p3577
tp3578
Rp3579
tp3580
a(g32
g6
(g18
S'\x0f?\x17>'
p3581
tp3582
Rp3583
tp3584
a(g44
g6
(g18
S'#Y\xa0:'
p3585
tp3586
Rp3587
tp3588
a(g389
g6
(g18
S')b^9'
p3589
tp3590
Rp3591
tp3592
a(g96
g6
(g18
S'\xeal:9'
p3593
tp3594
Rp3595
tp3596
asg73
g15
sa(dp3597
g2
S'../../../data/emanuela/activity-recognition/images/NTCIR-Lifelog-256/u2/2015-05-02/b00003278_21i7lf_20150502_143904e.jpg'
p3598
sg4
(lp3599
(g32
g6
(g18
S'\xd5}$?'
p3600
tp3601
Rp3602
tp3603
a(g15
g6
(g18
S'\xed\xdf\x82>'
p3604
tp3605
Rp3606
tp3607
a(g246
g6
(g18
S'2\xab\xd6<'
p3608
tp3609
Rp3610
tp3611
a(g285
g6
(g18
S'Y\xb5\xd3<'
p3612
tp3613
Rp3614
tp3615
a(g44
g6
(g18
S'\x91Y\x8c<'
p3616
tp3617
Rp3618
tp3619
asg73
g15
sa(dp3620
g2
S'../../../data/emanuela/activity-recognition/images/NTCIR-Lifelog-256/u3/2015-07-18/b00000377_21i79q_20150718_150337e.jpg'
p3621
sg4
(lp3622
(g44
g6
(g18
S'6\xe4\xb3>'
p3623
tp3624
Rp3625
tp3626
a(g96
g6
(g18
S'Vo\x8e>'
p3627
tp3628
Rp3629
tp3630
a(g15
g6
(g18
S'nr@>'
p3631
tp3632
Rp3633
tp3634
a(g32
g6
(g18
S'\x12W\x01>'
p3635
tp3636
Rp3637
tp3638
a(g56
g6
(g18
S'\xe5\xcc\x99<'
p3639
tp3640
Rp3641
tp3642
asg73
g15
sa(dp3643
g2
S'../../../data/emanuela/activity-recognition/images/NTCIR-Lifelog-256/u1/2015-02-23/b00000662_21i6bq_20150223_140021e.jpg'
p3644
sg4
(lp3645
(g15
g6
(g18
S'a\xed\x7f?'
p3646
tp3647
Rp3648
tp3649
a(g96
g6
(g18
S'\x8bm\x009'
p3650
tp3651
Rp3652
tp3653
a(g32
g6
(g18
S'\xb9\x95\xb48'
p3654
tp3655
Rp3656
tp3657
a(g44
g6
(g18
S'6i;8'
p3658
tp3659
Rp3660
tp3661
a(g389
g6
(g18
S'\xf7\x8ca7'
p3662
tp3663
Rp3664
tp3665
asg73
g15
sa(dp3666
g2
S'../../../data/emanuela/activity-recognition/images/NTCIR-Lifelog-256/u1/2015-03-02/b00000559_21i6bq_20150302_125423e.jpg'
p3667
sg4
(lp3668
(g15
g6
(g18
S'\x88\xceq?'
p3669
tp3670
Rp3671
tp3672
a(g44
g6
(g18
S'\xd4t\xdc<'
p3673
tp3674
Rp3675
tp3676
a(g32
g6
(g18
S'9\xc1\xb2<'
p3677
tp3678
Rp3679
tp3680
a(g96
g6
(g18
S'\x02\xa4\xbb;'
p3681
tp3682
Rp3683
tp3684
a(g662
g6
(g18
S'\xf8\x1b\xb29'
p3685
tp3686
Rp3687
tp3688
asg73
g15
sa(dp3689
g2
S'../../../data/emanuela/activity-recognition/images/NTCIR-Lifelog-256/u1/2015-03-02/b00000557_21i6bq_20150302_125304e.jpg'
p3690
sg4
(lp3691
(g15
g6
(g18
S'\t\xa5}?'
p3692
tp3693
Rp3694
tp3695
a(g44
g6
(g18
S'\xb3\x96\x8c;'
p3696
tp3697
Rp3698
tp3699
a(g32
g6
(g18
S'5\x01l;'
p3700
tp3701
Rp3702
tp3703
a(g96
g6
(g18
S'\xdf\x08\x81:'
p3704
tp3705
Rp3706
tp3707
a(g68
g6
(g18
S'\x88\x8b\xf28'
p3708
tp3709
Rp3710
tp3711
asg73
g15
sa(dp3712
g2
S'../../../data/emanuela/activity-recognition/images/NTCIR-Lifelog-256/u1/2015-02-25/b00000984_21i6bq_20150225_161606e.jpg'
p3713
sg4
(lp3714
(g32
g6
(g18
S'\xcf\xed(?'
p3715
tp3716
Rp3717
tp3718
a(g15
g6
(g18
S'g\xed\xab>'
p3719
tp3720
Rp3721
tp3722
a(g68
g6
(g18
S'+K\x0f;'
p3723
tp3724
Rp3725
tp3726
a(g285
g6
(g18
S'\xf54i:'
p3727
tp3728
Rp3729
tp3730
a(g1717
g6
(g18
S'\x06\t\x05:'
p3731
tp3732
Rp3733
tp3734
asg73
g15
sa(dp3735
g2
S'../../../data/emanuela/activity-recognition/images/NTCIR-Lifelog-256/u3/2015-06-15/b00000894_21i79q_20150615_170115e.jpg'
p3736
sg4
(lp3737
(g15
g6
(g18
S'=\x1a~?'
p3738
tp3739
Rp3740
tp3741
a(g32
g6
(g18
S'\x03\xf4\xbc;'
p3742
tp3743
Rp3744
tp3745
a(g96
g6
(g18
S'\x07\xb3\x99:'
p3746
tp3747
Rp3748
tp3749
a(g44
g6
(g18
S'h\xe8\xb19'
p3750
tp3751
Rp3752
tp3753
a(g662
g6
(g18
S'-\x82\xf27'
p3754
tp3755
Rp3756
tp3757
asg73
g15
sa(dp3758
g2
S'../../../data/emanuela/activity-recognition/images/NTCIR-Lifelog-256/u3/2015-06-16/b00000366_21i79q_20150616_153901e.jpg'
p3759
sg4
(lp3760
(g15
g6
(g18
S'\xb7\x18\x02?'
p3761
tp3762
Rp3763
tp3764
a(g32
g6
(g18
S'C\xa5\xf9>'
p3765
tp3766
Rp3767
tp3768
a(g285
g6
(g18
S'\x83\xc3\xdc:'
p3769
tp3770
Rp3771
tp3772
a(g68
g6
(g18
S'\xaf_\xbb:'
p3773
tp3774
Rp3775
tp3776
a(g44
g6
(g18
S'\xf1=\xab9'
p3777
tp3778
Rp3779
tp3780
asg73
g15
sa(dp3781
g2
S'../../../data/emanuela/activity-recognition/images/NTCIR-Lifelog-256/u1/2015-02-24/b00000938_21i6bq_20150224_161423e.jpg'
p3782
sg4
(lp3783
(g15
g6
(g18
S'\tKw?'
p3784
tp3785
Rp3786
tp3787
a(g32
g6
(g18
S'\xf4\xbb\x08='
p3788
tp3789
Rp3790
tp3791
a(g44
g6
(g18
S'E\xc3}9'
p3792
tp3793
Rp3794
tp3795
a(g96
g6
(g18
S'\xafG%9'
p3796
tp3797
Rp3798
tp3799
a(g56
g6
(g18
S',\xed\xd08'
p3800
tp3801
Rp3802
tp3803
asg73
g15
sa(dp3804
g2
S'../../../data/emanuela/activity-recognition/images/NTCIR-Lifelog-256/u3/2015-06-28/b00000679_21i79q_20150628_204955e.jpg'
p3805
sg4
(lp3806
(g96
g6
(g18
S'\xb1I\x02?'
p3807
tp3808
Rp3809
tp3810
a(g15
g6
(g18
S'\x86\x18\xc7>'
p3811
tp3812
Rp3813
tp3814
a(g56
g6
(g18
S'\x17\xca\x05='
p3815
tp3816
Rp3817
tp3818
a(g68
g6
(g18
S'\xb8 \xfa<'
p3819
tp3820
Rp3821
tp3822
a(g44
g6
(g18
S'se\x9d<'
p3823
tp3824
Rp3825
tp3826
asg73
g15
sa.