(lp0
(dp1
S'image'
p2
S'../../../data/emanuela/activity-recognition/images/NTCIR-Lifelog-256/u3/2015-07-18/b00000758_21i79q_20150718_183705e.jpg'
p3
sS'result'
p4
(lp5
(cnumpy.core.multiarray
scalar
p6
(cnumpy
dtype
p7
(S'S11'
p8
I0
I1
tp9
Rp10
(I3
S'|'
p11
NNNI11
I1
I0
tp12
bS'socializing'
p13
tp14
Rp15
g6
(g7
(S'f4'
p16
I0
I1
tp17
Rp18
(I3
S'<'
p19
NNNI-1
I-1
I0
tp20
bS'\x98\xf8}?'
p21
tp22
Rp23
tp24
a(g6
(g7
(S'S25'
p25
I0
I1
tp26
Rp27
(I3
S'|'
p28
NNNI25
I1
I0
tp29
bS'having meal with somebody'
p30
tp31
Rp32
g6
(g18
S'D\xdb\x95;'
p33
tp34
Rp35
tp36
a(g6
(g7
(S'S27'
p37
I0
I1
tp38
Rp39
(I3
S'|'
p40
NNNI27
I1
I0
tp41
bS'having drinks with somebody'
p42
tp43
Rp44
g6
(g18
S'\xea<\xdf:'
p45
tp46
Rp47
tp48
a(g6
(g7
(S'S6'
p49
I0
I1
tp50
Rp51
(I3
S'|'
p52
NNNI6
I1
I0
tp53
bS'mobile'
p54
tp55
Rp56
g6
(g18
S'yhR:'
p57
tp58
Rp59
tp60
a(g6
(g7
(S'S7'
p61
I0
I1
tp62
Rp63
(I3
S'|'
p64
NNNI7
I1
I0
tp65
bS'talking'
p66
tp67
Rp68
g6
(g18
S'`\xac\x859'
p69
tp70
Rp71
tp72
asS'label'
p73
g15
sa(dp74
g2
S'../../../data/emanuela/activity-recognition/images/NTCIR-Lifelog-256/u1/2015-03-11/b00000658_21i6bq_20150311_133817e.jpg'
p75
sg4
(lp76
(g6
(g7
(S'S14'
p77
I0
I1
tp78
Rp79
(I3
S'|'
p80
NNNI14
I1
I0
tp81
bS'walking indoor'
p82
tp83
Rp84
g6
(g18
S'JL,?'
p85
tp86
Rp87
tp88
a(g15
g6
(g18
S'\xcc#\x95='
p89
tp90
Rp91
tp92
a(g44
g6
(g18
S"'0[="
p93
tp94
Rp95
tp96
a(g68
g6
(g18
S'&\xbb\x15='
p97
tp98
Rp99
tp100
a(g6
(g7
(S'S8'
p101
I0
I1
tp102
Rp103
(I3
S'|'
p104
NNNI8
I1
I0
tp105
bS'shopping'
p106
tp107
Rp108
g6
(g18
S'\x95\xfc\x03='
p109
tp110
Rp111
tp112
asg73
g15
sa(dp113
g2
S'../../../data/emanuela/activity-recognition/images/NTCIR-Lifelog-256/u3/2015-06-28/b00000147_21i79q_20150628_155519e.jpg'
p114
sg4
(lp115
(g15
g6
(g18
S'B\xc2F?'
p116
tp117
Rp118
tp119
a(g44
g6
(g18
S'+\xd6X>'
p120
tp121
Rp122
tp123
a(g32
g6
(g18
S'\xef\x05\xd1;'
p124
tp125
Rp126
tp127
a(g6
(g7
(S'S24'
p128
I0
I1
tp129
Rp130
(I3
S'|'
p131
NNNI24
I1
I0
tp132
bS'having drinks/meal alone'
p133
tp134
Rp135
g6
(g18
S'\x85C.;'
p136
tp137
Rp138
tp139
a(g68
g6
(g18
S'\xaf\xbb\xce:'
p140
tp141
Rp142
tp143
asg73
g15
sa(dp144
g2
S'../../../data/emanuela/activity-recognition/images/NTCIR-Lifelog-256/u1/2015-03-11/b00000210_21i6bq_20150311_084917e.jpg'
p145
sg4
(lp146
(g15
g6
(g18
S'Y\xa1m?'
p147
tp148
Rp149
tp150
a(g44
g6
(g18
S'\xcdz ='
p151
tp152
Rp153
tp154
a(g68
g6
(g18
S'\xd5p\x8d<'
p155
tp156
Rp157
tp158
a(g32
g6
(g18
S'4\x83\xcf;'
p159
tp160
Rp161
tp162
a(g84
g6
(g18
S'q0{;'
p163
tp164
Rp165
tp166
asg73
g15
sa(dp167
g2
S'../../../data/emanuela/activity-recognition/images/NTCIR-Lifelog-256/u3/2015-06-28/b00000901_21i79q_20150628_225919e.jpg'
p168
sg4
(lp169
(g15
g6
(g18
S'~\x8d^?'
p170
tp171
Rp172
tp173
a(g32
g6
(g18
S'B\xdc\xbf='
p174
tp175
Rp176
tp177
a(g68
g6
(g18
S'\x90\xd6\xc7<'
p178
tp179
Rp180
tp181
a(g44
g6
(g18
S'\xc6k\x85;'
p182
tp183
Rp184
tp185
a(g6
(g7
(S'S15'
p186
I0
I1
tp187
Rp188
(I3
S'|'
p189
NNNI15
I1
I0
tp190
bS'walking outdoor'
p191
tp192
Rp193
g6
(g18
S'\x8a!\x04;'
p194
tp195
Rp196
tp197
asg73
g15
sa(dp198
g2
S'../../../data/emanuela/activity-recognition/images/NTCIR-Lifelog-256/u3/2015-07-18/b00000683_21i79q_20150718_175201e.jpg'
p199
sg4
(lp200
(g15
g6
(g18
S'\x02\x95\x0c?'
p201
tp202
Rp203
tp204
a(g6
(g7
(S'S16'
p205
I0
I1
tp206
Rp207
(I3
S'|'
p208
NNNI16
I1
I0
tp209
bS'public transport'
p210
tp211
Rp212
g6
(g18
S'\x16\x15\x9e>'
p213
tp214
Rp215
tp216
a(g44
g6
(g18
S'\x80\x13\xa1='
p217
tp218
Rp219
tp220
a(g68
g6
(g18
S'3\xd8\xcd<'
p221
tp222
Rp223
tp224
a(g84
g6
(g18
S'\xcb\x7f\x9a<'
p225
tp226
Rp227
tp228
asg73
g15
sa(dp229
g2
S'../../../data/emanuela/activity-recognition/images/NTCIR-Lifelog-256/u3/2015-07-18/b00000598_21i79q_20150718_170047e.jpg'
p230
sg4
(lp231
(g15
g6
(g18
S' \x14x?'
p232
tp233
Rp234
tp235
a(g68
g6
(g18
S'\x86\xe1|<'
p236
tp237
Rp238
tp239
a(g32
g6
(g18
S'0\x14B<'
p240
tp241
Rp242
tp243
a(g44
g6
(g18
S'\x9a\x83\x12;'
p244
tp245
Rp246
tp247
a(g193
g6
(g18
S'\xb2\x1b~:'
p248
tp249
Rp250
tp251
asg73
g15
sa(dp252
g2
S'../../../data/emanuela/activity-recognition/images/NTCIR-Lifelog-256/u2/2015-04-25/b00003564_21i7lf_20150425_184507e.jpg'
p253
sg4
(lp254
(g15
g6
(g18
S'\x0f\xcd}?'
p255
tp256
Rp257
tp258
a(g68
g6
(g18
S'\x02\xe3\x82;'
p259
tp260
Rp261
tp262
a(g32
g6
(g18
S'\xe6\xe0\x19;'
p263
tp264
Rp265
tp266
a(g44
g6
(g18
S'\xf3\x93&:'
p267
tp268
Rp269
tp270
a(g84
g6
(g18
S'\xb9>\n:'
p271
tp272
Rp273
tp274
asg73
g15
sa(dp275
g2
S'../../../data/emanuela/activity-recognition/images/NTCIR-Lifelog-256/u3/2015-07-13/b00002397_21i79q_20150713_143842e.jpg'
p276
sg4
(lp277
(g135
g6
(g18
S'g\x91 ?'
p278
tp279
Rp280
tp281
a(g44
g6
(g18
S'\x9f\x81!>'
p282
tp283
Rp284
tp285
a(g15
g6
(g18
S'M\xe3\x9d='
p286
tp287
Rp288
tp289
a(g32
g6
(g18
S'eF\xb9<'
p290
tp291
Rp292
tp293
a(g6
(g7
(S'S19'
p294
I0
I1
tp295
Rp296
(I3
S'|'
p297
NNNI19
I1
I0
tp298
bS'cleaning and chores'
p299
tp300
Rp301
g6
(g18
S'\xd8\xb9\xb5<'
p302
tp303
Rp304
tp305
asg73
g15
sa(dp306
g2
S'../../../data/emanuela/activity-recognition/images/NTCIR-Lifelog-256/u3/2015-07-18/b00000960_21i79q_20150718_202952e.jpg'
p307
sg4
(lp308
(g15
g6
(g18
S'\xdc\xc2\\?'
p309
tp310
Rp311
tp312
a(g68
g6
(g18
S'\xcfW$='
p313
tp314
Rp315
tp316
a(g84
g6
(g18
S'\xcdZ\xa5<'
p317
tp318
Rp319
tp320
a(g44
g6
(g18
S'-\xa4\x94<'
p321
tp322
Rp323
tp324
a(g32
g6
(g18
S'\x144X<'
p325
tp326
Rp327
tp328
asg73
g15
sa(dp329
g2
S'../../../data/emanuela/activity-recognition/images/NTCIR-Lifelog-256/u3/2015-06-28/b00000089_21i79q_20150628_152027e.jpg'
p330
sg4
(lp331
(g44
g6
(g18
S'`\x0e\xf2>'
p332
tp333
Rp334
tp335
a(g15
g6
(g18
S'\x85\xd3\xa4>'
p336
tp337
Rp338
tp339
a(g32
g6
(g18
S'\xf8UB>'
p340
tp341
Rp342
tp343
a(g135
g6
(g18
S'=s\xec;'
p344
tp345
Rp346
tp347
a(g6
(g7
(S'S7'
p348
I0
I1
tp349
Rp350
(I3
S'|'
p351
NNNI7
I1
I0
tp352
bS'meeting'
p353
tp354
Rp355
g6
(g18
S'\xf5\x99y;'
p356
tp357
Rp358
tp359
asg73
g15
sa(dp360
g2
S'../../../data/emanuela/activity-recognition/images/NTCIR-Lifelog-256/u3/2015-07-18/b00000580_21i79q_20150718_165012e.jpg'
p361
sg4
(lp362
(g15
g6
(g18
S'\x0c\r ?'
p363
tp364
Rp365
tp366
a(g56
g6
(g18
S'-\xf0\xfc='
p367
tp368
Rp369
tp370
a(g6
(g7
(S'S2'
p371
I0
I1
tp372
Rp373
(I3
S'|'
p374
NNNI2
I1
I0
tp375
bS'tv'
p376
tp377
Rp378
g6
(g18
S'\x1f\xabF='
p379
tp380
Rp381
tp382
a(g44
g6
(g18
S'!\xcf0='
p383
tp384
Rp385
tp386
a(g135
g6
(g18
S'~\xa3\x16='
p387
tp388
Rp389
tp390
asg73
g15
sa(dp391
g2
S'../../../data/emanuela/activity-recognition/images/NTCIR-Lifelog-256/u3/2015-07-18/b00000478_21i79q_20150718_160319e.jpg'
p392
sg4
(lp393
(g15
g6
(g18
S'D\xe7{?'
p394
tp395
Rp396
tp397
a(g68
g6
(g18
S'\x87\x94\xdd;'
p398
tp399
Rp400
tp401
a(g32
g6
(g18
S'b\x10\t;'
p402
tp403
Rp404
tp405
a(g84
g6
(g18
S'\xff\xda\x03;'
p406
tp407
Rp408
tp409
a(g378
g6
(g18
S'(\xa7\xe9:'
p410
tp411
Rp412
tp413
asg73
g15
sa(dp414
g2
S'../../../data/emanuela/activity-recognition/images/NTCIR-Lifelog-256/u3/2015-07-18/b00000665_21i79q_20150718_174108e.jpg'
p415
sg4
(lp416
(g15
g6
(g18
S'\xc8\xf9\x1e?'
p417
tp418
Rp419
tp420
a(g44
g6
(g18
S'\x0e0\x01>'
p421
tp422
Rp423
tp424
a(g212
g6
(g18
S'\xdb\x88\xda='
p425
tp426
Rp427
tp428
a(g56
g6
(g18
S'#\x8ai='
p429
tp430
Rp431
tp432
a(g32
g6
(g18
S':3\xab<'
p433
tp434
Rp435
tp436
asg73
g15
sa(dp437
g2
S'../../../data/emanuela/activity-recognition/images/NTCIR-Lifelog-256/u3/2015-07-18/b00000759_21i79q_20150718_183739e.jpg'
p438
sg4
(lp439
(g15
g6
(g18
S'+r|?'
p440
tp441
Rp442
tp443
a(g68
g6
(g18
S'm\xacj;'
p444
tp445
Rp446
tp447
a(g193
g6
(g18
S'\xacNE;'
p448
tp449
Rp450
tp451
a(g56
g6
(g18
S'\xca\x80\x0e;'
p452
tp453
Rp454
tp455
a(g32
g6
(g18
S'\xc4C\x01;'
p456
tp457
Rp458
tp459
asg73
g15
sa(dp460
g2
S'../../../data/emanuela/activity-recognition/images/NTCIR-Lifelog-256/u2/2015-04-26/b00004175_21i7lf_20150426_160302e.jpg'
p461
sg4
(lp462
(g15
g6
(g18
S'\x1c\xaf\x1b?'
p463
tp464
Rp465
tp466
a(g6
(g7
(S'S19'
p467
I0
I1
tp468
Rp469
(I3
S'|'
p470
NNNI19
I1
I0
tp471
bS'attending a seminar'
p472
tp473
Rp474
g6
(g18
S'\x02\x19/>'
p475
tp476
Rp477
tp478
a(g44
g6
(g18
S'GP\x93='
p479
tp480
Rp481
tp482
a(g84
g6
(g18
S'\xce9:='
p483
tp484
Rp485
tp486
a(g355
g6
(g18
S'}p/='
p487
tp488
Rp489
tp490
asg73
g15
sa(dp491
g2
S'../../../data/emanuela/activity-recognition/images/NTCIR-Lifelog-256/u3/2015-07-18/b00000802_21i79q_20150718_185831e.jpg'
p492
sg4
(lp493
(g15
g6
(g18
S'mWX?'
p494
tp495
Rp496
tp497
a(g193
g6
(g18
S'\x878\xe4='
p498
tp499
Rp500
tp501
a(g44
g6
(g18
S'r*W<'
p502
tp503
Rp504
tp505
a(g32
g6
(g18
S'\xcc\xfa\x14<'
p506
tp507
Rp508
tp509
a(g68
g6
(g18
S'5\x93\xee;'
p510
tp511
Rp512
tp513
asg73
g15
sa(dp514
g2
S'../../../data/emanuela/activity-recognition/images/NTCIR-Lifelog-256/u3/2015-07-11/b00000957_21i79q_20150711_155634e.jpg'
p515
sg4
(lp516
(g15
g6
(g18
S'\x17\x945?'
p517
tp518
Rp519
tp520
a(g135
g6
(g18
S'&\xca\x08>'
p521
tp522
Rp523
tp524
a(g68
g6
(g18
S'\xff\xcbe='
p525
tp526
Rp527
tp528
a(g193
g6
(g18
S'\x0b\x7f\xce<'
p529
tp530
Rp531
tp532
a(g84
g6
(g18
S'c\x8d\xa9<'
p533
tp534
Rp535
tp536
asg73
g15
sa(dp537
g2
S'../../../data/emanuela/activity-recognition/images/NTCIR-Lifelog-256/u3/2015-07-18/b00000995_21i79q_20150718_205042e.jpg'
p538
sg4
(lp539
(g378
g6
(g18
S'\xf6\xa1\xb6>'
p540
tp541
Rp542
tp543
a(g6
(g7
(S'S7'
p544
I0
I1
tp545
Rp546
(I3
S'|'
p547
NNNI7
I1
I0
tp548
bS'resting'
p549
tp550
Rp551
g6
(g18
S'\xc5\xa5\x13>'
p552
tp553
Rp554
tp555
a(g15
g6
(g18
S']\xe2\x05>'
p556
tp557
Rp558
tp559
a(g6
(g7
(S'S7'
p560
I0
I1
tp561
Rp562
(I3
S'|'
p563
NNNI7
I1
I0
tp564
bS'reading'
p565
tp566
Rp567
g6
(g18
S'@\xd1\xbf='
p568
tp569
Rp570
tp571
a(g135
g6
(g18
S'1V\xb5='
p572
tp573
Rp574
tp575
asg73
g15
sa(dp576
g2
S'../../../data/emanuela/activity-recognition/images/NTCIR-Lifelog-256/u3/2015-07-18/b00000666_21i79q_20150718_174148e.jpg'
p577
sg4
(lp578
(g15
g6
(g18
S'G\xe8~?'
p579
tp580
Rp581
tp582
a(g44
g6
(g18
S'\x0fRM;'
p583
tp584
Rp585
tp586
a(g212
g6
(g18
S'\xe2:3:'
p587
tp588
Rp589
tp590
a(g32
g6
(g18
S'D\x7f-9'
p591
tp592
Rp593
tp594
a(g193
g6
(g18
S'\xc0\x10\xb88'
p595
tp596
Rp597
tp598
asg73
g15
sa(dp599
g2
S'../../../data/emanuela/activity-recognition/images/NTCIR-Lifelog-256/u2/2015-04-25/b00003826_21i7lf_20150425_215401e.jpg'
p600
sg4
(lp601
(g15
g6
(g18
S'$aA?'
p602
tp603
Rp604
tp605
a(g32
g6
(g18
S'W\x18\xd2='
p606
tp607
Rp608
tp609
a(g68
g6
(g18
S'z\x89\x10='
p610
tp611
Rp612
tp613
a(g44
g6
(g18
S'\\p\xe8<'
p614
tp615
Rp616
tp617
a(g84
g6
(g18
S'c\x8c\xe2<'
p618
tp619
Rp620
tp621
asg73
g15
sa(dp622
g2
S'../../../data/emanuela/activity-recognition/images/NTCIR-Lifelog-256/u3/2015-06-20/b00001290_21i79q_20150620_011359e.jpg'
p623
sg4
(lp624
(g15
g6
(g18
S'\xfc\x83c?'
p625
tp626
Rp627
tp628
a(g44
g6
(g18
S'E\xf9r='
p629
tp630
Rp631
tp632
a(g193
g6
(g18
S'\xdaj\x88<'
p633
tp634
Rp635
tp636
a(g84
g6
(g18
S'7\xc7!<'
p637
tp638
Rp639
tp640
a(g135
g6
(g18
S'9]\x05<'
p641
tp642
Rp643
tp644
asg73
g15
sa(dp645
g2
S'../../../data/emanuela/activity-recognition/images/NTCIR-Lifelog-256/u3/2015-07-18/b00000842_21i79q_20150718_192242e.jpg'
p646
sg4
(lp647
(g15
g6
(g18
S'\x83o\x03?'
p648
tp649
Rp650
tp651
a(g56
g6
(g18
S'\xecH\x10>'
p652
tp653
Rp654
tp655
a(g68
g6
(g18
S'\x08\x9a\xb8='
p656
tp657
Rp658
tp659
a(g193
g6
(g18
S"\x87'\x9b="
p660
tp661
Rp662
tp663
a(g44
g6
(g18
S'\xcf\xacQ='
p664
tp665
Rp666
tp667
asg73
g15
sa(dp668
g2
S'../../../data/emanuela/activity-recognition/images/NTCIR-Lifelog-256/u2/2015-04-25/b00003558_21i7lf_20150425_184133e.jpg'
p669
sg4
(lp670
(g15
g6
(g18
S'?\x85[?'
p671
tp672
Rp673
tp674
a(g551
g6
(g18
S'y\xaf\x82='
p675
tp676
Rp677
tp678
a(g301
g6
(g18
S'(\xf1\x89<'
p679
tp680
Rp681
tp682
a(g378
g6
(g18
S'\x8a\x16\x80<'
p683
tp684
Rp685
tp686
a(g68
g6
(g18
S'v\x88&<'
p687
tp688
Rp689
tp690
asg73
g15
sa(dp691
g2
S'../../../data/emanuela/activity-recognition/images/NTCIR-Lifelog-256/u3/2015-07-18/b00000916_21i79q_20150718_200750e.jpg'
p692
sg4
(lp693
(g15
g6
(g18
S'\xf6\x97q?'
p694
tp695
Rp696
tp697
a(g32
g6
(g18
S'}b\xdd<'
p698
tp699
Rp700
tp701
a(g135
g6
(g18
S'\xb0\x82&<'
p702
tp703
Rp704
tp705
a(g44
g6
(g18
S'\x1a\xb6 <'
p706
tp707
Rp708
tp709
a(g68
g6
(g18
S'#\xf1<;'
p710
tp711
Rp712
tp713
asg73
g15
sa(dp714
g2
S'../../../data/emanuela/activity-recognition/images/NTCIR-Lifelog-256/u3/2015-06-20/b00001424_21i79q_20150620_024237e.jpg'
p715
sg4
(lp716
(g68
g6
(g18
S'XU\xf9>'
p717
tp718
Rp719
tp720
a(g15
g6
(g18
S'\x0bl\xcb>'
p721
tp722
Rp723
tp724
a(g32
g6
(g18
S'\x1d4\x97='
p725
tp726
Rp727
tp728
a(g84
g6
(g18
S'|iC<'
p729
tp730
Rp731
tp732
a(g355
g6
(g18
S'\x9d\x92\xd7;'
p733
tp734
Rp735
tp736
asg73
g15
sa(dp737
g2
S'../../../data/emanuela/activity-recognition/images/NTCIR-Lifelog-256/u3/2015-07-18/b00000703_21i79q_20150718_180406e.jpg'
p738
sg4
(lp739
(g15
g6
(g18
S'z%x?'
p740
tp741
Rp742
tp743
a(g44
g6
(g18
S'\xa9[]<'
p744
tp745
Rp746
tp747
a(g212
g6
(g18
S'(\x06@<'
p748
tp749
Rp750
tp751
a(g32
g6
(g18
S'\x9b\xf1\xb0:'
p752
tp753
Rp754
tp755
a(g108
g6
(g18
S'^+\xa9:'
p756
tp757
Rp758
tp759
asg73
g15
sa(dp760
g2
S'../../../data/emanuela/activity-recognition/images/NTCIR-Lifelog-256/u2/2015-04-25/b00003607_21i7lf_20150425_192057e.jpg'
p761
sg4
(lp762
(g15
g6
(g18
S'\x03\xd0\xf3>'
p763
tp764
Rp765
tp766
a(g68
g6
(g18
S'"\x84\x8c>'
p767
tp768
Rp769
tp770
a(g355
g6
(g18
S'\xfe0G>'
p771
tp772
Rp773
tp774
a(g44
g6
(g18
S'As\xc7<'
p775
tp776
Rp777
tp778
a(g32
g6
(g18
S"'i\x94<"
p779
tp780
Rp781
tp782
asg73
g15
sa(dp783
g2
S'../../../data/emanuela/activity-recognition/images/NTCIR-Lifelog-256/u2/2015-04-25/b00003272_21i7lf_20150425_154633e.jpg'
p784
sg4
(lp785
(g15
g6
(g18
S'\\\xab8?'
p786
tp787
Rp788
tp789
a(g44
g6
(g18
S'&\xa4\xdc='
p790
tp791
Rp792
tp793
a(g68
g6
(g18
S'\xe7\xba\xb8='
p794
tp795
Rp796
tp797
a(g84
g6
(g18
S'\xcc{!='
p798
tp799
Rp800
tp801
a(g355
g6
(g18
S'\xa4\xa8A<'
p802
tp803
Rp804
tp805
asg73
g15
sa(dp806
g2
S'../../../data/emanuela/activity-recognition/images/NTCIR-Lifelog-256/u3/2015-06-20/b00001356_21i79q_20150620_015556e.jpg'
p807
sg4
(lp808
(g44
g6
(g18
S'J\xf2\xf4>'
p809
tp810
Rp811
tp812
a(g15
g6
(g18
S'\x07qB>'
p813
tp814
Rp815
tp816
a(g84
g6
(g18
S'\xa3\xe6\x18>'
p817
tp818
Rp819
tp820
a(g474
g6
(g18
S'+f<='
p821
tp822
Rp823
tp824
a(g108
g6
(g18
S'\xf1_\x17='
p825
tp826
Rp827
tp828
asg73
g15
sa(dp829
g2
S'../../../data/emanuela/activity-recognition/images/NTCIR-Lifelog-256/u3/2015-07-18/b00000906_21i79q_20150718_200201e.jpg'
p830
sg4
(lp831
(g15
g6
(g18
S'\xf8\x13k?'
p832
tp833
Rp834
tp835
a(g193
g6
(g18
S'\xd5\x1b\xe9<'
p836
tp837
Rp838
tp839
a(g68
g6
(g18
S'a\xfa\xc7<'
p840
tp841
Rp842
tp843
a(g32
g6
(g18
S'\xad\xa3\xe0;'
p844
tp845
Rp846
tp847
a(g44
g6
(g18
S'\x1c\xbe\xd0;'
p848
tp849
Rp850
tp851
asg73
g15
sa(dp852
g2
S'../../../data/emanuela/activity-recognition/images/NTCIR-Lifelog-256/u2/2015-04-26/b00004172_21i7lf_20150426_160006e.jpg'
p853
sg4
(lp854
(g15
g6
(g18
S';\x10\xe7>'
p855
tp856
Rp857
tp858
a(g44
g6
(g18
S'\xcce\x1c>'
p859
tp860
Rp861
tp862
a(g84
g6
(g18
S'\xd8j\xb2='
p863
tp864
Rp865
tp866
a(g474
g6
(g18
S'0\xdf\xa9='
p867
tp868
Rp869
tp870
a(g32
g6
(g18
S'\x0e<\x8a='
p871
tp872
Rp873
tp874
asg73
g15
sa(dp875
g2
S'../../../data/emanuela/activity-recognition/images/NTCIR-Lifelog-256/u3/2015-06-28/b00000865_21i79q_20150628_223747e.jpg'
p876
sg4
(lp877
(g15
g6
(g18
S'Eq(?'
p878
tp879
Rp880
tp881
a(g378
g6
(g18
S'\xecK+>'
p882
tp883
Rp884
tp885
a(g32
g6
(g18
S'2\x15\xd8='
p886
tp887
Rp888
tp889
a(g44
g6
(g18
S'\xe4\xaf\xc5<'
p890
tp891
Rp892
tp893
a(g135
g6
(g18
S'Hu\xa0<'
p894
tp895
Rp896
tp897
asg73
g15
sa(dp898
g2
S'../../../data/emanuela/activity-recognition/images/NTCIR-Lifelog-256/u3/2015-07-18/b00000710_21i79q_20150718_180817e.jpg'
p899
sg4
(lp900
(g15
g6
(g18
S'7\xc2m?'
p901
tp902
Rp903
tp904
a(g44
g6
(g18
S'\n\x1a%='
p905
tp906
Rp907
tp908
a(g32
g6
(g18
S'0O\xc1;'
p909
tp910
Rp911
tp912
a(g193
g6
(g18
S'\x16\xfe\xbd;'
p913
tp914
Rp915
tp916
a(g68
g6
(g18
S'\n\x92\x9c;'
p917
tp918
Rp919
tp920
asg73
g15
sa(dp921
g2
S'../../../data/emanuela/activity-recognition/images/NTCIR-Lifelog-256/u3/2015-06-20/b00001383_21i79q_20150620_021443e.jpg'
p922
sg4
(lp923
(g15
g6
(g18
S'\xc3H(?'
p924
tp925
Rp926
tp927
a(g44
g6
(g18
S'\xdb\x16y>'
p928
tp929
Rp930
tp931
a(g84
g6
(g18
S'\xaa"\xf4<'
p932
tp933
Rp934
tp935
a(g32
g6
(g18
S'\x01\x94\xe6<'
p936
tp937
Rp938
tp939
a(g108
g6
(g18
S'\xa9\xdb\xae<'
p940
tp941
Rp942
tp943
asg73
g15
sa(dp944
g2
S'../../../data/emanuela/activity-recognition/images/NTCIR-Lifelog-256/u3/2015-07-18/b00000927_21i79q_20150718_201421e.jpg'
p945
sg4
(lp946
(g15
g6
(g18
S'f\x18n?'
p947
tp948
Rp949
tp950
a(g32
g6
(g18
S'\x1dH\xf5<'
p951
tp952
Rp953
tp954
a(g56
g6
(g18
S'\xe2rR<'
p955
tp956
Rp957
tp958
a(g44
g6
(g18
S'\tr\xc5;'
p959
tp960
Rp961
tp962
a(g135
g6
(g18
S'?\x19\xad;'
p963
tp964
Rp965
tp966
asg73
g15
sa(dp967
g2
S'../../../data/emanuela/activity-recognition/images/NTCIR-Lifelog-256/u1/2015-02-23/b00000585_21i6bq_20150223_131248e.jpg'
p968
sg4
(lp969
(g15
g6
(g18
S'\xa0\xd1z?'
p970
tp971
Rp972
tp973
a(g193
g6
(g18
S'g\xcf\xb9;'
p974
tp975
Rp976
tp977
a(g84
g6
(g18
S'n\x8a$;'
p978
tp979
Rp980
tp981
a(g68
g6
(g18
S'\x8d\x93\x0c;'
p982
tp983
Rp984
tp985
a(g212
g6
(g18
S'=\x91\x00;'
p986
tp987
Rp988
tp989
asg73
g15
sa(dp990
g2
S'../../../data/emanuela/activity-recognition/images/NTCIR-Lifelog-256/u2/2015-05-07/b00007379_21i7lf_20150507_091609e.jpg'
p991
sg4
(lp992
(g15
g6
(g18
S'N\xf8\xd6>'
p993
tp994
Rp995
tp996
a(g68
g6
(g18
S'f\xd6\xa1>'
p997
tp998
Rp999
tp1000
a(g32
g6
(g18
S'[v\x06>'
p1001
tp1002
Rp1003
tp1004
a(g44
g6
(g18
S'"5l='
p1005
tp1006
Rp1007
tp1008
a(g108
g6
(g18
S'\xd6\xa6\x16='
p1009
tp1010
Rp1011
tp1012
asg73
g15
sa(dp1013
g2
S'../../../data/emanuela/activity-recognition/images/NTCIR-Lifelog-256/u3/2015-07-18/b00000801_21i79q_20150718_185753e.jpg'
p1014
sg4
(lp1015
(g15
g6
(g18
S'x}s?'
p1016
tp1017
Rp1018
tp1019
a(g44
g6
(g18
S'\xe9l\xe1<'
p1020
tp1021
Rp1022
tp1023
a(g212
g6
(g18
S'3E\xcb;'
p1024
tp1025
Rp1026
tp1027
a(g193
g6
(g18
S'\xe8\x08x;'
p1028
tp1029
Rp1030
tp1031
a(g68
g6
(g18
S'q\xf3X;'
p1032
tp1033
Rp1034
tp1035
asg73
g15
sa(dp1036
g2
S'../../../data/emanuela/activity-recognition/images/NTCIR-Lifelog-256/u3/2015-06-20/b00001372_21i79q_20150620_020718e.jpg'
p1037
sg4
(lp1038
(g44
g6
(g18
S' \xafI?'
p1039
tp1040
Rp1041
tp1042
a(g108
g6
(g18
S'\x95?K='
p1043
tp1044
Rp1045
tp1046
a(g15
g6
(g18
S'\xf2\xbdB='
p1047
tp1048
Rp1049
tp1050
a(g84
g6
(g18
S'\xc6=\x03='
p1051
tp1052
Rp1053
tp1054
a(g135
g6
(g18
S'x\xb2\xee<'
p1055
tp1056
Rp1057
tp1058
asg73
g15
sa(dp1059
g2
S'../../../data/emanuela/activity-recognition/images/NTCIR-Lifelog-256/u2/2015-04-25/b00003484_21i7lf_20150425_175627e.jpg'
p1060
sg4
(lp1061
(g15
g6
(g18
S'\xec?S?'
p1062
tp1063
Rp1064
tp1065
a(g68
g6
(g18
S'\x19\xfc\xe1='
p1066
tp1067
Rp1068
tp1069
a(g56
g6
(g18
S'4U\xe7<'
p1070
tp1071
Rp1072
tp1073
a(g551
g6
(g18
S'\x17\x11\n<'
p1074
tp1075
Rp1076
tp1077
a(g378
g6
(g18
S'\x97\xd0\x04<'
p1078
tp1079
Rp1080
tp1081
asg73
g15
sa(dp1082
g2
S'../../../data/emanuela/activity-recognition/images/NTCIR-Lifelog-256/u3/2015-06-20/b00001385_21i79q_20150620_021555e.jpg'
p1083
sg4
(lp1084
(g108
g6
(g18
S'\x8b\x98\xb7>'
p1085
tp1086
Rp1087
tp1088
a(g44
g6
(g18
S'\xb3\xba\x9b>'
p1089
tp1090
Rp1091
tp1092
a(g15
g6
(g18
S'<\xd9\x1f>'
p1093
tp1094
Rp1095
tp1096
a(g84
g6
(g18
S'\\\x9ft='
p1097
tp1098
Rp1099
tp1100
a(g32
g6
(g18
S'\x94\xda\x06='
p1101
tp1102
Rp1103
tp1104
asg73
g15
sa(dp1105
g2
S'../../../data/emanuela/activity-recognition/images/NTCIR-Lifelog-256/u3/2015-07-18/b00000822_21i79q_20150718_191033e.jpg'
p1106
sg4
(lp1107
(g15
g6
(g18
S'\x83\xccx?'
p1108
tp1109
Rp1110
tp1111
a(g193
g6
(g18
S'r\x9f\x0e<'
p1112
tp1113
Rp1114
tp1115
a(g68
g6
(g18
S'\x96`\xf2;'
p1116
tp1117
Rp1118
tp1119
a(g44
g6
(g18
S'C\xd3\xf1;'
p1120
tp1121
Rp1122
tp1123
a(g56
g6
(g18
S'a\xbe]:'
p1124
tp1125
Rp1126
tp1127
asg73
g15
sa(dp1128
g2
S'../../../data/emanuela/activity-recognition/images/NTCIR-Lifelog-256/u3/2015-07-18/b00000400_21i79q_20150718_151727e.jpg'
p1129
sg4
(lp1130
(g15
g6
(g18
S'\xc4gy?'
p1131
tp1132
Rp1133
tp1134
a(g32
g6
(g18
S'#\xdc_<'
p1135
tp1136
Rp1137
tp1138
a(g68
g6
(g18
S'\xdc\x08\xeb;'
p1139
tp1140
Rp1141
tp1142
a(g193
g6
(g18
S'Kv\xb1:'
p1143
tp1144
Rp1145
tp1146
a(g44
g6
(g18
S'\x9a\xf1\xad:'
p1147
tp1148
Rp1149
tp1150
asg73
g15
sa(dp1151
g2
S'../../../data/emanuela/activity-recognition/images/NTCIR-Lifelog-256/u3/2015-06-20/b00001366_21i79q_20150620_020219e.jpg'
p1152
sg4
(lp1153
(g15
g6
(g18
S'\x11a`?'
p1154
tp1155
Rp1156
tp1157
a(g84
g6
(g18
S'\xad\xaew='
p1158
tp1159
Rp1160
tp1161
a(g44
g6
(g18
S'\x84\xc6(='
p1162
tp1163
Rp1164
tp1165
a(g108
g6
(g18
S'\xad-\xb7;'
p1166
tp1167
Rp1168
tp1169
a(g32
g6
(g18
S'\xad\xb8\xa9;'
p1170
tp1171
Rp1172
tp1173
asg73
g15
sa(dp1174
g2
S'../../../data/emanuela/activity-recognition/images/NTCIR-Lifelog-256/u1/2015-02-23/b00000479_21i6bq_20150223_120842e.jpg'
p1175
sg4
(lp1176
(g15
g6
(g18
S'\xa9.\x9a>'
p1177
tp1178
Rp1179
tp1180
a(g44
g6
(g18
S'b\xf7j>'
p1181
tp1182
Rp1183
tp1184
a(g32
g6
(g18
S'&7\x18>'
p1185
tp1186
Rp1187
tp1188
a(g135
g6
(g18
S'(\xab\xbd='
p1189
tp1190
Rp1191
tp1192
a(g68
g6
(g18
S'\x01M\xaf='
p1193
tp1194
Rp1195
tp1196
asg73
g15
sa(dp1197
g2
S'../../../data/emanuela/activity-recognition/images/NTCIR-Lifelog-256/u3/2015-07-18/b00000968_21i79q_20150718_203413e.jpg'
p1198
sg4
(lp1199
(g15
g6
(g18
S'\x9c<y?'
p1200
tp1201
Rp1202
tp1203
a(g32
g6
(g18
S'\xbe2\x83<'
p1204
tp1205
Rp1206
tp1207
a(g44
g6
(g18
S'y\x1ax;'
p1208
tp1209
Rp1210
tp1211
a(g135
g6
(g18
S'}\n\xe3:'
p1212
tp1213
Rp1214
tp1215
a(g193
g6
(g18
S'\xe3qo:'
p1216
tp1217
Rp1218
tp1219
asg73
g15
sa(dp1220
g2
S'../../../data/emanuela/activity-recognition/images/NTCIR-Lifelog-256/u3/2015-07-18/b00000645_21i79q_20150718_172843e.jpg'
p1221
sg4
(lp1222
(g15
g6
(g18
S'\x84\xdaK?'
p1223
tp1224
Rp1225
tp1226
a(g212
g6
(g18
S'\xabv%>'
p1227
tp1228
Rp1229
tp1230
a(g44
g6
(g18
S'\xbe\xc4\xd6<'
p1231
tp1232
Rp1233
tp1234
a(g32
g6
(g18
S'\x1b\xee\xb6;'
p1235
tp1236
Rp1237
tp1238
a(g108
g6
(g18
S'\xca\xa8;;'
p1239
tp1240
Rp1241
tp1242
asg73
g15
sa(dp1243
g2
S'../../../data/emanuela/activity-recognition/images/NTCIR-Lifelog-256/u3/2015-06-20/b00001187_21i79q_20150620_000338e.jpg'
p1244
sg4
(lp1245
(g15
g6
(g18
S'j\xaf\xef>'
p1246
tp1247
Rp1248
tp1249
a(g68
g6
(g18
S'\xd3\xc0\x82>'
p1250
tp1251
Rp1252
tp1253
a(g84
g6
(g18
S'eS\xdd='
p1254
tp1255
Rp1256
tp1257
a(g301
g6
(g18
S'N\xad}='
p1258
tp1259
Rp1260
tp1261
a(g44
g6
(g18
S'\xf1%\xbb<'
p1262
tp1263
Rp1264
tp1265
asg73
g15
sa(dp1266
g2
S'../../../data/emanuela/activity-recognition/images/NTCIR-Lifelog-256/u2/2015-04-25/b00003533_21i7lf_20150425_182618e.jpg'
p1267
sg4
(lp1268
(g15
g6
(g18
S'\x8aSj?'
p1269
tp1270
Rp1271
tp1272
a(g32
g6
(g18
S'"\x0f\x03='
p1273
tp1274
Rp1275
tp1276
a(g474
g6
(g18
S'\x18j\xce<'
p1277
tp1278
Rp1279
tp1280
a(g44
g6
(g18
S"\xf2n'<"
p1281
tp1282
Rp1283
tp1284
a(g68
g6
(g18
S'\x16\x9d\xb9;'
p1285
tp1286
Rp1287
tp1288
asg73
g15
sa(dp1289
g2
S'../../../data/emanuela/activity-recognition/images/NTCIR-Lifelog-256/u3/2015-07-11/b00000882_21i79q_20150711_151348e.jpg'
p1290
sg4
(lp1291
(g15
g6
(g18
S'KwJ?'
p1292
tp1293
Rp1294
tp1295
a(g135
g6
(g18
S'\t\xc5\xf5='
p1296
tp1297
Rp1298
tp1299
a(g193
g6
(g18
S'\xd71\xa7<'
p1300
tp1301
Rp1302
tp1303
a(g56
g6
(g18
S's^I<'
p1304
tp1305
Rp1306
tp1307
a(g84
g6
(g18
S'S\x8e6<'
p1308
tp1309
Rp1310
tp1311
asg73
g15
sa(dp1312
g2
S'../../../data/emanuela/activity-recognition/images/NTCIR-Lifelog-256/u3/2015-06-28/b00000787_21i79q_20150628_215554e.jpg'
p1313
sg4
(lp1314
(g15
g6
(g18
S'bs\x11?'
p1315
tp1316
Rp1317
tp1318
a(g56
g6
(g18
S'U\xf4\x9b>'
p1319
tp1320
Rp1321
tp1322
a(g32
g6
(g18
S'G,p='
p1323
tp1324
Rp1325
tp1326
a(g193
g6
(g18
S'\xfb\x14F<'
p1327
tp1328
Rp1329
tp1330
a(g378
g6
(g18
S'\xe7]%<'
p1331
tp1332
Rp1333
tp1334
asg73
g15
sa(dp1335
g2
S'../../../data/emanuela/activity-recognition/images/NTCIR-Lifelog-256/u3/2015-06-28/b00000148_21i79q_20150628_155553e.jpg'
p1336
sg4
(lp1337
(g15
g6
(g18
S'\x8f\x99\xe8>'
p1338
tp1339
Rp1340
tp1341
a(g44
g6
(g18
S'\xbal\xa1>'
p1342
tp1343
Rp1344
tp1345
a(g68
g6
(g18
S'<\xff\xdf='
p1346
tp1347
Rp1348
tp1349
a(g193
g6
(g18
S'3\xbcE='
p1350
tp1351
Rp1352
tp1353
a(g135
g6
(g18
S'\xae\xf0\x83<'
p1354
tp1355
Rp1356
tp1357
asg73
g15
sa(dp1358
g2
S'../../../data/emanuela/activity-recognition/images/NTCIR-Lifelog-256/u3/2015-07-18/b00000631_21i79q_20150718_172020e.jpg'
p1359
sg4
(lp1360
(g15
g6
(g18
S'\xea\x91v?'
p1361
tp1362
Rp1363
tp1364
a(g44
g6
(g18
S'_C\xe2<'
p1365
tp1366
Rp1367
tp1368
a(g32
g6
(g18
S'\xd3\xa5\xd5;'
p1369
tp1370
Rp1371
tp1372
a(g193
g6
(g18
S'\xaf\x12|:'
p1373
tp1374
Rp1375
tp1376
a(g56
g6
(g18
S'NH\x1f:'
p1377
tp1378
Rp1379
tp1380
asg73
g15
sa(dp1381
g2
S'../../../data/emanuela/activity-recognition/images/NTCIR-Lifelog-256/u2/2015-04-25/b00003776_21i7lf_20150425_211053e.jpg'
p1382
sg4
(lp1383
(g15
g6
(g18
S'0$U?'
p1384
tp1385
Rp1386
tp1387
a(g378
g6
(g18
S'\xae\x11R='
p1388
tp1389
Rp1390
tp1391
a(g474
g6
(g18
S'\xaf\x8e\x12='
p1392
tp1393
Rp1394
tp1395
a(g301
g6
(g18
S'\xc2\xa3E<'
p1396
tp1397
Rp1398
tp1399
a(g84
g6
(g18
S'L\x05=<'
p1400
tp1401
Rp1402
tp1403
asg73
g15
sa(dp1404
g2
S'../../../data/emanuela/activity-recognition/images/NTCIR-Lifelog-256/u1/2015-03-15/b00001200_21i6bq_20150315_191029e.jpg'
p1405
sg4
(lp1406
(g15
g6
(g18
S'\x04\xf4e?'
p1407
tp1408
Rp1409
tp1410
a(g68
g6
(g18
S'\xcf\xf7\x1c='
p1411
tp1412
Rp1413
tp1414
a(g44
g6
(g18
S'IS\x04='
p1415
tp1416
Rp1417
tp1418
a(g32
g6
(g18
S'\x00w\x86<'
p1419
tp1420
Rp1421
tp1422
a(g84
g6
(g18
S'>\x8c\xbe;'
p1423
tp1424
Rp1425
tp1426
asg73
g15
sa(dp1427
g2
S'../../../data/emanuela/activity-recognition/images/NTCIR-Lifelog-256/u3/2015-07-25/b00001214_21i79q_20150725_153919e.jpg'
p1428
sg4
(lp1429
(g15
g6
(g18
S'\xb1-\x07?'
p1430
tp1431
Rp1432
tp1433
a(g567
g6
(g18
S'=\xc64>'
p1434
tp1435
Rp1436
tp1437
a(g68
g6
(g18
S'\xd9\x8cx='
p1438
tp1439
Rp1440
tp1441
a(g474
g6
(g18
S'\x8f|E='
p1442
tp1443
Rp1444
tp1445
a(g355
g6
(g18
S'\x87\xe8\x06='
p1446
tp1447
Rp1448
tp1449
asg73
g15
sa(dp1450
g2
S'../../../data/emanuela/activity-recognition/images/NTCIR-Lifelog-256/u3/2015-07-18/b00000941_21i79q_20150718_202253e.jpg'
p1451
sg4
(lp1452
(g15
g6
(g18
S'\xca\xacb?'
p1453
tp1454
Rp1455
tp1456
a(g32
g6
(g18
S'\x00\xdd\xfc<'
p1457
tp1458
Rp1459
tp1460
a(g212
g6
(g18
S'\xc0\xf6\x92<'
p1461
tp1462
Rp1463
tp1464
a(g44
g6
(g18
S'\xdf\x0b^<'
p1465
tp1466
Rp1467
tp1468
a(g108
g6
(g18
S'\x8c\x03S<'
p1469
tp1470
Rp1471
tp1472
asg73
g15
sa(dp1473
g2
S'../../../data/emanuela/activity-recognition/images/NTCIR-Lifelog-256/u3/2015-07-18/b00000832_21i79q_20150718_191644e.jpg'
p1474
sg4
(lp1475
(g15
g6
(g18
S'\x19&h?'
p1476
tp1477
Rp1478
tp1479
a(g56
g6
(g18
S'\xe4\x81\x1e='
p1480
tp1481
Rp1482
tp1483
a(g44
g6
(g18
S'\xea\xec\xff<'
p1484
tp1485
Rp1486
tp1487
a(g32
g6
(g18
S"lk'<"
p1488
tp1489
Rp1490
tp1491
a(g193
g6
(g18
S'\xde\x8e\x17<'
p1492
tp1493
Rp1494
tp1495
asg73
g15
sa(dp1496
g2
S'../../../data/emanuela/activity-recognition/images/NTCIR-Lifelog-256/u3/2015-06-20/b00001352_21i79q_20150620_015342e.jpg'
p1497
sg4
(lp1498
(g15
g6
(g18
S'\x93\x0f\x18?'
p1499
tp1500
Rp1501
tp1502
a(g84
g6
(g18
S'\x07\x99\x12>'
p1503
tp1504
Rp1505
tp1506
a(g44
g6
(g18
S'\xf3D\xd7='
p1507
tp1508
Rp1509
tp1510
a(g108
g6
(g18
S'\xd2\xc9\xaa='
p1511
tp1512
Rp1513
tp1514
a(g56
g6
(g18
S'\x9f\xdal<'
p1515
tp1516
Rp1517
tp1518
asg73
g15
sa(dp1519
g2
S'../../../data/emanuela/activity-recognition/images/NTCIR-Lifelog-256/u1/2015-02-23/b00000532_21i6bq_20150223_124018e.jpg'
p1520
sg4
(lp1521
(g15
g6
(g18
S'L\x06s?'
p1522
tp1523
Rp1524
tp1525
a(g84
g6
(g18
S'\xbc\xeaL<'
p1526
tp1527
Rp1528
tp1529
a(g44
g6
(g18
S'o\xaa?<'
p1530
tp1531
Rp1532
tp1533
a(g212
g6
(g18
S'oh\xdc;'
p1534
tp1535
Rp1536
tp1537
a(g32
g6
(g18
S',\x14\x8e;'
p1538
tp1539
Rp1540
tp1541
asg73
g15
sa(dp1542
g2
S'../../../data/emanuela/activity-recognition/images/NTCIR-Lifelog-256/u2/2015-05-06/b00007134_21i7lf_20150506_180409e.jpg'
p1543
sg4
(lp1544
(g15
g6
(g18
S'f\xf0f?'
p1545
tp1546
Rp1547
tp1548
a(g44
g6
(g18
S'd[Y='
p1549
tp1550
Rp1551
tp1552
a(g68
g6
(g18
S'\x13\xec[<'
p1553
tp1554
Rp1555
tp1556
a(g474
g6
(g18
S'\xabKP<'
p1557
tp1558
Rp1559
tp1560
a(g135
g6
(g18
S'f\xdbl;'
p1561
tp1562
Rp1563
tp1564
asg73
g15
sa(dp1565
g2
S'../../../data/emanuela/activity-recognition/images/NTCIR-Lifelog-256/u1/2015-02-23/b00000574_21i6bq_20150223_130609e.jpg'
p1566
sg4
(lp1567
(g15
g6
(g18
S'/\xee|?'
p1568
tp1569
Rp1570
tp1571
a(g44
g6
(g18
S'{LF;'
p1572
tp1573
Rp1574
tp1575
a(g84
g6
(g18
S'\xa5\xb3 ;'
p1576
tp1577
Rp1578
tp1579
a(g212
g6
(g18
S'V\xa0\xc7:'
p1580
tp1581
Rp1582
tp1583
a(g193
g6
(g18
S'M\xbc\xac:'
p1584
tp1585
Rp1586
tp1587
asg73
g15
sa(dp1588
g2
S'../../../data/emanuela/activity-recognition/images/NTCIR-Lifelog-256/u3/2015-07-18/b00000620_21i79q_20150718_171407e.jpg'
p1589
sg4
(lp1590
(g15
g6
(g18
S'd\x87y?'
p1591
tp1592
Rp1593
tp1594
a(g44
g6
(g18
S'\x16\xe4\x14<'
p1595
tp1596
Rp1597
tp1598
a(g32
g6
(g18
S't\xa9\x11<'
p1599
tp1600
Rp1601
tp1602
a(g68
g6
(g18
S'<J\x81;'
p1603
tp1604
Rp1605
tp1606
a(g193
g6
(g18
S'zP\xc0:'
p1607
tp1608
Rp1609
tp1610
asg73
g15
sa(dp1611
g2
S'../../../data/emanuela/activity-recognition/images/NTCIR-Lifelog-256/u2/2015-04-25/b00003426_21i7lf_20150425_172113e.jpg'
p1612
sg4
(lp1613
(g15
g6
(g18
S'\x16\xd0P?'
p1614
tp1615
Rp1616
tp1617
a(g32
g6
(g18
S'l\xb3\xa8='
p1618
tp1619
Rp1620
tp1621
a(g68
g6
(g18
S'\xe8\x9d\x88='
p1622
tp1623
Rp1624
tp1625
a(g193
g6
(g18
S'N8\xd5<'
p1626
tp1627
Rp1628
tp1629
a(g44
g6
(g18
S'\xab\x12/;'
p1630
tp1631
Rp1632
tp1633
asg73
g15
sa(dp1634
g2
S'../../../data/emanuela/activity-recognition/images/NTCIR-Lifelog-256/u2/2015-04-25/b00003586_21i7lf_20150425_185833e.jpg'
p1635
sg4
(lp1636
(g32
g6
(g18
S'\x802\xef>'
p1637
tp1638
Rp1639
tp1640
a(g15
g6
(g18
S'N\xd8\xe2>'
p1641
tp1642
Rp1643
tp1644
a(g44
g6
(g18
S'\x95e7='
p1645
tp1646
Rp1647
tp1648
a(g68
g6
(g18
S'1\xf8\xb2<'
p1649
tp1650
Rp1651
tp1652
a(g135
g6
(g18
S'\x19p^<'
p1653
tp1654
Rp1655
tp1656
asg73
g15
sa(dp1657
g2
S'../../../data/emanuela/activity-recognition/images/NTCIR-Lifelog-256/u1/2015-02-23/b00000489_21i6bq_20150223_121455e.jpg'
p1658
sg4
(lp1659
(g15
g6
(g18
S'&\x0e|?'
p1660
tp1661
Rp1662
tp1663
a(g44
g6
(g18
S'\xa8\xf2b;'
p1664
tp1665
Rp1666
tp1667
a(g212
g6
(g18
S'\xb5nC;'
p1668
tp1669
Rp1670
tp1671
a(g68
g6
(g18
S'k\xf7";'
p1672
tp1673
Rp1674
tp1675
a(g193
g6
(g18
S'\xcd\xaf\x1a;'
p1676
tp1677
Rp1678
tp1679
asg73
g15
sa(dp1680
g2
S'../../../data/emanuela/activity-recognition/images/NTCIR-Lifelog-256/u3/2015-07-18/b00000619_21i79q_20150718_171332e.jpg'
p1681
sg4
(lp1682
(g15
g6
(g18
S'\x873??'
p1683
tp1684
Rp1685
tp1686
a(g32
g6
(g18
S'\x9d\xb1i>'
p1687
tp1688
Rp1689
tp1690
a(g44
g6
(g18
S'\x91%p<'
p1691
tp1692
Rp1693
tp1694
a(g135
g6
(g18
S'\x01r\xbf;'
p1695
tp1696
Rp1697
tp1698
a(g193
g6
(g18
S'\xda\xef\x1b;'
p1699
tp1700
Rp1701
tp1702
asg73
g15
sa(dp1703
g2
S'../../../data/emanuela/activity-recognition/images/NTCIR-Lifelog-256/u3/2015-06-20/b00001223_21i79q_20150620_002754e.jpg'
p1704
sg4
(lp1705
(g15
g6
(g18
S'\x0cH+?'
p1706
tp1707
Rp1708
tp1709
a(g68
g6
(g18
S'9P\x1e>'
p1710
tp1711
Rp1712
tp1713
a(g44
g6
(g18
S'*\xa6{='
p1714
tp1715
Rp1716
tp1717
a(g355
g6
(g18
S'\xf9\x15Y='
p1718
tp1719
Rp1720
tp1721
a(g32
g6
(g18
S'\xf1d\xf1<'
p1722
tp1723
Rp1724
tp1725
asg73
g15
sa(dp1726
g2
S'../../../data/emanuela/activity-recognition/images/NTCIR-Lifelog-256/u1/2015-02-23/b00000580_21i6bq_20150223_130931e.jpg'
p1727
sg4
(lp1728
(g15
g6
(g18
S'\x90\x93{?'
p1729
tp1730
Rp1731
tp1732
a(g84
g6
(g18
S'\xf3\xc3F;'
p1733
tp1734
Rp1735
tp1736
a(g44
g6
(g18
S'\xd4vB;'
p1737
tp1738
Rp1739
tp1740
a(g193
g6
(g18
S'\xb5\x1f,;'
p1741
tp1742
Rp1743
tp1744
a(g68
g6
(g18
S'a(\x0b;'
p1745
tp1746
Rp1747
tp1748
asg73
g15
sa(dp1749
g2
S'../../../data/emanuela/activity-recognition/images/NTCIR-Lifelog-256/u3/2015-06-20/b00001349_21i79q_20150620_015200e.jpg'
p1750
sg4
(lp1751
(g15
g6
(g18
S'\xdc\xc1:?'
p1752
tp1753
Rp1754
tp1755
a(g108
g6
(g18
S'{\xfe\xa2='
p1756
tp1757
Rp1758
tp1759
a(g84
g6
(g18
S'P\x89v='
p1760
tp1761
Rp1762
tp1763
a(g44
g6
(g18
S'\xc3\xec\xf8<'
p1764
tp1765
Rp1766
tp1767
a(g135
g6
(g18
S'\xdd4\xc4<'
p1768
tp1769
Rp1770
tp1771
asg73
g15
sa(dp1772
g2
S'../../../data/emanuela/activity-recognition/images/NTCIR-Lifelog-256/u3/2015-06-28/b00000093_21i79q_20150628_152253e.jpg'
p1773
sg4
(lp1774
(g15
g6
(g18
S'\x92\x1d4?'
p1775
tp1776
Rp1777
tp1778
a(g44
g6
(g18
S']\x92\x86>'
p1779
tp1780
Rp1781
tp1782
a(g32
g6
(g18
S'\xae\xa0\x86<'
p1783
tp1784
Rp1785
tp1786
a(g135
g6
(g18
S'\xb1`)<'
p1787
tp1788
Rp1789
tp1790
a(g355
g6
(g18
S'\x87x-;'
p1791
tp1792
Rp1793
tp1794
asg73
g15
sa(dp1795
g2
S'../../../data/emanuela/activity-recognition/images/NTCIR-Lifelog-256/u3/2015-07-18/b00000353_21i79q_20150718_144845e.jpg'
p1796
sg4
(lp1797
(g15
g6
(g18
S'u\xc8y?'
p1798
tp1799
Rp1800
tp1801
a(g44
g6
(g18
S'.\xe1\xa4<'
p1802
tp1803
Rp1804
tp1805
a(g32
g6
(g18
S'1w\x01;'
p1806
tp1807
Rp1808
tp1809
a(g68
g6
(g18
S"'\x91a:"
p1810
tp1811
Rp1812
tp1813
a(g6
(g7
(S'S6'
p1814
I0
I1
tp1815
Rp1816
(I3
S'|'
p1817
NNNI6
I1
I0
tp1818
bS'biking'
p1819
tp1820
Rp1821
g6
(g18
S'\x01\xb2j9'
p1822
tp1823
Rp1824
tp1825
asg73
g15
sa(dp1826
g2
S'../../../data/emanuela/activity-recognition/images/NTCIR-Lifelog-256/u3/2015-07-18/b00000570_21i79q_20150718_164658e.jpg'
p1827
sg4
(lp1828
(g15
g6
(g18
S'q\x1bo?'
p1829
tp1830
Rp1831
tp1832
a(g44
g6
(g18
S'\xber\xf1<'
p1833
tp1834
Rp1835
tp1836
a(g84
g6
(g18
S'.\xd7\x03<'
p1837
tp1838
Rp1839
tp1840
a(g32
g6
(g18
S'+\x01\x03<'
p1841
tp1842
Rp1843
tp1844
a(g193
g6
(g18
S'y\xf2\xed;'
p1845
tp1846
Rp1847
tp1848
asg73
g15
sa(dp1849
g2
S'../../../data/emanuela/activity-recognition/images/NTCIR-Lifelog-256/u3/2015-06-20/b00001287_21i79q_20150620_011217e.jpg'
p1850
sg4
(lp1851
(g474
g6
(g18
S'\xf6\xc2\xef>'
p1852
tp1853
Rp1854
tp1855
a(g15
g6
(g18
S'\xf6\x83\xaf>'
p1856
tp1857
Rp1858
tp1859
a(g135
g6
(g18
S'K\xe4\xa4='
p1860
tp1861
Rp1862
tp1863
a(g44
g6
(g18
S'\xe3X#='
p1864
tp1865
Rp1866
tp1867
a(g84
g6
(g18
S'\xe0\xc6\x86<'
p1868
tp1869
Rp1870
tp1871
asg73
g15
sa(dp1872
g2
S'../../../data/emanuela/activity-recognition/images/NTCIR-Lifelog-256/u2/2015-04-25/b00003647_21i7lf_20150425_194544e.jpg'
p1873
sg4
(lp1874
(g15
g6
(g18
S'#0w?'
p1875
tp1876
Rp1877
tp1878
a(g44
g6
(g18
S'$\xa3\x93<'
p1879
tp1880
Rp1881
tp1882
a(g68
g6
(g18
S'\x98\xa2\x1e<'
p1883
tp1884
Rp1885
tp1886
a(g32
g6
(g18
S'\xac\xeb~;'
p1887
tp1888
Rp1889
tp1890
a(g84
g6
(g18
S'\x953\xb9:'
p1891
tp1892
Rp1893
tp1894
asg73
g15
sa(dp1895
g2
S'../../../data/emanuela/activity-recognition/images/NTCIR-Lifelog-256/u2/2015-04-25/b00003550_21i7lf_20150425_183649e.jpg'
p1896
sg4
(lp1897
(g15
g6
(g18
S'ghb?'
p1898
tp1899
Rp1900
tp1901
a(g32
g6
(g18
S'a\x9es='
p1902
tp1903
Rp1904
tp1905
a(g44
g6
(g18
S'\x11;\x9c<'
p1906
tp1907
Rp1908
tp1909
a(g56
g6
(g18
S'\xb9\xf7_<'
p1910
tp1911
Rp1912
tp1913
a(g68
g6
(g18
S'C^\xe6;'
p1914
tp1915
Rp1916
tp1917
asg73
g15
sa(dp1918
g2
S'../../../data/emanuela/activity-recognition/images/NTCIR-Lifelog-256/u3/2015-07-18/b00000682_21i79q_20150718_175124e.jpg'
p1919
sg4
(lp1920
(g15
g6
(g18
S' y~?'
p1921
tp1922
Rp1923
tp1924
a(g212
g6
(g18
S'\xf61e;'
p1925
tp1926
Rp1927
tp1928
a(g44
g6
(g18
S'\x14\xb5\xa8:'
p1929
tp1930
Rp1931
tp1932
a(g32
g6
(g18
S'\x9fq\xe49'
p1933
tp1934
Rp1935
tp1936
a(g68
g6
(g18
S'\xd7\xee\x8f9'
p1937
tp1938
Rp1939
tp1940
asg73
g15
sa(dp1941
g2
S'../../../data/emanuela/activity-recognition/images/NTCIR-Lifelog-256/u3/2015-07-18/b00000928_21i79q_20150718_201500e.jpg'
p1942
sg4
(lp1943
(g44
g6
(g18
S'\xb3\xb2\x18?'
p1944
tp1945
Rp1946
tp1947
a(g15
g6
(g18
S'\xe1\xa7\xcd>'
p1948
tp1949
Rp1950
tp1951
a(g32
g6
(g18
S'cEM:'
p1952
tp1953
Rp1954
tp1955
a(g135
g6
(g18
S'p\xde\x14:'
p1956
tp1957
Rp1958
tp1959
a(g212
g6
(g18
S'\t\xc5\xfe8'
p1960
tp1961
Rp1962
tp1963
asg73
g15
sa(dp1964
g2
S'../../../data/emanuela/activity-recognition/images/NTCIR-Lifelog-256/u2/2015-04-26/b00004181_21i7lf_20150426_160644e.jpg'
p1965
sg4
(lp1966
(g15
g6
(g18
S'm!$?'
p1967
tp1968
Rp1969
tp1970
a(g474
g6
(g18
S'Q\xe7\x1d>'
p1971
tp1972
Rp1973
tp1974
a(g44
g6
(g18
S'\xba\xa9 ='
p1975
tp1976
Rp1977
tp1978
a(g84
g6
(g18
S'\\\xf2\x1c='
p1979
tp1980
Rp1981
tp1982
a(g32
g6
(g18
S'\xa5\xcc\xf8<'
p1983
tp1984
Rp1985
tp1986
asg73
g15
sa(dp1987
g2
S'../../../data/emanuela/activity-recognition/images/NTCIR-Lifelog-256/u3/2015-07-18/b00000555_21i79q_20150718_164513e.jpg'
p1988
sg4
(lp1989
(g15
g6
(g18
S'\xbc\xc5z?'
p1990
tp1991
Rp1992
tp1993
a(g44
g6
(g18
S'\x00\xf9b<'
p1994
tp1995
Rp1996
tp1997
a(g32
g6
(g18
S'`\xf4v;'
p1998
tp1999
Rp2000
tp2001
a(g84
g6
(g18
S'\xbf\xa9F:'
p2002
tp2003
Rp2004
tp2005
a(g193
g6
(g18
S'5N.:'
p2006
tp2007
Rp2008
tp2009
asg73
g15
sa(dp2010
g2
S'../../../data/emanuela/activity-recognition/images/NTCIR-Lifelog-256/u2/2015-04-25/b00003430_21i7lf_20150425_172336e.jpg'
p2011
sg4
(lp2012
(g15
g6
(g18
S'\n\x84"?'
p2013
tp2014
Rp2015
tp2016
a(g68
g6
(g18
S'K\x06\x0e>'
p2017
tp2018
Rp2019
tp2020
a(g32
g6
(g18
S'k\x0f\x03>'
p2021
tp2022
Rp2023
tp2024
a(g44
g6
(g18
S'\x13\xc5"='
p2025
tp2026
Rp2027
tp2028
a(g355
g6
(g18
S'TS[<'
p2029
tp2030
Rp2031
tp2032
asg73
g15
sa(dp2033
g2
S'../../../data/emanuela/activity-recognition/images/NTCIR-Lifelog-256/u3/2015-07-18/b00000392_21i79q_20150718_151239e.jpg'
p2034
sg4
(lp2035
(g15
g6
(g18
S'\x14\xeb{?'
p2036
tp2037
Rp2038
tp2039
a(g193
g6
(g18
S'\xc7X\xb0;'
p2040
tp2041
Rp2042
tp2043
a(g68
g6
(g18
S'\xacA\xa2;'
p2044
tp2045
Rp2046
tp2047
a(g84
g6
(g18
S'\x15\xfa\xd0:'
p2048
tp2049
Rp2050
tp2051
a(g32
g6
(g18
S'r\x9c\xb7:'
p2052
tp2053
Rp2054
tp2055
asg73
g15
sa(dp2056
g2
S'../../../data/emanuela/activity-recognition/images/NTCIR-Lifelog-256/u2/2015-05-06/b00007129_21i7lf_20150506_180112e.jpg'
p2057
sg4
(lp2058
(g15
g6
(g18
S'\xea\xeaY?'
p2059
tp2060
Rp2061
tp2062
a(g44
g6
(g18
S'A\xf65='
p2063
tp2064
Rp2065
tp2066
a(g193
g6
(g18
S'\xe2\xb3\x0e='
p2067
tp2068
Rp2069
tp2070
a(g6
(g7
(S'S7'
p2071
I0
I1
tp2072
Rp2073
(I3
S'|'
p2074
NNNI7
I1
I0
tp2075
bS'driving'
p2076
tp2077
Rp2078
g6
(g18
S'F\xcbe<'
p2079
tp2080
Rp2081
tp2082
a(g474
g6
(g18
S'\xe6\x8f\x16<'
p2083
tp2084
Rp2085
tp2086
asg73
g15
sa(dp2087
g2
S'../../../data/emanuela/activity-recognition/images/NTCIR-Lifelog-256/u3/2015-07-18/b00000739_21i79q_20150718_182535e.jpg'
p2088
sg4
(lp2089
(g15
g6
(g18
S'\x9e\x9c~?'
p2090
tp2091
Rp2092
tp2093
a(g32
g6
(g18
S'\n\xe5\x19;'
p2094
tp2095
Rp2096
tp2097
a(g44
g6
(g18
S'\x95\xbb\x07;'
p2098
tp2099
Rp2100
tp2101
a(g135
g6
(g18
S'\\\xf8\xa99'
p2102
tp2103
Rp2104
tp2105
a(g68
g6
(g18
S'\xdc\xb0f9'
p2106
tp2107
Rp2108
tp2109
asg73
g15
sa(dp2110
g2
S'../../../data/emanuela/activity-recognition/images/NTCIR-Lifelog-256/u3/2015-07-18/b00000415_21i79q_20150718_152616e.jpg'
p2111
sg4
(lp2112
(g15
g6
(g18
S'{Y_?'
p2113
tp2114
Rp2115
tp2116
a(g32
g6
(g18
S'\xef\xda]='
p2117
tp2118
Rp2119
tp2120
a(g68
g6
(g18
S'\xd8*F='
p2121
tp2122
Rp2123
tp2124
a(g84
g6
(g18
S'\xe8\xc7\xe4;'
p2125
tp2126
Rp2127
tp2128
a(g135
g6
(g18
S'\x04p\x92;'
p2129
tp2130
Rp2131
tp2132
asg73
g15
sa(dp2133
g2
S'../../../data/emanuela/activity-recognition/images/NTCIR-Lifelog-256/u1/2015-02-23/b00000482_21i6bq_20150223_121042e.jpg'
p2134
sg4
(lp2135
(g15
g6
(g18
S'\xa6\xb8y?'
p2136
tp2137
Rp2138
tp2139
a(g44
g6
(g18
S'\xee\xf4/<'
p2140
tp2141
Rp2142
tp2143
a(g212
g6
(g18
S'\xe6if;'
p2144
tp2145
Rp2146
tp2147
a(g193
g6
(g18
S'\x12\x9ae;'
p2148
tp2149
Rp2150
tp2151
a(g56
g6
(g18
S'\xfa\xc0\xcd:'
p2152
tp2153
Rp2154
tp2155
asg73
g15
sa(dp2156
g2
S'../../../data/emanuela/activity-recognition/images/NTCIR-Lifelog-256/u3/2015-07-18/b00000658_21i79q_20150718_173701e.jpg'
p2157
sg4
(lp2158
(g15
g6
(g18
S'U]c?'
p2159
tp2160
Rp2161
tp2162
a(g193
g6
(g18
S'\xb6\xeay='
p2163
tp2164
Rp2165
tp2166
a(g44
g6
(g18
S'\x9e\x01\xfe<'
p2167
tp2168
Rp2169
tp2170
a(g84
g6
(g18
S'mT\xee;'
p2171
tp2172
Rp2173
tp2174
a(g68
g6
(g18
S'\xe7Np;'
p2175
tp2176
Rp2177
tp2178
asg73
g15
sa(dp2179
g2
S'../../../data/emanuela/activity-recognition/images/NTCIR-Lifelog-256/u3/2015-07-25/b00001602_21i79q_20150725_192713e.jpg'
p2180
sg4
(lp2181
(g84
g6
(g18
S'\xc7wH?'
p2182
tp2183
Rp2184
tp2185
a(g193
g6
(g18
S'?\xa6\x96='
p2186
tp2187
Rp2188
tp2189
a(g44
g6
(g18
S'\xa2$\x1d='
p2190
tp2191
Rp2192
tp2193
a(g301
g6
(g18
S'\x1b\xbd\xda<'
p2194
tp2195
Rp2196
tp2197
a(g15
g6
(g18
S'\xf9\xe6\xb5<'
p2198
tp2199
Rp2200
tp2201
asg73
g15
sa(dp2202
g2
S'../../../data/emanuela/activity-recognition/images/NTCIR-Lifelog-256/u2/2015-04-25/b00003339_21i7lf_20150425_162911e.jpg'
p2203
sg4
(lp2204
(g15
g6
(g18
S')\xd8B?'
p2205
tp2206
Rp2207
tp2208
a(g68
g6
(g18
S'\xc4\xf7\xcd='
p2209
tp2210
Rp2211
tp2212
a(g32
g6
(g18
S'\x8df\xae='
p2213
tp2214
Rp2215
tp2216
a(g2078
g6
(g18
S'C\x171<'
p2217
tp2218
Rp2219
tp2220
a(g135
g6
(g18
S'\xe6\xcb\x17<'
p2221
tp2222
Rp2223
tp2224
asg73
g15
sa(dp2225
g2
S'../../../data/emanuela/activity-recognition/images/NTCIR-Lifelog-256/u3/2015-07-18/b00000923_21i79q_20150718_201202e.jpg'
p2226
sg4
(lp2227
(g44
g6
(g18
S"z\xb2'?"
p2228
tp2229
Rp2230
tp2231
a(g15
g6
(g18
S'go\x00>'
p2232
tp2233
Rp2234
tp2235
a(g135
g6
(g18
S'\xe6\x89\xfa='
p2236
tp2237
Rp2238
tp2239
a(g301
g6
(g18
S'\x0b/d='
p2240
tp2241
Rp2242
tp2243
a(g6
(g7
(S'S7'
p2244
I0
I1
tp2245
Rp2246
(I3
S'|'
p2247
NNNI7
I1
I0
tp2248
bS'cooking'
p2249
tp2250
Rp2251
g6
(g18
S'\xab:L<'
p2252
tp2253
Rp2254
tp2255
asg73
g15
sa(dp2256
g2
S'../../../data/emanuela/activity-recognition/images/NTCIR-Lifelog-256/u3/2015-07-18/b00000611_21i79q_20150718_170844e.jpg'
p2257
sg4
(lp2258
(g15
g6
(g18
S'\xdd\xe6h?'
p2259
tp2260
Rp2261
tp2262
a(g44
g6
(g18
S'\xe1\xe8/='
p2263
tp2264
Rp2265
tp2266
a(g68
g6
(g18
S'\x01\x89\xd9<'
p2267
tp2268
Rp2269
tp2270
a(g32
g6
(g18
S'\x8f\xc3\x0e<'
p2271
tp2272
Rp2273
tp2274
a(g84
g6
(g18
S'\xc0i\x8b;'
p2275
tp2276
Rp2277
tp2278
asg73
g15
sa(dp2279
g2
S'../../../data/emanuela/activity-recognition/images/NTCIR-Lifelog-256/u3/2015-06-20/b00001284_21i79q_20150620_010949e.jpg'
p2280
sg4
(lp2281
(g15
g6
(g18
S'\x9ay\x16?'
p2282
tp2283
Rp2284
tp2285
a(g474
g6
(g18
S'\xc8<\xa5>'
p2286
tp2287
Rp2288
tp2289
a(g84
g6
(g18
S'\xbc\xa7\r='
p2290
tp2291
Rp2292
tp2293
a(g135
g6
(g18
S':\xa5\xe1<'
p2294
tp2295
Rp2296
tp2297
a(g378
g6
(g18
S'\xac\x1b\x00<'
p2298
tp2299
Rp2300
tp2301
asg73
g15
sa(dp2302
g2
S'../../../data/emanuela/activity-recognition/images/NTCIR-Lifelog-256/u3/2015-07-18/b00000452_21i79q_20150718_154746e.jpg'
p2303
sg4
(lp2304
(g15
g6
(g18
S'>z\x7f?'
p2305
tp2306
Rp2307
tp2308
a(g44
g6
(g18
S'\xc8\xed=:'
p2309
tp2310
Rp2311
tp2312
a(g32
g6
(g18
S'\x16\xdc7:'
p2313
tp2314
Rp2315
tp2316
a(g68
g6
(g18
S'\xda\x07\xac9'
p2317
tp2318
Rp2319
tp2320
a(g84
g6
(g18
S'\xd6\xb5\x888'
p2321
tp2322
Rp2323
tp2324
asg73
g15
sa(dp2325
g2
S'../../../data/emanuela/activity-recognition/images/NTCIR-Lifelog-256/u2/2015-04-25/b00003529_21i7lf_20150425_182400e.jpg'
p2326
sg4
(lp2327
(g15
g6
(g18
S'\xb5%E?'
p2328
tp2329
Rp2330
tp2331
a(g551
g6
(g18
S'\xffM\x91='
p2332
tp2333
Rp2334
tp2335
a(g378
g6
(g18
S'\xff\xb6\xed<'
p2336
tp2337
Rp2338
tp2339
a(g32
g6
(g18
S'\x8c\x8b\xec<'
p2340
tp2341
Rp2342
tp2343
a(g68
g6
(g18
S'J\xdb\xae<'
p2344
tp2345
Rp2346
tp2347
asg73
g15
sa(dp2348
g2
S'../../../data/emanuela/activity-recognition/images/NTCIR-Lifelog-256/u3/2015-07-18/b00000649_21i79q_20150718_173113e.jpg'
p2349
sg4
(lp2350
(g15
g6
(g18
S'S\xca|?'
p2351
tp2352
Rp2353
tp2354
a(g193
g6
(g18
S'\xc3\t\xef;'
p2355
tp2356
Rp2357
tp2358
a(g44
g6
(g18
S'h\xaa&;'
p2359
tp2360
Rp2361
tp2362
a(g68
g6
(g18
S'\xd2\xacT:'
p2363
tp2364
Rp2365
tp2366
a(g212
g6
(g18
S'\xfd\xb8<:'
p2367
tp2368
Rp2369
tp2370
asg73
g15
sa(dp2371
g2
S'../../../data/emanuela/activity-recognition/images/NTCIR-Lifelog-256/u3/2015-07-18/b00000852_21i79q_20150718_192851e.jpg'
p2372
sg4
(lp2373
(g15
g6
(g18
S'goU?'
p2374
tp2375
Rp2376
tp2377
a(g68
g6
(g18
S'\x16v\x80='
p2378
tp2379
Rp2380
tp2381
a(g56
g6
(g18
S'\xdd\xb9`='
p2382
tp2383
Rp2384
tp2385
a(g193
g6
(g18
S'mJ\xa5<'
p2386
tp2387
Rp2388
tp2389
a(g32
g6
(g18
S'\x0b\x84\x16<'
p2390
tp2391
Rp2392
tp2393
asg73
g15
sa(dp2394
g2
S'../../../data/emanuela/activity-recognition/images/NTCIR-Lifelog-256/u1/2015-02-23/b00000576_21i6bq_20150223_130717e.jpg'
p2395
sg4
(lp2396
(g15
g6
(g18
S'\xa8E|?'
p2397
tp2398
Rp2399
tp2400
a(g84
g6
(g18
S'\x87\xc0F;'
p2401
tp2402
Rp2403
tp2404
a(g44
g6
(g18
S'\x89.-;'
p2405
tp2406
Rp2407
tp2408
a(g193
g6
(g18
S'\xf5@\x04;'
p2409
tp2410
Rp2411
tp2412
a(g68
g6
(g18
S'o~\xfc:'
p2413
tp2414
Rp2415
tp2416
asg73
g15
sa(dp2417
g2
S'../../../data/emanuela/activity-recognition/images/NTCIR-Lifelog-256/u3/2015-06-28/b00000126_21i79q_20150628_154241e.jpg'
p2418
sg4
(lp2419
(g44
g6
(g18
S'c\xe37?'
p2420
tp2421
Rp2422
tp2423
a(g15
g6
(g18
S'h\xa1H>'
p2424
tp2425
Rp2426
tp2427
a(g68
g6
(g18
S'9\x07\xfc<'
p2428
tp2429
Rp2430
tp2431
a(g135
g6
(g18
S'O|Z<'
p2432
tp2433
Rp2434
tp2435
a(g56
g6
(g18
S'\x82\xa8Y<'
p2436
tp2437
Rp2438
tp2439
asg73
g15
sa(dp2440
g2
S'../../../data/emanuela/activity-recognition/images/NTCIR-Lifelog-256/u3/2015-07-18/b00000397_21i79q_20150718_151543e.jpg'
p2441
sg4
(lp2442
(g15
g6
(g18
S'\xdb=f?'
p2443
tp2444
Rp2445
tp2446
a(g68
g6
(g18
S'\xb0\xca\xac='
p2447
tp2448
Rp2449
tp2450
a(g32
g6
(g18
S'V\x00\x89;'
p2451
tp2452
Rp2453
tp2454
a(g212
g6
(g18
S'u\xd80;'
p2455
tp2456
Rp2457
tp2458
a(g355
g6
(g18
S"\xcc\x0e';"
p2459
tp2460
Rp2461
tp2462
asg73
g15
sa(dp2463
g2
S'../../../data/emanuela/activity-recognition/images/NTCIR-Lifelog-256/u3/2015-06-28/b00000166_21i79q_20150628_160647e.jpg'
p2464
sg4
(lp2465
(g15
g6
(g18
S'\xfb2:?'
p2466
tp2467
Rp2468
tp2469
a(g44
g6
(g18
S'\x05\xd8\x0f>'
p2470
tp2471
Rp2472
tp2473
a(g68
g6
(g18
S'\x0c\x00{='
p2474
tp2475
Rp2476
tp2477
a(g32
g6
(g18
S'\x89\x88B='
p2478
tp2479
Rp2480
tp2481
a(g135
g6
(g18
S'\t\xfbE<'
p2482
tp2483
Rp2484
tp2485
asg73
g15
sa(dp2486
g2
S'../../../data/emanuela/activity-recognition/images/NTCIR-Lifelog-256/u2/2015-05-07/b00007376_21i7lf_20150507_091422e.jpg'
p2487
sg4
(lp2488
(g15
g6
(g18
S'9\xc67?'
p2489
tp2490
Rp2491
tp2492
a(g68
g6
(g18
S'q\xde\x81>'
p2493
tp2494
Rp2495
tp2496
a(g44
g6
(g18
S'\x13\xbc<<'
p2497
tp2498
Rp2499
tp2500
a(g32
g6
(g18
S'\xf1|\xb2;'
p2501
tp2502
Rp2503
tp2504
a(g212
g6
(g18
S'\x9c\xb1];'
p2505
tp2506
Rp2507
tp2508
asg73
g15
sa(dp2509
g2
S'../../../data/emanuela/activity-recognition/images/NTCIR-Lifelog-256/u1/2015-02-23/b00000521_21i6bq_20150223_123358e.jpg'
p2510
sg4
(lp2511
(g301
g6
(g18
S'\xcdk\x9f>'
p2512
tp2513
Rp2514
tp2515
a(g15
g6
(g18
S'\x15\xbd\x96>'
p2516
tp2517
Rp2518
tp2519
a(g84
g6
(g18
S"'G5>"
p2520
tp2521
Rp2522
tp2523
a(g135
g6
(g18
S'\xc9\x10n='
p2524
tp2525
Rp2526
tp2527
a(g56
g6
(g18
S'k\xa3\xe0<'
p2528
tp2529
Rp2530
tp2531
asg73
g15
sa(dp2532
g2
S'../../../data/emanuela/activity-recognition/images/NTCIR-Lifelog-256/u1/2015-03-06/b00000853_21i6bq_20150306_141522e.jpg'
p2533
sg4
(lp2534
(g474
g6
(g18
S'\xa1\x87\xeb>'
p2535
tp2536
Rp2537
tp2538
a(g15
g6
(g18
S'\x908\x98>'
p2539
tp2540
Rp2541
tp2542
a(g68
g6
(g18
S'\xcbg\x87='
p2543
tp2544
Rp2545
tp2546
a(g108
g6
(g18
S'\rR"='
p2547
tp2548
Rp2549
tp2550
a(g355
g6
(g18
S'\xbb\xe8\xf0<'
p2551
tp2552
Rp2553
tp2554
asg73
g15
sa(dp2555
g2
S'../../../data/emanuela/activity-recognition/images/NTCIR-Lifelog-256/u3/2015-07-18/b00000777_21i79q_20150718_184321e.jpg'
p2556
sg4
(lp2557
(g15
g6
(g18
S'\xb5\xa0U?'
p2558
tp2559
Rp2560
tp2561
a(g193
g6
(g18
S'\x0eM\xfd='
p2562
tp2563
Rp2564
tp2565
a(g68
g6
(g18
S'\xc6\xf5\xd5<'
p2566
tp2567
Rp2568
tp2569
a(g32
g6
(g18
S'\x8f\xa9\x81;'
p2570
tp2571
Rp2572
tp2573
a(g1821
g6
(g18
S'\xe2\xcbY;'
p2574
tp2575
Rp2576
tp2577
asg73
g15
sa(dp2578
g2
S'../../../data/emanuela/activity-recognition/images/NTCIR-Lifelog-256/u3/2015-07-25/b00001606_21i79q_20150725_193027e.jpg'
p2579
sg4
(lp2580
(g84
g6
(g18
S'\x83I\x11?'
p2581
tp2582
Rp2583
tp2584
a(g44
g6
(g18
S'\xc8"&>'
p2585
tp2586
Rp2587
tp2588
a(g474
g6
(g18
S'\x9c\x9b\xcd='
p2589
tp2590
Rp2591
tp2592
a(g15
g6
(g18
S',\x8a\xa6='
p2593
tp2594
Rp2595
tp2596
a(g108
g6
(g18
S'i\xc5\xea<'
p2597
tp2598
Rp2599
tp2600
asg73
g15
sa(dp2601
g2
S'../../../data/emanuela/activity-recognition/images/NTCIR-Lifelog-256/u3/2015-07-18/b00000856_21i79q_20150718_193119e.jpg'
p2602
sg4
(lp2603
(g15
g6
(g18
S'\xd6\xd9y?'
p2604
tp2605
Rp2606
tp2607
a(g32
g6
(g18
S'G\x11\xd3;'
p2608
tp2609
Rp2610
tp2611
a(g193
g6
(g18
S'\xee[\xc6;'
p2612
tp2613
Rp2614
tp2615
a(g44
g6
(g18
S'\xb0M\\;'
p2616
tp2617
Rp2618
tp2619
a(g68
g6
(g18
S'\x90\xa3D;'
p2620
tp2621
Rp2622
tp2623
asg73
g15
sa(dp2624
g2
S'../../../data/emanuela/activity-recognition/images/NTCIR-Lifelog-256/u3/2015-06-28/b00000971_21i79q_20150628_233811e.jpg'
p2625
sg4
(lp2626
(g44
g6
(g18
S'Bh\x8b>'
p2627
tp2628
Rp2629
tp2630
a(g135
g6
(g18
S'\xd5\x98\x82>'
p2631
tp2632
Rp2633
tp2634
a(g108
g6
(g18
S'\xec\xca\x0f>'
p2635
tp2636
Rp2637
tp2638
a(g32
g6
(g18
S'Cd\x0e>'
p2639
tp2640
Rp2641
tp2642
a(g15
g6
(g18
S'\xb3\xa3\xdd='
p2643
tp2644
Rp2645
tp2646
asg73
g15
sa(dp2647
g2
S'../../../data/emanuela/activity-recognition/images/NTCIR-Lifelog-256/u3/2015-07-18/b00000693_21i79q_20150718_175754e.jpg'
p2648
sg4
(lp2649
(g15
g6
(g18
S' \xa9`?'
p2650
tp2651
Rp2652
tp2653
a(g44
g6
(g18
S'\x19\xab\xf9<'
p2654
tp2655
Rp2656
tp2657
a(g68
g6
(g18
S'o\x88\xeb<'
p2658
tp2659
Rp2660
tp2661
a(g56
g6
(g18
S'\x95#\x91<'
p2662
tp2663
Rp2664
tp2665
a(g301
g6
(g18
S"T\xfb'<"
p2666
tp2667
Rp2668
tp2669
asg73
g15
sa(dp2670
g2
S'../../../data/emanuela/activity-recognition/images/NTCIR-Lifelog-256/u3/2015-07-18/b00000364_21i79q_20150718_145602e.jpg'
p2671
sg4
(lp2672
(g32
g6
(g18
S'\xda\xa2\x1d?'
p2673
tp2674
Rp2675
tp2676
a(g135
g6
(g18
S'\x82\xcb\xb6>'
p2677
tp2678
Rp2679
tp2680
a(g108
g6
(g18
S'=\x93g<'
p2681
tp2682
Rp2683
tp2684
a(g2251
g6
(g18
S',\x8c0<'
p2685
tp2686
Rp2687
tp2688
a(g301
g6
(g18
S'\xe9\x85\x8b:'
p2689
tp2690
Rp2691
tp2692
asg73
g15
sa(dp2693
g2
S'../../../data/emanuela/activity-recognition/images/NTCIR-Lifelog-256/u3/2015-06-28/b00000079_21i79q_20150628_151437e.jpg'
p2694
sg4
(lp2695
(g44
g6
(g18
S'\xd5A\x1d?'
p2696
tp2697
Rp2698
tp2699
a(g15
g6
(g18
S'\x8c\x04\xb5>'
p2700
tp2701
Rp2702
tp2703
a(g32
g6
(g18
S'n\xe0\x1b<'
p2704
tp2705
Rp2706
tp2707
a(g68
g6
(g18
S'oE\xef;'
p2708
tp2709
Rp2710
tp2711
a(g355
g6
(g18
S'\x1a\xed\xcf;'
p2712
tp2713
Rp2714
tp2715
asg73
g15
sa(dp2716
g2
S'../../../data/emanuela/activity-recognition/images/NTCIR-Lifelog-256/u1/2015-03-11/b00000661_21i6bq_20150311_134005e.jpg'
p2717
sg4
(lp2718
(g84
g6
(g18
S'3?\x8e>'
p2719
tp2720
Rp2721
tp2722
a(g212
g6
(g18
S'\x8c\xdc\x86>'
p2723
tp2724
Rp2725
tp2726
a(g15
g6
(g18
S'\xf8\xf7G>'
p2727
tp2728
Rp2729
tp2730
a(g44
g6
(g18
S'f\xdb\xc2='
p2731
tp2732
Rp2733
tp2734
a(g193
g6
(g18
S'\xd2!\x86='
p2735
tp2736
Rp2737
tp2738
asg73
g15
sa(dp2739
g2
S'../../../data/emanuela/activity-recognition/images/NTCIR-Lifelog-256/u3/2015-07-18/b00000734_21i79q_20150718_182225e.jpg'
p2740
sg4
(lp2741
(g15
g6
(g18
S'5!z?'
p2742
tp2743
Rp2744
tp2745
a(g68
g6
(g18
S'\x18\xbf\xaf<'
p2746
tp2747
Rp2748
tp2749
a(g44
g6
(g18
S'xA\x91:'
p2750
tp2751
Rp2752
tp2753
a(g193
g6
(g18
S'S|\x0e9'
p2754
tp2755
Rp2756
tp2757
a(g84
g6
(g18
S'\xe5\xcdz8'
p2758
tp2759
Rp2760
tp2761
asg73
g15
sa(dp2762
g2
S'../../../data/emanuela/activity-recognition/images/NTCIR-Lifelog-256/u2/2015-04-25/b00003359_21i7lf_20150425_164109e.jpg'
p2763
sg4
(lp2764
(g15
g6
(g18
S'\x05#\xd0>'
p2765
tp2766
Rp2767
tp2768
a(g68
g6
(g18
S'[\xa5M>'
p2769
tp2770
Rp2771
tp2772
a(g301
g6
(g18
S'\xed{>>'
p2773
tp2774
Rp2775
tp2776
a(g84
g6
(g18
S'\xb0\xa2\xcb='
p2777
tp2778
Rp2779
tp2780
a(g135
g6
(g18
S'\xbe\x94\xd7<'
p2781
tp2782
Rp2783
tp2784
asg73
g15
sa(dp2785
g2
S'../../../data/emanuela/activity-recognition/images/NTCIR-Lifelog-256/u3/2015-07-18/b00000641_21i79q_20150718_172624e.jpg'
p2786
sg4
(lp2787
(g15
g6
(g18
S'Z\x1cm?'
p2788
tp2789
Rp2790
tp2791
a(g193
g6
(g18
S'z\xb9\xda<'
p2792
tp2793
Rp2794
tp2795
a(g212
g6
(g18
S'\xd5\x99\xc2<'
p2796
tp2797
Rp2798
tp2799
a(g84
g6
(g18
S'\xb6\x19\xd3;'
p2800
tp2801
Rp2802
tp2803
a(g44
g6
(g18
S'\xf5\xa8\xc8;'
p2804
tp2805
Rp2806
tp2807
asg73
g15
sa(dp2808
g2
S'../../../data/emanuela/activity-recognition/images/NTCIR-Lifelog-256/u3/2015-06-20/b00001525_21i79q_20150620_034516e.jpg'
p2809
sg4
(lp2810
(g15
g6
(g18
S'\xf08]?'
p2811
tp2812
Rp2813
tp2814
a(g68
g6
(g18
S':\xb5\xe9='
p2815
tp2816
Rp2817
tp2818
a(g32
g6
(g18
S'\x812\xb6;'
p2819
tp2820
Rp2821
tp2822
a(g378
g6
(g18
S'h0\xb5;'
p2823
tp2824
Rp2825
tp2826
a(g193
g6
(g18
S'\xa2F\x1a;'
p2827
tp2828
Rp2829
tp2830
asg73
g15
sa(dp2831
g2
S'../../../data/emanuela/activity-recognition/images/NTCIR-Lifelog-256/u3/2015-07-18/b00000618_21i79q_20150718_171255e.jpg'
p2832
sg4
(lp2833
(g15
g6
(g18
S'\x85\x1e\x17?'
p2834
tp2835
Rp2836
tp2837
a(g32
g6
(g18
S'\x88\x80\xb8>'
p2838
tp2839
Rp2840
tp2841
a(g44
g6
(g18
S'[\xdd\xb8<'
p2842
tp2843
Rp2844
tp2845
a(g135
g6
(g18
S'\xc9]\xb0<'
p2846
tp2847
Rp2848
tp2849
a(g56
g6
(g18
S'\x9c!\x8d:'
p2850
tp2851
Rp2852
tp2853
asg73
g15
sa(dp2854
g2
S'../../../data/emanuela/activity-recognition/images/NTCIR-Lifelog-256/u1/2015-02-23/b00000513_21i6bq_20150223_122913e.jpg'
p2855
sg4
(lp2856
(g15
g6
(g18
S'\xd7\xc9{?'
p2857
tp2858
Rp2859
tp2860
a(g84
g6
(g18
S'#\xd5\x8b;'
p2861
tp2862
Rp2863
tp2864
a(g212
g6
(g18
S'\x9e\xf8F;'
p2865
tp2866
Rp2867
tp2868
a(g68
g6
(g18
S'*\x15#;'
p2869
tp2870
Rp2871
tp2872
a(g44
g6
(g18
S'7<\x08;'
p2873
tp2874
Rp2875
tp2876
asg73
g15
sa(dp2877
g2
S'../../../data/emanuela/activity-recognition/images/NTCIR-Lifelog-256/u3/2015-07-18/b00000750_21i79q_20150718_183207e.jpg'
p2878
sg4
(lp2879
(g15
g6
(g18
S'^\xd5l?'
p2880
tp2881
Rp2882
tp2883
a(g68
g6
(g18
S'\xaaW\xaa<'
p2884
tp2885
Rp2886
tp2887
a(g32
g6
(g18
S'\xf0\x12t<'
p2888
tp2889
Rp2890
tp2891
a(g44
g6
(g18
S'\x92UI<'
p2892
tp2893
Rp2894
tp2895
a(g212
g6
(g18
S'\xfc\x0b\x98;'
p2896
tp2897
Rp2898
tp2899
asg73
g15
sa(dp2900
g2
S'../../../data/emanuela/activity-recognition/images/NTCIR-Lifelog-256/u3/2015-06-28/b00000817_21i79q_20150628_221050e.jpg'
p2901
sg4
(lp2902
(g32
g6
(g18
S'\xbdX\xfd>'
p2903
tp2904
Rp2905
tp2906
a(g15
g6
(g18
S'F \xfc>'
p2907
tp2908
Rp2909
tp2910
a(g44
g6
(g18
S'Q_\xde;'
p2911
tp2912
Rp2913
tp2914
a(g135
g6
(g18
S'\x00\xc4\xb4:'
p2915
tp2916
Rp2917
tp2918
a(g84
g6
(g18
S'\xcd\x07e:'
p2919
tp2920
Rp2921
tp2922
asg73
g15
sa(dp2923
g2
S'../../../data/emanuela/activity-recognition/images/NTCIR-Lifelog-256/u3/2015-07-18/b00000846_21i79q_20150718_192507e.jpg'
p2924
sg4
(lp2925
(g15
g6
(g18
S"|'}?"
p2926
tp2927
Rp2928
tp2929
a(g44
g6
(g18
S'\x9f\xb7\xe8;'
p2930
tp2931
Rp2932
tp2933
a(g32
g6
(g18
S'0\xa1\xea:'
p2934
tp2935
Rp2936
tp2937
a(g193
g6
(g18
S'\xdc\x96\x95:'
p2938
tp2939
Rp2940
tp2941
a(g68
g6
(g18
S'\xdc\x14\x18:'
p2942
tp2943
Rp2944
tp2945
asg73
g15
sa(dp2946
g2
S'../../../data/emanuela/activity-recognition/images/NTCIR-Lifelog-256/u3/2015-07-18/b00000538_21i79q_20150718_164013e.jpg'
p2947
sg4
(lp2948
(g15
g6
(g18
S'\x1d\xb3\x7f?'
p2949
tp2950
Rp2951
tp2952
a(g212
g6
(g18
S'nx\xb29'
p2953
tp2954
Rp2955
tp2956
a(g32
g6
(g18
S'\x03\xd1\x809'
p2957
tp2958
Rp2959
tp2960
a(g193
g6
(g18
S'\xddc~9'
p2961
tp2962
Rp2963
tp2964
a(g68
g6
(g18
S'\xb0$\xa98'
p2965
tp2966
Rp2967
tp2968
asg73
g15
sa(dp2969
g2
S'../../../data/emanuela/activity-recognition/images/NTCIR-Lifelog-256/u2/2015-04-25/b00003816_21i7lf_20150425_214741e.jpg'
p2970
sg4
(lp2971
(g15
g6
(g18
S'~\xe0B?'
p2972
tp2973
Rp2974
tp2975
a(g32
g6
(g18
S'\xe68\x18>'
p2976
tp2977
Rp2978
tp2979
a(g474
g6
(g18
S'Y\x08\xec<'
p2980
tp2981
Rp2982
tp2983
a(g44
g6
(g18
S'R\x9a\xd6<'
p2984
tp2985
Rp2986
tp2987
a(g68
g6
(g18
S'\xf9\xe2d<'
p2988
tp2989
Rp2990
tp2991
asg73
g15
sa(dp2992
g2
S'../../../data/emanuela/activity-recognition/images/NTCIR-Lifelog-256/u2/2015-04-23/b00001101_21i7lf_20150423_125144e.jpg'
p2993
sg4
(lp2994
(g15
g6
(g18
S'\x94\xe4R?'
p2995
tp2996
Rp2997
tp2998
a(g32
g6
(g18
S't|q='
p2999
tp3000
Rp3001
tp3002
a(g44
g6
(g18
S'\x01\xc7Z='
p3003
tp3004
Rp3005
tp3006
a(g68
g6
(g18
S'\xbfb\x01='
p3007
tp3008
Rp3009
tp3010
a(g193
g6
(g18
S'\x98\x82{<'
p3011
tp3012
Rp3013
tp3014
asg73
g15
sa(dp3015
g2
S'../../../data/emanuela/activity-recognition/images/NTCIR-Lifelog-256/u2/2015-04-25/b00003553_21i7lf_20150425_183830e.jpg'
p3016
sg4
(lp3017
(g15
g6
(g18
S'\xc0=v?'
p3018
tp3019
Rp3020
tp3021
a(g68
g6
(g18
S'\x01AS<'
p3022
tp3023
Rp3024
tp3025
a(g32
g6
(g18
S')\x07\x08<'
p3026
tp3027
Rp3028
tp3029
a(g44
g6
(g18
S'\xe3\x06\x86;'
p3030
tp3031
Rp3032
tp3033
a(g551
g6
(g18
S'57\x18;'
p3034
tp3035
Rp3036
tp3037
asg73
g15
sa(dp3038
g2
S'../../../data/emanuela/activity-recognition/images/NTCIR-Lifelog-256/u1/2015-02-23/b00000561_21i6bq_20150223_125747e.jpg'
p3039
sg4
(lp3040
(g15
g6
(g18
S'\xf2p-?'
p3041
tp3042
Rp3043
tp3044
a(g68
g6
(g18
S"'`\xc6="
p3045
tp3046
Rp3047
tp3048
a(g84
g6
(g18
S'`~{='
p3049
tp3050
Rp3051
tp3052
a(g44
g6
(g18
S'\xf8z\x1c='
p3053
tp3054
Rp3055
tp3056
a(g32
g6
(g18
S'\xf4\xe8\x08='
p3057
tp3058
Rp3059
tp3060
asg73
g15
sa(dp3061
g2
S'../../../data/emanuela/activity-recognition/images/NTCIR-Lifelog-256/u3/2015-07-18/b00000602_21i79q_20150718_170313e.jpg'
p3062
sg4
(lp3063
(g15
g6
(g18
S'\x1d.Y?'
p3064
tp3065
Rp3066
tp3067
a(g32
g6
(g18
S'\x1c\xfcX='
p3068
tp3069
Rp3070
tp3071
a(g44
g6
(g18
S'\xa1\xb4\r='
p3072
tp3073
Rp3074
tp3075
a(g193
g6
(g18
S'\xf0\xed\xe9<'
p3076
tp3077
Rp3078
tp3079
a(g68
g6
(g18
S'\xe0t\x9f<'
p3080
tp3081
Rp3082
tp3083
asg73
g15
sa(dp3084
g2
S'../../../data/emanuela/activity-recognition/images/NTCIR-Lifelog-256/u3/2015-07-18/b00000910_21i79q_20150718_200426e.jpg'
p3085
sg4
(lp3086
(g15
g6
(g18
S'\x98kR?'
p3087
tp3088
Rp3089
tp3090
a(g44
g6
(g18
S'\xe9\xe8,>'
p3091
tp3092
Rp3093
tp3094
a(g32
g6
(g18
S'\xc2x\xf7;'
p3095
tp3096
Rp3097
tp3098
a(g135
g6
(g18
S'\xda\r\x80:'
p3099
tp3100
Rp3101
tp3102
a(g108
g6
(g18
S'\x97\x1cB9'
p3103
tp3104
Rp3105
tp3106
asg73
g15
sa(dp3107
g2
S'../../../data/emanuela/activity-recognition/images/NTCIR-Lifelog-256/u3/2015-07-18/b00000616_21i79q_20150718_171142e.jpg'
p3108
sg4
(lp3109
(g15
g6
(g18
S'?:Z?'
p3110
tp3111
Rp3112
tp3113
a(g193
g6
(g18
S'\xac\xaa\x02>'
p3114
tp3115
Rp3116
tp3117
a(g68
g6
(g18
S'\xe4\x83\x85<'
p3118
tp3119
Rp3120
tp3121
a(g84
g6
(g18
S'\x81\x13\xa8:'
p3122
tp3123
Rp3124
tp3125
a(g44
g6
(g18
S'\x00\xb1\x14:'
p3126
tp3127
Rp3128
tp3129
asg73
g15
sa(dp3130
g2
S'../../../data/emanuela/activity-recognition/images/NTCIR-Lifelog-256/u3/2015-07-18/b00000977_21i79q_20150718_203932e.jpg'
p3131
sg4
(lp3132
(g15
g6
(g18
S'\x17\xa0;?'
p3133
tp3134
Rp3135
tp3136
a(g44
g6
(g18
S'\x7f\x1fq>'
p3137
tp3138
Rp3139
tp3140
a(g32
g6
(g18
S'X\xab\xd0<'
p3141
tp3142
Rp3143
tp3144
a(g135
g6
(g18
S'{\xd1\x10;'
p3145
tp3146
Rp3147
tp3148
a(g108
g6
(g18
S'XQ\xe2:'
p3149
tp3150
Rp3151
tp3152
asg73
g15
sa(dp3153
g2
S'../../../data/emanuela/activity-recognition/images/NTCIR-Lifelog-256/u1/2015-03-11/b00000208_21i6bq_20150311_084806e.jpg'
p3154
sg4
(lp3155
(g15
g6
(g18
S'\xef\x9cr?'
p3156
tp3157
Rp3158
tp3159
a(g68
g6
(g18
S'\x1aK\x91<'
p3160
tp3161
Rp3162
tp3163
a(g44
g6
(g18
S'\x8a.\x91<'
p3164
tp3165
Rp3166
tp3167
a(g32
g6
(g18
S'\x9d@\xac;'
p3168
tp3169
Rp3170
tp3171
a(g474
g6
(g18
S'\xb4\x1d\x9f;'
p3172
tp3173
Rp3174
tp3175
asg73
g15
sa(dp3176
g2
S'../../../data/emanuela/activity-recognition/images/NTCIR-Lifelog-256/u3/2015-07-18/b00000763_21i79q_20150718_184005e.jpg'
p3177
sg4
(lp3178
(g15
g6
(g18
S'K\xe7~?'
p3179
tp3180
Rp3181
tp3182
a(g32
g6
(g18
S'\x1bJ6;'
p3183
tp3184
Rp3185
tp3186
a(g44
g6
(g18
S'}\x05y:'
p3187
tp3188
Rp3189
tp3190
a(g68
g6
(g18
S'*\x84E9'
p3191
tp3192
Rp3193
tp3194
a(g193
g6
(g18
S'F&$9'
p3195
tp3196
Rp3197
tp3198
asg73
g15
sa(dp3199
g2
S'../../../data/emanuela/activity-recognition/images/NTCIR-Lifelog-256/u1/2015-03-17/b00000856_21i6bq_20150317_163851e.jpg'
p3200
sg4
(lp3201
(g474
g6
(g18
S'\xac\xd4h?'
p3202
tp3203
Rp3204
tp3205
a(g84
g6
(g18
S'{6\x14='
p3206
tp3207
Rp3208
tp3209
a(g15
g6
(g18
S'c{\x00='
p3210
tp3211
Rp3212
tp3213
a(g108
g6
(g18
S'\xbb\xd1\x0b<'
p3214
tp3215
Rp3216
tp3217
a(g44
g6
(g18
S'\x91\xaa\x91;'
p3218
tp3219
Rp3220
tp3221
asg73
g15
sa(dp3222
g2
S'../../../data/emanuela/activity-recognition/images/NTCIR-Lifelog-256/u1/2015-03-11/b00000205_21i6bq_20150311_084609e.jpg'
p3223
sg4
(lp3224
(g15
g6
(g18
S'\x02\x96s?'
p3225
tp3226
Rp3227
tp3228
a(g44
g6
(g18
S'n\xfa\xa6<'
p3229
tp3230
Rp3231
tp3232
a(g68
g6
(g18
S'T\x19$<'
p3233
tp3234
Rp3235
tp3236
a(g32
g6
(g18
S'\xa1:\x1a<'
p3237
tp3238
Rp3239
tp3240
a(g84
g6
(g18
S'f\xd6c;'
p3241
tp3242
Rp3243
tp3244
asg73
g15
sa(dp3245
g2
S'../../../data/emanuela/activity-recognition/images/NTCIR-Lifelog-256/u3/2015-07-18/b00000589_21i79q_20150718_165521e.jpg'
p3246
sg4
(lp3247
(g15
g6
(g18
S'\xd5|L?'
p3248
tp3249
Rp3250
tp3251
a(g32
g6
(g18
S'\xeb\xae,>'
p3252
tp3253
Rp3254
tp3255
a(g135
g6
(g18
S'jv\x1a<'
p3256
tp3257
Rp3258
tp3259
a(g84
g6
(g18
S'\x9d\xec\xd9;'
p3260
tp3261
Rp3262
tp3263
a(g301
g6
(g18
S'Wb\x95;'
p3264
tp3265
Rp3266
tp3267
asg73
g15
sa(dp3268
g2
S'../../../data/emanuela/activity-recognition/images/NTCIR-Lifelog-256/u2/2015-04-25/b00003684_21i7lf_20150425_200809e.jpg'
p3269
sg4
(lp3270
(g56
g6
(g18
S'P\xaa:?'
p3271
tp3272
Rp3273
tp3274
a(g15
g6
(g18
S'\xfcS\xc5='
p3275
tp3276
Rp3277
tp3278
a(g355
g6
(g18
S'\x9dY\xa5='
p3279
tp3280
Rp3281
tp3282
a(g68
g6
(g18
S'I\x13\x07='
p3283
tp3284
Rp3285
tp3286
a(g44
g6
(g18
S'%\x86\xa5<'
p3287
tp3288
Rp3289
tp3290
asg73
g15
sa(dp3291
g2
S'../../../data/emanuela/activity-recognition/images/NTCIR-Lifelog-256/u1/2015-02-23/b00000502_21i6bq_20150223_122234e.jpg'
p3292
sg4
(lp3293
(g15
g6
(g18
S'\xe4\xc9{?'
p3294
tp3295
Rp3296
tp3297
a(g212
g6
(g18
S'o\xeb\xc2;'
p3298
tp3299
Rp3300
tp3301
a(g44
g6
(g18
S'\xb355;'
p3302
tp3303
Rp3304
tp3305
a(g84
g6
(g18
S'\xe6\xba&;'
p3306
tp3307
Rp3308
tp3309
a(g68
g6
(g18
S'\xef$\xed:'
p3310
tp3311
Rp3312
tp3313
asg73
g15
sa(dp3314
g2
S'../../../data/emanuela/activity-recognition/images/NTCIR-Lifelog-256/u1/2015-02-23/b00000555_21i6bq_20150223_125419e.jpg'
p3315
sg4
(lp3316
(g15
g6
(g18
S'\x14B\x0b?'
p3317
tp3318
Rp3319
tp3320
a(g32
g6
(g18
S'\xcb\x8b\xc7='
p3321
tp3322
Rp3323
tp3324
a(g68
g6
(g18
S'\xb5\x88}='
p3325
tp3326
Rp3327
tp3328
a(g301
g6
(g18
S'\x80\xe4t='
p3329
tp3330
Rp3331
tp3332
a(g84
g6
(g18
S'\x82\xcca='
p3333
tp3334
Rp3335
tp3336
asg73
g15
sa(dp3337
g2
S'../../../data/emanuela/activity-recognition/images/NTCIR-Lifelog-256/u3/2015-06-28/b00000976_21i79q_20150628_234118e.jpg'
p3338
sg4
(lp3339
(g32
g6
(g18
S'V\xe5\xf0>'
p3340
tp3341
Rp3342
tp3343
a(g15
g6
(g18
S'\x14\xb38>'
p3344
tp3345
Rp3346
tp3347
a(g135
g6
(g18
S'\x18i\x1c>'
p3348
tp3349
Rp3350
tp3351
a(g378
g6
(g18
S'o\xfd\xe1='
p3352
tp3353
Rp3354
tp3355
a(g44
g6
(g18
S'\xb5\xfc*='
p3356
tp3357
Rp3358
tp3359
asg73
g15
sa(dp3360
g2
S'../../../data/emanuela/activity-recognition/images/NTCIR-Lifelog-256/u3/2015-07-18/b00000689_21i79q_20150718_175536e.jpg'
p3361
sg4
(lp3362
(g15
g6
(g18
S'^Ax?'
p3363
tp3364
Rp3365
tp3366
a(g212
g6
(g18
S'\xa0\xec\x10<'
p3367
tp3368
Rp3369
tp3370
a(g44
g6
(g18
S'o\x1b\xe5;'
p3371
tp3372
Rp3373
tp3374
a(g32
g6
(g18
S'\x01\xe2\xbb;'
p3375
tp3376
Rp3377
tp3378
a(g68
g6
(g18
S'\xc8H\x1c;'
p3379
tp3380
Rp3381
tp3382
asg73
g15
sa(dp3383
g2
S'../../../data/emanuela/activity-recognition/images/NTCIR-Lifelog-256/u2/2015-04-25/b00003457_21i7lf_20150425_174006e.jpg'
p3384
sg4
(lp3385
(g15
g6
(g18
S'\xaa(s?'
p3386
tp3387
Rp3388
tp3389
a(g68
g6
(g18
S'\xe2p\xb3<'
p3390
tp3391
Rp3392
tp3393
a(g32
g6
(g18
S'A\xfco<'
p3394
tp3395
Rp3396
tp3397
a(g44
g6
(g18
S'\xa6J\x06<'
p3398
tp3399
Rp3400
tp3401
a(g135
g6
(g18
S'5\x1e\xb7:'
p3402
tp3403
Rp3404
tp3405
asg73
g15
sa(dp3406
g2
S'../../../data/emanuela/activity-recognition/images/NTCIR-Lifelog-256/u3/2015-06-20/b00001328_21i79q_20150620_013847e.jpg'
p3407
sg4
(lp3408
(g15
g6
(g18
S'\xd0\xa7\xe7>'
p3409
tp3410
Rp3411
tp3412
a(g84
g6
(g18
S'\xa8\xd73>'
p3413
tp3414
Rp3415
tp3416
a(g108
g6
(g18
S'\n\xc5!>'
p3417
tp3418
Rp3419
tp3420
a(g44
g6
(g18
S'\x13A\xc1='
p3421
tp3422
Rp3423
tp3424
a(g135
g6
(g18
S'\xbaB\x15='
p3425
tp3426
Rp3427
tp3428
asg73
g15
sa(dp3429
g2
S'../../../data/emanuela/activity-recognition/images/NTCIR-Lifelog-256/u3/2015-06-20/b00001442_21i79q_20150620_025232e.jpg'
p3430
sg4
(lp3431
(g15
g6
(g18
S'\x93\x862?'
p3432
tp3433
Rp3434
tp3435
a(g68
g6
(g18
S'\xbcK\x1d>'
p3436
tp3437
Rp3438
tp3439
a(g32
g6
(g18
S'\xf3L\xdf='
p3440
tp3441
Rp3442
tp3443
a(g84
g6
(g18
S'\x10\xa5\xfb;'
p3444
tp3445
Rp3446
tp3447
a(g301
g6
(g18
S'R\xea\xc9;'
p3448
tp3449
Rp3450
tp3451
asg73
g15
sa(dp3452
g2
S'../../../data/emanuela/activity-recognition/images/NTCIR-Lifelog-256/u3/2015-06-20/b00001358_21i79q_20150620_015711e.jpg'
p3453
sg4
(lp3454
(g15
g6
(g18
S'\xb3\xba\x1d?'
p3455
tp3456
Rp3457
tp3458
a(g84
g6
(g18
S'\xef\xd4$>'
p3459
tp3460
Rp3461
tp3462
a(g108
g6
(g18
S'\xf4\xc4r='
p3463
tp3464
Rp3465
tp3466
a(g44
g6
(g18
S'\xe7\xc5c='
p3467
tp3468
Rp3469
tp3470
a(g193
g6
(g18
S"\xe7\x8a'="
p3471
tp3472
Rp3473
tp3474
asg73
g15
sa(dp3475
g2
S'../../../data/emanuela/activity-recognition/images/NTCIR-Lifelog-256/u3/2015-06-20/b00001381_21i79q_20150620_021334e.jpg'
p3476
sg4
(lp3477
(g44
g6
(g18
S'k\xd1\x02?'
p3478
tp3479
Rp3480
tp3481
a(g15
g6
(g18
S'\xf4mA>'
p3482
tp3483
Rp3484
tp3485
a(g84
g6
(g18
S'O\xd65>'
p3486
tp3487
Rp3488
tp3489
a(g108
g6
(g18
S':H\x17='
p3490
tp3491
Rp3492
tp3493
a(g135
g6
(g18
S'\x0b\xfd\x9c<'
p3494
tp3495
Rp3496
tp3497
asg73
g15
sa(dp3498
g2
S'../../../data/emanuela/activity-recognition/images/NTCIR-Lifelog-256/u3/2015-07-18/b00000773_21i79q_20150718_184058e.jpg'
p3499
sg4
(lp3500
(g15
g6
(g18
S'o\x8dO?'
p3501
tp3502
Rp3503
tp3504
a(g135
g6
(g18
S'\x19\x1c,='
p3505
tp3506
Rp3507
tp3508
a(g56
g6
(g18
S'\xc6\xce\x16='
p3509
tp3510
Rp3511
tp3512
a(g193
g6
(g18
S'&\xa0\xcc<'
p3513
tp3514
Rp3515
tp3516
a(g68
g6
(g18
S'F\xa8\xaf<'
p3517
tp3518
Rp3519
tp3520
asg73
g15
sa(dp3521
g2
S'../../../data/emanuela/activity-recognition/images/NTCIR-Lifelog-256/u2/2015-04-25/b00003536_21i7lf_20150425_182815e.jpg'
p3522
sg4
(lp3523
(g15
g6
(g18
S'&\x80G?'
p3524
tp3525
Rp3526
tp3527
a(g551
g6
(g18
S')M\xcb='
p3528
tp3529
Rp3530
tp3531
a(g378
g6
(g18
S'vKg='
p3532
tp3533
Rp3534
tp3535
a(g68
g6
(g18
S'+V\xa4<'
p3536
tp3537
Rp3538
tp3539
a(g56
g6
(g18
S'\x91\xcdJ<'
p3540
tp3541
Rp3542
tp3543
asg73
g15
sa(dp3544
g2
S'../../../data/emanuela/activity-recognition/images/NTCIR-Lifelog-256/u3/2015-07-18/b00000870_21i79q_20150718_194007e.jpg'
p3545
sg4
(lp3546
(g15
g6
(g18
S'\xe6kx?'
p3547
tp3548
Rp3549
tp3550
a(g68
g6
(g18
S'"\xbcG<'
p3551
tp3552
Rp3553
tp3554
a(g193
g6
(g18
S'\xab\xeb\xce;'
p3555
tp3556
Rp3557
tp3558
a(g44
g6
(g18
S'+\x0e\x82;'
p3559
tp3560
Rp3561
tp3562
a(g84
g6
(g18
S'\xa2\xc1\x08;'
p3563
tp3564
Rp3565
tp3566
asg73
g15
sa(dp3567
g2
S'../../../data/emanuela/activity-recognition/images/NTCIR-Lifelog-256/u3/2015-07-18/b00000552_21i79q_20150718_164413e.jpg'
p3568
sg4
(lp3569
(g15
g6
(g18
S'\xc3\x1ez?'
p3570
tp3571
Rp3572
tp3573
a(g32
g6
(g18
S'\x1aT=<'
p3574
tp3575
Rp3576
tp3577
a(g44
g6
(g18
S'Q\xcf\x0f<'
p3578
tp3579
Rp3580
tp3581
a(g84
g6
(g18
S'De\x7f:'
p3582
tp3583
Rp3584
tp3585
a(g193
g6
(g18
S'\xcb\x17\r:'
p3586
tp3587
Rp3588
tp3589
asg73
g15
sa(dp3590
g2
S'../../../data/emanuela/activity-recognition/images/NTCIR-Lifelog-256/u3/2015-06-20/b00001323_21i79q_20150620_013537e.jpg'
p3591
sg4
(lp3592
(g15
g6
(g18
S'\x92\xcf=?'
p3593
tp3594
Rp3595
tp3596
a(g44
g6
(g18
S'f\x8b\x11>'
p3597
tp3598
Rp3599
tp3600
a(g84
g6
(g18
S'\xb7\xf1{='
p3601
tp3602
Rp3603
tp3604
a(g135
g6
(g18
S'u\r\x86<'
p3605
tp3606
Rp3607
tp3608
a(g474
g6
(g18
S'\xa6fW<'
p3609
tp3610
Rp3611
tp3612
asg73
g15
sa(dp3613
g2
S'../../../data/emanuela/activity-recognition/images/NTCIR-Lifelog-256/u3/2015-07-18/b00000482_21i79q_20150718_160546e.jpg'
p3614
sg4
(lp3615
(g15
g6
(g18
S'+\x0c~?'
p3616
tp3617
Rp3618
tp3619
a(g44
g6
(g18
S'\xe7m\x95;'
p3620
tp3621
Rp3622
tp3623
a(g32
g6
(g18
S'\xa0\x8cH:'
p3624
tp3625
Rp3626
tp3627
a(g212
g6
(g18
S'\xc9\x84!:'
p3628
tp3629
Rp3630
tp3631
a(g193
g6
(g18
S'\xc0\x0c\x16:'
p3632
tp3633
Rp3634
tp3635
asg73
g15
sa(dp3636
g2
S'../../../data/emanuela/activity-recognition/images/NTCIR-Lifelog-256/u2/2015-04-25/b00003837_21i7lf_20150425_222603e.jpg'
p3637
sg4
(lp3638
(g15
g6
(g18
S'\xd5E}?'
p3639
tp3640
Rp3641
tp3642
a(g32
g6
(g18
S'jL\xbd;'
p3643
tp3644
Rp3645
tp3646
a(g44
g6
(g18
S'\xb728;'
p3647
tp3648
Rp3649
tp3650
a(g68
g6
(g18
S't\xfd\x94:'
p3651
tp3652
Rp3653
tp3654
a(g84
g6
(g18
S'K\xe4\xb69'
p3655
tp3656
Rp3657
tp3658
asg73
g15
sa(dp3659
g2
S'../../../data/emanuela/activity-recognition/images/NTCIR-Lifelog-256/u1/2015-02-23/b00000593_21i6bq_20150223_131743e.jpg'
p3660
sg4
(lp3661
(g15
g6
(g18
S'^Pq?'
p3662
tp3663
Rp3664
tp3665
a(g44
g6
(g18
S'\x06\x8fq<'
p3666
tp3667
Rp3668
tp3669
a(g68
g6
(g18
S'u\xe4%<'
p3670
tp3671
Rp3672
tp3673
a(g212
g6
(g18
S'|\x04\xb3;'
p3674
tp3675
Rp3676
tp3677
a(g84
g6
(g18
S'\xd6\xf3\xb1;'
p3678
tp3679
Rp3680
tp3681
asg73
g15
sa(dp3682
g2
S'../../../data/emanuela/activity-recognition/images/NTCIR-Lifelog-256/u1/2015-03-15/b00001195_21i6bq_20150315_190236e.jpg'
p3683
sg4
(lp3684
(g68
g6
(g18
S'\xa5\xbb\x14?'
p3685
tp3686
Rp3687
tp3688
a(g32
g6
(g18
S'\xf8\x01\xc7='
p3689
tp3690
Rp3691
tp3692
a(g15
g6
(g18
S'\xa4c\xb8='
p3693
tp3694
Rp3695
tp3696
a(g474
g6
(g18
S'\xc1\x87\x8c='
p3697
tp3698
Rp3699
tp3700
a(g56
g6
(g18
S'\x1a\xd7(='
p3701
tp3702
Rp3703
tp3704
asg73
g15
sa(dp3705
g2
S'../../../data/emanuela/activity-recognition/images/NTCIR-Lifelog-256/u3/2015-06-20/b00001489_21i79q_20150620_032249e.jpg'
p3706
sg4
(lp3707
(g15
g6
(g18
S'\xda\xdcN?'
p3708
tp3709
Rp3710
tp3711
a(g68
g6
(g18
S'\x86\xa0#>'
p3712
tp3713
Rp3714
tp3715
a(g378
g6
(g18
S'B\x16><'
p3716
tp3717
Rp3718
tp3719
a(g32
g6
(g18
S'\x95\xa60<'
p3720
tp3721
Rp3722
tp3723
a(g84
g6
(g18
S'\xb5\xb8\x86;'
p3724
tp3725
Rp3726
tp3727
asg73
g15
sa(dp3728
g2
S'../../../data/emanuela/activity-recognition/images/NTCIR-Lifelog-256/u3/2015-06-28/b00000132_21i79q_20150628_154628e.jpg'
p3729
sg4
(lp3730
(g15
g6
(g18
S"'\xd86?"
p3731
tp3732
Rp3733
tp3734
a(g44
g6
(g18
S'0=F>'
p3735
tp3736
Rp3737
tp3738
a(g68
g6
(g18
S'\x9c-\x88='
p3739
tp3740
Rp3741
tp3742
a(g193
g6
(g18
S'\xe5\x05w<'
p3743
tp3744
Rp3745
tp3746
a(g32
g6
(g18
S'K\x9c\xa3;'
p3747
tp3748
Rp3749
tp3750
asg73
g15
sa(dp3751
g2
S'../../../data/emanuela/activity-recognition/images/NTCIR-Lifelog-256/u3/2015-07-18/b00000677_21i79q_20150718_174822e.jpg'
p3752
sg4
(lp3753
(g15
g6
(g18
S'\xb9gi?'
p3754
tp3755
Rp3756
tp3757
a(g212
g6
(g18
S'a\x00:='
p3758
tp3759
Rp3760
tp3761
a(g44
g6
(g18
S'4\x8e\xcc<'
p3762
tp3763
Rp3764
tp3765
a(g32
g6
(g18
S'$\r\x01<'
p3766
tp3767
Rp3768
tp3769
a(g68
g6
(g18
S'd\x1dn;'
p3770
tp3771
Rp3772
tp3773
asg73
g15
sa(dp3774
g2
S'../../../data/emanuela/activity-recognition/images/NTCIR-Lifelog-256/u3/2015-07-18/b00000713_21i79q_20150718_181010e.jpg'
p3775
sg4
(lp3776
(g15
g6
(g18
S'\x8at}?'
p3777
tp3778
Rp3779
tp3780
a(g193
g6
(g18
S'\x94+\x93;'
p3781
tp3782
Rp3783
tp3784
a(g68
g6
(g18
S'\xdc\xc68;'
p3785
tp3786
Rp3787
tp3788
a(g44
g6
(g18
S'\x01&\x08:'
p3789
tp3790
Rp3791
tp3792
a(g1821
g6
(g18
S'\x19#\xbe9'
p3793
tp3794
Rp3795
tp3796
asg73
g15
sa(dp3797
g2
S'../../../data/emanuela/activity-recognition/images/NTCIR-Lifelog-256/u1/2015-02-23/b00000599_21i6bq_20150223_132112e.jpg'
p3798
sg4
(lp3799
(g44
g6
(g18
S'z\x84\x90>'
p3800
tp3801
Rp3802
tp3803
a(g15
g6
(g18
S'\xac:y>'
p3804
tp3805
Rp3806
tp3807
a(g68
g6
(g18
S'Z\xbdb>'
p3808
tp3809
Rp3810
tp3811
a(g355
g6
(g18
S':\xfa\xa5='
p3812
tp3813
Rp3814
tp3815
a(g84
g6
(g18
S'\xd3\xa4B='
p3816
tp3817
Rp3818
tp3819
asg73
g15
sa(dp3820
g2
S'../../../data/emanuela/activity-recognition/images/NTCIR-Lifelog-256/u2/2015-05-06/b00007163_21i7lf_20150506_182206e.jpg'
p3821
sg4
(lp3822
(g15
g6
(g18
S'\x81\xb8B?'
p3823
tp3824
Rp3825
tp3826
a(g2078
g6
(g18
S')S\xc2='
p3827
tp3828
Rp3829
tp3830
a(g68
g6
(g18
S'\xe1SH='
p3831
tp3832
Rp3833
tp3834
a(g193
g6
(g18
S'\xac\x0e\xee<'
p3835
tp3836
Rp3837
tp3838
a(g44
g6
(g18
S'\x8b\x80\x8e<'
p3839
tp3840
Rp3841
tp3842
asg73
g15
sa(dp3843
g2
S'../../../data/emanuela/activity-recognition/images/NTCIR-Lifelog-256/u3/2015-06-20/b00001186_21i79q_20150620_000306e.jpg'
p3844
sg4
(lp3845
(g15
g6
(g18
S'\xc7\xc7R?'
p3846
tp3847
Rp3848
tp3849
a(g68
g6
(g18
S'\x08z\xaf='
p3850
tp3851
Rp3852
tp3853
a(g84
g6
(g18
S'\xc2\xea\x9e<'
p3854
tp3855
Rp3856
tp3857
a(g378
g6
(g18
S'K{d<'
p3858
tp3859
Rp3860
tp3861
a(g301
g6
(g18
S"J\xde'<"
p3862
tp3863
Rp3864
tp3865
asg73
g15
sa(dp3866
g2
S'../../../data/emanuela/activity-recognition/images/NTCIR-Lifelog-256/u3/2015-06-20/b00001466_21i79q_20150620_030640e.jpg'
p3867
sg4
(lp3868
(g15
g6
(g18
S'@\xbfJ?'
p3869
tp3870
Rp3871
tp3872
a(g68
g6
(g18
S'\x13\xadC>'
p3873
tp3874
Rp3875
tp3876
a(g378
g6
(g18
S'\x1b\xc9\xe9;'
p3877
tp3878
Rp3879
tp3880
a(g32
g6
(g18
S'\x81\xe1\xb0;'
p3881
tp3882
Rp3883
tp3884
a(g84
g6
(g18
S'\xe6#\xbf:'
p3885
tp3886
Rp3887
tp3888
asg73
g15
sa(dp3889
g2
S'../../../data/emanuela/activity-recognition/images/NTCIR-Lifelog-256/u3/2015-06-28/b00000086_21i79q_20150628_151845e.jpg'
p3890
sg4
(lp3891
(g15
g6
(g18
S'\xaf\xaaL?'
p3892
tp3893
Rp3894
tp3895
a(g44
g6
(g18
S'\x894*>'
p3896
tp3897
Rp3898
tp3899
a(g32
g6
(g18
S'\x86Z\xaa<'
p3900
tp3901
Rp3902
tp3903
a(g355
g6
(g18
S'\x8a\x00\xbf;'
p3904
tp3905
Rp3906
tp3907
a(g135
g6
(g18
S'(D\xac;'
p3908
tp3909
Rp3910
tp3911
asg73
g15
sa(dp3912
g2
S'../../../data/emanuela/activity-recognition/images/NTCIR-Lifelog-256/u3/2015-07-18/b00000490_21i79q_20150718_161029e.jpg'
p3913
sg4
(lp3914
(g15
g6
(g18
S'T\xafq?'
p3915
tp3916
Rp3917
tp3918
a(g301
g6
(g18
S'5\x9b\xf7<'
p3919
tp3920
Rp3921
tp3922
a(g32
g6
(g18
S'\xec\xee\x81<'
p3923
tp3924
Rp3925
tp3926
a(g135
g6
(g18
S'\xef\xb1/;'
p3927
tp3928
Rp3929
tp3930
a(g84
g6
(g18
S'\xcf\n\xba:'
p3931
tp3932
Rp3933
tp3934
asg73
g15
sa(dp3935
g2
S'../../../data/emanuela/activity-recognition/images/NTCIR-Lifelog-256/u2/2015-04-25/b00003676_21i7lf_20150425_200313e.jpg'
p3936
sg4
(lp3937
(g15
g6
(g18
S'\xd8\x80m?'
p3938
tp3939
Rp3940
tp3941
a(g68
g6
(g18
S'n\xde\x9d<'
p3942
tp3943
Rp3944
tp3945
a(g32
g6
(g18
S'E]o<'
p3946
tp3947
Rp3948
tp3949
a(g44
g6
(g18
S'\xf1\xc7]<'
p3950
tp3951
Rp3952
tp3953
a(g84
g6
(g18
S'\xbc\xb4\x0c<'
p3954
tp3955
Rp3956
tp3957
asg73
g15
sa(dp3958
g2
S'../../../data/emanuela/activity-recognition/images/NTCIR-Lifelog-256/u2/2015-04-25/b00003218_21i7lf_20150425_152105e.jpg'
p3959
sg4
(lp3960
(g15
g6
(g18
S'9\xfc;?'
p3961
tp3962
Rp3963
tp3964
a(g84
g6
(g18
S'm\xc8\x91='
p3965
tp3966
Rp3967
tp3968
a(g68
g6
(g18
S'\x81\xd4b='
p3969
tp3970
Rp3971
tp3972
a(g355
g6
(g18
S'\x0c\x00)='
p3973
tp3974
Rp3975
tp3976
a(g301
g6
(g18
S'\x9c\x8a%='
p3977
tp3978
Rp3979
tp3980
asg73
g15
sa(dp3981
g2
S'../../../data/emanuela/activity-recognition/images/NTCIR-Lifelog-256/u2/2015-04-25/b00003468_21i7lf_20150425_174654e.jpg'
p3982
sg4
(lp3983
(g15
g6
(g18
S'L\t\x1e?'
p3984
tp3985
Rp3986
tp3987
a(g84
g6
(g18
S'k\xc5@>'
p3988
tp3989
Rp3990
tp3991
a(g68
g6
(g18
S'c@\r>'
p3992
tp3993
Rp3994
tp3995
a(g193
g6
(g18
S'\x1c|*<'
p3996
tp3997
Rp3998
tp3999
a(g32
g6
(g18
S'\n\xf5\x14<'
p4000
tp4001
Rp4002
tp4003
asg73
g15
sa(dp4004
g2
S'../../../data/emanuela/activity-recognition/images/NTCIR-Lifelog-256/u3/2015-06-20/b00001382_21i79q_20150620_021411e.jpg'
p4005
sg4
(lp4006
(g44
g6
(g18
S'\x15\x13+?'
p4007
tp4008
Rp4009
tp4010
a(g15
g6
(g18
S'o\x87\x90='
p4011
tp4012
Rp4013
tp4014
a(g212
g6
(g18
S'\x99\xc4\x8f='
p4015
tp4016
Rp4017
tp4018
a(g108
g6
(g18
S'\xbb\x1dB='
p4019
tp4020
Rp4021
tp4022
a(g84
g6
(g18
S'\xa466='
p4023
tp4024
Rp4025
tp4026
asg73
g15
sa(dp4027
g2
S'../../../data/emanuela/activity-recognition/images/NTCIR-Lifelog-256/u3/2015-07-18/b00000394_21i79q_20150718_151353e.jpg'
p4028
sg4
(lp4029
(g15
g6
(g18
S'\xcb\x94|?'
p4030
tp4031
Rp4032
tp4033
a(g68
g6
(g18
S'\xa4i\xe3;'
p4034
tp4035
Rp4036
tp4037
a(g32
g6
(g18
S'\xf78k;'
p4038
tp4039
Rp4040
tp4041
a(g193
g6
(g18
S'\xfb\x9b\xdd:'
p4042
tp4043
Rp4044
tp4045
a(g44
g6
(g18
S'\x80\xa9\xf59'
p4046
tp4047
Rp4048
tp4049
asg73
g15
sa(dp4050
g2
S'../../../data/emanuela/activity-recognition/images/NTCIR-Lifelog-256/u2/2015-04-25/b00003742_21i7lf_20150425_204851e.jpg'
p4051
sg4
(lp4052
(g44
g6
(g18
S'\x81\xbc\xdd>'
p4053
tp4054
Rp4055
tp4056
a(g15
g6
(g18
S'/\xfb\x8b>'
p4057
tp4058
Rp4059
tp4060
a(g474
g6
(g18
S'\xf0\x19\x9a='
p4061
tp4062
Rp4063
tp4064
a(g135
g6
(g18
S'\xdf<\x86='
p4065
tp4066
Rp4067
tp4068
a(g301
g6
(g18
S'(D#='
p4069
tp4070
Rp4071
tp4072
asg73
g15
sa(dp4073
g2
S'../../../data/emanuela/activity-recognition/images/NTCIR-Lifelog-256/u3/2015-07-18/b00000461_21i79q_20150718_155303e.jpg'
p4074
sg4
(lp4075
(g15
g6
(g18
S'\x8e\xbb\x7f?'
p4076
tp4077
Rp4078
tp4079
a(g68
g6
(g18
S'\xe2\x13\xc49'
p4080
tp4081
Rp4082
tp4083
a(g44
g6
(g18
S'\xb8qK9'
p4084
tp4085
Rp4086
tp4087
a(g32
g6
(g18
S'\xac\xca:9'
p4088
tp4089
Rp4090
tp4091
a(g84
g6
(g18
S'\x8a$\xd68'
p4092
tp4093
Rp4094
tp4095
asg73
g15
sa(dp4096
g2
S'../../../data/emanuela/activity-recognition/images/NTCIR-Lifelog-256/u3/2015-07-18/b00000778_21i79q_20150718_184355e.jpg'
p4097
sg4
(lp4098
(g15
g6
(g18
S'\xdf\x01v?'
p4099
tp4100
Rp4101
tp4102
a(g68
g6
(g18
S'[\xf5\x8f<'
p4103
tp4104
Rp4105
tp4106
a(g193
g6
(g18
S'h\x10\x17<'
p4107
tp4108
Rp4109
tp4110
a(g32
g6
(g18
S'L\xceu;'
p4111
tp4112
Rp4113
tp4114
a(g56
g6
(g18
S'\x13\x85p;'
p4115
tp4116
Rp4117
tp4118
asg73
g15
sa(dp4119
g2
S'../../../data/emanuela/activity-recognition/images/NTCIR-Lifelog-256/u3/2015-07-18/b00000757_21i79q_20150718_183629e.jpg'
p4120
sg4
(lp4121
(g15
g6
(g18
S'\xa2\xdc{?'
p4122
tp4123
Rp4124
tp4125
a(g32
g6
(g18
S'\x1b\x8c\xbf;'
p4126
tp4127
Rp4128
tp4129
a(g44
g6
(g18
S'\xf5\xa7\xbe;'
p4130
tp4131
Rp4132
tp4133
a(g56
g6
(g18
S'"\x81\x8f:'
p4134
tp4135
Rp4136
tp4137
a(g108
g6
(g18
S'\xc8/\x88:'
p4138
tp4139
Rp4140
tp4141
asg73
g15
sa(dp4142
g2
S'../../../data/emanuela/activity-recognition/images/NTCIR-Lifelog-256/u3/2015-06-28/b00000139_21i79q_20150628_155043e.jpg'
p4143
sg4
(lp4144
(g15
g6
(g18
S'\xba\x073?'
p4145
tp4146
Rp4147
tp4148
a(g44
g6
(g18
S'\x04\xcb\x81>'
p4149
tp4150
Rp4151
tp4152
a(g68
g6
(g18
S'5\x94\xc4<'
p4153
tp4154
Rp4155
tp4156
a(g32
g6
(g18
S'\xf5\x1b\x87<'
p4157
tp4158
Rp4159
tp4160
a(g135
g6
(g18
S'\x08,#;'
p4161
tp4162
Rp4163
tp4164
asg73
g15
sa(dp4165
g2
S'../../../data/emanuela/activity-recognition/images/NTCIR-Lifelog-256/u2/2015-04-25/b00003273_21i7lf_20150425_154712e.jpg'
p4166
sg4
(lp4167
(g15
g6
(g18
S'\xf7mE?'
p4168
tp4169
Rp4170
tp4171
a(g68
g6
(g18
S'\x07P\xa7='
p4172
tp4173
Rp4174
tp4175
a(g355
g6
(g18
S'&\x15\xa3='
p4176
tp4177
Rp4178
tp4179
a(g44
g6
(g18
S'\xa4..='
p4180
tp4181
Rp4182
tp4183
a(g84
g6
(g18
S'\xba\x04\x8b<'
p4184
tp4185
Rp4186
tp4187
asg73
g15
sa(dp4188
g2
S'../../../data/emanuela/activity-recognition/images/NTCIR-Lifelog-256/u1/2015-02-23/b00000626_21i6bq_20150223_133733e.jpg'
p4189
sg4
(lp4190
(g15
g6
(g18
S"'\x86\x01?"
p4191
tp4192
Rp4193
tp4194
a(g44
g6
(g18
S'\x8a\xc2\xae>'
p4195
tp4196
Rp4197
tp4198
a(g68
g6
(g18
S'\xa34\x98='
p4199
tp4200
Rp4201
tp4202
a(g355
g6
(g18
S'U\xe9\xd1<'
p4203
tp4204
Rp4205
tp4206
a(g84
g6
(g18
S'\xc9\xff\x88<'
p4207
tp4208
Rp4209
tp4210
asg73
g15
sa(dp4211
g2
S'../../../data/emanuela/activity-recognition/images/NTCIR-Lifelog-256/u3/2015-07-18/b00000804_21i79q_20150718_185941e.jpg'
p4212
sg4
(lp4213
(g15
g6
(g18
S'\xcc\x11\x17?'
p4214
tp4215
Rp4216
tp4217
a(g193
g6
(g18
S'\xa8.\xa2>'
p4218
tp4219
Rp4220
tp4221
a(g68
g6
(g18
S'\x96e\x92='
p4222
tp4223
Rp4224
tp4225
a(g56
g6
(g18
S'\xf1\xcc.<'
p4226
tp4227
Rp4228
tp4229
a(g44
g6
(g18
S'\x9e\xa3+;'
p4230
tp4231
Rp4232
tp4233
asg73
g15
sa(dp4234
g2
S'../../../data/emanuela/activity-recognition/images/NTCIR-Lifelog-256/u3/2015-07-18/b00000656_21i79q_20150718_173546e.jpg'
p4235
sg4
(lp4236
(g15
g6
(g18
S'8gt?'
p4237
tp4238
Rp4239
tp4240
a(g193
g6
(g18
S'\x00-\xd8<'
p4241
tp4242
Rp4243
tp4244
a(g44
g6
(g18
S'\xabX\x12<'
p4245
tp4246
Rp4247
tp4248
a(g56
g6
(g18
S'D\xc64;'
p4249
tp4250
Rp4251
tp4252
a(g32
g6
(g18
S'\x9a\xc4\x14;'
p4253
tp4254
Rp4255
tp4256
asg73
g15
sa(dp4257
g2
S'../../../data/emanuela/activity-recognition/images/NTCIR-Lifelog-256/u3/2015-07-18/b00000567_21i79q_20150718_164657e.jpg'
p4258
sg4
(lp4259
(g15
g6
(g18
S'M\xf3z?'
p4260
tp4261
Rp4262
tp4263
a(g44
g6
(g18
S'\x8f\xe3\x91<'
p4264
tp4265
Rp4266
tp4267
a(g32
g6
(g18
S'\x86=\xcc:'
p4268
tp4269
Rp4270
tp4271
a(g84
g6
(g18
S'\x0b[\xab8'
p4272
tp4273
Rp4274
tp4275
a(g108
g6
(g18
S'\xff-c8'
p4276
tp4277
Rp4278
tp4279
asg73
g15
sa(dp4280
g2
S'../../../data/emanuela/activity-recognition/images/NTCIR-Lifelog-256/u2/2015-05-06/b00007101_21i7lf_20150506_174325e.jpg'
p4281
sg4
(lp4282
(g15
g6
(g18
S'\xf5\xc9\xa8>'
p4283
tp4284
Rp4285
tp4286
a(g2078
g6
(g18
S'\xfd\xfbF>'
p4287
tp4288
Rp4289
tp4290
a(g44
g6
(g18
S'\x014\t>'
p4291
tp4292
Rp4293
tp4294
a(g551
g6
(g18
S'D3\x04>'
p4295
tp4296
Rp4297
tp4298
a(g135
g6
(g18
S'./\xe0='
p4299
tp4300
Rp4301
tp4302
asg73
g15
sa(dp4303
g2
S'../../../data/emanuela/activity-recognition/images/NTCIR-Lifelog-256/u2/2015-04-25/b00003407_21i7lf_20150425_170944e.jpg'
p4304
sg4
(lp4305
(g135
g6
(g18
S'\xbcs\x03?'
p4306
tp4307
Rp4308
tp4309
a(g32
g6
(g18
S'\x96\xd1\x88>'
p4310
tp4311
Rp4312
tp4313
a(g15
g6
(g18
S"\xef\xe1'>"
p4314
tp4315
Rp4316
tp4317
a(g84
g6
(g18
S'\xb8L\xc0<'
p4318
tp4319
Rp4320
tp4321
a(g108
g6
(g18
S'\x19y\xe9;'
p4322
tp4323
Rp4324
tp4325
asg73
g15
sa(dp4326
g2
S'../../../data/emanuela/activity-recognition/images/NTCIR-Lifelog-256/u1/2015-03-06/b00000839_21i6bq_20150306_140650e.jpg'
p4327
sg4
(lp4328
(g355
g6
(g18
S'}\xdb\xea>'
p4329
tp4330
Rp4331
tp4332
a(g68
g6
(g18
S'\nC\x85>'
p4333
tp4334
Rp4335
tp4336
a(g474
g6
(g18
S'\xf3\xa4\xdc='
p4337
tp4338
Rp4339
tp4340
a(g15
g6
(g18
S'\xc9\xf8\xc9='
p4341
tp4342
Rp4343
tp4344
a(g44
g6
(g18
S'\x96\x99\xd3<'
p4345
tp4346
Rp4347
tp4348
asg73
g15
sa(dp4349
g2
S'../../../data/emanuela/activity-recognition/images/NTCIR-Lifelog-256/u3/2015-06-28/b00000133_21i79q_20150628_154704e.jpg'
p4350
sg4
(lp4351
(g15
g6
(g18
S'\xb0\x84)?'
p4352
tp4353
Rp4354
tp4355
a(g44
g6
(g18
S'\x12\x82\xa8>'
p4356
tp4357
Rp4358
tp4359
a(g32
g6
(g18
S'm\xc3\xd5;'
p4360
tp4361
Rp4362
tp4363
a(g68
g6
(g18
S'C\x1dH:'
p4364
tp4365
Rp4366
tp4367
a(g193
g6
(g18
S'\xc7\x0b\x0f:'
p4368
tp4369
Rp4370
tp4371
asg73
g15
sa(dp4372
g2
S'../../../data/emanuela/activity-recognition/images/NTCIR-Lifelog-256/u2/2015-05-06/b00007175_21i7lf_20150506_183010e.jpg'
p4373
sg4
(lp4374
(g15
g6
(g18
S'\xb06O?'
p4375
tp4376
Rp4377
tp4378
a(g44
g6
(g18
S'~\xdb\x1f>'
p4379
tp4380
Rp4381
tp4382
a(g32
g6
(g18
S']L\x1e<'
p4383
tp4384
Rp4385
tp4386
a(g108
g6
(g18
S'@\xc5\xdb;'
p4387
tp4388
Rp4389
tp4390
a(g68
g6
(g18
S'\xa1l\x96;'
p4391
tp4392
Rp4393
tp4394
asg73
g15
sa(dp4395
g2
S'../../../data/emanuela/activity-recognition/images/NTCIR-Lifelog-256/u3/2015-06-20/b00001307_21i79q_20150620_012525e.jpg'
p4396
sg4
(lp4397
(g15
g6
(g18
S'klB?'
p4398
tp4399
Rp4400
tp4401
a(g135
g6
(g18
S'F\x16\xca='
p4402
tp4403
Rp4404
tp4405
a(g84
g6
(g18
S'\x1b\x88\x1c='
p4406
tp4407
Rp4408
tp4409
a(g44
g6
(g18
S'\x12\x7f\xf8<'
p4410
tp4411
Rp4412
tp4413
a(g193
g6
(g18
S'n\xa2\xcf<'
p4414
tp4415
Rp4416
tp4417
asg73
g15
sa(dp4418
g2
S'../../../data/emanuela/activity-recognition/images/NTCIR-Lifelog-256/u3/2015-06-20/b00001242_21i79q_20150620_003909e.jpg'
p4419
sg4
(lp4420
(g15
g6
(g18
S'\xb2\x9d\xe6>'
p4421
tp4422
Rp4423
tp4424
a(g68
g6
(g18
S'\xc2\x18U>'
p4425
tp4426
Rp4427
tp4428
a(g32
g6
(g18
S'M2\x8a='
p4429
tp4430
Rp4431
tp4432
a(g301
g6
(g18
S'\xbb\xfew='
p4433
tp4434
Rp4435
tp4436
a(g44
g6
(g18
S'PF[='
p4437
tp4438
Rp4439
tp4440
asg73
g15
sa(dp4441
g2
S'../../../data/emanuela/activity-recognition/images/NTCIR-Lifelog-256/u2/2015-04-25/b00003431_21i7lf_20150425_172409e.jpg'
p4442
sg4
(lp4443
(g15
g6
(g18
S',\x9bR?'
p4444
tp4445
Rp4446
tp4447
a(g378
g6
(g18
S'\xbah\x98='
p4448
tp4449
Rp4450
tp4451
a(g68
g6
(g18
S'f\x81\xf6<'
p4452
tp4453
Rp4454
tp4455
a(g32
g6
(g18
S'S\x0b\xc0<'
p4456
tp4457
Rp4458
tp4459
a(g44
g6
(g18
S'\x12\xca9<'
p4460
tp4461
Rp4462
tp4463
asg73
g15
sa(dp4464
g2
S'../../../data/emanuela/activity-recognition/images/NTCIR-Lifelog-256/u3/2015-07-18/b00000418_21i79q_20150718_152759e.jpg'
p4465
sg4
(lp4466
(g15
g6
(g18
S' \xcd|?'
p4467
tp4468
Rp4469
tp4470
a(g44
g6
(g18
S'\xaeWQ;'
p4471
tp4472
Rp4473
tp4474
a(g32
g6
(g18
S'\x82\x9f/;'
p4475
tp4476
Rp4477
tp4478
a(g68
g6
(g18
S'}x\x1a;'
p4479
tp4480
Rp4481
tp4482
a(g193
g6
(g18
S'\xc5?\x07;'
p4483
tp4484
Rp4485
tp4486
asg73
g15
sa(dp4487
g2
S'../../../data/emanuela/activity-recognition/images/NTCIR-Lifelog-256/u2/2015-05-06/b00007111_21i7lf_20150506_174923e.jpg'
p4488
sg4
(lp4489
(g15
g6
(g18
S'R\x81\xf6>'
p4490
tp4491
Rp4492
tp4493
a(g474
g6
(g18
S',\x8b\x8c>'
p4494
tp4495
Rp4496
tp4497
a(g44
g6
(g18
S'0\xc4\x8e='
p4498
tp4499
Rp4500
tp4501
a(g84
g6
(g18
S"Y'4="
p4502
tp4503
Rp4504
tp4505
a(g135
g6
(g18
S'\xfd\x93\x16='
p4506
tp4507
Rp4508
tp4509
asg73
g15
sa(dp4510
g2
S'../../../data/emanuela/activity-recognition/images/NTCIR-Lifelog-256/u3/2015-07-18/b00000818_21i79q_20150718_190809e.jpg'
p4511
sg4
(lp4512
(g15
g6
(g18
S'\x85>o?'
p4513
tp4514
Rp4515
tp4516
a(g193
g6
(g18
S'\xa7\xb4"='
p4517
tp4518
Rp4519
tp4520
a(g68
g6
(g18
S'\\\xe8G<'
p4521
tp4522
Rp4523
tp4524
a(g44
g6
(g18
S'A\x02 <'
p4525
tp4526
Rp4527
tp4528
a(g32
g6
(g18
S'\xc3~\xac:'
p4529
tp4530
Rp4531
tp4532
asg73
g15
sa(dp4533
g2
S'../../../data/emanuela/activity-recognition/images/NTCIR-Lifelog-256/u2/2015-04-25/b00003664_21i7lf_20150425_195601e.jpg'
p4534
sg4
(lp4535
(g15
g6
(g18
S'\xedgv?'
p4536
tp4537
Rp4538
tp4539
a(g68
g6
(g18
S'\x8a\xeb\xf2<'
p4540
tp4541
Rp4542
tp4543
a(g32
g6
(g18
S'f\xba ;'
p4544
tp4545
Rp4546
tp4547
a(g44
g6
(g18
S')g\xc8:'
p4548
tp4549
Rp4550
tp4551
a(g84
g6
(g18
S'\x80\xe4\xb5:'
p4552
tp4553
Rp4554
tp4555
asg73
g15
sa(dp4556
g2
S'../../../data/emanuela/activity-recognition/images/NTCIR-Lifelog-256/u3/2015-06-20/b00001490_21i79q_20150620_032323e.jpg'
p4557
sg4
(lp4558
(g15
g6
(g18
S'I\xde\\?'
p4559
tp4560
Rp4561
tp4562
a(g68
g6
(g18
S'\xc5\x95\xd2='
p4563
tp4564
Rp4565
tp4566
a(g32
g6
(g18
S'\xaa\x88\x98<'
p4567
tp4568
Rp4569
tp4570
a(g378
g6
(g18
S'\x89\x8d\xdc;'
p4571
tp4572
Rp4573
tp4574
a(g84
g6
(g18
S'\xb08m;'
p4575
tp4576
Rp4577
tp4578
asg73
g15
sa(dp4579
g2
S'../../../data/emanuela/activity-recognition/images/NTCIR-Lifelog-256/u3/2015-06-20/b00001191_21i79q_20150620_000608e.jpg'
p4580
sg4
(lp4581
(g15
g6
(g18
S'J]\x1a?'
p4582
tp4583
Rp4584
tp4585
a(g68
g6
(g18
S'\xeaX\xb2>'
p4586
tp4587
Rp4588
tp4589
a(g32
g6
(g18
S'p\xf5\x9d<'
p4590
tp4591
Rp4592
tp4593
a(g84
g6
(g18
S'\xc3\xdbX<'
p4594
tp4595
Rp4596
tp4597
a(g44
g6
(g18
S'\xb4\x08\x8e;'
p4598
tp4599
Rp4600
tp4601
asg73
g15
sa(dp4602
g2
S'../../../data/emanuela/activity-recognition/images/NTCIR-Lifelog-256/u2/2015-04-25/b00003670_21i7lf_20150425_195935e.jpg'
p4603
sg4
(lp4604
(g15
g6
(g18
S'k\xca>?'
p4605
tp4606
Rp4607
tp4608
a(g68
g6
(g18
S'\x17\xf5J>'
p4609
tp4610
Rp4611
tp4612
a(g32
g6
(g18
S'3\x0eq<'
p4613
tp4614
Rp4615
tp4616
a(g355
g6
(g18
S'\xe1sV<'
p4617
tp4618
Rp4619
tp4620
a(g193
g6
(g18
S'\x7f;,<'
p4621
tp4622
Rp4623
tp4624
asg73
g15
sa(dp4625
g2
S'../../../data/emanuela/activity-recognition/images/NTCIR-Lifelog-256/u3/2015-06-28/b00000905_21i79q_20150628_230248e.jpg'
p4626
sg4
(lp4627
(g68
g6
(g18
S'\xb8&M?'
p4628
tp4629
Rp4630
tp4631
a(g15
g6
(g18
S'\xe1\xad >'
p4632
tp4633
Rp4634
tp4635
a(g551
g6
(g18
S'\xb8\x17\xe3;'
p4636
tp4637
Rp4638
tp4639
a(g32
g6
(g18
S'\xfa\xab\xdb;'
p4640
tp4641
Rp4642
tp4643
a(g56
g6
(g18
S'\xacx\xcb;'
p4644
tp4645
Rp4646
tp4647
asg73
g15
sa(dp4648
g2
S'../../../data/emanuela/activity-recognition/images/NTCIR-Lifelog-256/u3/2015-07-18/b00000357_21i79q_20150718_145121e.jpg'
p4649
sg4
(lp4650
(g15
g6
(g18
S'r6l?'
p4651
tp4652
Rp4653
tp4654
a(g44
g6
(g18
S'W1\x88='
p4655
tp4656
Rp4657
tp4658
a(g32
g6
(g18
S'\xe7\x9a&<'
p4659
tp4660
Rp4661
tp4662
a(g68
g6
(g18
S'\xebp\x8d9'
p4663
tp4664
Rp4665
tp4666
a(g135
g6
(g18
S']\xff\xb48'
p4667
tp4668
Rp4669
tp4670
asg73
g15
sa(dp4671
g2
S'../../../data/emanuela/activity-recognition/images/NTCIR-Lifelog-256/u3/2015-07-18/b00000915_21i79q_20150718_200715e.jpg'
p4672
sg4
(lp4673
(g15
g6
(g18
S'J\x83q?'
p4674
tp4675
Rp4676
tp4677
a(g32
g6
(g18
S'\x92\xd9\x8c<'
p4678
tp4679
Rp4680
tp4681
a(g135
g6
(g18
S'_dJ<'
p4682
tp4683
Rp4684
tp4685
a(g44
g6
(g18
S'\xdf\x87I<'
p4686
tp4687
Rp4688
tp4689
a(g193
g6
(g18
S's\xe2U;'
p4690
tp4691
Rp4692
tp4693
asg73
g15
sa(dp4694
g2
S'../../../data/emanuela/activity-recognition/images/NTCIR-Lifelog-256/u3/2015-07-18/b00000799_21i79q_20150718_185641e.jpg'
p4695
sg4
(lp4696
(g15
g6
(g18
S'gY`?'
p4697
tp4698
Rp4699
tp4700
a(g193
g6
(g18
S'V\xf4\xbf='
p4701
tp4702
Rp4703
tp4704
a(g44
g6
(g18
S'\x8ac\x1d<'
p4705
tp4706
Rp4707
tp4708
a(g84
g6
(g18
S'\x03\x84\xe9;'
p4709
tp4710
Rp4711
tp4712
a(g56
g6
(g18
S'\xf7\xe8O;'
p4713
tp4714
Rp4715
tp4716
asg73
g15
sa(dp4717
g2
S'../../../data/emanuela/activity-recognition/images/NTCIR-Lifelog-256/u3/2015-07-18/b00000532_21i79q_20150718_163654e.jpg'
p4718
sg4
(lp4719
(g15
g6
(g18
S'\xe4y\x7f?'
p4720
tp4721
Rp4722
tp4723
a(g32
g6
(g18
S'}s\xd3:'
p4724
tp4725
Rp4726
tp4727
a(g68
g6
(g18
S'\xb7\xbd\xb68'
p4728
tp4729
Rp4730
tp4731
a(g212
g6
(g18
S'\xbd\xca\x968'
p4732
tp4733
Rp4734
tp4735
a(g84
g6
(g18
S'\xf6\xfc\x8f8'
p4736
tp4737
Rp4738
tp4739
asg73
g15
sa(dp4740
g2
S'../../../data/emanuela/activity-recognition/images/NTCIR-Lifelog-256/u1/2015-03-06/b00000850_21i6bq_20150306_141334e.jpg'
p4741
sg4
(lp4742
(g15
g6
(g18
S'\x1f\xc4&?'
p4743
tp4744
Rp4745
tp4746
a(g474
g6
(g18
S'\x9ee\xd2='
p4747
tp4748
Rp4749
tp4750
a(g68
g6
(g18
S'>@\xc8='
p4751
tp4752
Rp4753
tp4754
a(g355
g6
(g18
S'9\x94_='
p4755
tp4756
Rp4757
tp4758
a(g108
g6
(g18
S'\xb9\xb1\xff<'
p4759
tp4760
Rp4761
tp4762
asg73
g15
sa(dp4763
g2
S'../../../data/emanuela/activity-recognition/images/NTCIR-Lifelog-256/u1/2015-03-06/b00000845_21i6bq_20150306_141039e.jpg'
p4764
sg4
(lp4765
(g474
g6
(g18
S'!Di>'
p4766
tp4767
Rp4768
tp4769
a(g355
g6
(g18
S'\xcey >'
p4770
tp4771
Rp4772
tp4773
a(g108
g6
(g18
S'D\x91\x1f>'
p4774
tp4775
Rp4776
tp4777
a(g15
g6
(g18
S'\xd2\xf0\x0f>'
p4778
tp4779
Rp4780
tp4781
a(g44
g6
(g18
S'4\xcc\x06>'
p4782
tp4783
Rp4784
tp4785
asg73
g15
sa(dp4786
g2
S'../../../data/emanuela/activity-recognition/images/NTCIR-Lifelog-256/u1/2015-03-11/b00000201_21i6bq_20150311_084341e.jpg'
p4787
sg4
(lp4788
(g68
g6
(g18
S'k\x9b\xdd>'
p4789
tp4790
Rp4791
tp4792
a(g15
g6
(g18
S'\x1e\xe4\xb0>'
p4793
tp4794
Rp4795
tp4796
a(g32
g6
(g18
S'q\xc1\xd9='
p4797
tp4798
Rp4799
tp4800
a(g44
g6
(g18
S'\xdb\xad\x9d='
p4801
tp4802
Rp4803
tp4804
a(g84
g6
(g18
S'8\xd9\x8b<'
p4805
tp4806
Rp4807
tp4808
asg73
g15
sa(dp4809
g2
S'../../../data/emanuela/activity-recognition/images/NTCIR-Lifelog-256/u2/2015-04-25/b00003423_21i7lf_20150425_171933e.jpg'
p4810
sg4
(lp4811
(g15
g6
(g18
S'7AD?'
p4812
tp4813
Rp4814
tp4815
a(g68
g6
(g18
S'\x91\x04\xbc='
p4816
tp4817
Rp4818
tp4819
a(g84
g6
(g18
S'y\x90{='
p4820
tp4821
Rp4822
tp4823
a(g355
g6
(g18
S'\xfemw='
p4824
tp4825
Rp4826
tp4827
a(g32
g6
(g18
S'\xe3\x8e\xfa;'
p4828
tp4829
Rp4830
tp4831
asg73
g15
sa(dp4832
g2
S'../../../data/emanuela/activity-recognition/images/NTCIR-Lifelog-256/u3/2015-07-18/b00000994_21i79q_20150718_205008e.jpg'
p4833
sg4
(lp4834
(g15
g6
(g18
S'\xa1nR?'
p4835
tp4836
Rp4837
tp4838
a(g68
g6
(g18
S'\xbf\xf8m='
p4839
tp4840
Rp4841
tp4842
a(g378
g6
(g18
S'\x12=\xfd<'
p4843
tp4844
Rp4845
tp4846
a(g44
g6
(g18
S'\xe1\x86\x93<'
p4847
tp4848
Rp4849
tp4850
a(g32
g6
(g18
S'IZ\x87<'
p4851
tp4852
Rp4853
tp4854
asg73
g15
sa(dp4855
g2
S'../../../data/emanuela/activity-recognition/images/NTCIR-Lifelog-256/u2/2015-04-25/b00003645_21i7lf_20150425_194430e.jpg'
p4856
sg4
(lp4857
(g15
g6
(g18
S'1\x86h?'
p4858
tp4859
Rp4860
tp4861
a(g32
g6
(g18
S'\xe0D\t='
p4862
tp4863
Rp4864
tp4865
a(g68
g6
(g18
S'pp\xea<'
p4866
tp4867
Rp4868
tp4869
a(g44
g6
(g18
S'>\xfd\xc8<'
p4870
tp4871
Rp4872
tp4873
a(g84
g6
(g18
S'8\x86\xd8:'
p4874
tp4875
Rp4876
tp4877
asg73
g15
sa(dp4878
g2
S'../../../data/emanuela/activity-recognition/images/NTCIR-Lifelog-256/u3/2015-06-28/b00000125_21i79q_20150628_154201e.jpg'
p4879
sg4
(lp4880
(g44
g6
(g18
S'\x8aOs?'
p4881
tp4882
Rp4883
tp4884
a(g15
g6
(g18
S'\r\xaa\xcd<'
p4885
tp4886
Rp4887
tp4888
a(g32
g6
(g18
S'W\x90S<'
p4889
tp4890
Rp4891
tp4892
a(g135
g6
(g18
S'K6\n<'
p4893
tp4894
Rp4895
tp4896
a(g68
g6
(g18
S'\xd1\x1f\xf6:'
p4897
tp4898
Rp4899
tp4900
asg73
g15
sa(dp4901
g2
S'../../../data/emanuela/activity-recognition/images/NTCIR-Lifelog-256/u3/2015-06-20/b00001555_21i79q_20150620_040619e.jpg'
p4902
sg4
(lp4903
(g15
g6
(g18
S'\xbc\x8ch?'
p4904
tp4905
Rp4906
tp4907
a(g68
g6
(g18
S'\xcc$8='
p4908
tp4909
Rp4910
tp4911
a(g378
g6
(g18
S'|R\xe4<'
p4912
tp4913
Rp4914
tp4915
a(g567
g6
(g18
S'\n\x8bP;'
p4916
tp4917
Rp4918
tp4919
a(g2078
g6
(g18
S'M)+;'
p4920
tp4921
Rp4922
tp4923
asg73
g15
sa(dp4924
g2
S'../../../data/emanuela/activity-recognition/images/NTCIR-Lifelog-256/u1/2015-02-23/b00000546_21i6bq_20150223_124849e.jpg'
p4925
sg4
(lp4926
(g15
g6
(g18
S'\xb3r\n?'
p4927
tp4928
Rp4929
tp4930
a(g44
g6
(g18
S'\xda+\x0f>'
p4931
tp4932
Rp4933
tp4934
a(g56
g6
(g18
S'\x06\xe6\xb7='
p4935
tp4936
Rp4937
tp4938
a(g68
g6
(g18
S'C~t='
p4939
tp4940
Rp4941
tp4942
a(g32
g6
(g18
S'\xe6\xada='
p4943
tp4944
Rp4945
tp4946
asg73
g15
sa(dp4947
g2
S'../../../data/emanuela/activity-recognition/images/NTCIR-Lifelog-256/u2/2015-04-25/b00003794_21i7lf_20150425_212228e.jpg'
p4948
sg4
(lp4949
(g15
g6
(g18
S'\xf0\xc21?'
p4950
tp4951
Rp4952
tp4953
a(g68
g6
(g18
S'_I3>'
p4954
tp4955
Rp4956
tp4957
a(g44
g6
(g18
S'j\xcaa='
p4958
tp4959
Rp4960
tp4961
a(g32
g6
(g18
S'/_\xe7<'
p4962
tp4963
Rp4964
tp4965
a(g84
g6
(g18
S'\xfa\x8a9<'
p4966
tp4967
Rp4968
tp4969
asg73
g15
sa(dp4970
g2
S'../../../data/emanuela/activity-recognition/images/NTCIR-Lifelog-256/u3/2015-07-30/b00004863_21i79q_20150730_111126e.jpg'
p4971
sg4
(lp4972
(g68
g6
(g18
S'b\xd1C?'
p4973
tp4974
Rp4975
tp4976
a(g15
g6
(g18
S'G \x92='
p4977
tp4978
Rp4979
tp4980
a(g32
g6
(g18
S'\xe9t/='
p4981
tp4982
Rp4983
tp4984
a(g135
g6
(g18
S'q\xd7\x14='
p4985
tp4986
Rp4987
tp4988
a(g44
g6
(g18
S'(\xb9\xa9<'
p4989
tp4990
Rp4991
tp4992
asg73
g15
sa(dp4993
g2
S'../../../data/emanuela/activity-recognition/images/NTCIR-Lifelog-256/u2/2015-04-25/b00003663_21i7lf_20150425_195528e.jpg'
p4994
sg4
(lp4995
(g15
g6
(g18
S'\xf1\xb9@?'
p4996
tp4997
Rp4998
tp4999
a(g68
g6
(g18
S'\x17\xdb">'
p5000
tp5001
Rp5002
tp5003
a(g32
g6
(g18
S'l\xed\xd4<'
p5004
tp5005
Rp5006
tp5007
a(g44
g6
(g18
S'T\xc2\xa1<'
p5008
tp5009
Rp5010
tp5011
a(g355
g6
(g18
S'\xa4A^<'
p5012
tp5013
Rp5014
tp5015
asg73
g15
sa(dp5016
g2
S'../../../data/emanuela/activity-recognition/images/NTCIR-Lifelog-256/u3/2015-06-28/b00000119_21i79q_20150628_153829e.jpg'
p5017
sg4
(lp5018
(g15
g6
(g18
S'9\xb8\x0c?'
p5019
tp5020
Rp5021
tp5022
a(g44
g6
(g18
S'^\xad\xda>'
p5023
tp5024
Rp5025
tp5026
a(g135
g6
(g18
S'V^3<'
p5027
tp5028
Rp5029
tp5030
a(g32
g6
(g18
S'\x94\x8a\xb0;'
p5031
tp5032
Rp5033
tp5034
a(g68
g6
(g18
S'\x89\xf6C;'
p5035
tp5036
Rp5037
tp5038
asg73
g15
sa(dp5039
g2
S'../../../data/emanuela/activity-recognition/images/NTCIR-Lifelog-256/u2/2015-05-06/b00007114_21i7lf_20150506_175129e.jpg'
p5040
sg4
(lp5041
(g15
g6
(g18
S'\xcd\xb1I?'
p5042
tp5043
Rp5044
tp5045
a(g474
g6
(g18
S'\tR\xa2='
p5046
tp5047
Rp5048
tp5049
a(g44
g6
(g18
S'\x8f\x05\x8f='
p5050
tp5051
Rp5052
tp5053
a(g68
g6
(g18
S'\x15\x7f4<'
p5054
tp5055
Rp5056
tp5057
a(g135
g6
(g18
S'a\x112<'
p5058
tp5059
Rp5060
tp5061
asg73
g15
sa(dp5062
g2
S'../../../data/emanuela/activity-recognition/images/NTCIR-Lifelog-256/u1/2015-03-06/b00000854_21i6bq_20150306_141603e.jpg'
p5063
sg4
(lp5064
(g15
g6
(g18
S"'\r\xe6>"
p5065
tp5066
Rp5067
tp5068
a(g474
g6
(g18
S'h\x8e\xaa>'
p5069
tp5070
Rp5071
tp5072
a(g108
g6
(g18
S'\x0e\x91w='
p5073
tp5074
Rp5075
tp5076
a(g68
g6
(g18
S'!c$='
p5077
tp5078
Rp5079
tp5080
a(g84
g6
(g18
S'\x9a}\x12='
p5081
tp5082
Rp5083
tp5084
asg73
g15
sa(dp5085
g2
S'../../../data/emanuela/activity-recognition/images/NTCIR-Lifelog-256/u3/2015-07-18/b00000575_21i79q_20150718_164706e.jpg'
p5086
sg4
(lp5087
(g15
g6
(g18
S'I\x02Y?'
p5088
tp5089
Rp5090
tp5091
a(g44
g6
(g18
S'\xa5\t/='
p5092
tp5093
Rp5094
tp5095
a(g32
g6
(g18
S'\x7f\xf9\xb8<'
p5096
tp5097
Rp5098
tp5099
a(g551
g6
(g18
S'\xb6s\x90<'
p5100
tp5101
Rp5102
tp5103
a(g84
g6
(g18
S'\xf50_<'
p5104
tp5105
Rp5106
tp5107
asg73
g15
sa(dp5108
g2
S'../../../data/emanuela/activity-recognition/images/NTCIR-Lifelog-256/u3/2015-06-28/b00000081_21i79q_20150628_151552e.jpg'
p5109
sg4
(lp5110
(g15
g6
(g18
S'\x95\xcb4?'
p5111
tp5112
Rp5113
tp5114
a(g44
g6
(g18
S'^\xa7\x95>'
p5115
tp5116
Rp5117
tp5118
a(g32
g6
(g18
S'\xd2\xbeC:'
p5119
tp5120
Rp5121
tp5122
a(g68
g6
(g18
S'\xb3e\xbd9'
p5123
tp5124
Rp5125
tp5126
a(g135
g6
(g18
S'o\x11\xf58'
p5127
tp5128
Rp5129
tp5130
asg73
g15
sa(dp5131
g2
S'../../../data/emanuela/activity-recognition/images/NTCIR-Lifelog-256/u3/2015-06-28/b00000154_21i79q_20150628_155924e.jpg'
p5132
sg4
(lp5133
(g15
g6
(g18
S'z\xeb/?'
p5134
tp5135
Rp5136
tp5137
a(g44
g6
(g18
S'\x1b\xb4\x9c>'
p5138
tp5139
Rp5140
tp5141
a(g68
g6
(g18
S'\x0b\xcb\xd1:'
p5142
tp5143
Rp5144
tp5145
a(g32
g6
(g18
S'\xe2\xdc\xcd:'
p5146
tp5147
Rp5148
tp5149
a(g135
g6
(g18
S'd\xdd\xb6:'
p5150
tp5151
Rp5152
tp5153
asg73
g15
sa(dp5154
g2
S'../../../data/emanuela/activity-recognition/images/NTCIR-Lifelog-256/u3/2015-06-20/b00001487_21i79q_20150620_032135e.jpg'
p5155
sg4
(lp5156
(g15
g6
(g18
S'\x10\x8d_?'
p5157
tp5158
Rp5159
tp5160
a(g68
g6
(g18
S'\x91\xb3\xa3='
p5161
tp5162
Rp5163
tp5164
a(g301
g6
(g18
S'\xf7\xdfO<'
p5165
tp5166
Rp5167
tp5168
a(g32
g6
(g18
S'\x0c\xe9+<'
p5169
tp5170
Rp5171
tp5172
a(g84
g6
(g18
S'\xffg\x0f<'
p5173
tp5174
Rp5175
tp5176
asg73
g15
sa(dp5177
g2
S'../../../data/emanuela/activity-recognition/images/NTCIR-Lifelog-256/u3/2015-07-18/b00000686_21i79q_20150718_175350e.jpg'
p5178
sg4
(lp5179
(g15
g6
(g18
S'\x9a\xbbu?'
p5180
tp5181
Rp5182
tp5183
a(g44
g6
(g18
S'\xd4\x1c\xa7<'
p5184
tp5185
Rp5186
tp5187
a(g68
g6
(g18
S'\x9f\xae\xb8;'
p5188
tp5189
Rp5190
tp5191
a(g32
g6
(g18
S'W\x16\x8b;'
p5192
tp5193
Rp5194
tp5195
a(g212
g6
(g18
S'\xb3\xe3A;'
p5196
tp5197
Rp5198
tp5199
asg73
g15
sa(dp5200
g2
S'../../../data/emanuela/activity-recognition/images/NTCIR-Lifelog-256/u2/2015-04-26/b00004174_21i7lf_20150426_160204e.jpg'
p5201
sg4
(lp5202
(g44
g6
(g18
S'\xb1\xfe\x82>'
p5203
tp5204
Rp5205
tp5206
a(g301
g6
(g18
S'&-Q>'
p5207
tp5208
Rp5209
tp5210
a(g15
g6
(g18
S'2k\xcd='
p5211
tp5212
Rp5213
tp5214
a(g32
g6
(g18
S'\xad\xe9\xc9='
p5215
tp5216
Rp5217
tp5218
a(g84
g6
(g18
S'\x02\x97\xbf='
p5219
tp5220
Rp5221
tp5222
asg73
g15
sa(dp5223
g2
S'../../../data/emanuela/activity-recognition/images/NTCIR-Lifelog-256/u2/2015-04-25/b00003483_21i7lf_20150425_175552e.jpg'
p5224
sg4
(lp5225
(g15
g6
(g18
S'\x83u|?'
p5226
tp5227
Rp5228
tp5229
a(g68
g6
(g18
S'\xeaP\xd9;'
p5230
tp5231
Rp5232
tp5233
a(g32
g6
(g18
S'\xa74\x9c;'
p5234
tp5235
Rp5236
tp5237
a(g44
g6
(g18
S'\xf6\xc2/:'
p5238
tp5239
Rp5240
tp5241
a(g84
g6
(g18
S'-\xbf\x14:'
p5242
tp5243
Rp5244
tp5245
asg73
g15
sa(dp5246
g2
S'../../../data/emanuela/activity-recognition/images/NTCIR-Lifelog-256/u3/2015-07-18/b00000428_21i79q_20150718_153352e.jpg'
p5247
sg4
(lp5248
(g15
g6
(g18
S'\x0cC]?'
p5249
tp5250
Rp5251
tp5252
a(g193
g6
(g18
S'\xc6.[='
p5253
tp5254
Rp5255
tp5256
a(g68
g6
(g18
S'{N\xf0<'
p5257
tp5258
Rp5259
tp5260
a(g44
g6
(g18
S'\xeaW\x99<'
p5261
tp5262
Rp5263
tp5264
a(g32
g6
(g18
S'\xb5\xcf\x87<'
p5265
tp5266
Rp5267
tp5268
asg73
g15
sa(dp5269
g2
S'../../../data/emanuela/activity-recognition/images/NTCIR-Lifelog-256/u3/2015-06-20/b00001493_21i79q_20150620_032554e.jpg'
p5270
sg4
(lp5271
(g15
g6
(g18
S'q\x16"?'
p5272
tp5273
Rp5274
tp5275
a(g68
g6
(g18
S'\xcdG\x85>'
p5276
tp5277
Rp5278
tp5279
a(g32
g6
(g18
S'\xdd(d='
p5280
tp5281
Rp5282
tp5283
a(g301
g6
(g18
S'\xacu\x89<'
p5284
tp5285
Rp5286
tp5287
a(g84
g6
(g18
S'\xc6+z<'
p5288
tp5289
Rp5290
tp5291
asg73
g15
sa(dp5292
g2
S'../../../data/emanuela/activity-recognition/images/NTCIR-Lifelog-256/u3/2015-06-20/b00001454_21i79q_20150620_025924e.jpg'
p5293
sg4
(lp5294
(g15
g6
(g18
S'=\x7fT?'
p5295
tp5296
Rp5297
tp5298
a(g68
g6
(g18
S'\x17e\x0f>'
p5299
tp5300
Rp5301
tp5302
a(g84
g6
(g18
S'\x1dw+<'
p5303
tp5304
Rp5305
tp5306
a(g378
g6
(g18
S'\x10(\x05<'
p5307
tp5308
Rp5309
tp5310
a(g32
g6
(g18
S'.\xc0p;'
p5311
tp5312
Rp5313
tp5314
asg73
g15
sa(dp5315
g2
S'../../../data/emanuela/activity-recognition/images/NTCIR-Lifelog-256/u2/2015-04-25/b00003796_21i7lf_20150425_212528e.jpg'
p5316
sg4
(lp5317
(g15
g6
(g18
S'u8\x14?'
p5318
tp5319
Rp5320
tp5321
a(g84
g6
(g18
S'@U\x05>'
p5322
tp5323
Rp5324
tp5325
a(g32
g6
(g18
S'M\x89\xd0='
p5326
tp5327
Rp5328
tp5329
a(g68
g6
(g18
S'\xe5Hr='
p5330
tp5331
Rp5332
tp5333
a(g355
g6
(g18
S'OLX='
p5334
tp5335
Rp5336
tp5337
asg73
g15
sa(dp5338
g2
S'../../../data/emanuela/activity-recognition/images/NTCIR-Lifelog-256/u3/2015-07-18/b00000635_21i79q_20150718_172239e.jpg'
p5339
sg4
(lp5340
(g15
g6
(g18
S'\x88\xb4N?'
p5341
tp5342
Rp5343
tp5344
a(g193
g6
(g18
S'n\xc8\x85='
p5345
tp5346
Rp5347
tp5348
a(g32
g6
(g18
S'\x99\x0e-='
p5349
tp5350
Rp5351
tp5352
a(g108
g6
(g18
S'\\\xf2\x9c<'
p5353
tp5354
Rp5355
tp5356
a(g212
g6
(g18
S'\xe7B\x9c<'
p5357
tp5358
Rp5359
tp5360
asg73
g15
sa(dp5361
g2
S'../../../data/emanuela/activity-recognition/images/NTCIR-Lifelog-256/u3/2015-07-18/b00000791_21i79q_20150718_185151e.jpg'
p5362
sg4
(lp5363
(g15
g6
(g18
S'O\xcdV?'
p5364
tp5365
Rp5366
tp5367
a(g56
g6
(g18
S'b\x04\xc4='
p5368
tp5369
Rp5370
tp5371
a(g193
g6
(g18
S'\xf5k=='
p5372
tp5373
Rp5374
tp5375
a(g68
g6
(g18
S'A\x81\x82;'
p5376
tp5377
Rp5378
tp5379
a(g2078
g6
(g18
S'\xf3ZI;'
p5380
tp5381
Rp5382
tp5383
asg73
g15
sa(dp5384
g2
S'../../../data/emanuela/activity-recognition/images/NTCIR-Lifelog-256/u3/2015-06-20/b00001583_21i79q_20150620_042039e.jpg'
p5385
sg4
(lp5386
(g2251
g6
(g18
S'\xa2\xf5\xe9>'
p5387
tp5388
Rp5389
tp5390
a(g301
g6
(g18
S'Xj\xbd>'
p5391
tp5392
Rp5393
tp5394
a(g68
g6
(g18
S'^\xfd\x99='
p5395
tp5396
Rp5397
tp5398
a(g84
g6
(g18
S'M\x13\x00='
p5399
tp5400
Rp5401
tp5402
a(g135
g6
(g18
S'\x81\x06a<'
p5403
tp5404
Rp5405
tp5406
asg73
g15
sa(dp5407
g2
S'../../../data/emanuela/activity-recognition/images/NTCIR-Lifelog-256/u1/2015-03-11/b00000213_21i6bq_20150311_085109e.jpg'
p5408
sg4
(lp5409
(g15
g6
(g18
S'\xb8\x05W?'
p5410
tp5411
Rp5412
tp5413
a(g68
g6
(g18
S'\xbe\xdc\xd5='
p5414
tp5415
Rp5416
tp5417
a(g84
g6
(g18
S'z\x19\x8a<'
p5418
tp5419
Rp5420
tp5421
a(g44
g6
(g18
S'\xf5Ok<'
p5422
tp5423
Rp5424
tp5425
a(g32
g6
(g18
S'\xf4\x9dJ<'
p5426
tp5427
Rp5428
tp5429
asg73
g15
sa(dp5430
g2
S'../../../data/emanuela/activity-recognition/images/NTCIR-Lifelog-256/u3/2015-07-18/b00000494_21i79q_20150718_161305e.jpg'
p5431
sg4
(lp5432
(g15
g6
(g18
S'\xbb\xfc}?'
p5433
tp5434
Rp5435
tp5436
a(g32
g6
(g18
S'\xfc\x9e3;'
p5437
tp5438
Rp5439
tp5440
a(g44
g6
(g18
S'\x18\x8e\x9c:'
p5441
tp5442
Rp5443
tp5444
a(g84
g6
(g18
S'\x9d\xbdu:'
p5445
tp5446
Rp5447
tp5448
a(g301
g6
(g18
S'\xb8J):'
p5449
tp5450
Rp5451
tp5452
asg73
g15
sa(dp5453
g2
S'../../../data/emanuela/activity-recognition/images/NTCIR-Lifelog-256/u3/2015-07-18/b00000785_21i79q_20150718_184807e.jpg'
p5454
sg4
(lp5455
(g15
g6
(g18
S'_\xec|?'
p5456
tp5457
Rp5458
tp5459
a(g44
g6
(g18
S'Y\x00\x12<'
p5460
tp5461
Rp5462
tp5463
a(g32
g6
(g18
S'\x92\x11\x8e:'
p5464
tp5465
Rp5466
tp5467
a(g193
g6
(g18
S'pD\x12:'
p5468
tp5469
Rp5470
tp5471
a(g68
g6
(g18
S'7\x8a\x02:'
p5472
tp5473
Rp5474
tp5475
asg73
g15
sa(dp5476
g2
S'../../../data/emanuela/activity-recognition/images/NTCIR-Lifelog-256/u2/2015-04-25/b00003652_21i7lf_20150425_194845e.jpg'
p5477
sg4
(lp5478
(g15
g6
(g18
S'\xfb\xa4E?'
p5479
tp5480
Rp5481
tp5482
a(g68
g6
(g18
S'?\xc6W>'
p5483
tp5484
Rp5485
tp5486
a(g84
g6
(g18
S'n\xf2\xef;'
p5487
tp5488
Rp5489
tp5490
a(g32
g6
(g18
S'\xe0\xbb\xa8;'
p5491
tp5492
Rp5493
tp5494
a(g44
g6
(g18
S'x\x9b\xb2:'
p5495
tp5496
Rp5497
tp5498
asg73
g15
sa(dp5499
g2
S'../../../data/emanuela/activity-recognition/images/NTCIR-Lifelog-256/u2/2015-05-06/b00007109_21i7lf_20150506_174813e.jpg'
p5500
sg4
(lp5501
(g15
g6
(g18
S'KR\x07?'
p5502
tp5503
Rp5504
tp5505
a(g44
g6
(g18
S'\xaaK\x1d>'
p5506
tp5507
Rp5508
tp5509
a(g474
g6
(g18
S'E\xfc\xd8='
p5510
tp5511
Rp5512
tp5513
a(g84
g6
(g18
S'\x85\xd0\xbb='
p5514
tp5515
Rp5516
tp5517
a(g378
g6
(g18
S'\x03&\xf6<'
p5518
tp5519
Rp5520
tp5521
asg73
g15
sa(dp5522
g2
S'../../../data/emanuela/activity-recognition/images/NTCIR-Lifelog-256/u1/2015-02-23/b00000609_21i6bq_20150223_132720e.jpg'
p5523
sg4
(lp5524
(g15
g6
(g18
S'\xe7\xffV?'
p5525
tp5526
Rp5527
tp5528
a(g212
g6
(g18
S'\x82O\xc0='
p5529
tp5530
Rp5531
tp5532
a(g193
g6
(g18
S'\xf9\x83\xaf<'
p5533
tp5534
Rp5535
tp5536
a(g56
g6
(g18
S'\x04\xbd\x95<'
p5537
tp5538
Rp5539
tp5540
a(g68
g6
(g18
S'\x89\xc0\x19<'
p5541
tp5542
Rp5543
tp5544
asg73
g15
sa(dp5545
g2
S'../../../data/emanuela/activity-recognition/images/NTCIR-Lifelog-256/u3/2015-06-20/b00001189_21i79q_20150620_000454e.jpg'
p5546
sg4
(lp5547
(g15
g6
(g18
S'\xb9l#?'
p5548
tp5549
Rp5550
tp5551
a(g68
g6
(g18
S'/\xdc\x96>'
p5552
tp5553
Rp5554
tp5555
a(g84
g6
(g18
S'/\xe2\xb9<'
p5556
tp5557
Rp5558
tp5559
a(g32
g6
(g18
S'\xb8D\xa2<'
p5560
tp5561
Rp5562
tp5563
a(g301
g6
(g18
S'\xc5\x97$<'
p5564
tp5565
Rp5566
tp5567
asg73
g15
sa(dp5568
g2
S'../../../data/emanuela/activity-recognition/images/NTCIR-Lifelog-256/u3/2015-06-28/b00000129_21i79q_20150628_154434e.jpg'
p5569
sg4
(lp5570
(g15
g6
(g18
S'\xdc$b?'
p5571
tp5572
Rp5573
tp5574
a(g44
g6
(g18
S'\x08\xfd\xd4='
p5575
tp5576
Rp5577
tp5578
a(g32
g6
(g18
S'\x04\x0f\x1b<'
p5579
tp5580
Rp5581
tp5582
a(g68
g6
(g18
S'\xd8h\xbc:'
p5583
tp5584
Rp5585
tp5586
a(g135
g6
(g18
S'\xea\xd4\x8f:'
p5587
tp5588
Rp5589
tp5590
asg73
g15
sa(dp5591
g2
S'../../../data/emanuela/activity-recognition/images/NTCIR-Lifelog-256/u3/2015-06-28/b00000969_21i79q_20150628_233659e.jpg'
p5592
sg4
(lp5593
(g32
g6
(g18
S'\xba\x18\x8a>'
p5594
tp5595
Rp5596
tp5597
a(g15
g6
(g18
S'p\xde\x85>'
p5598
tp5599
Rp5600
tp5601
a(g44
g6
(g18
S'\x9a\xcaU>'
p5602
tp5603
Rp5604
tp5605
a(g135
g6
(g18
S'\x8d\x8f\xd7='
p5606
tp5607
Rp5608
tp5609
a(g108
g6
(g18
S'\xa6\x9a\x87='
p5610
tp5611
Rp5612
tp5613
asg73
g15
sa(dp5614
g2
S'../../../data/emanuela/activity-recognition/images/NTCIR-Lifelog-256/u2/2015-04-23/b00001072_21i7lf_20150423_123358e.jpg'
p5615
sg4
(lp5616
(g32
g6
(g18
S'\x8f\xb3\xeb>'
p5617
tp5618
Rp5619
tp5620
a(g44
g6
(g18
S'\x8c\x85\xba>'
p5621
tp5622
Rp5623
tp5624
a(g15
g6
(g18
S'R\xdb%>'
p5625
tp5626
Rp5627
tp5628
a(g68
g6
(g18
S'\xc7\xa2\x89;'
p5629
tp5630
Rp5631
tp5632
a(g108
g6
(g18
S'\x08/Q;'
p5633
tp5634
Rp5635
tp5636
asg73
g15
sa(dp5637
g2
S'../../../data/emanuela/activity-recognition/images/NTCIR-Lifelog-256/u1/2015-03-15/b00001197_21i6bq_20150315_190841e.jpg'
p5638
sg4
(lp5639
(g15
g6
(g18
S'\xf7\tb?'
p5640
tp5641
Rp5642
tp5643
a(g68
g6
(g18
S'^\x86\xa7='
p5644
tp5645
Rp5646
tp5647
a(g44
g6
(g18
S'%3n<'
p5648
tp5649
Rp5650
tp5651
a(g32
g6
(g18
S'\x1a\xa3;<'
p5652
tp5653
Rp5654
tp5655
a(g84
g6
(g18
S'\rv\xa9;'
p5656
tp5657
Rp5658
tp5659
asg73
g15
sa(dp5660
g2
S'../../../data/emanuela/activity-recognition/images/NTCIR-Lifelog-256/u3/2015-06-28/b00000857_21i79q_20150628_223204e.jpg'
p5661
sg4
(lp5662
(g551
g6
(g18
S'\x16\xb6\xfa>'
p5663
tp5664
Rp5665
tp5666
a(g15
g6
(g18
S'\x94\xc2\xb6>'
p5667
tp5668
Rp5669
tp5670
a(g378
g6
(g18
S'}\xf9A='
p5671
tp5672
Rp5673
tp5674
a(g68
g6
(g18
S'D\xea\x08='
p5675
tp5676
Rp5677
tp5678
a(g56
g6
(g18
S'\xf5\xb7\xda<'
p5679
tp5680
Rp5681
tp5682
asg73
g15
sa(dp5683
g2
S'../../../data/emanuela/activity-recognition/images/NTCIR-Lifelog-256/u2/2015-04-25/b00003616_21i7lf_20150425_192620e.jpg'
p5684
sg4
(lp5685
(g15
g6
(g18
S'\x89\x18z?'
p5686
tp5687
Rp5688
tp5689
a(g32
g6
(g18
S'\x8b\xfaj<'
p5690
tp5691
Rp5692
tp5693
a(g68
g6
(g18
S'\xfb\xb0\xaf;'
p5694
tp5695
Rp5696
tp5697
a(g44
g6
(g18
S'J\x17\xab:'
p5698
tp5699
Rp5700
tp5701
a(g84
g6
(g18
S'\x9b\x1b::'
p5702
tp5703
Rp5704
tp5705
asg73
g15
sa(dp5706
g2
S'../../../data/emanuela/activity-recognition/images/NTCIR-Lifelog-256/u2/2015-04-25/b00003253_21i7lf_20150425_153457e.jpg'
p5707
sg4
(lp5708
(g15
g6
(g18
S'\x05\xae|?'
p5709
tp5710
Rp5711
tp5712
a(g44
g6
(g18
S'\x95\r\xe8;'
p5713
tp5714
Rp5715
tp5716
a(g378
g6
(g18
S'\xb5\x0e\xd8:'
p5717
tp5718
Rp5719
tp5720
a(g68
g6
(g18
S'RW\xbd:'
p5721
tp5722
Rp5723
tp5724
a(g355
g6
(g18
S'.\xe8\x91:'
p5725
tp5726
Rp5727
tp5728
asg73
g15
sa(dp5729
g2
S'../../../data/emanuela/activity-recognition/images/NTCIR-Lifelog-256/u1/2015-02-23/b00000621_21i6bq_20150223_133431e.jpg'
p5730
sg4
(lp5731
(g15
g6
(g18
S'\xe1\xb0l?'
p5732
tp5733
Rp5734
tp5735
a(g212
g6
(g18
S'Q\x1c\xbb<'
p5736
tp5737
Rp5738
tp5739
a(g44
g6
(g18
S'2\x88e<'
p5740
tp5741
Rp5742
tp5743
a(g84
g6
(g18
S'\xdd\x83\x1b<'
p5744
tp5745
Rp5746
tp5747
a(g193
g6
(g18
S'N\xf3\x16<'
p5748
tp5749
Rp5750
tp5751
asg73
g15
sa(dp5752
g2
S'../../../data/emanuela/activity-recognition/images/NTCIR-Lifelog-256/u3/2015-07-18/b00000715_21i79q_20150718_181116e.jpg'
p5753
sg4
(lp5754
(g15
g6
(g18
S'_l|?'
p5755
tp5756
Rp5757
tp5758
a(g68
g6
(g18
S'4\x9eZ<'
p5759
tp5760
Rp5761
tp5762
a(g193
g6
(g18
S'\xe8|\x889'
p5763
tp5764
Rp5765
tp5766
a(g44
g6
(g18
S'1\x8fY9'
p5767
tp5768
Rp5769
tp5770
a(g32
g6
(g18
S'\xb2j\x828'
p5771
tp5772
Rp5773
tp5774
asg73
g15
sa(dp5775
g2
S'../../../data/emanuela/activity-recognition/images/NTCIR-Lifelog-256/u3/2015-07-13/b00002402_21i79q_20150713_144143e.jpg'
p5776
sg4
(lp5777
(g135
g6
(g18
S'a\xdd\x0b?'
p5778
tp5779
Rp5780
tp5781
a(g378
g6
(g18
S'\xa7\x96\x10>'
p5782
tp5783
Rp5784
tp5785
a(g15
g6
(g18
S'\xabK\xa3='
p5786
tp5787
Rp5788
tp5789
a(g474
g6
(g18
S'\x8b\x1f\x9c='
p5790
tp5791
Rp5792
tp5793
a(g32
g6
(g18
S'@\xa7B='
p5794
tp5795
Rp5796
tp5797
asg73
g15
sa(dp5798
g2
S'../../../data/emanuela/activity-recognition/images/NTCIR-Lifelog-256/u1/2015-03-06/b00000842_21i6bq_20150306_140849e.jpg'
p5799
sg4
(lp5800
(g15
g6
(g18
S'\xe5B\x82>'
p5801
tp5802
Rp5803
tp5804
a(g32
g6
(g18
S"'?5>"
p5805
tp5806
Rp5807
tp5808
a(g44
g6
(g18
S'\r\t\x0c>'
p5809
tp5810
Rp5811
tp5812
a(g355
g6
(g18
S'X\xe8\n>'
p5813
tp5814
Rp5815
tp5816
a(g135
g6
(g18
S'\xbb@\xe5='
p5817
tp5818
Rp5819
tp5820
asg73
g15
sa(dp5821
g2
S'../../../data/emanuela/activity-recognition/images/NTCIR-Lifelog-256/u3/2015-07-18/b00000688_21i79q_20150718_175500e.jpg'
p5822
sg4
(lp5823
(g15
g6
(g18
S',\xb7|?'
p5824
tp5825
Rp5826
tp5827
a(g212
g6
(g18
S'\x02\xf6\xd0;'
p5828
tp5829
Rp5830
tp5831
a(g44
g6
(g18
S'\xbbGK;'
p5832
tp5833
Rp5834
tp5835
a(g84
g6
(g18
S'\x9f\xc9\xba:'
p5836
tp5837
Rp5838
tp5839
a(g193
g6
(g18
S'\x1d\x93!:'
p5840
tp5841
Rp5842
tp5843
asg73
g15
sa(dp5844
g2
S'../../../data/emanuela/activity-recognition/images/NTCIR-Lifelog-256/u3/2015-06-20/b00001484_21i79q_20150620_031948e.jpg'
p5845
sg4
(lp5846
(g15
g6
(g18
S'\xeb\x12"?'
p5847
tp5848
Rp5849
tp5850
a(g32
g6
(g18
S'\xb5\r\x84>'
p5851
tp5852
Rp5853
tp5854
a(g68
g6
(g18
S'O\xf4\xf4<'
p5855
tp5856
Rp5857
tp5858
a(g474
g6
(g18
S'\xac\x95\xbd<'
p5859
tp5860
Rp5861
tp5862
a(g378
g6
(g18
S'\x04\xed\x84<'
p5863
tp5864
Rp5865
tp5866
asg73
g15
sa(dp5867
g2
S'../../../data/emanuela/activity-recognition/images/NTCIR-Lifelog-256/u1/2015-02-23/b00000497_21i6bq_20150223_121942e.jpg'
p5868
sg4
(lp5869
(g15
g6
(g18
S'\xc2\xd1w?'
p5870
tp5871
Rp5872
tp5873
a(g68
g6
(g18
S'\xbfB\xef;'
p5874
tp5875
Rp5876
tp5877
a(g44
g6
(g18
S'\rH\x96;'
p5878
tp5879
Rp5880
tp5881
a(g84
g6
(g18
S'\xb1\xee\x85;'
p5882
tp5883
Rp5884
tp5885
a(g212
g6
(g18
S'\xfa\x8c\x80;'
p5886
tp5887
Rp5888
tp5889
asg73
g15
sa(dp5890
g2
S'../../../data/emanuela/activity-recognition/images/NTCIR-Lifelog-256/u2/2015-04-25/b00003243_21i7lf_20150425_152857e.jpg'
p5891
sg4
(lp5892
(g84
g6
(g18
S'\xdf\x03\xa8>'
p5893
tp5894
Rp5895
tp5896
a(g212
g6
(g18
S'\xe5\xe6\x81>'
p5897
tp5898
Rp5899
tp5900
a(g15
g6
(g18
S'T\xd34>'
p5901
tp5902
Rp5903
tp5904
a(g68
g6
(g18
S'\x9bH\x12>'
p5905
tp5906
Rp5907
tp5908
a(g193
g6
(g18
S'3\xf2\xe3<'
p5909
tp5910
Rp5911
tp5912
asg73
g15
sa(dp5913
g2
S'../../../data/emanuela/activity-recognition/images/NTCIR-Lifelog-256/u1/2015-02-23/b00000610_21i6bq_20150223_132800e.jpg'
p5914
sg4
(lp5915
(g15
g6
(g18
S'eOp?'
p5916
tp5917
Rp5918
tp5919
a(g193
g6
(g18
S'\xef\x99\xa2<'
p5920
tp5921
Rp5922
tp5923
a(g212
g6
(g18
S'_\x8c\x9d<'
p5924
tp5925
Rp5926
tp5927
a(g56
g6
(g18
S'\xa70\x83;'
p5928
tp5929
Rp5930
tp5931
a(g68
g6
(g18
S'"\x1ex;'
p5932
tp5933
Rp5934
tp5935
asg73
g15
sa(dp5936
g2
S'../../../data/emanuela/activity-recognition/images/NTCIR-Lifelog-256/u2/2015-04-23/b00001100_21i7lf_20150423_125108e.jpg'
p5937
sg4
(lp5938
(g15
g6
(g18
S'\x7f(\x0e?'
p5939
tp5940
Rp5941
tp5942
a(g32
g6
(g18
S'Z{\xa8>'
p5943
tp5944
Rp5945
tp5946
a(g135
g6
(g18
S'\xf3\x99z='
p5947
tp5948
Rp5949
tp5950
a(g44
g6
(g18
S'\x05\xc7K='
p5951
tp5952
Rp5953
tp5954
a(g84
g6
(g18
S'\x10<\x8a:'
p5955
tp5956
Rp5957
tp5958
asg73
g15
sa(dp5959
g2
S'../../../data/emanuela/activity-recognition/images/NTCIR-Lifelog-256/u3/2015-07-18/b00000744_21i79q_20150718_182841e.jpg'
p5960
sg4
(lp5961
(g15
g6
(g18
S'\x02\x9es?'
p5962
tp5963
Rp5964
tp5965
a(g32
g6
(g18
S"\xd3'2="
p5966
tp5967
Rp5968
tp5969
a(g44
g6
(g18
S'Ll\xee:'
p5970
tp5971
Rp5972
tp5973
a(g135
g6
(g18
S'lg\xae:'
p5974
tp5975
Rp5976
tp5977
a(g108
g6
(g18
S'8\xc6h:'
p5978
tp5979
Rp5980
tp5981
asg73
g15
sa(dp5982
g2
S'../../../data/emanuela/activity-recognition/images/NTCIR-Lifelog-256/u2/2015-04-25/b00003254_21i7lf_20150425_153532e.jpg'
p5983
sg4
(lp5984
(g355
g6
(g18
S'\x87\xbf\xc7>'
p5985
tp5986
Rp5987
tp5988
a(g15
g6
(g18
S'L_y>'
p5989
tp5990
Rp5991
tp5992
a(g474
g6
(g18
S'\x122*>'
p5993
tp5994
Rp5995
tp5996
a(g32
g6
(g18
S'\xefH\xe5='
p5997
tp5998
Rp5999
tp6000
a(g68
g6
(g18
S'\xbd\xc8K='
p6001
tp6002
Rp6003
tp6004
asg73
g15
sa(dp6005
g2
S'../../../data/emanuela/activity-recognition/images/NTCIR-Lifelog-256/u3/2015-06-20/b00001377_21i79q_20150620_021052e.jpg'
p6006
sg4
(lp6007
(g15
g6
(g18
S'\xf9\x94\xfb>'
p6008
tp6009
Rp6010
tp6011
a(g44
g6
(g18
S'\xd5z\x87>'
p6012
tp6013
Rp6014
tp6015
a(g32
g6
(g18
S's\x0e\x03>'
p6016
tp6017
Rp6018
tp6019
a(g84
g6
(g18
S'\x81\x14\x7f='
p6020
tp6021
Rp6022
tp6023
a(g108
g6
(g18
S'y\xf9\xca<'
p6024
tp6025
Rp6026
tp6027
asg73
g15
sa(dp6028
g2
S'../../../data/emanuela/activity-recognition/images/NTCIR-Lifelog-256/u3/2015-07-13/b00002396_21i79q_20150713_143804e.jpg'
p6029
sg4
(lp6030
(g135
g6
(g18
S'\xb6`.?'
p6031
tp6032
Rp6033
tp6034
a(g44
g6
(g18
S'\xdb\xae">'
p6035
tp6036
Rp6037
tp6038
a(g15
g6
(g18
S'\x0bS\x81='
p6039
tp6040
Rp6041
tp6042
a(g32
g6
(g18
S'?N\x81='
p6043
tp6044
Rp6045
tp6046
a(g378
g6
(g18
S'\xb0{Z<'
p6047
tp6048
Rp6049
tp6050
asg73
g15
sa(dp6051
g2
S'../../../data/emanuela/activity-recognition/images/NTCIR-Lifelog-256/u3/2015-07-18/b00000855_21i79q_20150718_193045e.jpg'
p6052
sg4
(lp6053
(g15
g6
(g18
S'R\x18t?'
p6054
tp6055
Rp6056
tp6057
a(g44
g6
(g18
S'\x0cD\x86<'
p6058
tp6059
Rp6060
tp6061
a(g68
g6
(g18
S'3\xbe\x82<'
p6062
tp6063
Rp6064
tp6065
a(g32
g6
(g18
S'\xe2C\x0c<'
p6066
tp6067
Rp6068
tp6069
a(g193
g6
(g18
S'\xb4K\xfd:'
p6070
tp6071
Rp6072
tp6073
asg73
g15
sa(dp6074
g2
S'../../../data/emanuela/activity-recognition/images/NTCIR-Lifelog-256/u3/2015-06-28/b00000821_21i79q_20150628_221052e.jpg'
p6075
sg4
(lp6076
(g15
g6
(g18
S'\x99Dq?'
p6077
tp6078
Rp6079
tp6080
a(g32
g6
(g18
S'\xe7\xd9]='
p6081
tp6082
Rp6083
tp6084
a(g68
g6
(g18
S'9\xecU:'
p6085
tp6086
Rp6087
tp6088
a(g84
g6
(g18
S'.^S:'
p6089
tp6090
Rp6091
tp6092
a(g44
g6
(g18
S'\x88\x821:'
p6093
tp6094
Rp6095
tp6096
asg73
g15
sa(dp6097
g2
S'../../../data/emanuela/activity-recognition/images/NTCIR-Lifelog-256/u3/2015-07-18/b00000761_21i79q_20150718_183853e.jpg'
p6098
sg4
(lp6099
(g193
g6
(g18
S'b\xd5_?'
p6100
tp6101
Rp6102
tp6103
a(g15
g6
(g18
S'\xa4\x1d\x9f='
p6104
tp6105
Rp6106
tp6107
a(g32
g6
(g18
S'\x11\x0f2<'
p6108
tp6109
Rp6110
tp6111
a(g56
g6
(g18
S'\xf0c)<'
p6112
tp6113
Rp6114
tp6115
a(g1821
g6
(g18
S'Ts\x00<'
p6116
tp6117
Rp6118
tp6119
asg73
g15
sa(dp6120
g2
S'../../../data/emanuela/activity-recognition/images/NTCIR-Lifelog-256/u2/2015-04-23/b00001071_21i7lf_20150423_123323e.jpg'
p6121
sg4
(lp6122
(g15
g6
(g18
S'C\x14y?'
p6123
tp6124
Rp6125
tp6126
a(g84
g6
(g18
S'\xed\x84\x03<'
p6127
tp6128
Rp6129
tp6130
a(g193
g6
(g18
S'd \xa9;'
p6131
tp6132
Rp6133
tp6134
a(g44
g6
(g18
S'\xcdR\xa8;'
p6135
tp6136
Rp6137
tp6138
a(g68
g6
(g18
S'\n=\x86;'
p6139
tp6140
Rp6141
tp6142
asg73
g15
sa(dp6143
g2
S'../../../data/emanuela/activity-recognition/images/NTCIR-Lifelog-256/u3/2015-07-30/b00004861_21i79q_20150730_111018e.jpg'
p6144
sg4
(lp6145
(g68
g6
(g18
S'\x83cL?'
p6146
tp6147
Rp6148
tp6149
a(g551
g6
(g18
S']uH='
p6150
tp6151
Rp6152
tp6153
a(g15
g6
(g18
S'u"!='
p6154
tp6155
Rp6156
tp6157
a(g135
g6
(g18
S'\xc7/\xc6<'
p6158
tp6159
Rp6160
tp6161
a(g84
g6
(g18
S'\x96l\x93<'
p6162
tp6163
Rp6164
tp6165
asg73
g15
sa(dp6166
g2
S'../../../data/emanuela/activity-recognition/images/NTCIR-Lifelog-256/u1/2015-02-23/b00000636_21i6bq_20150223_134318e.jpg'
p6167
sg4
(lp6168
(g15
g6
(g18
S'\x10\xb7j?'
p6169
tp6170
Rp6171
tp6172
a(g193
g6
(g18
S'\xfe\xc9\x0f='
p6173
tp6174
Rp6175
tp6176
a(g68
g6
(g18
S'\x1d\xea4<'
p6177
tp6178
Rp6179
tp6180
a(g84
g6
(g18
S'\x01W\x1e<'
p6181
tp6182
Rp6183
tp6184
a(g212
g6
(g18
S'\xbdU\x03<'
p6185
tp6186
Rp6187
tp6188
asg73
g15
sa(dp6189
g2
S'../../../data/emanuela/activity-recognition/images/NTCIR-Lifelog-256/u3/2015-07-18/b00000770_21i79q_20150718_184051e.jpg'
p6190
sg4
(lp6191
(g15
g6
(g18
S'2Xu?'
p6192
tp6193
Rp6194
tp6195
a(g32
g6
(g18
S'\x05m\xa4<'
p6196
tp6197
Rp6198
tp6199
a(g44
g6
(g18
S'=\xcd|<'
p6200
tp6201
Rp6202
tp6203
a(g135
g6
(g18
S'\x876\x8c;'
p6204
tp6205
Rp6206
tp6207
a(g193
g6
(g18
S'^\xcc\xf69'
p6208
tp6209
Rp6210
tp6211
asg73
g15
sa(dp6212
g2
S'../../../data/emanuela/activity-recognition/images/NTCIR-Lifelog-256/u3/2015-07-18/b00000398_21i79q_20150718_151621e.jpg'
p6213
sg4
(lp6214
(g15
g6
(g18
S'X\xe3_?'
p6215
tp6216
Rp6217
tp6218
a(g68
g6
(g18
S'\xce\xf9\xa4='
p6219
tp6220
Rp6221
tp6222
a(g32
g6
(g18
S'\\\xa0\x8f<'
p6223
tp6224
Rp6225
tp6226
a(g56
g6
(g18
S'A\xe3\xc6;'
p6227
tp6228
Rp6229
tp6230
a(g355
g6
(g18
S'\x1b|\x98;'
p6231
tp6232
Rp6233
tp6234
asg73
g15
sa(dp6235
g2
S'../../../data/emanuela/activity-recognition/images/NTCIR-Lifelog-256/u2/2015-04-25/b00003659_21i7lf_20150425_195310e.jpg'
p6236
sg4
(lp6237
(g15
g6
(g18
S'\x13R`?'
p6238
tp6239
Rp6240
tp6241
a(g68
g6
(g18
S'\xca\x12\xc4='
p6242
tp6243
Rp6244
tp6245
a(g84
g6
(g18
S'\x93-\xeb;'
p6246
tp6247
Rp6248
tp6249
a(g44
g6
(g18
S'3\xcd\xd8;'
p6250
tp6251
Rp6252
tp6253
a(g32
g6
(g18
S'\x8c\xd6\x8c;'
p6254
tp6255
Rp6256
tp6257
asg73
g15
sa(dp6258
g2
S'../../../data/emanuela/activity-recognition/images/NTCIR-Lifelog-256/u3/2015-07-18/b00000812_21i79q_20150718_190435e.jpg'
p6259
sg4
(lp6260
(g15
g6
(g18
S'\x0c\xb35?'
p6261
tp6262
Rp6263
tp6264
a(g193
g6
(g18
S'nK\x82>'
p6265
tp6266
Rp6267
tp6268
a(g68
g6
(g18
S'\xcds"<'
p6269
tp6270
Rp6271
tp6272
a(g56
g6
(g18
S'\xc4-\x1a<'
p6273
tp6274
Rp6275
tp6276
a(g44
g6
(g18
S'9\xe8\xad;'
p6277
tp6278
Rp6279
tp6280
asg73
g15
sa(dp6281
g2
S'../../../data/emanuela/activity-recognition/images/NTCIR-Lifelog-256/u3/2015-06-28/b00000130_21i79q_20150628_154514e.jpg'
p6282
sg4
(lp6283
(g15
g6
(g18
S'\x183h?'
p6284
tp6285
Rp6286
tp6287
a(g44
g6
(g18
S'f\xb3\xb5='
p6288
tp6289
Rp6290
tp6291
a(g68
g6
(g18
S'\xd9\x99\x0f;'
p6292
tp6293
Rp6294
tp6295
a(g32
g6
(g18
S'\x8c\x93\xc4:'
p6296
tp6297
Rp6298
tp6299
a(g135
g6
(g18
S'\xa3\x0cY9'
p6300
tp6301
Rp6302
tp6303
asg73
g15
sa(dp6304
g2
S'../../../data/emanuela/activity-recognition/images/NTCIR-Lifelog-256/u2/2015-04-25/b00003778_21i7lf_20150425_211211e.jpg'
p6305
sg4
(lp6306
(g15
g6
(g18
S"mk'?"
p6307
tp6308
Rp6309
tp6310
a(g44
g6
(g18
S'\x1a\xe0L>'
p6311
tp6312
Rp6313
tp6314
a(g68
g6
(g18
S'\xff\xf4A='
p6315
tp6316
Rp6317
tp6318
a(g32
g6
(g18
S'\xac0\xbb<'
p6319
tp6320
Rp6321
tp6322
a(g355
g6
(g18
S'\xe5\x9b\xba<'
p6323
tp6324
Rp6325
tp6326
asg73
g15
sa(dp6327
g2
S'../../../data/emanuela/activity-recognition/images/NTCIR-Lifelog-256/u3/2015-07-25/b00001603_21i79q_20150725_192713e.jpg'
p6328
sg4
(lp6329
(g84
g6
(g18
S'*\x16\xec>'
p6330
tp6331
Rp6332
tp6333
a(g474
g6
(g18
S't\xb1\x83>'
p6334
tp6335
Rp6336
tp6337
a(g15
g6
(g18
S'\x1bO\x9c='
p6338
tp6339
Rp6340
tp6341
a(g6
(g7
(S'S5'
p6342
I0
I1
tp6343
Rp6344
(I3
S'|'
p6345
NNNI5
I1
I0
tp6346
bS'plane'
p6347
tp6348
Rp6349
g6
(g18
S'HI\x8e='
p6350
tp6351
Rp6352
tp6353
a(g193
g6
(g18
S'\x8b\x81Z='
p6354
tp6355
Rp6356
tp6357
asg73
g15
sa(dp6358
g2
S'../../../data/emanuela/activity-recognition/images/NTCIR-Lifelog-256/u3/2015-07-18/b00000780_21i79q_20150718_184509e.jpg'
p6359
sg4
(lp6360
(g15
g6
(g18
S'Sr\x17?'
p6361
tp6362
Rp6363
tp6364
a(g193
g6
(g18
S'\x17\xc4\xc7>'
p6365
tp6366
Rp6367
tp6368
a(g68
g6
(g18
S'\xca*\xa9;'
p6369
tp6370
Rp6371
tp6372
a(g56
g6
(g18
S'\x11\x9e\x9a;'
p6373
tp6374
Rp6375
tp6376
a(g84
g6
(g18
S'\xa5\xf9:;'
p6377
tp6378
Rp6379
tp6380
asg73
g15
sa.