(lp0
(dp1
S'image'
p2
S'../../../data/emanuela/activity-recognition/images/NTCIR-Lifelog-256/u2/2015-04-29/b00000374_21i7lf_20150429_111923e.jpg'
p3
sS'result'
p4
(lp5
(cnumpy.core.multiarray
scalar
p6
(cnumpy
dtype
p7
(S'S19'
p8
I0
I1
tp9
Rp10
(I3
S'|'
p11
NNNI19
I1
I0
tp12
bS'attending a seminar'
p13
tp14
Rp15
g6
(g7
(S'f4'
p16
I0
I1
tp17
Rp18
(I3
S'<'
p19
NNNI-1
I-1
I0
tp20
bS'\xbcM~?'
p21
tp22
Rp23
tp24
a(g6
(g7
(S'S11'
p25
I0
I1
tp26
Rp27
(I3
S'|'
p28
NNNI11
I1
I0
tp29
bS'socializing'
p30
tp31
Rp32
g6
(g18
S'\xca8\xe0:'
p33
tp34
Rp35
tp36
a(g6
(g7
(S'S14'
p37
I0
I1
tp38
Rp39
(I3
S'|'
p40
NNNI14
I1
I0
tp41
bS'walking indoor'
p42
tp43
Rp44
g6
(g18
S'*\x00\xdf:'
p45
tp46
Rp47
tp48
a(g6
(g7
(S'S25'
p49
I0
I1
tp50
Rp51
(I3
S'|'
p52
NNNI25
I1
I0
tp53
bS'having meal with somebody'
p54
tp55
Rp56
g6
(g18
S'\xd0n\x89:'
p57
tp58
Rp59
tp60
a(g6
(g7
(S'S7'
p61
I0
I1
tp62
Rp63
(I3
S'|'
p64
NNNI7
I1
I0
tp65
bS'talking'
p66
tp67
Rp68
g6
(g18
S'Ez::'
p69
tp70
Rp71
tp72
asS'label'
p73
g15
sa(dp74
g2
S'../../../data/emanuela/activity-recognition/images/NTCIR-Lifelog-256/u2/2015-04-29/b00000382_21i7lf_20150429_112419e.jpg'
p75
sg4
(lp76
(g15
g6
(g18
S'\xb0^\x7f?'
p77
tp78
Rp79
tp80
a(g32
g6
(g18
S'/\xb6J:'
p81
tp82
Rp83
tp84
a(g44
g6
(g18
S'\xd1\x188:'
p85
tp86
Rp87
tp88
a(g68
g6
(g18
S'\x80\x9f\x969'
p89
tp90
Rp91
tp92
a(g56
g6
(g18
S'y\x92\x8c9'
p93
tp94
Rp95
tp96
asg73
g15
sa(dp97
g2
S'../../../data/emanuela/activity-recognition/images/NTCIR-Lifelog-256/u1/2015-02-25/b00000453_21i6bq_20150225_104110e.jpg'
p98
sg4
(lp99
(g15
g6
(g18
S'\xf4E~?'
p100
tp101
Rp102
tp103
a(g68
g6
(g18
S'\xa3\xe7.;'
p104
tp105
Rp106
tp107
a(g32
g6
(g18
S'\x83\xa8\x82:'
p108
tp109
Rp110
tp111
a(g6
(g7
(S'S7'
p112
I0
I1
tp113
Rp114
(I3
S'|'
p115
NNNI7
I1
I0
tp116
bS'meeting'
p117
tp118
Rp119
g6
(g18
S'\x01\x1eA:'
p120
tp121
Rp122
tp123
a(g44
g6
(g18
S'5Q\x1f:'
p124
tp125
Rp126
tp127
asg73
g15
sa(dp128
g2
S'../../../data/emanuela/activity-recognition/images/NTCIR-Lifelog-256/u2/2015-04-23/b00001183_21i7lf_20150423_135410e.jpg'
p129
sg4
(lp130
(g15
g6
(g18
S'\x086y?'
p131
tp132
Rp133
tp134
a(g32
g6
(g18
S'\xd9\x01=<'
p135
tp136
Rp137
tp138
a(g6
(g7
(S'S6'
p139
I0
I1
tp140
Rp141
(I3
S'|'
p142
NNNI6
I1
I0
tp143
bS'mobile'
p144
tp145
Rp146
g6
(g18
S'\xf7\xfcy;'
p147
tp148
Rp149
tp150
a(g44
g6
(g18
S'k\xcd(;'
p151
tp152
Rp153
tp154
a(g6
(g7
(S'S8'
p155
I0
I1
tp156
Rp157
(I3
S'|'
p158
NNNI8
I1
I0
tp159
bS'shopping'
p160
tp161
Rp162
g6
(g18
S'\x03\t\xc3:'
p163
tp164
Rp165
tp166
asg73
g15
sa(dp167
g2
S'../../../data/emanuela/activity-recognition/images/NTCIR-Lifelog-256/u1/2015-03-04/b00001057_21i6bq_20150304_180155e.jpg'
p168
sg4
(lp169
(g15
g6
(g18
S'-\xe2a?'
p170
tp171
Rp172
tp173
a(g6
(g7
(S'S7'
p174
I0
I1
tp175
Rp176
(I3
S'|'
p177
NNNI7
I1
I0
tp178
bS'working'
p179
tp180
Rp181
g6
(g18
S'\xc4\x8c\xdb='
p182
tp183
Rp184
tp185
a(g119
g6
(g18
S'\xce\xa2\xd9;'
p186
tp187
Rp188
tp189
a(g6
(g7
(S'S7'
p190
I0
I1
tp191
Rp192
(I3
S'|'
p193
NNNI7
I1
I0
tp194
bS'reading'
p195
tp196
Rp197
g6
(g18
S'\xd7\xe1\xf5:'
p198
tp199
Rp200
tp201
a(g146
g6
(g18
S'RiX:'
p202
tp203
Rp204
tp205
asg73
g15
sa(dp206
g2
S'../../../data/emanuela/activity-recognition/images/NTCIR-Lifelog-256/u1/2015-03-17/b00000435_21i6bq_20150317_124859e.jpg'
p207
sg4
(lp208
(g15
g6
(g18
S'\xe4\x11|?'
p209
tp210
Rp211
tp212
a(g162
g6
(g18
S'U\x00\x9f;'
p213
tp214
Rp215
tp216
a(g44
g6
(g18
S'\x17]h;'
p217
tp218
Rp219
tp220
a(g6
(g7
(S'S24'
p221
I0
I1
tp222
Rp223
(I3
S'|'
p224
NNNI24
I1
I0
tp225
bS'having drinks/meal alone'
p226
tp227
Rp228
g6
(g18
S'\xc4O\x05;'
p229
tp230
Rp231
tp232
a(g32
g6
(g18
S'\xf8z\xee:'
p233
tp234
Rp235
tp236
asg73
g15
sa(dp237
g2
S'../../../data/emanuela/activity-recognition/images/NTCIR-Lifelog-256/u1/2015-02-25/b00000458_21i6bq_20150225_104419e.jpg'
p238
sg4
(lp239
(g15
g6
(g18
S'\x0e/~?'
p240
tp241
Rp242
tp243
a(g119
g6
(g18
S'.\xf2;;'
p244
tp245
Rp246
tp247
a(g181
g6
(g18
S'U\x9c\x19;'
p248
tp249
Rp250
tp251
a(g68
g6
(g18
S'|\xb1z:'
p252
tp253
Rp254
tp255
a(g44
g6
(g18
S'1\x9fX9'
p256
tp257
Rp258
tp259
asg73
g15
sa(dp260
g2
S'../../../data/emanuela/activity-recognition/images/NTCIR-Lifelog-256/u1/2015-03-04/b00001103_21i6bq_20150304_182748e.jpg'
p261
sg4
(lp262
(g15
g6
(g18
S'\xd0\x06{?'
p263
tp264
Rp265
tp266
a(g181
g6
(g18
S'\xb9z\xfe;'
p267
tp268
Rp269
tp270
a(g197
g6
(g18
S'>\x00);'
p271
tp272
Rp273
tp274
a(g119
g6
(g18
S'\x91\xa5 ;'
p275
tp276
Rp277
tp278
a(g32
g6
(g18
S'q\xf5\x1c;'
p279
tp280
Rp281
tp282
asg73
g15
sa(dp283
g2
S'../../../data/emanuela/activity-recognition/images/NTCIR-Lifelog-256/u1/2015-02-25/b00000439_21i6bq_20150225_103259e.jpg'
p284
sg4
(lp285
(g15
g6
(g18
S'yi|?'
p286
tp287
Rp288
tp289
a(g32
g6
(g18
S'\xfc\xe3\xeb;'
p290
tp291
Rp292
tp293
a(g68
g6
(g18
S'\x19\xbeU;'
p294
tp295
Rp296
tp297
a(g44
g6
(g18
S'%\xef\xb5:'
p298
tp299
Rp300
tp301
a(g119
g6
(g18
S'D\xaa\xb0:'
p302
tp303
Rp304
tp305
asg73
g15
sa(dp306
g2
S'../../../data/emanuela/activity-recognition/images/NTCIR-Lifelog-256/u2/2015-04-29/b00000361_21i7lf_20150429_111132e.jpg'
p307
sg4
(lp308
(g15
g6
(g18
S'k\xa7\x7f?'
p309
tp310
Rp311
tp312
a(g32
g6
(g18
S'\xb0\xc6|:'
p313
tp314
Rp315
tp316
a(g44
g6
(g18
S'\xd4\x9fn9'
p317
tp318
Rp319
tp320
a(g68
g6
(g18
S'\xd3\xea)8'
p321
tp322
Rp323
tp324
a(g56
g6
(g18
S'\xbcI\r8'
p325
tp326
Rp327
tp328
asg73
g15
sa(dp329
g2
S'../../../data/emanuela/activity-recognition/images/NTCIR-Lifelog-256/u1/2015-03-12/b00000814_21i6bq_20150312_161536e.jpg'
p330
sg4
(lp331
(g15
g6
(g18
S'\xd4M}?'
p332
tp333
Rp334
tp335
a(g44
g6
(g18
S'\xe7D\x80;'
p336
tp337
Rp338
tp339
a(g119
g6
(g18
S'\xa4\xdd9;'
p340
tp341
Rp342
tp343
a(g32
g6
(g18
S'\x85\x83\x95:'
p344
tp345
Rp346
tp347
a(g68
g6
(g18
S'(\xf0\x8f:'
p348
tp349
Rp350
tp351
asg73
g15
sa(dp352
g2
S'../../../data/emanuela/activity-recognition/images/NTCIR-Lifelog-256/u1/2015-03-04/b00000437_21i6bq_20150304_111618e.jpg'
p353
sg4
(lp354
(g15
g6
(g18
S'\x1a\xa6~?'
p355
tp356
Rp357
tp358
a(g44
g6
(g18
S'\x10HS;'
p359
tp360
Rp361
tp362
a(g162
g6
(g18
S'\xda\x7fJ:'
p363
tp364
Rp365
tp366
a(g228
g6
(g18
S'z\x92\xb69'
p367
tp368
Rp369
tp370
a(g197
g6
(g18
S'=I\x959'
p371
tp372
Rp373
tp374
asg73
g15
sa(dp375
g2
S'../../../data/emanuela/activity-recognition/images/NTCIR-Lifelog-256/u1/2015-03-17/b00000688_21i6bq_20150317_151609e.jpg'
p376
sg4
(lp377
(g32
g6
(g18
S'd\xc8\x9d>'
p378
tp379
Rp380
tp381
a(g44
g6
(g18
S'E\xfdI>'
p382
tp383
Rp384
tp385
a(g15
g6
(g18
S'\xcawF>'
p386
tp387
Rp388
tp389
a(g6
(g7
(S'S27'
p390
I0
I1
tp391
Rp392
(I3
S'|'
p393
NNNI27
I1
I0
tp394
bS'having drinks with somebody'
p395
tp396
Rp397
g6
(g18
S'\xd2\xf7\xdf='
p398
tp399
Rp400
tp401
a(g56
g6
(g18
S'F\xe7c='
p402
tp403
Rp404
tp405
asg73
g15
sa(dp406
g2
S'../../../data/emanuela/activity-recognition/images/NTCIR-Lifelog-256/u1/2015-03-04/b00001166_21i6bq_20150304_191105e.jpg'
p407
sg4
(lp408
(g15
g6
(g18
S'\xee\xac\t?'
p409
tp410
Rp411
tp412
a(g32
g6
(g18
S'\xdc\n\xcd>'
p413
tp414
Rp415
tp416
a(g397
g6
(g18
S'-\x9f\x01='
p417
tp418
Rp419
tp420
a(g56
g6
(g18
S':\xe5\x98<'
p421
tp422
Rp423
tp424
a(g44
g6
(g18
S'\xe8{\x99;'
p425
tp426
Rp427
tp428
asg73
g15
sa(dp429
g2
S'../../../data/emanuela/activity-recognition/images/NTCIR-Lifelog-256/u2/2015-04-29/b00000394_21i7lf_20150429_113147e.jpg'
p430
sg4
(lp431
(g15
g6
(g18
S'\xbb\xa6\x7f?'
p432
tp433
Rp434
tp435
a(g32
g6
(g18
S'\xa2xv:'
p436
tp437
Rp438
tp439
a(g44
g6
(g18
S'2\x0f\x999'
p440
tp441
Rp442
tp443
a(g68
g6
(g18
S'y*\x148'
p444
tp445
Rp446
tp447
a(g56
g6
(g18
S'\xe9\xcc\xcc7'
p448
tp449
Rp450
tp451
asg73
g15
sa(dp452
g2
S'../../../data/emanuela/activity-recognition/images/NTCIR-Lifelog-256/u2/2015-04-21/b00000244_21i7lf_20150421_122139e.jpg'
p453
sg4
(lp454
(g119
g6
(g18
S'\x00\xcf\x1d?'
p455
tp456
Rp457
tp458
a(g15
g6
(g18
S'\xee0\x99>'
p459
tp460
Rp461
tp462
a(g197
g6
(g18
S'\xe1O\xb2<'
p463
tp464
Rp465
tp466
a(g68
g6
(g18
S']\xc0\x86<'
p467
tp468
Rp469
tp470
a(g181
g6
(g18
S'd\xf6E<'
p471
tp472
Rp473
tp474
asg73
g15
sa(dp475
g2
S'../../../data/emanuela/activity-recognition/images/NTCIR-Lifelog-256/u1/2015-03-04/b00001053_21i6bq_20150304_175915e.jpg'
p476
sg4
(lp477
(g15
g6
(g18
S'lJ\x08?'
p478
tp479
Rp480
tp481
a(g32
g6
(g18
S'Utr>'
p482
tp483
Rp484
tp485
a(g44
g6
(g18
S'^\xa1\x11>'
p486
tp487
Rp488
tp489
a(g56
g6
(g18
S'Ys\xfb<'
p490
tp491
Rp492
tp493
a(g397
g6
(g18
S'\xbaO\xe9<'
p494
tp495
Rp496
tp497
asg73
g15
sa(dp498
g2
S'../../../data/emanuela/activity-recognition/images/NTCIR-Lifelog-256/u2/2015-05-07/b00007415_21i7lf_20150507_094055e.jpg'
p499
sg4
(lp500
(g15
g6
(g18
S'"\xebz?'
p501
tp502
Rp503
tp504
a(g32
g6
(g18
S'fl\x90<'
p505
tp506
Rp507
tp508
a(g44
g6
(g18
S'&x\x98:'
p509
tp510
Rp511
tp512
a(g68
g6
(g18
S'\x172\xb99'
p513
tp514
Rp515
tp516
a(g56
g6
(g18
S'}\x8e\x989'
p517
tp518
Rp519
tp520
asg73
g15
sa(dp521
g2
S'../../../data/emanuela/activity-recognition/images/NTCIR-Lifelog-256/u2/2015-05-07/b00007494_21i7lf_20150507_103417e.jpg'
p522
sg4
(lp523
(g15
g6
(g18
S']\x02~?'
p524
tp525
Rp526
tp527
a(g32
g6
(g18
S'\xcf}\xac;'
p528
tp529
Rp530
tp531
a(g56
g6
(g18
S'\xfb\x02\xa5:'
p532
tp533
Rp534
tp535
a(g44
g6
(g18
S'\xb1\xc99:'
p536
tp537
Rp538
tp539
a(g68
g6
(g18
S'\xcdh?9'
p540
tp541
Rp542
tp543
asg73
g15
sa(dp544
g2
S'../../../data/emanuela/activity-recognition/images/NTCIR-Lifelog-256/u2/2015-04-23/b00001598_21i7lf_20150423_185313e.jpg'
p545
sg4
(lp546
(g15
g6
(g18
S'#~z?'
p547
tp548
Rp549
tp550
a(g32
g6
(g18
S'\x94vo<'
p551
tp552
Rp553
tp554
a(g44
g6
(g18
S'\xb7\xb4G;'
p555
tp556
Rp557
tp558
a(g68
g6
(g18
S'\x08\r\xa4:'
p559
tp560
Rp561
tp562
a(g6
(g7
(S'S2'
p563
I0
I1
tp564
Rp565
(I3
S'|'
p566
NNNI2
I1
I0
tp567
bS'tv'
p568
tp569
Rp570
g6
(g18
S'\x0e\xe0@:'
p571
tp572
Rp573
tp574
asg73
g15
sa(dp575
g2
S'../../../data/emanuela/activity-recognition/images/NTCIR-Lifelog-256/u2/2015-04-23/b00001157_21i7lf_20150423_132834e.jpg'
p576
sg4
(lp577
(g15
g6
(g18
S'\x03}w?'
p578
tp579
Rp580
tp581
a(g146
g6
(g18
S'\xbaF\xe7;'
p582
tp583
Rp584
tp585
a(g32
g6
(g18
S'\xd1\x9e\xbb;'
p586
tp587
Rp588
tp589
a(g44
g6
(g18
S'p9\x9d;'
p590
tp591
Rp592
tp593
a(g68
g6
(g18
S')\x00U;'
p594
tp595
Rp596
tp597
asg73
g15
sa(dp598
g2
S'../../../data/emanuela/activity-recognition/images/NTCIR-Lifelog-256/u2/2015-04-29/b00000379_21i7lf_20150429_112233e.jpg'
p599
sg4
(lp600
(g15
g6
(g18
S'e\x11\x7f?'
p601
tp602
Rp603
tp604
a(g32
g6
(g18
S'\x96\xe2\xb5:'
p605
tp606
Rp607
tp608
a(g44
g6
(g18
S'\x8fIY:'
p609
tp610
Rp611
tp612
a(g56
g6
(g18
S'\xa8\xa1\x14:'
p613
tp614
Rp615
tp616
a(g68
g6
(g18
S'\xdb\xc8\\9'
p617
tp618
Rp619
tp620
asg73
g15
sa(dp621
g2
S'../../../data/emanuela/activity-recognition/images/NTCIR-Lifelog-256/u2/2015-05-07/b00007430_21i7lf_20150507_095220e.jpg'
p622
sg4
(lp623
(g56
g6
(g18
S'Vt\xb0>'
p624
tp625
Rp626
tp627
a(g32
g6
(g18
S'\x1a\xdeQ>'
p628
tp629
Rp630
tp631
a(g228
g6
(g18
S'|\x88\x1e>'
p632
tp633
Rp634
tp635
a(g15
g6
(g18
S':\x1c\x05>'
p636
tp637
Rp638
tp639
a(g397
g6
(g18
S'O\x15\xd0='
p640
tp641
Rp642
tp643
asg73
g15
sa(dp644
g2
S'../../../data/emanuela/activity-recognition/images/NTCIR-Lifelog-256/u1/2015-03-17/b00000780_21i6bq_20150317_155214e.jpg'
p645
sg4
(lp646
(g15
g6
(g18
S'\x98\xc3\x7f?'
p647
tp648
Rp649
tp650
a(g32
g6
(g18
S'\xcc;\xf29'
p651
tp652
Rp653
tp654
a(g44
g6
(g18
S'\x88\x00\x109'
p655
tp656
Rp657
tp658
a(g570
g6
(g18
S'\x80\xd4\xec8'
p659
tp660
Rp661
tp662
a(g228
g6
(g18
S'\xf2\x0b\xbb8'
p663
tp664
Rp665
tp666
asg73
g15
sa(dp667
g2
S'../../../data/emanuela/activity-recognition/images/NTCIR-Lifelog-256/u2/2015-04-29/b00000411_21i7lf_20150429_114228e.jpg'
p668
sg4
(lp669
(g15
g6
(g18
S'\xe3Q\x7f?'
p670
tp671
Rp672
tp673
a(g32
g6
(g18
S'\x186\xaf:'
p674
tp675
Rp676
tp677
a(g44
g6
(g18
S'p\xa5\xc09'
p678
tp679
Rp680
tp681
a(g56
g6
(g18
S'\xda\xbc\xbe9'
p682
tp683
Rp684
tp685
a(g119
g6
(g18
S'A\xf5k9'
p686
tp687
Rp688
tp689
asg73
g15
sa(dp690
g2
S'../../../data/emanuela/activity-recognition/images/NTCIR-Lifelog-256/u1/2015-03-17/b00000721_21i6bq_20150317_152120e.jpg'
p691
sg4
(lp692
(g15
g6
(g18
S'\x04\xf7\x7f?'
p693
tp694
Rp695
tp696
a(g44
g6
(g18
S'\xa5!`8'
p697
tp698
Rp699
tp700
a(g228
g6
(g18
S'!d\xfa7'
p701
tp702
Rp703
tp704
a(g32
g6
(g18
S'\xd9\x1d\xcd7'
p705
tp706
Rp707
tp708
a(g397
g6
(g18
S'\x03\xcd97'
p709
tp710
Rp711
tp712
asg73
g15
sa(dp713
g2
S'../../../data/emanuela/activity-recognition/images/NTCIR-Lifelog-256/u2/2015-04-23/b00001577_21i7lf_20150423_183300e.jpg'
p714
sg4
(lp715
(g15
g6
(g18
S'\xc6\x8bv?'
p716
tp717
Rp718
tp719
a(g44
g6
(g18
S'x\x89)<'
p720
tp721
Rp722
tp723
a(g119
g6
(g18
S'\xc1X\x04<'
p724
tp725
Rp726
tp727
a(g32
g6
(g18
S'\x96\xff\x01<'
p728
tp729
Rp730
tp731
a(g68
g6
(g18
S'\xe9En;'
p732
tp733
Rp734
tp735
asg73
g15
sa(dp736
g2
S'../../../data/emanuela/activity-recognition/images/NTCIR-Lifelog-256/u2/2015-04-21/b00000240_21i7lf_20150421_121914e.jpg'
p737
sg4
(lp738
(g15
g6
(g18
S'\x92\xfch?'
p739
tp740
Rp741
tp742
a(g197
g6
(g18
S'\xed\xe8\xad='
p743
tp744
Rp745
tp746
a(g119
g6
(g18
S'\x04\xa6\x91;'
p747
tp748
Rp749
tp750
a(g181
g6
(g18
S'\xa5\xf8:9'
p751
tp752
Rp753
tp754
a(g68
g6
(g18
S'l\xac\xc38'
p755
tp756
Rp757
tp758
asg73
g15
sa(dp759
g2
S'../../../data/emanuela/activity-recognition/images/NTCIR-Lifelog-256/u1/2015-03-04/b00001164_21i6bq_20150304_190607e.jpg'
p760
sg4
(lp761
(g15
g6
(g18
S'\\]|?'
p762
tp763
Rp764
tp765
a(g32
g6
(g18
S'|K\xf0;'
p766
tp767
Rp768
tp769
a(g119
g6
(g18
S'\x876,;'
p770
tp771
Rp772
tp773
a(g197
g6
(g18
S'\xcd\x1c\xe8:'
p774
tp775
Rp776
tp777
a(g68
g6
(g18
S'r6\x91:'
p778
tp779
Rp780
tp781
asg73
g15
sa(dp782
g2
S'../../../data/emanuela/activity-recognition/images/NTCIR-Lifelog-256/u1/2015-03-04/b00001127_21i6bq_20150304_184228e.jpg'
p783
sg4
(lp784
(g15
g6
(g18
S'\xa0\x0f~?'
p785
tp786
Rp787
tp788
a(g181
g6
(g18
S'@\x9dj;'
p789
tp790
Rp791
tp792
a(g197
g6
(g18
S'd\xf8\x19;'
p793
tp794
Rp795
tp796
a(g119
g6
(g18
S'p\xc8M:'
p797
tp798
Rp799
tp800
a(g68
g6
(g18
S"\x1d'\xac9"
p801
tp802
Rp803
tp804
asg73
g15
sa(dp805
g2
S'../../../data/emanuela/activity-recognition/images/NTCIR-Lifelog-256/u2/2015-04-23/b00001580_21i7lf_20150423_183940e.jpg'
p806
sg4
(lp807
(g15
g6
(g18
S'\xfcVq?'
p808
tp809
Rp810
tp811
a(g119
g6
(g18
S'u\x1a}<'
p812
tp813
Rp814
tp815
a(g397
g6
(g18
S'_^\x04<'
p816
tp817
Rp818
tp819
a(g44
g6
(g18
S'Q\xb0\xf1;'
p820
tp821
Rp822
tp823
a(g68
g6
(g18
S'`\xe2\xc9;'
p824
tp825
Rp826
tp827
asg73
g15
sa(dp828
g2
S'../../../data/emanuela/activity-recognition/images/NTCIR-Lifelog-256/u2/2015-04-23/b00001180_21i7lf_20150423_135149e.jpg'
p829
sg4
(lp830
(g15
g6
(g18
S'\x8f\xd8w?'
p831
tp832
Rp833
tp834
a(g32
g6
(g18
S'?\x89\xc9<'
p835
tp836
Rp837
tp838
a(g44
g6
(g18
S'I\x89,;'
p839
tp840
Rp841
tp842
a(g68
g6
(g18
S'5\x93\xdb:'
p843
tp844
Rp845
tp846
a(g570
g6
(g18
S'"\xa9F:'
p847
tp848
Rp849
tp850
asg73
g15
sa(dp851
g2
S'../../../data/emanuela/activity-recognition/images/NTCIR-Lifelog-256/u1/2015-03-17/b00000396_21i6bq_20150317_122047e.jpg'
p852
sg4
(lp853
(g15
g6
(g18
S'}\xdc\\?'
p854
tp855
Rp856
tp857
a(g32
g6
(g18
S'`\x07\x07='
p858
tp859
Rp860
tp861
a(g162
g6
(g18
S'\xaaL\xdb<'
p862
tp863
Rp864
tp865
a(g44
g6
(g18
S'GG\x97<'
p866
tp867
Rp868
tp869
a(g6
(g7
(S'S16'
p870
I0
I1
tp871
Rp872
(I3
S'|'
p873
NNNI16
I1
I0
tp874
bS'public transport'
p875
tp876
Rp877
g6
(g18
S'\xec\xb3x<'
p878
tp879
Rp880
tp881
asg73
g15
sa(dp882
g2
S'../../../data/emanuela/activity-recognition/images/NTCIR-Lifelog-256/u1/2015-02-25/b00000412_21i6bq_20150225_101557e.jpg'
p883
sg4
(lp884
(g15
g6
(g18
S'\xb5<c?'
p885
tp886
Rp887
tp888
a(g68
g6
(g18
S'X6O='
p889
tp890
Rp891
tp892
a(g181
g6
(g18
S'q\xac\x94<'
p893
tp894
Rp895
tp896
a(g119
g6
(g18
S'\x01\xc7U<'
p897
tp898
Rp899
tp900
a(g32
g6
(g18
S'\x85\xe3P<'
p901
tp902
Rp903
tp904
asg73
g15
sa(dp905
g2
S'../../../data/emanuela/activity-recognition/images/NTCIR-Lifelog-256/u1/2015-03-04/b00001194_21i6bq_20150304_192746e.jpg'
p906
sg4
(lp907
(g15
g6
(g18
S'A\xb0~?'
p908
tp909
Rp910
tp911
a(g32
g6
(g18
S'\xf2\x86\x01;'
p912
tp913
Rp914
tp915
a(g197
g6
(g18
S'\xa2\x0c\xb8:'
p916
tp917
Rp918
tp919
a(g119
g6
(g18
S'\x9aoK:'
p920
tp921
Rp922
tp923
a(g68
g6
(g18
S'm\x89\xf09'
p924
tp925
Rp926
tp927
asg73
g15
sa(dp928
g2
S'../../../data/emanuela/activity-recognition/images/NTCIR-Lifelog-256/u2/2015-04-29/b00000402_21i7lf_20150429_113655e.jpg'
p929
sg4
(lp930
(g15
g6
(g18
S'\x97"v?'
p931
tp932
Rp933
tp934
a(g32
g6
(g18
S'Th\xe6<'
p935
tp936
Rp937
tp938
a(g44
g6
(g18
S'\xd8\x1e\xc5;'
p939
tp940
Rp941
tp942
a(g68
g6
(g18
S'\\Q\xd6:'
p943
tp944
Rp945
tp946
a(g397
g6
(g18
S'\xed;4:'
p947
tp948
Rp949
tp950
asg73
g15
sa(dp951
g2
S'../../../data/emanuela/activity-recognition/images/NTCIR-Lifelog-256/u2/2015-04-29/b00000369_21i7lf_20150429_111628e.jpg'
p952
sg4
(lp953
(g15
g6
(g18
S'\xd4\xc6|?'
p954
tp955
Rp956
tp957
a(g32
g6
(g18
S'\x88\xf8\x05<'
p958
tp959
Rp960
tp961
a(g44
g6
(g18
S'\x90\xa9\xf8:'
p962
tp963
Rp964
tp965
a(g56
g6
(g18
S'bSe:'
p966
tp967
Rp968
tp969
a(g162
g6
(g18
S'\xe2K\x1f:'
p970
tp971
Rp972
tp973
asg73
g15
sa(dp974
g2
S'../../../data/emanuela/activity-recognition/images/NTCIR-Lifelog-256/u1/2015-03-04/b00001186_21i6bq_20150304_192253e.jpg'
p975
sg4
(lp976
(g15
g6
(g18
S'{b\x0c?'
p977
tp978
Rp979
tp980
a(g32
g6
(g18
S'E\xa6">'
p981
tp982
Rp983
tp984
a(g197
g6
(g18
S'\x19\x13\x07>'
p985
tp986
Rp987
tp988
a(g68
g6
(g18
S'\r\xc27='
p989
tp990
Rp991
tp992
a(g119
g6
(g18
S'\xc7\xe26='
p993
tp994
Rp995
tp996
asg73
g15
sa(dp997
g2
S'../../../data/emanuela/activity-recognition/images/NTCIR-Lifelog-256/u2/2015-05-07/b00007441_21i7lf_20150507_100216e.jpg'
p998
sg4
(lp999
(g15
g6
(g18
S'\xf7J~?'
p1000
tp1001
Rp1002
tp1003
a(g32
g6
(g18
S'O\xd1\xa9;'
p1004
tp1005
Rp1006
tp1007
a(g44
g6
(g18
S'\x1b\xd9\x00:'
p1008
tp1009
Rp1010
tp1011
a(g56
g6
(g18
S'\xe63\xa69'
p1012
tp1013
Rp1014
tp1015
a(g68
g6
(g18
S'9\xc4x9'
p1016
tp1017
Rp1018
tp1019
asg73
g15
sa(dp1020
g2
S'../../../data/emanuela/activity-recognition/images/NTCIR-Lifelog-256/u2/2015-04-29/b00000292_21i7lf_20150429_102857e.jpg'
p1021
sg4
(lp1022
(g15
g6
(g18
S'\xe8\x85~?'
p1023
tp1024
Rp1025
tp1026
a(g32
g6
(g18
S'" q;'
p1027
tp1028
Rp1029
tp1030
a(g44
g6
(g18
S'4\x07b:'
p1031
tp1032
Rp1033
tp1034
a(g119
g6
(g18
S'\xf0&\x1b:'
p1035
tp1036
Rp1037
tp1038
a(g68
g6
(g18
S'1\x9e\x8e9'
p1039
tp1040
Rp1041
tp1042
asg73
g15
sa(dp1043
g2
S'../../../data/emanuela/activity-recognition/images/NTCIR-Lifelog-256/u2/2015-04-23/b00001184_21i7lf_20150423_135441e.jpg'
p1044
sg4
(lp1045
(g15
g6
(g18
S'7\xd2n?'
p1046
tp1047
Rp1048
tp1049
a(g32
g6
(g18
S'\xe8\xf1\x94<'
p1050
tp1051
Rp1052
tp1053
a(g228
g6
(g18
S'\x91;q<'
p1054
tp1055
Rp1056
tp1057
a(g570
g6
(g18
S'LZ\xf7;'
p1058
tp1059
Rp1060
tp1061
a(g6
(g7
(S'S7'
p1062
I0
I1
tp1063
Rp1064
(I3
S'|'
p1065
NNNI7
I1
I0
tp1066
bS'driving'
p1067
tp1068
Rp1069
g6
(g18
S'Jj\x88;'
p1070
tp1071
Rp1072
tp1073
asg73
g15
sa(dp1074
g2
S'../../../data/emanuela/activity-recognition/images/NTCIR-Lifelog-256/u1/2015-03-17/b00000885_21i6bq_20150317_165727e.jpg'
p1075
sg4
(lp1076
(g15
g6
(g18
S'\x84\xact?'
p1077
tp1078
Rp1079
tp1080
a(g44
g6
(g18
S'A\xf9\x81<'
p1081
tp1082
Rp1083
tp1084
a(g32
g6
(g18
S'\xc5\xa3m<'
p1085
tp1086
Rp1087
tp1088
a(g397
g6
(g18
S'T\xcaD;'
p1089
tp1090
Rp1091
tp1092
a(g570
g6
(g18
S'}\xb2\x15;'
p1093
tp1094
Rp1095
tp1096
asg73
g15
sa(dp1097
g2
S'../../../data/emanuela/activity-recognition/images/NTCIR-Lifelog-256/u1/2015-03-17/b00000775_21i6bq_20150317_154859e.jpg'
p1098
sg4
(lp1099
(g15
g6
(g18
S',\xe8\x7f?'
p1100
tp1101
Rp1102
tp1103
a(g32
g6
(g18
S"\x16\xa0'9"
p1104
tp1105
Rp1106
tp1107
a(g44
g6
(g18
S'\x026\x908'
p1108
tp1109
Rp1110
tp1111
a(g228
g6
(g18
S'\xda\x0fG8'
p1112
tp1113
Rp1114
tp1115
a(g162
g6
(g18
S'\xe6~\xad7'
p1116
tp1117
Rp1118
tp1119
asg73
g15
sa(dp1120
g2
S'../../../data/emanuela/activity-recognition/images/NTCIR-Lifelog-256/u1/2015-03-17/b00000414_21i6bq_20150317_123555e.jpg'
p1121
sg4
(lp1122
(g15
g6
(g18
S'{\x9ap?'
p1123
tp1124
Rp1125
tp1126
a(g32
g6
(g18
S'\xa1\xc2\x9c<'
p1127
tp1128
Rp1129
tp1130
a(g1069
g6
(g18
S'\x8b%\x11<'
p1131
tp1132
Rp1133
tp1134
a(g44
g6
(g18
S'\xca\xcd\xec;'
p1135
tp1136
Rp1137
tp1138
a(g228
g6
(g18
S'^T\xcc;'
p1139
tp1140
Rp1141
tp1142
asg73
g15
sa(dp1143
g2
S'../../../data/emanuela/activity-recognition/images/NTCIR-Lifelog-256/u2/2015-04-29/b00000325_21i7lf_20150429_104934e.jpg'
p1144
sg4
(lp1145
(g15
g6
(g18
S'\xd4+=?'
p1146
tp1147
Rp1148
tp1149
a(g32
g6
(g18
S'\xbc\xfaj>'
p1150
tp1151
Rp1152
tp1153
a(g44
g6
(g18
S'V\xd1-<'
p1154
tp1155
Rp1156
tp1157
a(g68
g6
(g18
S'Jw,<'
p1158
tp1159
Rp1160
tp1161
a(g56
g6
(g18
S'*?\x94;'
p1162
tp1163
Rp1164
tp1165
asg73
g15
sa(dp1166
g2
S'../../../data/emanuela/activity-recognition/images/NTCIR-Lifelog-256/u2/2015-04-29/b00000327_21i7lf_20150429_105040e.jpg'
p1167
sg4
(lp1168
(g15
g6
(g18
S'S\x0bc?'
p1169
tp1170
Rp1171
tp1172
a(g32
g6
(g18
S'\xe0\x97\xab='
p1173
tp1174
Rp1175
tp1176
a(g44
g6
(g18
S'\x18\x0b@<'
p1177
tp1178
Rp1179
tp1180
a(g68
g6
(g18
S'\x14\x92\x0b<'
p1181
tp1182
Rp1183
tp1184
a(g56
g6
(g18
S'\xaa\x07\xa1;'
p1185
tp1186
Rp1187
tp1188
asg73
g15
sa(dp1189
g2
S'../../../data/emanuela/activity-recognition/images/NTCIR-Lifelog-256/u1/2015-03-17/b00000441_21i6bq_20150317_125219e.jpg'
p1190
sg4
(lp1191
(g228
g6
(g18
S'\xbf\xad4?'
p1192
tp1193
Rp1194
tp1195
a(g397
g6
(g18
S'}>7>'
p1196
tp1197
Rp1198
tp1199
a(g6
(g7
(S'S19'
p1200
I0
I1
tp1201
Rp1202
(I3
S'|'
p1203
NNNI19
I1
I0
tp1204
bS'cleaning and chores'
p1205
tp1206
Rp1207
g6
(g18
S'{\x91\x13='
p1208
tp1209
Rp1210
tp1211
a(g56
g6
(g18
S'\x9b\xf7\xc0<'
p1212
tp1213
Rp1214
tp1215
a(g6
(g7
(S'S7'
p1216
I0
I1
tp1217
Rp1218
(I3
S'|'
p1219
NNNI7
I1
I0
tp1220
bS'cooking'
p1221
tp1222
Rp1223
g6
(g18
S'\xf2\x0eD<'
p1224
tp1225
Rp1226
tp1227
asg73
g15
sa(dp1228
g2
S'../../../data/emanuela/activity-recognition/images/NTCIR-Lifelog-256/u1/2015-03-04/b00001135_21i6bq_20150304_184729e.jpg'
p1229
sg4
(lp1230
(g15
g6
(g18
S'\x90\xbby?'
p1231
tp1232
Rp1233
tp1234
a(g119
g6
(g18
S'wX\x86<'
p1235
tp1236
Rp1237
tp1238
a(g197
g6
(g18
S'\x1fdI;'
p1239
tp1240
Rp1241
tp1242
a(g44
g6
(g18
S'\xe2j\xfa:'
p1243
tp1244
Rp1245
tp1246
a(g68
g6
(g18
S'\xe8v\x92:'
p1247
tp1248
Rp1249
tp1250
asg73
g15
sa(dp1251
g2
S'../../../data/emanuela/activity-recognition/images/NTCIR-Lifelog-256/u1/2015-03-17/b00000824_21i6bq_20150317_161912e.jpg'
p1252
sg4
(lp1253
(g15
g6
(g18
S'\x1f\xb6\x7f?'
p1254
tp1255
Rp1256
tp1257
a(g32
g6
(g18
S'\x95/\x0b:'
p1258
tp1259
Rp1260
tp1261
a(g44
g6
(g18
S'\x1e\\:9'
p1262
tp1263
Rp1264
tp1265
a(g228
g6
(g18
S'j\x19\x119'
p1266
tp1267
Rp1268
tp1269
a(g570
g6
(g18
S'\xb49\x878'
p1270
tp1271
Rp1272
tp1273
asg73
g15
sa(dp1274
g2
S'../../../data/emanuela/activity-recognition/images/NTCIR-Lifelog-256/u1/2015-03-17/b00000439_21i6bq_20150317_125111e.jpg'
p1275
sg4
(lp1276
(g15
g6
(g18
S'\x90\xb8\x7f?'
p1277
tp1278
Rp1279
tp1280
a(g44
g6
(g18
S'\xd9\x0b\xcc9'
p1281
tp1282
Rp1283
tp1284
a(g32
g6
(g18
S'<\x00\x9a9'
p1285
tp1286
Rp1287
tp1288
a(g162
g6
(g18
S'h9$9'
p1289
tp1290
Rp1291
tp1292
a(g228
g6
(g18
S'\x81\xb1\xdf8'
p1293
tp1294
Rp1295
tp1296
asg73
g15
sa(dp1297
g2
S'../../../data/emanuela/activity-recognition/images/NTCIR-Lifelog-256/u1/2015-03-17/b00000779_21i6bq_20150317_155135e.jpg'
p1298
sg4
(lp1299
(g15
g6
(g18
S'w\xef\x7f?'
p1300
tp1301
Rp1302
tp1303
a(g32
g6
(g18
S'\xe9\x06\x9e8'
p1304
tp1305
Rp1306
tp1307
a(g228
g6
(g18
S'\xe4\xcc^8'
p1308
tp1309
Rp1310
tp1311
a(g44
g6
(g18
S'\x9d\xc7-8'
p1312
tp1313
Rp1314
tp1315
a(g397
g6
(g18
S'\x81\xfb\xaf7'
p1316
tp1317
Rp1318
tp1319
asg73
g15
sa(dp1320
g2
S'../../../data/emanuela/activity-recognition/images/NTCIR-Lifelog-256/u1/2015-02-25/b00000495_21i6bq_20150225_110757e.jpg'
p1321
sg4
(lp1322
(g15
g6
(g18
S'\xc6/\x7f?'
p1323
tp1324
Rp1325
tp1326
a(g119
g6
(g18
S'<^\xbe:'
p1327
tp1328
Rp1329
tp1330
a(g181
g6
(g18
S'z\x9d.:'
p1331
tp1332
Rp1333
tp1334
a(g68
g6
(g18
S'\xda\x86\xb19'
p1335
tp1336
Rp1337
tp1338
a(g44
g6
(g18
S'\x89\x0b\x839'
p1339
tp1340
Rp1341
tp1342
asg73
g15
sa(dp1343
g2
S'../../../data/emanuela/activity-recognition/images/NTCIR-Lifelog-256/u2/2015-05-07/b00007393_21i7lf_20150507_092359e.jpg'
p1344
sg4
(lp1345
(g15
g6
(g18
S'\xa8Qt?'
p1346
tp1347
Rp1348
tp1349
a(g32
g6
(g18
S'\x8e\xbb\xf7<'
p1350
tp1351
Rp1352
tp1353
a(g56
g6
(g18
S'\xba\xbb\x9e;'
p1354
tp1355
Rp1356
tp1357
a(g68
g6
(g18
S'/\xae|;'
p1358
tp1359
Rp1360
tp1361
a(g397
g6
(g18
S'\xf5\xcd`;'
p1362
tp1363
Rp1364
tp1365
asg73
g15
sa(dp1366
g2
S'../../../data/emanuela/activity-recognition/images/NTCIR-Lifelog-256/u2/2015-04-23/b00001189_21i7lf_20150423_135744e.jpg'
p1367
sg4
(lp1368
(g15
g6
(g18
S'`pL?'
p1369
tp1370
Rp1371
tp1372
a(g32
g6
(g18
S'\x08\xf0\x0b>'
p1373
tp1374
Rp1375
tp1376
a(g44
g6
(g18
S'\xee<\xf3<'
p1377
tp1378
Rp1379
tp1380
a(g68
g6
(g18
S'\xa2U\xd9;'
p1381
tp1382
Rp1383
tp1384
a(g1207
g6
(g18
S'\x951\x82;'
p1385
tp1386
Rp1387
tp1388
asg73
g15
sa(dp1389
g2
S'../../../data/emanuela/activity-recognition/images/NTCIR-Lifelog-256/u2/2015-04-29/b00000298_21i7lf_20150429_103241e.jpg'
p1390
sg4
(lp1391
(g15
g6
(g18
S'\xf5\xdd\x7f?'
p1392
tp1393
Rp1394
tp1395
a(g32
g6
(g18
S'L7\x909'
p1396
tp1397
Rp1398
tp1399
a(g44
g6
(g18
S'\xdd)\x009'
p1400
tp1401
Rp1402
tp1403
a(g119
g6
(g18
S'4\xd9\x858'
p1404
tp1405
Rp1406
tp1407
a(g68
g6
(g18
S'\xf5i\xa97'
p1408
tp1409
Rp1410
tp1411
asg73
g15
sa(dp1412
g2
S'../../../data/emanuela/activity-recognition/images/NTCIR-Lifelog-256/u2/2015-04-23/b00001204_21i7lf_20150423_140644e.jpg'
p1413
sg4
(lp1414
(g146
g6
(g18
S'\xefQ#?'
p1415
tp1416
Rp1417
tp1418
a(g877
g6
(g18
S'\xd4\xfc\xe7='
p1419
tp1420
Rp1421
tp1422
a(g397
g6
(g18
S'\xe0 \xc1='
p1423
tp1424
Rp1425
tp1426
a(g32
g6
(g18
S'wu\x9d='
p1427
tp1428
Rp1429
tp1430
a(g15
g6
(g18
S'\x0b3\xa3<'
p1431
tp1432
Rp1433
tp1434
asg73
g15
sa(dp1435
g2
S'../../../data/emanuela/activity-recognition/images/NTCIR-Lifelog-256/u1/2015-03-17/b00000792_21i6bq_20150317_155952e.jpg'
p1436
sg4
(lp1437
(g15
g6
(g18
S'U\xe2\x7f?'
p1438
tp1439
Rp1440
tp1441
a(g32
g6
(g18
S'\xe5\xa0\xa29'
p1442
tp1443
Rp1444
tp1445
a(g397
g6
(g18
S'\x99\xcbT8'
p1446
tp1447
Rp1448
tp1449
a(g228
g6
(g18
S'h\x89+8'
p1450
tp1451
Rp1452
tp1453
a(g44
g6
(g18
S']\xf9\xc57'
p1454
tp1455
Rp1456
tp1457
asg73
g15
sa(dp1458
g2
S'../../../data/emanuela/activity-recognition/images/NTCIR-Lifelog-256/u2/2015-04-29/b00000307_21i7lf_20150429_103826e.jpg'
p1459
sg4
(lp1460
(g15
g6
(g18
S'\xaa\x1e~?'
p1461
tp1462
Rp1463
tp1464
a(g32
g6
(g18
S'\xcc\r\xa2;'
p1465
tp1466
Rp1467
tp1468
a(g44
g6
(g18
S'f\xa5\xac:'
p1469
tp1470
Rp1471
tp1472
a(g56
g6
(g18
S'U\xe6\x8d9'
p1473
tp1474
Rp1475
tp1476
a(g68
g6
(g18
S')\x88\x809'
p1477
tp1478
Rp1479
tp1480
asg73
g15
sa(dp1481
g2
S'../../../data/emanuela/activity-recognition/images/NTCIR-Lifelog-256/u1/2015-03-17/b00000889_21i6bq_20150317_165932e.jpg'
p1482
sg4
(lp1483
(g15
g6
(g18
S':c{?'
p1484
tp1485
Rp1486
tp1487
a(g32
g6
(g18
S'\xa6\xb7\xae;'
p1488
tp1489
Rp1490
tp1491
a(g44
g6
(g18
S'\xb3\xccN;'
p1492
tp1493
Rp1494
tp1495
a(g228
g6
(g18
S'Eq-;'
p1496
tp1497
Rp1498
tp1499
a(g162
g6
(g18
S'\xa6\xaf\x19;'
p1500
tp1501
Rp1502
tp1503
asg73
g15
sa(dp1504
g2
S'../../../data/emanuela/activity-recognition/images/NTCIR-Lifelog-256/u2/2015-04-23/b00001204_21i7lf_20150423_140644e (1).jpg'
p1505
sg4
(lp1506
(g146
g6
(g18
S'\xefQ#?'
p1507
tp1508
Rp1509
tp1510
a(g877
g6
(g18
S'\xd4\xfc\xe7='
p1511
tp1512
Rp1513
tp1514
a(g397
g6
(g18
S'\xe0 \xc1='
p1515
tp1516
Rp1517
tp1518
a(g32
g6
(g18
S'wu\x9d='
p1519
tp1520
Rp1521
tp1522
a(g15
g6
(g18
S'\x0b3\xa3<'
p1523
tp1524
Rp1525
tp1526
asg73
g15
sa(dp1527
g2
S'../../../data/emanuela/activity-recognition/images/NTCIR-Lifelog-256/u1/2015-03-17/b00000877_21i6bq_20150317_165303e.jpg'
p1528
sg4
(lp1529
(g15
g6
(g18
S'\rHz?'
p1530
tp1531
Rp1532
tp1533
a(g32
g6
(g18
S'\x02l\xa4;'
p1534
tp1535
Rp1536
tp1537
a(g44
g6
(g18
S'=\xec\x87;'
p1538
tp1539
Rp1540
tp1541
a(g228
g6
(g18
S'MT[;'
p1542
tp1543
Rp1544
tp1545
a(g162
g6
(g18
S'\xac?\x12;'
p1546
tp1547
Rp1548
tp1549
asg73
g15
sa(dp1550
g2
S'../../../data/emanuela/activity-recognition/images/NTCIR-Lifelog-256/u1/2015-03-12/b00000798_21i6bq_20150312_160552e.jpg'
p1551
sg4
(lp1552
(g15
g6
(g18
S'\xcdMz?'
p1553
tp1554
Rp1555
tp1556
a(g44
g6
(g18
S'td\xf8;'
p1557
tp1558
Rp1559
tp1560
a(g119
g6
(g18
S']\x1b};'
p1561
tp1562
Rp1563
tp1564
a(g32
g6
(g18
S'\xd0Go;'
p1565
tp1566
Rp1567
tp1568
a(g228
g6
(g18
S'\xe4\xb1\xc8:'
p1569
tp1570
Rp1571
tp1572
asg73
g15
sa(dp1573
g2
S'../../../data/emanuela/activity-recognition/images/NTCIR-Lifelog-256/u2/2015-05-07/b00007413_21i7lf_20150507_093745e.jpg'
p1574
sg4
(lp1575
(g32
g6
(g18
S'\x12A>?'
p1576
tp1577
Rp1578
tp1579
a(g15
g6
(g18
S'\x8fv6>'
p1580
tp1581
Rp1582
tp1583
a(g56
g6
(g18
S'\x1b\xf1R='
p1584
tp1585
Rp1586
tp1587
a(g397
g6
(g18
S'},\x7f<'
p1588
tp1589
Rp1590
tp1591
a(g68
g6
(g18
S'*\xfe\xbc;'
p1592
tp1593
Rp1594
tp1595
asg73
g15
sa(dp1596
g2
S'../../../data/emanuela/activity-recognition/images/NTCIR-Lifelog-256/u1/2015-03-04/b00001073_21i6bq_20150304_180831e.jpg'
p1597
sg4
(lp1598
(g15
g6
(g18
S'J\x87{?'
p1599
tp1600
Rp1601
tp1602
a(g181
g6
(g18
S'u\xd7I<'
p1603
tp1604
Rp1605
tp1606
a(g197
g6
(g18
S'h\x90\xb9:'
p1607
tp1608
Rp1609
tp1610
a(g146
g6
(g18
S'\xaaU\xa9:'
p1611
tp1612
Rp1613
tp1614
a(g68
g6
(g18
S';\xea#:'
p1615
tp1616
Rp1617
tp1618
asg73
g15
sa(dp1619
g2
S'../../../data/emanuela/activity-recognition/images/NTCIR-Lifelog-256/u2/2015-04-23/b00001609_21i7lf_20150423_190150e.jpg'
p1620
sg4
(lp1621
(g15
g6
(g18
S'9\xce{?'
p1622
tp1623
Rp1624
tp1625
a(g119
g6
(g18
S'f\x00\x01<'
p1626
tp1627
Rp1628
tp1629
a(g44
g6
(g18
S'`z\x94;'
p1630
tp1631
Rp1632
tp1633
a(g68
g6
(g18
S'\x1bM\x1b;'
p1634
tp1635
Rp1636
tp1637
a(g32
g6
(g18
S'\xe4\xef\x87:'
p1638
tp1639
Rp1640
tp1641
asg73
g15
sa(dp1642
g2
S'../../../data/emanuela/activity-recognition/images/NTCIR-Lifelog-256/u1/2015-03-17/b00000403_21i6bq_20150317_122501e.jpg'
p1643
sg4
(lp1644
(g397
g6
(g18
S'\x0bu\x01?'
p1645
tp1646
Rp1647
tp1648
a(g228
g6
(g18
S'*\xbf\x11>'
p1649
tp1650
Rp1651
tp1652
a(g6
(g7
(S'S5'
p1653
I0
I1
tp1654
Rp1655
(I3
S'|'
p1656
NNNI5
I1
I0
tp1657
bS'plane'
p1658
tp1659
Rp1660
g6
(g18
S'_\x90\xe3='
p1661
tp1662
Rp1663
tp1664
a(g15
g6
(g18
S'<}\x9e='
p1665
tp1666
Rp1667
tp1668
a(g32
g6
(g18
S'\x97\x03\xff<'
p1669
tp1670
Rp1671
tp1672
asg73
g15
sa(dp1673
g2
S'../../../data/emanuela/activity-recognition/images/NTCIR-Lifelog-256/u2/2015-05-07/b00007468_21i7lf_20150507_101843e.jpg'
p1674
sg4
(lp1675
(g15
g6
(g18
S'IIw?'
p1676
tp1677
Rp1678
tp1679
a(g32
g6
(g18
S'w%\xea<'
p1680
tp1681
Rp1682
tp1683
a(g56
g6
(g18
S'\x03I\xe7:'
p1684
tp1685
Rp1686
tp1687
a(g44
g6
(g18
S'\x92"\x86:'
p1688
tp1689
Rp1690
tp1691
a(g68
g6
(g18
S'C\x1f\x86:'
p1692
tp1693
Rp1694
tp1695
asg73
g15
sa(dp1696
g2
S'../../../data/emanuela/activity-recognition/images/NTCIR-Lifelog-256/u1/2015-03-12/b00000809_21i6bq_20150312_161232e.jpg'
p1697
sg4
(lp1698
(g15
g6
(g18
S'\xff\xaa{?'
p1699
tp1700
Rp1701
tp1702
a(g44
g6
(g18
S'3l\x17<'
p1703
tp1704
Rp1705
tp1706
a(g32
g6
(g18
S'e\x19\x83:'
p1707
tp1708
Rp1709
tp1710
a(g228
g6
(g18
S'\x13fs:'
p1711
tp1712
Rp1713
tp1714
a(g162
g6
(g18
S'\x14zn:'
p1715
tp1716
Rp1717
tp1718
asg73
g15
sa(dp1719
g2
S'../../../data/emanuela/activity-recognition/images/NTCIR-Lifelog-256/u2/2015-04-23/b00001216_21i7lf_20150423_141647e.jpg'
p1720
sg4
(lp1721
(g15
g6
(g18
S'\x1a\xe1x?'
p1722
tp1723
Rp1724
tp1725
a(g32
g6
(g18
S'\x8fj\x82<'
p1726
tp1727
Rp1728
tp1729
a(g570
g6
(g18
S'\xd0\x88B;'
p1730
tp1731
Rp1732
tp1733
a(g44
g6
(g18
S'<\xb6&;'
p1734
tp1735
Rp1736
tp1737
a(g68
g6
(g18
S'N8\xd6:'
p1738
tp1739
Rp1740
tp1741
asg73
g15
sa(dp1742
g2
S'../../../data/emanuela/activity-recognition/images/NTCIR-Lifelog-256/u1/2015-02-25/b00000413_21i6bq_20150225_101636e.jpg'
p1743
sg4
(lp1744
(g15
g6
(g18
S'\xa1\x9e\xfb>'
p1745
tp1746
Rp1747
tp1748
a(g119
g6
(g18
S'\xd1F\xf4>'
p1749
tp1750
Rp1751
tp1752
a(g68
g6
(g18
S'\x88\x92s<'
p1753
tp1754
Rp1755
tp1756
a(g181
g6
(g18
S'\x03\xf8\x8c;'
p1757
tp1758
Rp1759
tp1760
a(g197
g6
(g18
S'\x10`o;'
p1761
tp1762
Rp1763
tp1764
asg73
g15
sa(dp1765
g2
S'../../../data/emanuela/activity-recognition/images/NTCIR-Lifelog-256/u2/2015-04-23/b00001182_21i7lf_20150423_135336e.jpg'
p1766
sg4
(lp1767
(g15
g6
(g18
S'\x9b\x18W?'
p1768
tp1769
Rp1770
tp1771
a(g146
g6
(g18
S'\x88\xa90='
p1772
tp1773
Rp1774
tp1775
a(g32
g6
(g18
S'R\x1d\x00='
p1776
tp1777
Rp1778
tp1779
a(g228
g6
(g18
S'\xb60Y<'
p1780
tp1781
Rp1782
tp1783
a(g397
g6
(g18
S'.E6<'
p1784
tp1785
Rp1786
tp1787
asg73
g15
sa(dp1788
g2
S'../../../data/emanuela/activity-recognition/images/NTCIR-Lifelog-256/u2/2015-04-29/b00000308_21i7lf_20150429_103903e.jpg'
p1789
sg4
(lp1790
(g15
g6
(g18
S'#=\x7f?'
p1791
tp1792
Rp1793
tp1794
a(g32
g6
(g18
S'\xec\xb8\xf7:'
p1795
tp1796
Rp1797
tp1798
a(g44
g6
(g18
S'(\xdeE:'
p1799
tp1800
Rp1801
tp1802
a(g56
g6
(g18
S'\xe5\x99\xb78'
p1803
tp1804
Rp1805
tp1806
a(g162
g6
(g18
S'\xc7\xf7\x9f8'
p1807
tp1808
Rp1809
tp1810
asg73
g15
sa(dp1811
g2
S'../../../data/emanuela/activity-recognition/images/NTCIR-Lifelog-256/u2/2015-05-07/b00007438_21i7lf_20150507_100020e.jpg'
p1812
sg4
(lp1813
(g15
g6
(g18
S'@\xec~?'
p1814
tp1815
Rp1816
tp1817
a(g32
g6
(g18
S'6\x98@;'
p1818
tp1819
Rp1820
tp1821
a(g56
g6
(g18
S'\xb2v\xd09'
p1822
tp1823
Rp1824
tp1825
a(g44
g6
(g18
S'\xabg\xa89'
p1826
tp1827
Rp1828
tp1829
a(g68
g6
(g18
S'\xac6\x819'
p1830
tp1831
Rp1832
tp1833
asg73
g15
sa(dp1834
g2
S'../../../data/emanuela/activity-recognition/images/NTCIR-Lifelog-256/u1/2015-02-23/b00000186_21i6bq_20150223_090204e.jpg'
p1835
sg4
(lp1836
(g15
g6
(g18
S'\x80\x17??'
p1837
tp1838
Rp1839
tp1840
a(g44
g6
(g18
S'\xaa\xfa\xda='
p1841
tp1842
Rp1843
tp1844
a(g162
g6
(g18
S'\xf4=\xe6<'
p1845
tp1846
Rp1847
tp1848
a(g68
g6
(g18
S'\xbd\xab\xd4<'
p1849
tp1850
Rp1851
tp1852
a(g228
g6
(g18
S'\xbbh\x9e<'
p1853
tp1854
Rp1855
tp1856
asg73
g15
sa(dp1857
g2
S'../../../data/emanuela/activity-recognition/images/NTCIR-Lifelog-256/u1/2015-03-04/b00001201_21i6bq_20150304_193203e.jpg'
p1858
sg4
(lp1859
(g15
g6
(g18
S'\x16\xa6U?'
p1860
tp1861
Rp1862
tp1863
a(g68
g6
(g18
S'\xcf\xc0\xb8='
p1864
tp1865
Rp1866
tp1867
a(g32
g6
(g18
S'.3\xc1<'
p1868
tp1869
Rp1870
tp1871
a(g119
g6
(g18
S'\x88\xf9\x98<'
p1872
tp1873
Rp1874
tp1875
a(g44
g6
(g18
S'S\xd5R<'
p1876
tp1877
Rp1878
tp1879
asg73
g15
sa(dp1880
g2
S'../../../data/emanuela/activity-recognition/images/NTCIR-Lifelog-256/u2/2015-05-07/b00007464_21i7lf_20150507_101615e.jpg'
p1881
sg4
(lp1882
(g15
g6
(g18
S'_\xc8w?'
p1883
tp1884
Rp1885
tp1886
a(g32
g6
(g18
S'\xc1h\xbe<'
p1887
tp1888
Rp1889
tp1890
a(g44
g6
(g18
S'\x17\x1c:;'
p1891
tp1892
Rp1893
tp1894
a(g68
g6
(g18
S'5*\n;'
p1895
tp1896
Rp1897
tp1898
a(g570
g6
(g18
S'z\xe0z:'
p1899
tp1900
Rp1901
tp1902
asg73
g15
sa(dp1903
g2
S'../../../data/emanuela/activity-recognition/images/NTCIR-Lifelog-256/u1/2015-03-04/b00001091_21i6bq_20150304_182029e.jpg'
p1904
sg4
(lp1905
(g15
g6
(g18
S'\x85\xb9{?'
p1906
tp1907
Rp1908
tp1909
a(g181
g6
(g18
S'Ze\x05<'
p1910
tp1911
Rp1912
tp1913
a(g197
g6
(g18
S'\x0c2f;'
p1914
tp1915
Rp1916
tp1917
a(g44
g6
(g18
S'\x18I\xdb:'
p1918
tp1919
Rp1920
tp1921
a(g32
g6
(g18
S'\xe4\xf6}:'
p1922
tp1923
Rp1924
tp1925
asg73
g15
sa(dp1926
g2
S'../../../data/emanuela/activity-recognition/images/NTCIR-Lifelog-256/u1/2015-03-04/b00001124_21i6bq_20150304_184038e.jpg'
p1927
sg4
(lp1928
(g15
g6
(g18
S'\xce\xc7x?'
p1929
tp1930
Rp1931
tp1932
a(g181
g6
(g18
S'\xf8\x05\xa2<'
p1933
tp1934
Rp1935
tp1936
a(g197
g6
(g18
S'\xe2\x122;'
p1937
tp1938
Rp1939
tp1940
a(g44
g6
(g18
S'\xec\r ;'
p1941
tp1942
Rp1943
tp1944
a(g68
g6
(g18
S'\xaf-\xaf:'
p1945
tp1946
Rp1947
tp1948
asg73
g15
sa(dp1949
g2
S'../../../data/emanuela/activity-recognition/images/NTCIR-Lifelog-256/u1/2015-02-25/b00000428_21i6bq_20150225_102622e.jpg'
p1950
sg4
(lp1951
(g15
g6
(g18
S'\x89\xe7u?'
p1952
tp1953
Rp1954
tp1955
a(g6
(g7
(S'S7'
p1956
I0
I1
tp1957
Rp1958
(I3
S'|'
p1959
NNNI7
I1
I0
tp1960
bS'resting'
p1961
tp1962
Rp1963
g6
(g18
S'\xdd,/<'
p1964
tp1965
Rp1966
tp1967
a(g44
g6
(g18
S'a\xd7\x0c<'
p1968
tp1969
Rp1970
tp1971
a(g32
g6
(g18
S'\xfd\xd0\t<'
p1972
tp1973
Rp1974
tp1975
a(g570
g6
(g18
S'\x93\xe1~;'
p1976
tp1977
Rp1978
tp1979
asg73
g15
sa(dp1980
g2
S'../../../data/emanuela/activity-recognition/images/NTCIR-Lifelog-256/u1/2015-03-04/b00001195_21i6bq_20150304_192819e.jpg'
p1981
sg4
(lp1982
(g15
g6
(g18
S'\xfa\x12u?'
p1983
tp1984
Rp1985
tp1986
a(g32
g6
(g18
S'\xd6{\xcc<'
p1987
tp1988
Rp1989
tp1990
a(g197
g6
(g18
S'\xe0\xd8\xf4;'
p1991
tp1992
Rp1993
tp1994
a(g68
g6
(g18
S'\xfd\x8dT;'
p1995
tp1996
Rp1997
tp1998
a(g119
g6
(g18
S'\xb1\xd3.;'
p1999
tp2000
Rp2001
tp2002
asg73
g15
sa(dp2003
g2
S'../../../data/emanuela/activity-recognition/images/NTCIR-Lifelog-256/u1/2015-03-17/b00000714_21i6bq_20150317_152028e.jpg'
p2004
sg4
(lp2005
(g15
g6
(g18
S'\x06\xe8\x7f?'
p2006
tp2007
Rp2008
tp2009
a(g32
g6
(g18
S"<\xf0'9"
p2010
tp2011
Rp2012
tp2013
a(g228
g6
(g18
S'\xb1\xc9\x808'
p2014
tp2015
Rp2016
tp2017
a(g44
g6
(g18
S'\x9d\xffK8'
p2018
tp2019
Rp2020
tp2021
a(g162
g6
(g18
S'8J\xd47'
p2022
tp2023
Rp2024
tp2025
asg73
g15
sa(dp2026
g2
S'../../../data/emanuela/activity-recognition/images/NTCIR-Lifelog-256/u1/2015-03-04/b00001181_21i6bq_20150304_192001e.jpg'
p2027
sg4
(lp2028
(g15
g6
(g18
S'\xbd\xaf\x7f?'
p2029
tp2030
Rp2031
tp2032
a(g119
g6
(g18
S'\xa4\xdc\xf49'
p2033
tp2034
Rp2035
tp2036
a(g32
g6
(g18
S'\x07\xb6\xaf9'
p2037
tp2038
Rp2039
tp2040
a(g197
g6
(g18
S'\xd6\xcb69'
p2041
tp2042
Rp2043
tp2044
a(g68
g6
(g18
S'EL\xc68'
p2045
tp2046
Rp2047
tp2048
asg73
g15
sa(dp2049
g2
S'../../../data/emanuela/activity-recognition/images/NTCIR-Lifelog-256/u1/2015-03-17/b00000785_21i6bq_20150317_155527e.jpg'
p2050
sg4
(lp2051
(g15
g6
(g18
S'!\xdd\x7f?'
p2052
tp2053
Rp2054
tp2055
a(g32
g6
(g18
S'By\xbe9'
p2056
tp2057
Rp2058
tp2059
a(g44
g6
(g18
S'\xa3\xaac8'
p2060
tp2061
Rp2062
tp2063
a(g228
g6
(g18
S'\xdcQ)8'
p2064
tp2065
Rp2066
tp2067
a(g570
g6
(g18
S'v=\xbb7'
p2068
tp2069
Rp2070
tp2071
asg73
g15
sa(dp2072
g2
S'../../../data/emanuela/activity-recognition/images/NTCIR-Lifelog-256/u1/2015-03-04/b00001200_21i6bq_20150304_193124e.jpg'
p2073
sg4
(lp2074
(g15
g6
(g18
S'a\xbe"?'
p2075
tp2076
Rp2077
tp2078
a(g197
g6
(g18
S'\xac|[>'
p2079
tp2080
Rp2081
tp2082
a(g119
g6
(g18
S'q\xf7\xd3='
p2083
tp2084
Rp2085
tp2086
a(g68
g6
(g18
S'\x89B\xd6<'
p2087
tp2088
Rp2089
tp2090
a(g56
g6
(g18
S'S\x03\x19<'
p2091
tp2092
Rp2093
tp2094
asg73
g15
sa(dp2095
g2
S'../../../data/emanuela/activity-recognition/images/NTCIR-Lifelog-256/u1/2015-03-17/b00000815_21i6bq_20150317_161350e.jpg'
p2096
sg4
(lp2097
(g15
g6
(g18
S'.\xfa\x7f?'
p2098
tp2099
Rp2100
tp2101
a(g32
g6
(g18
S'\xa1\xed\x018'
p2102
tp2103
Rp2104
tp2105
a(g44
g6
(g18
S'5\xfa\xa87'
p2106
tp2107
Rp2108
tp2109
a(g228
g6
(g18
S'dzb7'
p2110
tp2111
Rp2112
tp2113
a(g570
g6
(g18
S'\x17\x13\xe16'
p2114
tp2115
Rp2116
tp2117
asg73
g15
sa(dp2118
g2
S'../../../data/emanuela/activity-recognition/images/NTCIR-Lifelog-256/u2/2015-05-07/b00007470_21i7lf_20150507_101959e.jpg'
p2119
sg4
(lp2120
(g15
g6
(g18
S'\x0b\x04\x7f?'
p2121
tp2122
Rp2123
tp2124
a(g32
g6
(g18
S'\xf5\xfe\x1c;'
p2125
tp2126
Rp2127
tp2128
a(g56
g6
(g18
S'\x14#4:'
p2129
tp2130
Rp2131
tp2132
a(g68
g6
(g18
S'KN\x9b9'
p2133
tp2134
Rp2135
tp2136
a(g44
g6
(g18
S'\x01;R9'
p2137
tp2138
Rp2139
tp2140
asg73
g15
sa(dp2141
g2
S'../../../data/emanuela/activity-recognition/images/NTCIR-Lifelog-256/u2/2015-05-07/b00007487_21i7lf_20150507_102958e.jpg'
p2142
sg4
(lp2143
(g15
g6
(g18
S'\xfc\x96w?'
p2144
tp2145
Rp2146
tp2147
a(g32
g6
(g18
S'>\x1b\xd0<'
p2148
tp2149
Rp2150
tp2151
a(g56
g6
(g18
S'\x97\x9fT;'
p2152
tp2153
Rp2154
tp2155
a(g397
g6
(g18
S"'\xad\xc3:"
p2156
tp2157
Rp2158
tp2159
a(g68
g6
(g18
S'*UP:'
p2160
tp2161
Rp2162
tp2163
asg73
g15
sa(dp2164
g2
S'../../../data/emanuela/activity-recognition/images/NTCIR-Lifelog-256/u1/2015-03-12/b00000800_21i6bq_20150312_160705e.jpg'
p2165
sg4
(lp2166
(g15
g6
(g18
S'\xe7|z?'
p2167
tp2168
Rp2169
tp2170
a(g44
g6
(g18
S'q=\x08<'
p2171
tp2172
Rp2173
tp2174
a(g119
g6
(g18
S'T\xba\xaa;'
p2175
tp2176
Rp2177
tp2178
a(g32
g6
(g18
S'G\xd7\x00;'
p2179
tp2180
Rp2181
tp2182
a(g1963
g6
(g18
S'\x07\xae\xf3:'
p2183
tp2184
Rp2185
tp2186
asg73
g15
sa(dp2187
g2
S'../../../data/emanuela/activity-recognition/images/NTCIR-Lifelog-256/u1/2015-03-04/b00001145_21i6bq_20150304_185318e.jpg'
p2188
sg4
(lp2189
(g15
g6
(g18
S'\xc3\x1bK?'
p2190
tp2191
Rp2192
tp2193
a(g68
g6
(g18
S'Nj\x98='
p2194
tp2195
Rp2196
tp2197
a(g119
g6
(g18
S'\x867j='
p2198
tp2199
Rp2200
tp2201
a(g32
g6
(g18
S'\x15\xa0L='
p2202
tp2203
Rp2204
tp2205
a(g56
g6
(g18
S'\x8a\xa7<<'
p2206
tp2207
Rp2208
tp2209
asg73
g15
sa(dp2210
g2
S'../../../data/emanuela/activity-recognition/images/NTCIR-Lifelog-256/u2/2015-04-21/b00000257_21i7lf_20150421_122937e.jpg'
p2211
sg4
(lp2212
(g15
g6
(g18
S'=\xd8i?'
p2213
tp2214
Rp2215
tp2216
a(g68
g6
(g18
S'+\xb3\xf6<'
p2217
tp2218
Rp2219
tp2220
a(g32
g6
(g18
S'\x14\x84\x9b<'
p2221
tp2222
Rp2223
tp2224
a(g570
g6
(g18
S' :\x86<'
p2225
tp2226
Rp2227
tp2228
a(g119
g6
(g18
S'4,Z<'
p2229
tp2230
Rp2231
tp2232
asg73
g15
sa(dp2233
g2
S'../../../data/emanuela/activity-recognition/images/NTCIR-Lifelog-256/u2/2015-04-29/b00000390_21i7lf_20150429_112915e.jpg'
p2234
sg4
(lp2235
(g15
g6
(g18
S'\xeb\xd1p?'
p2236
tp2237
Rp2238
tp2239
a(g32
g6
(g18
S'\xae\x1b\xb8<'
p2240
tp2241
Rp2242
tp2243
a(g68
g6
(g18
S'M\x80\xae<'
p2244
tp2245
Rp2246
tp2247
a(g119
g6
(g18
S'?\xf6#<'
p2248
tp2249
Rp2250
tp2251
a(g56
g6
(g18
S'\x11d\xcb:'
p2252
tp2253
Rp2254
tp2255
asg73
g15
sa(dp2256
g2
S'../../../data/emanuela/activity-recognition/images/NTCIR-Lifelog-256/u2/2015-04-21/b00000250_21i7lf_20150421_122516e.jpg'
p2257
sg4
(lp2258
(g197
g6
(g18
S'\xec\r\xeb>'
p2259
tp2260
Rp2261
tp2262
a(g15
g6
(g18
S')\x01T>'
p2263
tp2264
Rp2265
tp2266
a(g119
g6
(g18
S'\xb2\xf3\xe9='
p2267
tp2268
Rp2269
tp2270
a(g181
g6
(g18
S'\x0c<\xa8='
p2271
tp2272
Rp2273
tp2274
a(g1963
g6
(g18
S'A\x99\xce<'
p2275
tp2276
Rp2277
tp2278
asg73
g15
sa(dp2279
g2
S'../../../data/emanuela/activity-recognition/images/NTCIR-Lifelog-256/u1/2015-02-26/b00000365_21i6bq_20150226_101454e.jpg'
p2280
sg4
(lp2281
(g119
g6
(g18
S'Vi\xce>'
p2282
tp2283
Rp2284
tp2285
a(g15
g6
(g18
S'_Kn>'
p2286
tp2287
Rp2288
tp2289
a(g68
g6
(g18
S'(\x0e\x0f>'
p2290
tp2291
Rp2292
tp2293
a(g32
g6
(g18
S'\xf8V\xb7='
p2294
tp2295
Rp2296
tp2297
a(g56
g6
(g18
S'`Mq='
p2298
tp2299
Rp2300
tp2301
asg73
g15
sa(dp2302
g2
S'../../../data/emanuela/activity-recognition/images/NTCIR-Lifelog-256/u2/2015-04-29/b00000332_21i7lf_20150429_105341e.jpg'
p2303
sg4
(lp2304
(g15
g6
(g18
S'\xedvz?'
p2305
tp2306
Rp2307
tp2308
a(g32
g6
(g18
S'\xb5n\x97<'
p2309
tp2310
Rp2311
tp2312
a(g44
g6
(g18
S'\x82\xe7\x98:'
p2313
tp2314
Rp2315
tp2316
a(g56
g6
(g18
S"\xf8\xa2':"
p2317
tp2318
Rp2319
tp2320
a(g68
g6
(g18
S'\xefR\x1c:'
p2321
tp2322
Rp2323
tp2324
asg73
g15
sa(dp2325
g2
S'../../../data/emanuela/activity-recognition/images/NTCIR-Lifelog-256/u1/2015-03-17/b00000434_21i6bq_20150317_124820e.jpg'
p2326
sg4
(lp2327
(g15
g6
(g18
S'[\x1by?'
p2328
tp2329
Rp2330
tp2331
a(g162
g6
(g18
S'\x8f\xbdP<'
p2332
tp2333
Rp2334
tp2335
a(g44
g6
(g18
S'\x03\xd7\x8e;'
p2336
tp2337
Rp2338
tp2339
a(g228
g6
(g18
S'i\x1ak;'
p2340
tp2341
Rp2342
tp2343
a(g32
g6
(g18
S' 8\xf3:'
p2344
tp2345
Rp2346
tp2347
asg73
g15
sa(dp2348
g2
S'../../../data/emanuela/activity-recognition/images/NTCIR-Lifelog-256/u2/2015-04-29/b00000432_21i7lf_20150429_115519e.jpg'
p2349
sg4
(lp2350
(g15
g6
(g18
S'\r_~?'
p2351
tp2352
Rp2353
tp2354
a(g32
g6
(g18
S'?\xa3i;'
p2355
tp2356
Rp2357
tp2358
a(g44
g6
(g18
S'\x8d$\x8b:'
p2359
tp2360
Rp2361
tp2362
a(g56
g6
(g18
S'gtb:'
p2363
tp2364
Rp2365
tp2366
a(g68
g6
(g18
S'*\xa6\xaa9'
p2367
tp2368
Rp2369
tp2370
asg73
g15
sa(dp2371
g2
S'../../../data/emanuela/activity-recognition/images/NTCIR-Lifelog-256/u1/2015-03-04/b00001157_21i6bq_20150304_190038e.jpg'
p2372
sg4
(lp2373
(g15
g6
(g18
S'/\xb8X?'
p2374
tp2375
Rp2376
tp2377
a(g119
g6
(g18
S'\xfd\xbd\xd9='
p2378
tp2379
Rp2380
tp2381
a(g197
g6
(g18
S'\xbe\x16\x07='
p2382
tp2383
Rp2384
tp2385
a(g68
g6
(g18
S'\x1b:\x0f<'
p2386
tp2387
Rp2388
tp2389
a(g32
g6
(g18
S'\xf3\x04\x01;'
p2390
tp2391
Rp2392
tp2393
asg73
g15
sa(dp2394
g2
S'../../../data/emanuela/activity-recognition/images/NTCIR-Lifelog-256/u1/2015-02-25/b00000498_21i6bq_20150225_110935e.jpg'
p2395
sg4
(lp2396
(g15
g6
(g18
S'\xfcBu?'
p2397
tp2398
Rp2399
tp2400
a(g119
g6
(g18
S'\xc9\xd8\xad<'
p2401
tp2402
Rp2403
tp2404
a(g68
g6
(g18
S'q(\x1d<'
p2405
tp2406
Rp2407
tp2408
a(g181
g6
(g18
S'\x14P\xc2;'
p2409
tp2410
Rp2411
tp2412
a(g32
g6
(g18
S')\xdc\xb8:'
p2413
tp2414
Rp2415
tp2416
asg73
g15
sa(dp2417
g2
S'../../../data/emanuela/activity-recognition/images/NTCIR-Lifelog-256/u2/2015-04-23/b00001168_21i7lf_20150423_133834e.jpg'
p2418
sg4
(lp2419
(g15
g6
(g18
S'\xde\x87h?'
p2420
tp2421
Rp2422
tp2423
a(g32
g6
(g18
S'\xf8\x81\x7f='
p2424
tp2425
Rp2426
tp2427
a(g570
g6
(g18
S'\xd1:#<'
p2428
tp2429
Rp2430
tp2431
a(g68
g6
(g18
S'\xcd\xab\xa5;'
p2432
tp2433
Rp2434
tp2435
a(g44
g6
(g18
S'\xbe\x9e\x98;'
p2436
tp2437
Rp2438
tp2439
asg73
g15
sa(dp2440
g2
S'../../../data/emanuela/activity-recognition/images/NTCIR-Lifelog-256/u2/2015-04-23/b00001218_21i7lf_20150423_141808e.jpg'
p2441
sg4
(lp2442
(g15
g6
(g18
S'Z\xcc}?'
p2443
tp2444
Rp2445
tp2446
a(g32
g6
(g18
S'"Rf;'
p2447
tp2448
Rp2449
tp2450
a(g397
g6
(g18
S'\n%\xd7:'
p2451
tp2452
Rp2453
tp2454
a(g44
g6
(g18
S'\xe5">:'
p2455
tp2456
Rp2457
tp2458
a(g146
g6
(g18
S'\xfa\xcf8:'
p2459
tp2460
Rp2461
tp2462
asg73
g15
sa(dp2463
g2
S'../../../data/emanuela/activity-recognition/images/NTCIR-Lifelog-256/u1/2015-03-04/b00001088_21i6bq_20150304_181835e.jpg'
p2464
sg4
(lp2465
(g15
g6
(g18
S'7\xe8i?'
p2466
tp2467
Rp2468
tp2469
a(g181
g6
(g18
S'\xe3\xcep='
p2470
tp2471
Rp2472
tp2473
a(g197
g6
(g18
S'\x0c\xa2\xb5<'
p2474
tp2475
Rp2476
tp2477
a(g68
g6
(g18
S'\xe0)\xb8:'
p2478
tp2479
Rp2480
tp2481
a(g119
g6
(g18
S'l\x0c\x86:'
p2482
tp2483
Rp2484
tp2485
asg73
g15
sa(dp2486
g2
S'../../../data/emanuela/activity-recognition/images/NTCIR-Lifelog-256/u2/2015-05-07/b00007422_21i7lf_20150507_094732e.jpg'
p2487
sg4
(lp2488
(g15
g6
(g18
S'0\xe0{?'
p2489
tp2490
Rp2491
tp2492
a(g32
g6
(g18
S'\xd5\xe05<'
p2493
tp2494
Rp2495
tp2496
a(g68
g6
(g18
S'T\x99\xd8:'
p2497
tp2498
Rp2499
tp2500
a(g44
g6
(g18
S'\xa7\xd0\x9b:'
p2501
tp2502
Rp2503
tp2504
a(g56
g6
(g18
S'\x07\xb2\x80:'
p2505
tp2506
Rp2507
tp2508
asg73
g15
sa(dp2509
g2
S'../../../data/emanuela/activity-recognition/images/NTCIR-Lifelog-256/u2/2015-04-29/b00000316_21i7lf_20150429_104353e.jpg'
p2510
sg4
(lp2511
(g15
g6
(g18
S'3A\x7f?'
p2512
tp2513
Rp2514
tp2515
a(g32
g6
(g18
S'\xaa:\x14;'
p2516
tp2517
Rp2518
tp2519
a(g44
g6
(g18
S'\xa8\xf2\xa09'
p2520
tp2521
Rp2522
tp2523
a(g56
g6
(g18
S'\x01\x14\xc88'
p2524
tp2525
Rp2526
tp2527
a(g162
g6
(g18
S'\x85W\xa58'
p2528
tp2529
Rp2530
tp2531
asg73
g15
sa(dp2532
g2
S'../../../data/emanuela/activity-recognition/images/NTCIR-Lifelog-256/u1/2015-02-25/b00000410_21i6bq_20150225_101446e.jpg'
p2533
sg4
(lp2534
(g15
g6
(g18
S'rNu?'
p2535
tp2536
Rp2537
tp2538
a(g119
g6
(g18
S'\x1bS\xa9<'
p2539
tp2540
Rp2541
tp2542
a(g68
g6
(g18
S'\xc6u@<'
p2543
tp2544
Rp2545
tp2546
a(g181
g6
(g18
S'\xd1\xef\xf3;'
p2547
tp2548
Rp2549
tp2550
a(g197
g6
(g18
S'8\x91 :'
p2551
tp2552
Rp2553
tp2554
asg73
g15
sa(dp2555
g2
S'../../../data/emanuela/activity-recognition/images/NTCIR-Lifelog-256/u1/2015-03-17/b00000878_21i6bq_20150317_165333e.jpg'
p2556
sg4
(lp2557
(g15
g6
(g18
S'`\xd5{?'
p2558
tp2559
Rp2560
tp2561
a(g44
g6
(g18
S'+\x88l;'
p2562
tp2563
Rp2564
tp2565
a(g32
g6
(g18
S'\x92N$;'
p2566
tp2567
Rp2568
tp2569
a(g228
g6
(g18
S'O\x1d\xc6:'
p2570
tp2571
Rp2572
tp2573
a(g197
g6
(g18
S'h\x8e\xc2:'
p2574
tp2575
Rp2576
tp2577
asg73
g15
sa(dp2578
g2
S'../../../data/emanuela/activity-recognition/images/NTCIR-Lifelog-256/u2/2015-05-07/b00007426_21i7lf_20150507_095005e.jpg'
p2579
sg4
(lp2580
(g15
g6
(g18
S'z\xe3~?'
p2581
tp2582
Rp2583
tp2584
a(g32
g6
(g18
S'\x07W\x15;'
p2585
tp2586
Rp2587
tp2588
a(g44
g6
(g18
S'\x9f\x87\xaf:'
p2589
tp2590
Rp2591
tp2592
a(g68
g6
(g18
S"'\x9c&9"
p2593
tp2594
Rp2595
tp2596
a(g56
g6
(g18
S'\xd5\xac\x189'
p2597
tp2598
Rp2599
tp2600
asg73
g15
sa(dp2601
g2
S'../../../data/emanuela/activity-recognition/images/NTCIR-Lifelog-256/u1/2015-03-17/b00000828_21i6bq_20150317_162136e.jpg'
p2602
sg4
(lp2603
(g15
g6
(g18
S'P\x14~?'
p2604
tp2605
Rp2606
tp2607
a(g32
g6
(g18
S'\xf8\xb5V;'
p2608
tp2609
Rp2610
tp2611
a(g228
g6
(g18
S'\x8et\xcd:'
p2612
tp2613
Rp2614
tp2615
a(g44
g6
(g18
S'~\xbd):'
p2616
tp2617
Rp2618
tp2619
a(g397
g6
(g18
S'\x82\xaf\x0f:'
p2620
tp2621
Rp2622
tp2623
asg73
g15
sa(dp2624
g2
S'../../../data/emanuela/activity-recognition/images/NTCIR-Lifelog-256/u2/2015-04-29/b00000337_21i7lf_20150429_105655e.jpg'
p2625
sg4
(lp2626
(g15
g6
(g18
S'\x1e\x80s?'
p2627
tp2628
Rp2629
tp2630
a(g32
g6
(g18
S'|\xd2\x08='
p2631
tp2632
Rp2633
tp2634
a(g44
g6
(g18
S'^^\x1c<'
p2635
tp2636
Rp2637
tp2638
a(g68
g6
(g18
S'To\xcb:'
p2639
tp2640
Rp2641
tp2642
a(g56
g6
(g18
S'A\x96\xbf:'
p2643
tp2644
Rp2645
tp2646
asg73
g15
sa(dp2647
g2
S'../../../data/emanuela/activity-recognition/images/NTCIR-Lifelog-256/u1/2015-02-26/b00000351_21i6bq_20150226_100620e.jpg'
p2648
sg4
(lp2649
(g15
g6
(g18
S'\xde\xf1}?'
p2650
tp2651
Rp2652
tp2653
a(g119
g6
(g18
S'\xb8\xdd\x99;'
p2654
tp2655
Rp2656
tp2657
a(g44
g6
(g18
S'\r\x1c\x12;'
p2658
tp2659
Rp2660
tp2661
a(g68
g6
(g18
S'r\xd7\xa89'
p2662
tp2663
Rp2664
tp2665
a(g228
g6
(g18
S'\xe0uX9'
p2666
tp2667
Rp2668
tp2669
asg73
g15
sa(dp2670
g2
S'../../../data/emanuela/activity-recognition/images/NTCIR-Lifelog-256/u2/2015-04-29/b00000323_21i7lf_20150429_104822e.jpg'
p2671
sg4
(lp2672
(g15
g6
(g18
S'T\xb9}?'
p2673
tp2674
Rp2675
tp2676
a(g32
g6
(g18
S'0\xb4\xe8;'
p2677
tp2678
Rp2679
tp2680
a(g44
g6
(g18
S'\x9b\xd4\xa5:'
p2681
tp2682
Rp2683
tp2684
a(g56
g6
(g18
S'\x87\xd5\x0e9'
p2685
tp2686
Rp2687
tp2688
a(g68
g6
(g18
S'\x1e\xd6\xf98'
p2689
tp2690
Rp2691
tp2692
asg73
g15
sa(dp2693
g2
S'../../../data/emanuela/activity-recognition/images/NTCIR-Lifelog-256/u1/2015-03-04/b00001075_21i6bq_20150304_180946e.jpg'
p2694
sg4
(lp2695
(g15
g6
(g18
S'\x11\xad~?'
p2696
tp2697
Rp2698
tp2699
a(g181
g6
(g18
S'\x11g@;'
p2700
tp2701
Rp2702
tp2703
a(g119
g6
(g18
S'\xc8\xec!:'
p2704
tp2705
Rp2706
tp2707
a(g197
g6
(g18
S'\x97\xb2\xf09'
p2708
tp2709
Rp2710
tp2711
a(g68
g6
(g18
S'\xd7&\xae9'
p2712
tp2713
Rp2714
tp2715
asg73
g15
sa(dp2716
g2
S'../../../data/emanuela/activity-recognition/images/NTCIR-Lifelog-256/u2/2015-04-29/b00000302_21i7lf_20150429_103517e.jpg'
p2717
sg4
(lp2718
(g15
g6
(g18
S')A\x7f?'
p2719
tp2720
Rp2721
tp2722
a(g32
g6
(g18
S'\x8b\xc2#;'
p2723
tp2724
Rp2725
tp2726
a(g44
g6
(g18
S'}\x93\x059'
p2727
tp2728
Rp2729
tp2730
a(g119
g6
(g18
S'\xcd=\x019'
p2731
tp2732
Rp2733
tp2734
a(g56
g6
(g18
S'w\xffP8'
p2735
tp2736
Rp2737
tp2738
asg73
g15
sa(dp2739
g2
S'../../../data/emanuela/activity-recognition/images/NTCIR-Lifelog-256/u2/2015-04-21/b00000273_21i7lf_20150421_123919e.jpg'
p2740
sg4
(lp2741
(g15
g6
(g18
S'\xcfB\xfa>'
p2742
tp2743
Rp2744
tp2745
a(g228
g6
(g18
S'\xe8\x03\xef='
p2746
tp2747
Rp2748
tp2749
a(g570
g6
(g18
S'\xc3\xa0\xce='
p2750
tp2751
Rp2752
tp2753
a(g32
g6
(g18
S'\\\x0f\x93='
p2754
tp2755
Rp2756
tp2757
a(g56
g6
(g18
S'h\xa6\x0b='
p2758
tp2759
Rp2760
tp2761
asg73
g15
sa(dp2762
g2
S'../../../data/emanuela/activity-recognition/images/NTCIR-Lifelog-256/u1/2015-03-17/b00000799_21i6bq_20150317_160407e.jpg'
p2763
sg4
(lp2764
(g15
g6
(g18
S'\xb5\xed\x7f?'
p2765
tp2766
Rp2767
tp2768
a(g32
g6
(g18
S'\xed\x02\x9f8'
p2769
tp2770
Rp2771
tp2772
a(g44
g6
(g18
S'<\x87\x908'
p2773
tp2774
Rp2775
tp2776
a(g228
g6
(g18
S'\xd7\xfb18'
p2777
tp2778
Rp2779
tp2780
a(g397
g6
(g18
S'\x81z\xe17'
p2781
tp2782
Rp2783
tp2784
asg73
g15
sa(dp2785
g2
S'../../../data/emanuela/activity-recognition/images/NTCIR-Lifelog-256/u2/2015-04-23/b00001143_21i7lf_20150423_132003e.jpg'
p2786
sg4
(lp2787
(g15
g6
(g18
S'\xb0\xbdw?'
p2788
tp2789
Rp2790
tp2791
a(g570
g6
(g18
S'\xfd\x04\xbd;'
p2792
tp2793
Rp2794
tp2795
a(g68
g6
(g18
S'\x97P\x9e;'
p2796
tp2797
Rp2798
tp2799
a(g32
g6
(g18
S'"\x98\x92;'
p2800
tp2801
Rp2802
tp2803
a(g44
g6
(g18
S'\x98\xfa\x8d;'
p2804
tp2805
Rp2806
tp2807
asg73
g15
sa(dp2808
g2
S'../../../data/emanuela/activity-recognition/images/NTCIR-Lifelog-256/u1/2015-02-26/b00000370_21i6bq_20150226_101802e.jpg'
p2809
sg4
(lp2810
(g32
g6
(g18
S'\x85l\xcd>'
p2811
tp2812
Rp2813
tp2814
a(g68
g6
(g18
S'@B\x98>'
p2815
tp2816
Rp2817
tp2818
a(g397
g6
(g18
S'~\x91\xab='
p2819
tp2820
Rp2821
tp2822
a(g15
g6
(g18
S'\x1f&Q='
p2823
tp2824
Rp2825
tp2826
a(g56
g6
(g18
S'\x80dD='
p2827
tp2828
Rp2829
tp2830
asg73
g15
sa(dp2831
g2
S'../../../data/emanuela/activity-recognition/images/NTCIR-Lifelog-256/u1/2015-02-25/b00000441_21i6bq_20150225_103405e.jpg'
p2832
sg4
(lp2833
(g15
g6
(g18
S"'#~?"
p2834
tp2835
Rp2836
tp2837
a(g119
g6
(g18
S'T2\x85;'
p2838
tp2839
Rp2840
tp2841
a(g68
g6
(g18
S'u\xd4\x01;'
p2842
tp2843
Rp2844
tp2845
a(g181
g6
(g18
S'\xa6\r\xfa9'
p2846
tp2847
Rp2848
tp2849
a(g32
g6
(g18
S'T\x19d9'
p2850
tp2851
Rp2852
tp2853
asg73
g15
sa(dp2854
g2
S'../../../data/emanuela/activity-recognition/images/NTCIR-Lifelog-256/u1/2015-03-04/b00000446_21i6bq_20150304_112139e.jpg'
p2855
sg4
(lp2856
(g15
g6
(g18
S'\xe0M\x7f?'
p2857
tp2858
Rp2859
tp2860
a(g44
g6
(g18
S'.\x08\xd8:'
p2861
tp2862
Rp2863
tp2864
a(g119
g6
(g18
S'\xbc\xf2\xb19'
p2865
tp2866
Rp2867
tp2868
a(g197
g6
(g18
S'\xdc\xa3\x819'
p2869
tp2870
Rp2871
tp2872
a(g162
g6
(g18
S'\x9d\x14\xf48'
p2873
tp2874
Rp2875
tp2876
asg73
g15
sa(dp2877
g2
S'../../../data/emanuela/activity-recognition/images/NTCIR-Lifelog-256/u1/2015-03-04/b00001113_21i6bq_20150304_183349e.jpg'
p2878
sg4
(lp2879
(g15
g6
(g18
S'3od?'
p2880
tp2881
Rp2882
tp2883
a(g32
g6
(g18
S'\xb3\x11R='
p2884
tp2885
Rp2886
tp2887
a(g68
g6
(g18
S'\x97\xa6\xf7<'
p2888
tp2889
Rp2890
tp2891
a(g119
g6
(g18
S'\x14\xf0\x0c<'
p2892
tp2893
Rp2894
tp2895
a(g162
g6
(g18
S',*D;'
p2896
tp2897
Rp2898
tp2899
asg73
g15
sa(dp2900
g2
S'../../../data/emanuela/activity-recognition/images/NTCIR-Lifelog-256/u1/2015-03-04/b00001171_21i6bq_20150304_191409e.jpg'
p2901
sg4
(lp2902
(g15
g6
(g18
S'p\xe0\x7f?'
p2903
tp2904
Rp2905
tp2906
a(g32
g6
(g18
S'_\x1aS9'
p2907
tp2908
Rp2909
tp2910
a(g197
g6
(g18
S'[3\x069'
p2911
tp2912
Rp2913
tp2914
a(g44
g6
(g18
S'\x97\xf0\x9e8'
p2915
tp2916
Rp2917
tp2918
a(g119
g6
(g18
S'\xc7\x1e\xc97'
p2919
tp2920
Rp2921
tp2922
asg73
g15
sa(dp2923
g2
S'../../../data/emanuela/activity-recognition/images/NTCIR-Lifelog-256/u1/2015-03-04/b00001125_21i6bq_20150304_184116e.jpg'
p2924
sg4
(lp2925
(g15
g6
(g18
S'p?t?'
p2926
tp2927
Rp2928
tp2929
a(g181
g6
(g18
S'/\xb0\x10='
p2930
tp2931
Rp2932
tp2933
a(g197
g6
(g18
S'U\xab\xad;'
p2934
tp2935
Rp2936
tp2937
a(g44
g6
(g18
S'\x1c[\xb6:'
p2938
tp2939
Rp2940
tp2941
a(g119
g6
(g18
S'*\x7fW:'
p2942
tp2943
Rp2944
tp2945
asg73
g15
sa(dp2946
g2
S'../../../data/emanuela/activity-recognition/images/NTCIR-Lifelog-256/u2/2015-04-29/b00000384_21i7lf_20150429_112533e.jpg'
p2947
sg4
(lp2948
(g68
g6
(g18
S'n#)?'
p2949
tp2950
Rp2951
tp2952
a(g15
g6
(g18
S'Xw\x0c>'
p2953
tp2954
Rp2955
tp2956
a(g119
g6
(g18
S'\xb8\xb5\xfa='
p2957
tp2958
Rp2959
tp2960
a(g32
g6
(g18
S'd\x91!='
p2961
tp2962
Rp2963
tp2964
a(g44
g6
(g18
S'\xd9\x81\xef<'
p2965
tp2966
Rp2967
tp2968
asg73
g15
sa(dp2969
g2
S'../../../data/emanuela/activity-recognition/images/NTCIR-Lifelog-256/u1/2015-03-17/b00000405_21i6bq_20150317_122740e.jpg'
p2970
sg4
(lp2971
(g15
g6
(g18
S'\xc8yy?'
p2972
tp2973
Rp2974
tp2975
a(g228
g6
(g18
S'$k\xc1;'
p2976
tp2977
Rp2978
tp2979
a(g44
g6
(g18
S'\xc2}];'
p2980
tp2981
Rp2982
tp2983
a(g197
g6
(g18
S'\xb3\r.;'
p2984
tp2985
Rp2986
tp2987
a(g32
g6
(g18
S'\xfb\xd9\x1d;'
p2988
tp2989
Rp2990
tp2991
asg73
g15
sa(dp2992
g2
S'../../../data/emanuela/activity-recognition/images/NTCIR-Lifelog-256/u2/2015-04-21/b00000249_21i7lf_20150421_122441e.jpg'
p2993
sg4
(lp2994
(g15
g6
(g18
S'\xccV\x81>'
p2995
tp2996
Rp2997
tp2998
a(g197
g6
(g18
S'\x19\xceI>'
p2999
tp3000
Rp3001
tp3002
a(g181
g6
(g18
S'(g\x1e>'
p3003
tp3004
Rp3005
tp3006
a(g1660
g6
(g18
S'\xf9\xa5\x8f='
p3007
tp3008
Rp3009
tp3010
a(g44
g6
(g18
S'8\xa3\x88='
p3011
tp3012
Rp3013
tp3014
asg73
g15
sa(dp3015
g2
S'../../../data/emanuela/activity-recognition/images/NTCIR-Lifelog-256/u1/2015-03-04/b00001074_21i6bq_20150304_180907e.jpg'
p3016
sg4
(lp3017
(g15
g6
(g18
S'Hd}?'
p3018
tp3019
Rp3020
tp3021
a(g119
g6
(g18
S'\x19\xbf\x96;'
p3022
tp3023
Rp3024
tp3025
a(g181
g6
(g18
S'4\xf6\x82;'
p3026
tp3027
Rp3028
tp3029
a(g197
g6
(g18
S'\xd4r\xf29'
p3030
tp3031
Rp3032
tp3033
a(g68
g6
(g18
S'Cc\xd39'
p3034
tp3035
Rp3036
tp3037
asg73
g15
sa(dp3038
g2
S'../../../data/emanuela/activity-recognition/images/NTCIR-Lifelog-256/u2/2015-04-23/b00001159_21i7lf_20150423_133033e.jpg'
p3039
sg4
(lp3040
(g15
g6
(g18
S'}&z?'
p3041
tp3042
Rp3043
tp3044
a(g570
g6
(g18
S'\xbf\xef\x9c<'
p3045
tp3046
Rp3047
tp3048
a(g32
g6
(g18
S'\xec\x1eN;'
p3049
tp3050
Rp3051
tp3052
a(g44
g6
(g18
S'\x10bA9'
p3053
tp3054
Rp3055
tp3056
a(g68
g6
(g18
S'{C\x059'
p3057
tp3058
Rp3059
tp3060
asg73
g15
sa(dp3061
g2
S'../../../data/emanuela/activity-recognition/images/NTCIR-Lifelog-256/u2/2015-04-21/b00000261_21i7lf_20150421_123205e.jpg'
p3062
sg4
(lp3063
(g15
g6
(g18
S'\xdb\xd4\xcf>'
p3064
tp3065
Rp3066
tp3067
a(g570
g6
(g18
S"\xb9\x90'>"
p3068
tp3069
Rp3070
tp3071
a(g68
g6
(g18
S'<8\xa6='
p3072
tp3073
Rp3074
tp3075
a(g181
g6
(g18
S'\xd6\xcd\x89='
p3076
tp3077
Rp3078
tp3079
a(g32
g6
(g18
S'\xfd\xd7c='
p3080
tp3081
Rp3082
tp3083
asg73
g15
sa(dp3084
g2
S'../../../data/emanuela/activity-recognition/images/NTCIR-Lifelog-256/u2/2015-04-29/b00000334_21i7lf_20150429_105455e.jpg'
p3085
sg4
(lp3086
(g15
g6
(g18
S'^\xef}?'
p3087
tp3088
Rp3089
tp3090
a(g32
g6
(g18
S'\xdf\xe0\xa1;'
p3091
tp3092
Rp3093
tp3094
a(g44
g6
(g18
S'\xee\x82\x96:'
p3095
tp3096
Rp3097
tp3098
a(g68
g6
(g18
S'\xcf^5:'
p3099
tp3100
Rp3101
tp3102
a(g119
g6
(g18
S'\x0bs\x07:'
p3103
tp3104
Rp3105
tp3106
asg73
g15
sa(dp3107
g2
S'../../../data/emanuela/activity-recognition/images/NTCIR-Lifelog-256/u1/2015-03-17/b00000738_21i6bq_20150317_153154e.jpg'
p3108
sg4
(lp3109
(g15
g6
(g18
S'\xd5\xa3\x7f?'
p3110
tp3111
Rp3112
tp3113
a(g44
g6
(g18
S'\x12+\x85:'
p3114
tp3115
Rp3116
tp3117
a(g32
g6
(g18
S'\x1b\xe0I9'
p3118
tp3119
Rp3120
tp3121
a(g228
g6
(g18
S'1\xb6l8'
p3122
tp3123
Rp3124
tp3125
a(g397
g6
(g18
S'\xb48C8'
p3126
tp3127
Rp3128
tp3129
asg73
g15
sa(dp3130
g2
S'../../../data/emanuela/activity-recognition/images/NTCIR-Lifelog-256/u2/2015-05-07/b00007440_21i7lf_20150507_100145e.jpg'
p3131
sg4
(lp3132
(g15
g6
(g18
S'\xcd:q?'
p3133
tp3134
Rp3135
tp3136
a(g32
g6
(g18
S'\xa4\xd8J='
p3137
tp3138
Rp3139
tp3140
a(g68
g6
(g18
S'\xe1\xb8\x1d;'
p3141
tp3142
Rp3143
tp3144
a(g397
g6
(g18
S'\xf5\xa3\x1b;'
p3145
tp3146
Rp3147
tp3148
a(g56
g6
(g18
S'\xd1`\x19;'
p3149
tp3150
Rp3151
tp3152
asg73
g15
sa(dp3153
g2
S'../../../data/emanuela/activity-recognition/images/NTCIR-Lifelog-256/u1/2015-03-17/b00000430_21i6bq_20150317_124602e.jpg'
p3154
sg4
(lp3155
(g15
g6
(g18
S'H\xc4}?'
p3156
tp3157
Rp3158
tp3159
a(g44
g6
(g18
S'a-,;'
p3160
tp3161
Rp3162
tp3163
a(g162
g6
(g18
S'\x1c\x85\n;'
p3164
tp3165
Rp3166
tp3167
a(g32
g6
(g18
S'f>\xa4:'
p3168
tp3169
Rp3170
tp3171
a(g228
g6
(g18
S'\xe3N\x96:'
p3172
tp3173
Rp3174
tp3175
asg73
g15
sa(dp3176
g2
S'../../../data/emanuela/activity-recognition/images/NTCIR-Lifelog-256/u1/2015-03-17/b00000381_21i6bq_20150317_121051e.jpg'
p3177
sg4
(lp3178
(g15
g6
(g18
S'XJ}?'
p3179
tp3180
Rp3181
tp3182
a(g197
g6
(g18
S'\xa8\x81 ;'
p3183
tp3184
Rp3185
tp3186
a(g228
g6
(g18
S'O\x14 ;'
p3187
tp3188
Rp3189
tp3190
a(g32
g6
(g18
S'\x87\x1f\xdb:'
p3191
tp3192
Rp3193
tp3194
a(g44
g6
(g18
S'\xbc\r?:'
p3195
tp3196
Rp3197
tp3198
asg73
g15
sa(dp3199
g2
S'../../../data/emanuela/activity-recognition/images/NTCIR-Lifelog-256/u2/2015-05-07/b00007427_21i7lf_20150507_095038e.jpg'
p3200
sg4
(lp3201
(g15
g6
(g18
S'\xec!z?'
p3202
tp3203
Rp3204
tp3205
a(g32
g6
(g18
S'~g\x89<'
p3206
tp3207
Rp3208
tp3209
a(g44
g6
(g18
S'\xa0p;;'
p3210
tp3211
Rp3212
tp3213
a(g68
g6
(g18
S'\x85\x03\xa4:'
p3214
tp3215
Rp3216
tp3217
a(g56
g6
(g18
S' }D:'
p3218
tp3219
Rp3220
tp3221
asg73
g15
sa(dp3222
g2
S'../../../data/emanuela/activity-recognition/images/NTCIR-Lifelog-256/u2/2015-05-07/b00007452_21i7lf_20150507_100859e.jpg'
p3223
sg4
(lp3224
(g15
g6
(g18
S'\x1a1{?'
p3225
tp3226
Rp3227
tp3228
a(g32
g6
(g18
S'A\x98W<'
p3229
tp3230
Rp3231
tp3232
a(g56
g6
(g18
S'\x83\x1fD;'
p3233
tp3234
Rp3235
tp3236
a(g44
g6
(g18
S'BI\xa8:'
p3237
tp3238
Rp3239
tp3240
a(g397
g6
(g18
S'\x80\xef\xd69'
p3241
tp3242
Rp3243
tp3244
asg73
g15
sa(dp3245
g2
S'../../../data/emanuela/activity-recognition/images/NTCIR-Lifelog-256/u2/2015-04-23/b00001191_21i7lf_20150423_135856e.jpg'
p3246
sg4
(lp3247
(g15
g6
(g18
S'\xb0\xa4A?'
p3248
tp3249
Rp3250
tp3251
a(g146
g6
(g18
S'a\xda5>'
p3252
tp3253
Rp3254
tp3255
a(g32
g6
(g18
S'p\x8b\xe3<'
p3256
tp3257
Rp3258
tp3259
a(g44
g6
(g18
S'\xb6:Q<'
p3260
tp3261
Rp3262
tp3263
a(g6
(g7
(S'S15'
p3264
I0
I1
tp3265
Rp3266
(I3
S'|'
p3267
NNNI15
I1
I0
tp3268
bS'walking outdoor'
p3269
tp3270
Rp3271
g6
(g18
S'\xdag\x81;'
p3272
tp3273
Rp3274
tp3275
asg73
g15
sa(dp3276
g2
S'../../../data/emanuela/activity-recognition/images/NTCIR-Lifelog-256/u2/2015-04-29/b00000421_21i7lf_20150429_114840e.jpg'
p3277
sg4
(lp3278
(g15
g6
(g18
S'\xa1\x12}?'
p3279
tp3280
Rp3281
tp3282
a(g32
g6
(g18
S'\xeb\xde\x96;'
p3283
tp3284
Rp3285
tp3286
a(g56
g6
(g18
S'\xd1(\x11;'
p3287
tp3288
Rp3289
tp3290
a(g119
g6
(g18
S'\xde\xc5\xda:'
p3291
tp3292
Rp3293
tp3294
a(g44
g6
(g18
S'VS\x86:'
p3295
tp3296
Rp3297
tp3298
asg73
g15
sa(dp3299
g2
S'../../../data/emanuela/activity-recognition/images/NTCIR-Lifelog-256/u1/2015-03-17/b00000440_21i6bq_20150317_125146e.jpg'
p3300
sg4
(lp3301
(g397
g6
(g18
S'\xf5q\xaa>'
p3302
tp3303
Rp3304
tp3305
a(g228
g6
(g18
S'!LA>'
p3306
tp3307
Rp3308
tp3309
a(g15
g6
(g18
S'\x90\xb3\xf5='
p3310
tp3311
Rp3312
tp3313
a(g32
g6
(g18
S'`\xb8\xeb='
p3314
tp3315
Rp3316
tp3317
a(g1069
g6
(g18
S"\xd4'\xdd="
p3318
tp3319
Rp3320
tp3321
asg73
g15
sa(dp3322
g2
S'../../../data/emanuela/activity-recognition/images/NTCIR-Lifelog-256/u2/2015-04-21/b00000235_21i7lf_20150421_121611e.jpg'
p3323
sg4
(lp3324
(g197
g6
(g18
S'\xa0C\xc8>'
p3325
tp3326
Rp3327
tp3328
a(g15
g6
(g18
S'\xe9\xa4\x96>'
p3329
tp3330
Rp3331
tp3332
a(g119
g6
(g18
S'\xad\x8bE>'
p3333
tp3334
Rp3335
tp3336
a(g68
g6
(g18
S'\xe9\x98\xe7<'
p3337
tp3338
Rp3339
tp3340
a(g181
g6
(g18
S'$\xcd\xb5<'
p3341
tp3342
Rp3343
tp3344
asg73
g15
sa(dp3345
g2
S'../../../data/emanuela/activity-recognition/images/NTCIR-Lifelog-256/u2/2015-04-23/b00001599_21i7lf_20150423_185352e.jpg'
p3346
sg4
(lp3347
(g15
g6
(g18
S'\xa9Q\x7f?'
p3348
tp3349
Rp3350
tp3351
a(g119
g6
(g18
S'\x81\xcd\xe2:'
p3352
tp3353
Rp3354
tp3355
a(g68
g6
(g18
S'^O\xa59'
p3356
tp3357
Rp3358
tp3359
a(g32
g6
(g18
S'A\x9e\x839'
p3360
tp3361
Rp3362
tp3363
a(g44
g6
(g18
S'J\x10X9'
p3364
tp3365
Rp3366
tp3367
asg73
g15
sa(dp3368
g2
S'../../../data/emanuela/activity-recognition/images/NTCIR-Lifelog-256/u1/2015-03-17/b00000772_21i6bq_20150317_154704e.jpg'
p3369
sg4
(lp3370
(g15
g6
(g18
S'\x1f\x8b\x7f?'
p3371
tp3372
Rp3373
tp3374
a(g32
g6
(g18
S'wA*:'
p3375
tp3376
Rp3377
tp3378
a(g228
g6
(g18
S'f@\xc59'
p3379
tp3380
Rp3381
tp3382
a(g44
g6
(g18
S'{\xfe<9'
p3383
tp3384
Rp3385
tp3386
a(g397
g6
(g18
S'\x93\xd2<9'
p3387
tp3388
Rp3389
tp3390
asg73
g15
sa(dp3391
g2
S'../../../data/emanuela/activity-recognition/images/NTCIR-Lifelog-256/u1/2015-02-25/b00000457_21i6bq_20150225_104340e.jpg'
p3392
sg4
(lp3393
(g15
g6
(g18
S'\xe8\xe8}?'
p3394
tp3395
Rp3396
tp3397
a(g181
g6
(g18
S'\x04@\xba;'
p3398
tp3399
Rp3400
tp3401
a(g119
g6
(g18
S'\xba\x89\x9c:'
p3402
tp3403
Rp3404
tp3405
a(g68
g6
(g18
S'\xb0|\xba9'
p3406
tp3407
Rp3408
tp3409
a(g570
g6
(g18
S'_\xe6v9'
p3410
tp3411
Rp3412
tp3413
asg73
g15
sa(dp3414
g2
S'../../../data/emanuela/activity-recognition/images/NTCIR-Lifelog-256/u2/2015-04-29/b00000408_21i7lf_20150429_114031e.jpg'
p3415
sg4
(lp3416
(g15
g6
(g18
S'\x91O~?'
p3417
tp3418
Rp3419
tp3420
a(g44
g6
(g18
S'\x96\x0eN;'
p3421
tp3422
Rp3423
tp3424
a(g32
g6
(g18
S'\xe0\x08\x1b;'
p3425
tp3426
Rp3427
tp3428
a(g162
g6
(g18
S'\xe7\xa5\x8a9'
p3429
tp3430
Rp3431
tp3432
a(g68
g6
(g18
S'\x81\xd8\x839'
p3433
tp3434
Rp3435
tp3436
asg73
g15
sa(dp3437
g2
S'../../../data/emanuela/activity-recognition/images/NTCIR-Lifelog-256/u1/2015-03-04/b00001104_21i6bq_20150304_182822e.jpg'
p3438
sg4
(lp3439
(g15
g6
(g18
S'\xd4$\x7f?'
p3440
tp3441
Rp3442
tp3443
a(g181
g6
(g18
S'\x13b\x02;'
p3444
tp3445
Rp3446
tp3447
a(g197
g6
(g18
S':\x1c\n:'
p3448
tp3449
Rp3450
tp3451
a(g119
g6
(g18
S'o\x1f\x9f9'
p3452
tp3453
Rp3454
tp3455
a(g44
g6
(g18
S'\x1e\xaf+9'
p3456
tp3457
Rp3458
tp3459
asg73
g15
sa(dp3460
g2
S'../../../data/emanuela/activity-recognition/images/NTCIR-Lifelog-256/u2/2015-04-23/b00001192_21i7lf_20150423_135929e.jpg'
p3461
sg4
(lp3462
(g15
g6
(g18
S'\xb0\x01\x05?'
p3463
tp3464
Rp3465
tp3466
a(g146
g6
(g18
S'\x0e\xbe\xda>'
p3467
tp3468
Rp3469
tp3470
a(g44
g6
(g18
S'\x15\xabS<'
p3471
tp3472
Rp3473
tp3474
a(g32
g6
(g18
S'6\x84F<'
p3475
tp3476
Rp3477
tp3478
a(g397
g6
(g18
S'5\x03\xbf;'
p3479
tp3480
Rp3481
tp3482
asg73
g15
sa(dp3483
g2
S'../../../data/emanuela/activity-recognition/images/NTCIR-Lifelog-256/u2/2015-04-29/b00000333_21i7lf_20150429_105416e.jpg'
p3484
sg4
(lp3485
(g15
g6
(g18
S'W\xa3}?'
p3486
tp3487
Rp3488
tp3489
a(g32
g6
(g18
S'\x12j\xf8;'
p3490
tp3491
Rp3492
tp3493
a(g44
g6
(g18
S'\xcf\x87\x19:'
p3494
tp3495
Rp3496
tp3497
a(g68
g6
(g18
S'\xa9\xc3\xb39'
p3498
tp3499
Rp3500
tp3501
a(g56
g6
(g18
S'\xe0\x10\xa19'
p3502
tp3503
Rp3504
tp3505
asg73
g15
sa(dp3506
g2
S'../../../data/emanuela/activity-recognition/images/NTCIR-Lifelog-256/u2/2015-04-29/b00000380_21i7lf_20150429_112305e.jpg'
p3507
sg4
(lp3508
(g15
g6
(g18
S'\xf4\xa4t?'
p3509
tp3510
Rp3511
tp3512
a(g32
g6
(g18
S'\xf5[\xc9<'
p3513
tp3514
Rp3515
tp3516
a(g56
g6
(g18
S'1=\xd1;'
p3517
tp3518
Rp3519
tp3520
a(g397
g6
(g18
S'!\xf2\x7f;'
p3521
tp3522
Rp3523
tp3524
a(g44
g6
(g18
S'T\x18r;'
p3525
tp3526
Rp3527
tp3528
asg73
g15
sa(dp3529
g2
S'../../../data/emanuela/activity-recognition/images/NTCIR-Lifelog-256/u1/2015-03-17/b00000873_21i6bq_20150317_165044e.jpg'
p3530
sg4
(lp3531
(g15
g6
(g18
S'\xbd\x83n?'
p3532
tp3533
Rp3534
tp3535
a(g32
g6
(g18
S'$K:='
p3536
tp3537
Rp3538
tp3539
a(g397
g6
(g18
S'\xcc;\xc0;'
p3540
tp3541
Rp3542
tp3543
a(g44
g6
(g18
S'\xb2\x08\xbb;'
p3544
tp3545
Rp3546
tp3547
a(g162
g6
(g18
S'(\x827;'
p3548
tp3549
Rp3550
tp3551
asg73
g15
sa(dp3552
g2
S'../../../data/emanuela/activity-recognition/images/NTCIR-Lifelog-256/u1/2015-03-17/b00000433_21i6bq_20150317_124749e.jpg'
p3553
sg4
(lp3554
(g15
g6
(g18
S'\x81\x83w?'
p3555
tp3556
Rp3557
tp3558
a(g44
g6
(g18
S'\x18\x8b"<'
p3559
tp3560
Rp3561
tp3562
a(g32
g6
(g18
S'\x1b\x15\xe2;'
p3563
tp3564
Rp3565
tp3566
a(g570
g6
(g18
S'\x17\xb8\xc0;'
p3567
tp3568
Rp3569
tp3570
a(g162
g6
(g18
S'z\xcc\x88;'
p3571
tp3572
Rp3573
tp3574
asg73
g15
sa(dp3575
g2
S'../../../data/emanuela/activity-recognition/images/NTCIR-Lifelog-256/u1/2015-03-04/b00001114_21i6bq_20150304_183423e.jpg'
p3576
sg4
(lp3577
(g15
g6
(g18
S'\xe5\xbe\x7f?'
p3578
tp3579
Rp3580
tp3581
a(g181
g6
(g18
S'\xcb\xf4\xe79'
p3582
tp3583
Rp3584
tp3585
a(g44
g6
(g18
S'\x0f\x0c$9'
p3586
tp3587
Rp3588
tp3589
a(g119
g6
(g18
S'\xd0\x14\x109'
p3590
tp3591
Rp3592
tp3593
a(g197
g6
(g18
S'/Y\xd68'
p3594
tp3595
Rp3596
tp3597
asg73
g15
sa(dp3598
g2
S'../../../data/emanuela/activity-recognition/images/NTCIR-Lifelog-256/u1/2015-03-17/b00000754_21i6bq_20150317_153614e.jpg'
p3599
sg4
(lp3600
(g15
g6
(g18
S'\x95\xcb\x7f?'
p3601
tp3602
Rp3603
tp3604
a(g44
g6
(g18
S'\xc9u\x979'
p3605
tp3606
Rp3607
tp3608
a(g32
g6
(g18
S'\xb9\x82\x8f9'
p3609
tp3610
Rp3611
tp3612
a(g228
g6
(g18
S'\xc1_|8'
p3613
tp3614
Rp3615
tp3616
a(g570
g6
(g18
S'@\xb1s8'
p3617
tp3618
Rp3619
tp3620
asg73
g15
sa(dp3621
g2
S'../../../data/emanuela/activity-recognition/images/NTCIR-Lifelog-256/u1/2015-03-04/b00000450_21i6bq_20150304_112411e.jpg'
p3622
sg4
(lp3623
(g15
g6
(g18
S'\x9f\x9e\x7f?'
p3624
tp3625
Rp3626
tp3627
a(g44
g6
(g18
S'\xe5\x9c\x88:'
p3628
tp3629
Rp3630
tp3631
a(g162
g6
(g18
S'\xae\n\x039'
p3632
tp3633
Rp3634
tp3635
a(g1963
g6
(g18
S'\xfe\x12\x988'
p3636
tp3637
Rp3638
tp3639
a(g228
g6
(g18
S'8\xd1\x858'
p3640
tp3641
Rp3642
tp3643
asg73
g15
sa(dp3644
g2
S'../../../data/emanuela/activity-recognition/images/NTCIR-Lifelog-256/u1/2015-03-17/b00000384_21i6bq_20150317_121246e.jpg'
p3645
sg4
(lp3646
(g15
g6
(g18
S'\xd6$\x7f?'
p3647
tp3648
Rp3649
tp3650
a(g32
g6
(g18
S'\xa9\xcfE:'
p3651
tp3652
Rp3653
tp3654
a(g228
g6
(g18
S'\x90\xe8\t:'
p3655
tp3656
Rp3657
tp3658
a(g162
g6
(g18
S'\xacP\xf99'
p3659
tp3660
Rp3661
tp3662
a(g44
g6
(g18
S'\x8an\xd89'
p3663
tp3664
Rp3665
tp3666
asg73
g15
sa(dp3667
g2
S'../../../data/emanuela/activity-recognition/images/NTCIR-Lifelog-256/u1/2015-03-04/b00001147_21i6bq_20150304_185431e.jpg'
p3668
sg4
(lp3669
(g15
g6
(g18
S'\x86FE?'
p3670
tp3671
Rp3672
tp3673
a(g32
g6
(g18
S'v\x9fA>'
p3674
tp3675
Rp3676
tp3677
a(g68
g6
(g18
S'\xa1(\x93<'
p3678
tp3679
Rp3680
tp3681
a(g119
g6
(g18
S'\x10\x03\x1d<'
p3682
tp3683
Rp3684
tp3685
a(g56
g6
(g18
S'Jj\x10<'
p3686
tp3687
Rp3688
tp3689
asg73
g15
sa.