(lp0
(dp1
S'image'
p2
S'../../../data/emanuela/activity-recognition/images/NTCIR-Lifelog-256/u1/2015-02-24/b00001290_21i6bq_20150224_194803e.jpg'
p3
sS'result'
p4
(lp5
(cnumpy.core.multiarray
scalar
p6
(cnumpy
dtype
p7
(S'S16'
p8
I0
I1
tp9
Rp10
(I3
S'|'
p11
NNNI16
I1
I0
tp12
bS'public transport'
p13
tp14
Rp15
g6
(g7
(S'f4'
p16
I0
I1
tp17
Rp18
(I3
S'<'
p19
NNNI-1
I-1
I0
tp20
bS'\x86\xce\x82>'
p21
tp22
Rp23
tp24
a(g6
(g7
(S'S14'
p25
I0
I1
tp26
Rp27
(I3
S'|'
p28
NNNI14
I1
I0
tp29
bS'walking indoor'
p30
tp31
Rp32
g6
(g18
S'\xe0;{>'
p33
tp34
Rp35
tp36
a(g6
(g7
(S'S6'
p37
I0
I1
tp38
Rp39
(I3
S'|'
p40
NNNI6
I1
I0
tp41
bS'mobile'
p42
tp43
Rp44
g6
(g18
S'\x7f\x87(>'
p45
tp46
Rp47
tp48
a(g6
(g7
(S'S7'
p49
I0
I1
tp50
Rp51
(I3
S'|'
p52
NNNI7
I1
I0
tp53
bS'talking'
p54
tp55
Rp56
g6
(g18
S'\x92b\xb1='
p57
tp58
Rp59
tp60
a(g6
(g7
(S'S24'
p61
I0
I1
tp62
Rp63
(I3
S'|'
p64
NNNI24
I1
I0
tp65
bS'having drinks/meal alone'
p66
tp67
Rp68
g6
(g18
S'\xff\xcd\x83='
p69
tp70
Rp71
tp72
asS'label'
p73
g15
sa(dp74
g2
S'../../../data/emanuela/activity-recognition/images/NTCIR-Lifelog-256/u1/2015-02-25/b00000097_21i6bq_20150225_065305e.jpg'
p75
sg4
(lp76
(g6
(g7
(S'S19'
p77
I0
I1
tp78
Rp79
(I3
S'|'
p80
NNNI19
I1
I0
tp81
bS'cleaning and chores'
p82
tp83
Rp84
g6
(g18
S'\xa5\x86#?'
p85
tp86
Rp87
tp88
a(g6
(g7
(S'S7'
p89
I0
I1
tp90
Rp91
(I3
S'|'
p92
NNNI7
I1
I0
tp93
bS'cooking'
p94
tp95
Rp96
g6
(g18
S'\x91|\x8d>'
p97
tp98
Rp99
tp100
a(g32
g6
(g18
S'\x8f\xd4\xce<'
p101
tp102
Rp103
tp104
a(g15
g6
(g18
S'\xd9\xdb\x89<'
p105
tp106
Rp107
tp108
a(g6
(g7
(S'S7'
p109
I0
I1
tp110
Rp111
(I3
S'|'
p112
NNNI7
I1
I0
tp113
bS'resting'
p114
tp115
Rp116
g6
(g18
S'Vj&<'
p117
tp118
Rp119
tp120
asg73
g15
sa(dp121
g2
S'../../../data/emanuela/activity-recognition/images/NTCIR-Lifelog-256/u1/2015-03-16/b00002632_21i6bq_20150316_172906e.jpg'
p122
sg4
(lp123
(g116
g6
(g18
S'\x1ffG?'
p124
tp125
Rp126
tp127
a(g6
(g7
(S'S15'
p128
I0
I1
tp129
Rp130
(I3
S'|'
p131
NNNI15
I1
I0
tp132
bS'walking outdoor'
p133
tp134
Rp135
g6
(g18
S'Q\xe6\xb8='
p136
tp137
Rp138
tp139
a(g56
g6
(g18
S'\xb8\\\xe0<'
p140
tp141
Rp142
tp143
a(g32
g6
(g18
S'\xa2Z\xbf<'
p144
tp145
Rp146
tp147
a(g6
(g7
(S'S11'
p148
I0
I1
tp149
Rp150
(I3
S'|'
p151
NNNI11
I1
I0
tp152
bS'socializing'
p153
tp154
Rp155
g6
(g18
S'7t\x8e<'
p156
tp157
Rp158
tp159
asg73
g15
sa(dp160
g2
S'../../../data/emanuela/activity-recognition/images/NTCIR-Lifelog-256/u1/2015-03-16/b00002579_21i6bq_20150316_171339e.jpg'
p161
sg4
(lp162
(g15
g6
(g18
S'\xb4\xe0\xf9>'
p163
tp164
Rp165
tp166
a(g32
g6
(g18
S'\xc8pK>'
p167
tp168
Rp169
tp170
a(g6
(g7
(S'S27'
p171
I0
I1
tp172
Rp173
(I3
S'|'
p174
NNNI27
I1
I0
tp175
bS'having drinks with somebody'
p176
tp177
Rp178
g6
(g18
S'\x98A\xcd='
p179
tp180
Rp181
tp182
a(g155
g6
(g18
S'\xcc|\xa3='
p183
tp184
Rp185
tp186
a(g6
(g7
(S'S8'
p187
I0
I1
tp188
Rp189
(I3
S'|'
p190
NNNI8
I1
I0
tp191
bS'shopping'
p192
tp193
Rp194
g6
(g18
S'\xc8\xe26='
p195
tp196
Rp197
tp198
asg73
g15
sa(dp199
g2
S'../../../data/emanuela/activity-recognition/images/NTCIR-Lifelog-256/u1/2015-02-24/b00001295_21i6bq_20150224_195110e.jpg'
p200
sg4
(lp201
(g15
g6
(g18
S'h\xe1\xf1>'
p202
tp203
Rp204
tp205
a(g44
g6
(g18
S'A\xeau>'
p206
tp207
Rp208
tp209
a(g68
g6
(g18
S'\xcdQ\xd5='
p210
tp211
Rp212
tp213
a(g32
g6
(g18
S'\x85\xd3\x8c='
p214
tp215
Rp216
tp217
a(g6
(g7
(S'S5'
p218
I0
I1
tp219
Rp220
(I3
S'|'
p221
NNNI5
I1
I0
tp222
bS'plane'
p223
tp224
Rp225
g6
(g18
S'\xca\xaf\xc8<'
p226
tp227
Rp228
tp229
asg73
g15
sa(dp230
g2
S'../../../data/emanuela/activity-recognition/images/NTCIR-Lifelog-256/u1/2015-02-25/b00000094_21i6bq_20150225_065112e.jpg'
p231
sg4
(lp232
(g84
g6
(g18
S'\x8a\x13F?'
p233
tp234
Rp235
tp236
a(g116
g6
(g18
S'\xcan\x88='
p237
tp238
Rp239
tp240
a(g96
g6
(g18
S'\xb0\x06\x81='
p241
tp242
Rp243
tp244
a(g32
g6
(g18
S'pPY='
p245
tp246
Rp247
tp248
a(g15
g6
(g18
S'c\xd1\x9c<'
p249
tp250
Rp251
tp252
asg73
g15
sa(dp253
g2
S'../../../data/emanuela/activity-recognition/images/NTCIR-Lifelog-256/u1/2015-02-25/b00000099_21i6bq_20150225_065419e.jpg'
p254
sg4
(lp255
(g84
g6
(g18
S'#l%?'
p256
tp257
Rp258
tp259
a(g96
g6
(g18
S'n\x17\x92>'
p260
tp261
Rp262
tp263
a(g32
g6
(g18
S'\x04#\x9a<'
p264
tp265
Rp266
tp267
a(g68
g6
(g18
S'\x8b\xd9 <'
p268
tp269
Rp270
tp271
a(g15
g6
(g18
S'\xec\x83\x1b<'
p272
tp273
Rp274
tp275
asg73
g15
sa(dp276
g2
S'../../../data/emanuela/activity-recognition/images/NTCIR-Lifelog-256/u1/2015-03-16/b00002731_21i6bq_20150316_175637e.jpg'
p277
sg4
(lp278
(g32
g6
(g18
S'M\xa9\xdf>'
p279
tp280
Rp281
tp282
a(g135
g6
(g18
S'\x1e\xbe<>'
p283
tp284
Rp285
tp286
a(g44
g6
(g18
S'\xb7\xd7\xca='
p287
tp288
Rp289
tp290
a(g15
g6
(g18
S'\xffF\x8c='
p291
tp292
Rp293
tp294
a(g116
g6
(g18
S'\xd8\xaf\x83='
p295
tp296
Rp297
tp298
asg73
g15
sa(dp299
g2
S'../../../data/emanuela/activity-recognition/images/NTCIR-Lifelog-256/u1/2015-03-17/b00001078_21i6bq_20150317_183227e.jpg'
p300
sg4
(lp301
(g135
g6
(g18
S'\xefQ\x84>'
p302
tp303
Rp304
tp305
a(g32
g6
(g18
S'\xf48<>'
p306
tp307
Rp308
tp309
a(g56
g6
(g18
S'Qm\xf1='
p310
tp311
Rp312
tp313
a(g6
(g7
(S'S25'
p314
I0
I1
tp315
Rp316
(I3
S'|'
p317
NNNI25
I1
I0
tp318
bS'having meal with somebody'
p319
tp320
Rp321
g6
(g18
S'58\xd6='
p322
tp323
Rp324
tp325
a(g155
g6
(g18
S'\xe5\xbc\xbd='
p326
tp327
Rp328
tp329
asg73
g15
sa(dp330
g2
S'../../../data/emanuela/activity-recognition/images/NTCIR-Lifelog-256/u1/2015-03-08/b00000563_21i6bq_20150308_134744e.jpg'
p331
sg4
(lp332
(g15
g6
(g18
S'\xc2aA?'
p333
tp334
Rp335
tp336
a(g32
g6
(g18
S'\xaa\xce\x0c>'
p337
tp338
Rp339
tp340
a(g84
g6
(g18
S'\xd8\xd9\xa1='
p341
tp342
Rp343
tp344
a(g44
g6
(g18
S'\xf4\x1a\x1c<'
p345
tp346
Rp347
tp348
a(g135
g6
(g18
S'\xb9,\x13<'
p349
tp350
Rp351
tp352
asg73
g15
sa(dp353
g2
S'../../../data/emanuela/activity-recognition/images/NTCIR-Lifelog-256/u1/2015-02-24/b00001301_21i6bq_20150224_195449e.jpg'
p354
sg4
(lp355
(g15
g6
(g18
S'\x1c\xd0\xe2>'
p356
tp357
Rp358
tp359
a(g178
g6
(g18
S'7\x07f>'
p360
tp361
Rp362
tp363
a(g68
g6
(g18
S'\x83\xa8\xc8='
p364
tp365
Rp366
tp367
a(g321
g6
(g18
S'\x82]_='
p368
tp369
Rp370
tp371
a(g155
g6
(g18
S'\xab\xd66='
p372
tp373
Rp374
tp375
asg73
g15
sa(dp376
g2
S'../../../data/emanuela/activity-recognition/images/NTCIR-Lifelog-256/u1/2015-02-25/b00000117_21i6bq_20150225_070519e.jpg'
p377
sg4
(lp378
(g84
g6
(g18
S':\xadP?'
p379
tp380
Rp381
tp382
a(g96
g6
(g18
S'nr\x9c='
p383
tp384
Rp385
tp386
a(g15
g6
(g18
S'\x8f8a='
p387
tp388
Rp389
tp390
a(g321
g6
(g18
S'\xc7\xc3?<'
p391
tp392
Rp393
tp394
a(g32
g6
(g18
S'\xdfJ#<'
p395
tp396
Rp397
tp398
asg73
g15
sa(dp399
g2
S'../../../data/emanuela/activity-recognition/images/NTCIR-Lifelog-256/u1/2015-02-25/b00000120_21i6bq_20150225_070659e.jpg'
p400
sg4
(lp401
(g84
g6
(g18
S'\xdf\xe51?'
p402
tp403
Rp404
tp405
a(g15
g6
(g18
S'\xeaz\x01>'
p406
tp407
Rp408
tp409
a(g96
g6
(g18
S'\x89]6='
p410
tp411
Rp412
tp413
a(g32
g6
(g18
S'\x87L\xf2<'
p414
tp415
Rp416
tp417
a(g321
g6
(g18
S'Kt\xcc<'
p418
tp419
Rp420
tp421
asg73
g15
sa(dp422
g2
S'../../../data/emanuela/activity-recognition/images/NTCIR-Lifelog-256/u1/2015-02-24/b00001289_21i6bq_20150224_194718e.jpg'
p423
sg4
(lp424
(g15
g6
(g18
S'\x1a\x05\x15?'
p425
tp426
Rp427
tp428
a(g44
g6
(g18
S';J\x8c>'
p429
tp430
Rp431
tp432
a(g32
g6
(g18
S'\xe1\x98\x89='
p433
tp434
Rp435
tp436
a(g68
g6
(g18
S'v\n\xa1<'
p437
tp438
Rp439
tp440
a(g178
g6
(g18
S'%\x89\xa0<'
p441
tp442
Rp443
tp444
asg73
g15
sa(dp445
g2
S'../../../data/emanuela/activity-recognition/images/NTCIR-Lifelog-256/u1/2015-02-24/b00000213_21i6bq_20150224_084938e.jpg'
p446
sg4
(lp447
(g15
g6
(g18
S'\xe8\xf3\x13?'
p448
tp449
Rp450
tp451
a(g155
g6
(g18
S'B&;>'
p452
tp453
Rp454
tp455
a(g32
g6
(g18
S'\x97\x9b\x84='
p456
tp457
Rp458
tp459
a(g178
g6
(g18
S'\x90\xc1x='
p460
tp461
Rp462
tp463
a(g135
g6
(g18
S'Yd\xbc<'
p464
tp465
Rp466
tp467
asg73
g15
sa(dp468
g2
S'../../../data/emanuela/activity-recognition/images/NTCIR-Lifelog-256/u1/2015-03-16/b00002717_21i6bq_20150316_174941e.jpg'
p469
sg4
(lp470
(g44
g6
(g18
S'I\xd6\x96>'
p471
tp472
Rp473
tp474
a(g32
g6
(g18
S'\xc0.X>'
p475
tp476
Rp477
tp478
a(g116
g6
(g18
S'\x0b\xcd0>'
p479
tp480
Rp481
tp482
a(g15
g6
(g18
S'\xae!\xa8='
p483
tp484
Rp485
tp486
a(g56
g6
(g18
S'\x98\xbdT='
p487
tp488
Rp489
tp490
asg73
g15
sa(dp491
g2
S'../../../data/emanuela/activity-recognition/images/NTCIR-Lifelog-256/u1/2015-02-24/b00001283_21i6bq_20150224_194359e.jpg'
p492
sg4
(lp493
(g15
g6
(g18
S'\x883D?'
p494
tp495
Rp496
tp497
a(g44
g6
(g18
S't\xaf\x15>'
p498
tp499
Rp500
tp501
a(g32
g6
(g18
S'\x8c`\x05='
p502
tp503
Rp504
tp505
a(g135
g6
(g18
S'),\xb0<'
p506
tp507
Rp508
tp509
a(g68
g6
(g18
S'UM^<'
p510
tp511
Rp512
tp513
asg73
g15
sa(dp514
g2
S'../../../data/emanuela/activity-recognition/images/NTCIR-Lifelog-256/u1/2015-03-16/b00002578_21i6bq_20150316_171339e.jpg'
p515
sg4
(lp516
(g15
g6
(g18
S'\xce\\\xec>'
p517
tp518
Rp519
tp520
a(g32
g6
(g18
S'\xa9\xb8_>'
p521
tp522
Rp523
tp524
a(g194
g6
(g18
S'\xf3\xce\xc1='
p525
tp526
Rp527
tp528
a(g178
g6
(g18
S'\xa9\xf4\xac='
p529
tp530
Rp531
tp532
a(g155
g6
(g18
S'[*\x13='
p533
tp534
Rp535
tp536
asg73
g15
sa(dp537
g2
S'../../../data/emanuela/activity-recognition/images/NTCIR-Lifelog-256/u1/2015-02-24/b00001286_21i6bq_20150224_194554e.jpg'
p538
sg4
(lp539
(g15
g6
(g18
S'5\xfb\x12?'
p540
tp541
Rp542
tp543
a(g32
g6
(g18
S'\xff\te>'
p544
tp545
Rp546
tp547
a(g135
g6
(g18
S'E\x88C='
p548
tp549
Rp550
tp551
a(g44
g6
(g18
S'\x93\x7f\x1d='
p552
tp553
Rp554
tp555
a(g56
g6
(g18
S'L\x15\xcf<'
p556
tp557
Rp558
tp559
asg73
g15
sa(dp560
g2
S'../../../data/emanuela/activity-recognition/images/NTCIR-Lifelog-256/u1/2015-02-24/b00000131_21i6bq_20150224_080016e.jpg'
p561
sg4
(lp562
(g84
g6
(g18
S'\x10\xdf\xed>'
p563
tp564
Rp565
tp566
a(g32
g6
(g18
S'\x91c\xb4>'
p567
tp568
Rp569
tp570
a(g96
g6
(g18
S'Z\xbd^='
p571
tp572
Rp573
tp574
a(g116
g6
(g18
S'z\x16\x07='
p575
tp576
Rp577
tp578
a(g44
g6
(g18
S'X\x97\xf8<'
p579
tp580
Rp581
tp582
asg73
g15
sa(dp583
g2
S'../../../data/emanuela/activity-recognition/images/NTCIR-Lifelog-256/u1/2015-02-25/b00000108_21i6bq_20150225_065933e.jpg'
p584
sg4
(lp585
(g84
g6
(g18
S'\x8e\xa5\xf2>'
p586
tp587
Rp588
tp589
a(g15
g6
(g18
S'\xf0\xb6\xd3>'
p590
tp591
Rp592
tp593
a(g96
g6
(g18
S'\x02\x88!='
p594
tp595
Rp596
tp597
a(g32
g6
(g18
S'\xec\xdd\xc2<'
p598
tp599
Rp600
tp601
a(g6
(g7
(S'S7'
p602
I0
I1
tp603
Rp604
(I3
S'|'
p605
NNNI7
I1
I0
tp606
bS'reading'
p607
tp608
Rp609
g6
(g18
S'V\x18\x1d<'
p610
tp611
Rp612
tp613
asg73
g15
sa(dp614
g2
S'../../../data/emanuela/activity-recognition/images/NTCIR-Lifelog-256/u1/2015-03-16/b00002627_21i6bq_20150316_172901e.jpg'
p615
sg4
(lp616
(g135
g6
(g18
S'\xb9\xd1$?'
p617
tp618
Rp619
tp620
a(g44
g6
(g18
S'Ac:>'
p621
tp622
Rp623
tp624
a(g68
g6
(g18
S'\xd7\xb7\x82='
p625
tp626
Rp627
tp628
a(g116
g6
(g18
S'\xd1\xf6\x04='
p629
tp630
Rp631
tp632
a(g56
g6
(g18
S'\xba\xbd\x91<'
p633
tp634
Rp635
tp636
asg73
g15
sa(dp637
g2
S'../../../data/emanuela/activity-recognition/images/NTCIR-Lifelog-256/u1/2015-02-24/b00001292_21i6bq_20150224_194919e.jpg'
p638
sg4
(lp639
(g15
g6
(g18
S'7g\x12?'
p640
tp641
Rp642
tp643
a(g178
g6
(g18
S'\x1c}\x9b>'
p644
tp645
Rp646
tp647
a(g32
g6
(g18
S'`\x1b\xdc<'
p648
tp649
Rp650
tp651
a(g225
g6
(g18
S'Au\xa7<'
p652
tp653
Rp654
tp655
a(g44
g6
(g18
S'!\xee\xa1<'
p656
tp657
Rp658
tp659
asg73
g15
sa(dp660
g2
S'../../../data/emanuela/activity-recognition/images/NTCIR-Lifelog-256/u1/2015-03-08/b00000566_21i6bq_20150308_134934e.jpg'
p661
sg4
(lp662
(g15
g6
(g18
S'\xab\x1ae?'
p663
tp664
Rp665
tp666
a(g225
g6
(g18
S'\x8c5\xcd<'
p667
tp668
Rp669
tp670
a(g6
(g7
(S'S7'
p671
I0
I1
tp672
Rp673
(I3
S'|'
p674
NNNI7
I1
I0
tp675
bS'driving'
p676
tp677
Rp678
g6
(g18
S'\x1c)\xb6<'
p679
tp680
Rp681
tp682
a(g32
g6
(g18
S'\n\xfdX<'
p683
tp684
Rp685
tp686
a(g68
g6
(g18
S',:$<'
p687
tp688
Rp689
tp690
asg73
g15
sa(dp691
g2
S'../../../data/emanuela/activity-recognition/images/NTCIR-Lifelog-256/u1/2015-03-16/b00002714_21i6bq_20150316_174751e.jpg'
p692
sg4
(lp693
(g116
g6
(g18
S'\xee?f?'
p694
tp695
Rp696
tp697
a(g56
g6
(g18
S'\xd8?\x0e='
p698
tp699
Rp700
tp701
a(g32
g6
(g18
S'\xaa\x90\xd7<'
p702
tp703
Rp704
tp705
a(g84
g6
(g18
S'\xe9\xfc\x86<'
p706
tp707
Rp708
tp709
a(g155
g6
(g18
S'\x7fo;<'
p710
tp711
Rp712
tp713
asg73
g15
sa(dp714
g2
S'../../../data/emanuela/activity-recognition/images/NTCIR-Lifelog-256/u1/2015-02-25/b00000100_21i6bq_20150225_065451e.jpg'
p715
sg4
(lp716
(g84
g6
(g18
S'\xdc5\x11?'
p717
tp718
Rp719
tp720
a(g96
g6
(g18
S'\\.\x93>'
p721
tp722
Rp723
tp724
a(g321
g6
(g18
S'3T%='
p725
tp726
Rp727
tp728
a(g68
g6
(g18
S"\x0c'\x17="
p729
tp730
Rp731
tp732
a(g32
g6
(g18
S'\xa8\xbe\\<'
p733
tp734
Rp735
tp736
asg73
g15
sa(dp737
g2
S'../../../data/emanuela/activity-recognition/images/NTCIR-Lifelog-256/u1/2015-03-16/b00002726_21i6bq_20150316_175500e.jpg'
p738
sg4
(lp739
(g116
g6
(g18
S'$\xf4\xe9>'
p740
tp741
Rp742
tp743
a(g32
g6
(g18
S'B\xb4\xa5>'
p744
tp745
Rp746
tp747
a(g84
g6
(g18
S'\xfbU\xb8='
p748
tp749
Rp750
tp751
a(g15
g6
(g18
S'\xe9\xae\x18='
p752
tp753
Rp754
tp755
a(g56
g6
(g18
S'\x1a\xae\xfe<'
p756
tp757
Rp758
tp759
asg73
g15
sa(dp760
g2
S'../../../data/emanuela/activity-recognition/images/NTCIR-Lifelog-256/u1/2015-02-24/b00001278_21i6bq_20150224_194054e.jpg'
p761
sg4
(lp762
(g15
g6
(g18
S'\x18\xf8O?'
p763
tp764
Rp765
tp766
a(g44
g6
(g18
S'.M%>'
p767
tp768
Rp769
tp770
a(g32
g6
(g18
S'\xd3"B<'
p771
tp772
Rp773
tp774
a(g178
g6
(g18
S'x\xa7\x85;'
p775
tp776
Rp777
tp778
a(g225
g6
(g18
S'ahQ;'
p779
tp780
Rp781
tp782
asg73
g15
sa(dp783
g2
S'../../../data/emanuela/activity-recognition/images/NTCIR-Lifelog-256/u1/2015-03-16/b00002568_21i6bq_20150316_171200e.jpg'
p784
sg4
(lp785
(g155
g6
(g18
S'\xcd2\x0e?'
p786
tp787
Rp788
tp789
a(g32
g6
(g18
S'\x95\xabx>'
p790
tp791
Rp792
tp793
a(g178
g6
(g18
S'MJ\xbb='
p794
tp795
Rp796
tp797
a(g56
g6
(g18
S'\xf0\xb4\xb3<'
p798
tp799
Rp800
tp801
a(g15
g6
(g18
S'\x00\x82\x9f<'
p802
tp803
Rp804
tp805
asg73
g15
sa(dp806
g2
S'../../../data/emanuela/activity-recognition/images/NTCIR-Lifelog-256/u1/2015-02-24/b00000215_21i6bq_20150224_085054e.jpg'
p807
sg4
(lp808
(g15
g6
(g18
S'\xc9\xc5\xda>'
p809
tp810
Rp811
tp812
a(g32
g6
(g18
S'\xff\xdd\xba>'
p813
tp814
Rp815
tp816
a(g44
g6
(g18
S'\xe1\x8d\x12='
p817
tp818
Rp819
tp820
a(g225
g6
(g18
S'\xbe!\x0c='
p821
tp822
Rp823
tp824
a(g194
g6
(g18
S'Nb\xf1<'
p825
tp826
Rp827
tp828
asg73
g15
sa(dp829
g2
S'../../../data/emanuela/activity-recognition/images/NTCIR-Lifelog-256/u1/2015-03-16/b00002577_21i6bq_20150316_171338e.jpg'
p830
sg4
(lp831
(g15
g6
(g18
S'\x93C\x1a?'
p832
tp833
Rp834
tp835
a(g32
g6
(g18
S' u\x8d>'
p836
tp837
Rp838
tp839
a(g178
g6
(g18
S'/h\xf8<'
p840
tp841
Rp842
tp843
a(g135
g6
(g18
S'X\xca\xbc<'
p844
tp845
Rp846
tp847
a(g194
g6
(g18
S'\x98\xcd\x99<'
p848
tp849
Rp850
tp851
asg73
g15
sa(dp852
g2
S'../../../data/emanuela/activity-recognition/images/NTCIR-Lifelog-256/u1/2015-03-16/b00002580_21i6bq_20150316_171340e.jpg'
p853
sg4
(lp854
(g15
g6
(g18
S'\xd0P7?'
p855
tp856
Rp857
tp858
a(g178
g6
(g18
S'\xd9J\xac='
p859
tp860
Rp861
tp862
a(g32
g6
(g18
S'[\xa2\x81='
p863
tp864
Rp865
tp866
a(g135
g6
(g18
S'\x85+\xd9<'
p867
tp868
Rp869
tp870
a(g194
g6
(g18
S'\xd4\x04\xd4<'
p871
tp872
Rp873
tp874
asg73
g15
sa(dp875
g2
S'../../../data/emanuela/activity-recognition/images/NTCIR-Lifelog-256/u1/2015-03-17/b00001036_21i6bq_20150317_182107e.jpg'
p876
sg4
(lp877
(g44
g6
(g18
S'\x04;q?'
p878
tp879
Rp880
tp881
a(g15
g6
(g18
S'\x88\x96N='
p882
tp883
Rp884
tp885
a(g32
g6
(g18
S'N\xc2\x80;'
p886
tp887
Rp888
tp889
a(g178
g6
(g18
S"d\xf1':"
p890
tp891
Rp892
tp893
a(g135
g6
(g18
S'\xdaf\x03:'
p894
tp895
Rp896
tp897
asg73
g15
sa(dp898
g2
S'../../../data/emanuela/activity-recognition/images/NTCIR-Lifelog-256/u1/2015-03-17/b00001048_21i6bq_20150317_182820e.jpg'
p899
sg4
(lp900
(g15
g6
(g18
S'q\x01\xb8>'
p901
tp902
Rp903
tp904
a(g32
g6
(g18
S'\x0f\xbfo>'
p905
tp906
Rp907
tp908
a(g225
g6
(g18
S'E`\xc1='
p909
tp910
Rp911
tp912
a(g155
g6
(g18
S'd\x0b\x9b='
p913
tp914
Rp915
tp916
a(g194
g6
(g18
S'(A\x85='
p917
tp918
Rp919
tp920
asg73
g15
sa(dp921
g2
S'../../../data/emanuela/activity-recognition/images/NTCIR-Lifelog-256/u1/2015-03-16/b00002716_21i6bq_20150316_174905e.jpg'
p922
sg4
(lp923
(g15
g6
(g18
S'\xfd\xb6\x8a>'
p924
tp925
Rp926
tp927
a(g44
g6
(g18
S'_\xf9o>'
p928
tp929
Rp930
tp931
a(g56
g6
(g18
S'D\xe2\xeb='
p932
tp933
Rp934
tp935
a(g609
g6
(g18
S'\xc4\xd6\xd2='
p936
tp937
Rp938
tp939
a(g6
(g7
(S'S7'
p940
I0
I1
tp941
Rp942
(I3
S'|'
p943
NNNI7
I1
I0
tp944
bS'working'
p945
tp946
Rp947
g6
(g18
S'\xb6\x8d\xa7='
p948
tp949
Rp950
tp951
asg73
g15
sa(dp952
g2
S'../../../data/emanuela/activity-recognition/images/NTCIR-Lifelog-256/u1/2015-03-16/b00002581_21i6bq_20150316_171341e.jpg'
p953
sg4
(lp954
(g15
g6
(g18
S'\rv\x1c?'
p955
tp956
Rp957
tp958
a(g32
g6
(g18
S'l\xd7)>'
p959
tp960
Rp961
tp962
a(g178
g6
(g18
S'hr\x8c='
p963
tp964
Rp965
tp966
a(g135
g6
(g18
S'5\xac\x17='
p967
tp968
Rp969
tp970
a(g194
g6
(g18
S'H\x87\x16='
p971
tp972
Rp973
tp974
asg73
g15
sa(dp975
g2
S'../../../data/emanuela/activity-recognition/images/NTCIR-Lifelog-256/u1/2015-03-08/b00000565_21i6bq_20150308_134901e.jpg'
p976
sg4
(lp977
(g15
g6
(g18
S'^\xf0f?'
p978
tp979
Rp980
tp981
a(g225
g6
(g18
S'\xc8\xcc\x8c='
p982
tp983
Rp984
tp985
a(g609
g6
(g18
S'an><'
p986
tp987
Rp988
tp989
a(g32
g6
(g18
S'\xad\xfe\xd1;'
p990
tp991
Rp992
tp993
a(g135
g6
(g18
S')\xbeq;'
p994
tp995
Rp996
tp997
asg73
g15
sa(dp998
g2
S'../../../data/emanuela/activity-recognition/images/NTCIR-Lifelog-256/u1/2015-03-17/b00001080_21i6bq_20150317_183339e.jpg'
p999
sg4
(lp1000
(g135
g6
(g18
S'l@a>'
p1001
tp1002
Rp1003
tp1004
a(g32
g6
(g18
S'\xcc\xe9?>'
p1005
tp1006
Rp1007
tp1008
a(g56
g6
(g18
S'\xe0\xd7\x10>'
p1009
tp1010
Rp1011
tp1012
a(g155
g6
(g18
S'\x97y\xbe='
p1013
tp1014
Rp1015
tp1016
a(g15
g6
(g18
S'\x02\x10\x97='
p1017
tp1018
Rp1019
tp1020
asg73
g15
sa(dp1021
g2
S'../../../data/emanuela/activity-recognition/images/NTCIR-Lifelog-256/u1/2015-03-17/b00001084_21i6bq_20150317_183610e.jpg'
p1022
sg4
(lp1023
(g15
g6
(g18
S'\xa8\x18\xb8>'
p1024
tp1025
Rp1026
tp1027
a(g32
g6
(g18
S'\xbf\x82\x8c>'
p1028
tp1029
Rp1030
tp1031
a(g135
g6
(g18
S'5\xa5\xa7='
p1032
tp1033
Rp1034
tp1035
a(g68
g6
(g18
S'\xea1\x98='
p1036
tp1037
Rp1038
tp1039
a(g225
g6
(g18
S'\x17e\x86='
p1040
tp1041
Rp1042
tp1043
asg73
g15
sa(dp1044
g2
S'../../../data/emanuela/activity-recognition/images/NTCIR-Lifelog-256/u1/2015-03-17/b00001035_21i6bq_20150317_182034e.jpg'
p1045
sg4
(lp1046
(g15
g6
(g18
S'\x80\xb6\xf1>'
p1047
tp1048
Rp1049
tp1050
a(g44
g6
(g18
S'tt\xec>'
p1051
tp1052
Rp1053
tp1054
a(g178
g6
(g18
S'\xce0\x1f='
p1055
tp1056
Rp1057
tp1058
a(g32
g6
(g18
S'\xeb\xcf\xf7;'
p1059
tp1060
Rp1061
tp1062
a(g947
g6
(g18
S'q\xc5\x96;'
p1063
tp1064
Rp1065
tp1066
asg73
g15
sa(dp1067
g2
S'../../../data/emanuela/activity-recognition/images/NTCIR-Lifelog-256/u1/2015-03-16/b00002729_21i6bq_20150316_175634e.jpg'
p1068
sg4
(lp1069
(g135
g6
(g18
S'\xc6\xaan?'
p1070
tp1071
Rp1072
tp1073
a(g44
g6
(g18
S'\x0b\x190='
p1074
tp1075
Rp1076
tp1077
a(g32
g6
(g18
S'\xc9\xccp<'
p1078
tp1079
Rp1080
tp1081
a(g6
(g7
(S'S6'
p1082
I0
I1
tp1083
Rp1084
(I3
S'|'
p1085
NNNI6
I1
I0
tp1086
bS'biking'
p1087
tp1088
Rp1089
g6
(g18
S'X\xa3\xca;'
p1090
tp1091
Rp1092
tp1093
a(g68
g6
(g18
S'vJ\xe3:'
p1094
tp1095
Rp1096
tp1097
asg73
g15
sa(dp1098
g2
S'../../../data/emanuela/activity-recognition/images/NTCIR-Lifelog-256/u1/2015-02-25/b00000110_21i6bq_20150225_070048e.jpg'
p1099
sg4
(lp1100
(g84
g6
(g18
S'\xf2z\xf2>'
p1101
tp1102
Rp1103
tp1104
a(g15
g6
(g18
S'\xbdz\xdd>'
p1105
tp1106
Rp1107
tp1108
a(g32
g6
(g18
S'\xe1a\xd2<'
p1109
tp1110
Rp1111
tp1112
a(g96
g6
(g18
S'_\xdb\xc1<'
p1113
tp1114
Rp1115
tp1116
a(g116
g6
(g18
S'\xce{\x96<'
p1117
tp1118
Rp1119
tp1120
asg73
g15
sa(dp1121
g2
S'../../../data/emanuela/activity-recognition/images/NTCIR-Lifelog-256/u1/2015-03-16/b00002573_21i6bq_20150316_171336e.jpg'
p1122
sg4
(lp1123
(g32
g6
(g18
S'\x12\x88\xe5>'
p1124
tp1125
Rp1126
tp1127
a(g155
g6
(g18
S':\xa2f>'
p1128
tp1129
Rp1130
tp1131
a(g194
g6
(g18
S'\x01R\x11>'
p1132
tp1133
Rp1134
tp1135
a(g15
g6
(g18
S'\x9a\x93\x90='
p1136
tp1137
Rp1138
tp1139
a(g225
g6
(g18
S'qe\x1a='
p1140
tp1141
Rp1142
tp1143
asg73
g15
sa(dp1144
g2
S'../../../data/emanuela/activity-recognition/images/NTCIR-Lifelog-256/u1/2015-03-16/b00002647_21i6bq_20150316_173136e.jpg'
p1145
sg4
(lp1146
(g116
g6
(g18
S'l\x88!?'
p1147
tp1148
Rp1149
tp1150
a(g135
g6
(g18
S'\xdd\xc6i>'
p1151
tp1152
Rp1153
tp1154
a(g15
g6
(g18
S'a\x94D='
p1155
tp1156
Rp1157
tp1158
a(g44
g6
(g18
S'0!9='
p1159
tp1160
Rp1161
tp1162
a(g32
g6
(g18
S'$Xy<'
p1163
tp1164
Rp1165
tp1166
asg73
g15
sa(dp1167
g2
S'../../../data/emanuela/activity-recognition/images/NTCIR-Lifelog-256/u1/2015-03-17/b00001043_21i6bq_20150317_182522e.jpg'
p1168
sg4
(lp1169
(g44
g6
(g18
S'\x9f\xe6=?'
p1170
tp1171
Rp1172
tp1173
a(g15
g6
(g18
S'r\xba\x14>'
p1174
tp1175
Rp1176
tp1177
a(g178
g6
(g18
S'H\xa5t='
p1178
tp1179
Rp1180
tp1181
a(g68
g6
(g18
S'4\x05\xff<'
p1182
tp1183
Rp1184
tp1185
a(g32
g6
(g18
S'\x04\x04\x9d;'
p1186
tp1187
Rp1188
tp1189
asg73
g15
sa(dp1190
g2
S'../../../data/emanuela/activity-recognition/images/NTCIR-Lifelog-256/u1/2015-03-17/b00001086_21i6bq_20150317_183718e.jpg'
p1191
sg4
(lp1192
(g32
g6
(g18
S'v3\xa9>'
p1193
tp1194
Rp1195
tp1196
a(g15
g6
(g18
S'1HW>'
p1197
tp1198
Rp1199
tp1200
a(g178
g6
(g18
S'\x96\xb2\xfe='
p1201
tp1202
Rp1203
tp1204
a(g135
g6
(g18
S'\xf5#\xae='
p1205
tp1206
Rp1207
tp1208
a(g155
g6
(g18
S'\xfd!\x8f='
p1209
tp1210
Rp1211
tp1212
asg73
g15
sa(dp1213
g2
S'../../../data/emanuela/activity-recognition/images/NTCIR-Lifelog-256/u1/2015-02-24/b00001303_21i6bq_20150224_195612e.jpg'
p1214
sg4
(lp1215
(g32
g6
(g18
S'>\xc0L?'
p1216
tp1217
Rp1218
tp1219
a(g15
g6
(g18
S'\x08Qx='
p1220
tp1221
Rp1222
tp1223
a(g155
g6
(g18
S'\xe1\xd07='
p1224
tp1225
Rp1226
tp1227
a(g84
g6
(g18
S'\x8f\x13\xe7<'
p1228
tp1229
Rp1230
tp1231
a(g56
g6
(g18
S'\xfb\x89I<'
p1232
tp1233
Rp1234
tp1235
asg73
g15
sa(dp1236
g2
S'../../../data/emanuela/activity-recognition/images/NTCIR-Lifelog-256/u1/2015-03-16/b00002650_21i6bq_20150316_173251e.jpg'
p1237
sg4
(lp1238
(g609
g6
(g18
S'\xe2\xe4O?'
p1239
tp1240
Rp1241
tp1242
a(g6
(g7
(S'S7'
p1243
I0
I1
tp1244
Rp1245
(I3
S'|'
p1246
NNNI7
I1
I0
tp1247
bS'meeting'
p1248
tp1249
Rp1250
g6
(g18
S'\xef\xf9\xbb='
p1251
tp1252
Rp1253
tp1254
a(g6
(g7
(S'S19'
p1255
I0
I1
tp1256
Rp1257
(I3
S'|'
p1258
NNNI19
I1
I0
tp1259
bS'attending a seminar'
p1260
tp1261
Rp1262
g6
(g18
S':\xe8\x14='
p1263
tp1264
Rp1265
tp1266
a(g44
g6
(g18
S' \x80\xdc<'
p1267
tp1268
Rp1269
tp1270
a(g947
g6
(g18
S'\xebQG<'
p1271
tp1272
Rp1273
tp1274
asg73
g15
sa(dp1275
g2
S'../../../data/emanuela/activity-recognition/images/NTCIR-Lifelog-256/u1/2015-03-17/b00001076_21i6bq_20150317_183219e.jpg'
p1276
sg4
(lp1277
(g178
g6
(g18
S'\xa9@\xb2>'
p1278
tp1279
Rp1280
tp1281
a(g321
g6
(g18
S'\xd2\x1a#>'
p1282
tp1283
Rp1284
tp1285
a(g15
g6
(g18
S'\xe9%\xe0='
p1286
tp1287
Rp1288
tp1289
a(g155
g6
(g18
S'\xc3\x9b\x97='
p1290
tp1291
Rp1292
tp1293
a(g68
g6
(g18
S'\x9af\x97='
p1294
tp1295
Rp1296
tp1297
asg73
g15
sa(dp1298
g2
S'../../../data/emanuela/activity-recognition/images/NTCIR-Lifelog-256/u1/2015-02-25/b00000101_21i6bq_20150225_065531e.jpg'
p1299
sg4
(lp1300
(g84
g6
(g18
S't\xaf\x17?'
p1301
tp1302
Rp1303
tp1304
a(g96
g6
(g18
S':y\xdc='
p1305
tp1306
Rp1307
tp1308
a(g15
g6
(g18
S'C?g='
p1309
tp1310
Rp1311
tp1312
a(g32
g6
(g18
S'\x82jN='
p1313
tp1314
Rp1315
tp1316
a(g68
g6
(g18
S"\x8f('="
p1317
tp1318
Rp1319
tp1320
asg73
g15
sa(dp1321
g2
S'../../../data/emanuela/activity-recognition/images/NTCIR-Lifelog-256/u1/2015-02-25/b00000111_21i6bq_20150225_070129e.jpg'
p1322
sg4
(lp1323
(g15
g6
(g18
S'7\n\xe8>'
p1324
tp1325
Rp1326
tp1327
a(g84
g6
(g18
S'\xa9\xd1\xd6>'
p1328
tp1329
Rp1330
tp1331
a(g32
g6
(g18
S'\xba\xf6\x17='
p1332
tp1333
Rp1334
tp1335
a(g96
g6
(g18
S'\xeby\xe5<'
p1336
tp1337
Rp1338
tp1339
a(g609
g6
(g18
S'\xa5k\xf1;'
p1340
tp1341
Rp1342
tp1343
asg73
g15
sa(dp1344
g2
S'../../../data/emanuela/activity-recognition/images/NTCIR-Lifelog-256/u1/2015-03-17/b00001075_21i6bq_20150317_183219e.jpg'
p1345
sg4
(lp1346
(g15
g6
(g18
S'`\xd9\xd3>'
p1347
tp1348
Rp1349
tp1350
a(g32
g6
(g18
S'\xd9\xf7\x82>'
p1351
tp1352
Rp1353
tp1354
a(g135
g6
(g18
S'\xe9p\xc1='
p1355
tp1356
Rp1357
tp1358
a(g225
g6
(g18
S'\xb2\xde\x87='
p1359
tp1360
Rp1361
tp1362
a(g194
g6
(g18
S'\x08\xd4M='
p1363
tp1364
Rp1365
tp1366
asg73
g15
sa(dp1367
g2
S'../../../data/emanuela/activity-recognition/images/NTCIR-Lifelog-256/u1/2015-03-16/b00002713_21i6bq_20150316_174720e.jpg'
p1368
sg4
(lp1369
(g116
g6
(g18
S'\xb4\xecD?'
p1370
tp1371
Rp1372
tp1373
a(g32
g6
(g18
S'<~\xae='
p1374
tp1375
Rp1376
tp1377
a(g56
g6
(g18
S'\xf2\xcf\x91='
p1378
tp1379
Rp1380
tp1381
a(g135
g6
(g18
S'd\x87\xfa<'
p1382
tp1383
Rp1384
tp1385
a(g44
g6
(g18
S'M\xd92<'
p1386
tp1387
Rp1388
tp1389
asg73
g15
sa(dp1390
g2
S'../../../data/emanuela/activity-recognition/images/NTCIR-Lifelog-256/u1/2015-02-24/b00001288_21i6bq_20150224_194710e.jpg'
p1391
sg4
(lp1392
(g15
g6
(g18
S'x\x1b5?'
p1393
tp1394
Rp1395
tp1396
a(g44
g6
(g18
S'\xbe\xba\x16>'
p1397
tp1398
Rp1399
tp1400
a(g32
g6
(g18
S'\xe5\xe36='
p1401
tp1402
Rp1403
tp1404
a(g135
g6
(g18
S'/3\xf0<'
p1405
tp1406
Rp1407
tp1408
a(g68
g6
(g18
S'\xf5\xce\xd0<'
p1409
tp1410
Rp1411
tp1412
asg73
g15
sa(dp1413
g2
S'../../../data/emanuela/activity-recognition/images/NTCIR-Lifelog-256/u1/2015-02-25/b00000119_21i6bq_20150225_070626e.jpg'
p1414
sg4
(lp1415
(g84
g6
(g18
S'\x1a\x1e ?'
p1416
tp1417
Rp1418
tp1419
a(g96
g6
(g18
S'\xac\xb9n>'
p1420
tp1421
Rp1422
tp1423
a(g15
g6
(g18
S'/\xc9E='
p1424
tp1425
Rp1426
tp1427
a(g321
g6
(g18
S'6\xda\x9d<'
p1428
tp1429
Rp1430
tp1431
a(g32
g6
(g18
S'\xac\xc8\x82<'
p1432
tp1433
Rp1434
tp1435
asg73
g15
sa(dp1436
g2
S'../../../data/emanuela/activity-recognition/images/NTCIR-Lifelog-256/u1/2015-03-16/b00002725_21i6bq_20150316_175423e.jpg'
p1437
sg4
(lp1438
(g116
g6
(g18
S'dP\xc4>'
p1439
tp1440
Rp1441
tp1442
a(g32
g6
(g18
S' w\x98>'
p1443
tp1444
Rp1445
tp1446
a(g15
g6
(g18
S'\xe8\x1c\xf2='
p1447
tp1448
Rp1449
tp1450
a(g56
g6
(g18
S'c\x84F='
p1451
tp1452
Rp1453
tp1454
a(g135
g6
(g18
S'\xd9\x19\x12='
p1455
tp1456
Rp1457
tp1458
asg73
g15
sa(dp1459
g2
S'../../../data/emanuela/activity-recognition/images/NTCIR-Lifelog-256/u1/2015-03-17/b00001072_21i6bq_20150317_183217e.jpg'
p1460
sg4
(lp1461
(g15
g6
(g18
S'\xd2\xc5\x15?'
p1462
tp1463
Rp1464
tp1465
a(g32
g6
(g18
S'.Z\x87>'
p1466
tp1467
Rp1468
tp1469
a(g135
g6
(g18
S'\xd9\xfb(='
p1470
tp1471
Rp1472
tp1473
a(g155
g6
(g18
S'\xf5\xb6\xb2<'
p1474
tp1475
Rp1476
tp1477
a(g84
g6
(g18
S'\xb4U\x9f<'
p1478
tp1479
Rp1480
tp1481
asg73
g15
sa(dp1482
g2
S'../../../data/emanuela/activity-recognition/images/NTCIR-Lifelog-256/u1/2015-03-17/b00001029_21i6bq_20150317_181704e.jpg'
p1483
sg4
(lp1484
(g178
g6
(g18
S'\xc57\xcc>'
p1485
tp1486
Rp1487
tp1488
a(g44
g6
(g18
S'}OO>'
p1489
tp1490
Rp1491
tp1492
a(g15
g6
(g18
S'l_\x02>'
p1493
tp1494
Rp1495
tp1496
a(g135
g6
(g18
S'\\\t\x05='
p1497
tp1498
Rp1499
tp1500
a(g194
g6
(g18
S'\x95\xa8\xf9<'
p1501
tp1502
Rp1503
tp1504
asg73
g15
sa(dp1505
g2
S'../../../data/emanuela/activity-recognition/images/NTCIR-Lifelog-256/u1/2015-03-16/b00002712_21i6bq_20150316_174645e.jpg'
p1506
sg4
(lp1507
(g116
g6
(g18
S'\x16:.?'
p1508
tp1509
Rp1510
tp1511
a(g32
g6
(g18
S'C\x8cF>'
p1512
tp1513
Rp1514
tp1515
a(g609
g6
(g18
S'\x98\x1d\xc5<'
p1516
tp1517
Rp1518
tp1519
a(g56
g6
(g18
S'\xe0J\xb5<'
p1520
tp1521
Rp1522
tp1523
a(g84
g6
(g18
S'\xc7\x9f\xa5<'
p1524
tp1525
Rp1526
tp1527
asg73
g15
sa(dp1528
g2
S'../../../data/emanuela/activity-recognition/images/NTCIR-Lifelog-256/u1/2015-03-16/b00002732_21i6bq_20150316_175638e.jpg'
p1529
sg4
(lp1530
(g32
g6
(g18
S'<\x03\xc9>'
p1531
tp1532
Rp1533
tp1534
a(g155
g6
(g18
S'\x818n>'
p1535
tp1536
Rp1537
tp1538
a(g44
g6
(g18
S'\xed\xe2\x18>'
p1539
tp1540
Rp1541
tp1542
a(g15
g6
(g18
S'\x98\xc2~='
p1543
tp1544
Rp1545
tp1546
a(g135
g6
(g18
S'k\xc9{='
p1547
tp1548
Rp1549
tp1550
asg73
g15
sa(dp1551
g2
S'../../../data/emanuela/activity-recognition/images/NTCIR-Lifelog-256/u1/2015-03-17/b00001077_21i6bq_20150317_183220e.jpg'
p1552
sg4
(lp1553
(g178
g6
(g18
S'a\xc1F?'
p1554
tp1555
Rp1556
tp1557
a(g155
g6
(g18
S'\xc7@E='
p1558
tp1559
Rp1560
tp1561
a(g194
g6
(g18
S'\x17\xc6\x19='
p1562
tp1563
Rp1564
tp1565
a(g68
g6
(g18
S'\x81\xb7\x18='
p1566
tp1567
Rp1568
tp1569
a(g15
g6
(g18
S'\x01>\x01='
p1570
tp1571
Rp1572
tp1573
asg73
g15
sa(dp1574
g2
S'../../../data/emanuela/activity-recognition/images/NTCIR-Lifelog-256/u1/2015-02-25/b00000112_21i6bq_20150225_070209e.jpg'
p1575
sg4
(lp1576
(g84
g6
(g18
S'\xf5\x04&?'
p1577
tp1578
Rp1579
tp1580
a(g15
g6
(g18
S'\x1c\x9e+>'
p1581
tp1582
Rp1583
tp1584
a(g96
g6
(g18
S'O[\xe3='
p1585
tp1586
Rp1587
tp1588
a(g32
g6
(g18
S'\xcb\xd5\xbe<'
p1589
tp1590
Rp1591
tp1592
a(g68
g6
(g18
S'\x8c\xd0\x03<'
p1593
tp1594
Rp1595
tp1596
asg73
g15
sa(dp1597
g2
S'../../../data/emanuela/activity-recognition/images/NTCIR-Lifelog-256/u1/2015-02-24/b00001285_21i6bq_20150224_194519e.jpg'
p1598
sg4
(lp1599
(g15
g6
(g18
S'\xa2\xf0\xf8>'
p1600
tp1601
Rp1602
tp1603
a(g178
g6
(g18
S'V\x07\xf1='
p1604
tp1605
Rp1606
tp1607
a(g68
g6
(g18
S'\xeb\xdd\xe6='
p1608
tp1609
Rp1610
tp1611
a(g44
g6
(g18
S'[\x04\xae='
p1612
tp1613
Rp1614
tp1615
a(g32
g6
(g18
S'l\xf8R='
p1616
tp1617
Rp1618
tp1619
asg73
g15
sa(dp1620
g2
S'../../../data/emanuela/activity-recognition/images/NTCIR-Lifelog-256/u1/2015-03-16/b00002629_21i6bq_20150316_172903e.jpg'
p1621
sg4
(lp1622
(g116
g6
(g18
S'~\x03X?'
p1623
tp1624
Rp1625
tp1626
a(g84
g6
(g18
S'\x06\xdc2='
p1627
tp1628
Rp1629
tp1630
a(g32
g6
(g18
S'\xef\xaf\x19='
p1631
tp1632
Rp1633
tp1634
a(g44
g6
(g18
S'\x02=\xd4<'
p1635
tp1636
Rp1637
tp1638
a(g68
g6
(g18
S'p\xa4a<'
p1639
tp1640
Rp1641
tp1642
asg73
g15
sa(dp1643
g2
S'../../../data/emanuela/activity-recognition/images/NTCIR-Lifelog-256/u1/2015-02-24/b00001302_21i6bq_20150224_195527e.jpg'
p1644
sg4
(lp1645
(g178
g6
(g18
S'\x85\xc9\xf6>'
p1646
tp1647
Rp1648
tp1649
a(g15
g6
(g18
S"\x84&'>"
p1650
tp1651
Rp1652
tp1653
a(g68
g6
(g18
S'yu\t>'
p1654
tp1655
Rp1656
tp1657
a(g32
g6
(g18
S'\x19\xceN='
p1658
tp1659
Rp1660
tp1661
a(g44
g6
(g18
S'\xe9\x1e\x1c='
p1662
tp1663
Rp1664
tp1665
asg73
g15
sa(dp1666
g2
S'../../../data/emanuela/activity-recognition/images/NTCIR-Lifelog-256/u1/2015-02-25/b00000114_21i6bq_20150225_070321e.jpg'
p1667
sg4
(lp1668
(g84
g6
(g18
S'\xdb\xaeO?'
p1669
tp1670
Rp1671
tp1672
a(g96
g6
(g18
S'9W\xa7='
p1673
tp1674
Rp1675
tp1676
a(g15
g6
(g18
S'!\xe03='
p1677
tp1678
Rp1679
tp1680
a(g116
g6
(g18
S'\xa4\x9cj<'
p1681
tp1682
Rp1683
tp1684
a(g32
g6
(g18
S'\x1f\x1bd<'
p1685
tp1686
Rp1687
tp1688
asg73
g15
sa(dp1689
g2
S'../../../data/emanuela/activity-recognition/images/NTCIR-Lifelog-256/u1/2015-02-25/b00000121_21i6bq_20150225_070734e.jpg'
p1690
sg4
(lp1691
(g84
g6
(g18
S'qB*?'
p1692
tp1693
Rp1694
tp1695
a(g15
g6
(g18
S'\x81\xbd\x07>'
p1696
tp1697
Rp1698
tp1699
a(g96
g6
(g18
S'\xe3R\x92='
p1700
tp1701
Rp1702
tp1703
a(g32
g6
(g18
S')\xfe\xe4<'
p1704
tp1705
Rp1706
tp1707
a(g321
g6
(g18
S'\xf0\xd6\xd6<'
p1708
tp1709
Rp1710
tp1711
asg73
g15
sa(dp1712
g2
S'../../../data/emanuela/activity-recognition/images/NTCIR-Lifelog-256/u1/2015-03-17/b00001032_21i6bq_20150317_181849e.jpg'
p1713
sg4
(lp1714
(g44
g6
(g18
S'\x15\xb2;?'
p1715
tp1716
Rp1717
tp1718
a(g15
g6
(g18
S'[X}>'
p1719
tp1720
Rp1721
tp1722
a(g178
g6
(g18
S'\xcc)\xcc;'
p1723
tp1724
Rp1725
tp1726
a(g32
g6
(g18
S'\x17y\xac;'
p1727
tp1728
Rp1729
tp1730
a(g135
g6
(g18
S'\xb1\xeb0;'
p1731
tp1732
Rp1733
tp1734
asg73
g15
sa(dp1735
g2
S'../../../data/emanuela/activity-recognition/images/NTCIR-Lifelog-256/u1/2015-02-24/b00001297_21i6bq_20150224_195220e.jpg'
p1736
sg4
(lp1737
(g15
g6
(g18
S'\x81X\x13?'
p1738
tp1739
Rp1740
tp1741
a(g44
g6
(g18
S'\x99\x81\x8a>'
p1742
tp1743
Rp1744
tp1745
a(g32
g6
(g18
S'\x9c\x11u='
p1746
tp1747
Rp1748
tp1749
a(g68
g6
(g18
S'\xe2\xaa\x05='
p1750
tp1751
Rp1752
tp1753
a(g135
g6
(g18
S'\x87F\x93<'
p1754
tp1755
Rp1756
tp1757
asg73
g15
sa(dp1758
g2
S'../../../data/emanuela/activity-recognition/images/NTCIR-Lifelog-256/u1/2015-03-16/b00002707_21i6bq_20150316_174348e.jpg'
p1759
sg4
(lp1760
(g116
g6
(g18
S']\xae\xfc>'
p1761
tp1762
Rp1763
tp1764
a(g32
g6
(g18
S'O\x02a>'
p1765
tp1766
Rp1767
tp1768
a(g84
g6
(g18
S'\x18\xc1\xa0='
p1769
tp1770
Rp1771
tp1772
a(g56
g6
(g18
S'\x8a/B='
p1773
tp1774
Rp1775
tp1776
a(g44
g6
(g18
S'\x9d\xf4\xdb<'
p1777
tp1778
Rp1779
tp1780
asg73
g15
sa(dp1781
g2
S'../../../data/emanuela/activity-recognition/images/NTCIR-Lifelog-256/u1/2015-03-17/b00001071_21i6bq_20150317_183216e.jpg'
p1782
sg4
(lp1783
(g15
g6
(g18
S'\x1bC)?'
p1784
tp1785
Rp1786
tp1787
a(g678
g6
(g18
S'\xf5\xe1\r>'
p1788
tp1789
Rp1790
tp1791
a(g32
g6
(g18
S'\xceKj='
p1792
tp1793
Rp1794
tp1795
a(g225
g6
(g18
S'\x84\xc42='
p1796
tp1797
Rp1798
tp1799
a(g178
g6
(g18
S'\xfbx\x94<'
p1800
tp1801
Rp1802
tp1803
asg73
g15
sa(dp1804
g2
S'../../../data/emanuela/activity-recognition/images/NTCIR-Lifelog-256/u1/2015-03-16/b00002705_21i6bq_20150316_174236e.jpg'
p1805
sg4
(lp1806
(g44
g6
(g18
S'\xdd]~?'
p1807
tp1808
Rp1809
tp1810
a(g32
g6
(g18
S'\xdf\x19\xec:'
p1811
tp1812
Rp1813
tp1814
a(g15
g6
(g18
S'2\x1b\xb9:'
p1815
tp1816
Rp1817
tp1818
a(g56
g6
(g18
S'\x05\x94^:'
p1819
tp1820
Rp1821
tp1822
a(g116
g6
(g18
S'S\xff!:'
p1823
tp1824
Rp1825
tp1826
asg73
g15
sa(dp1827
g2
S'../../../data/emanuela/activity-recognition/images/NTCIR-Lifelog-256/u1/2015-02-24/b00000212_21i6bq_20150224_084903e.jpg'
p1828
sg4
(lp1829
(g155
g6
(g18
S'\x10\xec\xb1>'
p1830
tp1831
Rp1832
tp1833
a(g178
g6
(g18
S'Ays>'
p1834
tp1835
Rp1836
tp1837
a(g135
g6
(g18
S'\x08a\x0e>'
p1838
tp1839
Rp1840
tp1841
a(g15
g6
(g18
S'\x85z\xa9='
p1842
tp1843
Rp1844
tp1845
a(g44
g6
(g18
S'\xee\x87g='
p1846
tp1847
Rp1848
tp1849
asg73
g15
sa(dp1850
g2
S'../../../data/emanuela/activity-recognition/images/NTCIR-Lifelog-256/u1/2015-02-24/b00001294_21i6bq_20150224_195033e.jpg'
p1851
sg4
(lp1852
(g68
g6
(g18
S'U\rm>'
p1853
tp1854
Rp1855
tp1856
a(g15
g6
(g18
S'8\x05Q>'
p1857
tp1858
Rp1859
tp1860
a(g32
g6
(g18
S"\x90\xd4'>"
p1861
tp1862
Rp1863
tp1864
a(g178
g6
(g18
S'R\xc7\x14>'
p1865
tp1866
Rp1867
tp1868
a(g44
g6
(g18
S'\x98\x15q='
p1869
tp1870
Rp1871
tp1872
asg73
g15
sa(dp1873
g2
S'../../../data/emanuela/activity-recognition/images/NTCIR-Lifelog-256/u1/2015-03-17/b00001034_21i6bq_20150317_182001e.jpg'
p1874
sg4
(lp1875
(g15
g6
(g18
S'\xab|\n?'
p1876
tp1877
Rp1878
tp1879
a(g44
g6
(g18
S'\xb3\xcd\xb1>'
p1880
tp1881
Rp1882
tp1883
a(g32
g6
(g18
S'r(F='
p1884
tp1885
Rp1886
tp1887
a(g178
g6
(g18
S'\x95\xd3\xc2<'
p1888
tp1889
Rp1890
tp1891
a(g68
g6
(g18
S'\xd1\xee\x82<'
p1892
tp1893
Rp1894
tp1895
asg73
g15
sa(dp1896
g2
S'../../../data/emanuela/activity-recognition/images/NTCIR-Lifelog-256/u1/2015-02-24/b00000210_21i6bq_20150224_084747e.jpg'
p1897
sg4
(lp1898
(g15
g6
(g18
S'R6j?'
p1899
tp1900
Rp1901
tp1902
a(g135
g6
(g18
S'MA#='
p1903
tp1904
Rp1905
tp1906
a(g32
g6
(g18
S'\x14\xbb\xc7<'
p1907
tp1908
Rp1909
tp1910
a(g68
g6
(g18
S'\x0e_\x92;'
p1911
tp1912
Rp1913
tp1914
a(g225
g6
(g18
S'5\xed\x84;'
p1915
tp1916
Rp1917
tp1918
asg73
g15
sa(dp1919
g2
S'../../../data/emanuela/activity-recognition/images/NTCIR-Lifelog-256/u1/2015-03-08/b00000572_21i6bq_20150308_135322e.jpg'
p1920
sg4
(lp1921
(g15
g6
(g18
S'#\x8c\x02?'
p1922
tp1923
Rp1924
tp1925
a(g116
g6
(g18
S'?\x06i>'
p1926
tp1927
Rp1928
tp1929
a(g678
g6
(g18
S'\xe7\x07\xcd='
p1930
tp1931
Rp1932
tp1933
a(g32
g6
(g18
S'g\xfb#='
p1934
tp1935
Rp1936
tp1937
a(g225
g6
(g18
S"'\xdd\xf7<"
p1938
tp1939
Rp1940
tp1941
asg73
g15
sa(dp1942
g2
S'../../../data/emanuela/activity-recognition/images/NTCIR-Lifelog-256/u1/2015-02-24/b00001293_21i6bq_20150224_195000e.jpg'
p1943
sg4
(lp1944
(g15
g6
(g18
S'\xfep_?'
p1945
tp1946
Rp1947
tp1948
a(g178
g6
(g18
S'`\xe7A='
p1949
tp1950
Rp1951
tp1952
a(g32
g6
(g18
S'\x92S\x0c='
p1953
tp1954
Rp1955
tp1956
a(g44
g6
(g18
S'-\xe0\xc9<'
p1957
tp1958
Rp1959
tp1960
a(g225
g6
(g18
S'\x13\xc4\x05<'
p1961
tp1962
Rp1963
tp1964
asg73
g15
sa(dp1965
g2
S'../../../data/emanuela/activity-recognition/images/NTCIR-Lifelog-256/u1/2015-03-16/b00002718_21i6bq_20150316_175014e.jpg'
p1966
sg4
(lp1967
(g44
g6
(g18
S'\xd4Dj>'
p1968
tp1969
Rp1970
tp1971
a(g116
g6
(g18
S'\xa2\xcc\\>'
p1972
tp1973
Rp1974
tp1975
a(g32
g6
(g18
S'\xb8.:>'
p1976
tp1977
Rp1978
tp1979
a(g15
g6
(g18
S'9W0>'
p1980
tp1981
Rp1982
tp1983
a(g56
g6
(g18
S'O\x1eF='
p1984
tp1985
Rp1986
tp1987
asg73
g15
sa(dp1988
g2
S'../../../data/emanuela/activity-recognition/images/NTCIR-Lifelog-256/u1/2015-03-16/b00002724_21i6bq_20150316_175348e.jpg'
p1989
sg4
(lp1990
(g32
g6
(g18
S't\x83\xee>'
p1991
tp1992
Rp1993
tp1994
a(g116
g6
(g18
S'\xbb\x18\xc9>'
p1995
tp1996
Rp1997
tp1998
a(g84
g6
(g18
S'\xc6\\f='
p1999
tp2000
Rp2001
tp2002
a(g56
g6
(g18
S'\xa7/\x06='
p2003
tp2004
Rp2005
tp2006
a(g15
g6
(g18
S'\x82\xfb\x80<'
p2007
tp2008
Rp2009
tp2010
asg73
g15
sa(dp2011
g2
S'../../../data/emanuela/activity-recognition/images/NTCIR-Lifelog-256/u1/2015-03-16/b00002723_21i6bq_20150316_175313e.jpg'
p2012
sg4
(lp2013
(g44
g6
(g18
S'Q\xe2\xb2>'
p2014
tp2015
Rp2016
tp2017
a(g116
g6
(g18
S'\xe3\xf4H>'
p2018
tp2019
Rp2020
tp2021
a(g56
g6
(g18
S'\xbb\xf1\xd2='
p2022
tp2023
Rp2024
tp2025
a(g32
g6
(g18
S'3\xf3\x86='
p2026
tp2027
Rp2028
tp2029
a(g15
g6
(g18
S';\xcbo='
p2030
tp2031
Rp2032
tp2033
asg73
g15
sa(dp2034
g2
S'../../../data/emanuela/activity-recognition/images/NTCIR-Lifelog-256/u1/2015-02-24/b00001300_21i6bq_20150224_195415e.jpg'
p2035
sg4
(lp2036
(g44
g6
(g18
S'\xb4p\x1c?'
p2037
tp2038
Rp2039
tp2040
a(g15
g6
(g18
S'\xb5\xd9\xa1>'
p2041
tp2042
Rp2043
tp2044
a(g32
g6
(g18
S'\x9ac\x10='
p2045
tp2046
Rp2047
tp2048
a(g135
g6
(g18
S'&*\xee;'
p2049
tp2050
Rp2051
tp2052
a(g116
g6
(g18
S'T\xa3\xca;'
p2053
tp2054
Rp2055
tp2056
asg73
g15
sa(dp2057
g2
S'../../../data/emanuela/activity-recognition/images/NTCIR-Lifelog-256/u1/2015-03-16/b00002721_21i6bq_20150316_175158e.jpg'
p2058
sg4
(lp2059
(g32
g6
(g18
S'\xbc:\x10?'
p2060
tp2061
Rp2062
tp2063
a(g15
g6
(g18
S'\xb47\x05>'
p2064
tp2065
Rp2066
tp2067
a(g84
g6
(g18
S'ac\xe1='
p2068
tp2069
Rp2070
tp2071
a(g116
g6
(g18
S'\xf1\x10\x97='
p2072
tp2073
Rp2074
tp2075
a(g609
g6
(g18
S'\xe9\xdf4='
p2076
tp2077
Rp2078
tp2079
asg73
g15
sa(dp2080
g2
S'../../../data/emanuela/activity-recognition/images/NTCIR-Lifelog-256/u1/2015-03-16/b00002708_21i6bq_20150316_174423e.jpg'
p2081
sg4
(lp2082
(g44
g6
(g18
S'59w?'
p2083
tp2084
Rp2085
tp2086
a(g56
g6
(g18
S'\xfc\x16*<'
p2087
tp2088
Rp2089
tp2090
a(g32
g6
(g18
S']\xfc\xd8;'
p2091
tp2092
Rp2093
tp2094
a(g609
g6
(g18
S'C\xb6\x8b;'
p2095
tp2096
Rp2097
tp2098
a(g15
g6
(g18
S'6\xbcQ;'
p2099
tp2100
Rp2101
tp2102
asg73
g15
sa(dp2103
g2
S'../../../data/emanuela/activity-recognition/images/NTCIR-Lifelog-256/u1/2015-03-17/b00001088_21i6bq_20150317_183837e.jpg'
p2104
sg4
(lp2105
(g32
g6
(g18
S'\xe1b\xe6>'
p2106
tp2107
Rp2108
tp2109
a(g135
g6
(g18
S')\xe5i>'
p2110
tp2111
Rp2112
tp2113
a(g15
g6
(g18
S'g\xd9\xb0='
p2114
tp2115
Rp2116
tp2117
a(g178
g6
(g18
S'\xda,S='
p2118
tp2119
Rp2120
tp2121
a(g56
g6
(g18
S'\xb5\x1d7='
p2122
tp2123
Rp2124
tp2125
asg73
g15
sa(dp2126
g2
S'../../../data/emanuela/activity-recognition/images/NTCIR-Lifelog-256/u1/2015-03-17/b00001027_21i6bq_20150317_181549e.jpg'
p2127
sg4
(lp2128
(g32
g6
(g18
S'~\xb1\x83>'
p2129
tp2130
Rp2131
tp2132
a(g15
g6
(g18
S'D\x838>'
p2133
tp2134
Rp2135
tp2136
a(g44
g6
(g18
S'_\xa9\x05>'
p2137
tp2138
Rp2139
tp2140
a(g194
g6
(g18
S'\xa3;\xe6='
p2141
tp2142
Rp2143
tp2144
a(g68
g6
(g18
S'\xc72\x91='
p2145
tp2146
Rp2147
tp2148
asg73
g15
sa(dp2149
g2
S'../../../data/emanuela/activity-recognition/images/NTCIR-Lifelog-256/u1/2015-02-25/b00000109_21i6bq_20150225_070011e.jpg'
p2150
sg4
(lp2151
(g84
g6
(g18
S'\xa4Q\x1a?'
p2152
tp2153
Rp2154
tp2155
a(g15
g6
(g18
S'\xf3\x85\x9b>'
p2156
tp2157
Rp2158
tp2159
a(g96
g6
(g18
S'\xb2xU='
p2160
tp2161
Rp2162
tp2163
a(g32
g6
(g18
S'\xd8\xcd\x07<'
p2164
tp2165
Rp2166
tp2167
a(g116
g6
(g18
S'\x9e\x0c\xe7;'
p2168
tp2169
Rp2170
tp2171
asg73
g15
sa(dp2172
g2
S'../../../data/emanuela/activity-recognition/images/NTCIR-Lifelog-256/u1/2015-03-16/b00002572_21i6bq_20150316_171244e.jpg'
p2173
sg4
(lp2174
(g15
g6
(g18
S'\x15\x8d\xeb>'
p2175
tp2176
Rp2177
tp2178
a(g32
g6
(g18
S',\xc2\xbb>'
p2179
tp2180
Rp2181
tp2182
a(g135
g6
(g18
S'\xba\xba\xa1='
p2183
tp2184
Rp2185
tp2186
a(g225
g6
(g18
S'\xcfr\xb0<'
p2187
tp2188
Rp2189
tp2190
a(g194
g6
(g18
S'k\x9a\x83<'
p2191
tp2192
Rp2193
tp2194
asg73
g15
sa(dp2195
g2
S'../../../data/emanuela/activity-recognition/images/NTCIR-Lifelog-256/u1/2015-02-24/b00001291_21i6bq_20150224_194840e.jpg'
p2196
sg4
(lp2197
(g44
g6
(g18
S'P\xdb\xee>'
p2198
tp2199
Rp2200
tp2201
a(g15
g6
(g18
S'z\xd5\xc0>'
p2202
tp2203
Rp2204
tp2205
a(g32
g6
(g18
S'\xe4\x1e\x9f='
p2206
tp2207
Rp2208
tp2209
a(g178
g6
(g18
S'l\xbf\xdc<'
p2210
tp2211
Rp2212
tp2213
a(g135
g6
(g18
S'\x9b"\xa5<'
p2214
tp2215
Rp2216
tp2217
asg73
g15
sa(dp2218
g2
S'../../../data/emanuela/activity-recognition/images/NTCIR-Lifelog-256/u1/2015-03-17/b00001026_21i6bq_20150317_181515e.jpg'
p2219
sg4
(lp2220
(g32
g6
(g18
S'\x90\xd3\xf3>'
p2221
tp2222
Rp2223
tp2224
a(g194
g6
(g18
S'\xd1\x9da>'
p2225
tp2226
Rp2227
tp2228
a(g15
g6
(g18
S'"\x02\x0e>'
p2229
tp2230
Rp2231
tp2232
a(g225
g6
(g18
S'\x80\xd2-='
p2233
tp2234
Rp2235
tp2236
a(g44
g6
(g18
S']!\x1f='
p2237
tp2238
Rp2239
tp2240
asg73
g15
sa(dp2241
g2
S'../../../data/emanuela/activity-recognition/images/NTCIR-Lifelog-256/u1/2015-03-17/b00001041_21i6bq_20150317_182408e.jpg'
p2242
sg4
(lp2243
(g15
g6
(g18
S'ni\xd8>'
p2244
tp2245
Rp2246
tp2247
a(g178
g6
(g18
S'\xf66J>'
p2248
tp2249
Rp2250
tp2251
a(g68
g6
(g18
S'\x08\x81\x18>'
p2252
tp2253
Rp2254
tp2255
a(g44
g6
(g18
S'\xc8\xe5\xae='
p2256
tp2257
Rp2258
tp2259
a(g32
g6
(g18
S'5\xd0\xf4<'
p2260
tp2261
Rp2262
tp2263
asg73
g15
sa(dp2264
g2
S'../../../data/emanuela/activity-recognition/images/NTCIR-Lifelog-256/u1/2015-03-06/b00000233_21i6bq_20150306_075003e.jpg'
p2265
sg4
(lp2266
(g15
g6
(g18
S'S\xea\x1b?'
p2267
tp2268
Rp2269
tp2270
a(g32
g6
(g18
S'\x19{\xc3='
p2271
tp2272
Rp2273
tp2274
a(g116
g6
(g18
S'\x04U\xae='
p2275
tp2276
Rp2277
tp2278
a(g678
g6
(g18
S'\x07\x84\xaa='
p2279
tp2280
Rp2281
tp2282
a(g225
g6
(g18
S'\xe8\xda\x0f='
p2283
tp2284
Rp2285
tp2286
asg73
g15
sa(dp2287
g2
S'../../../data/emanuela/activity-recognition/images/NTCIR-Lifelog-256/u1/2015-02-24/b00001296_21i6bq_20150224_195143e.jpg'
p2288
sg4
(lp2289
(g15
g6
(g18
S'4\xad=?'
p2290
tp2291
Rp2292
tp2293
a(g68
g6
(g18
S'z$\x8f='
p2294
tp2295
Rp2296
tp2297
a(g44
g6
(g18
S'"3S='
p2298
tp2299
Rp2300
tp2301
a(g225
g6
(g18
S'\xfa\xea8='
p2302
tp2303
Rp2304
tp2305
a(g32
g6
(g18
S'\xc2\x0b%='
p2306
tp2307
Rp2308
tp2309
asg73
g15
sa(dp2310
g2
S'../../../data/emanuela/activity-recognition/images/NTCIR-Lifelog-256/u1/2015-02-25/b00000107_21i6bq_20150225_065902e.jpg'
p2311
sg4
(lp2312
(g84
g6
(g18
S'\xcfz\x19?'
p2313
tp2314
Rp2315
tp2316
a(g96
g6
(g18
S'U\x03n>'
p2317
tp2318
Rp2319
tp2320
a(g15
g6
(g18
S'\x8df\x81='
p2321
tp2322
Rp2323
tp2324
a(g68
g6
(g18
S'oT\x06='
p2325
tp2326
Rp2327
tp2328
a(g321
g6
(g18
S'\xdf\xbc\x84<'
p2329
tp2330
Rp2331
tp2332
asg73
g15
sa(dp2333
g2
S'../../../data/emanuela/activity-recognition/images/NTCIR-Lifelog-256/u1/2015-03-17/b00001042_21i6bq_20150317_182441e.jpg'
p2334
sg4
(lp2335
(g44
g6
(g18
S'!P\xd6>'
p2336
tp2337
Rp2338
tp2339
a(g178
g6
(g18
S'U\x19`>'
p2340
tp2341
Rp2342
tp2343
a(g15
g6
(g18
S'\xb3\xb4;>'
p2344
tp2345
Rp2346
tp2347
a(g68
g6
(g18
S'\x82\xb3\xaa='
p2348
tp2349
Rp2350
tp2351
a(g32
g6
(g18
S'\x02\xf6\x1a='
p2352
tp2353
Rp2354
tp2355
asg73
g15
sa(dp2356
g2
S'../../../data/emanuela/activity-recognition/images/NTCIR-Lifelog-256/u1/2015-02-25/b00000083_21i6bq_20150225_064438e.jpg'
p2357
sg4
(lp2358
(g15
g6
(g18
S'@\x04b?'
p2359
tp2360
Rp2361
tp2362
a(g116
g6
(g18
S'\x01)6='
p2363
tp2364
Rp2365
tp2366
a(g32
g6
(g18
S'\x00j\xea<'
p2367
tp2368
Rp2369
tp2370
a(g1089
g6
(g18
S'\xa6q\x07<'
p2371
tp2372
Rp2373
tp2374
a(g178
g6
(g18
S'k\xad\xea;'
p2375
tp2376
Rp2377
tp2378
asg73
g15
sa(dp2379
g2
S'../../../data/emanuela/activity-recognition/images/NTCIR-Lifelog-256/u1/2015-03-17/b00001074_21i6bq_20150317_183218e.jpg'
p2380
sg4
(lp2381
(g32
g6
(g18
S'\x8d0\xe7>'
p2382
tp2383
Rp2384
tp2385
a(g15
g6
(g18
S'\x8d,\xa4>'
p2386
tp2387
Rp2388
tp2389
a(g194
g6
(g18
S'\xe5f\x18>'
p2390
tp2391
Rp2392
tp2393
a(g178
g6
(g18
S'\x0f\xc0\x06='
p2394
tp2395
Rp2396
tp2397
a(g44
g6
(g18
S'zg\x91<'
p2398
tp2399
Rp2400
tp2401
asg73
g15
sa(dp2402
g2
S'../../../data/emanuela/activity-recognition/images/NTCIR-Lifelog-256/u1/2015-03-17/b00001038_21i6bq_20150317_182214e.jpg'
p2403
sg4
(lp2404
(g44
g6
(g18
S'\xc8\xfaC?'
p2405
tp2406
Rp2407
tp2408
a(g15
g6
(g18
S'\x8a&F>'
p2409
tp2410
Rp2411
tp2412
a(g178
g6
(g18
S'>VJ<'
p2413
tp2414
Rp2415
tp2416
a(g32
g6
(g18
S'\xe6[F<'
p2417
tp2418
Rp2419
tp2420
a(g68
g6
(g18
S'^<\x14<'
p2421
tp2422
Rp2423
tp2424
asg73
g15
sa(dp2425
g2
S'../../../data/emanuela/activity-recognition/images/NTCIR-Lifelog-256/u1/2015-02-24/b00001277_21i6bq_20150224_194021e.jpg'
p2426
sg4
(lp2427
(g15
g6
(g18
S'\xed\x89a?'
p2428
tp2429
Rp2430
tp2431
a(g44
g6
(g18
S'\x03\x1f\xc4='
p2432
tp2433
Rp2434
tp2435
a(g32
g6
(g18
S'\xe3R<<'
p2436
tp2437
Rp2438
tp2439
a(g225
g6
(g18
S'q=\x83;'
p2440
tp2441
Rp2442
tp2443
a(g178
g6
(g18
S'*\xd6\x07;'
p2444
tp2445
Rp2446
tp2447
asg73
g15
sa(dp2448
g2
S'../../../data/emanuela/activity-recognition/images/NTCIR-Lifelog-256/u1/2015-02-25/b00000104_21i6bq_20150225_065711e.jpg'
p2449
sg4
(lp2450
(g84
g6
(g18
S'\xfe\xf1\n?'
p2451
tp2452
Rp2453
tp2454
a(g96
g6
(g18
S'\xe9x\xa5>'
p2455
tp2456
Rp2457
tp2458
a(g68
g6
(g18
S'&\n\x1e='
p2459
tp2460
Rp2461
tp2462
a(g321
g6
(g18
S'\x93\xf8\xa3<'
p2463
tp2464
Rp2465
tp2466
a(g178
g6
(g18
S'\xc2\x9d\xa2<'
p2467
tp2468
Rp2469
tp2470
asg73
g15
sa(dp2471
g2
S'../../../data/emanuela/activity-recognition/images/NTCIR-Lifelog-256/u1/2015-03-16/b00002715_21i6bq_20150316_174827e.jpg'
p2472
sg4
(lp2473
(g116
g6
(g18
S'R\x82]?'
p2474
tp2475
Rp2476
tp2477
a(g32
g6
(g18
S'\xa1\xa6(='
p2478
tp2479
Rp2480
tp2481
a(g44
g6
(g18
S'\xb8\x0c\xc6<'
p2482
tp2483
Rp2484
tp2485
a(g609
g6
(g18
S'Hq\x85<'
p2486
tp2487
Rp2488
tp2489
a(g56
g6
(g18
S'OeK<'
p2490
tp2491
Rp2492
tp2493
asg73
g15
sa(dp2494
g2
S'../../../data/emanuela/activity-recognition/images/NTCIR-Lifelog-256/u1/2015-03-17/b00001037_21i6bq_20150317_182140e.jpg'
p2495
sg4
(lp2496
(g15
g6
(g18
S'R\x82\x1d?'
p2497
tp2498
Rp2499
tp2500
a(g44
g6
(g18
S'&\xb8c>'
p2501
tp2502
Rp2503
tp2504
a(g178
g6
(g18
S'ya\xd3='
p2505
tp2506
Rp2507
tp2508
a(g32
g6
(g18
S'\xd8\x0c ='
p2509
tp2510
Rp2511
tp2512
a(g68
g6
(g18
S'h\x9a\x8a;'
p2513
tp2514
Rp2515
tp2516
asg73
g15
sa(dp2517
g2
S'../../../data/emanuela/activity-recognition/images/NTCIR-Lifelog-256/u1/2015-03-08/b00000567_21i6bq_20150308_135006e.jpg'
p2518
sg4
(lp2519
(g15
g6
(g18
S'\xffNt?'
p2520
tp2521
Rp2522
tp2523
a(g225
g6
(g18
S'g+\x81<'
p2524
tp2525
Rp2526
tp2527
a(g678
g6
(g18
S'4\x17K<'
p2528
tp2529
Rp2530
tp2531
a(g609
g6
(g18
S'z&\xe5;'
p2532
tp2533
Rp2534
tp2535
a(g84
g6
(g18
S'\xc86s;'
p2536
tp2537
Rp2538
tp2539
asg73
g15
sa(dp2540
g2
S'../../../data/emanuela/activity-recognition/images/NTCIR-Lifelog-256/u1/2015-02-25/b00000093_21i6bq_20150225_065033e.jpg'
p2541
sg4
(lp2542
(g84
g6
(g18
S'\x0f\xc1H?'
p2543
tp2544
Rp2545
tp2546
a(g96
g6
(g18
S'\xef+A='
p2547
tp2548
Rp2549
tp2550
a(g32
g6
(g18
S't\x878='
p2551
tp2552
Rp2553
tp2554
a(g116
g6
(g18
S'\x0c\xca)='
p2555
tp2556
Rp2557
tp2558
a(g15
g6
(g18
S')\xa7\xa9<'
p2559
tp2560
Rp2561
tp2562
asg73
g15
sa(dp2563
g2
S'../../../data/emanuela/activity-recognition/images/NTCIR-Lifelog-256/u1/2015-02-25/b00000098_21i6bq_20150225_065344e.jpg'
p2564
sg4
(lp2565
(g84
g6
(g18
S'\xc8\xf2/?'
p2566
tp2567
Rp2568
tp2569
a(g96
g6
(g18
S'7\xfa9>'
p2570
tp2571
Rp2572
tp2573
a(g68
g6
(g18
S'\xe1\xbcx='
p2574
tp2575
Rp2576
tp2577
a(g32
g6
(g18
S'\x0e<\xea<'
p2578
tp2579
Rp2580
tp2581
a(g321
g6
(g18
S'QMu<'
p2582
tp2583
Rp2584
tp2585
asg73
g15
sa(dp2586
g2
S'../../../data/emanuela/activity-recognition/images/NTCIR-Lifelog-256/u1/2015-03-08/b00000568_21i6bq_20150308_135043e.jpg'
p2587
sg4
(lp2588
(g15
g6
(g18
S'\xc7sv?'
p2589
tp2590
Rp2591
tp2592
a(g225
g6
(g18
S'\xeb\xcb\xce<'
p2593
tp2594
Rp2595
tp2596
a(g609
g6
(g18
S'\xd8\x0f\xda;'
p2597
tp2598
Rp2599
tp2600
a(g116
g6
(g18
S'\x9c\x90\x13;'
p2601
tp2602
Rp2603
tp2604
a(g678
g6
(g18
S'\xb6\xe3\xa5:'
p2605
tp2606
Rp2607
tp2608
asg73
g15
sa(dp2609
g2
S'../../../data/emanuela/activity-recognition/images/NTCIR-Lifelog-256/u1/2015-02-25/b00000091_21i6bq_20150225_064923e.jpg'
p2610
sg4
(lp2611
(g15
g6
(g18
S'C/\xfa>'
p2612
tp2613
Rp2614
tp2615
a(g84
g6
(g18
S'\xf9\xf7\xb6>'
p2616
tp2617
Rp2618
tp2619
a(g96
g6
(g18
S'\x9f\np='
p2620
tp2621
Rp2622
tp2623
a(g116
g6
(g18
S'\xd0\xf6\x16='
p2624
tp2625
Rp2626
tp2627
a(g32
g6
(g18
S'\x94\r\xbd<'
p2628
tp2629
Rp2630
tp2631
asg73
g15
sa(dp2632
g2
S'../../../data/emanuela/activity-recognition/images/NTCIR-Lifelog-256/u1/2015-03-06/b00000231_21i6bq_20150306_074849e.jpg'
p2633
sg4
(lp2634
(g15
g6
(g18
S'\x85 \xbb>'
p2635
tp2636
Rp2637
tp2638
a(g116
g6
(g18
S'\xc8oP>'
p2639
tp2640
Rp2641
tp2642
a(g678
g6
(g18
S'\xd4}G>'
p2643
tp2644
Rp2645
tp2646
a(g32
g6
(g18
S'\n\xbf\xa8='
p2647
tp2648
Rp2649
tp2650
a(g135
g6
(g18
S'\xe6\x92\xed<'
p2651
tp2652
Rp2653
tp2654
asg73
g15
sa(dp2655
g2
S'../../../data/emanuela/activity-recognition/images/NTCIR-Lifelog-256/u1/2015-03-06/b00000235_21i6bq_20150306_075124e.jpg'
p2656
sg4
(lp2657
(g15
g6
(g18
S'k\x8b/?'
p2658
tp2659
Rp2660
tp2661
a(g678
g6
(g18
S'\xd6<&>'
p2662
tp2663
Rp2664
tp2665
a(g116
g6
(g18
S'\xe4`@='
p2666
tp2667
Rp2668
tp2669
a(g32
g6
(g18
S',x\xff<'
p2670
tp2671
Rp2672
tp2673
a(g135
g6
(g18
S'\xf3Q\xd6<'
p2674
tp2675
Rp2676
tp2677
asg73
g15
sa(dp2678
g2
S'../../../data/emanuela/activity-recognition/images/NTCIR-Lifelog-256/u1/2015-03-16/b00002706_21i6bq_20150316_174309e.jpg'
p2679
sg4
(lp2680
(g44
g6
(g18
S'\x8e\xc3b?'
p2681
tp2682
Rp2683
tp2684
a(g32
g6
(g18
S'\xde-\xbc<'
p2685
tp2686
Rp2687
tp2688
a(g56
g6
(g18
S'F!\xa6<'
p2689
tp2690
Rp2691
tp2692
a(g15
g6
(g18
S'\x00\r\x8f<'
p2693
tp2694
Rp2695
tp2696
a(g609
g6
(g18
S'\x8f\x1ea<'
p2697
tp2698
Rp2699
tp2700
asg73
g15
sa(dp2701
g2
S'../../../data/emanuela/activity-recognition/images/NTCIR-Lifelog-256/u1/2015-02-25/b00000085_21i6bq_20150225_064546e.jpg'
p2702
sg4
(lp2703
(g15
g6
(g18
S'z-z?'
p2704
tp2705
Rp2706
tp2707
a(g116
g6
(g18
S'+\xca\xcf;'
p2708
tp2709
Rp2710
tp2711
a(g32
g6
(g18
S's\xa8\x81;'
p2712
tp2713
Rp2714
tp2715
a(g225
g6
(g18
S'\x9dzy;'
p2716
tp2717
Rp2718
tp2719
a(g1089
g6
(g18
S'\x95\xfe\x9f:'
p2720
tp2721
Rp2722
tp2723
asg73
g15
sa(dp2724
g2
S'../../../data/emanuela/activity-recognition/images/NTCIR-Lifelog-256/u1/2015-03-16/b00002720_21i6bq_20150316_175120e.jpg'
p2725
sg4
(lp2726
(g116
g6
(g18
S'a\x12O?'
p2727
tp2728
Rp2729
tp2730
a(g32
g6
(g18
S'U\xed\xbe='
p2731
tp2732
Rp2733
tp2734
a(g84
g6
(g18
S'<+\xc3<'
p2735
tp2736
Rp2737
tp2738
a(g44
g6
(g18
S'\xe3\xbbK<'
p2739
tp2740
Rp2741
tp2742
a(g947
g6
(g18
S'\x1c\xdaD<'
p2743
tp2744
Rp2745
tp2746
asg73
g15
sa(dp2747
g2
S'../../../data/emanuela/activity-recognition/images/NTCIR-Lifelog-256/u1/2015-02-24/b00000130_21i6bq_20150224_075941e.jpg'
p2748
sg4
(lp2749
(g15
g6
(g18
S'\xdcO\xfe>'
p2750
tp2751
Rp2752
tp2753
a(g32
g6
(g18
S'\x15\xdf/>'
p2754
tp2755
Rp2756
tp2757
a(g135
g6
(g18
S'\xf3\xc0 >'
p2758
tp2759
Rp2760
tp2761
a(g44
g6
(g18
S'\xa3\xe23='
p2762
tp2763
Rp2764
tp2765
a(g225
g6
(g18
S"\xbb{'="
p2766
tp2767
Rp2768
tp2769
asg73
g15
sa(dp2770
g2
S'../../../data/emanuela/activity-recognition/images/NTCIR-Lifelog-256/u1/2015-02-25/b00000090_21i6bq_20150225_064846e.jpg'
p2771
sg4
(lp2772
(g84
g6
(g18
S'\x83\x83\x15?'
p2773
tp2774
Rp2775
tp2776
a(g15
g6
(g18
S'\xc3?\xe1='
p2777
tp2778
Rp2779
tp2780
a(g116
g6
(g18
S'\x91d\xa1='
p2781
tp2782
Rp2783
tp2784
a(g32
g6
(g18
S'N\x89S='
p2785
tp2786
Rp2787
tp2788
a(g178
g6
(g18
S'\xf7\t\xe2<'
p2789
tp2790
Rp2791
tp2792
asg73
g15
sa(dp2793
g2
S'../../../data/emanuela/activity-recognition/images/NTCIR-Lifelog-256/u1/2015-03-16/b00002710_21i6bq_20150316_174535e.jpg'
p2794
sg4
(lp2795
(g44
g6
(g18
S'\xde*\r?'
p2796
tp2797
Rp2798
tp2799
a(g56
g6
(g18
S's\r\x87>'
p2800
tp2801
Rp2802
tp2803
a(g116
g6
(g18
S'\xe2\xfch='
p2804
tp2805
Rp2806
tp2807
a(g32
g6
(g18
S'\xb5\x81\xdd<'
p2808
tp2809
Rp2810
tp2811
a(g155
g6
(g18
S'5\xcb\xad<'
p2812
tp2813
Rp2814
tp2815
asg73
g15
sa(dp2816
g2
S'../../../data/emanuela/activity-recognition/images/NTCIR-Lifelog-256/u1/2015-02-25/b00000095_21i6bq_20150225_065145e.jpg'
p2817
sg4
(lp2818
(g84
g6
(g18
S'\xfe\x08\x13?'
p2819
tp2820
Rp2821
tp2822
a(g116
g6
(g18
S'\x06\x1d->'
p2823
tp2824
Rp2825
tp2826
a(g32
g6
(g18
S'\x932\x82='
p2827
tp2828
Rp2829
tp2830
a(g96
g6
(g18
S'\xa8tC='
p2831
tp2832
Rp2833
tp2834
a(g15
g6
(g18
S'?X\xf9<'
p2835
tp2836
Rp2837
tp2838
asg73
g15
sa(dp2839
g2
S'../../../data/emanuela/activity-recognition/images/NTCIR-Lifelog-256/u1/2015-03-16/b00002719_21i6bq_20150316_175045e.jpg'
p2840
sg4
(lp2841
(g116
g6
(g18
S'\x00~\x15?'
p2842
tp2843
Rp2844
tp2845
a(g32
g6
(g18
S'\x00\x8e>>'
p2846
tp2847
Rp2848
tp2849
a(g56
g6
(g18
S'\xeat{='
p2850
tp2851
Rp2852
tp2853
a(g44
g6
(g18
S' Z3='
p2854
tp2855
Rp2856
tp2857
a(g135
g6
(g18
S'\x9a\xcf\xa8<'
p2858
tp2859
Rp2860
tp2861
asg73
g15
sa(dp2862
g2
S'../../../data/emanuela/activity-recognition/images/NTCIR-Lifelog-256/u1/2015-03-17/b00001087_21i6bq_20150317_183757e.jpg'
p2863
sg4
(lp2864
(g15
g6
(g18
S"'\x87\xde>"
p2865
tp2866
Rp2867
tp2868
a(g32
g6
(g18
S'\xd6\x1d\xbd>'
p2869
tp2870
Rp2871
tp2872
a(g194
g6
(g18
S'\xcd\x9d@='
p2873
tp2874
Rp2875
tp2876
a(g178
g6
(g18
S'\x1e\xc9?='
p2877
tp2878
Rp2879
tp2880
a(g135
g6
(g18
S'\xde?\xdf<'
p2881
tp2882
Rp2883
tp2884
asg73
g15
sa(dp2885
g2
S'../../../data/emanuela/activity-recognition/images/NTCIR-Lifelog-256/u1/2015-03-16/b00002628_21i6bq_20150316_172902e.jpg'
p2886
sg4
(lp2887
(g135
g6
(g18
S'\xc0(\xb6>'
p2888
tp2889
Rp2890
tp2891
a(g44
g6
(g18
S'P\xa78>'
p2892
tp2893
Rp2894
tp2895
a(g116
g6
(g18
S'\t\xc23>'
p2896
tp2897
Rp2898
tp2899
a(g68
g6
(g18
S'5\x18\xbe='
p2900
tp2901
Rp2902
tp2903
a(g678
g6
(g18
S'\xe8~\xb7='
p2904
tp2905
Rp2906
tp2907
asg73
g15
sa(dp2908
g2
S'../../../data/emanuela/activity-recognition/images/NTCIR-Lifelog-256/u1/2015-02-25/b00000122_21i6bq_20150225_070808e.jpg'
p2909
sg4
(lp2910
(g84
g6
(g18
S'\x87\x18K?'
p2911
tp2912
Rp2913
tp2914
a(g96
g6
(g18
S'\xaf\x89\x9a='
p2915
tp2916
Rp2917
tp2918
a(g15
g6
(g18
S'\x1f\x07\x89='
p2919
tp2920
Rp2921
tp2922
a(g116
g6
(g18
S'\xfe}\x82<'
p2923
tp2924
Rp2925
tp2926
a(g32
g6
(g18
S'o0w<'
p2927
tp2928
Rp2929
tp2930
asg73
g15
sa(dp2931
g2
S'../../../data/emanuela/activity-recognition/images/NTCIR-Lifelog-256/u1/2015-02-25/b00000113_21i6bq_20150225_070244e.jpg'
p2932
sg4
(lp2933
(g15
g6
(g18
S'\x87\xd3\x16?'
p2934
tp2935
Rp2936
tp2937
a(g84
g6
(g18
S'\x86\xd7\x9f>'
p2938
tp2939
Rp2940
tp2941
a(g32
g6
(g18
S'\xe6\xd7\x03='
p2942
tp2943
Rp2944
tp2945
a(g96
g6
(g18
S'\x0eF\xba<'
p2946
tp2947
Rp2948
tp2949
a(g135
g6
(g18
S'\xe0\xda\x19<'
p2950
tp2951
Rp2952
tp2953
asg73
g15
sa(dp2954
g2
S'../../../data/emanuela/activity-recognition/images/NTCIR-Lifelog-256/u1/2015-02-24/b00001287_21i6bq_20150224_194629e.jpg'
p2955
sg4
(lp2956
(g15
g6
(g18
S'9\x87*?'
p2957
tp2958
Rp2959
tp2960
a(g44
g6
(g18
S'\xc2}L>'
p2961
tp2962
Rp2963
tp2964
a(g32
g6
(g18
S's8\x1e='
p2965
tp2966
Rp2967
tp2968
a(g68
g6
(g18
S'\x0f\x0f\xba<'
p2969
tp2970
Rp2971
tp2972
a(g135
g6
(g18
S'Ib\xb4<'
p2973
tp2974
Rp2975
tp2976
asg73
g15
sa(dp2977
g2
S'../../../data/emanuela/activity-recognition/images/NTCIR-Lifelog-256/u1/2015-02-24/b00001299_21i6bq_20150224_195339e.jpg'
p2978
sg4
(lp2979
(g44
g6
(g18
S'\xe8\xab\xcb>'
p2980
tp2981
Rp2982
tp2983
a(g15
g6
(g18
S'&\xf8\x89>'
p2984
tp2985
Rp2986
tp2987
a(g178
g6
(g18
S'\x00\xdb/>'
p2988
tp2989
Rp2990
tp2991
a(g68
g6
(g18
S'K\xb1\x82='
p2992
tp2993
Rp2994
tp2995
a(g32
g6
(g18
S'\x9f\xa0\xd2<'
p2996
tp2997
Rp2998
tp2999
asg73
g15
sa(dp3000
g2
S'../../../data/emanuela/activity-recognition/images/NTCIR-Lifelog-256/u1/2015-02-25/b00000096_21i6bq_20150225_065224e.jpg'
p3001
sg4
(lp3002
(g84
g6
(g18
S'\xa8\x08A?'
p3003
tp3004
Rp3005
tp3006
a(g96
g6
(g18
S'\t\xcd\xbc='
p3007
tp3008
Rp3009
tp3010
a(g116
g6
(g18
S'\x15(a='
p3011
tp3012
Rp3013
tp3014
a(g32
g6
(g18
S'\x85\x169='
p3015
tp3016
Rp3017
tp3018
a(g15
g6
(g18
S'\xd9\x05\xf9;'
p3019
tp3020
Rp3021
tp3022
asg73
g15
sa(dp3023
g2
S'../../../data/emanuela/activity-recognition/images/NTCIR-Lifelog-256/u1/2015-03-16/b00002648_21i6bq_20150316_173210e.jpg'
p3024
sg4
(lp3025
(g135
g6
(g18
S'=\xd5\x1b?'
p3026
tp3027
Rp3028
tp3029
a(g116
g6
(g18
S'\x12\x8d\xd9='
p3030
tp3031
Rp3032
tp3033
a(g32
g6
(g18
S'I\xea\xd3='
p3034
tp3035
Rp3036
tp3037
a(g56
g6
(g18
S'\x19\x1d\xa1='
p3038
tp3039
Rp3040
tp3041
a(g68
g6
(g18
S'\xaa\x85\xed<'
p3042
tp3043
Rp3044
tp3045
asg73
g15
sa(dp3046
g2
S'../../../data/emanuela/activity-recognition/images/NTCIR-Lifelog-256/u1/2015-03-17/b00001047_21i6bq_20150317_182746e.jpg'
p3047
sg4
(lp3048
(g178
g6
(g18
S'\x04\x02\x88>'
p3049
tp3050
Rp3051
tp3052
a(g44
g6
(g18
S'\x04Y\x86>'
p3053
tp3054
Rp3055
tp3056
a(g15
g6
(g18
S'\xe9L\x82>'
p3057
tp3058
Rp3059
tp3060
a(g32
g6
(g18
S'\xcap\xcd='
p3061
tp3062
Rp3063
tp3064
a(g68
g6
(g18
S'G},='
p3065
tp3066
Rp3067
tp3068
asg73
g15
sa(dp3069
g2
S'../../../data/emanuela/activity-recognition/images/NTCIR-Lifelog-256/u1/2015-02-25/b00000102_21i6bq_20150225_065604e.jpg'
p3070
sg4
(lp3071
(g84
g6
(g18
S'S\xc7\xd6>'
p3072
tp3073
Rp3074
tp3075
a(g96
g6
(g18
S'\xca\xbc\xc3>'
p3076
tp3077
Rp3078
tp3079
a(g68
g6
(g18
S'P\x8e\xba='
p3080
tp3081
Rp3082
tp3083
a(g321
g6
(g18
S'7XU='
p3084
tp3085
Rp3086
tp3087
a(g32
g6
(g18
S'-1=<'
p3088
tp3089
Rp3090
tp3091
asg73
g15
sa(dp3092
g2
S'../../../data/emanuela/activity-recognition/images/NTCIR-Lifelog-256/u1/2015-03-08/b00000564_21i6bq_20150308_134822e.jpg'
p3093
sg4
(lp3094
(g609
g6
(g18
S'\xe3-\xa1>'
p3095
tp3096
Rp3097
tp3098
a(g15
g6
(g18
S'+\x8cT>'
p3099
tp3100
Rp3101
tp3102
a(g32
g6
(g18
S'c0\x1e>'
p3103
tp3104
Rp3105
tp3106
a(g225
g6
(g18
S'\xb5\xe4\x82='
p3107
tp3108
Rp3109
tp3110
a(g84
g6
(g18
S'\xe8K3='
p3111
tp3112
Rp3113
tp3114
asg73
g15
sa(dp3115
g2
S'../../../data/emanuela/activity-recognition/images/NTCIR-Lifelog-256/u1/2015-03-17/b00001025_21i6bq_20150317_181438e.jpg'
p3116
sg4
(lp3117
(g44
g6
(g18
S'\xa6a\x08?'
p3118
tp3119
Rp3120
tp3121
a(g32
g6
(g18
S'\x16\x1aN>'
p3122
tp3123
Rp3124
tp3125
a(g15
g6
(g18
S'mi\xb5='
p3126
tp3127
Rp3128
tp3129
a(g194
g6
(g18
S'\xcfF7='
p3130
tp3131
Rp3132
tp3133
a(g225
g6
(g18
S'g\xc7\xf9<'
p3134
tp3135
Rp3136
tp3137
asg73
g15
sa(dp3138
g2
S'../../../data/emanuela/activity-recognition/images/NTCIR-Lifelog-256/u1/2015-03-17/b00001081_21i6bq_20150317_183416e.jpg'
p3139
sg4
(lp3140
(g32
g6
(g18
S'\x85s\xa7>'
p3141
tp3142
Rp3143
tp3144
a(g194
g6
(g18
S'\xc3\xb6<>'
p3145
tp3146
Rp3147
tp3148
a(g135
g6
(g18
S'\xd0\x92\xee='
p3149
tp3150
Rp3151
tp3152
a(g178
g6
(g18
S'\xceo\xe7='
p3153
tp3154
Rp3155
tp3156
a(g155
g6
(g18
S'\xce\xcd\xbc='
p3157
tp3158
Rp3159
tp3160
asg73
g15
sa(dp3161
g2
S'../../../data/emanuela/activity-recognition/images/NTCIR-Lifelog-256/u1/2015-02-25/b00000118_21i6bq_20150225_070553e.jpg'
p3162
sg4
(lp3163
(g84
g6
(g18
S'\xa9\xdd3?'
p3164
tp3165
Rp3166
tp3167
a(g15
g6
(g18
S'.j\xaf='
p3168
tp3169
Rp3170
tp3171
a(g116
g6
(g18
S'\xb3\xc8\xab='
p3172
tp3173
Rp3174
tp3175
a(g32
g6
(g18
S'\xa2=.='
p3176
tp3177
Rp3178
tp3179
a(g96
g6
(g18
S'\x05\xcf\x1b='
p3180
tp3181
Rp3182
tp3183
asg73
g15
sa(dp3184
g2
S'../../../data/emanuela/activity-recognition/images/NTCIR-Lifelog-256/u1/2015-03-17/b00001039_21i6bq_20150317_182253e.jpg'
p3185
sg4
(lp3186
(g15
g6
(g18
S'\xac\x90\x9c>'
p3187
tp3188
Rp3189
tp3190
a(g44
g6
(g18
S'%\xaaL>'
p3191
tp3192
Rp3193
tp3194
a(g32
g6
(g18
S'\xe5\xd6\t>'
p3195
tp3196
Rp3197
tp3198
a(g56
g6
(g18
S"_'\x98="
p3199
tp3200
Rp3201
tp3202
a(g84
g6
(g18
S']P-='
p3203
tp3204
Rp3205
tp3206
asg73
g15
sa(dp3207
g2
S'../../../data/emanuela/activity-recognition/images/NTCIR-Lifelog-256/u1/2015-02-25/b00000116_21i6bq_20150225_070438e.jpg'
p3208
sg4
(lp3209
(g84
g6
(g18
S'X}\xdd>'
p3210
tp3211
Rp3212
tp3213
a(g15
g6
(g18
S'\xea\x15e>'
p3214
tp3215
Rp3216
tp3217
a(g68
g6
(g18
S'\xcer\xc5='
p3218
tp3219
Rp3220
tp3221
a(g96
g6
(g18
S'\x17D\x9f='
p3222
tp3223
Rp3224
tp3225
a(g321
g6
(g18
S't.\x8e='
p3226
tp3227
Rp3228
tp3229
asg73
g15
sa(dp3230
g2
S'../../../data/emanuela/activity-recognition/images/NTCIR-Lifelog-256/u1/2015-03-16/b00002575_21i6bq_20150316_171337e.jpg'
p3231
sg4
(lp3232
(g15
g6
(g18
S'9\x12\xdc>'
p3233
tp3234
Rp3235
tp3236
a(g32
g6
(g18
S'\x96>\xab>'
p3237
tp3238
Rp3239
tp3240
a(g225
g6
(g18
S'6v\x8f='
p3241
tp3242
Rp3243
tp3244
a(g155
g6
(g18
S'\x8f\x800='
p3245
tp3246
Rp3247
tp3248
a(g194
g6
(g18
S'\xaa\xe6\x11='
p3249
tp3250
Rp3251
tp3252
asg73
g15
sa(dp3253
g2
S'../../../data/emanuela/activity-recognition/images/NTCIR-Lifelog-256/u1/2015-03-17/b00001024_21i6bq_20150317_181404e.jpg'
p3254
sg4
(lp3255
(g15
g6
(g18
S'c\xe7\x02?'
p3256
tp3257
Rp3258
tp3259
a(g32
g6
(g18
S'5\x9a\x0c>'
p3260
tp3261
Rp3262
tp3263
a(g225
g6
(g18
S'N\x9a\xb8='
p3264
tp3265
Rp3266
tp3267
a(g116
g6
(g18
S'r\xd5M='
p3268
tp3269
Rp3270
tp3271
a(g84
g6
(g18
S'~\xe8\x15='
p3272
tp3273
Rp3274
tp3275
asg73
g15
sa(dp3276
g2
S'../../../data/emanuela/activity-recognition/images/NTCIR-Lifelog-256/u1/2015-03-17/b00001082_21i6bq_20150317_183448e.jpg'
p3277
sg4
(lp3278
(g178
g6
(g18
S'\xb1\xff\x81>'
p3279
tp3280
Rp3281
tp3282
a(g194
g6
(g18
S'~\x8dz>'
p3283
tp3284
Rp3285
tp3286
a(g155
g6
(g18
S'\xee\xca%>'
p3287
tp3288
Rp3289
tp3290
a(g321
g6
(g18
S'\x05\xaa\xc9='
p3291
tp3292
Rp3293
tp3294
a(g56
g6
(g18
S'\x14\x05\xb8='
p3295
tp3296
Rp3297
tp3298
asg73
g15
sa(dp3299
g2
S'../../../data/emanuela/activity-recognition/images/NTCIR-Lifelog-256/u1/2015-03-16/b00002583_21i6bq_20150316_171424e.jpg'
p3300
sg4
(lp3301
(g15
g6
(g18
S'7\xb2+?'
p3302
tp3303
Rp3304
tp3305
a(g32
g6
(g18
S'\xf0O\x13>'
p3306
tp3307
Rp3308
tp3309
a(g178
g6
(g18
S'\xca\x04,='
p3310
tp3311
Rp3312
tp3313
a(g135
g6
(g18
S'i7\x04='
p3314
tp3315
Rp3316
tp3317
a(g44
g6
(g18
S'\x91\xb9\xd1<'
p3318
tp3319
Rp3320
tp3321
asg73
g15
sa(dp3322
g2
S'../../../data/emanuela/activity-recognition/images/NTCIR-Lifelog-256/u1/2015-03-17/b00001085_21i6bq_20150317_183643e.jpg'
p3323
sg4
(lp3324
(g15
g6
(g18
S'5Z\x95>'
p3325
tp3326
Rp3327
tp3328
a(g32
g6
(g18
S'\xbb\x8c_>'
p3329
tp3330
Rp3331
tp3332
a(g68
g6
(g18
S'[\xa4\xe2='
p3333
tp3334
Rp3335
tp3336
a(g135
g6
(g18
S'\x9a\xbbd='
p3337
tp3338
Rp3339
tp3340
a(g56
g6
(g18
S'[\xabN='
p3341
tp3342
Rp3343
tp3344
asg73
g15
sa(dp3345
g2
S'../../../data/emanuela/activity-recognition/images/NTCIR-Lifelog-256/u1/2015-03-06/b00000232_21i6bq_20150306_074924e.jpg'
p3346
sg4
(lp3347
(g15
g6
(g18
S'1I\x19?'
p3348
tp3349
Rp3350
tp3351
a(g678
g6
(g18
S':\x0b\x14>'
p3352
tp3353
Rp3354
tp3355
a(g32
g6
(g18
S's\x9f\xa7='
p3356
tp3357
Rp3358
tp3359
a(g135
g6
(g18
S'x\x81\x15='
p3360
tp3361
Rp3362
tp3363
a(g116
g6
(g18
S'\xb6\xc0\x13='
p3364
tp3365
Rp3366
tp3367
asg73
g15
sa(dp3368
g2
S'../../../data/emanuela/activity-recognition/images/NTCIR-Lifelog-256/u1/2015-02-25/b00000092_21i6bq_20150225_064957e.jpg'
p3369
sg4
(lp3370
(g84
g6
(g18
S'}L\x11?'
p3371
tp3372
Rp3373
tp3374
a(g116
g6
(g18
S'\x17\x08p>'
p3375
tp3376
Rp3377
tp3378
a(g32
g6
(g18
S'@ll='
p3379
tp3380
Rp3381
tp3382
a(g96
g6
(g18
S'\x1a\xf5G='
p3383
tp3384
Rp3385
tp3386
a(g15
g6
(g18
S'\x17\xc6 ='
p3387
tp3388
Rp3389
tp3390
asg73
g15
sa(dp3391
g2
S'../../../data/emanuela/activity-recognition/images/NTCIR-Lifelog-256/u1/2015-03-16/b00002711_21i6bq_20150316_174611e.jpg'
p3392
sg4
(lp3393
(g116
g6
(g18
S';\xa5r?'
p3394
tp3395
Rp3396
tp3397
a(g32
g6
(g18
S'G\x83\xc4<'
p3398
tp3399
Rp3400
tp3401
a(g84
g6
(g18
S'\xca\x9a\xdd;'
p3402
tp3403
Rp3404
tp3405
a(g609
g6
(g18
S'0\x12\x99;'
p3406
tp3407
Rp3408
tp3409
a(g56
g6
(g18
S'a\x83\x96;'
p3410
tp3411
Rp3412
tp3413
asg73
g15
sa(dp3414
g2
S'../../../data/emanuela/activity-recognition/images/NTCIR-Lifelog-256/u1/2015-02-24/b00001282_21i6bq_20150224_194320e.jpg'
p3415
sg4
(lp3416
(g15
g6
(g18
S'f\x19_?'
p3417
tp3418
Rp3419
tp3420
a(g44
g6
(g18
S'\xd7T\x91='
p3421
tp3422
Rp3423
tp3424
a(g32
g6
(g18
S'}p\xdd<'
p3425
tp3426
Rp3427
tp3428
a(g56
g6
(g18
S'\x92\xc3\xcb;'
p3429
tp3430
Rp3431
tp3432
a(g135
g6
(g18
S':f\xc8;'
p3433
tp3434
Rp3435
tp3436
asg73
g15
sa(dp3437
g2
S'../../../data/emanuela/activity-recognition/images/NTCIR-Lifelog-256/u1/2015-02-24/b00001279_21i6bq_20150224_194133e.jpg'
p3438
sg4
(lp3439
(g15
g6
(g18
S'a\xaeX?'
p3440
tp3441
Rp3442
tp3443
a(g44
g6
(g18
S'>\xe5\x92='
p3444
tp3445
Rp3446
tp3447
a(g225
g6
(g18
S'\xc4\x97\xcf<'
p3448
tp3449
Rp3450
tp3451
a(g178
g6
(g18
S'Pb\x98<'
p3452
tp3453
Rp3454
tp3455
a(g32
g6
(g18
S'\xc1\x01\x92<'
p3456
tp3457
Rp3458
tp3459
asg73
g15
sa(dp3460
g2
S'../../../data/emanuela/activity-recognition/images/NTCIR-Lifelog-256/u1/2015-03-16/b00002709_21i6bq_20150316_174500e.jpg'
p3461
sg4
(lp3462
(g116
g6
(g18
S'Z\xe7\x14?'
p3463
tp3464
Rp3465
tp3466
a(g32
g6
(g18
S'vAM>'
p3467
tp3468
Rp3469
tp3470
a(g84
g6
(g18
S'\xe1\xf5<>'
p3471
tp3472
Rp3473
tp3474
a(g56
g6
(g18
S'\x99e\x87<'
p3475
tp3476
Rp3477
tp3478
a(g609
g6
(g18
S'\xacJo;'
p3479
tp3480
Rp3481
tp3482
asg73
g15
sa(dp3483
g2
S'../../../data/emanuela/activity-recognition/images/NTCIR-Lifelog-256/u1/2015-03-17/b00001040_21i6bq_20150317_182327e.jpg'
p3484
sg4
(lp3485
(g178
g6
(g18
S'.\x90\xf8>'
p3486
tp3487
Rp3488
tp3489
a(g15
g6
(g18
S'\xd5\xb7\xae>'
p3490
tp3491
Rp3492
tp3493
a(g68
g6
(g18
S'\xd23<='
p3494
tp3495
Rp3496
tp3497
a(g44
g6
(g18
S'\x95\xc1&='
p3498
tp3499
Rp3500
tp3501
a(g56
g6
(g18
S'3\x0e\x9e<'
p3502
tp3503
Rp3504
tp3505
asg73
g15
sa(dp3506
g2
S'../../../data/emanuela/activity-recognition/images/NTCIR-Lifelog-256/u1/2015-02-25/b00000086_21i6bq_20150225_064619e.jpg'
p3507
sg4
(lp3508
(g15
g6
(g18
S'\x8c\xf8I?'
p3509
tp3510
Rp3511
tp3512
a(g116
g6
(g18
S'\xd8\xe0\xa2='
p3513
tp3514
Rp3515
tp3516
a(g32
g6
(g18
S'of\x1d='
p3517
tp3518
Rp3519
tp3520
a(g225
g6
(g18
S'\x81^t<'
p3521
tp3522
Rp3523
tp3524
a(g68
g6
(g18
S'Z\x0bj<'
p3525
tp3526
Rp3527
tp3528
asg73
g15
sa(dp3529
g2
S'../../../data/emanuela/activity-recognition/images/NTCIR-Lifelog-256/u1/2015-02-25/b00000089_21i6bq_20150225_064810e.jpg'
p3530
sg4
(lp3531
(g84
g6
(g18
S'\xc8\xc4v>'
p3532
tp3533
Rp3534
tp3535
a(g178
g6
(g18
S'\xb0;Z>'
p3536
tp3537
Rp3538
tp3539
a(g15
g6
(g18
S'\x9c(\xea='
p3540
tp3541
Rp3542
tp3543
a(g32
g6
(g18
S'\xdf\xe8\xe3='
p3544
tp3545
Rp3546
tp3547
a(g678
g6
(g18
S'\xca\xc3v='
p3548
tp3549
Rp3550
tp3551
asg73
g15
sa(dp3552
g2
S'../../../data/emanuela/activity-recognition/images/NTCIR-Lifelog-256/u1/2015-03-16/b00002728_21i6bq_20150316_175633e.jpg'
p3553
sg4
(lp3554
(g135
g6
(g18
S'N\xea=?'
p3555
tp3556
Rp3557
tp3558
a(g44
g6
(g18
S'\t\xa5#>'
p3559
tp3560
Rp3561
tp3562
a(g32
g6
(g18
S'D\x08a='
p3563
tp3564
Rp3565
tp3566
a(g1089
g6
(g18
S'\x0cR\x80<'
p3567
tp3568
Rp3569
tp3570
a(g15
g6
(g18
S'n\x99\x06<'
p3571
tp3572
Rp3573
tp3574
asg73
g15
sa(dp3575
g2
S'../../../data/emanuela/activity-recognition/images/NTCIR-Lifelog-256/u1/2015-02-24/b00001284_21i6bq_20150224_194441e.jpg'
p3576
sg4
(lp3577
(g15
g6
(g18
S'\x8b\xe1X?'
p3578
tp3579
Rp3580
tp3581
a(g32
g6
(g18
S'\x0e\x15b='
p3582
tp3583
Rp3584
tp3585
a(g44
g6
(g18
S'v`?='
p3586
tp3587
Rp3588
tp3589
a(g135
g6
(g18
S'\xe6\x950<'
p3590
tp3591
Rp3592
tp3593
a(g178
g6
(g18
S'o\x9d$<'
p3594
tp3595
Rp3596
tp3597
asg73
g15
sa(dp3598
g2
S'../../../data/emanuela/activity-recognition/images/NTCIR-Lifelog-256/u1/2015-03-17/b00001079_21i6bq_20150317_183305e.jpg'
p3599
sg4
(lp3600
(g15
g6
(g18
S'\xd1\xb5&>'
p3601
tp3602
Rp3603
tp3604
a(g32
g6
(g18
S'\xd3u">'
p3605
tp3606
Rp3607
tp3608
a(g178
g6
(g18
S'\x9d\xe1\x01>'
p3609
tp3610
Rp3611
tp3612
a(g135
g6
(g18
S'\xaa\xcf\xf1='
p3613
tp3614
Rp3615
tp3616
a(g56
g6
(g18
S'\xe2\xb0\xc3='
p3617
tp3618
Rp3619
tp3620
asg73
g15
sa(dp3621
g2
S'../../../data/emanuela/activity-recognition/images/NTCIR-Lifelog-256/u1/2015-03-17/b00001046_21i6bq_20150317_182709e.jpg'
p3622
sg4
(lp3623
(g44
g6
(g18
S'\xd7:\xbc>'
p3624
tp3625
Rp3626
tp3627
a(g15
g6
(g18
S'_hz>'
p3628
tp3629
Rp3630
tp3631
a(g178
g6
(g18
S'\xc1\x9ai>'
p3632
tp3633
Rp3634
tp3635
a(g68
g6
(g18
S'\xc6b\x84='
p3636
tp3637
Rp3638
tp3639
a(g32
g6
(g18
S'r\x82*='
p3640
tp3641
Rp3642
tp3643
asg73
g15
sa(dp3644
g2
S'../../../data/emanuela/activity-recognition/images/NTCIR-Lifelog-256/u1/2015-02-24/b00000214_21i6bq_20150224_085018e.jpg'
p3645
sg4
(lp3646
(g15
g6
(g18
S'i2G?'
p3647
tp3648
Rp3649
tp3650
a(g32
g6
(g18
S'\xed\x9f\xb0='
p3651
tp3652
Rp3653
tp3654
a(g155
g6
(g18
S'\xa6P\xcf<'
p3655
tp3656
Rp3657
tp3658
a(g178
g6
(g18
S'\xa0\x8f\xbc<'
p3659
tp3660
Rp3661
tp3662
a(g84
g6
(g18
S'[e\xba<'
p3663
tp3664
Rp3665
tp3666
asg73
g15
sa(dp3667
g2
S'../../../data/emanuela/activity-recognition/images/NTCIR-Lifelog-256/u1/2015-02-25/b00000105_21i6bq_20150225_065746e.jpg'
p3668
sg4
(lp3669
(g84
g6
(g18
S'`\x03#?'
p3670
tp3671
Rp3672
tp3673
a(g96
g6
(g18
S'\x9bTy>'
p3674
tp3675
Rp3676
tp3677
a(g68
g6
(g18
S'\xee\xa1\xae<'
p3678
tp3679
Rp3680
tp3681
a(g321
g6
(g18
S'!\xfb\x9a<'
p3682
tp3683
Rp3684
tp3685
a(g116
g6
(g18
S'\xd2ma<'
p3686
tp3687
Rp3688
tp3689
asg73
g15
sa(dp3690
g2
S'../../../data/emanuela/activity-recognition/images/NTCIR-Lifelog-256/u1/2015-02-24/b00001298_21i6bq_20150224_195301e.jpg'
p3691
sg4
(lp3692
(g15
g6
(g18
S'\x88\x0c\xf0>'
p3693
tp3694
Rp3695
tp3696
a(g178
g6
(g18
S'\x83\xd2\x80>'
p3697
tp3698
Rp3699
tp3700
a(g44
g6
(g18
S'Gu">'
p3701
tp3702
Rp3703
tp3704
a(g68
g6
(g18
S'i\x9d*='
p3705
tp3706
Rp3707
tp3708
a(g32
g6
(g18
S'\x93\x85\xf3<'
p3709
tp3710
Rp3711
tp3712
asg73
g15
sa(dp3713
g2
S'../../../data/emanuela/activity-recognition/images/NTCIR-Lifelog-256/u1/2015-03-16/b00002649_21i6bq_20150316_173251e.jpg'
p3714
sg4
(lp3715
(g947
g6
(g18
S'E\xc8\x98>'
p3716
tp3717
Rp3718
tp3719
a(g56
g6
(g18
S'g\xfc\x80>'
p3720
tp3721
Rp3722
tp3723
a(g44
g6
(g18
S'\xcd\xbe$>'
p3724
tp3725
Rp3726
tp3727
a(g609
g6
(g18
S'0\x03t='
p3728
tp3729
Rp3730
tp3731
a(g84
g6
(g18
S'\\Vl='
p3732
tp3733
Rp3734
tp3735
asg73
g15
sa(dp3736
g2
S'../../../data/emanuela/activity-recognition/images/NTCIR-Lifelog-256/u1/2015-03-16/b00002574_21i6bq_20150316_171337e.jpg'
p3737
sg4
(lp3738
(g32
g6
(g18
S'g~\x1c?'
p3739
tp3740
Rp3741
tp3742
a(g15
g6
(g18
S'U\xa3n>'
p3743
tp3744
Rp3745
tp3746
a(g155
g6
(g18
S"'\xb3E="
p3747
tp3748
Rp3749
tp3750
a(g178
g6
(g18
S'U\xde$='
p3751
tp3752
Rp3753
tp3754
a(g135
g6
(g18
S'yR\xef<'
p3755
tp3756
Rp3757
tp3758
asg73
g15
sa(dp3759
g2
S'../../../data/emanuela/activity-recognition/images/NTCIR-Lifelog-256/u1/2015-02-24/b00001281_21i6bq_20150224_194247e.jpg'
p3760
sg4
(lp3761
(g15
g6
(g18
S'\xc5d>?'
p3762
tp3763
Rp3764
tp3765
a(g44
g6
(g18
S'\x07\x17\x12>'
p3766
tp3767
Rp3768
tp3769
a(g32
g6
(g18
S"h0'="
p3770
tp3771
Rp3772
tp3773
a(g68
g6
(g18
S'\xa3\x11{<'
p3774
tp3775
Rp3776
tp3777
a(g135
g6
(g18
S'\xcc\xafl<'
p3778
tp3779
Rp3780
tp3781
asg73
g15
sa(dp3782
g2
S'../../../data/emanuela/activity-recognition/images/NTCIR-Lifelog-256/u1/2015-03-16/b00002630_21i6bq_20150316_172904e.jpg'
p3783
sg4
(lp3784
(g116
g6
(g18
S'\x7fA`?'
p3785
tp3786
Rp3787
tp3788
a(g135
g6
(g18
S'<3\xd9<'
p3789
tp3790
Rp3791
tp3792
a(g609
g6
(g18
S'\xd1\x0b\xc6<'
p3793
tp3794
Rp3795
tp3796
a(g32
g6
(g18
S'ut\xac<'
p3797
tp3798
Rp3799
tp3800
a(g44
g6
(g18
S'\xacw)<'
p3801
tp3802
Rp3803
tp3804
asg73
g15
sa(dp3805
g2
S'../../../data/emanuela/activity-recognition/images/NTCIR-Lifelog-256/u1/2015-02-24/b00000211_21i6bq_20150224_084824e.jpg'
p3806
sg4
(lp3807
(g32
g6
(g18
S'}9\xc0>'
p3808
tp3809
Rp3810
tp3811
a(g15
g6
(g18
S'O-g>'
p3812
tp3813
Rp3814
tp3815
a(g178
g6
(g18
S'L\x1a\x11>'
p3816
tp3817
Rp3818
tp3819
a(g135
g6
(g18
S'R\x8f\xce='
p3820
tp3821
Rp3822
tp3823
a(g194
g6
(g18
S'\x1e\xffV='
p3824
tp3825
Rp3826
tp3827
asg73
g15
sa(dp3828
g2
S'../../../data/emanuela/activity-recognition/images/NTCIR-Lifelog-256/u1/2015-03-16/b00002642_21i6bq_20150316_173054e.jpg'
p3829
sg4
(lp3830
(g116
g6
(g18
S'\x0eQ\xce>'
p3831
tp3832
Rp3833
tp3834
a(g135
g6
(g18
S'\xeeR\x9a>'
p3835
tp3836
Rp3837
tp3838
a(g44
g6
(g18
S'\xcd\xf1d>'
p3839
tp3840
Rp3841
tp3842
a(g56
g6
(g18
S'M\x91\xf4<'
p3843
tp3844
Rp3845
tp3846
a(g68
g6
(g18
S'\xf4{\xa6<'
p3847
tp3848
Rp3849
tp3850
asg73
g15
sa(dp3851
g2
S'../../../data/emanuela/activity-recognition/images/NTCIR-Lifelog-256/u1/2015-03-16/b00002576_21i6bq_20150316_171338e.jpg'
p3852
sg4
(lp3853
(g15
g6
(g18
S'JX\xf4>'
p3854
tp3855
Rp3856
tp3857
a(g32
g6
(g18
S'-\xc6\x97>'
p3858
tp3859
Rp3860
tp3861
a(g178
g6
(g18
S'\xb7b\x8f='
p3862
tp3863
Rp3864
tp3865
a(g194
g6
(g18
S'q\xb2\n='
p3866
tp3867
Rp3868
tp3869
a(g155
g6
(g18
S'\x0c\x95\xf5<'
p3870
tp3871
Rp3872
tp3873
asg73
g15
sa(dp3874
g2
S'../../../data/emanuela/activity-recognition/images/NTCIR-Lifelog-256/u1/2015-03-17/b00001033_21i6bq_20150317_181930e.jpg'
p3875
sg4
(lp3876
(g15
g6
(g18
S'5M3?'
p3877
tp3878
Rp3879
tp3880
a(g44
g6
(g18
S'R<\x80>'
p3881
tp3882
Rp3883
tp3884
a(g178
g6
(g18
S',#\xa0<'
p3885
tp3886
Rp3887
tp3888
a(g32
g6
(g18
S'\x9b(\x7f<'
p3889
tp3890
Rp3891
tp3892
a(g68
g6
(g18
S'\x05\xcd\x8c;'
p3893
tp3894
Rp3895
tp3896
asg73
g15
sa(dp3897
g2
S'../../../data/emanuela/activity-recognition/images/NTCIR-Lifelog-256/u1/2015-02-25/b00000084_21i6bq_20150225_064514e.jpg'
p3898
sg4
(lp3899
(g15
g6
(g18
S'\xa5\xc5W?'
p3900
tp3901
Rp3902
tp3903
a(g32
g6
(g18
S'\xc8Pi='
p3904
tp3905
Rp3906
tp3907
a(g225
g6
(g18
S'\x11)\xb7<'
p3908
tp3909
Rp3910
tp3911
a(g44
g6
(g18
S']=\x9a<'
p3912
tp3913
Rp3914
tp3915
a(g1089
g6
(g18
S'+\xb0p<'
p3916
tp3917
Rp3918
tp3919
asg73
g15
sa(dp3920
g2
S'../../../data/emanuela/activity-recognition/images/NTCIR-Lifelog-256/u1/2015-03-08/b00000571_21i6bq_20150308_135242e.jpg'
p3921
sg4
(lp3922
(g15
g6
(g18
S'\xd7\xd3v?'
p3923
tp3924
Rp3925
tp3926
a(g225
g6
(g18
S'\xd6\xd0\xd9<'
p3927
tp3928
Rp3929
tp3930
a(g135
g6
(g18
S'\xfdc.;'
p3931
tp3932
Rp3933
tp3934
a(g116
g6
(g18
S'\xf4j\x0f;'
p3935
tp3936
Rp3937
tp3938
a(g32
g6
(g18
S'\xa9\xb3\xce:'
p3939
tp3940
Rp3941
tp3942
asg73
g15
sa(dp3943
g2
S'../../../data/emanuela/activity-recognition/images/NTCIR-Lifelog-256/u1/2015-03-17/b00001045_21i6bq_20150317_182634e.jpg'
p3944
sg4
(lp3945
(g44
g6
(g18
S'\xd2\xc9>?'
p3946
tp3947
Rp3948
tp3949
a(g15
g6
(g18
S'\t!\x03>'
p3950
tp3951
Rp3952
tp3953
a(g178
g6
(g18
S'zU\x9c='
p3954
tp3955
Rp3956
tp3957
a(g32
g6
(g18
S'JG\x01='
p3958
tp3959
Rp3960
tp3961
a(g68
g6
(g18
S'\x84\xbd\xa0;'
p3962
tp3963
Rp3964
tp3965
asg73
g15
sa(dp3966
g2
S'../../../data/emanuela/activity-recognition/images/NTCIR-Lifelog-256/u1/2015-02-24/b00001280_21i6bq_20150224_194214e.jpg'
p3967
sg4
(lp3968
(g15
g6
(g18
S'\xac\xb1:?'
p3969
tp3970
Rp3971
tp3972
a(g44
g6
(g18
S'\x80\x8d\xfb='
p3973
tp3974
Rp3975
tp3976
a(g178
g6
(g18
S'\x17\xfa\x89='
p3977
tp3978
Rp3979
tp3980
a(g32
g6
(g18
S'Q1\x07='
p3981
tp3982
Rp3983
tp3984
a(g68
g6
(g18
S'wH\x82<'
p3985
tp3986
Rp3987
tp3988
asg73
g15
sa(dp3989
g2
S'../../../data/emanuela/activity-recognition/images/NTCIR-Lifelog-256/u1/2015-02-25/b00000106_21i6bq_20150225_065823e.jpg'
p3990
sg4
(lp3991
(g84
g6
(g18
S'\x03uH?'
p3992
tp3993
Rp3994
tp3995
a(g96
g6
(g18
S'o\x98R='
p3996
tp3997
Rp3998
tp3999
a(g15
g6
(g18
S'\xff\x17.='
p4000
tp4001
Rp4002
tp4003
a(g116
g6
(g18
S'"U\xb2<'
p4004
tp4005
Rp4006
tp4007
a(g321
g6
(g18
S'Z\xea\xad<'
p4008
tp4009
Rp4010
tp4011
asg73
g15
sa(dp4012
g2
S'../../../data/emanuela/activity-recognition/images/NTCIR-Lifelog-256/u1/2015-02-25/b00000087_21i6bq_20150225_064652e.jpg'
p4013
sg4
(lp4014
(g15
g6
(g18
S'\xc8\xe4n?'
p4015
tp4016
Rp4017
tp4018
a(g32
g6
(g18
S'sf\xc4<'
p4019
tp4020
Rp4021
tp4022
a(g1089
g6
(g18
S'\xf3\x15*<'
p4023
tp4024
Rp4025
tp4026
a(g84
g6
(g18
S'\xdb\xef\xc2;'
p4027
tp4028
Rp4029
tp4030
a(g116
g6
(g18
S'\xb5N\x9e;'
p4031
tp4032
Rp4033
tp4034
asg73
g15
sa(dp4035
g2
S'../../../data/emanuela/activity-recognition/images/NTCIR-Lifelog-256/u1/2015-03-16/b00002582_21i6bq_20150316_171349e.jpg'
p4036
sg4
(lp4037
(g32
g6
(g18
S'\xad\x92\xdf>'
p4038
tp4039
Rp4040
tp4041
a(g15
g6
(g18
S'\x841\xa6>'
p4042
tp4043
Rp4044
tp4045
a(g155
g6
(g18
S'\xb6Kw='
p4046
tp4047
Rp4048
tp4049
a(g135
g6
(g18
S'\xefuo='
p4050
tp4051
Rp4052
tp4053
a(g178
g6
(g18
S'\t\xff[='
p4054
tp4055
Rp4056
tp4057
asg73
g15
sa(dp4058
g2
S'../../../data/emanuela/activity-recognition/images/NTCIR-Lifelog-256/u1/2015-03-16/b00002722_21i6bq_20150316_175236e.jpg'
p4059
sg4
(lp4060
(g15
g6
(g18
S'\xaaI\x82>'
p4061
tp4062
Rp4063
tp4064
a(g84
g6
(g18
S'\xb9\xb8q>'
p4065
tp4066
Rp4067
tp4068
a(g32
g6
(g18
S'\x90Q\x15>'
p4069
tp4070
Rp4071
tp4072
a(g116
g6
(g18
S'\xdb\x97\xda='
p4073
tp4074
Rp4075
tp4076
a(g44
g6
(g18
S'Q\x8a\xaf='
p4077
tp4078
Rp4079
tp4080
asg73
g15
sa(dp4081
g2
S'../../../data/emanuela/activity-recognition/images/NTCIR-Lifelog-256/u1/2015-03-16/b00002730_21i6bq_20150316_175635e.jpg'
p4082
sg4
(lp4083
(g32
g6
(g18
S'E\xd3Z?'
p4084
tp4085
Rp4086
tp4087
a(g135
g6
(g18
S'}\x11\xcd='
p4088
tp4089
Rp4090
tp4091
a(g44
g6
(g18
S'\xf3}\xcc<'
p4092
tp4093
Rp4094
tp4095
a(g15
g6
(g18
S'N\x969<'
p4096
tp4097
Rp4098
tp4099
a(g68
g6
(g18
S'\xa7\xa0\x8d;'
p4100
tp4101
Rp4102
tp4103
asg73
g15
sa(dp4104
g2
S'../../../data/emanuela/activity-recognition/images/NTCIR-Lifelog-256/u1/2015-03-06/b00000234_21i6bq_20150306_075044e.jpg'
p4105
sg4
(lp4106
(g15
g6
(g18
S'\xf8%\xe4>'
p4107
tp4108
Rp4109
tp4110
a(g678
g6
(g18
S'+\xa9!>'
p4111
tp4112
Rp4113
tp4114
a(g32
g6
(g18
S'\xf33\xe4='
p4115
tp4116
Rp4117
tp4118
a(g116
g6
(g18
S'\xad\x89\xac='
p4119
tp4120
Rp4121
tp4122
a(g135
g6
(g18
S'\x14\xd6\x81='
p4123
tp4124
Rp4125
tp4126
asg73
g15
sa(dp4127
g2
S'../../../data/emanuela/activity-recognition/images/NTCIR-Lifelog-256/u1/2015-02-25/b00000115_21i6bq_20150225_070358e.jpg'
p4128
sg4
(lp4129
(g84
g6
(g18
S'\x05>\\?'
p4130
tp4131
Rp4132
tp4133
a(g15
g6
(g18
S'h\xd6[='
p4134
tp4135
Rp4136
tp4137
a(g96
g6
(g18
S'\xf9$\xbb<'
p4138
tp4139
Rp4140
tp4141
a(g116
g6
(g18
S'gN\xac<'
p4142
tp4143
Rp4144
tp4145
a(g32
g6
(g18
S'\x00\xed\x90<'
p4146
tp4147
Rp4148
tp4149
asg73
g15
sa(dp4150
g2
S'../../../data/emanuela/activity-recognition/images/NTCIR-Lifelog-256/u1/2015-03-17/b00001083_21i6bq_20150317_183529e.jpg'
p4151
sg4
(lp4152
(g32
g6
(g18
S'}\xd7\xa2>'
p4153
tp4154
Rp4155
tp4156
a(g15
g6
(g18
S'\xe5\xcd\x94>'
p4157
tp4158
Rp4159
tp4160
a(g178
g6
(g18
S'iAH>'
p4161
tp4162
Rp4163
tp4164
a(g194
g6
(g18
S'\x19tH='
p4165
tp4166
Rp4167
tp4168
a(g135
g6
(g18
S'\x9d{\xe7<'
p4169
tp4170
Rp4171
tp4172
asg73
g15
sa(dp4173
g2
S'../../../data/emanuela/activity-recognition/images/NTCIR-Lifelog-256/u1/2015-02-25/b00000103_21i6bq_20150225_065637e.jpg'
p4174
sg4
(lp4175
(g84
g6
(g18
S'\xb2\x9d\x13?'
p4176
tp4177
Rp4178
tp4179
a(g96
g6
(g18
S' \xde\x16>'
p4180
tp4181
Rp4182
tp4183
a(g321
g6
(g18
S'6\x90\x86='
p4184
tp4185
Rp4186
tp4187
a(g68
g6
(g18
S'I\xd1Y='
p4188
tp4189
Rp4190
tp4191
a(g116
g6
(g18
S'<\x1a%='
p4192
tp4193
Rp4194
tp4195
asg73
g15
sa(dp4196
g2
S'../../../data/emanuela/activity-recognition/images/NTCIR-Lifelog-256/u1/2015-03-16/b00002733_21i6bq_20150316_175639e.jpg'
p4197
sg4
(lp4198
(g32
g6
(g18
S'yV4?'
p4199
tp4200
Rp4201
tp4202
a(g135
g6
(g18
S'\xd3q2>'
p4203
tp4204
Rp4205
tp4206
a(g44
g6
(g18
S'y\x96k='
p4207
tp4208
Rp4209
tp4210
a(g15
g6
(g18
S'\xfa\x01\x1f='
p4211
tp4212
Rp4213
tp4214
a(g68
g6
(g18
S'h\x7f$<'
p4215
tp4216
Rp4217
tp4218
asg73
g15
sa(dp4219
g2
S'../../../data/emanuela/activity-recognition/images/NTCIR-Lifelog-256/u1/2015-03-17/b00001044_21i6bq_20150317_182602e.jpg'
p4220
sg4
(lp4221
(g44
g6
(g18
S'\xba>G?'
p4222
tp4223
Rp4224
tp4225
a(g15
g6
(g18
S'\xb3r?>'
p4226
tp4227
Rp4228
tp4229
a(g178
g6
(g18
S'\x02\xcd\xf5;'
p4230
tp4231
Rp4232
tp4233
a(g947
g6
(g18
S'\xa8\xa2\xe0;'
p4234
tp4235
Rp4236
tp4237
a(g32
g6
(g18
S',I\xbd;'
p4238
tp4239
Rp4240
tp4241
asg73
g15
sa(dp4242
g2
S'../../../data/emanuela/activity-recognition/images/NTCIR-Lifelog-256/u1/2015-03-17/b00001030_21i6bq_20150317_181741e.jpg'
p4243
sg4
(lp4244
(g178
g6
(g18
S'`\x91\x05?'
p4245
tp4246
Rp4247
tp4248
a(g194
g6
(g18
S'\x93?\x0b>'
p4249
tp4250
Rp4251
tp4252
a(g44
g6
(g18
S'\x03\x86\xc3='
p4253
tp4254
Rp4255
tp4256
a(g15
g6
(g18
S'O\xe8\xae='
p4257
tp4258
Rp4259
tp4260
a(g32
g6
(g18
S'\xa5\x8fg='
p4261
tp4262
Rp4263
tp4264
asg73
g15
sa(dp4265
g2
S'../../../data/emanuela/activity-recognition/images/NTCIR-Lifelog-256/u1/2015-03-17/b00001073_21i6bq_20150317_183217e.jpg'
p4266
sg4
(lp4267
(g15
g6
(g18
S'\x8e}\x07?'
p4268
tp4269
Rp4270
tp4271
a(g225
g6
(g18
S'> Y>'
p4272
tp4273
Rp4274
tp4275
a(g155
g6
(g18
S'\xa9A\x95='
p4276
tp4277
Rp4278
tp4279
a(g32
g6
(g18
S'1T$='
p4280
tp4281
Rp4282
tp4283
a(g68
g6
(g18
S'H\xe6\x14='
p4284
tp4285
Rp4286
tp4287
asg73
g15
sa(dp4288
g2
S'../../../data/emanuela/activity-recognition/images/NTCIR-Lifelog-256/u1/2015-02-24/b00000216_21i6bq_20150224_085131e.jpg'
p4289
sg4
(lp4290
(g32
g6
(g18
S'BF\x01?'
p4291
tp4292
Rp4293
tp4294
a(g15
g6
(g18
S'\xc0\xb8\xa7>'
p4295
tp4296
Rp4297
tp4298
a(g225
g6
(g18
S'\xc7I\xf9<'
p4299
tp4300
Rp4301
tp4302
a(g84
g6
(g18
S'\x80\x10\xd9<'
p4303
tp4304
Rp4305
tp4306
a(g155
g6
(g18
S'/\xee\xb7<'
p4307
tp4308
Rp4309
tp4310
asg73
g15
sa(dp4311
g2
S'../../../data/emanuela/activity-recognition/images/NTCIR-Lifelog-256/u1/2015-03-08/b00000569_21i6bq_20150308_135122e.jpg'
p4312
sg4
(lp4313
(g15
g6
(g18
S'\x07\xf7r?'
p4314
tp4315
Rp4316
tp4317
a(g225
g6
(g18
S'\xddT0='
p4318
tp4319
Rp4320
tp4321
a(g609
g6
(g18
S'\xd1KB;'
p4322
tp4323
Rp4324
tp4325
a(g678
g6
(g18
S'\xcc\x9d\xa7:'
p4326
tp4327
Rp4328
tp4329
a(g135
g6
(g18
S'\x8a\x80\x98:'
p4330
tp4331
Rp4332
tp4333
asg73
g15
sa(dp4334
g2
S'../../../data/emanuela/activity-recognition/images/NTCIR-Lifelog-256/u1/2015-03-17/b00001028_21i6bq_20150317_181623e.jpg'
p4335
sg4
(lp4336
(g44
g6
(g18
S'\xa6\x97\xd4>'
p4337
tp4338
Rp4339
tp4340
a(g15
g6
(g18
S'\xcf\xf8\x97>'
p4341
tp4342
Rp4343
tp4344
a(g116
g6
(g18
S'\xae\x80\xdb='
p4345
tp4346
Rp4347
tp4348
a(g32
g6
(g18
S'\r\x1d7='
p4349
tp4350
Rp4351
tp4352
a(g609
g6
(g18
S'5Q!='
p4353
tp4354
Rp4355
tp4356
asg73
g15
sa(dp4357
g2
S'../../../data/emanuela/activity-recognition/images/NTCIR-Lifelog-256/u1/2015-03-17/b00001031_21i6bq_20150317_181816e.jpg'
p4358
sg4
(lp4359
(g15
g6
(g18
S'\xe8\xaa\xf7>'
p4360
tp4361
Rp4362
tp4363
a(g44
g6
(g18
S'g\xc9\x96>'
p4364
tp4365
Rp4366
tp4367
a(g178
g6
(g18
S'\xa8\xae\x1e>'
p4368
tp4369
Rp4370
tp4371
a(g68
g6
(g18
S'\xces\xf5<'
p4372
tp4373
Rp4374
tp4375
a(g32
g6
(g18
S'\x988l<'
p4376
tp4377
Rp4378
tp4379
asg73
g15
sa.