(lp0
(dp1
S'image'
p2
S'../../../data/emanuela/activity-recognition/images/NTCIR-Lifelog-256/u1/2015-03-18/b00001273_21i6bq_20150318_221608e.jpg'
p3
sS'result'
p4
(lp5
(cnumpy.core.multiarray
scalar
p6
(cnumpy
dtype
p7
(S'S14'
p8
I0
I1
tp9
Rp10
(I3
S'|'
p11
NNNI14
I1
I0
tp12
bS'walking indoor'
p13
tp14
Rp15
g6
(g7
(S'f4'
p16
I0
I1
tp17
Rp18
(I3
S'<'
p19
NNNI-1
I-1
I0
tp20
bS'\xf4h\\?'
p21
tp22
Rp23
tp24
a(g6
(g7
(S'S7'
p25
I0
I1
tp26
Rp27
(I3
S'|'
p28
NNNI7
I1
I0
tp29
bS'resting'
p30
tp31
Rp32
g6
(g18
S'\xb6D\x90='
p33
tp34
Rp35
tp36
a(g6
(g7
(S'S19'
p37
I0
I1
tp38
Rp39
(I3
S'|'
p40
NNNI19
I1
I0
tp41
bS'cleaning and chores'
p42
tp43
Rp44
g6
(g18
S't/\x94<'
p45
tp46
Rp47
tp48
a(g6
(g7
(S'S11'
p49
I0
I1
tp50
Rp51
(I3
S'|'
p52
NNNI11
I1
I0
tp53
bS'socializing'
p54
tp55
Rp56
g6
(g18
S'\xe5\x93K<'
p57
tp58
Rp59
tp60
a(g6
(g7
(S'S7'
p61
I0
I1
tp62
Rp63
(I3
S'|'
p64
NNNI7
I1
I0
tp65
bS'talking'
p66
tp67
Rp68
g6
(g18
S'\xc3\xd0\x0c<'
p69
tp70
Rp71
tp72
asS'label'
p73
g44
sa(dp74
g2
S'../../../data/emanuela/activity-recognition/images/NTCIR-Lifelog-256/u1/2015-03-10/b00001549_21i6bq_20150310_064714e.jpg'
p75
sg4
(lp76
(g6
(g7
(S'S24'
p77
I0
I1
tp78
Rp79
(I3
S'|'
p80
NNNI24
I1
I0
tp81
bS'having drinks/meal alone'
p82
tp83
Rp84
g6
(g18
S'\xdbG\xd8>'
p85
tp86
Rp87
tp88
a(g6
(g7
(S'S7'
p89
I0
I1
tp90
Rp91
(I3
S'|'
p92
NNNI7
I1
I0
tp93
bS'cooking'
p94
tp95
Rp96
g6
(g18
S'\x85\x94a>'
p97
tp98
Rp99
tp100
a(g32
g6
(g18
S'\x93\x8d3>'
p101
tp102
Rp103
tp104
a(g44
g6
(g18
S'\xdd\x0c\xce='
p105
tp106
Rp107
tp108
a(g6
(g7
(S'S2'
p109
I0
I1
tp110
Rp111
(I3
S'|'
p112
NNNI2
I1
I0
tp113
bS'tv'
p114
tp115
Rp116
g6
(g18
S'\x8a\xcd\xbb<'
p117
tp118
Rp119
tp120
asg73
g44
sa(dp121
g2
S'../../../data/emanuela/activity-recognition/images/NTCIR-Lifelog-256/u1/2015-03-01/b00000610_21i6bq_20150301_130228e.jpg'
p122
sg4
(lp123
(g68
g6
(g18
S'\x90\xdf\x87>'
p124
tp125
Rp126
tp127
a(g6
(g7
(S'S7'
p128
I0
I1
tp129
Rp130
(I3
S'|'
p131
NNNI7
I1
I0
tp132
bS'meeting'
p133
tp134
Rp135
g6
(g18
S')\x02J>'
p136
tp137
Rp138
tp139
a(g6
(g7
(S'S25'
p140
I0
I1
tp141
Rp142
(I3
S'|'
p143
NNNI25
I1
I0
tp144
bS'having meal with somebody'
p145
tp146
Rp147
g6
(g18
S'*|7>'
p148
tp149
Rp150
tp151
a(g56
g6
(g18
S'\x93#\xec='
p152
tp153
Rp154
tp155
a(g6
(g7
(S'S6'
p156
I0
I1
tp157
Rp158
(I3
S'|'
p159
NNNI6
I1
I0
tp160
bS'mobile'
p161
tp162
Rp163
g6
(g18
S'V\xd2\xc9='
p164
tp165
Rp166
tp167
asg73
g44
sa(dp168
g2
S'../../../data/emanuela/activity-recognition/images/NTCIR-Lifelog-256/u1/2015-02-24/b00000010_21i6bq_20150224_064631e.jpg'
p169
sg4
(lp170
(g44
g6
(g18
S'\xc4\x87+?'
p171
tp172
Rp173
tp174
a(g96
g6
(g18
S'\xa4\x15[>'
p175
tp176
Rp177
tp178
a(g6
(g7
(S'S27'
p179
I0
I1
tp180
Rp181
(I3
S'|'
p182
NNNI27
I1
I0
tp183
bS'having drinks with somebody'
p184
tp185
Rp186
g6
(g18
S'\xcdv*='
p187
tp188
Rp189
tp190
a(g84
g6
(g18
S'\x9a\xbe\xb7<'
p191
tp192
Rp193
tp194
a(g68
g6
(g18
S'\xac\x95^<'
p195
tp196
Rp197
tp198
asg73
g44
sa(dp199
g2
S'../../../data/emanuela/activity-recognition/images/NTCIR-Lifelog-256/u1/2015-03-10/b00000987_21i6bq_20150310_233326e.jpg'
p200
sg4
(lp201
(g15
g6
(g18
S'\x1b\xd9\xbb>'
p202
tp203
Rp204
tp205
a(g96
g6
(g18
S'`\xadH>'
p206
tp207
Rp208
tp209
a(g44
g6
(g18
S'D\xa7$>'
p210
tp211
Rp212
tp213
a(g68
g6
(g18
S'\x8f\x9f#>'
p214
tp215
Rp216
tp217
a(g56
g6
(g18
S'\xd6\xe3(='
p218
tp219
Rp220
tp221
asg73
g44
sa(dp222
g2
S'../../../data/emanuela/activity-recognition/images/NTCIR-Lifelog-256/u1/2015-03-17/b00001593_21i6bq_20150317_234443e.jpg'
p223
sg4
(lp224
(g15
g6
(g18
S'\x0eJf>'
p225
tp226
Rp227
tp228
a(g44
g6
(g18
S'\xfe\xce8>'
p229
tp230
Rp231
tp232
a(g32
g6
(g18
S'#\x1a3>'
p233
tp234
Rp235
tp236
a(g6
(g7
(S'S15'
p237
I0
I1
tp238
Rp239
(I3
S'|'
p240
NNNI15
I1
I0
tp241
bS'walking outdoor'
p242
tp243
Rp244
g6
(g18
S'iW\xf5='
p245
tp246
Rp247
tp248
a(g68
g6
(g18
S'w\x84\xd0='
p249
tp250
Rp251
tp252
asg73
g44
sa(dp253
g2
S'../../../data/emanuela/activity-recognition/images/NTCIR-Lifelog-256/u1/2015-03-01/b00000018_21i6bq_20150301_072012e.jpg'
p254
sg4
(lp255
(g44
g6
(g18
S'D6\xf7>'
p256
tp257
Rp258
tp259
a(g15
g6
(g18
S' \x9f\x8f>'
p260
tp261
Rp262
tp263
a(g32
g6
(g18
S'\xb7r)='
p264
tp265
Rp266
tp267
a(g68
g6
(g18
S'G8\x1b='
p268
tp269
Rp270
tp271
a(g96
g6
(g18
S'\x05\x0e\xf7<'
p272
tp273
Rp274
tp275
asg73
g44
sa(dp276
g2
S'../../../data/emanuela/activity-recognition/images/NTCIR-Lifelog-256/u1/2015-02-28/b00001262_21i6bq_20150228_204829e.jpg'
p277
sg4
(lp278
(g6
(g7
(S'S5'
p279
I0
I1
tp280
Rp281
(I3
S'|'
p282
NNNI5
I1
I0
tp283
bS'plane'
p284
tp285
Rp286
g6
(g18
S'e\x80O?'
p287
tp288
Rp289
tp290
a(g44
g6
(g18
S'\xed2\x85='
p291
tp292
Rp293
tp294
a(g96
g6
(g18
S'|!\xf8<'
p295
tp296
Rp297
tp298
a(g6
(g7
(S'S7'
p299
I0
I1
tp300
Rp301
(I3
S'|'
p302
NNNI7
I1
I0
tp303
bS'reading'
p304
tp305
Rp306
g6
(g18
S'\x1bj\xc2<'
p307
tp308
Rp309
tp310
a(g32
g6
(g18
S"'\xfd\xa3<"
p311
tp312
Rp313
tp314
asg73
g44
sa(dp315
g2
S'../../../data/emanuela/activity-recognition/images/NTCIR-Lifelog-256/u1/2015-02-28/b00001257_21i6bq_20150228_204827e.jpg'
p316
sg4
(lp317
(g44
g6
(g18
S'Za\xfb>'
p318
tp319
Rp320
tp321
a(g84
g6
(g18
S'\xb1D\xe6='
p322
tp323
Rp324
tp325
a(g96
g6
(g18
S'\xc0\xc8\xa5='
p326
tp327
Rp328
tp329
a(g15
g6
(g18
S'&`\x98='
p330
tp331
Rp332
tp333
a(g32
g6
(g18
S'\x961Q='
p334
tp335
Rp336
tp337
asg73
g44
sa(dp338
g2
S'../../../data/emanuela/activity-recognition/images/NTCIR-Lifelog-256/u1/2015-03-14/b00000733_21i6bq_20150314_133325e.jpg'
p339
sg4
(lp340
(g84
g6
(g18
S'&{\xb1>'
p341
tp342
Rp343
tp344
a(g186
g6
(g18
S'\x8dxQ>'
p345
tp346
Rp347
tp348
a(g44
g6
(g18
S'<\x8f\x05>'
p349
tp350
Rp351
tp352
a(g96
g6
(g18
S's\xba\xbd='
p353
tp354
Rp355
tp356
a(g15
g6
(g18
S'\xb3\x07\x17='
p357
tp358
Rp359
tp360
asg73
g44
sa(dp361
g2
S'../../../data/emanuela/activity-recognition/images/NTCIR-Lifelog-256/u1/2015-03-17/b00000199_21i6bq_20150317_103019e.jpg'
p362
sg4
(lp363
(g84
g6
(g18
S'\xa2\x93\xad>'
p364
tp365
Rp366
tp367
a(g186
g6
(g18
S'\xb0\x1eC>'
p368
tp369
Rp370
tp371
a(g147
g6
(g18
S'\x83$\x13>'
p372
tp373
Rp374
tp375
a(g96
g6
(g18
S'r\xa2\xf5='
p376
tp377
Rp378
tp379
a(g44
g6
(g18
S'\xb9\xb9\x8d='
p380
tp381
Rp382
tp383
asg73
g44
sa(dp384
g2
S'../../../data/emanuela/activity-recognition/images/NTCIR-Lifelog-256/u1/2015-03-05/b00000083_21i6bq_20150305_065541e.jpg'
p385
sg4
(lp386
(g15
g6
(g18
S'\x00\xf0S?'
p387
tp388
Rp389
tp390
a(g56
g6
(g18
S'`\xbdU='
p391
tp392
Rp393
tp394
a(g68
g6
(g18
S'\xfb;,='
p395
tp396
Rp397
tp398
a(g244
g6
(g18
S'>\xfd\xdd<'
p399
tp400
Rp401
tp402
a(g32
g6
(g18
S'\xe6\xc0l<'
p403
tp404
Rp405
tp406
asg73
g44
sa(dp407
g2
S'../../../data/emanuela/activity-recognition/images/NTCIR-Lifelog-256/u1/2015-03-04/b00000106_21i6bq_20150304_074633e.jpg'
p408
sg4
(lp409
(g15
g6
(g18
S'T \xfd>'
p410
tp411
Rp412
tp413
a(g32
g6
(g18
S'\xf8t:>'
p414
tp415
Rp416
tp417
a(g44
g6
(g18
S'6\xff\x1a>'
p418
tp419
Rp420
tp421
a(g68
g6
(g18
S'\xdb\xfd\xc9='
p422
tp423
Rp424
tp425
a(g163
g6
(g18
S'\xd9:\x11='
p426
tp427
Rp428
tp429
asg73
g44
sa(dp430
g2
S'../../../data/emanuela/activity-recognition/images/NTCIR-Lifelog-256/u1/2015-03-16/b00001600_21i6bq_20150316_074031e.jpg'
p431
sg4
(lp432
(g96
g6
(g18
S'\xa5\xcf\x0f?'
p433
tp434
Rp435
tp436
a(g44
g6
(g18
S'\xb7\x9a/>'
p437
tp438
Rp439
tp440
a(g15
g6
(g18
S'\xb0\xb2\x12>'
p441
tp442
Rp443
tp444
a(g84
g6
(g18
S'.l\x85='
p445
tp446
Rp447
tp448
a(g306
g6
(g18
S'W\xccW<'
p449
tp450
Rp451
tp452
asg73
g44
sa(dp453
g2
S'../../../data/emanuela/activity-recognition/images/NTCIR-Lifelog-256/u1/2015-03-16/b00003362_21i6bq_20150316_233016e.jpg'
p454
sg4
(lp455
(g32
g6
(g18
S'B\xb9|?'
p456
tp457
Rp458
tp459
a(g56
g6
(g18
S'|\xe6X;'
p460
tp461
Rp462
tp463
a(g163
g6
(g18
S'\xe5\x9d\x17;'
p464
tp465
Rp466
tp467
a(g244
g6
(g18
S')\xbc\x14;'
p468
tp469
Rp470
tp471
a(g15
g6
(g18
S'D\x8d\xbf:'
p472
tp473
Rp474
tp475
asg73
g44
sa(dp476
g2
S'../../../data/emanuela/activity-recognition/images/NTCIR-Lifelog-256/u1/2015-03-01/b00000013_21i6bq_20150301_071928e.jpg'
p477
sg4
(lp478
(g15
g6
(g18
S'?\xfbt>'
p479
tp480
Rp481
tp482
a(g163
g6
(g18
S'\xdeGK>'
p483
tp484
Rp485
tp486
a(g44
g6
(g18
S'\xe7a8>'
p487
tp488
Rp489
tp490
a(g84
g6
(g18
S'LJ\x0b>'
p491
tp492
Rp493
tp494
a(g68
g6
(g18
S'A\xa1\x82='
p495
tp496
Rp497
tp498
asg73
g44
sa(dp499
g2
S'../../../data/emanuela/activity-recognition/images/NTCIR-Lifelog-256/u1/2015-03-16/b00001574_21i6bq_20150316_004405e.jpg'
p500
sg4
(lp501
(g15
g6
(g18
S'\xd7>\x82>'
p502
tp503
Rp504
tp505
a(g56
g6
(g18
S'_\xc9]>'
p506
tp507
Rp508
tp509
a(g68
g6
(g18
S'RZ*>'
p510
tp511
Rp512
tp513
a(g186
g6
(g18
S'\xea\xef\xbe='
p514
tp515
Rp516
tp517
a(g32
g6
(g18
S'=r\x8a='
p518
tp519
Rp520
tp521
asg73
g44
sa(dp522
g2
S'../../../data/emanuela/activity-recognition/images/NTCIR-Lifelog-256/u1/2015-03-18/b00001298_21i6bq_20150318_223336e.jpg'
p523
sg4
(lp524
(g15
g6
(g18
S'\xb4\xc9\n?'
p525
tp526
Rp527
tp528
a(g44
g6
(g18
S'R\xc6.>'
p529
tp530
Rp531
tp532
a(g84
g6
(g18
S'qK\xfc='
p533
tp534
Rp535
tp536
a(g163
g6
(g18
S'\xb7\n\x91='
p537
tp538
Rp539
tp540
a(g32
g6
(g18
S'\xa6\x11\\='
p541
tp542
Rp543
tp544
asg73
g44
sa(dp545
g2
S'../../../data/emanuela/activity-recognition/images/NTCIR-Lifelog-256/u1/2015-03-01/b00000106_21i6bq_20150301_075700e.jpg'
p546
sg4
(lp547
(g96
g6
(g18
S'\xb2\xa6\xfe>'
p548
tp549
Rp550
tp551
a(g44
g6
(g18
S'/\x8e\x80>'
p552
tp553
Rp554
tp555
a(g32
g6
(g18
S'q2\x91='
p556
tp557
Rp558
tp559
a(g15
g6
(g18
S'<\x1bq='
p560
tp561
Rp562
tp563
a(g84
g6
(g18
S'\xfa\x01;='
p564
tp565
Rp566
tp567
asg73
g44
sa(dp568
g2
S'../../../data/emanuela/activity-recognition/images/NTCIR-Lifelog-256/u1/2015-02-24/b00000009_21i6bq_20150224_064551e.jpg'
p569
sg4
(lp570
(g44
g6
(g18
S'\xda\x00\x88>'
p571
tp572
Rp573
tp574
a(g15
g6
(g18
S'\x83\xd4\x1f>'
p575
tp576
Rp577
tp578
a(g186
g6
(g18
S'\xe1j\xb1='
p579
tp580
Rp581
tp582
a(g84
g6
(g18
S'=V\xac='
p583
tp584
Rp585
tp586
a(g32
g6
(g18
S'w{\xaa='
p587
tp588
Rp589
tp590
asg73
g44
sa(dp591
g2
S'../../../data/emanuela/activity-recognition/images/NTCIR-Lifelog-256/u1/2015-03-01/b00000109_21i6bq_20150301_075703e.jpg'
p592
sg4
(lp593
(g96
g6
(g18
S'vQ4?'
p594
tp595
Rp596
tp597
a(g44
g6
(g18
S'5\xf7\x8b>'
p598
tp599
Rp600
tp601
a(g84
g6
(g18
S'\xc8> <'
p602
tp603
Rp604
tp605
a(g32
g6
(g18
S'\x14\xf1\xc0;'
p606
tp607
Rp608
tp609
a(g15
g6
(g18
S'>\xe1^;'
p610
tp611
Rp612
tp613
asg73
g44
sa(dp614
g2
S'../../../data/emanuela/activity-recognition/images/NTCIR-Lifelog-256/u1/2015-03-01/b00000605_21i6bq_20150301_125920e.jpg'
p615
sg4
(lp616
(g68
g6
(g18
S'ps\x07?'
p617
tp618
Rp619
tp620
a(g163
g6
(g18
S'\xc4b\x87>'
p621
tp622
Rp623
tp624
a(g135
g6
(g18
S'T\x9d\xae='
p625
tp626
Rp627
tp628
a(g56
g6
(g18
S'\xcdk\r='
p629
tp630
Rp631
tp632
a(g306
g6
(g18
S' \xb5\xe0<'
p633
tp634
Rp635
tp636
asg73
g44
sa(dp637
g2
S'../../../data/emanuela/activity-recognition/images/NTCIR-Lifelog-256/u1/2015-03-17/b00000272_21i6bq_20150317_111455e.jpg'
p638
sg4
(lp639
(g56
g6
(g18
S'h{<>'
p640
tp641
Rp642
tp643
a(g84
g6
(g18
S'\xf2?2>'
p644
tp645
Rp646
tp647
a(g96
g6
(g18
S'\x08C+>'
p648
tp649
Rp650
tp651
a(g15
g6
(g18
S'\x0fs\xa5='
p652
tp653
Rp654
tp655
a(g44
g6
(g18
S'AZ\x8e='
p656
tp657
Rp658
tp659
asg73
g44
sa(dp660
g2
S'../../../data/emanuela/activity-recognition/images/NTCIR-Lifelog-256/u1/2015-02-25/b00000012_21i6bq_20150225_055927e.jpg'
p661
sg4
(lp662
(g44
g6
(g18
S'\xc1\x8e\x05?'
p663
tp664
Rp665
tp666
a(g84
g6
(g18
S'9\xe2?>'
p667
tp668
Rp669
tp670
a(g96
g6
(g18
S'\xb8\x1f:>'
p671
tp672
Rp673
tp674
a(g186
g6
(g18
S't<q='
p675
tp676
Rp677
tp678
a(g32
g6
(g18
S'\xc0UU<'
p679
tp680
Rp681
tp682
asg73
g44
sa(dp683
g2
S'../../../data/emanuela/activity-recognition/images/NTCIR-Lifelog-256/u1/2015-03-18/b00001303_21i6bq_20150318_223647e.jpg'
p684
sg4
(lp685
(g116
g6
(g18
S'P\xde\x13?'
p686
tp687
Rp688
tp689
a(g15
g6
(g18
S';\x0e{>'
p690
tp691
Rp692
tp693
a(g56
g6
(g18
S'z\xa8\x92='
p694
tp695
Rp696
tp697
a(g84
g6
(g18
S'w\x83U='
p698
tp699
Rp700
tp701
a(g163
g6
(g18
S'\xa4Y}<'
p702
tp703
Rp704
tp705
asg73
g44
sa(dp706
g2
S'../../../data/emanuela/activity-recognition/images/NTCIR-Lifelog-256/u1/2015-02-24/b00000011_21i6bq_20150224_064704e.jpg'
p707
sg4
(lp708
(g44
g6
(g18
S'Hf\xa6>'
p709
tp710
Rp711
tp712
a(g244
g6
(g18
S'\xd0\xf4}>'
p713
tp714
Rp715
tp716
a(g32
g6
(g18
S'\x95\xaf">'
p717
tp718
Rp719
tp720
a(g15
g6
(g18
S'\xe9/\x86='
p721
tp722
Rp723
tp724
a(g96
g6
(g18
S'\xe7w1='
p725
tp726
Rp727
tp728
asg73
g44
sa(dp729
g2
S'../../../data/emanuela/activity-recognition/images/NTCIR-Lifelog-256/u1/2015-03-15/b00000752_21i6bq_20150315_145759e.jpg'
p730
sg4
(lp731
(g15
g6
(g18
S'\xad\xcd\x00?'
p732
tp733
Rp734
tp735
a(g56
g6
(g18
S'y\xf5{>'
p736
tp737
Rp738
tp739
a(g68
g6
(g18
S'\x7fMY>'
p740
tp741
Rp742
tp743
a(g44
g6
(g18
S'\xc8\x97\xe3;'
p744
tp745
Rp746
tp747
a(g244
g6
(g18
S'2\xe5\xd7;'
p748
tp749
Rp750
tp751
asg73
g44
sa(dp752
g2
S'../../../data/emanuela/activity-recognition/images/NTCIR-Lifelog-256/u1/2015-02-23/b00001232_21i6bq_20150223_202519e.jpg'
p753
sg4
(lp754
(g84
g6
(g18
S'\xf2\x01\xbc>'
p755
tp756
Rp757
tp758
a(g96
g6
(g18
S'@\x80\x7f>'
p759
tp760
Rp761
tp762
a(g44
g6
(g18
S'\x11\x894>'
p763
tp764
Rp765
tp766
a(g32
g6
(g18
S'k\x83\x8f='
p767
tp768
Rp769
tp770
a(g306
g6
(g18
S'\xfb\x16\x1b='
p771
tp772
Rp773
tp774
asg73
g44
sa(dp775
g2
S'../../../data/emanuela/activity-recognition/images/NTCIR-Lifelog-256/u1/2015-03-15/b00000016_21i6bq_20150315_075240e.jpg'
p776
sg4
(lp777
(g44
g6
(g18
S'\xc4[A?'
p778
tp779
Rp780
tp781
a(g96
g6
(g18
S'-n\x98='
p782
tp783
Rp784
tp785
a(g15
g6
(g18
S'H[\x87='
p786
tp787
Rp788
tp789
a(g84
g6
(g18
S'\x93\xb3\x13='
p790
tp791
Rp792
tp793
a(g147
g6
(g18
S'0b\xd8<'
p794
tp795
Rp796
tp797
asg73
g44
sa(dp798
g2
S'../../../data/emanuela/activity-recognition/images/NTCIR-Lifelog-256/u1/2015-03-15/b00000696_21i6bq_20150315_142610e.jpg'
p799
sg4
(lp800
(g15
g6
(g18
S'\x17:\x08?'
p801
tp802
Rp803
tp804
a(g44
g6
(g18
S"\x0e't>"
p805
tp806
Rp807
tp808
a(g32
g6
(g18
S'9\xfbE>'
p809
tp810
Rp811
tp812
a(g68
g6
(g18
S'\xbf^-<'
p813
tp814
Rp815
tp816
a(g244
g6
(g18
S'4g\x07<'
p817
tp818
Rp819
tp820
asg73
g44
sa(dp821
g2
S'../../../data/emanuela/activity-recognition/images/NTCIR-Lifelog-256/u1/2015-03-14/b00000739_21i6bq_20150314_133329e.jpg'
p822
sg4
(lp823
(g15
g6
(g18
S'\x04#K>'
p824
tp825
Rp826
tp827
a(g6
(g7
(S'S8'
p828
I0
I1
tp829
Rp830
(I3
S'|'
p831
NNNI8
I1
I0
tp832
bS'shopping'
p833
tp834
Rp835
g6
(g18
S"C\x06'>"
p836
tp837
Rp838
tp839
a(g84
g6
(g18
S'\xa6\xfa\x1b>'
p840
tp841
Rp842
tp843
a(g96
g6
(g18
S'FK\xeb='
p844
tp845
Rp846
tp847
a(g44
g6
(g18
S'\n\xf8\xdc='
p848
tp849
Rp850
tp851
asg73
g44
sa(dp852
g2
S'../../../data/emanuela/activity-recognition/images/NTCIR-Lifelog-256/u1/2015-03-15/b00000044_21i6bq_20150315_081024e.jpg'
p853
sg4
(lp854
(g84
g6
(g18
S'U\xa6J>'
p855
tp856
Rp857
tp858
a(g96
g6
(g18
S'z\x85<>'
p859
tp860
Rp861
tp862
a(g44
g6
(g18
S'6\xd3\t>'
p863
tp864
Rp865
tp866
a(g32
g6
(g18
S'n\xd2\xf3='
p867
tp868
Rp869
tp870
a(g15
g6
(g18
S'\x10\xd5\xad='
p871
tp872
Rp873
tp874
asg73
g44
sa(dp875
g2
S'../../../data/emanuela/activity-recognition/images/NTCIR-Lifelog-256/u1/2015-02-25/b00000015_21i6bq_20150225_055929e.jpg'
p876
sg4
(lp877
(g44
g6
(g18
S'\xf1-\xc8>'
p878
tp879
Rp880
tp881
a(g163
g6
(g18
S'\x92\xa4P>'
p882
tp883
Rp884
tp885
a(g244
g6
(g18
S'\t3\x94='
p886
tp887
Rp888
tp889
a(g32
g6
(g18
S'\xc9\x06z='
p890
tp891
Rp892
tp893
a(g15
g6
(g18
S'\xb7\xe6f='
p894
tp895
Rp896
tp897
asg73
g44
sa(dp898
g2
S'../../../data/emanuela/activity-recognition/images/NTCIR-Lifelog-256/u1/2015-03-01/b00000523_21i6bq_20150301_120442e.jpg'
p899
sg4
(lp900
(g15
g6
(g18
S'\xe2\xb7\\?'
p901
tp902
Rp903
tp904
a(g56
g6
(g18
S'\x056L='
p905
tp906
Rp907
tp908
a(g44
g6
(g18
S'\xc2\xf5:='
p909
tp910
Rp911
tp912
a(g68
g6
(g18
S't\xa5\xd4<'
p913
tp914
Rp915
tp916
a(g96
g6
(g18
S'\xa9u\xc8;'
p917
tp918
Rp919
tp920
asg73
g44
sa(dp921
g2
S'../../../data/emanuela/activity-recognition/images/NTCIR-Lifelog-256/u1/2015-02-25/b00000006_21i6bq_20150225_055820e.jpg'
p922
sg4
(lp923
(g15
g6
(g18
S'M,\xc3>'
p924
tp925
Rp926
tp927
a(g44
g6
(g18
S'$W\xb9>'
p928
tp929
Rp930
tp931
a(g96
g6
(g18
S'\xecm;>'
p932
tp933
Rp934
tp935
a(g84
g6
(g18
S'7\x12\x02='
p936
tp937
Rp938
tp939
a(g147
g6
(g18
S'<\xb56<'
p940
tp941
Rp942
tp943
asg73
g44
sa(dp944
g2
S'../../../data/emanuela/activity-recognition/images/NTCIR-Lifelog-256/u1/2015-03-17/b00001604_21i6bq_20150317_235342e.jpg'
p945
sg4
(lp946
(g44
g6
(g18
S'+\xe5\xe0>'
p947
tp948
Rp949
tp950
a(g15
g6
(g18
S'{h\x1a>'
p951
tp952
Rp953
tp954
a(g56
g6
(g18
S'O\x7f\xb5='
p955
tp956
Rp957
tp958
a(g96
g6
(g18
S';!\x9f='
p959
tp960
Rp961
tp962
a(g6
(g7
(S'S19'
p963
I0
I1
tp964
Rp965
(I3
S'|'
p966
NNNI19
I1
I0
tp967
bS'attending a seminar'
p968
tp969
Rp970
g6
(g18
S'\x84\xc6\x89='
p971
tp972
Rp973
tp974
asg73
g44
sa(dp975
g2
S'../../../data/emanuela/activity-recognition/images/NTCIR-Lifelog-256/u1/2015-03-17/b00000271_21i6bq_20150317_111423e.jpg'
p976
sg4
(lp977
(g56
g6
(g18
S'\x8e/\xce>'
p978
tp979
Rp980
tp981
a(g186
g6
(g18
S'B\xd7 >'
p982
tp983
Rp984
tp985
a(g96
g6
(g18
S'\xbf+\x0b>'
p986
tp987
Rp988
tp989
a(g15
g6
(g18
S'\x80\xf3h='
p990
tp991
Rp992
tp993
a(g835
g6
(g18
S'\xd0\xe1]='
p994
tp995
Rp996
tp997
asg73
g44
sa(dp998
g2
S'../../../data/emanuela/activity-recognition/images/NTCIR-Lifelog-256/u1/2015-03-12/b00001296_21i6bq_20150312_222948e.jpg'
p999
sg4
(lp1000
(g15
g6
(g18
S'\xee\xbaV?'
p1001
tp1002
Rp1003
tp1004
a(g44
g6
(g18
S'\xfb\xf1\xcc='
p1005
tp1006
Rp1007
tp1008
a(g32
g6
(g18
S's\xac\xa5<'
p1009
tp1010
Rp1011
tp1012
a(g68
g6
(g18
S'\x86\xd5g<'
p1013
tp1014
Rp1015
tp1016
a(g56
g6
(g18
S'$y\x12<'
p1017
tp1018
Rp1019
tp1020
asg73
g44
sa(dp1021
g2
S'../../../data/emanuela/activity-recognition/images/NTCIR-Lifelog-256/u1/2015-03-15/b00000731_21i6bq_20150315_144446e.jpg'
p1022
sg4
(lp1023
(g163
g6
(g18
S'\xd9\xce\xbc>'
p1024
tp1025
Rp1026
tp1027
a(g84
g6
(g18
S'\xe0.\x19>'
p1028
tp1029
Rp1030
tp1031
a(g96
g6
(g18
S'E\xfb\x06>'
p1032
tp1033
Rp1034
tp1035
a(g44
g6
(g18
S'\x06G\x04>'
p1036
tp1037
Rp1038
tp1039
a(g32
g6
(g18
S'\x0b\xe3\x01='
p1040
tp1041
Rp1042
tp1043
asg73
g44
sa(dp1044
g2
S'../../../data/emanuela/activity-recognition/images/NTCIR-Lifelog-256/u1/2015-03-10/b00001548_21i6bq_20150310_064632e.jpg'
p1045
sg4
(lp1046
(g84
g6
(g18
S'\xc1\x925>'
p1047
tp1048
Rp1049
tp1050
a(g163
g6
(g18
S' \xcc/>'
p1051
tp1052
Rp1053
tp1054
a(g68
g6
(g18
S'\xb8\x16/>'
p1055
tp1056
Rp1057
tp1058
a(g147
g6
(g18
S'v\x8c\x02>'
p1059
tp1060
Rp1061
tp1062
a(g56
g6
(g18
S'O2\xf0='
p1063
tp1064
Rp1065
tp1066
asg73
g44
sa(dp1067
g2
S'../../../data/emanuela/activity-recognition/images/NTCIR-Lifelog-256/u1/2015-02-25/b00000005_21i6bq_20150225_055739e.jpg'
p1068
sg4
(lp1069
(g44
g6
(g18
S'\xfe7\xc1>'
p1070
tp1071
Rp1072
tp1073
a(g96
g6
(g18
S'1\xac\xa5>'
p1074
tp1075
Rp1076
tp1077
a(g84
g6
(g18
S'%(u>'
p1078
tp1079
Rp1080
tp1081
a(g186
g6
(g18
S'\x0c?\x12='
p1082
tp1083
Rp1084
tp1085
a(g147
g6
(g18
S'\xfcj;<'
p1086
tp1087
Rp1088
tp1089
asg73
g44
sa(dp1090
g2
S'../../../data/emanuela/activity-recognition/images/NTCIR-Lifelog-256/u1/2015-02-24/b00001318_21i6bq_20150224_200455e.jpg'
p1091
sg4
(lp1092
(g44
g6
(g18
S'\x14\xe2C?'
p1093
tp1094
Rp1095
tp1096
a(g96
g6
(g18
S'F\x10\xe6='
p1097
tp1098
Rp1099
tp1100
a(g84
g6
(g18
S'\x10\xec-='
p1101
tp1102
Rp1103
tp1104
a(g15
g6
(g18
S"'5\xb3<"
p1105
tp1106
Rp1107
tp1108
a(g32
g6
(g18
S'\xc9\xeaa<'
p1109
tp1110
Rp1111
tp1112
asg73
g44
sa(dp1113
g2
S'../../../data/emanuela/activity-recognition/images/NTCIR-Lifelog-256/u1/2015-03-15/b00000697_21i6bq_20150315_142643e.jpg'
p1114
sg4
(lp1115
(g15
g6
(g18
S'\x91.\xb3>'
p1116
tp1117
Rp1118
tp1119
a(g44
g6
(g18
S'-\xcf\x9b>'
p1120
tp1121
Rp1122
tp1123
a(g96
g6
(g18
S'Y+\xea='
p1124
tp1125
Rp1126
tp1127
a(g68
g6
(g18
S'\x1b\xb9\xab='
p1128
tp1129
Rp1130
tp1131
a(g84
g6
(g18
S'\xbd\x01\xe4<'
p1132
tp1133
Rp1134
tp1135
asg73
g44
sa(dp1136
g2
S'../../../data/emanuela/activity-recognition/images/NTCIR-Lifelog-256/u1/2015-02-25/b00000013_21i6bq_20150225_055928e.jpg'
p1137
sg4
(lp1138
(g44
g6
(g18
S'\x1d\xbf"?'
p1139
tp1140
Rp1141
tp1142
a(g96
g6
(g18
S'g}T>'
p1143
tp1144
Rp1145
tp1146
a(g84
g6
(g18
S'x\xcd\xf5='
p1147
tp1148
Rp1149
tp1150
a(g186
g6
(g18
S'\x95\xc2\t<'
p1151
tp1152
Rp1153
tp1154
a(g15
g6
(g18
S'\xeaw\x07<'
p1155
tp1156
Rp1157
tp1158
asg73
g44
sa(dp1159
g2
S'../../../data/emanuela/activity-recognition/images/NTCIR-Lifelog-256/u1/2015-03-08/b00000921_21i6bq_20150308_192714e.jpg'
p1160
sg4
(lp1161
(g15
g6
(g18
S'\x8e\xd4E>'
p1162
tp1163
Rp1164
tp1165
a(g84
g6
(g18
S'\xd9\xa1\x04>'
p1166
tp1167
Rp1168
tp1169
a(g32
g6
(g18
S'\n\x8d\xc4='
p1170
tp1171
Rp1172
tp1173
a(g244
g6
(g18
S'{\x81\xc0='
p1174
tp1175
Rp1176
tp1177
a(g306
g6
(g18
S'z\x8d\xb7='
p1178
tp1179
Rp1180
tp1181
asg73
g44
sa(dp1182
g2
S'../../../data/emanuela/activity-recognition/images/NTCIR-Lifelog-256/u1/2015-03-01/b00000014_21i6bq_20150301_071928e.jpg'
p1183
sg4
(lp1184
(g163
g6
(g18
S'\xe0\xb4{>'
p1185
tp1186
Rp1187
tp1188
a(g15
g6
(g18
S'\xa4[E>'
p1189
tp1190
Rp1191
tp1192
a(g44
g6
(g18
S'"\xb1\x1b>'
p1193
tp1194
Rp1195
tp1196
a(g68
g6
(g18
S'<e\xed='
p1197
tp1198
Rp1199
tp1200
a(g84
g6
(g18
S'\xea%\xb4='
p1201
tp1202
Rp1203
tp1204
asg73
g44
sa(dp1205
g2
S'../../../data/emanuela/activity-recognition/images/NTCIR-Lifelog-256/u1/2015-03-04/b00000045_21i6bq_20150304_070544e.jpg'
p1206
sg4
(lp1207
(g186
g6
(g18
S'\x99\xe6\xba>'
p1208
tp1209
Rp1210
tp1211
a(g6
(g7
(S'S16'
p1212
I0
I1
tp1213
Rp1214
(I3
S'|'
p1215
NNNI16
I1
I0
tp1216
bS'public transport'
p1217
tp1218
Rp1219
g6
(g18
S'\x13\x0e\xf4='
p1220
tp1221
Rp1222
tp1223
a(g244
g6
(g18
S'[o\xd7='
p1224
tp1225
Rp1226
tp1227
a(g44
g6
(g18
S'\x14\xe3\xc4='
p1228
tp1229
Rp1230
tp1231
a(g147
g6
(g18
S'\xac\x10\xab='
p1232
tp1233
Rp1234
tp1235
asg73
g44
sa(dp1236
g2
S'../../../data/emanuela/activity-recognition/images/NTCIR-Lifelog-256/u1/2015-03-16/b00003360_21i6bq_20150316_232931e.jpg'
p1237
sg4
(lp1238
(g44
g6
(g18
S'\xc1\xa0K?'
p1239
tp1240
Rp1241
tp1242
a(g96
g6
(g18
S' G(>'
p1243
tp1244
Rp1245
tp1246
a(g84
g6
(g18
S'\xd6\xd3\x88<'
p1247
tp1248
Rp1249
tp1250
a(g32
g6
(g18
S'\x0f\xbd$<'
p1251
tp1252
Rp1253
tp1254
a(g15
g6
(g18
S'k\x90\x1e<'
p1255
tp1256
Rp1257
tp1258
asg73
g44
sa(dp1259
g2
S'../../../data/emanuela/activity-recognition/images/NTCIR-Lifelog-256/u1/2015-03-15/b00000695_21i6bq_20150315_142500e.jpg'
p1260
sg4
(lp1261
(g44
g6
(g18
S'Y\xdaK?'
p1262
tp1263
Rp1264
tp1265
a(g96
g6
(g18
S'\xe1SE>'
p1266
tp1267
Rp1268
tp1269
a(g15
g6
(g18
S'[\xc3H;'
p1270
tp1271
Rp1272
tp1273
a(g306
g6
(g18
S'\xd9\xf4E;'
p1274
tp1275
Rp1276
tp1277
a(g84
g6
(g18
S'W\x8e\xe8:'
p1278
tp1279
Rp1280
tp1281
asg73
g44
sa(dp1282
g2
S'../../../data/emanuela/activity-recognition/images/NTCIR-Lifelog-256/u1/2015-03-09/b00001464_21i6bq_20150309_221416e.jpg'
p1283
sg4
(lp1284
(g68
g6
(g18
S'4\xdc\xbd>'
p1285
tp1286
Rp1287
tp1288
a(g44
g6
(g18
S'*\xe6O>'
p1289
tp1290
Rp1291
tp1292
a(g15
g6
(g18
S'\xab\\\xe7='
p1293
tp1294
Rp1295
tp1296
a(g6
(g7
(S'S7'
p1297
I0
I1
tp1298
Rp1299
(I3
S'|'
p1300
NNNI7
I1
I0
tp1301
bS'working'
p1302
tp1303
Rp1304
g6
(g18
S'\x87\x9e\x8f='
p1305
tp1306
Rp1307
tp1308
a(g84
g6
(g18
S'\xd5vN='
p1309
tp1310
Rp1311
tp1312
asg73
g44
sa(dp1313
g2
S'../../../data/emanuela/activity-recognition/images/NTCIR-Lifelog-256/u1/2015-03-18/b00001299_21i6bq_20150318_223411e.jpg'
p1314
sg4
(lp1315
(g44
g6
(g18
S'\x9b\xc55?'
p1316
tp1317
Rp1318
tp1319
a(g96
g6
(g18
S'S\xa2\xe1='
p1320
tp1321
Rp1322
tp1323
a(g84
g6
(g18
S'\x9fC|='
p1324
tp1325
Rp1326
tp1327
a(g15
g6
(g18
S'\xe7\xff\xff<'
p1328
tp1329
Rp1330
tp1331
a(g147
g6
(g18
S'.\xe4\xfa<'
p1332
tp1333
Rp1334
tp1335
asg73
g44
sa(dp1336
g2
S'../../../data/emanuela/activity-recognition/images/NTCIR-Lifelog-256/u1/2015-03-18/b00001269_21i6bq_20150318_221332e.jpg'
p1337
sg4
(lp1338
(g15
g6
(g18
S'\x1d\xc9b?'
p1339
tp1340
Rp1341
tp1342
a(g44
g6
(g18
S'\x90\t|='
p1343
tp1344
Rp1345
tp1346
a(g96
g6
(g18
S'Z\x0fI<'
p1347
tp1348
Rp1349
tp1350
a(g68
g6
(g18
S'\x9aV9<'
p1351
tp1352
Rp1353
tp1354
a(g32
g6
(g18
S"?='<"
p1355
tp1356
Rp1357
tp1358
asg73
g44
sa(dp1359
g2
S'../../../data/emanuela/activity-recognition/images/NTCIR-Lifelog-256/u1/2015-02-28/b00001264_21i6bq_20150228_204831e.jpg'
p1360
sg4
(lp1361
(g286
g6
(g18
S';L^?'
p1362
tp1363
Rp1364
tp1365
a(g32
g6
(g18
S'I/\x83='
p1366
tp1367
Rp1368
tp1369
a(g306
g6
(g18
S'ka\xdc<'
p1370
tp1371
Rp1372
tp1373
a(g15
g6
(g18
S'm|~<'
p1374
tp1375
Rp1376
tp1377
a(g44
g6
(g18
S'\x9as.<'
p1378
tp1379
Rp1380
tp1381
asg73
g44
sa(dp1382
g2
S'../../../data/emanuela/activity-recognition/images/NTCIR-Lifelog-256/u1/2015-03-09/b00001105_21i6bq_20150309_183716e.jpg'
p1383
sg4
(lp1384
(g44
g6
(g18
S'g\xa1\xaa>'
p1385
tp1386
Rp1387
tp1388
a(g186
g6
(g18
S'\x18: >'
p1389
tp1390
Rp1391
tp1392
a(g244
g6
(g18
S'{m\xec='
p1393
tp1394
Rp1395
tp1396
a(g147
g6
(g18
S'w\xc0\xd7='
p1397
tp1398
Rp1399
tp1400
a(g15
g6
(g18
S'\xda\x10\xa5='
p1401
tp1402
Rp1403
tp1404
asg73
g44
sa(dp1405
g2
S'../../../data/emanuela/activity-recognition/images/NTCIR-Lifelog-256/u1/2015-03-08/b00000916_21i6bq_20150308_192422e.jpg'
p1406
sg4
(lp1407
(g32
g6
(g18
S'\x13\x05e?'
p1408
tp1409
Rp1410
tp1411
a(g15
g6
(g18
S'\xb8\r\x1a='
p1412
tp1413
Rp1414
tp1415
a(g44
g6
(g18
S'\xc0\x08\xc7<'
p1416
tp1417
Rp1418
tp1419
a(g306
g6
(g18
S'\xa5:&<'
p1420
tp1421
Rp1422
tp1423
a(g970
g6
(g18
S'0\xfe\x1b<'
p1424
tp1425
Rp1426
tp1427
asg73
g44
sa(dp1428
g2
S'../../../data/emanuela/activity-recognition/images/NTCIR-Lifelog-256/u1/2015-03-16/b00001598_21i6bq_20150316_073921e.jpg'
p1429
sg4
(lp1430
(g15
g6
(g18
S'\xc6\xa7\x08?'
p1431
tp1432
Rp1433
tp1434
a(g32
g6
(g18
S'\x18\xf0\xca>'
p1435
tp1436
Rp1437
tp1438
a(g44
g6
(g18
S'\xbeQ1='
p1439
tp1440
Rp1441
tp1442
a(g96
g6
(g18
S'.\xb6\x03<'
p1443
tp1444
Rp1445
tp1446
a(g56
g6
(g18
S'\x88\xb8\xad;'
p1447
tp1448
Rp1449
tp1450
asg73
g44
sa(dp1451
g2
S'../../../data/emanuela/activity-recognition/images/NTCIR-Lifelog-256/u1/2015-03-01/b00001204_21i6bq_20150301_185631e.jpg'
p1452
sg4
(lp1453
(g96
g6
(g18
S'vn>?'
p1454
tp1455
Rp1456
tp1457
a(g186
g6
(g18
S'\x08\xcf\xb7='
p1458
tp1459
Rp1460
tp1461
a(g44
g6
(g18
S'W4{='
p1462
tp1463
Rp1464
tp1465
a(g84
g6
(g18
S'\x89\xb66='
p1466
tp1467
Rp1468
tp1469
a(g147
g6
(g18
S'\xd8`\xba<'
p1470
tp1471
Rp1472
tp1473
asg73
g44
sa(dp1474
g2
S'../../../data/emanuela/activity-recognition/images/NTCIR-Lifelog-256/u1/2015-03-18/b00000037_21i6bq_20150318_075654e.jpg'
p1475
sg4
(lp1476
(g44
g6
(g18
S'\x1dp\xfd>'
p1477
tp1478
Rp1479
tp1480
a(g15
g6
(g18
S'X\xd9\xa6>'
p1481
tp1482
Rp1483
tp1484
a(g68
g6
(g18
S'\xfe7\x06='
p1485
tp1486
Rp1487
tp1488
a(g84
g6
(g18
S',\\\x00='
p1489
tp1490
Rp1491
tp1492
a(g56
g6
(g18
S'p\xc7\xc2<'
p1493
tp1494
Rp1495
tp1496
asg73
g44
sa(dp1497
g2
S'../../../data/emanuela/activity-recognition/images/NTCIR-Lifelog-256/u1/2015-02-23/b00001158_21i6bq_20150223_192513e.jpg'
p1498
sg4
(lp1499
(g96
g6
(g18
S'\xab\x17.?'
p1500
tp1501
Rp1502
tp1503
a(g44
g6
(g18
S'4\xb8.>'
p1504
tp1505
Rp1506
tp1507
a(g15
g6
(g18
S'\xee\xf5\xbd='
p1508
tp1509
Rp1510
tp1511
a(g84
g6
(g18
S'\x9ct\xa6<'
p1512
tp1513
Rp1514
tp1515
a(g835
g6
(g18
S'?B\x13<'
p1516
tp1517
Rp1518
tp1519
asg73
g44
sa(dp1520
g2
S'../../../data/emanuela/activity-recognition/images/NTCIR-Lifelog-256/u1/2015-03-05/b00000084_21i6bq_20150305_065620e.jpg'
p1521
sg4
(lp1522
(g44
g6
(g18
S'\xd6\xcc\xdc>'
p1523
tp1524
Rp1525
tp1526
a(g84
g6
(g18
S'\x08\xaf\x15>'
p1527
tp1528
Rp1529
tp1530
a(g186
g6
(g18
S'\xe6\xa8\xe7='
p1531
tp1532
Rp1533
tp1534
a(g15
g6
(g18
S'>\xf0\xd3='
p1535
tp1536
Rp1537
tp1538
a(g56
g6
(g18
S'>\xef1='
p1539
tp1540
Rp1541
tp1542
asg73
g44
sa(dp1543
g2
S'../../../data/emanuela/activity-recognition/images/NTCIR-Lifelog-256/u1/2015-03-16/b00003357_21i6bq_20150316_232928e.jpg'
p1544
sg4
(lp1545
(g44
g6
(g18
S'\xedX\x1d?'
p1546
tp1547
Rp1548
tp1549
a(g96
g6
(g18
S'k\tU>'
p1550
tp1551
Rp1552
tp1553
a(g84
g6
(g18
S'\xfb\xed\x01>'
p1554
tp1555
Rp1556
tp1557
a(g15
g6
(g18
S'\xa2\xfaf<'
p1558
tp1559
Rp1560
tp1561
a(g32
g6
(g18
S'\xeafD<'
p1562
tp1563
Rp1564
tp1565
asg73
g44
sa(dp1566
g2
S'../../../data/emanuela/activity-recognition/images/NTCIR-Lifelog-256/u1/2015-03-18/b00001279_21i6bq_20150318_222001e.jpg'
p1567
sg4
(lp1568
(g44
g6
(g18
S'69\xd6>'
p1569
tp1570
Rp1571
tp1572
a(g96
g6
(g18
S'\xbc\xd0{>'
p1573
tp1574
Rp1575
tp1576
a(g15
g6
(g18
S'\x9fW\xd7='
p1577
tp1578
Rp1579
tp1580
a(g56
g6
(g18
S'B\tr='
p1581
tp1582
Rp1583
tp1584
a(g84
g6
(g18
S'\x8b\xb5i='
p1585
tp1586
Rp1587
tp1588
asg73
g44
sa(dp1589
g2
S'../../../data/emanuela/activity-recognition/images/NTCIR-Lifelog-256/u1/2015-03-18/b00001307_21i6bq_20150318_223905e.jpg'
p1590
sg4
(lp1591
(g32
g6
(g18
S'p\x95^?'
p1592
tp1593
Rp1594
tp1595
a(g306
g6
(g18
S'\xe9\x86;='
p1596
tp1597
Rp1598
tp1599
a(g84
g6
(g18
S'\xb2\xe2\xeb<'
p1600
tp1601
Rp1602
tp1603
a(g244
g6
(g18
S'\x00\xfa9<'
p1604
tp1605
Rp1606
tp1607
a(g163
g6
(g18
S'6@2<'
p1608
tp1609
Rp1610
tp1611
asg73
g44
sa(dp1612
g2
S'../../../data/emanuela/activity-recognition/images/NTCIR-Lifelog-256/u1/2015-02-25/b00000044_21i6bq_20150225_061737e.jpg'
p1613
sg4
(lp1614
(g44
g6
(g18
S'\x7fd\x02?'
p1615
tp1616
Rp1617
tp1618
a(g96
g6
(g18
S'\xf6%\xe1='
p1619
tp1620
Rp1621
tp1622
a(g32
g6
(g18
S'\x11\xe2\xbf='
p1623
tp1624
Rp1625
tp1626
a(g15
g6
(g18
S'w1\xa0='
p1627
tp1628
Rp1629
tp1630
a(g186
g6
(g18
S':\xde`='
p1631
tp1632
Rp1633
tp1634
asg73
g44
sa(dp1635
g2
S'../../../data/emanuela/activity-recognition/images/NTCIR-Lifelog-256/u1/2015-02-25/b00000014_21i6bq_20150225_055928e.jpg'
p1636
sg4
(lp1637
(g44
g6
(g18
S'\xd6\x8a*?'
p1638
tp1639
Rp1640
tp1641
a(g84
g6
(g18
S'\xf1Q\x11>'
p1642
tp1643
Rp1644
tp1645
a(g186
g6
(g18
S'Q\xc5\x94='
p1646
tp1647
Rp1648
tp1649
a(g96
g6
(g18
S'6\t\x14='
p1650
tp1651
Rp1652
tp1653
a(g15
g6
(g18
S'\x87\xcd\x10='
p1654
tp1655
Rp1656
tp1657
asg73
g44
sa(dp1658
g2
S'../../../data/emanuela/activity-recognition/images/NTCIR-Lifelog-256/u1/2015-03-18/b00001310_21i6bq_20150318_224056e.jpg'
p1659
sg4
(lp1660
(g44
g6
(g18
S'\xa5\x86\xbe>'
p1661
tp1662
Rp1663
tp1664
a(g15
g6
(g18
S'a\xcd\xbd>'
p1665
tp1666
Rp1667
tp1668
a(g32
g6
(g18
S'\x18\xb0T>'
p1669
tp1670
Rp1671
tp1672
a(g96
g6
(g18
S'\x7f&\xfb<'
p1673
tp1674
Rp1675
tp1676
a(g306
g6
(g18
S'\xd1\x07\x94;'
p1677
tp1678
Rp1679
tp1680
asg73
g44
sa(dp1681
g2
S'../../../data/emanuela/activity-recognition/images/NTCIR-Lifelog-256/u1/2015-03-01/b00000010_21i6bq_20150301_071926e.jpg'
p1682
sg4
(lp1683
(g163
g6
(g18
S'8\x80\xa1>'
p1684
tp1685
Rp1686
tp1687
a(g15
g6
(g18
S'\x10k3>'
p1688
tp1689
Rp1690
tp1691
a(g44
g6
(g18
S'1+*>'
p1692
tp1693
Rp1694
tp1695
a(g68
g6
(g18
S'q\x07\x07>'
p1696
tp1697
Rp1698
tp1699
a(g84
g6
(g18
S'\x117M='
p1700
tp1701
Rp1702
tp1703
asg73
g44
sa(dp1704
g2
S'../../../data/emanuela/activity-recognition/images/NTCIR-Lifelog-256/u1/2015-03-17/b00000275_21i6bq_20150317_111556e.jpg'
p1705
sg4
(lp1706
(g186
g6
(g18
S'\x80s\x03?'
p1707
tp1708
Rp1709
tp1710
a(g56
g6
(g18
S'\x06\xd5\\>'
p1711
tp1712
Rp1713
tp1714
a(g44
g6
(g18
S'\xa4\xde\xdf='
p1715
tp1716
Rp1717
tp1718
a(g84
g6
(g18
S'\xd0\x05\x85='
p1719
tp1720
Rp1721
tp1722
a(g116
g6
(g18
S'A\x83\x1f='
p1723
tp1724
Rp1725
tp1726
asg73
g44
sa(dp1727
g2
S'../../../data/emanuela/activity-recognition/images/NTCIR-Lifelog-256/u1/2015-03-17/b00001592_21i6bq_20150317_234413e.jpg'
p1728
sg4
(lp1729
(g44
g6
(g18
S'o\xae\x86>'
p1730
tp1731
Rp1732
tp1733
a(g84
g6
(g18
S'\xb3\x1b\x1d>'
p1734
tp1735
Rp1736
tp1737
a(g32
g6
(g18
S'\xe6\xdf\x02>'
p1738
tp1739
Rp1740
tp1741
a(g15
g6
(g18
S'D\x86\xd2='
p1742
tp1743
Rp1744
tp1745
a(g56
g6
(g18
S'x\xc7w='
p1746
tp1747
Rp1748
tp1749
asg73
g44
sa(dp1750
g2
S'../../../data/emanuela/activity-recognition/images/NTCIR-Lifelog-256/u1/2015-03-18/b00001296_21i6bq_20150318_223110e.jpg'
p1751
sg4
(lp1752
(g1219
g6
(g18
S'\xfc\x92`>'
p1753
tp1754
Rp1755
tp1756
a(g286
g6
(g18
S'Z\xdf=>'
p1757
tp1758
Rp1759
tp1760
a(g306
g6
(g18
S'\x06o->'
p1761
tp1762
Rp1763
tp1764
a(g44
g6
(g18
S'\xfb*\xc1='
p1765
tp1766
Rp1767
tp1768
a(g68
g6
(g18
S'\x8dY`='
p1769
tp1770
Rp1771
tp1772
asg73
g44
sa(dp1773
g2
S'../../../data/emanuela/activity-recognition/images/NTCIR-Lifelog-256/u1/2015-02-25/b00001271_21i6bq_20150225_192324e.jpg'
p1774
sg4
(lp1775
(g15
g6
(g18
S'\xcd\x1e\xc0>'
p1776
tp1777
Rp1778
tp1779
a(g44
g6
(g18
S'\xf6\xe1X>'
p1780
tp1781
Rp1782
tp1783
a(g96
g6
(g18
S'\x06c\x1b>'
p1784
tp1785
Rp1786
tp1787
a(g186
g6
(g18
S'\xd9\xe4\xca='
p1788
tp1789
Rp1790
tp1791
a(g835
g6
(g18
S'\xb1\xf2\xc9<'
p1792
tp1793
Rp1794
tp1795
asg73
g44
sa(dp1796
g2
S'../../../data/emanuela/activity-recognition/images/NTCIR-Lifelog-256/u1/2015-03-10/b00000986_21i6bq_20150310_233248e.jpg'
p1797
sg4
(lp1798
(g306
g6
(g18
S'\x9e\xc9\x90>'
p1799
tp1800
Rp1801
tp1802
a(g32
g6
(g18
S'a`X>'
p1803
tp1804
Rp1805
tp1806
a(g84
g6
(g18
S'\xaet\x01>'
p1807
tp1808
Rp1809
tp1810
a(g44
g6
(g18
S'\xfa<\xc0='
p1811
tp1812
Rp1813
tp1814
a(g15
g6
(g18
S'\x85\x95\xba='
p1815
tp1816
Rp1817
tp1818
asg73
g44
sa(dp1819
g2
S'../../../data/emanuela/activity-recognition/images/NTCIR-Lifelog-256/u1/2015-03-01/b00000015_21i6bq_20150301_071928e.jpg'
p1820
sg4
(lp1821
(g15
g6
(g18
S'\x15\x19\x9d>'
p1822
tp1823
Rp1824
tp1825
a(g44
g6
(g18
S'\x0c,\x9b>'
p1826
tp1827
Rp1828
tp1829
a(g68
g6
(g18
S'\xa3D$>'
p1830
tp1831
Rp1832
tp1833
a(g163
g6
(g18
S'(I\x8d='
p1834
tp1835
Rp1836
tp1837
a(g244
g6
(g18
S'\xf1A:='
p1838
tp1839
Rp1840
tp1841
asg73
g44
sa(dp1842
g2
S'../../../data/emanuela/activity-recognition/images/NTCIR-Lifelog-256/u1/2015-03-01/b00000606_21i6bq_20150301_125954e.jpg'
p1843
sg4
(lp1844
(g84
g6
(g18
S')(b?'
p1845
tp1846
Rp1847
tp1848
a(g44
g6
(g18
S'\xa6m\x05='
p1849
tp1850
Rp1851
tp1852
a(g186
g6
(g18
S'\x05w\xa1<'
p1853
tp1854
Rp1855
tp1856
a(g147
g6
(g18
S'\x0f\x02\x81<'
p1857
tp1858
Rp1859
tp1860
a(g32
g6
(g18
S'\x86\xabO<'
p1861
tp1862
Rp1863
tp1864
asg73
g44
sa(dp1865
g2
S'../../../data/emanuela/activity-recognition/images/NTCIR-Lifelog-256/u1/2015-03-01/b00000105_21i6bq_20150301_075659e.jpg'
p1866
sg4
(lp1867
(g96
g6
(g18
S'\xc8\xde\x0f?'
p1868
tp1869
Rp1870
tp1871
a(g44
g6
(g18
S'\xac\xde\x8b>'
p1872
tp1873
Rp1874
tp1875
a(g15
g6
(g18
S'\xdc\x10\x9c='
p1876
tp1877
Rp1878
tp1879
a(g835
g6
(g18
S'\xda\xae\x04='
p1880
tp1881
Rp1882
tp1883
a(g186
g6
(g18
S'\xd1\xb4\xb0<'
p1884
tp1885
Rp1886
tp1887
asg73
g44
sa(dp1888
g2
S'../../../data/emanuela/activity-recognition/images/NTCIR-Lifelog-256/u1/2015-03-18/b00000033_21i6bq_20150318_075435e.jpg'
p1889
sg4
(lp1890
(g44
g6
(g18
S'\x07\xa0G?'
p1891
tp1892
Rp1893
tp1894
a(g96
g6
(g18
S'G\xe3\xf7='
p1895
tp1896
Rp1897
tp1898
a(g15
g6
(g18
S'\xd1\x99\xa1='
p1899
tp1900
Rp1901
tp1902
a(g32
g6
(g18
S'3\xcbU<'
p1903
tp1904
Rp1905
tp1906
a(g84
g6
(g18
S'\x0f\xf9a;'
p1907
tp1908
Rp1909
tp1910
asg73
g44
sa(dp1911
g2
S'../../../data/emanuela/activity-recognition/images/NTCIR-Lifelog-256/u1/2015-03-15/b00000749_21i6bq_20150315_145612e.jpg'
p1912
sg4
(lp1913
(g84
g6
(g18
S'\xb8Ki>'
p1914
tp1915
Rp1916
tp1917
a(g186
g6
(g18
S'\x12{g>'
p1918
tp1919
Rp1920
tp1921
a(g147
g6
(g18
S'\xf6\x93S>'
p1922
tp1923
Rp1924
tp1925
a(g96
g6
(g18
S'\xca\x1a\xd4='
p1926
tp1927
Rp1928
tp1929
a(g835
g6
(g18
S'\x0b/\x83='
p1930
tp1931
Rp1932
tp1933
asg73
g44
sa(dp1934
g2
S'../../../data/emanuela/activity-recognition/images/NTCIR-Lifelog-256/u1/2015-03-16/b00003352_21i6bq_20150316_232922e.jpg'
p1935
sg4
(lp1936
(g186
g6
(g18
S'\x83\x9e\xfe>'
p1937
tp1938
Rp1939
tp1940
a(g147
g6
(g18
S'\xf8O\xd1='
p1941
tp1942
Rp1943
tp1944
a(g84
g6
(g18
S'\xa7\x03\xb3='
p1945
tp1946
Rp1947
tp1948
a(g44
g6
(g18
S'\xe8\x8b\xa7='
p1949
tp1950
Rp1951
tp1952
a(g96
g6
(g18
S'\xebH\x97='
p1953
tp1954
Rp1955
tp1956
asg73
g44
sa(dp1957
g2
S'../../../data/emanuela/activity-recognition/images/NTCIR-Lifelog-256/u1/2015-03-16/b00001599_21i6bq_20150316_073957e.jpg'
p1958
sg4
(lp1959
(g44
g6
(g18
S'\xde\xfa\x18?'
p1960
tp1961
Rp1962
tp1963
a(g147
g6
(g18
S'K}2>'
p1964
tp1965
Rp1966
tp1967
a(g186
g6
(g18
S'S\x8f\xb9='
p1968
tp1969
Rp1970
tp1971
a(g84
g6
(g18
S'+\x04\x1d='
p1972
tp1973
Rp1974
tp1975
a(g15
g6
(g18
S'\xef#\x1c='
p1976
tp1977
Rp1978
tp1979
asg73
g44
sa(dp1980
g2
S'../../../data/emanuela/activity-recognition/images/NTCIR-Lifelog-256/u1/2015-03-16/b00003354_21i6bq_20150316_232924e.jpg'
p1981
sg4
(lp1982
(g44
g6
(g18
S'\xfa\xc8\x0c?'
p1983
tp1984
Rp1985
tp1986
a(g96
g6
(g18
S'\x07L\xa9>'
p1987
tp1988
Rp1989
tp1990
a(g84
g6
(g18
S'\xc7T\x88='
p1991
tp1992
Rp1993
tp1994
a(g32
g6
(g18
S'\x84\\[<'
p1995
tp1996
Rp1997
tp1998
a(g15
g6
(g18
S't\xbf\x07<'
p1999
tp2000
Rp2001
tp2002
asg73
g44
sa(dp2003
g2
S'../../../data/emanuela/activity-recognition/images/NTCIR-Lifelog-256/u1/2015-03-15/b00000011_21i6bq_20150315_075229e.jpg'
p2004
sg4
(lp2005
(g44
g6
(g18
S'\xb7\xceL?'
p2006
tp2007
Rp2008
tp2009
a(g96
g6
(g18
S'\xd4\xf5\x12>'
p2010
tp2011
Rp2012
tp2013
a(g15
g6
(g18
S'*\x9do<'
p2014
tp2015
Rp2016
tp2017
a(g147
g6
(g18
S'\xff\x16Z<'
p2018
tp2019
Rp2020
tp2021
a(g84
g6
(g18
S'\x9f\x00\x1e<'
p2022
tp2023
Rp2024
tp2025
asg73
g44
sa(dp2026
g2
S'../../../data/emanuela/activity-recognition/images/NTCIR-Lifelog-256/u1/2015-03-15/b00000694_21i6bq_20150315_142427e.jpg'
p2027
sg4
(lp2028
(g44
g6
(g18
S'\x86KL?'
p2029
tp2030
Rp2031
tp2032
a(g96
g6
(g18
S'\xad\xd2B>'
p2033
tp2034
Rp2035
tp2036
a(g84
g6
(g18
S'\xd3\xad[;'
p2037
tp2038
Rp2039
tp2040
a(g15
g6
(g18
S'\t\x92\x00;'
p2041
tp2042
Rp2043
tp2044
a(g306
g6
(g18
S'\xb3\x1d\xf5:'
p2045
tp2046
Rp2047
tp2048
asg73
g44
sa(dp2049
g2
S'../../../data/emanuela/activity-recognition/images/NTCIR-Lifelog-256/u1/2015-03-01/b00001203_21i6bq_20150301_185558e.jpg'
p2050
sg4
(lp2051
(g44
g6
(g18
S'\x18i\xf5>'
p2052
tp2053
Rp2054
tp2055
a(g84
g6
(g18
S'n\x17!>'
p2056
tp2057
Rp2058
tp2059
a(g15
g6
(g18
S'+|\xb4='
p2060
tp2061
Rp2062
tp2063
a(g32
g6
(g18
S'\xf0\x94\xb0='
p2064
tp2065
Rp2066
tp2067
a(g186
g6
(g18
S'r|t='
p2068
tp2069
Rp2070
tp2071
asg73
g44
sa(dp2072
g2
S'../../../data/emanuela/activity-recognition/images/NTCIR-Lifelog-256/u1/2015-03-04/b00000086_21i6bq_20150304_073115e.jpg'
p2073
sg4
(lp2074
(g44
g6
(g18
S'\xc5{\\>'
p2075
tp2076
Rp2077
tp2078
a(g68
g6
(g18
S'\xb335>'
p2079
tp2080
Rp2081
tp2082
a(g244
g6
(g18
S'\xf3\n0>'
p2083
tp2084
Rp2085
tp2086
a(g15
g6
(g18
S'v\xb6\xc2='
p2087
tp2088
Rp2089
tp2090
a(g6
(g7
(S'S6'
p2091
I0
I1
tp2092
Rp2093
(I3
S'|'
p2094
NNNI6
I1
I0
tp2095
bS'biking'
p2096
tp2097
Rp2098
g6
(g18
S'\xd5\xb3\xc1='
p2099
tp2100
Rp2101
tp2102
asg73
g44
sa(dp2103
g2
S'../../../data/emanuela/activity-recognition/images/NTCIR-Lifelog-256/u1/2015-03-14/b00000734_21i6bq_20150314_133326e.jpg'
p2104
sg4
(lp2105
(g84
g6
(g18
S'"\xce\'?'
p2106
tp2107
Rp2108
tp2109
a(g186
g6
(g18
S'\x0c\x95y>'
p2110
tp2111
Rp2112
tp2113
a(g68
g6
(g18
S'\xf0\x14\xac<'
p2114
tp2115
Rp2116
tp2117
a(g147
g6
(g18
S']\xc9\x81<'
p2118
tp2119
Rp2120
tp2121
a(g15
g6
(g18
S':{}<'
p2122
tp2123
Rp2124
tp2125
asg73
g44
sa(dp2126
g2
S'../../../data/emanuela/activity-recognition/images/NTCIR-Lifelog-256/u1/2015-03-01/b00000007_21i6bq_20150301_071829e.jpg'
p2127
sg4
(lp2128
(g44
g6
(g18
S'\r\xed\xf8>'
p2129
tp2130
Rp2131
tp2132
a(g96
g6
(g18
S'B\xfd\xf2='
p2133
tp2134
Rp2135
tp2136
a(g147
g6
(g18
S'\xff)\xdb='
p2137
tp2138
Rp2139
tp2140
a(g15
g6
(g18
S'h\x80\xbd='
p2141
tp2142
Rp2143
tp2144
a(g84
g6
(g18
S'\x18\x19\x94='
p2145
tp2146
Rp2147
tp2148
asg73
g44
sa(dp2149
g2
S'../../../data/emanuela/activity-recognition/images/NTCIR-Lifelog-256/u1/2015-03-09/b00001355_21i6bq_20150309_210811e.jpg'
p2150
sg4
(lp2151
(g84
g6
(g18
S'\xbf\x00\xb0>'
p2152
tp2153
Rp2154
tp2155
a(g56
g6
(g18
S'Or\r>'
p2156
tp2157
Rp2158
tp2159
a(g116
g6
(g18
S'6\x18\xf0='
p2160
tp2161
Rp2162
tp2163
a(g163
g6
(g18
S'|y\xe1='
p2164
tp2165
Rp2166
tp2167
a(g44
g6
(g18
S'\xfd\xde\xdc='
p2168
tp2169
Rp2170
tp2171
asg73
g44
sa(dp2172
g2
S'../../../data/emanuela/activity-recognition/images/NTCIR-Lifelog-256/u1/2015-02-24/b00000051_21i6bq_20150224_071110e.jpg'
p2173
sg4
(lp2174
(g15
g6
(g18
S'&\x95\xfc>'
p2175
tp2176
Rp2177
tp2178
a(g68
g6
(g18
S'N\x1cQ>'
p2179
tp2180
Rp2181
tp2182
a(g32
g6
(g18
S' U\x97='
p2183
tp2184
Rp2185
tp2186
a(g44
g6
(g18
S'\xbf\x83\x93='
p2187
tp2188
Rp2189
tp2190
a(g244
g6
(g18
S'\x92\x1e\x8d='
p2191
tp2192
Rp2193
tp2194
asg73
g44
sa(dp2195
g2
S'../../../data/emanuela/activity-recognition/images/NTCIR-Lifelog-256/u1/2015-03-18/b00001285_21i6bq_20150318_222434e.jpg'
p2196
sg4
(lp2197
(g84
g6
(g18
S'\xed\x9f\xa5>'
p2198
tp2199
Rp2200
tp2201
a(g96
g6
(g18
S'\xe5\x83<>'
p2202
tp2203
Rp2204
tp2205
a(g44
g6
(g18
S'\x01\xf3\x1f>'
p2206
tp2207
Rp2208
tp2209
a(g15
g6
(g18
S'a\xe9\x13>'
p2210
tp2211
Rp2212
tp2213
a(g306
g6
(g18
S'\x8f\xe4X='
p2214
tp2215
Rp2216
tp2217
asg73
g44
sa(dp2218
g2
S'../../../data/emanuela/activity-recognition/images/NTCIR-Lifelog-256/u1/2015-03-16/b00003356_21i6bq_20150316_232927e.jpg'
p2219
sg4
(lp2220
(g44
g6
(g18
S'\t\xf5\x10?'
p2221
tp2222
Rp2223
tp2224
a(g96
g6
(g18
S'\rr\x91>'
p2225
tp2226
Rp2227
tp2228
a(g84
g6
(g18
S'V\x9cs='
p2229
tp2230
Rp2231
tp2232
a(g15
g6
(g18
S'\x9b\xe5A='
p2233
tp2234
Rp2235
tp2236
a(g32
g6
(g18
S'$0\x7f<'
p2237
tp2238
Rp2239
tp2240
asg73
g44
sa(dp2241
g2
S'../../../data/emanuela/activity-recognition/images/NTCIR-Lifelog-256/u1/2015-03-05/b00001343_21i6bq_20150305_213700e.jpg'
p2242
sg4
(lp2243
(g44
g6
(g18
S'\x96\xfe\x08?'
p2244
tp2245
Rp2246
tp2247
a(g186
g6
(g18
S'\xaeZ\xda='
p2248
tp2249
Rp2250
tp2251
a(g84
g6
(g18
S'y0\xb7='
p2252
tp2253
Rp2254
tp2255
a(g15
g6
(g18
S'\xb2\x04\x9f='
p2256
tp2257
Rp2258
tp2259
a(g96
g6
(g18
S'\t,r='
p2260
tp2261
Rp2262
tp2263
asg73
g44
sa(dp2264
g2
S'../../../data/emanuela/activity-recognition/images/NTCIR-Lifelog-256/u1/2015-03-10/b00000985_21i6bq_20150310_233206e.jpg'
p2265
sg4
(lp2266
(g6
(g7
(S'S7'
p2267
I0
I1
tp2268
Rp2269
(I3
S'|'
p2270
NNNI7
I1
I0
tp2271
bS'driving'
p2272
tp2273
Rp2274
g6
(g18
S'\x1a/\xce>'
p2275
tp2276
Rp2277
tp2278
a(g44
g6
(g18
S'\xc3\xb6\xc3>'
p2279
tp2280
Rp2281
tp2282
a(g96
g6
(g18
S'i\x1d<='
p2283
tp2284
Rp2285
tp2286
a(g286
g6
(g18
S'*\x0e;='
p2287
tp2288
Rp2289
tp2290
a(g1219
g6
(g18
S'Fy\xdf<'
p2291
tp2292
Rp2293
tp2294
asg73
g44
sa(dp2295
g2
S'../../../data/emanuela/activity-recognition/images/NTCIR-Lifelog-256/u1/2015-03-16/b00001597_21i6bq_20150316_073844e.jpg'
p2296
sg4
(lp2297
(g44
g6
(g18
S'\xd7ge?'
p2298
tp2299
Rp2300
tp2301
a(g96
g6
(g18
S'\xfb\xc5L='
p2302
tp2303
Rp2304
tp2305
a(g15
g6
(g18
S'}\xbb\x17='
p2306
tp2307
Rp2308
tp2309
a(g32
g6
(g18
S'~\x9c\x17<'
p2310
tp2311
Rp2312
tp2313
a(g68
g6
(g18
S'\xebZ+;'
p2314
tp2315
Rp2316
tp2317
asg73
g44
sa(dp2318
g2
S'../../../data/emanuela/activity-recognition/images/NTCIR-Lifelog-256/u1/2015-03-01/b00000527_21i6bq_20150301_120707e.jpg'
p2319
sg4
(lp2320
(g56
g6
(g18
S'4\xb1\n?'
p2321
tp2322
Rp2323
tp2324
a(g147
g6
(g18
S'[m\x1b>'
p2325
tp2326
Rp2327
tp2328
a(g44
g6
(g18
S'\xd8\xb2\x0e>'
p2329
tp2330
Rp2331
tp2332
a(g186
g6
(g18
S'\x91:d='
p2333
tp2334
Rp2335
tp2336
a(g68
g6
(g18
S'\x14\xcc\xeb<'
p2337
tp2338
Rp2339
tp2340
asg73
g44
sa(dp2341
g2
S'../../../data/emanuela/activity-recognition/images/NTCIR-Lifelog-256/u1/2015-03-01/b00000012_21i6bq_20150301_071927e.jpg'
p2342
sg4
(lp2343
(g163
g6
(g18
S'3\x17{>'
p2344
tp2345
Rp2346
tp2347
a(g15
g6
(g18
S's\x00_>'
p2348
tp2349
Rp2350
tp2351
a(g68
g6
(g18
S'\xc9\xac@>'
p2352
tp2353
Rp2354
tp2355
a(g84
g6
(g18
S'\x98\x1a\xa2='
p2356
tp2357
Rp2358
tp2359
a(g44
g6
(g18
S'\xb9Nr='
p2360
tp2361
Rp2362
tp2363
asg73
g44
sa(dp2364
g2
S'../../../data/emanuela/activity-recognition/images/NTCIR-Lifelog-256/u1/2015-03-04/b00000109_21i6bq_20150304_074823e.jpg'
p2365
sg4
(lp2366
(g96
g6
(g18
S'p\x0c#?'
p2367
tp2368
Rp2369
tp2370
a(g84
g6
(g18
S'\xbc\xcf\x17>'
p2371
tp2372
Rp2373
tp2374
a(g44
g6
(g18
S'\nF\x11>'
p2375
tp2376
Rp2377
tp2378
a(g186
g6
(g18
S'"\x9d\x19='
p2379
tp2380
Rp2381
tp2382
a(g147
g6
(g18
S'J\xea|<'
p2383
tp2384
Rp2385
tp2386
asg73
g44
sa(dp2387
g2
S'../../../data/emanuela/activity-recognition/images/NTCIR-Lifelog-256/u1/2015-03-16/b00003358_21i6bq_20150316_232929e.jpg'
p2388
sg4
(lp2389
(g44
g6
(g18
S'1{B?'
p2390
tp2391
Rp2392
tp2393
a(g96
g6
(g18
S'\x02\x8e4>'
p2394
tp2395
Rp2396
tp2397
a(g15
g6
(g18
S'\x07\x86\xf3<'
p2398
tp2399
Rp2400
tp2401
a(g306
g6
(g18
S',\x17C<'
p2402
tp2403
Rp2404
tp2405
a(g32
g6
(g18
S'\x01\xd1\x0f<'
p2406
tp2407
Rp2408
tp2409
asg73
g44
sa(dp2410
g2
S'../../../data/emanuela/activity-recognition/images/NTCIR-Lifelog-256/u1/2015-03-15/b00000711_21i6bq_20150315_143701e.jpg'
p2411
sg4
(lp2412
(g44
g6
(g18
S'\xd5\xf8\x1c?'
p2413
tp2414
Rp2415
tp2416
a(g15
g6
(g18
S'\xd8a">'
p2417
tp2418
Rp2419
tp2420
a(g56
g6
(g18
S'L\xdd\xb7='
p2421
tp2422
Rp2423
tp2424
a(g96
g6
(g18
S'\x82T0='
p2425
tp2426
Rp2427
tp2428
a(g32
g6
(g18
S'\xc2\x85\xbc<'
p2429
tp2430
Rp2431
tp2432
asg73
g44
sa(dp2433
g2
S'../../../data/emanuela/activity-recognition/images/NTCIR-Lifelog-256/u1/2015-03-10/b00001551_21i6bq_20150310_064817e.jpg'
p2434
sg4
(lp2435
(g44
g6
(g18
S"\xf3'$?"
p2436
tp2437
Rp2438
tp2439
a(g84
g6
(g18
S'u\xa6)>'
p2440
tp2441
Rp2442
tp2443
a(g96
g6
(g18
S'\xbc-\x7f='
p2444
tp2445
Rp2446
tp2447
a(g15
g6
(g18
S'1\xfaV='
p2448
tp2449
Rp2450
tp2451
a(g147
g6
(g18
S'\xeb\x1f\x14='
p2452
tp2453
Rp2454
tp2455
asg73
g44
sa(dp2456
g2
S'../../../data/emanuela/activity-recognition/images/NTCIR-Lifelog-256/u1/2015-03-16/b00003355_21i6bq_20150316_232926e.jpg'
p2457
sg4
(lp2458
(g96
g6
(g18
S'}\xeb\xc9>'
p2459
tp2460
Rp2461
tp2462
a(g44
g6
(g18
S'a^\xa5>'
p2463
tp2464
Rp2465
tp2466
a(g84
g6
(g18
S'W\x10\x07>'
p2467
tp2468
Rp2469
tp2470
a(g15
g6
(g18
S'L+\xa3='
p2471
tp2472
Rp2473
tp2474
a(g306
g6
(g18
S'\xe6yp<'
p2475
tp2476
Rp2477
tp2478
asg73
g44
sa(dp2479
g2
S'../../../data/emanuela/activity-recognition/images/NTCIR-Lifelog-256/u1/2015-02-26/b00000088_21i6bq_20150226_065628e.jpg'
p2480
sg4
(lp2481
(g96
g6
(g18
S'!f1>'
p2482
tp2483
Rp2484
tp2485
a(g44
g6
(g18
S'\x99\xde&>'
p2486
tp2487
Rp2488
tp2489
a(g56
g6
(g18
S'\x9fX%>'
p2490
tp2491
Rp2492
tp2493
a(g84
g6
(g18
S'(\xaf!>'
p2494
tp2495
Rp2496
tp2497
a(g186
g6
(g18
S'\x04\xcf\xf5='
p2498
tp2499
Rp2500
tp2501
asg73
g44
sa(dp2502
g2
S'../../../data/emanuela/activity-recognition/images/NTCIR-Lifelog-256/u1/2015-03-01/b00000009_21i6bq_20150301_071925e.jpg'
p2503
sg4
(lp2504
(g15
g6
(g18
S'}\xa1o>'
p2505
tp2506
Rp2507
tp2508
a(g44
g6
(g18
S'\x07\xe9V>'
p2509
tp2510
Rp2511
tp2512
a(g163
g6
(g18
S'E\x13V>'
p2513
tp2514
Rp2515
tp2516
a(g68
g6
(g18
S'\xcb\xcf\xe6='
p2517
tp2518
Rp2519
tp2520
a(g84
g6
(g18
S'\xd5(\x9f='
p2521
tp2522
Rp2523
tp2524
asg73
g44
sa(dp2525
g2
S'../../../data/emanuela/activity-recognition/images/NTCIR-Lifelog-256/u1/2015-03-18/b00001306_21i6bq_20150318_223833e.jpg'
p2526
sg4
(lp2527
(g44
g6
(g18
S'\xa4\xd3\xc8>'
p2528
tp2529
Rp2530
tp2531
a(g84
g6
(g18
S'\x1a\x050>'
p2532
tp2533
Rp2534
tp2535
a(g96
g6
(g18
S'\xefN\xe6='
p2536
tp2537
Rp2538
tp2539
a(g68
g6
(g18
S'\xca#\x9a='
p2540
tp2541
Rp2542
tp2543
a(g15
g6
(g18
S'Z\xc4\x90='
p2544
tp2545
Rp2546
tp2547
asg73
g44
sa(dp2548
g2
S'../../../data/emanuela/activity-recognition/images/NTCIR-Lifelog-256/u1/2015-03-01/b00000016_21i6bq_20150301_071929e.jpg'
p2549
sg4
(lp2550
(g44
g6
(g18
S'\x14\xed$?'
p2551
tp2552
Rp2553
tp2554
a(g68
g6
(g18
S'\xffz\xe7='
p2555
tp2556
Rp2557
tp2558
a(g15
g6
(g18
S'\x8e\xd3p='
p2559
tp2560
Rp2561
tp2562
a(g84
g6
(g18
S'\x1e\xb8\x10='
p2563
tp2564
Rp2565
tp2566
a(g163
g6
(g18
S'\xf5Q\x04='
p2567
tp2568
Rp2569
tp2570
asg73
g44
sa(dp2571
g2
S'../../../data/emanuela/activity-recognition/images/NTCIR-Lifelog-256/u1/2015-03-09/b00001280_21i6bq_20150309_202426e.jpg'
p2572
sg4
(lp2573
(g56
g6
(g18
S'\x12+\xa0>'
p2574
tp2575
Rp2576
tp2577
a(g68
g6
(g18
S'\xf8%\x9b>'
p2578
tp2579
Rp2580
tp2581
a(g15
g6
(g18
S'\xeb\xb8\xdf='
p2582
tp2583
Rp2584
tp2585
a(g84
g6
(g18
S'`/\xb8='
p2586
tp2587
Rp2588
tp2589
a(g32
g6
(g18
S'\x98iu='
p2590
tp2591
Rp2592
tp2593
asg73
g44
sa(dp2594
g2
S'../../../data/emanuela/activity-recognition/images/NTCIR-Lifelog-256/u1/2015-02-24/b00000000_21i6bq_20150224_064005e.jpg'
p2595
sg4
(lp2596
(g15
g6
(g18
S'C\x05\xb5>'
p2597
tp2598
Rp2599
tp2600
a(g44
g6
(g18
S'\x9a!\xaf>'
p2601
tp2602
Rp2603
tp2604
a(g32
g6
(g18
S'\x96\xc1{>'
p2605
tp2606
Rp2607
tp2608
a(g96
g6
(g18
S'\x08\xb2<<'
p2609
tp2610
Rp2611
tp2612
a(g163
g6
(g18
S'g\xc48<'
p2613
tp2614
Rp2615
tp2616
asg73
g44
sa(dp2617
g2
S'../../../data/emanuela/activity-recognition/images/NTCIR-Lifelog-256/u1/2015-03-17/b00001606_21i6bq_20150317_235500e.jpg'
p2618
sg4
(lp2619
(g163
g6
(g18
S'\xc0\xbf\xf0>'
p2620
tp2621
Rp2622
tp2623
a(g68
g6
(g18
S'\xaeM\x07>'
p2624
tp2625
Rp2626
tp2627
a(g84
g6
(g18
S'\xf3d\xba='
p2628
tp2629
Rp2630
tp2631
a(g15
g6
(g18
S'\x85\x0c{='
p2632
tp2633
Rp2634
tp2635
a(g186
g6
(g18
S'\xf5\xc1\x14='
p2636
tp2637
Rp2638
tp2639
asg73
g44
sa(dp2640
g2
S'../../../data/emanuela/activity-recognition/images/NTCIR-Lifelog-256/u1/2015-03-08/b00000918_21i6bq_20150308_192532e.jpg'
p2641
sg4
(lp2642
(g15
g6
(g18
S'\x8d+\xef>'
p2643
tp2644
Rp2645
tp2646
a(g44
g6
(g18
S'\x15\x8b\x02>'
p2647
tp2648
Rp2649
tp2650
a(g56
g6
(g18
S'R\xfe\xe8='
p2651
tp2652
Rp2653
tp2654
a(g32
g6
(g18
S'\x03\xf0\xc4='
p2655
tp2656
Rp2657
tp2658
a(g68
g6
(g18
S'\xb4&\xb2='
p2659
tp2660
Rp2661
tp2662
asg73
g44
sa(dp2663
g2
S'../../../data/emanuela/activity-recognition/images/NTCIR-Lifelog-256/u1/2015-03-17/b00001601_21i6bq_20150317_235116e.jpg'
p2664
sg4
(lp2665
(g15
g6
(g18
S'\x03%\x9d>'
p2666
tp2667
Rp2668
tp2669
a(g44
g6
(g18
S'\x89\xda?>'
p2670
tp2671
Rp2672
tp2673
a(g68
g6
(g18
S'\x198->'
p2674
tp2675
Rp2676
tp2677
a(g56
g6
(g18
S'\xa3@\\='
p2678
tp2679
Rp2680
tp2681
a(g96
g6
(g18
S'C\xac<='
p2682
tp2683
Rp2684
tp2685
asg73
g44
sa(dp2686
g2
S'../../../data/emanuela/activity-recognition/images/NTCIR-Lifelog-256/u1/2015-03-15/b00000746_21i6bq_20150315_145423e.jpg'
p2687
sg4
(lp2688
(g186
g6
(g18
S'\x91/\x03?'
p2689
tp2690
Rp2691
tp2692
a(g147
g6
(g18
S'\xe2fa>'
p2693
tp2694
Rp2695
tp2696
a(g56
g6
(g18
S'\x7f{\x02>'
p2697
tp2698
Rp2699
tp2700
a(g84
g6
(g18
S'\x18\x08A='
p2701
tp2702
Rp2703
tp2704
a(g68
g6
(g18
S'\xa3\x97\xd9<'
p2705
tp2706
Rp2707
tp2708
asg73
g44
sa(dp2709
g2
S'../../../data/emanuela/activity-recognition/images/NTCIR-Lifelog-256/u1/2015-03-10/b00000988_21i6bq_20150310_233359e.jpg'
p2710
sg4
(lp2711
(g96
g6
(g18
S'`\xdc\xdf>'
p2712
tp2713
Rp2714
tp2715
a(g44
g6
(g18
S'uo\x8c>'
p2716
tp2717
Rp2718
tp2719
a(g15
g6
(g18
S'n3,>'
p2720
tp2721
Rp2722
tp2723
a(g84
g6
(g18
S'\xeb\x11f='
p2724
tp2725
Rp2726
tp2727
a(g32
g6
(g18
S'\x1f\x86\x9c<'
p2728
tp2729
Rp2730
tp2731
asg73
g44
sa(dp2732
g2
S'../../../data/emanuela/activity-recognition/images/NTCIR-Lifelog-256/u1/2015-02-23/b00001160_21i6bq_20150223_192628e.jpg'
p2733
sg4
(lp2734
(g970
g6
(g18
S'\x82*A>'
p2735
tp2736
Rp2737
tp2738
a(g84
g6
(g18
S'd\xee\x11>'
p2739
tp2740
Rp2741
tp2742
a(g44
g6
(g18
S'U\x8c\xe0='
p2743
tp2744
Rp2745
tp2746
a(g306
g6
(g18
S'\xc3\x9a\xde='
p2747
tp2748
Rp2749
tp2750
a(g163
g6
(g18
S'\xf2Y\xdd='
p2751
tp2752
Rp2753
tp2754
asg73
g44
sa(dp2755
g2
S'../../../data/emanuela/activity-recognition/images/NTCIR-Lifelog-256/u1/2015-03-15/b00000706_21i6bq_20150315_143315e.jpg'
p2756
sg4
(lp2757
(g44
g6
(g18
S'\xea\xc2_?'
p2758
tp2759
Rp2760
tp2761
a(g15
g6
(g18
S'\x8a`\xfb<'
p2762
tp2763
Rp2764
tp2765
a(g32
g6
(g18
S'R\xac\xb0<'
p2766
tp2767
Rp2768
tp2769
a(g68
g6
(g18
S'\xd7:\xa8<'
p2770
tp2771
Rp2772
tp2773
a(g56
g6
(g18
S'\x9d&h<'
p2774
tp2775
Rp2776
tp2777
asg73
g44
sa(dp2778
g2
S'../../../data/emanuela/activity-recognition/images/NTCIR-Lifelog-256/u1/2015-03-01/b00000108_21i6bq_20150301_075702e.jpg'
p2779
sg4
(lp2780
(g96
g6
(g18
S'\xc3\xe6\xdf>'
p2781
tp2782
Rp2783
tp2784
a(g44
g6
(g18
S'QM\xc3>'
p2785
tp2786
Rp2787
tp2788
a(g15
g6
(g18
S'\x81\xa8\x9a='
p2789
tp2790
Rp2791
tp2792
a(g835
g6
(g18
S'\xbc\xe2Y='
p2793
tp2794
Rp2795
tp2796
a(g163
g6
(g18
S'~\xddv<'
p2797
tp2798
Rp2799
tp2800
asg73
g44
sa(dp2801
g2
S'../../../data/emanuela/activity-recognition/images/NTCIR-Lifelog-256/u1/2015-03-01/b00000528_21i6bq_20150301_120819e.jpg'
p2802
sg4
(lp2803
(g56
g6
(g18
S'\xb3%\xff>'
p2804
tp2805
Rp2806
tp2807
a(g15
g6
(g18
S'\x8b\x9dc>'
p2808
tp2809
Rp2810
tp2811
a(g44
g6
(g18
S'\x83\x0c\xe5='
p2812
tp2813
Rp2814
tp2815
a(g68
g6
(g18
S'K\x8b\xd2='
p2816
tp2817
Rp2818
tp2819
a(g32
g6
(g18
S'9v\x9d<'
p2820
tp2821
Rp2822
tp2823
asg73
g44
sa(dp2824
g2
S'../../../data/emanuela/activity-recognition/images/NTCIR-Lifelog-256/u1/2015-03-18/b00001270_21i6bq_20150318_221413e.jpg'
p2825
sg4
(lp2826
(g44
g6
(g18
S'\x92\xf9\xb0>'
p2827
tp2828
Rp2829
tp2830
a(g15
g6
(g18
S'\x153k>'
p2831
tp2832
Rp2833
tp2834
a(g84
g6
(g18
S'\x12\r\xf0='
p2835
tp2836
Rp2837
tp2838
a(g147
g6
(g18
S'\ns\xaa='
p2839
tp2840
Rp2841
tp2842
a(g96
g6
(g18
S'\xb6`\x9e='
p2843
tp2844
Rp2845
tp2846
asg73
g44
sa(dp2847
g2
S'../../../data/emanuela/activity-recognition/images/NTCIR-Lifelog-256/u1/2015-03-08/b00000917_21i6bq_20150308_192500e.jpg'
p2848
sg4
(lp2849
(g44
g6
(g18
S'SS\xfc>'
p2850
tp2851
Rp2852
tp2853
a(g15
g6
(g18
S'J\x91\x8b>'
p2854
tp2855
Rp2856
tp2857
a(g96
g6
(g18
S'vU\x05>'
p2858
tp2859
Rp2860
tp2861
a(g32
g6
(g18
S'=\xe9\x1e='
p2862
tp2863
Rp2864
tp2865
a(g84
g6
(g18
S')@\xbb<'
p2866
tp2867
Rp2868
tp2869
asg73
g44
sa(dp2870
g2
S'../../../data/emanuela/activity-recognition/images/NTCIR-Lifelog-256/u1/2015-03-16/b00003363_21i6bq_20150316_233058e.jpg'
p2871
sg4
(lp2872
(g32
g6
(g18
S'J\x15"?'
p2873
tp2874
Rp2875
tp2876
a(g15
g6
(g18
S'\xf0\x86\x1b>'
p2877
tp2878
Rp2879
tp2880
a(g44
g6
(g18
S'\xce\xef\xf3='
p2881
tp2882
Rp2883
tp2884
a(g68
g6
(g18
S'\xe0\xa7\xb5<'
p2885
tp2886
Rp2887
tp2888
a(g96
g6
(g18
S'\xe1j\x8a<'
p2889
tp2890
Rp2891
tp2892
asg73
g44
sa(dp2893
g2
S'../../../data/emanuela/activity-recognition/images/NTCIR-Lifelog-256/u1/2015-03-17/b00000273_21i6bq_20150317_111554e.jpg'
p2894
sg4
(lp2895
(g32
g6
(g18
S'b\n\xa0>'
p2896
tp2897
Rp2898
tp2899
a(g56
g6
(g18
S'\xf7\xd0p>'
p2900
tp2901
Rp2902
tp2903
a(g186
g6
(g18
S'\x8b\x91\x0b>'
p2904
tp2905
Rp2906
tp2907
a(g84
g6
(g18
S'++\x8a='
p2908
tp2909
Rp2910
tp2911
a(g15
g6
(g18
S'\x91ex='
p2912
tp2913
Rp2914
tp2915
asg73
g44
sa(dp2916
g2
S'../../../data/emanuela/activity-recognition/images/NTCIR-Lifelog-256/u1/2015-03-02/b00000036_21i6bq_20150302_065423e.jpg'
p2917
sg4
(lp2918
(g186
g6
(g18
S'\xe1&b?'
p2919
tp2920
Rp2921
tp2922
a(g147
g6
(g18
S'b`l='
p2923
tp2924
Rp2925
tp2926
a(g56
g6
(g18
S'\xf4\x8c\xd1<'
p2927
tp2928
Rp2929
tp2930
a(g44
g6
(g18
S'h\xdb\xc0<'
p2931
tp2932
Rp2933
tp2934
a(g84
g6
(g18
S'\xd6\x06m;'
p2935
tp2936
Rp2937
tp2938
asg73
g44
sa(dp2939
g2
S'../../../data/emanuela/activity-recognition/images/NTCIR-Lifelog-256/u1/2015-03-16/b00003361_21i6bq_20150316_232941e.jpg'
p2940
sg4
(lp2941
(g15
g6
(g18
S'\xb7:\x18?'
p2942
tp2943
Rp2944
tp2945
a(g32
g6
(g18
S'\xef\x94e>'
p2946
tp2947
Rp2948
tp2949
a(g68
g6
(g18
S'\xc6\x8e\xf8='
p2950
tp2951
Rp2952
tp2953
a(g56
g6
(g18
S'\xcc\xb8\x08='
p2954
tp2955
Rp2956
tp2957
a(g244
g6
(g18
S'\xaa\x95\xda;'
p2958
tp2959
Rp2960
tp2961
asg73
g44
sa(dp2962
g2
S'../../../data/emanuela/activity-recognition/images/NTCIR-Lifelog-256/u1/2015-03-14/b00000736_21i6bq_20150314_133327e.jpg'
p2963
sg4
(lp2964
(g15
g6
(g18
S'\xb5h\xd2>'
p2965
tp2966
Rp2967
tp2968
a(g84
g6
(g18
S'\x9eaB>'
p2969
tp2970
Rp2971
tp2972
a(g835
g6
(g18
S'\xb6\x805>'
p2973
tp2974
Rp2975
tp2976
a(g96
g6
(g18
S'\xc2XI='
p2977
tp2978
Rp2979
tp2980
a(g186
g6
(g18
S'T\xa4\x12='
p2981
tp2982
Rp2983
tp2984
asg73
g44
sa(dp2985
g2
S'../../../data/emanuela/activity-recognition/images/NTCIR-Lifelog-256/u1/2015-03-16/b00003359_21i6bq_20150316_232930e.jpg'
p2986
sg4
(lp2987
(g44
g6
(g18
S'-\xc7<?'
p2988
tp2989
Rp2990
tp2991
a(g96
g6
(g18
S'\xb9\x0f\x07>'
p2992
tp2993
Rp2994
tp2995
a(g15
g6
(g18
S'Od8='
p2996
tp2997
Rp2998
tp2999
a(g84
g6
(g18
S'nu\t='
p3000
tp3001
Rp3002
tp3003
a(g32
g6
(g18
S'<\xe1\xcd<'
p3004
tp3005
Rp3006
tp3007
asg73
g44
sa(dp3008
g2
S'../../../data/emanuela/activity-recognition/images/NTCIR-Lifelog-256/u1/2015-02-28/b00001258_21i6bq_20150228_204827e.jpg'
p3009
sg4
(lp3010
(g306
g6
(g18
S'\x9a\xfb\t?'
p3011
tp3012
Rp3013
tp3014
a(g32
g6
(g18
S'kr\x82>'
p3015
tp3016
Rp3017
tp3018
a(g15
g6
(g18
S'2\xe5\x1d='
p3019
tp3020
Rp3021
tp3022
a(g44
g6
(g18
S'C\x85\x1d='
p3023
tp3024
Rp3025
tp3026
a(g84
g6
(g18
S'D\xd1\t='
p3027
tp3028
Rp3029
tp3030
asg73
g44
sa(dp3031
g2
S'../../../data/emanuela/activity-recognition/images/NTCIR-Lifelog-256/u1/2015-03-01/b00000005_21i6bq_20150301_071722e.jpg'
p3032
sg4
(lp3033
(g32
g6
(g18
S'\xd5R)?'
p3034
tp3035
Rp3036
tp3037
a(g44
g6
(g18
S'\x8c\x9fJ>'
p3038
tp3039
Rp3040
tp3041
a(g96
g6
(g18
S'\xb8\n5='
p3042
tp3043
Rp3044
tp3045
a(g306
g6
(g18
S'\xaa\xa6\xe6<'
p3046
tp3047
Rp3048
tp3049
a(g84
g6
(g18
S'\x94b\x8c<'
p3050
tp3051
Rp3052
tp3053
asg73
g44
sa(dp3054
g2
S'../../../data/emanuela/activity-recognition/images/NTCIR-Lifelog-256/u1/2015-03-13/b00000120_21i6bq_20150313_065452e.jpg'
p3055
sg4
(lp3056
(g306
g6
(g18
S'\xe4\x07\xba>'
p3057
tp3058
Rp3059
tp3060
a(g44
g6
(g18
S'\xe2\xc36>'
p3061
tp3062
Rp3063
tp3064
a(g96
g6
(g18
S'\x19\x8b&>'
p3065
tp3066
Rp3067
tp3068
a(g15
g6
(g18
S'8\xe0\xa6='
p3069
tp3070
Rp3071
tp3072
a(g84
g6
(g18
S'\x94Vu='
p3073
tp3074
Rp3075
tp3076
asg73
g44
sa(dp3077
g2
S'../../../data/emanuela/activity-recognition/images/NTCIR-Lifelog-256/u1/2015-02-24/b00000008_21i6bq_20150224_064511e.jpg'
p3078
sg4
(lp3079
(g306
g6
(g18
S'o^\x8b>'
p3080
tp3081
Rp3082
tp3083
a(g84
g6
(g18
S'\x85|]>'
p3084
tp3085
Rp3086
tp3087
a(g15
g6
(g18
S'\xc1\xa4\xff='
p3088
tp3089
Rp3090
tp3091
a(g68
g6
(g18
S'D\xf5\xc5='
p3092
tp3093
Rp3094
tp3095
a(g286
g6
(g18
S'Nir='
p3096
tp3097
Rp3098
tp3099
asg73
g44
sa(dp3100
g2
S'../../../data/emanuela/activity-recognition/images/NTCIR-Lifelog-256/u1/2015-02-28/b00001250_21i6bq_20150228_204230e.jpg'
p3101
sg4
(lp3102
(g244
g6
(g18
S'\xf9O\x9c>'
p3103
tp3104
Rp3105
tp3106
a(g186
g6
(g18
S'\xa8E&>'
p3107
tp3108
Rp3109
tp3110
a(g32
g6
(g18
S'z\xb0\x1c>'
p3111
tp3112
Rp3113
tp3114
a(g15
g6
(g18
S'\x81\x85\xbf='
p3115
tp3116
Rp3117
tp3118
a(g84
g6
(g18
S'f\xc1U='
p3119
tp3120
Rp3121
tp3122
asg73
g44
sa(dp3123
g2
S'../../../data/emanuela/activity-recognition/images/NTCIR-Lifelog-256/u1/2015-03-01/b00000110_21i6bq_20150301_075704e.jpg'
p3124
sg4
(lp3125
(g163
g6
(g18
S'R\xb8\xd4>'
p3126
tp3127
Rp3128
tp3129
a(g32
g6
(g18
S'\xe3i/>'
p3130
tp3131
Rp3132
tp3133
a(g84
g6
(g18
S'\xae\x83\x0c>'
p3134
tp3135
Rp3136
tp3137
a(g15
g6
(g18
S'/e\xa5='
p3138
tp3139
Rp3140
tp3141
a(g244
g6
(g18
S'`c\x7f='
p3142
tp3143
Rp3144
tp3145
asg73
g44
sa(dp3146
g2
S'../../../data/emanuela/activity-recognition/images/NTCIR-Lifelog-256/u1/2015-02-25/b00001269_21i6bq_20150225_192132e.jpg'
p3147
sg4
(lp3148
(g44
g6
(g18
S'C\xa3\xbd>'
p3149
tp3150
Rp3151
tp3152
a(g84
g6
(g18
S'\xd9@\x9e>'
p3153
tp3154
Rp3155
tp3156
a(g96
g6
(g18
S'\xc2=?>'
p3157
tp3158
Rp3159
tp3160
a(g186
g6
(g18
S'\x91\xe3c='
p3161
tp3162
Rp3163
tp3164
a(g147
g6
(g18
S'\x95\x94\x01='
p3165
tp3166
Rp3167
tp3168
asg73
g44
sa(dp3169
g2
S'../../../data/emanuela/activity-recognition/images/NTCIR-Lifelog-256/u1/2015-03-01/b00000601_21i6bq_20150301_125606e.jpg'
p3170
sg4
(lp3171
(g15
g6
(g18
S';gd>'
p3172
tp3173
Rp3174
tp3175
a(g84
g6
(g18
S'\xae\xdaB>'
p3176
tp3177
Rp3178
tp3179
a(g56
g6
(g18
S'\xc5\xf2\xf4='
p3180
tp3181
Rp3182
tp3183
a(g135
g6
(g18
S'J\xa2\xbd='
p3184
tp3185
Rp3186
tp3187
a(g68
g6
(g18
S'\xca/\x99='
p3188
tp3189
Rp3190
tp3191
asg73
g44
sa(dp3192
g2
S'../../../data/emanuela/activity-recognition/images/NTCIR-Lifelog-256/u1/2015-03-05/b00001342_21i6bq_20150305_213621e.jpg'
p3193
sg4
(lp3194
(g15
g6
(g18
S'O\xbe#?'
p3195
tp3196
Rp3197
tp3198
a(g44
g6
(g18
S'\x14\xe0X>'
p3199
tp3200
Rp3201
tp3202
a(g32
g6
(g18
S'{]\xbd='
p3203
tp3204
Rp3205
tp3206
a(g96
g6
(g18
S'$>\x08='
p3207
tp3208
Rp3209
tp3210
a(g306
g6
(g18
S'\x8e%\n<'
p3211
tp3212
Rp3213
tp3214
asg73
g44
sa(dp3215
g2
S'../../../data/emanuela/activity-recognition/images/NTCIR-Lifelog-256/u1/2015-02-23/b00001231_21i6bq_20150223_202447e.jpg'
p3216
sg4
(lp3217
(g44
g6
(g18
S'\xf5I\x84>'
p3218
tp3219
Rp3220
tp3221
a(g306
g6
(g18
S'\x9e\x81>>'
p3222
tp3223
Rp3224
tp3225
a(g286
g6
(g18
S'\xad\xa1(>'
p3226
tp3227
Rp3228
tp3229
a(g84
g6
(g18
S'\xa2&!>'
p3230
tp3231
Rp3232
tp3233
a(g96
g6
(g18
S'\x96\x83\xab='
p3234
tp3235
Rp3236
tp3237
asg73
g44
sa(dp3238
g2
S'../../../data/emanuela/activity-recognition/images/NTCIR-Lifelog-256/u1/2015-03-10/b00001516_21i6bq_20150310_062739e.jpg'
p3239
sg4
(lp3240
(g44
g6
(g18
S'K-\xf0>'
p3241
tp3242
Rp3243
tp3244
a(g96
g6
(g18
S'p\xc33>'
p3245
tp3246
Rp3247
tp3248
a(g15
g6
(g18
S'^\xed\n>'
p3249
tp3250
Rp3251
tp3252
a(g32
g6
(g18
S'Fk\xab='
p3253
tp3254
Rp3255
tp3256
a(g163
g6
(g18
S'\xc8\x9f\x81='
p3257
tp3258
Rp3259
tp3260
asg73
g44
sa(dp3261
g2
S'../../../data/emanuela/activity-recognition/images/NTCIR-Lifelog-256/u1/2015-03-15/b00000001_21i6bq_20150315_074811e.jpg'
p3262
sg4
(lp3263
(g44
g6
(g18
S'F\x1cc?'
p3264
tp3265
Rp3266
tp3267
a(g68
g6
(g18
S"'V\xc3<"
p3268
tp3269
Rp3270
tp3271
a(g2098
g6
(g18
S'\xaf&\x87<'
p3272
tp3273
Rp3274
tp3275
a(g2274
g6
(g18
S'\xdfqr<'
p3276
tp3277
Rp3278
tp3279
a(g84
g6
(g18
S'\x00xY<'
p3280
tp3281
Rp3282
tp3283
asg73
g44
sa(dp3284
g2
S'../../../data/emanuela/activity-recognition/images/NTCIR-Lifelog-256/u1/2015-03-13/b00000114_21i6bq_20150313_065020e.jpg'
p3285
sg4
(lp3286
(g44
g6
(g18
S'\x82\xac\x15?'
p3287
tp3288
Rp3289
tp3290
a(g15
g6
(g18
S',W\x96>'
p3291
tp3292
Rp3293
tp3294
a(g96
g6
(g18
S'\x9fWl='
p3295
tp3296
Rp3297
tp3298
a(g2098
g6
(g18
S'K<N<'
p3299
tp3300
Rp3301
tp3302
a(g84
g6
(g18
S'\x88\x069<'
p3303
tp3304
Rp3305
tp3306
asg73
g44
sa(dp3307
g2
S'../../../data/emanuela/activity-recognition/images/NTCIR-Lifelog-256/u1/2015-03-01/b00000249_21i6bq_20150301_092146e.jpg'
p3308
sg4
(lp3309
(g15
g6
(g18
S'\x9aU\xa0>'
p3310
tp3311
Rp3312
tp3313
a(g44
g6
(g18
S'mK\x96>'
p3314
tp3315
Rp3316
tp3317
a(g32
g6
(g18
S'\x9cp`>'
p3318
tp3319
Rp3320
tp3321
a(g68
g6
(g18
S'!(9='
p3322
tp3323
Rp3324
tp3325
a(g163
g6
(g18
S'\xa8\x8d\xc3<'
p3326
tp3327
Rp3328
tp3329
asg73
g44
sa(dp3330
g2
S'../../../data/emanuela/activity-recognition/images/NTCIR-Lifelog-256/u1/2015-03-15/b00000017_21i6bq_20150315_075319e.jpg'
p3331
sg4
(lp3332
(g44
g6
(g18
S'L`\x9f>'
p3333
tp3334
Rp3335
tp3336
a(g186
g6
(g18
S'\x9c\xd0\x88>'
p3337
tp3338
Rp3339
tp3340
a(g147
g6
(g18
S'\x94\xdb;>'
p3341
tp3342
Rp3343
tp3344
a(g84
g6
(g18
S'\xa9\xa5">'
p3345
tp3346
Rp3347
tp3348
a(g15
g6
(g18
S' @\x08='
p3349
tp3350
Rp3351
tp3352
asg73
g44
sa(dp3353
g2
S'../../../data/emanuela/activity-recognition/images/NTCIR-Lifelog-256/u1/2015-03-08/b00000922_21i6bq_20150308_192752e.jpg'
p3354
sg4
(lp3355
(g32
g6
(g18
S'C\x1d\x81>'
p3356
tp3357
Rp3358
tp3359
a(g56
g6
(g18
S'\xec\xac:>'
p3360
tp3361
Rp3362
tp3363
a(g15
g6
(g18
S'b\x953>'
p3364
tp3365
Rp3366
tp3367
a(g44
g6
(g18
S'j\xa8\xd0='
p3368
tp3369
Rp3370
tp3371
a(g68
g6
(g18
S'\x8c\x8c\x9a='
p3372
tp3373
Rp3374
tp3375
asg73
g44
sa(dp3376
g2
S'../../../data/emanuela/activity-recognition/images/NTCIR-Lifelog-256/u1/2015-03-08/b00000944_21i6bq_20150308_194116e.jpg'
p3377
sg4
(lp3378
(g32
g6
(g18
S'\xb2\xfe\x0b?'
p3379
tp3380
Rp3381
tp3382
a(g68
g6
(g18
S'\x98hX>'
p3383
tp3384
Rp3385
tp3386
a(g15
g6
(g18
S'\xc0\xfe\xa2='
p3387
tp3388
Rp3389
tp3390
a(g56
g6
(g18
S'u\x8f\r='
p3391
tp3392
Rp3393
tp3394
a(g44
g6
(g18
S'B\xcd\n='
p3395
tp3396
Rp3397
tp3398
asg73
g44
sa(dp3399
g2
S'../../../data/emanuela/activity-recognition/images/NTCIR-Lifelog-256/u1/2015-03-12/b00000000_21i6bq_20150312_071634e.jpg'
p3400
sg4
(lp3401
(g44
g6
(g18
S'I\xfcl?'
p3402
tp3403
Rp3404
tp3405
a(g96
g6
(g18
S'A\x10\xe0<'
p3406
tp3407
Rp3408
tp3409
a(g15
g6
(g18
S'\xa5#\xa1<'
p3410
tp3411
Rp3412
tp3413
a(g147
g6
(g18
S'\x14[\xe8;'
p3414
tp3415
Rp3416
tp3417
a(g68
g6
(g18
S'J\x7f\xa7;'
p3418
tp3419
Rp3420
tp3421
asg73
g44
sa(dp3422
g2
S'../../../data/emanuela/activity-recognition/images/NTCIR-Lifelog-256/u1/2015-03-04/b00000104_21i6bq_20150304_074513e.jpg'
p3423
sg4
(lp3424
(g186
g6
(g18
S'{\xd9\x0c?'
p3425
tp3426
Rp3427
tp3428
a(g56
g6
(g18
S'Y\xea\x11>'
p3429
tp3430
Rp3431
tp3432
a(g84
g6
(g18
S'\xf1\x8f\xd3='
p3433
tp3434
Rp3435
tp3436
a(g147
g6
(g18
S'\xda|\xcb='
p3437
tp3438
Rp3439
tp3440
a(g15
g6
(g18
S'b\xd8\xf7<'
p3441
tp3442
Rp3443
tp3444
asg73
g44
sa(dp3445
g2
S'../../../data/emanuela/activity-recognition/images/NTCIR-Lifelog-256/u1/2015-03-05/b00001341_21i6bq_20150305_213547e.jpg'
p3446
sg4
(lp3447
(g306
g6
(g18
S'\x96.5>'
p3448
tp3449
Rp3450
tp3451
a(g84
g6
(g18
S'\xbb\x1c\x08>'
p3452
tp3453
Rp3454
tp3455
a(g286
g6
(g18
S'0o\xe9='
p3456
tp3457
Rp3458
tp3459
a(g186
g6
(g18
S'g\x8d\xe4='
p3460
tp3461
Rp3462
tp3463
a(g15
g6
(g18
S'\x17\xa8\xdd='
p3464
tp3465
Rp3466
tp3467
asg73
g44
sa(dp3468
g2
S'../../../data/emanuela/activity-recognition/images/NTCIR-Lifelog-256/u1/2015-03-15/b00000748_21i6bq_20150315_145533e.jpg'
p3469
sg4
(lp3470
(g96
g6
(g18
S'\xd2\x80\x84>'
p3471
tp3472
Rp3473
tp3474
a(g32
g6
(g18
S'\x8b\x06#>'
p3475
tp3476
Rp3477
tp3478
a(g15
g6
(g18
S'\xfe\xb9\x18>'
p3479
tp3480
Rp3481
tp3482
a(g186
g6
(g18
S'\xc7\x9b\xcf='
p3483
tp3484
Rp3485
tp3486
a(g44
g6
(g18
S'\xc0\xae\x9e='
p3487
tp3488
Rp3489
tp3490
asg73
g44
sa(dp3491
g2
S'../../../data/emanuela/activity-recognition/images/NTCIR-Lifelog-256/u1/2015-02-28/b00001260_21i6bq_20150228_204828e.jpg'
p3492
sg4
(lp3493
(g15
g6
(g18
S'\xec]\x97>'
p3494
tp3495
Rp3496
tp3497
a(g306
g6
(g18
S'\x15\xd56>'
p3498
tp3499
Rp3500
tp3501
a(g44
g6
(g18
S'\nN\xb7='
p3502
tp3503
Rp3504
tp3505
a(g84
g6
(g18
S'+\x8e\x9d='
p3506
tp3507
Rp3508
tp3509
a(g32
g6
(g18
S'(\x1e\x95='
p3510
tp3511
Rp3512
tp3513
asg73
g44
sa(dp3514
g2
S'../../../data/emanuela/activity-recognition/images/NTCIR-Lifelog-256/u1/2015-03-01/b00000112_21i6bq_20150301_075743e.jpg'
p3515
sg4
(lp3516
(g44
g6
(g18
S'\xa8\xa3\x1b?'
p3517
tp3518
Rp3519
tp3520
a(g84
g6
(g18
S'\xc1}\xc8='
p3521
tp3522
Rp3523
tp3524
a(g306
g6
(g18
S'\xe6P\xb5='
p3525
tp3526
Rp3527
tp3528
a(g15
g6
(g18
S'\xc5\xb3\xa2='
p3529
tp3530
Rp3531
tp3532
a(g96
g6
(g18
S'<\xccd='
p3533
tp3534
Rp3535
tp3536
asg73
g44
sa(dp3537
g2
S'../../../data/emanuela/activity-recognition/images/NTCIR-Lifelog-256/u1/2015-03-18/b00000036_21i6bq_20150318_075613e.jpg'
p3538
sg4
(lp3539
(g44
g6
(g18
S'\xc1\xfex?'
p3540
tp3541
Rp3542
tp3543
a(g96
g6
(g18
S'\x16\x10\xeb;'
p3544
tp3545
Rp3546
tp3547
a(g2098
g6
(g18
S'9\n\x94;'
p3548
tp3549
Rp3550
tp3551
a(g2274
g6
(g18
S'_Uz;'
p3552
tp3553
Rp3554
tp3555
a(g84
g6
(g18
S'9E ;'
p3556
tp3557
Rp3558
tp3559
asg73
g44
sa(dp3560
g2
S'../../../data/emanuela/activity-recognition/images/NTCIR-Lifelog-256/u1/2015-02-23/b00001270_21i6bq_20150223_204808e.jpg'
p3561
sg4
(lp3562
(g15
g6
(g18
S'* \r?'
p3563
tp3564
Rp3565
tp3566
a(g44
g6
(g18
S'6\xa3@>'
p3567
tp3568
Rp3569
tp3570
a(g147
g6
(g18
S'\\\x9f\x9b='
p3571
tp3572
Rp3573
tp3574
a(g244
g6
(g18
S'y\xb1Y='
p3575
tp3576
Rp3577
tp3578
a(g84
g6
(g18
S'>\xc5\x11='
p3579
tp3580
Rp3581
tp3582
asg73
g44
sa(dp3583
g2
S'../../../data/emanuela/activity-recognition/images/NTCIR-Lifelog-256/u1/2015-03-01/b00000017_21i6bq_20150301_071936e.jpg'
p3584
sg4
(lp3585
(g44
g6
(g18
S'G-8?'
p3586
tp3587
Rp3588
tp3589
a(g15
g6
(g18
S'\xf5{$>'
p3590
tp3591
Rp3592
tp3593
a(g96
g6
(g18
S'\xfa\xd16='
p3594
tp3595
Rp3596
tp3597
a(g68
g6
(g18
S'\x8c\xf8\xb0<'
p3598
tp3599
Rp3600
tp3601
a(g163
g6
(g18
S'\\\xb1\x9a<'
p3602
tp3603
Rp3604
tp3605
asg73
g44
sa(dp3606
g2
S'../../../data/emanuela/activity-recognition/images/NTCIR-Lifelog-256/u1/2015-03-15/b00000128_21i6bq_20150315_085811e.jpg'
p3607
sg4
(lp3608
(g44
g6
(g18
S'/q4?'
p3609
tp3610
Rp3611
tp3612
a(g84
g6
(g18
S'\xca\xc9\xec='
p3613
tp3614
Rp3615
tp3616
a(g186
g6
(g18
S'\xbcg\xbf='
p3617
tp3618
Rp3619
tp3620
a(g147
g6
(g18
S'\x07|\xdd<'
p3621
tp3622
Rp3623
tp3624
a(g56
g6
(g18
S'a\xb3h<'
p3625
tp3626
Rp3627
tp3628
asg73
g44
sa(dp3629
g2
S'../../../data/emanuela/activity-recognition/images/NTCIR-Lifelog-256/u1/2015-03-18/b00001284_21i6bq_20150318_222352e.jpg'
p3630
sg4
(lp3631
(g44
g6
(g18
S'}Z>?'
p3632
tp3633
Rp3634
tp3635
a(g96
g6
(g18
S'\xe5\x89\x05>'
p3636
tp3637
Rp3638
tp3639
a(g186
g6
(g18
S'E\xe8\x04='
p3640
tp3641
Rp3642
tp3643
a(g15
g6
(g18
S'%y\x03='
p3644
tp3645
Rp3646
tp3647
a(g84
g6
(g18
S'\xf7]\xc2<'
p3648
tp3649
Rp3650
tp3651
asg73
g44
sa(dp3652
g2
S'../../../data/emanuela/activity-recognition/images/NTCIR-Lifelog-256/u1/2015-02-25/b00000043_21i6bq_20150225_061657e.jpg'
p3653
sg4
(lp3654
(g44
g6
(g18
S'\xf70\xd3>'
p3655
tp3656
Rp3657
tp3658
a(g15
g6
(g18
S'\xfa\x99\x97>'
p3659
tp3660
Rp3661
tp3662
a(g32
g6
(g18
S'\xb8\xf6\x0b>'
p3663
tp3664
Rp3665
tp3666
a(g244
g6
(g18
S'*\n\xf6<'
p3667
tp3668
Rp3669
tp3670
a(g68
g6
(g18
S'\xf1\xff\xd3<'
p3671
tp3672
Rp3673
tp3674
asg73
g44
sa(dp3675
g2
S'../../../data/emanuela/activity-recognition/images/NTCIR-Lifelog-256/u1/2015-03-12/b00001291_21i6bq_20150312_222601e.jpg'
p3676
sg4
(lp3677
(g44
g6
(g18
S'\x9f\x0b\x04?'
p3678
tp3679
Rp3680
tp3681
a(g15
g6
(g18
S'\x96(C>'
p3682
tp3683
Rp3684
tp3685
a(g96
g6
(g18
S'j`\x16>'
p3686
tp3687
Rp3688
tp3689
a(g84
g6
(g18
S'\xf7\x81\x1d='
p3690
tp3691
Rp3692
tp3693
a(g32
g6
(g18
S'\x9b\xad\xc8<'
p3694
tp3695
Rp3696
tp3697
asg73
g44
sa(dp3698
g2
S'../../../data/emanuela/activity-recognition/images/NTCIR-Lifelog-256/u1/2015-02-24/b00000050_21i6bq_20150224_071030e.jpg'
p3699
sg4
(lp3700
(g56
g6
(g18
S'\x02\x80\xd0>'
p3701
tp3702
Rp3703
tp3704
a(g15
g6
(g18
S'\xb7u\x14>'
p3705
tp3706
Rp3707
tp3708
a(g44
g6
(g18
S'\xa9y\xe7='
p3709
tp3710
Rp3711
tp3712
a(g68
g6
(g18
S']V\xcc='
p3713
tp3714
Rp3715
tp3716
a(g32
g6
(g18
S'\x08\xf3\xc7='
p3717
tp3718
Rp3719
tp3720
asg73
g44
sa(dp3721
g2
S'../../../data/emanuela/activity-recognition/images/NTCIR-Lifelog-256/u1/2015-03-18/b00001309_21i6bq_20150318_224015e.jpg'
p3722
sg4
(lp3723
(g84
g6
(g18
S'=7\xa8>'
p3724
tp3725
Rp3726
tp3727
a(g306
g6
(g18
S'\\\x1eH>'
p3728
tp3729
Rp3730
tp3731
a(g68
g6
(g18
S'\xa1\x13+>'
p3732
tp3733
Rp3734
tp3735
a(g135
g6
(g18
S'\xb2Q\x81='
p3736
tp3737
Rp3738
tp3739
a(g15
g6
(g18
S'<\x127='
p3740
tp3741
Rp3742
tp3743
asg73
g44
sa(dp3744
g2
S'../../../data/emanuela/activity-recognition/images/NTCIR-Lifelog-256/u1/2015-03-11/b00001385_21i6bq_20150311_225345e.jpg'
p3745
sg4
(lp3746
(g186
g6
(g18
S'a\x8a\xef>'
p3747
tp3748
Rp3749
tp3750
a(g84
g6
(g18
S'39q>'
p3751
tp3752
Rp3753
tp3754
a(g147
g6
(g18
S'\x91e\t>'
p3755
tp3756
Rp3757
tp3758
a(g44
g6
(g18
S'\x1b\xd8\xaf='
p3759
tp3760
Rp3761
tp3762
a(g56
g6
(g18
S'h\x03\n='
p3763
tp3764
Rp3765
tp3766
asg73
g44
sa(dp3767
g2
S'../../../data/emanuela/activity-recognition/images/NTCIR-Lifelog-256/u1/2015-02-25/b00000016_21i6bq_20150225_055935e.jpg'
p3768
sg4
(lp3769
(g84
g6
(g18
S'\x83\x12\xc3>'
p3770
tp3771
Rp3772
tp3773
a(g44
g6
(g18
S'\xf1w\xab>'
p3774
tp3775
Rp3776
tp3777
a(g96
g6
(g18
S'\x80Y3>'
p3778
tp3779
Rp3780
tp3781
a(g15
g6
(g18
S'/\x05\xd1<'
p3782
tp3783
Rp3784
tp3785
a(g186
g6
(g18
S'\x81\xc9\xc7<'
p3786
tp3787
Rp3788
tp3789
asg73
g44
sa(dp3790
g2
S'../../../data/emanuela/activity-recognition/images/NTCIR-Lifelog-256/u1/2015-03-15/b00000015_21i6bq_20150315_075233e.jpg'
p3791
sg4
(lp3792
(g44
g6
(g18
S'\x8b\x0b\xe7>'
p3793
tp3794
Rp3795
tp3796
a(g147
g6
(g18
S'g\xae\xbc>'
p3797
tp3798
Rp3799
tp3800
a(g186
g6
(g18
S'\xbbn\x80='
p3801
tp3802
Rp3803
tp3804
a(g84
g6
(g18
S'\xe8G|='
p3805
tp3806
Rp3807
tp3808
a(g96
g6
(g18
S'Z\x97\x04='
p3809
tp3810
Rp3811
tp3812
asg73
g44
sa(dp3813
g2
S'../../../data/emanuela/activity-recognition/images/NTCIR-Lifelog-256/u1/2015-02-28/b00001259_21i6bq_20150228_204828e.jpg'
p3814
sg4
(lp3815
(g32
g6
(g18
S'%M\xed>'
p3816
tp3817
Rp3818
tp3819
a(g306
g6
(g18
S'i\xde\xb5>'
p3820
tp3821
Rp3822
tp3823
a(g44
g6
(g18
S't\xbbf='
p3824
tp3825
Rp3826
tp3827
a(g15
g6
(g18
S'7\x11\xcf<'
p3828
tp3829
Rp3830
tp3831
a(g84
g6
(g18
S'-\xfa\x9c<'
p3832
tp3833
Rp3834
tp3835
asg73
g44
sa(dp3836
g2
S'../../../data/emanuela/activity-recognition/images/NTCIR-Lifelog-256/u1/2015-03-14/b00000737_21i6bq_20150314_133327e.jpg'
p3837
sg4
(lp3838
(g15
g6
(g18
S'\xd6I\xb1>'
p3839
tp3840
Rp3841
tp3842
a(g84
g6
(g18
S'\xb2\x0fU>'
p3843
tp3844
Rp3845
tp3846
a(g44
g6
(g18
S'R\xa2\xcb='
p3847
tp3848
Rp3849
tp3850
a(g96
g6
(g18
S"\xa2'\xb1="
p3851
tp3852
Rp3853
tp3854
a(g835
g6
(g18
S'\xe3\xe7\xa2='
p3855
tp3856
Rp3857
tp3858
asg73
g44
sa(dp3859
g2
S'../../../data/emanuela/activity-recognition/images/NTCIR-Lifelog-256/u1/2015-03-01/b00000107_21i6bq_20150301_075701e.jpg'
p3860
sg4
(lp3861
(g96
g6
(g18
S'\xc3\x19\xc4>'
p3862
tp3863
Rp3864
tp3865
a(g44
g6
(g18
S'\x12\xc6d>'
p3866
tp3867
Rp3868
tp3869
a(g15
g6
(g18
S'\x8aM\xcb='
p3870
tp3871
Rp3872
tp3873
a(g32
g6
(g18
S'\xcf\x08\x9b='
p3874
tp3875
Rp3876
tp3877
a(g84
g6
(g18
S'\xa5;\x8e='
p3878
tp3879
Rp3880
tp3881
asg73
g44
sa(dp3882
g2
S'../../../data/emanuela/activity-recognition/images/NTCIR-Lifelog-256/u1/2015-03-09/b00001282_21i6bq_20150309_202534e.jpg'
p3883
sg4
(lp3884
(g15
g6
(g18
S'\x1bk\x90>'
p3885
tp3886
Rp3887
tp3888
a(g96
g6
(g18
S'5\x96B>'
p3889
tp3890
Rp3891
tp3892
a(g68
g6
(g18
S'&\xc9\x14>'
p3893
tp3894
Rp3895
tp3896
a(g32
g6
(g18
S'l\xf4\xe4='
p3897
tp3898
Rp3899
tp3900
a(g163
g6
(g18
S'k\x9e\xdf='
p3901
tp3902
Rp3903
tp3904
asg73
g44
sa(dp3905
g2
S'../../../data/emanuela/activity-recognition/images/NTCIR-Lifelog-256/u1/2015-03-09/b00001354_21i6bq_20150309_210730e.jpg'
p3906
sg4
(lp3907
(g116
g6
(g18
S'y\xb21?'
p3908
tp3909
Rp3910
tp3911
a(g84
g6
(g18
S'\xd3\xc6\xc7='
p3912
tp3913
Rp3914
tp3915
a(g163
g6
(g18
S'\xc7\x05a='
p3916
tp3917
Rp3918
tp3919
a(g1304
g6
(g18
S'\xde.\x12='
p3920
tp3921
Rp3922
tp3923
a(g56
g6
(g18
S'\x89\xd8\xfe<'
p3924
tp3925
Rp3926
tp3927
asg73
g44
sa(dp3928
g2
S'../../../data/emanuela/activity-recognition/images/NTCIR-Lifelog-256/u1/2015-03-05/b00001344_21i6bq_20150305_213738e.jpg'
p3929
sg4
(lp3930
(g44
g6
(g18
S'\xf9\xe6h?'
p3931
tp3932
Rp3933
tp3934
a(g96
g6
(g18
S'?\xbe\xa8<'
p3935
tp3936
Rp3937
tp3938
a(g84
g6
(g18
S'\xf8W\x8d<'
p3939
tp3940
Rp3941
tp3942
a(g15
g6
(g18
S'\xec>N<'
p3943
tp3944
Rp3945
tp3946
a(g244
g6
(g18
S'\xa2\x9a8<'
p3947
tp3948
Rp3949
tp3950
asg73
g44
sa(dp3951
g2
S'../../../data/emanuela/activity-recognition/images/NTCIR-Lifelog-256/u1/2015-03-01/b00000113_21i6bq_20150301_075821e.jpg'
p3952
sg4
(lp3953
(g96
g6
(g18
S'ZZ\xc3>'
p3954
tp3955
Rp3956
tp3957
a(g44
g6
(g18
S'b.\xbb>'
p3958
tp3959
Rp3960
tp3961
a(g84
g6
(g18
S'\x80\x85">'
p3962
tp3963
Rp3964
tp3965
a(g15
g6
(g18
S'FP\x0b='
p3966
tp3967
Rp3968
tp3969
a(g186
g6
(g18
S'\xe6\xa0\x81<'
p3970
tp3971
Rp3972
tp3973
asg73
g44
sa(dp3974
g2
S'../../../data/emanuela/activity-recognition/images/NTCIR-Lifelog-256/u1/2015-03-04/b00000087_21i6bq_20150304_073156e.jpg'
p3975
sg4
(lp3976
(g44
g6
(g18
S'\xba%\xa9>'
p3977
tp3978
Rp3979
tp3980
a(g96
g6
(g18
S'\xb5\xfe1>'
p3981
tp3982
Rp3983
tp3984
a(g15
g6
(g18
S'\xca\xb8\x0c>'
p3985
tp3986
Rp3987
tp3988
a(g186
g6
(g18
S'6x\x08>'
p3989
tp3990
Rp3991
tp3992
a(g147
g6
(g18
S'P\xcb\x9e='
p3993
tp3994
Rp3995
tp3996
asg73
g44
sa(dp3997
g2
S'../../../data/emanuela/activity-recognition/images/NTCIR-Lifelog-256/u1/2015-03-01/b00000613_21i6bq_20150301_130421e.jpg'
p3998
sg4
(lp3999
(g32
g6
(g18
S'"e\xd3>'
p4000
tp4001
Rp4002
tp4003
a(g44
g6
(g18
S'\x19\xf4\x0f>'
p4004
tp4005
Rp4006
tp4007
a(g68
g6
(g18
S'\x0ek\x0e>'
p4008
tp4009
Rp4010
tp4011
a(g84
g6
(g18
S'\xb9\x84\xec='
p4012
tp4013
Rp4014
tp4015
a(g1219
g6
(g18
S'\xf9\xeb\x0b='
p4016
tp4017
Rp4018
tp4019
asg73
g44
sa(dp4020
g2
S'../../../data/emanuela/activity-recognition/images/NTCIR-Lifelog-256/u1/2015-03-17/b00001605_21i6bq_20150317_235420e.jpg'
p4021
sg4
(lp4022
(g44
g6
(g18
S'h\xe8\xa0>'
p4023
tp4024
Rp4025
tp4026
a(g15
g6
(g18
S'\xfc\x94\x8c>'
p4027
tp4028
Rp4029
tp4030
a(g56
g6
(g18
S'\xcd\xac\xb6='
p4031
tp4032
Rp4033
tp4034
a(g96
g6
(g18
S'\xd6=\x8a='
p4035
tp4036
Rp4037
tp4038
a(g186
g6
(g18
S'>\x07\x84='
p4039
tp4040
Rp4041
tp4042
asg73
g44
sa(dp4043
g2
S'../../../data/emanuela/activity-recognition/images/NTCIR-Lifelog-256/u1/2015-03-18/b00001404_21i6bq_20150318_233900e.jpg'
p4044
sg4
(lp4045
(g186
g6
(g18
S'c\xfb\xce>'
p4046
tp4047
Rp4048
tp4049
a(g32
g6
(g18
S'\x1bY]>'
p4050
tp4051
Rp4052
tp4053
a(g44
g6
(g18
S'P\xaf\xbd='
p4054
tp4055
Rp4056
tp4057
a(g147
g6
(g18
S'\x81\xbf\x8f='
p4058
tp4059
Rp4060
tp4061
a(g244
g6
(g18
S'T\xe3\x8a='
p4062
tp4063
Rp4064
tp4065
asg73
g44
sa(dp4066
g2
S'../../../data/emanuela/activity-recognition/images/NTCIR-Lifelog-256/u1/2015-03-01/b00000602_21i6bq_20150301_125647e.jpg'
p4067
sg4
(lp4068
(g56
g6
(g18
S'\x0e\x16\x89>'
p4069
tp4070
Rp4071
tp4072
a(g84
g6
(g18
S')\xe2\x85>'
p4073
tp4074
Rp4075
tp4076
a(g186
g6
(g18
S'\xd6_7>'
p4077
tp4078
Rp4079
tp4080
a(g147
g6
(g18
S'\x96d\xf8='
p4081
tp4082
Rp4083
tp4084
a(g135
g6
(g18
S'\x15?O='
p4085
tp4086
Rp4087
tp4088
asg73
g44
sa(dp4089
g2
S'../../../data/emanuela/activity-recognition/images/NTCIR-Lifelog-256/u1/2015-03-18/b00001278_21i6bq_20150318_221921e.jpg'
p4090
sg4
(lp4091
(g96
g6
(g18
S'\xa2|\xf8>'
p4092
tp4093
Rp4094
tp4095
a(g44
g6
(g18
S'\xa8\xdd\xf3>'
p4096
tp4097
Rp4098
tp4099
a(g15
g6
(g18
S'$\xde\xbe<'
p4100
tp4101
Rp4102
tp4103
a(g84
g6
(g18
S'[\x81\xdd;'
p4104
tp4105
Rp4106
tp4107
a(g32
g6
(g18
S'G63;'
p4108
tp4109
Rp4110
tp4111
asg73
g44
sa(dp4112
g2
S'../../../data/emanuela/activity-recognition/images/NTCIR-Lifelog-256/u1/2015-02-25/b00000045_21i6bq_20150225_061810e.jpg'
p4113
sg4
(lp4114
(g44
g6
(g18
S'b\xda-?'
p4115
tp4116
Rp4117
tp4118
a(g32
g6
(g18
S'gS4>'
p4119
tp4120
Rp4121
tp4122
a(g96
g6
(g18
S'\x8aIN='
p4123
tp4124
Rp4125
tp4126
a(g15
g6
(g18
S'q\x01C='
p4127
tp4128
Rp4129
tp4130
a(g84
g6
(g18
S'\x0bK\x1a<'
p4131
tp4132
Rp4133
tp4134
asg73
g44
sa(dp4135
g2
S'../../../data/emanuela/activity-recognition/images/NTCIR-Lifelog-256/u1/2015-03-09/b00001197_21i6bq_20150309_193418e.jpg'
p4136
sg4
(lp4137
(g1304
g6
(g18
S'\xe26\x1e?'
p4138
tp4139
Rp4140
tp4141
a(g306
g6
(g18
S'\xd2)\xee='
p4142
tp4143
Rp4144
tp4145
a(g286
g6
(g18
S'\x83\x82\x8f='
p4146
tp4147
Rp4148
tp4149
a(g68
g6
(g18
S'\x13PD='
p4150
tp4151
Rp4152
tp4153
a(g84
g6
(g18
S'\xedF*='
p4154
tp4155
Rp4156
tp4157
asg73
g44
sa(dp4158
g2
S'../../../data/emanuela/activity-recognition/images/NTCIR-Lifelog-256/u1/2015-03-17/b00000274_21i6bq_20150317_111555e.jpg'
p4159
sg4
(lp4160
(g2274
g6
(g18
S'\xba\x1b\x95>'
p4161
tp4162
Rp4163
tp4164
a(g186
g6
(g18
S'Z\xe0|>'
p4165
tp4166
Rp4167
tp4168
a(g44
g6
(g18
S'\x88M\xc0='
p4169
tp4170
Rp4171
tp4172
a(g84
g6
(g18
S'c\x85\xbe='
p4173
tp4174
Rp4175
tp4176
a(g96
g6
(g18
S'\xc1j\x97='
p4177
tp4178
Rp4179
tp4180
asg73
g44
sa(dp4181
g2
S'../../../data/emanuela/activity-recognition/images/NTCIR-Lifelog-256/u1/2015-03-17/b00001598_21i6bq_20150317_234917e.jpg'
p4182
sg4
(lp4183
(g44
g6
(g18
S'W\x18\x91>'
p4184
tp4185
Rp4186
tp4187
a(g68
g6
(g18
S'\x15\x02&>'
p4188
tp4189
Rp4190
tp4191
a(g96
g6
(g18
S'`<\xea='
p4192
tp4193
Rp4194
tp4195
a(g163
g6
(g18
S'\x0e\x83\xbc='
p4196
tp4197
Rp4198
tp4199
a(g84
g6
(g18
S'\xf0p\x99='
p4200
tp4201
Rp4202
tp4203
asg73
g44
sa(dp4204
g2
S'../../../data/emanuela/activity-recognition/images/NTCIR-Lifelog-256/u1/2015-03-08/b00000925_21i6bq_20150308_192946e.jpg'
p4205
sg4
(lp4206
(g32
g6
(g18
S'\x10\x90\n?'
p4207
tp4208
Rp4209
tp4210
a(g15
g6
(g18
S'\xddw\t>'
p4211
tp4212
Rp4213
tp4214
a(g306
g6
(g18
S'\xe0(\xdd='
p4215
tp4216
Rp4217
tp4218
a(g68
g6
(g18
S'\xa2m\x8a='
p4219
tp4220
Rp4221
tp4222
a(g96
g6
(g18
S'\xbc\x1b\x1a='
p4223
tp4224
Rp4225
tp4226
asg73
g44
sa(dp4227
g2
S'../../../data/emanuela/activity-recognition/images/NTCIR-Lifelog-256/u1/2015-03-01/b00000611_21i6bq_20150301_130306e.jpg'
p4228
sg4
(lp4229
(g68
g6
(g18
S'\xad\xd2\x12?'
p4230
tp4231
Rp4232
tp4233
a(g84
g6
(g18
S'\xa4-\xcf='
p4234
tp4235
Rp4236
tp4237
a(g163
g6
(g18
S'\xaf\x1f\x99='
p4238
tp4239
Rp4240
tp4241
a(g15
g6
(g18
S'\xdagP='
p4242
tp4243
Rp4244
tp4245
a(g147
g6
(g18
S'\x1dJ7='
p4246
tp4247
Rp4248
tp4249
asg73
g44
sa(dp4250
g2
S'../../../data/emanuela/activity-recognition/images/NTCIR-Lifelog-256/u1/2015-03-01/b00000008_21i6bq_20150301_071924e.jpg'
p4251
sg4
(lp4252
(g44
g6
(g18
S':\xec%?'
p4253
tp4254
Rp4255
tp4256
a(g84
g6
(g18
S'\x003\xa8='
p4257
tp4258
Rp4259
tp4260
a(g96
g6
(g18
S'j\x1c\x85='
p4261
tp4262
Rp4263
tp4264
a(g15
g6
(g18
S'\x81\x82n='
p4265
tp4266
Rp4267
tp4268
a(g68
g6
(g18
S',\x83P='
p4269
tp4270
Rp4271
tp4272
asg73
g44
sa(dp4273
g2
S'../../../data/emanuela/activity-recognition/images/NTCIR-Lifelog-256/u1/2015-03-17/b00000269_21i6bq_20150317_111310e.jpg'
p4274
sg4
(lp4275
(g84
g6
(g18
S'\xfd.\x04?'
p4276
tp4277
Rp4278
tp4279
a(g56
g6
(g18
S'b\xf4\xfd='
p4280
tp4281
Rp4282
tp4283
a(g15
g6
(g18
S'\x8f\xc6\x87='
p4284
tp4285
Rp4286
tp4287
a(g186
g6
(g18
S'\x9d3D='
p4288
tp4289
Rp4290
tp4291
a(g96
g6
(g18
S'\x88"6='
p4292
tp4293
Rp4294
tp4295
asg73
g44
sa(dp4296
g2
S'../../../data/emanuela/activity-recognition/images/NTCIR-Lifelog-256/u1/2015-03-15/b00000747_21i6bq_20150315_145456e.jpg'
p4297
sg4
(lp4298
(g147
g6
(g18
S'\xf8\xe0\x81>'
p4299
tp4300
Rp4301
tp4302
a(g186
g6
(g18
S'd\xfa)>'
p4303
tp4304
Rp4305
tp4306
a(g84
g6
(g18
S'6}\x11>'
p4307
tp4308
Rp4309
tp4310
a(g68
g6
(g18
S'\xc3n\xe0='
p4311
tp4312
Rp4313
tp4314
a(g15
g6
(g18
S'\x85\xb5\xde='
p4315
tp4316
Rp4317
tp4318
asg73
g44
sa(dp4319
g2
S'../../../data/emanuela/activity-recognition/images/NTCIR-Lifelog-256/u1/2015-02-26/b00000090_21i6bq_20150226_065735e.jpg'
p4320
sg4
(lp4321
(g84
g6
(g18
S'\xd7\xe4\xea>'
p4322
tp4323
Rp4324
tp4325
a(g186
g6
(g18
S'\xaada>'
p4326
tp4327
Rp4328
tp4329
a(g44
g6
(g18
S':\x8f\x0e>'
p4330
tp4331
Rp4332
tp4333
a(g147
g6
(g18
S'C\xcb\xdf='
p4334
tp4335
Rp4336
tp4337
a(g96
g6
(g18
S'\x00\x03\xe2<'
p4338
tp4339
Rp4340
tp4341
asg73
g44
sa(dp4342
g2
S'../../../data/emanuela/activity-recognition/images/NTCIR-Lifelog-256/u1/2015-03-01/b00000011_21i6bq_20150301_071926e.jpg'
p4343
sg4
(lp4344
(g44
g6
(g18
S'ki\xca>'
p4345
tp4346
Rp4347
tp4348
a(g15
g6
(g18
S'\x93\xe4^>'
p4349
tp4350
Rp4351
tp4352
a(g68
g6
(g18
S'\xa9I\x06>'
p4353
tp4354
Rp4355
tp4356
a(g84
g6
(g18
S'YX\x99='
p4357
tp4358
Rp4359
tp4360
a(g163
g6
(g18
S'S\xb7u='
p4361
tp4362
Rp4363
tp4364
asg73
g44
sa(dp4365
g2
S'../../../data/emanuela/activity-recognition/images/NTCIR-Lifelog-256/u1/2015-03-10/b00001515_21i6bq_20150310_062707e.jpg'
p4366
sg4
(lp4367
(g96
g6
(g18
S'\xd2\x10\xb8>'
p4368
tp4369
Rp4370
tp4371
a(g44
g6
(g18
S'\x07\xfa\xa3>'
p4372
tp4373
Rp4374
tp4375
a(g84
g6
(g18
S'\x16\xd3\xc0='
p4376
tp4377
Rp4378
tp4379
a(g15
g6
(g18
S's\xe8\xa3='
p4380
tp4381
Rp4382
tp4383
a(g306
g6
(g18
S'\xa5\xf9\xf9<'
p4384
tp4385
Rp4386
tp4387
asg73
g44
sa(dp4388
g2
S'../../../data/emanuela/activity-recognition/images/NTCIR-Lifelog-256/u1/2015-02-25/b00001272_21i6bq_20150225_192356e.jpg'
p4389
sg4
(lp4390
(g186
g6
(g18
S'\xc8\x7f\x01?'
p4391
tp4392
Rp4393
tp4394
a(g84
g6
(g18
S'\x15\xfcK>'
p4395
tp4396
Rp4397
tp4398
a(g147
g6
(g18
S'lb\xc2='
p4399
tp4400
Rp4401
tp4402
a(g44
g6
(g18
S'\x91&d='
p4403
tp4404
Rp4405
tp4406
a(g163
g6
(g18
S'\xba\xe1\xfe<'
p4407
tp4408
Rp4409
tp4410
asg73
g44
sa(dp4411
g2
S'../../../data/emanuela/activity-recognition/images/NTCIR-Lifelog-256/u1/2015-03-16/b00001575_21i6bq_20150316_004439e.jpg'
p4412
sg4
(lp4413
(g15
g6
(g18
S'\x81\xe5>?'
p4414
tp4415
Rp4416
tp4417
a(g68
g6
(g18
S'\x1e\xf9.>'
p4418
tp4419
Rp4420
tp4421
a(g56
g6
(g18
S'\x0c\xf7\xee<'
p4422
tp4423
Rp4424
tp4425
a(g135
g6
(g18
S'\x02\x1b\x99<'
p4426
tp4427
Rp4428
tp4429
a(g44
g6
(g18
S'\xc6\x92\x19<'
p4430
tp4431
Rp4432
tp4433
asg73
g44
sa(dp4434
g2
S'../../../data/emanuela/activity-recognition/images/NTCIR-Lifelog-256/u1/2015-03-10/b00001552_21i6bq_20150310_064859e.jpg'
p4435
sg4
(lp4436
(g32
g6
(g18
S'5\xf6\x16?'
p4437
tp4438
Rp4439
tp4440
a(g15
g6
(g18
S'%\xbb\x80>'
p4441
tp4442
Rp4443
tp4444
a(g44
g6
(g18
S'\xf4\x89\xc7='
p4445
tp4446
Rp4447
tp4448
a(g163
g6
(g18
S'\xdf\x8e\xb8<'
p4449
tp4450
Rp4451
tp4452
a(g68
g6
(g18
S'\xafe\x91<'
p4453
tp4454
Rp4455
tp4456
asg73
g44
sa(dp4457
g2
S'../../../data/emanuela/activity-recognition/images/NTCIR-Lifelog-256/u1/2015-03-10/b00000989_21i6bq_20150310_233434e.jpg'
p4458
sg4
(lp4459
(g44
g6
(g18
S'<#1?'
p4460
tp4461
Rp4462
tp4463
a(g96
g6
(g18
S'D\xf2y>'
p4464
tp4465
Rp4466
tp4467
a(g15
g6
(g18
S'?\xb2&='
p4468
tp4469
Rp4470
tp4471
a(g84
g6
(g18
S'8\x1c9<'
p4472
tp4473
Rp4474
tp4475
a(g32
g6
(g18
S'9\xdb5;'
p4476
tp4477
Rp4478
tp4479
asg73
g44
sa(dp4480
g2
S'../../../data/emanuela/activity-recognition/images/NTCIR-Lifelog-256/u1/2015-03-09/b00001353_21i6bq_20150309_210653e.jpg'
p4481
sg4
(lp4482
(g163
g6
(g18
S'\xf4\xb0m>'
p4483
tp4484
Rp4485
tp4486
a(g84
g6
(g18
S'\x10\xc2#>'
p4487
tp4488
Rp4489
tp4490
a(g116
g6
(g18
S'\x0f\\\n>'
p4491
tp4492
Rp4493
tp4494
a(g186
g6
(g18
S'/\x9f\xe1='
p4495
tp4496
Rp4497
tp4498
a(g68
g6
(g18
S'\xbd\xb8\xa1='
p4499
tp4500
Rp4501
tp4502
asg73
g44
sa(dp4503
g2
S'../../../data/emanuela/activity-recognition/images/NTCIR-Lifelog-256/u1/2015-03-15/b00000045_21i6bq_20150315_081101e.jpg'
p4504
sg4
(lp4505
(g44
g6
(g18
S'+\xd2T?'
p4506
tp4507
Rp4508
tp4509
a(g147
g6
(g18
S'\xe0q\x92='
p4510
tp4511
Rp4512
tp4513
a(g186
g6
(g18
S'E\x84\x11='
p4514
tp4515
Rp4516
tp4517
a(g84
g6
(g18
S'\xf5\xf2\xa7<'
p4518
tp4519
Rp4520
tp4521
a(g96
g6
(g18
S'\xbd\x90\x9a<'
p4522
tp4523
Rp4524
tp4525
asg73
g44
sa(dp4526
g2
S'../../../data/emanuela/activity-recognition/images/NTCIR-Lifelog-256/u1/2015-03-18/b00001304_21i6bq_20150318_223723e.jpg'
p4527
sg4
(lp4528
(g84
g6
(g18
S'\xb6\x8cA?'
p4529
tp4530
Rp4531
tp4532
a(g186
g6
(g18
S'l@\x8d='
p4533
tp4534
Rp4535
tp4536
a(g96
g6
(g18
S'\xad9\x8b='
p4537
tp4538
Rp4539
tp4540
a(g44
g6
(g18
S'\x8fx\x81='
p4541
tp4542
Rp4543
tp4544
a(g147
g6
(g18
S'\x03#\xa5<'
p4545
tp4546
Rp4547
tp4548
asg73
g44
sa(dp4549
g2
S'../../../data/emanuela/activity-recognition/images/NTCIR-Lifelog-256/u1/2015-03-15/b00000130_21i6bq_20150315_090003e.jpg'
p4550
sg4
(lp4551
(g32
g6
(g18
S'\xae\x90\xef>'
p4552
tp4553
Rp4554
tp4555
a(g15
g6
(g18
S'\x04\xefQ>'
p4556
tp4557
Rp4558
tp4559
a(g44
g6
(g18
S'\x19v\x13>'
p4560
tp4561
Rp4562
tp4563
a(g306
g6
(g18
S'D\xa3\xf4='
p4564
tp4565
Rp4566
tp4567
a(g84
g6
(g18
S'\xe2\x00\xe3<'
p4568
tp4569
Rp4570
tp4571
asg73
g44
sa(dp4572
g2
S'../../../data/emanuela/activity-recognition/images/NTCIR-Lifelog-256/u1/2015-03-17/b00001594_21i6bq_20150317_234553e.jpg'
p4573
sg4
(lp4574
(g68
g6
(g18
S'2d\x95>'
p4575
tp4576
Rp4577
tp4578
a(g163
g6
(g18
S'\t9g>'
p4579
tp4580
Rp4581
tp4582
a(g56
g6
(g18
S'\xe8\xb1$>'
p4583
tp4584
Rp4585
tp4586
a(g244
g6
(g18
S'\x8d\xea\x0e>'
p4587
tp4588
Rp4589
tp4590
a(g15
g6
(g18
S'\xd0\x8a\xc3='
p4591
tp4592
Rp4593
tp4594
asg73
g44
sa(dp4595
g2
S'../../../data/emanuela/activity-recognition/images/NTCIR-Lifelog-256/u1/2015-03-08/b00000924_21i6bq_20150308_192910e.jpg'
p4596
sg4
(lp4597
(g32
g6
(g18
S'!#-?'
p4598
tp4599
Rp4600
tp4601
a(g44
g6
(g18
S'`\x07\r>'
p4602
tp4603
Rp4604
tp4605
a(g15
g6
(g18
S'C\x11)='
p4606
tp4607
Rp4608
tp4609
a(g306
g6
(g18
S'\xc7{\x1c='
p4610
tp4611
Rp4612
tp4613
a(g68
g6
(g18
S'.\xf8\xb9<'
p4614
tp4615
Rp4616
tp4617
asg73
g44
sa(dp4618
g2
S'../../../data/emanuela/activity-recognition/images/NTCIR-Lifelog-256/u1/2015-03-01/b00000612_21i6bq_20150301_130341e.jpg'
p4619
sg4
(lp4620
(g84
g6
(g18
S'a`\xec>'
p4621
tp4622
Rp4623
tp4624
a(g147
g6
(g18
S'\x03\x8d\x90>'
p4625
tp4626
Rp4627
tp4628
a(g186
g6
(g18
S't\x0e\xe1='
p4629
tp4630
Rp4631
tp4632
a(g56
g6
(g18
S'"29='
p4633
tp4634
Rp4635
tp4636
a(g96
g6
(g18
S'\x8f\xda\xee<'
p4637
tp4638
Rp4639
tp4640
asg73
g44
sa(dp4641
g2
S'../../../data/emanuela/activity-recognition/images/NTCIR-Lifelog-256/u1/2015-03-17/b00000270_21i6bq_20150317_111342e.jpg'
p4642
sg4
(lp4643
(g84
g6
(g18
S'\xa3\x14\xe6>'
p4644
tp4645
Rp4646
tp4647
a(g163
g6
(g18
S'\xd4!\x01>'
p4648
tp4649
Rp4650
tp4651
a(g306
g6
(g18
S'}\xaa\xd9='
p4652
tp4653
Rp4654
tp4655
a(g68
g6
(g18
S'\x89\xecz='
p4656
tp4657
Rp4658
tp4659
a(g1304
g6
(g18
S'-\xd6X='
p4660
tp4661
Rp4662
tp4663
asg73
g44
sa(dp4664
g2
S'../../../data/emanuela/activity-recognition/images/NTCIR-Lifelog-256/u1/2015-03-09/b00000000_21i6bq_20150309_064635e.jpg'
p4665
sg4
(lp4666
(g44
g6
(g18
S'\x87\xf8%?'
p4667
tp4668
Rp4669
tp4670
a(g96
g6
(g18
S'\x1c\xf9\xab='
p4671
tp4672
Rp4673
tp4674
a(g32
g6
(g18
S'T\xc2\x8a='
p4675
tp4676
Rp4677
tp4678
a(g68
g6
(g18
S'\xec\xef\\='
p4679
tp4680
Rp4681
tp4682
a(g15
g6
(g18
S'\x83\xcb)='
p4683
tp4684
Rp4685
tp4686
asg73
g44
sa(dp4687
g2
S'../../../data/emanuela/activity-recognition/images/NTCIR-Lifelog-256/u1/2015-03-16/b00001582_21i6bq_20150316_004715e.jpg'
p4688
sg4
(lp4689
(g15
g6
(g18
S'\xc4\x9eM?'
p4690
tp4691
Rp4692
tp4693
a(g970
g6
(g18
S'e\xd3S='
p4694
tp4695
Rp4696
tp4697
a(g84
g6
(g18
S'*\x1f\xf3<'
p4698
tp4699
Rp4700
tp4701
a(g44
g6
(g18
S'\xc8\x0c\xd1<'
p4702
tp4703
Rp4704
tp4705
a(g306
g6
(g18
S'\xff\xe2\xce<'
p4706
tp4707
Rp4708
tp4709
asg73
g44
sa(dp4710
g2
S'../../../data/emanuela/activity-recognition/images/NTCIR-Lifelog-256/u1/2015-03-17/b00001597_21i6bq_20150317_234846e.jpg'
p4711
sg4
(lp4712
(g44
g6
(g18
S'u\r\xdb>'
p4713
tp4714
Rp4715
tp4716
a(g15
g6
(g18
S'\x9cxt>'
p4717
tp4718
Rp4719
tp4720
a(g96
g6
(g18
S'q\xc0\x00>'
p4721
tp4722
Rp4723
tp4724
a(g32
g6
(g18
S'e\xaf\xf7='
p4725
tp4726
Rp4727
tp4728
a(g306
g6
(g18
S'\x8b\x9d\x0e='
p4729
tp4730
Rp4731
tp4732
asg73
g44
sa(dp4733
g2
S'../../../data/emanuela/activity-recognition/images/NTCIR-Lifelog-256/u1/2015-03-08/b00000920_21i6bq_20150308_192642e.jpg'
p4734
sg4
(lp4735
(g84
g6
(g18
S'\x1b\x16\xa1>'
p4736
tp4737
Rp4738
tp4739
a(g163
g6
(g18
S'\x1e\xcd[>'
p4740
tp4741
Rp4742
tp4743
a(g15
g6
(g18
S'\xba"\xc6='
p4744
tp4745
Rp4746
tp4747
a(g96
g6
(g18
S'%\x01\xc5='
p4748
tp4749
Rp4750
tp4751
a(g44
g6
(g18
S'\xac\xc9\x8d='
p4752
tp4753
Rp4754
tp4755
asg73
g44
sa(dp4756
g2
S'../../../data/emanuela/activity-recognition/images/NTCIR-Lifelog-256/u1/2015-03-04/b00000108_21i6bq_20150304_074747e.jpg'
p4757
sg4
(lp4758
(g44
g6
(g18
S'\xce\x99\xbf>'
p4759
tp4760
Rp4761
tp4762
a(g96
g6
(g18
S'\x7f\x10)>'
p4763
tp4764
Rp4765
tp4766
a(g15
g6
(g18
S'?_(>'
p4767
tp4768
Rp4769
tp4770
a(g68
g6
(g18
S'\xbc\xbc\xb9='
p4771
tp4772
Rp4773
tp4774
a(g32
g6
(g18
S'\xda\xd1`='
p4775
tp4776
Rp4777
tp4778
asg73
g44
sa(dp4779
g2
S'../../../data/emanuela/activity-recognition/images/NTCIR-Lifelog-256/u1/2015-03-18/b00001276_21i6bq_20150318_221804e.jpg'
p4780
sg4
(lp4781
(g15
g6
(g18
S'\xe4|4?'
p4782
tp4783
Rp4784
tp4785
a(g68
g6
(g18
S'\x87\x84\x0f>'
p4786
tp4787
Rp4788
tp4789
a(g56
g6
(g18
S'\x8e\x8c\xfd='
p4790
tp4791
Rp4792
tp4793
a(g44
g6
(g18
S'\x8a3$<'
p4794
tp4795
Rp4796
tp4797
a(g163
g6
(g18
S'\x92\x12\x0f<'
p4798
tp4799
Rp4800
tp4801
asg73
g44
sa(dp4802
g2
S'../../../data/emanuela/activity-recognition/images/NTCIR-Lifelog-256/u1/2015-02-25/b00001268_21i6bq_20150225_192056e.jpg'
p4803
sg4
(lp4804
(g32
g6
(g18
S'xt\x0f?'
p4805
tp4806
Rp4807
tp4808
a(g44
g6
(g18
S'\xae\xf3w>'
p4809
tp4810
Rp4811
tp4812
a(g15
g6
(g18
S'\xd6\xda6>'
p4813
tp4814
Rp4815
tp4816
a(g96
g6
(g18
S"\xfa'\xdf;"
p4817
tp4818
Rp4819
tp4820
a(g306
g6
(g18
S'\xf2"\xcd;'
p4821
tp4822
Rp4823
tp4824
asg73
g44
sa(dp4825
g2
S'../../../data/emanuela/activity-recognition/images/NTCIR-Lifelog-256/u1/2015-03-05/b00001345_21i6bq_20150305_213819e.jpg'
p4826
sg4
(lp4827
(g244
g6
(g18
S'z\xc7\x8d>'
p4828
tp4829
Rp4830
tp4831
a(g32
g6
(g18
S'\xd0!\x0b>'
p4832
tp4833
Rp4834
tp4835
a(g44
g6
(g18
S'\x02C\xe5='
p4836
tp4837
Rp4838
tp4839
a(g186
g6
(g18
S'\xb17\xdb='
p4840
tp4841
Rp4842
tp4843
a(g147
g6
(g18
S'[b\xab='
p4844
tp4845
Rp4846
tp4847
asg73
g44
sa(dp4848
g2
S'../../../data/emanuela/activity-recognition/images/NTCIR-Lifelog-256/u1/2015-03-01/b00001451_21i6bq_20150301_212657e.jpg'
p4849
sg4
(lp4850
(g44
g6
(g18
S'\xd1W&?'
p4851
tp4852
Rp4853
tp4854
a(g96
g6
(g18
S'\xb4\x91v>'
p4855
tp4856
Rp4857
tp4858
a(g15
g6
(g18
S'j\x00\xed<'
p4859
tp4860
Rp4861
tp4862
a(g186
g6
(g18
S'Y\x11\xa4<'
p4863
tp4864
Rp4865
tp4866
a(g84
g6
(g18
S'\x0bmp<'
p4867
tp4868
Rp4869
tp4870
asg73
g44
sa(dp4871
g2
S'../../../data/emanuela/activity-recognition/images/NTCIR-Lifelog-256/u1/2015-03-08/b00000928_21i6bq_20150308_193138e.jpg'
p4872
sg4
(lp4873
(g32
g6
(g18
S'\x8d\xa1>?'
p4874
tp4875
Rp4876
tp4877
a(g15
g6
(g18
S'\xddB\x1d>'
p4878
tp4879
Rp4880
tp4881
a(g306
g6
(g18
S'\xad3\x0e='
p4882
tp4883
Rp4884
tp4885
a(g44
g6
(g18
S'G>y<'
p4886
tp4887
Rp4888
tp4889
a(g116
g6
(g18
S'\xd5\x1fD<'
p4890
tp4891
Rp4892
tp4893
asg73
g44
sa(dp4894
g2
S'../../../data/emanuela/activity-recognition/images/NTCIR-Lifelog-256/u1/2015-02-25/b00001273_21i6bq_20150225_192435e.jpg'
p4895
sg4
(lp4896
(g44
g6
(g18
S'F\xcfT>'
p4897
tp4898
Rp4899
tp4900
a(g244
g6
(g18
S'8B$>'
p4901
tp4902
Rp4903
tp4904
a(g186
g6
(g18
S'\x989!>'
p4905
tp4906
Rp4907
tp4908
a(g84
g6
(g18
S'\x8a\x17\x04>'
p4909
tp4910
Rp4911
tp4912
a(g163
g6
(g18
S'\x9e\x99\xcc='
p4913
tp4914
Rp4915
tp4916
asg73
g44
sa(dp4917
g2
S'../../../data/emanuela/activity-recognition/images/NTCIR-Lifelog-256/u1/2015-02-26/b00001402_21i6bq_20150226_224209e.jpg'
p4918
sg4
(lp4919
(g84
g6
(g18
S'\xce\t\xae>'
p4920
tp4921
Rp4922
tp4923
a(g44
g6
(g18
S'\x16M\x1b>'
p4924
tp4925
Rp4926
tp4927
a(g15
g6
(g18
S'f\xdf\xc4='
p4928
tp4929
Rp4930
tp4931
a(g56
g6
(g18
S'~\x0f\xb8='
p4932
tp4933
Rp4934
tp4935
a(g96
g6
(g18
S'\x1c\xec\xac='
p4936
tp4937
Rp4938
tp4939
asg73
g44
sa(dp4940
g2
S'../../../data/emanuela/activity-recognition/images/NTCIR-Lifelog-256/u1/2015-03-01/b00001450_21i6bq_20150301_212619e.jpg'
p4941
sg4
(lp4942
(g44
g6
(g18
S'\xa7&\x18?'
p4943
tp4944
Rp4945
tp4946
a(g244
g6
(g18
S'4\x10\xa3='
p4947
tp4948
Rp4949
tp4950
a(g32
g6
(g18
S',\\y='
p4951
tp4952
Rp4953
tp4954
a(g15
g6
(g18
S'>\x06Y='
p4955
tp4956
Rp4957
tp4958
a(g84
g6
(g18
S'r\x1a?='
p4959
tp4960
Rp4961
tp4962
asg73
g44
sa(dp4963
g2
S'../../../data/emanuela/activity-recognition/images/NTCIR-Lifelog-256/u1/2015-03-08/b00000950_21i6bq_20150308_194501e.jpg'
p4964
sg4
(lp4965
(g96
g6
(g18
S't!\xfb>'
p4966
tp4967
Rp4968
tp4969
a(g44
g6
(g18
S'\\B\xf1>'
p4970
tp4971
Rp4972
tp4973
a(g84
g6
(g18
S'\xa2\x86\xce<'
p4974
tp4975
Rp4976
tp4977
a(g15
g6
(g18
S'\xc7\x0f>;'
p4978
tp4979
Rp4980
tp4981
a(g835
g6
(g18
S'\x87\xd1\xff:'
p4982
tp4983
Rp4984
tp4985
asg73
g44
sa(dp4986
g2
S'../../../data/emanuela/activity-recognition/images/NTCIR-Lifelog-256/u1/2015-02-26/b00001401_21i6bq_20150226_224104e.jpg'
p4987
sg4
(lp4988
(g135
g6
(g18
S'\xa4u\x99>'
p4989
tp4990
Rp4991
tp4992
a(g68
g6
(g18
S'\xf2\xda_>'
p4993
tp4994
Rp4995
tp4996
a(g306
g6
(g18
S'}Y$>'
p4997
tp4998
Rp4999
tp5000
a(g1304
g6
(g18
S'c\x87\xdf='
p5001
tp5002
Rp5003
tp5004
a(g84
g6
(g18
S'\x94\xdf\xa7='
p5005
tp5006
Rp5007
tp5008
asg73
g44
sa(dp5009
g2
S'../../../data/emanuela/activity-recognition/images/NTCIR-Lifelog-256/u1/2015-03-09/b00001281_21i6bq_20150309_202501e.jpg'
p5010
sg4
(lp5011
(g68
g6
(g18
S'B\x9d\xb7>'
p5012
tp5013
Rp5014
tp5015
a(g15
g6
(g18
S'qs\xae>'
p5016
tp5017
Rp5018
tp5019
a(g44
g6
(g18
S'\xe0+\x85='
p5020
tp5021
Rp5022
tp5023
a(g32
g6
(g18
S'`\xd3\x80='
p5024
tp5025
Rp5026
tp5027
a(g96
g6
(g18
S'B\x0fj='
p5028
tp5029
Rp5030
tp5031
asg73
g44
sa(dp5032
g2
S'../../../data/emanuela/activity-recognition/images/NTCIR-Lifelog-256/u1/2015-03-16/b00001576_21i6bq_20150316_004559e.jpg'
p5033
sg4
(lp5034
(g15
g6
(g18
S'w\xba-?'
p5035
tp5036
Rp5037
tp5038
a(g32
g6
(g18
S'\x14\x7f[>'
p5039
tp5040
Rp5041
tp5042
a(g116
g6
(g18
S'\x8f\x97\x85='
p5043
tp5044
Rp5045
tp5046
a(g44
g6
(g18
S'\x84\xebq<'
p5047
tp5048
Rp5049
tp5050
a(g84
g6
(g18
S'\xfa\x01!<'
p5051
tp5052
Rp5053
tp5054
asg73
g44
sa(dp5055
g2
S'../../../data/emanuela/activity-recognition/images/NTCIR-Lifelog-256/u1/2015-03-12/b00001292_21i6bq_20150312_222644e.jpg'
p5056
sg4
(lp5057
(g15
g6
(g18
S'\x08\x1f%?'
p5058
tp5059
Rp5060
tp5061
a(g56
g6
(g18
S"'\r\xbe="
p5062
tp5063
Rp5064
tp5065
a(g44
g6
(g18
S'\xcd\x02\x91='
p5066
tp5067
Rp5068
tp5069
a(g32
g6
(g18
S'\xa8aD='
p5070
tp5071
Rp5072
tp5073
a(g96
g6
(g18
S'\xc8\xf84='
p5074
tp5075
Rp5076
tp5077
asg73
g44
sa(dp5078
g2
S'../../../data/emanuela/activity-recognition/images/NTCIR-Lifelog-256/u1/2015-03-14/b00000738_21i6bq_20150314_133328e.jpg'
p5079
sg4
(lp5080
(g835
g6
(g18
S'\xd9i`>'
p5081
tp5082
Rp5083
tp5084
a(g15
g6
(g18
S'H\x014>'
p5085
tp5086
Rp5087
tp5088
a(g96
g6
(g18
S'{42>'
p5089
tp5090
Rp5091
tp5092
a(g84
g6
(g18
S'\x12\x13\x17>'
p5093
tp5094
Rp5095
tp5096
a(g44
g6
(g18
S'\xd9\xaa\x06>'
p5097
tp5098
Rp5099
tp5100
asg73
g44
sa(dp5101
g2
S'../../../data/emanuela/activity-recognition/images/NTCIR-Lifelog-256/u1/2015-02-25/b00000001_21i6bq_20150225_055507e.jpg'
p5102
sg4
(lp5103
(g96
g6
(g18
S'\x9e~\xc6>'
p5104
tp5105
Rp5106
tp5107
a(g84
g6
(g18
S'/\xec`>'
p5108
tp5109
Rp5110
tp5111
a(g186
g6
(g18
S'\xaa\xdd\xe7='
p5112
tp5113
Rp5114
tp5115
a(g44
g6
(g18
S'\xe4\xb1\x89='
p5116
tp5117
Rp5118
tp5119
a(g1304
g6
(g18
S'\x8c\xd8\x08='
p5120
tp5121
Rp5122
tp5123
asg73
g44
sa(dp5124
g2
S'../../../data/emanuela/activity-recognition/images/NTCIR-Lifelog-256/u1/2015-03-01/b00000609_21i6bq_20150301_130156e.jpg'
p5125
sg4
(lp5126
(g15
g6
(g18
S'P\xed\xaf>'
p5127
tp5128
Rp5129
tp5130
a(g44
g6
(g18
S'\xac\xdfe>'
p5131
tp5132
Rp5133
tp5134
a(g96
g6
(g18
S'\x8aB\x97='
p5135
tp5136
Rp5137
tp5138
a(g84
g6
(g18
S'\xbdz\x96='
p5139
tp5140
Rp5141
tp5142
a(g68
g6
(g18
S'\xaf\x1cw='
p5143
tp5144
Rp5145
tp5146
asg73
g44
sa(dp5147
g2
S'../../../data/emanuela/activity-recognition/images/NTCIR-Lifelog-256/u1/2015-02-26/b00000089_21i6bq_20150226_065659e.jpg'
p5148
sg4
(lp5149
(g44
g6
(g18
S'\xa2\xf2\x1f?'
p5150
tp5151
Rp5152
tp5153
a(g96
g6
(g18
S'O\x8f\xe4='
p5154
tp5155
Rp5156
tp5157
a(g15
g6
(g18
S'\xb8k\xd1='
p5158
tp5159
Rp5160
tp5161
a(g84
g6
(g18
S'\x11?c='
p5162
tp5163
Rp5164
tp5165
a(g32
g6
(g18
S'H\x92\x06='
p5166
tp5167
Rp5168
tp5169
asg73
g44
sa(dp5170
g2
S'../../../data/emanuela/activity-recognition/images/NTCIR-Lifelog-256/u1/2015-02-25/b00001270_21i6bq_20150225_192208e.jpg'
p5171
sg4
(lp5172
(g15
g6
(g18
S'\xa4\xe8\x19?'
p5173
tp5174
Rp5175
tp5176
a(g32
g6
(g18
S'\xa0\xea7>'
p5177
tp5178
Rp5179
tp5180
a(g44
g6
(g18
S'\x9c\xbf\xe4='
p5181
tp5182
Rp5183
tp5184
a(g96
g6
(g18
S'\xdcO\xa2='
p5185
tp5186
Rp5187
tp5188
a(g68
g6
(g18
S'\xa2\xa92<'
p5189
tp5190
Rp5191
tp5192
asg73
g44
sa(dp5193
g2
S'../../../data/emanuela/activity-recognition/images/NTCIR-Lifelog-256/u1/2015-03-01/b00000526_21i6bq_20150301_120627e.jpg'
p5194
sg4
(lp5195
(g68
g6
(g18
S'\x1e\xd6\xb0>'
p5196
tp5197
Rp5198
tp5199
a(g56
g6
(g18
S'\xe7\x82\xa6>'
p5200
tp5201
Rp5202
tp5203
a(g15
g6
(g18
S'\xc6\xac]>'
p5204
tp5205
Rp5206
tp5207
a(g44
g6
(g18
S'os\x14='
p5208
tp5209
Rp5210
tp5211
a(g147
g6
(g18
S"j'\xb5<"
p5212
tp5213
Rp5214
tp5215
asg73
g44
sa(dp5216
g2
S'../../../data/emanuela/activity-recognition/images/NTCIR-Lifelog-256/u1/2015-03-16/b00003353_21i6bq_20150316_232924e.jpg'
p5217
sg4
(lp5218
(g44
g6
(g18
S'\xde\x92\x9e>'
p5219
tp5220
Rp5221
tp5222
a(g96
g6
(g18
S'\xc95\x8c>'
p5223
tp5224
Rp5225
tp5226
a(g84
g6
(g18
S'\xef\x867>'
p5227
tp5228
Rp5229
tp5230
a(g15
g6
(g18
S'>\xab\x84='
p5231
tp5232
Rp5233
tp5234
a(g186
g6
(g18
S'\xbe\x0bz='
p5235
tp5236
Rp5237
tp5238
asg73
g44
sa(dp5239
g2
S'../../../data/emanuela/activity-recognition/images/NTCIR-Lifelog-256/u1/2015-03-12/b00000031_21i6bq_20150312_073231e.jpg'
p5240
sg4
(lp5241
(g44
g6
(g18
S'^R\x01?'
p5242
tp5243
Rp5244
tp5245
a(g15
g6
(g18
S'\xf0\n\xbc>'
p5246
tp5247
Rp5248
tp5249
a(g96
g6
(g18
S'\xa8\xca\x16='
p5250
tp5251
Rp5252
tp5253
a(g68
g6
(g18
S'\xc2:\xc6<'
p5254
tp5255
Rp5256
tp5257
a(g32
g6
(g18
S'l|\x86<'
p5258
tp5259
Rp5260
tp5261
asg73
g44
sa(dp5262
g2
S'../../../data/emanuela/activity-recognition/images/NTCIR-Lifelog-256/u1/2015-03-18/b00001308_21i6bq_20150318_223940e.jpg'
p5263
sg4
(lp5264
(g15
g6
(g18
S'\xc2z\xf4>'
p5265
tp5266
Rp5267
tp5268
a(g44
g6
(g18
S'H\x99c>'
p5269
tp5270
Rp5271
tp5272
a(g32
g6
(g18
S'xl->'
p5273
tp5274
Rp5275
tp5276
a(g96
g6
(g18
S'\xb0\xa6\x87='
p5277
tp5278
Rp5279
tp5280
a(g306
g6
(g18
S'\x9c\x16\x8c<'
p5281
tp5282
Rp5283
tp5284
asg73
g44
sa(dp5285
g2
S'../../../data/emanuela/activity-recognition/images/NTCIR-Lifelog-256/u1/2015-03-01/b00000524_21i6bq_20150301_120517e.jpg'
p5286
sg4
(lp5287
(g15
g6
(g18
S'n\x9dS?'
p5288
tp5289
Rp5290
tp5291
a(g44
g6
(g18
S'\x14KN='
p5292
tp5293
Rp5294
tp5295
a(g96
g6
(g18
S'\t\x9f)='
p5296
tp5297
Rp5298
tp5299
a(g32
g6
(g18
S'\xa5)\xbe<'
p5300
tp5301
Rp5302
tp5303
a(g68
g6
(g18
S'm\x05\xb3<'
p5304
tp5305
Rp5306
tp5307
asg73
g44
sa(dp5308
g2
S'../../../data/emanuela/activity-recognition/images/NTCIR-Lifelog-256/u1/2015-03-09/b00001351_21i6bq_20150309_210533e.jpg'
p5309
sg4
(lp5310
(g56
g6
(g18
S'w\x81\xde>'
p5311
tp5312
Rp5313
tp5314
a(g84
g6
(g18
S'C\xf7,>'
p5315
tp5316
Rp5317
tp5318
a(g186
g6
(g18
S'"\xbd\x0c>'
p5319
tp5320
Rp5321
tp5322
a(g147
g6
(g18
S',\xa2\xe3='
p5323
tp5324
Rp5325
tp5326
a(g68
g6
(g18
S'q\x19[='
p5327
tp5328
Rp5329
tp5330
asg73
g44
sa(dp5331
g2
S'../../../data/emanuela/activity-recognition/images/NTCIR-Lifelog-256/u1/2015-03-09/b00001279_21i6bq_20150309_202348e.jpg'
p5332
sg4
(lp5333
(g15
g6
(g18
S'\x9a\xe5q?'
p5334
tp5335
Rp5336
tp5337
a(g44
g6
(g18
S'\xa6\x8a\xf9<'
p5338
tp5339
Rp5340
tp5341
a(g68
g6
(g18
S'@t)<'
p5342
tp5343
Rp5344
tp5345
a(g96
g6
(g18
S'\xe8\xb3\t<'
p5346
tp5347
Rp5348
tp5349
a(g970
g6
(g18
S'\xcf\xe6\x9d:'
p5350
tp5351
Rp5352
tp5353
asg73
g44
sa(dp5354
g2
S'../../../data/emanuela/activity-recognition/images/NTCIR-Lifelog-256/u1/2015-03-01/b00000525_21i6bq_20150301_120554e.jpg'
p5355
sg4
(lp5356
(g56
g6
(g18
S'\xce\xeb\x19?'
p5357
tp5358
Rp5359
tp5360
a(g68
g6
(g18
S'\xc9\x10=>'
p5361
tp5362
Rp5363
tp5364
a(g147
g6
(g18
S'\xca\x06\x0c>'
p5365
tp5366
Rp5367
tp5368
a(g15
g6
(g18
S'\xf8\xfb@='
p5369
tp5370
Rp5371
tp5372
a(g84
g6
(g18
S'\x83\x89\xfc;'
p5373
tp5374
Rp5375
tp5376
asg73
g44
sa(dp5377
g2
S'../../../data/emanuela/activity-recognition/images/NTCIR-Lifelog-256/u1/2015-03-17/b00001596_21i6bq_20150317_234701e.jpg'
p5378
sg4
(lp5379
(g68
g6
(g18
S'\x1aY\xd2>'
p5380
tp5381
Rp5382
tp5383
a(g56
g6
(g18
S'z\xb6\xcc='
p5384
tp5385
Rp5386
tp5387
a(g32
g6
(g18
S'\xa7\xee\xc8='
p5388
tp5389
Rp5390
tp5391
a(g15
g6
(g18
S'\xfc\x9a\x88='
p5392
tp5393
Rp5394
tp5395
a(g135
g6
(g18
S'\x1a\xadp='
p5396
tp5397
Rp5398
tp5399
asg73
g44
sa(dp5400
g2
S'../../../data/emanuela/activity-recognition/images/NTCIR-Lifelog-256/u1/2015-03-10/b00001550_21i6bq_20150310_064745e.jpg'
p5401
sg4
(lp5402
(g44
g6
(g18
S'\xb3c6?'
p5403
tp5404
Rp5405
tp5406
a(g15
g6
(g18
S'\xb8\xaa\xe8='
p5407
tp5408
Rp5409
tp5410
a(g96
g6
(g18
S'\xac4c='
p5411
tp5412
Rp5413
tp5414
a(g32
g6
(g18
S'yF\x1d='
p5415
tp5416
Rp5417
tp5418
a(g84
g6
(g18
S'\xc7\x97\xe9<'
p5419
tp5420
Rp5421
tp5422
asg73
g44
sa(dp5423
g2
S'../../../data/emanuela/activity-recognition/images/NTCIR-Lifelog-256/u1/2015-02-28/b00001265_21i6bq_20150228_204831e.jpg'
p5424
sg4
(lp5425
(g96
g6
(g18
S'u\xa6\xe9>'
p5426
tp5427
Rp5428
tp5429
a(g44
g6
(g18
S'\x04\xff\x7f>'
p5430
tp5431
Rp5432
tp5433
a(g286
g6
(g18
S'\xd7\xad\x1e>'
p5434
tp5435
Rp5436
tp5437
a(g32
g6
(g18
S'\xbd\x02\x1c='
p5438
tp5439
Rp5440
tp5441
a(g306
g6
(g18
S'\xa5\xd0\x11='
p5442
tp5443
Rp5444
tp5445
asg73
g44
sa(dp5446
g2
S'../../../data/emanuela/activity-recognition/images/NTCIR-Lifelog-256/u1/2015-02-25/b00000000_21i6bq_20150225_055403e.jpg'
p5447
sg4
(lp5448
(g32
g6
(g18
S'\\\x9f\x12?'
p5449
tp5450
Rp5451
tp5452
a(g15
g6
(g18
S'1\xdc\x8e>'
p5453
tp5454
Rp5455
tp5456
a(g244
g6
(g18
S'\xd4\xbb\xa5='
p5457
tp5458
Rp5459
tp5460
a(g44
g6
(g18
S'\x06#\x8e<'
p5461
tp5462
Rp5463
tp5464
a(g84
g6
(g18
S'\x9462<'
p5465
tp5466
Rp5467
tp5468
asg73
g44
sa(dp5469
g2
S'../../../data/emanuela/activity-recognition/images/NTCIR-Lifelog-256/u1/2015-03-02/b00000035_21i6bq_20150302_065336e.jpg'
p5470
sg4
(lp5471
(g186
g6
(g18
S'/t3?'
p5472
tp5473
Rp5474
tp5475
a(g147
g6
(g18
S'N\xcb\x02>'
p5476
tp5477
Rp5478
tp5479
a(g56
g6
(g18
S'\xa8\xb4\xc6='
p5480
tp5481
Rp5482
tp5483
a(g44
g6
(g18
S'\xfb\x05\x9a<'
p5484
tp5485
Rp5486
tp5487
a(g84
g6
(g18
S'I$\x82<'
p5488
tp5489
Rp5490
tp5491
asg73
g44
sa(dp5492
g2
S'../../../data/emanuela/activity-recognition/images/NTCIR-Lifelog-256/u1/2015-03-14/b00000735_21i6bq_20150314_133326e.jpg'
p5493
sg4
(lp5494
(g84
g6
(g18
S'\xed\x8f\x8c>'
p5495
tp5496
Rp5497
tp5498
a(g15
g6
(g18
S'\xd0\xc0K>'
p5499
tp5500
Rp5501
tp5502
a(g835
g6
(g18
S'\x00\x14>>'
p5503
tp5504
Rp5505
tp5506
a(g186
g6
(g18
S'%\x1f\x9a='
p5507
tp5508
Rp5509
tp5510
a(g96
g6
(g18
S'cyk='
p5511
tp5512
Rp5513
tp5514
asg73
g44
sa(dp5515
g2
S'../../../data/emanuela/activity-recognition/images/NTCIR-Lifelog-256/u1/2015-03-18/b00001151_21i6bq_20150318_205727e.jpg'
p5516
sg4
(lp5517
(g163
g6
(g18
S'D>\x9c>'
p5518
tp5519
Rp5520
tp5521
a(g44
g6
(g18
S'a\x85x>'
p5522
tp5523
Rp5524
tp5525
a(g15
g6
(g18
S'\x94\x1c\xef='
p5526
tp5527
Rp5528
tp5529
a(g244
g6
(g18
S'\xb8\xce\xc6='
p5530
tp5531
Rp5532
tp5533
a(g84
g6
(g18
S'n\x8e\x83='
p5534
tp5535
Rp5536
tp5537
asg73
g44
sa(dp5538
g2
S'../../../data/emanuela/activity-recognition/images/NTCIR-Lifelog-256/u1/2015-03-05/b00000085_21i6bq_20150305_065657e.jpg'
p5539
sg4
(lp5540
(g32
g6
(g18
S'=\x8c\xc2>'
p5541
tp5542
Rp5543
tp5544
a(g15
g6
(g18
S'\x96\xe7Q>'
p5545
tp5546
Rp5547
tp5548
a(g44
g6
(g18
S'\x07.\x1d>'
p5549
tp5550
Rp5551
tp5552
a(g68
g6
(g18
S'n0\x9c='
p5553
tp5554
Rp5555
tp5556
a(g56
g6
(g18
S'\x99\nX='
p5557
tp5558
Rp5559
tp5560
asg73
g44
sa(dp5561
g2
S'../../../data/emanuela/activity-recognition/images/NTCIR-Lifelog-256/u1/2015-02-25/b00000004_21i6bq_20150225_055705e.jpg'
p5562
sg4
(lp5563
(g44
g6
(g18
S'\xe2g\x1e?'
p5564
tp5565
Rp5566
tp5567
a(g84
g6
(g18
S'\xd91\xb2='
p5568
tp5569
Rp5570
tp5571
a(g96
g6
(g18
S'\xd9\x9f\x86='
p5572
tp5573
Rp5574
tp5575
a(g186
g6
(g18
S'\xe7\xbd`='
p5576
tp5577
Rp5578
tp5579
a(g15
g6
(g18
S'\x86\x81\x1a='
p5580
tp5581
Rp5582
tp5583
asg73
g44
sa(dp5584
g2
S'../../../data/emanuela/activity-recognition/images/NTCIR-Lifelog-256/u1/2015-03-08/b00000919_21i6bq_20150308_192607e.jpg'
p5585
sg4
(lp5586
(g186
g6
(g18
S'Tl\xc5>'
p5587
tp5588
Rp5589
tp5590
a(g147
g6
(g18
S'oBl>'
p5591
tp5592
Rp5593
tp5594
a(g84
g6
(g18
S'.\xe0a>'
p5595
tp5596
Rp5597
tp5598
a(g96
g6
(g18
S'r\x88\x82='
p5599
tp5600
Rp5601
tp5602
a(g44
g6
(g18
S'c\x0e\xc7<'
p5603
tp5604
Rp5605
tp5606
asg73
g44
sa(dp5607
g2
S'../../../data/emanuela/activity-recognition/images/NTCIR-Lifelog-256/u1/2015-03-16/b00001602_21i6bq_20150316_074142e.jpg'
p5608
sg4
(lp5609
(g15
g6
(g18
S'\xe6\xe6\xdc>'
p5610
tp5611
Rp5612
tp5613
a(g44
g6
(g18
S'Y\xb7\x9b>'
p5614
tp5615
Rp5616
tp5617
a(g96
g6
(g18
S'\x1aaF>'
p5618
tp5619
Rp5620
tp5621
a(g84
g6
(g18
S'a\xf8\xb3<'
p5622
tp5623
Rp5624
tp5625
a(g68
g6
(g18
S'\xf2\xe32<'
p5626
tp5627
Rp5628
tp5629
asg73
g44
sa(dp5630
g2
S'../../../data/emanuela/activity-recognition/images/NTCIR-Lifelog-256/u1/2015-03-18/b00001272_21i6bq_20150318_221528e.jpg'
p5631
sg4
(lp5632
(g15
g6
(g18
S'K-[>'
p5633
tp5634
Rp5635
tp5636
a(g306
g6
(g18
S'\xd4_3>'
p5637
tp5638
Rp5639
tp5640
a(g44
g6
(g18
S'\xc0\xe3&>'
p5641
tp5642
Rp5643
tp5644
a(g32
g6
(g18
S'\xadt\n>'
p5645
tp5646
Rp5647
tp5648
a(g163
g6
(g18
S'\xe7\xa3\x01>'
p5649
tp5650
Rp5651
tp5652
asg73
g44
sa(dp5653
g2
S'../../../data/emanuela/activity-recognition/images/NTCIR-Lifelog-256/u1/2015-02-25/b00000011_21i6bq_20150225_055927e.jpg'
p5654
sg4
(lp5655
(g84
g6
(g18
S'TG\xb1>'
p5656
tp5657
Rp5658
tp5659
a(g44
g6
(g18
S'\xea\xdbw>'
p5660
tp5661
Rp5662
tp5663
a(g163
g6
(g18
S'\xb4\xe46>'
p5664
tp5665
Rp5666
tp5667
a(g15
g6
(g18
S'\xafO\xc1='
p5668
tp5669
Rp5670
tp5671
a(g96
g6
(g18
S'6\xb4T='
p5672
tp5673
Rp5674
tp5675
asg73
g44
sa(dp5676
g2
S'../../../data/emanuela/activity-recognition/images/NTCIR-Lifelog-256/u1/2015-03-18/b00001277_21i6bq_20150318_221839e.jpg'
p5677
sg4
(lp5678
(g15
g6
(g18
S'JoH?'
p5679
tp5680
Rp5681
tp5682
a(g44
g6
(g18
S'\x97\x17\xd1='
p5683
tp5684
Rp5685
tp5686
a(g96
g6
(g18
S'q\xacz='
p5687
tp5688
Rp5689
tp5690
a(g32
g6
(g18
S'\xd3OB<'
p5691
tp5692
Rp5693
tp5694
a(g68
g6
(g18
S'\xe6\x1a?<'
p5695
tp5696
Rp5697
tp5698
asg73
g44
sa(dp5699
g2
S'../../../data/emanuela/activity-recognition/images/NTCIR-Lifelog-256/u1/2015-03-01/b00000111_21i6bq_20150301_075712e.jpg'
p5700
sg4
(lp5701
(g15
g6
(g18
S'\xd0\xaa\xde>'
p5702
tp5703
Rp5704
tp5705
a(g44
g6
(g18
S'\xa7\x81A>'
p5706
tp5707
Rp5708
tp5709
a(g68
g6
(g18
S'2\x1d\xbe='
p5710
tp5711
Rp5712
tp5713
a(g96
g6
(g18
S'\x91\xe7\xa1='
p5714
tp5715
Rp5716
tp5717
a(g147
g6
(g18
S'\x86\xdcG='
p5718
tp5719
Rp5720
tp5721
asg73
g44
sa(dp5722
g2
S'../../../data/emanuela/activity-recognition/images/NTCIR-Lifelog-256/u1/2015-02-28/b00001263_21i6bq_20150228_204830e.jpg'
p5723
sg4
(lp5724
(g286
g6
(g18
S'\x0cs\xa4>'
p5725
tp5726
Rp5727
tp5728
a(g96
g6
(g18
S'\x9eX\x95>'
p5729
tp5730
Rp5731
tp5732
a(g44
g6
(g18
S'\xea2T>'
p5733
tp5734
Rp5735
tp5736
a(g306
g6
(g18
S'\xacJG='
p5737
tp5738
Rp5739
tp5740
a(g32
g6
(g18
S'\xd3\xa5\xf8<'
p5741
tp5742
Rp5743
tp5744
asg73
g44
sa(dp5745
g2
S'../../../data/emanuela/activity-recognition/images/NTCIR-Lifelog-256/u1/2015-03-15/b00000007_21i6bq_20150315_075227e.jpg'
p5746
sg4
(lp5747
(g44
g6
(g18
S'\x0f\x1f!?'
p5748
tp5749
Rp5750
tp5751
a(g84
g6
(g18
S'\xe3Y0>'
p5752
tp5753
Rp5754
tp5755
a(g15
g6
(g18
S'\r<L='
p5756
tp5757
Rp5758
tp5759
a(g68
g6
(g18
S'\x8a\xc9\x10='
p5760
tp5761
Rp5762
tp5763
a(g163
g6
(g18
S'\xf5\xe4\xd9<'
p5764
tp5765
Rp5766
tp5767
asg73
g44
sa(dp5768
g2
S'../../../data/emanuela/activity-recognition/images/NTCIR-Lifelog-256/u1/2015-02-24/b00000052_21i6bq_20150224_071146e.jpg'
p5769
sg4
(lp5770
(g44
g6
(g18
S'b\xd5\x16?'
p5771
tp5772
Rp5773
tp5774
a(g68
g6
(g18
S'\x03m\xb1='
p5775
tp5776
Rp5777
tp5778
a(g15
g6
(g18
S'\xdb\xf2\xa8='
p5779
tp5780
Rp5781
tp5782
a(g244
g6
(g18
S'6\xd5O='
p5783
tp5784
Rp5785
tp5786
a(g32
g6
(g18
S'\xc8]9='
p5787
tp5788
Rp5789
tp5790
asg73
g44
sa(dp5791
g2
S'../../../data/emanuela/activity-recognition/images/NTCIR-Lifelog-256/u1/2015-03-16/b00001601_21i6bq_20150316_074107e.jpg'
p5792
sg4
(lp5793
(g96
g6
(g18
S'\r\xf2\xab>'
p5794
tp5795
Rp5796
tp5797
a(g15
g6
(g18
S'\xa1\xb4\xa3>'
p5798
tp5799
Rp5800
tp5801
a(g44
g6
(g18
S'(\xfc\xa0>'
p5802
tp5803
Rp5804
tp5805
a(g84
g6
(g18
S'6\xdd\xd8;'
p5806
tp5807
Rp5808
tp5809
a(g32
g6
(g18
S'\xe8b\xcf;'
p5810
tp5811
Rp5812
tp5813
asg73
g44
sa(dp5814
g2
S'../../../data/emanuela/activity-recognition/images/NTCIR-Lifelog-256/u1/2015-03-17/b00001603_21i6bq_20150317_235232e.jpg'
p5815
sg4
(lp5816
(g15
g6
(g18
S'S\x0b\xcf>'
p5817
tp5818
Rp5819
tp5820
a(g84
g6
(g18
S'x\x9a+>'
p5821
tp5822
Rp5823
tp5824
a(g116
g6
(g18
S'S`\xf0='
p5825
tp5826
Rp5827
tp5828
a(g56
g6
(g18
S'\x13\xc2\xdc='
p5829
tp5830
Rp5831
tp5832
a(g147
g6
(g18
S'\xc9\xf0\xca='
p5833
tp5834
Rp5835
tp5836
asg73
g44
sa(dp5837
g2
S'../../../data/emanuela/activity-recognition/images/NTCIR-Lifelog-256/u1/2015-03-08/b00000945_21i6bq_20150308_194149e.jpg'
p5838
sg4
(lp5839
(g44
g6
(g18
S'\xdfd(?'
p5840
tp5841
Rp5842
tp5843
a(g56
g6
(g18
S'\xa3\x98\xaa='
p5844
tp5845
Rp5846
tp5847
a(g32
g6
(g18
S'o\xb4\x8e='
p5848
tp5849
Rp5850
tp5851
a(g96
g6
(g18
S'9\x89m='
p5852
tp5853
Rp5854
tp5855
a(g15
g6
(g18
S'\xdd\xddH='
p5856
tp5857
Rp5858
tp5859
asg73
g44
sa.