(lp0
(dp1
S'image'
p2
S'../../../data/emanuela/activity-recognition/images/NTCIR-Lifelog-256/u1/2015-03-03/b00000030_21i6bq_20150303_062208e.jpg'
p3
sS'result'
p4
(lp5
(cnumpy.core.multiarray
scalar
p6
(cnumpy
dtype
p7
(S'S7'
p8
I0
I1
tp9
Rp10
(I3
S'|'
p11
NNNI7
I1
I0
tp12
bS'cooking'
p13
tp14
Rp15
g6
(g7
(S'f4'
p16
I0
I1
tp17
Rp18
(I3
S'<'
p19
NNNI-1
I-1
I0
tp20
bS'7\xb8\xda>'
p21
tp22
Rp23
tp24
a(g6
(g7
(S'S14'
p25
I0
I1
tp26
Rp27
(I3
S'|'
p28
NNNI14
I1
I0
tp29
bS'walking indoor'
p30
tp31
Rp32
g6
(g18
S'\xb4{\x82>'
p33
tp34
Rp35
tp36
a(g6
(g7
(S'S19'
p37
I0
I1
tp38
Rp39
(I3
S'|'
p40
NNNI19
I1
I0
tp41
bS'cleaning and chores'
p42
tp43
Rp44
g6
(g18
S'\x80 s>'
p45
tp46
Rp47
tp48
a(g6
(g7
(S'S7'
p49
I0
I1
tp50
Rp51
(I3
S'|'
p52
NNNI7
I1
I0
tp53
bS'talking'
p54
tp55
Rp56
g6
(g18
S'\xbab\xb5<'
p57
tp58
Rp59
tp60
a(g6
(g7
(S'S24'
p61
I0
I1
tp62
Rp63
(I3
S'|'
p64
NNNI24
I1
I0
tp65
bS'having drinks/meal alone'
p66
tp67
Rp68
g6
(g18
S'\x18\xebX<'
p69
tp70
Rp71
tp72
asS'label'
p73
g15
sa(dp74
g2
S'../../../data/emanuela/activity-recognition/images/NTCIR-Lifelog-256/u1/2015-03-05/b00000039_21i6bq_20150305_063121e.jpg'
p75
sg4
(lp76
(g32
g6
(g18
S'u\xfda?'
p77
tp78
Rp79
tp80
a(g44
g6
(g18
S'\x17\x98\x89='
p81
tp82
Rp83
tp84
a(g15
g6
(g18
S';\xa5\xa2<'
p85
tp86
Rp87
tp88
a(g56
g6
(g18
S'\x91M\x85<'
p89
tp90
Rp91
tp92
a(g6
(g7
(S'S16'
p93
I0
I1
tp94
Rp95
(I3
S'|'
p96
NNNI16
I1
I0
tp97
bS'public transport'
p98
tp99
Rp100
g6
(g18
S'n\xdf\xab;'
p101
tp102
Rp103
tp104
asg73
g15
sa(dp105
g2
S'../../../data/emanuela/activity-recognition/images/NTCIR-Lifelog-256/u1/2015-02-27/b00001169_21i6bq_20150227_210324e.jpg'
p106
sg4
(lp107
(g15
g6
(g18
S'Vn\xb2>'
p108
tp109
Rp110
tp111
a(g44
g6
(g18
S'\x90\x1a\xa7>'
p112
tp113
Rp114
tp115
a(g68
g6
(g18
S'\xe15E>'
p116
tp117
Rp118
tp119
a(g32
g6
(g18
S'\x91\xe5\xa2<'
p120
tp121
Rp122
tp123
a(g6
(g7
(S'S25'
p124
I0
I1
tp125
Rp126
(I3
S'|'
p127
NNNI25
I1
I0
tp128
bS'having meal with somebody'
p129
tp130
Rp131
g6
(g18
S'E\xb1\x9f<'
p132
tp133
Rp134
tp135
asg73
g15
sa(dp136
g2
S'../../../data/emanuela/activity-recognition/images/NTCIR-Lifelog-256/u1/2015-03-01/b00000032_21i6bq_20150301_072336e.jpg'
p137
sg4
(lp138
(g15
g6
(g18
S'\x1eY ?'
p139
tp140
Rp141
tp142
a(g44
g6
(g18
S'\x90=\x89>'
p143
tp144
Rp145
tp146
a(g131
g6
(g18
S'\xcd|\xa1<'
p147
tp148
Rp149
tp150
a(g68
g6
(g18
S'q\x80\x9e<'
p151
tp152
Rp153
tp154
a(g32
g6
(g18
S'\xe8\x93\x83<'
p155
tp156
Rp157
tp158
asg73
g15
sa(dp159
g2
S'../../../data/emanuela/activity-recognition/images/NTCIR-Lifelog-256/u1/2015-03-02/b00001156_21i6bq_20150302_191233e.jpg'
p160
sg4
(lp161
(g68
g6
(g18
S'\xff\xf5\xd1>'
p162
tp163
Rp164
tp165
a(g15
g6
(g18
S'!KH>'
p166
tp167
Rp168
tp169
a(g44
g6
(g18
S'V\xc5\x00>'
p170
tp171
Rp172
tp173
a(g32
g6
(g18
S'\x158\xc7='
p174
tp175
Rp176
tp177
a(g131
g6
(g18
S'*\xf5H='
p178
tp179
Rp180
tp181
asg73
g15
sa(dp182
g2
S'../../../data/emanuela/activity-recognition/images/NTCIR-Lifelog-256/u1/2015-03-18/b00001148_21i6bq_20150318_205536e.jpg'
p183
sg4
(lp184
(g32
g6
(g18
S'%\n\x07?'
p185
tp186
Rp187
tp188
a(g56
g6
(g18
S'\xac\x01H>'
p189
tp190
Rp191
tp192
a(g6
(g7
(S'S8'
p193
I0
I1
tp194
Rp195
(I3
S'|'
p196
NNNI8
I1
I0
tp197
bS'shopping'
p198
tp199
Rp200
g6
(g18
S'Cj?>'
p201
tp202
Rp203
tp204
a(g6
(g7
(S'S15'
p205
I0
I1
tp206
Rp207
(I3
S'|'
p208
NNNI15
I1
I0
tp209
bS'walking outdoor'
p210
tp211
Rp212
g6
(g18
S'\x8e\x13\x98<'
p213
tp214
Rp215
tp216
a(g15
g6
(g18
S'\xc1\xbfX<'
p217
tp218
Rp219
tp220
asg73
g15
sa(dp221
g2
S'../../../data/emanuela/activity-recognition/images/NTCIR-Lifelog-256/u1/2015-03-18/b00001212_21i6bq_20150318_213907e.jpg'
p222
sg4
(lp223
(g131
g6
(g18
S'\xca\x13S>'
p224
tp225
Rp226
tp227
a(g6
(g7
(S'S27'
p228
I0
I1
tp229
Rp230
(I3
S'|'
p231
NNNI27
I1
I0
tp232
bS'having drinks with somebody'
p233
tp234
Rp235
g6
(g18
S'\x95\xbfL>'
p236
tp237
Rp238
tp239
a(g6
(g7
(S'S11'
p240
I0
I1
tp241
Rp242
(I3
S'|'
p243
NNNI11
I1
I0
tp244
bS'socializing'
p245
tp246
Rp247
g6
(g18
S'c\x90(>'
p248
tp249
Rp250
tp251
a(g68
g6
(g18
S'\xd2\xfb\x1d>'
p252
tp253
Rp254
tp255
a(g44
g6
(g18
S'\x19\xba\x99='
p256
tp257
Rp258
tp259
asg73
g15
sa(dp260
g2
S'../../../data/emanuela/activity-recognition/images/NTCIR-Lifelog-256/u1/2015-03-03/b00000045_21i6bq_20150303_062611e.jpg'
p261
sg4
(lp262
(g68
g6
(g18
S'\x00\xad\xfd>'
p263
tp264
Rp265
tp266
a(g131
g6
(g18
S'\xf7y;>'
p267
tp268
Rp269
tp270
a(g235
g6
(g18
S'\x02W+>'
p271
tp272
Rp273
tp274
a(g15
g6
(g18
S'\x1ber='
p275
tp276
Rp277
tp278
a(g247
g6
(g18
S'\xae\x13[='
p279
tp280
Rp281
tp282
asg73
g15
sa(dp283
g2
S'../../../data/emanuela/activity-recognition/images/NTCIR-Lifelog-256/u1/2015-03-19/b00001890_21i6bq_20150319_102019e.jpg'
p284
sg4
(lp285
(g44
g6
(g18
S'`!\xa4>'
p286
tp287
Rp288
tp289
a(g15
g6
(g18
S'u-\x82>'
p290
tp291
Rp292
tp293
a(g6
(g7
(S'S7'
p294
I0
I1
tp295
Rp296
(I3
S'|'
p297
NNNI7
I1
I0
tp298
bS'resting'
p299
tp300
Rp301
g6
(g18
S'vhQ>'
p302
tp303
Rp304
tp305
a(g131
g6
(g18
S'r\xb6\x13='
p306
tp307
Rp308
tp309
a(g68
g6
(g18
S'\xde5\x10='
p310
tp311
Rp312
tp313
asg73
g15
sa(dp314
g2
S'../../../data/emanuela/activity-recognition/images/NTCIR-Lifelog-256/u1/2015-03-09/b00001145_21i6bq_20150309_190209e.jpg'
p315
sg4
(lp316
(g68
g6
(g18
S'\x13\x96\x18?'
p317
tp318
Rp319
tp320
a(g15
g6
(g18
S'W\xb5">'
p321
tp322
Rp323
tp324
a(g131
g6
(g18
S'\xce\xe0\xb9='
p325
tp326
Rp327
tp328
a(g44
g6
(g18
S'\x87n\xa6='
p329
tp330
Rp331
tp332
a(g6
(g7
(S'S2'
p333
I0
I1
tp334
Rp335
(I3
S'|'
p336
NNNI2
I1
I0
tp337
bS'tv'
p338
tp339
Rp340
g6
(g18
S'\xa4\x07\xc9<'
p341
tp342
Rp343
tp344
asg73
g15
sa(dp345
g2
S'../../../data/emanuela/activity-recognition/images/NTCIR-Lifelog-256/u1/2015-03-19/b00001898_21i6bq_20150319_102510e.jpg'
p346
sg4
(lp347
(g44
g6
(g18
S'\xd8wB?'
p348
tp349
Rp350
tp351
a(g68
g6
(g18
S'\xf6\x01\xca='
p352
tp353
Rp354
tp355
a(g15
g6
(g18
S'$\xb1\x95='
p356
tp357
Rp358
tp359
a(g235
g6
(g18
S'\xa1\x1f\xf0<'
p360
tp361
Rp362
tp363
a(g131
g6
(g18
S'\xaa\x9a\xe9<'
p364
tp365
Rp366
tp367
asg73
g15
sa(dp368
g2
S'../../../data/emanuela/activity-recognition/images/NTCIR-Lifelog-256/u1/2015-03-01/b00000030_21i6bq_20150301_072217e.jpg'
p369
sg4
(lp370
(g32
g6
(g18
S'g\xdc\x0f?'
p371
tp372
Rp373
tp374
a(g100
g6
(g18
S'\xc0\x8e\xe5='
p375
tp376
Rp377
tp378
a(g44
g6
(g18
S'#:\xd4='
p379
tp380
Rp381
tp382
a(g15
g6
(g18
S'I\xa8\x88='
p383
tp384
Rp385
tp386
a(g56
g6
(g18
S'\x07\xd8,='
p387
tp388
Rp389
tp390
asg73
g15
sa(dp391
g2
S'../../../data/emanuela/activity-recognition/images/NTCIR-Lifelog-256/u1/2015-03-02/b00001158_21i6bq_20150302_191349e.jpg'
p392
sg4
(lp393
(g15
g6
(g18
S'\xe6"\xad>'
p394
tp395
Rp396
tp397
a(g68
g6
(g18
S'\xf3V\x90>'
p398
tp399
Rp400
tp401
a(g131
g6
(g18
S'OQg>'
p402
tp403
Rp404
tp405
a(g44
g6
(g18
S'\x8f\xbb\xd4='
p406
tp407
Rp408
tp409
a(g32
g6
(g18
S'\xc4hF<'
p410
tp411
Rp412
tp413
asg73
g15
sa(dp414
g2
S'../../../data/emanuela/activity-recognition/images/NTCIR-Lifelog-256/u1/2015-02-24/b00001379_21i6bq_20150224_204228e.jpg'
p415
sg4
(lp416
(g6
(g7
(S'S7'
p417
I0
I1
tp418
Rp419
(I3
S'|'
p420
NNNI7
I1
I0
tp421
bS'reading'
p422
tp423
Rp424
g6
(g18
S'\xa0_D>'
p425
tp426
Rp427
tp428
a(g301
g6
(g18
S'\x8f\n->'
p429
tp430
Rp431
tp432
a(g44
g6
(g18
S'\xfa\xf4\x05>'
p433
tp434
Rp435
tp436
a(g68
g6
(g18
S'i8\xe3='
p437
tp438
Rp439
tp440
a(g6
(g7
(S'S7'
p441
I0
I1
tp442
Rp443
(I3
S'|'
p444
NNNI7
I1
I0
tp445
bS'meeting'
p446
tp447
Rp448
g6
(g18
S'\x90\x97\xc1='
p449
tp450
Rp451
tp452
asg73
g15
sa(dp453
g2
S'../../../data/emanuela/activity-recognition/images/NTCIR-Lifelog-256/u1/2015-02-26/b00000004_21i6bq_20150226_060912e.jpg'
p454
sg4
(lp455
(g15
g6
(g18
S'\x0c\x04u>'
p456
tp457
Rp458
tp459
a(g68
g6
(g18
S'\xb2\x01F>'
p460
tp461
Rp462
tp463
a(g247
g6
(g18
S'\x0f\xe0\x12>'
p464
tp465
Rp466
tp467
a(g44
g6
(g18
S'\xba\xb8\xda='
p468
tp469
Rp470
tp471
a(g131
g6
(g18
S'k\xbb\x9a='
p472
tp473
Rp474
tp475
asg73
g15
sa(dp476
g2
S'../../../data/emanuela/activity-recognition/images/NTCIR-Lifelog-256/u1/2015-03-15/b00000013_21i6bq_20150315_075231e.jpg'
p477
sg4
(lp478
(g15
g6
(g18
S"\x9c\x08'?"
p479
tp480
Rp481
tp482
a(g68
g6
(g18
S'K\x9b\xdd='
p483
tp484
Rp485
tp486
a(g44
g6
(g18
S'\x04\xcf\xd7='
p487
tp488
Rp489
tp490
a(g32
g6
(g18
S'b\xef\x98='
p491
tp492
Rp493
tp494
a(g200
g6
(g18
S'\x05g%<'
p495
tp496
Rp497
tp498
asg73
g15
sa(dp499
g2
S'../../../data/emanuela/activity-recognition/images/NTCIR-Lifelog-256/u1/2015-03-01/b00000047_21i6bq_20150301_072730e.jpg'
p500
sg4
(lp501
(g44
g6
(g18
S'\xb5-\xa4>'
p502
tp503
Rp504
tp505
a(g32
g6
(g18
S'K ^>'
p506
tp507
Rp508
tp509
a(g301
g6
(g18
S'R\xaa\x01>'
p510
tp511
Rp512
tp513
a(g212
g6
(g18
S'\xf1\xa1\xd3='
p514
tp515
Rp516
tp517
a(g6
(g7
(S'S6'
p518
I0
I1
tp519
Rp520
(I3
S'|'
p521
NNNI6
I1
I0
tp522
bS'mobile'
p523
tp524
Rp525
g6
(g18
S'\xab\x89\x8d='
p526
tp527
Rp528
tp529
asg73
g15
sa(dp530
g2
S'../../../data/emanuela/activity-recognition/images/NTCIR-Lifelog-256/u1/2015-03-15/b00000008_21i6bq_20150315_075228e.jpg'
p531
sg4
(lp532
(g15
g6
(g18
S'7\xd4/?'
p533
tp534
Rp535
tp536
a(g44
g6
(g18
S'\xb3\xf5\xdc='
p537
tp538
Rp539
tp540
a(g301
g6
(g18
S'\xf8c\xc9='
p541
tp542
Rp543
tp544
a(g32
g6
(g18
S'\x87\xd1d='
p545
tp546
Rp547
tp548
a(g68
g6
(g18
S'\xd6\x1b2='
p549
tp550
Rp551
tp552
asg73
g15
sa(dp553
g2
S'../../../data/emanuela/activity-recognition/images/NTCIR-Lifelog-256/u1/2015-02-24/b00000006_21i6bq_20150224_064359e.jpg'
p554
sg4
(lp555
(g56
g6
(g18
S'\xe0B@>'
p556
tp557
Rp558
tp559
a(g68
g6
(g18
S's[?>'
p560
tp561
Rp562
tp563
a(g32
g6
(g18
S'\xa1p)>'
p564
tp565
Rp566
tp567
a(g424
g6
(g18
S'\x1e\xcd\xae='
p568
tp569
Rp570
tp571
a(g6
(g7
(S'S19'
p572
I0
I1
tp573
Rp574
(I3
S'|'
p575
NNNI19
I1
I0
tp576
bS'attending a seminar'
p577
tp578
Rp579
g6
(g18
S'\x80}\x92='
p580
tp581
Rp582
tp583
asg73
g15
sa(dp584
g2
S'../../../data/emanuela/activity-recognition/images/NTCIR-Lifelog-256/u1/2015-03-01/b00000038_21i6bq_20150301_072638e.jpg'
p585
sg4
(lp586
(g15
g6
(g18
S'\xe0cU?'
p587
tp588
Rp589
tp590
a(g68
g6
(g18
S'\x03\xc1|='
p591
tp592
Rp593
tp594
a(g44
g6
(g18
S'\x9f\x10S='
p595
tp596
Rp597
tp598
a(g131
g6
(g18
S'\xb4\xed ='
p599
tp600
Rp601
tp602
a(g32
g6
(g18
S'\x9cT\x84;'
p603
tp604
Rp605
tp606
asg73
g15
sa(dp607
g2
S'../../../data/emanuela/activity-recognition/images/NTCIR-Lifelog-256/u1/2015-03-01/b00000037_21i6bq_20150301_072637e.jpg'
p608
sg4
(lp609
(g15
g6
(g18
S'K\x90R?'
p610
tp611
Rp612
tp613
a(g68
g6
(g18
S'\xe8*p='
p614
tp615
Rp616
tp617
a(g44
g6
(g18
S'6\xc1\x03='
p618
tp619
Rp620
tp621
a(g131
g6
(g18
S'\xce\n\xd4<'
p622
tp623
Rp624
tp625
a(g32
g6
(g18
S'\xdaO\xa9<'
p626
tp627
Rp628
tp629
asg73
g15
sa(dp630
g2
S'../../../data/emanuela/activity-recognition/images/NTCIR-Lifelog-256/u1/2015-02-23/b00000012_21i6bq_20150223_070931e.jpg'
p631
sg4
(lp632
(g235
g6
(g18
S'\xef|\t?'
p633
tp634
Rp635
tp636
a(g131
g6
(g18
S'\xc5qG>'
p637
tp638
Rp639
tp640
a(g44
g6
(g18
S' \x13,>'
p641
tp642
Rp643
tp644
a(g68
g6
(g18
S'\xfa\x00\xcd<'
p645
tp646
Rp647
tp648
a(g301
g6
(g18
S'\xa6\x8d\xba<'
p649
tp650
Rp651
tp652
asg73
g15
sa(dp653
g2
S'../../../data/emanuela/activity-recognition/images/NTCIR-Lifelog-256/u1/2015-03-09/b00001153_21i6bq_20150309_190742e.jpg'
p654
sg4
(lp655
(g68
g6
(g18
S'7*5?'
p656
tp657
Rp658
tp659
a(g15
g6
(g18
S'\x92\xbbK>'
p660
tp661
Rp662
tp663
a(g131
g6
(g18
S'\x84\x06\x83='
p664
tp665
Rp666
tp667
a(g44
g6
(g18
S'\x12j\x94<'
p668
tp669
Rp670
tp671
a(g200
g6
(g18
S'\xaa\xd0\xb5;'
p672
tp673
Rp674
tp675
asg73
g15
sa(dp676
g2
S'../../../data/emanuela/activity-recognition/images/NTCIR-Lifelog-256/u1/2015-03-02/b00001162_21i6bq_20150302_191643e.jpg'
p677
sg4
(lp678
(g68
g6
(g18
S'm1[>'
p679
tp680
Rp681
tp682
a(g32
g6
(g18
S'\xb2|T>'
p683
tp684
Rp685
tp686
a(g235
g6
(g18
S'.|\xdd='
p687
tp688
Rp689
tp690
a(g44
g6
(g18
S'k?\xd0='
p691
tp692
Rp693
tp694
a(g525
g6
(g18
S'I\x07\xa3='
p695
tp696
Rp697
tp698
asg73
g15
sa(dp699
g2
S'../../../data/emanuela/activity-recognition/images/NTCIR-Lifelog-256/u1/2015-03-01/b00000019_21i6bq_20150301_072047e.jpg'
p700
sg4
(lp701
(g15
g6
(g18
S'v\x83\xed>'
p702
tp703
Rp704
tp705
a(g6
(g7
(S'S5'
p706
I0
I1
tp707
Rp708
(I3
S'|'
p709
NNNI5
I1
I0
tp710
bS'plane'
p711
tp712
Rp713
g6
(g18
S':\x16v>'
p714
tp715
Rp716
tp717
a(g44
g6
(g18
S'%\xf3\xa2='
p718
tp719
Rp720
tp721
a(g68
g6
(g18
S'\x96c\x92='
p722
tp723
Rp724
tp725
a(g32
g6
(g18
S"\xa6('="
p726
tp727
Rp728
tp729
asg73
g15
sa(dp730
g2
S'../../../data/emanuela/activity-recognition/images/NTCIR-Lifelog-256/u1/2015-03-02/b00001087_21i6bq_20150302_182956e.jpg'
p731
sg4
(lp732
(g68
g6
(g18
S'`b\x96>'
p733
tp734
Rp735
tp736
a(g44
g6
(g18
S'@\x06=>'
p737
tp738
Rp739
tp740
a(g525
g6
(g18
S'\xe8\xfc\n>'
p741
tp742
Rp743
tp744
a(g424
g6
(g18
S'>\xa2\x9f='
p745
tp746
Rp747
tp748
a(g32
g6
(g18
S'W|?='
p749
tp750
Rp751
tp752
asg73
g15
sa(dp753
g2
S'../../../data/emanuela/activity-recognition/images/NTCIR-Lifelog-256/u1/2015-03-03/b00000038_21i6bq_20150303_062412e.jpg'
p754
sg4
(lp755
(g68
g6
(g18
S'\x04\xf8\xa6>'
p756
tp757
Rp758
tp759
a(g44
g6
(g18
S't;w>'
p760
tp761
Rp762
tp763
a(g131
g6
(g18
S'\x84\x0f\x95='
p764
tp765
Rp766
tp767
a(g525
g6
(g18
S'\xfc\x87k='
p768
tp769
Rp770
tp771
a(g15
g6
(g18
S'\x9e\x94W='
p772
tp773
Rp774
tp775
asg73
g15
sa(dp776
g2
S'../../../data/emanuela/activity-recognition/images/NTCIR-Lifelog-256/u1/2015-03-15/b00000005_21i6bq_20150315_075113e.jpg'
p777
sg4
(lp778
(g15
g6
(g18
S'\x7fl\x04?'
p779
tp780
Rp781
tp782
a(g44
g6
(g18
S'\xe4\xb9\xd9>'
p783
tp784
Rp785
tp786
a(g68
g6
(g18
S'\x01\xeb\x04='
p787
tp788
Rp789
tp790
a(g301
g6
(g18
S'\xc7\xcca<'
p791
tp792
Rp793
tp794
a(g32
g6
(g18
S'\xa57v;'
p795
tp796
Rp797
tp798
asg73
g15
sa(dp799
g2
S'../../../data/emanuela/activity-recognition/images/NTCIR-Lifelog-256/u1/2015-03-15/b00000010_21i6bq_20150315_075229e.jpg'
p800
sg4
(lp801
(g32
g6
(g18
S'\xa7\x9f\x17?'
p802
tp803
Rp804
tp805
a(g44
g6
(g18
S'\x18\x90g>'
p806
tp807
Rp808
tp809
a(g15
g6
(g18
S'\x19\xc4\xd4='
p810
tp811
Rp812
tp813
a(g525
g6
(g18
S')T\x8b<'
p814
tp815
Rp816
tp817
a(g56
g6
(g18
S'\xad\xe7\x85<'
p818
tp819
Rp820
tp821
asg73
g15
sa(dp822
g2
S'../../../data/emanuela/activity-recognition/images/NTCIR-Lifelog-256/u1/2015-03-05/b00000036_21i6bq_20150305_062943e.jpg'
p823
sg4
(lp824
(g68
g6
(g18
S'|\xd3\x10?'
p825
tp826
Rp827
tp828
a(g15
g6
(g18
S'\xb5\xaa9>'
p829
tp830
Rp831
tp832
a(g301
g6
(g18
S'\xb2[K='
p833
tp834
Rp835
tp836
a(g32
g6
(g18
S'i\xcb/='
p837
tp838
Rp839
tp840
a(g200
g6
(g18
S'\xf0n\x0c='
p841
tp842
Rp843
tp844
asg73
g15
sa(dp845
g2
S'../../../data/emanuela/activity-recognition/images/NTCIR-Lifelog-256/u1/2015-03-08/b00000790_21i6bq_20150308_173148e.jpg'
p846
sg4
(lp847
(g32
g6
(g18
S'\xe4\xe1!>'
p848
tp849
Rp850
tp851
a(g131
g6
(g18
S'\x12\x86\x10>'
p852
tp853
Rp854
tp855
a(g200
g6
(g18
S'1\xf7\x0b>'
p856
tp857
Rp858
tp859
a(g235
g6
(g18
S'\xfcP\xfc='
p860
tp861
Rp862
tp863
a(g15
g6
(g18
S'{\x85\xef='
p864
tp865
Rp866
tp867
asg73
g15
sa(dp868
g2
S'../../../data/emanuela/activity-recognition/images/NTCIR-Lifelog-256/u1/2015-03-15/b00000000_21i6bq_20150315_074732e.jpg'
p869
sg4
(lp870
(g32
g6
(g18
S'\x84&\xe6>'
p871
tp872
Rp873
tp874
a(g15
g6
(g18
S'\x92\x06\x1a>'
p875
tp876
Rp877
tp878
a(g44
g6
(g18
S'\x9f:\xc9='
p879
tp880
Rp881
tp882
a(g68
g6
(g18
S't\xb9\xb8='
p883
tp884
Rp885
tp886
a(g424
g6
(g18
S'U\xb6 ='
p887
tp888
Rp889
tp890
asg73
g15
sa(dp891
g2
S'../../../data/emanuela/activity-recognition/images/NTCIR-Lifelog-256/u1/2015-03-09/b00001108_21i6bq_20150309_183905e.jpg'
p892
sg4
(lp893
(g68
g6
(g18
S'\x9e1)?'
p894
tp895
Rp896
tp897
a(g131
g6
(g18
S'\xb3\x10\xa1>'
p898
tp899
Rp900
tp901
a(g340
g6
(g18
S'Cd\x06<'
p902
tp903
Rp904
tp905
a(g15
g6
(g18
S'\xba#\xc9;'
p906
tp907
Rp908
tp909
a(g44
g6
(g18
S'\x1c=P;'
p910
tp911
Rp912
tp913
asg73
g15
sa(dp914
g2
S'../../../data/emanuela/activity-recognition/images/NTCIR-Lifelog-256/u1/2015-03-01/b00000049_21i6bq_20150301_072840e.jpg'
p915
sg4
(lp916
(g44
g6
(g18
S'\xb1\xf2\xd2>'
p917
tp918
Rp919
tp920
a(g68
g6
(g18
S'\xb7\x83\x81>'
p921
tp922
Rp923
tp924
a(g15
g6
(g18
S'(P\xa5='
p925
tp926
Rp927
tp928
a(g525
g6
(g18
S'p\x0cx='
p929
tp930
Rp931
tp932
a(g32
g6
(g18
S'\x012W='
p933
tp934
Rp935
tp936
asg73
g15
sa(dp937
g2
S'../../../data/emanuela/activity-recognition/images/NTCIR-Lifelog-256/u1/2015-03-03/b00000039_21i6bq_20150303_062413e.jpg'
p938
sg4
(lp939
(g44
g6
(g18
S'\xcb\xfd\xe6>'
p940
tp941
Rp942
tp943
a(g32
g6
(g18
S'\xf1I\x92>'
p944
tp945
Rp946
tp947
a(g15
g6
(g18
S'\x81>\xb8='
p948
tp949
Rp950
tp951
a(g131
g6
(g18
S'`c ='
p952
tp953
Rp954
tp955
a(g212
g6
(g18
S'{\x91\x07='
p956
tp957
Rp958
tp959
asg73
g15
sa(dp960
g2
S'../../../data/emanuela/activity-recognition/images/NTCIR-Lifelog-256/u1/2015-03-01/b00000024_21i6bq_20150301_072050e.jpg'
p961
sg4
(lp962
(g15
g6
(g18
S'\x13\xe1\x18?'
p963
tp964
Rp965
tp966
a(g44
g6
(g18
S'%\x14@>'
p967
tp968
Rp969
tp970
a(g32
g6
(g18
S'E\x12\x85='
p971
tp972
Rp973
tp974
a(g68
g6
(g18
S'\xd5\x9e1='
p975
tp976
Rp977
tp978
a(g131
g6
(g18
S'\x8b\xc6\x03='
p979
tp980
Rp981
tp982
asg73
g15
sa(dp983
g2
S'../../../data/emanuela/activity-recognition/images/NTCIR-Lifelog-256/u1/2015-03-15/b00000863_21i6bq_20150315_160013e.jpg'
p984
sg4
(lp985
(g235
g6
(g18
S'<*\x13?'
p986
tp987
Rp988
tp989
a(g247
g6
(g18
S'\xfd\xb0@>'
p990
tp991
Rp992
tp993
a(g32
g6
(g18
S'\xef.\xf9='
p994
tp995
Rp996
tp997
a(g200
g6
(g18
S'\x8b\xe8>='
p998
tp999
Rp1000
tp1001
a(g56
g6
(g18
S"n'\x0b="
p1002
tp1003
Rp1004
tp1005
asg73
g15
sa(dp1006
g2
S'../../../data/emanuela/activity-recognition/images/NTCIR-Lifelog-256/u1/2015-03-03/b00000033_21i6bq_20150303_062408e.jpg'
p1007
sg4
(lp1008
(g235
g6
(g18
S'\xdci\x04?'
p1009
tp1010
Rp1011
tp1012
a(g68
g6
(g18
S'\xdbJ^>'
p1013
tp1014
Rp1015
tp1016
a(g247
g6
(g18
S'Y\x1d\x1d>'
p1017
tp1018
Rp1019
tp1020
a(g131
g6
(g18
S'/\x97C='
p1021
tp1022
Rp1023
tp1024
a(g44
g6
(g18
S'x\x84\xaa<'
p1025
tp1026
Rp1027
tp1028
asg73
g15
sa(dp1029
g2
S'../../../data/emanuela/activity-recognition/images/NTCIR-Lifelog-256/u1/2015-02-23/b00000951_21i6bq_20150223_172831e.jpg'
p1030
sg4
(lp1031
(g68
g6
(g18
S'\x93\x16Y>'
p1032
tp1033
Rp1034
tp1035
a(g301
g6
(g18
S"F0'>"
p1036
tp1037
Rp1038
tp1039
a(g44
g6
(g18
S'\xde\xcf\x0f>'
p1040
tp1041
Rp1042
tp1043
a(g131
g6
(g18
S'\x1dx\xc8='
p1044
tp1045
Rp1046
tp1047
a(g56
g6
(g18
S'4\xee\x98='
p1048
tp1049
Rp1050
tp1051
asg73
g15
sa(dp1052
g2
S'../../../data/emanuela/activity-recognition/images/NTCIR-Lifelog-256/u1/2015-02-27/b00001167_21i6bq_20150227_210210e.jpg'
p1053
sg4
(lp1054
(g44
g6
(g18
S'\x9cC\xe8>'
p1055
tp1056
Rp1057
tp1058
a(g15
g6
(g18
S'\x8fy\xb0>'
p1059
tp1060
Rp1061
tp1062
a(g68
g6
(g18
S'\x04,\xa4='
p1063
tp1064
Rp1065
tp1066
a(g32
g6
(g18
S'B\x1f\x07='
p1067
tp1068
Rp1069
tp1070
a(g200
g6
(g18
S'\x11\x7f\xae<'
p1071
tp1072
Rp1073
tp1074
asg73
g15
sa(dp1075
g2
S'../../../data/emanuela/activity-recognition/images/NTCIR-Lifelog-256/u1/2015-03-03/b00000037_21i6bq_20150303_062411e.jpg'
p1076
sg4
(lp1077
(g68
g6
(g18
S'(\xb0\x82>'
p1078
tp1079
Rp1080
tp1081
a(g44
g6
(g18
S'\xc4\xa61>'
p1082
tp1083
Rp1084
tp1085
a(g131
g6
(g18
S'\xedY%>'
p1086
tp1087
Rp1088
tp1089
a(g235
g6
(g18
S'\xc9i\xa7='
p1090
tp1091
Rp1092
tp1093
a(g247
g6
(g18
S'\xd3\xee\xa6='
p1094
tp1095
Rp1096
tp1097
asg73
g15
sa(dp1098
g2
S'../../../data/emanuela/activity-recognition/images/NTCIR-Lifelog-256/u1/2015-02-27/b00001184_21i6bq_20150227_211306e.jpg'
p1099
sg4
(lp1100
(g68
g6
(g18
S'wWN?'
p1101
tp1102
Rp1103
tp1104
a(g131
g6
(g18
S'\xb8z\xc9='
p1105
tp1106
Rp1107
tp1108
a(g15
g6
(g18
S'\xdc\xa1\xde<'
p1109
tp1110
Rp1111
tp1112
a(g247
g6
(g18
S'\xe9\x83P<'
p1113
tp1114
Rp1115
tp1116
a(g200
g6
(g18
S'\x01_9<'
p1117
tp1118
Rp1119
tp1120
asg73
g15
sa(dp1121
g2
S'../../../data/emanuela/activity-recognition/images/NTCIR-Lifelog-256/u1/2015-03-18/b00001195_21i6bq_20150318_212813e.jpg'
p1122
sg4
(lp1123
(g713
g6
(g18
S'B\xe3=?'
p1124
tp1125
Rp1126
tp1127
a(g6
(g7
(S'S7'
p1128
I0
I1
tp1129
Rp1130
(I3
S'|'
p1131
NNNI7
I1
I0
tp1132
bS'working'
p1133
tp1134
Rp1135
g6
(g18
S'z\xaa\xb6='
p1136
tp1137
Rp1138
tp1139
a(g100
g6
(g18
S'\r\xc7\x1e='
p1140
tp1141
Rp1142
tp1143
a(g424
g6
(g18
S'\x98_\x14='
p1144
tp1145
Rp1146
tp1147
a(g32
g6
(g18
S'k"\x0e='
p1148
tp1149
Rp1150
tp1151
asg73
g15
sa(dp1152
g2
S'../../../data/emanuela/activity-recognition/images/NTCIR-Lifelog-256/u1/2015-03-01/b00000054_21i6bq_20150301_073136e.jpg'
p1153
sg4
(lp1154
(g44
g6
(g18
S'@\xb0\x15?'
p1155
tp1156
Rp1157
tp1158
a(g15
g6
(g18
S'\xe8\x9c\xc3>'
p1159
tp1160
Rp1161
tp1162
a(g32
g6
(g18
S'm\xdf\xd5<'
p1163
tp1164
Rp1165
tp1166
a(g68
g6
(g18
S'6\xaf\\;'
p1167
tp1168
Rp1169
tp1170
a(g56
g6
(g18
S'i\xc0n:'
p1171
tp1172
Rp1173
tp1174
asg73
g15
sa(dp1175
g2
S'../../../data/emanuela/activity-recognition/images/NTCIR-Lifelog-256/u1/2015-03-13/b00001278_21i6bq_20150313_215646e.jpg'
p1176
sg4
(lp1177
(g247
g6
(g18
S'\x8e\xff\xfd>'
p1178
tp1179
Rp1180
tp1181
a(g44
g6
(g18
S'\xafQW>'
p1182
tp1183
Rp1184
tp1185
a(g32
g6
(g18
S'\xdfj\x0e>'
p1186
tp1187
Rp1188
tp1189
a(g56
g6
(g18
S'\xd8\x0cm='
p1190
tp1191
Rp1192
tp1193
a(g15
g6
(g18
S'\xe2\x88.='
p1194
tp1195
Rp1196
tp1197
asg73
g15
sa(dp1198
g2
S'../../../data/emanuela/activity-recognition/images/NTCIR-Lifelog-256/u1/2015-02-23/b00000959_21i6bq_20150223_173425e.jpg'
p1199
sg4
(lp1200
(g15
g6
(g18
S'\x1b\x07\xe2>'
p1201
tp1202
Rp1203
tp1204
a(g68
g6
(g18
S'Dw\xd3>'
p1205
tp1206
Rp1207
tp1208
a(g131
g6
(g18
S'UM\x17='
p1209
tp1210
Rp1211
tp1212
a(g44
g6
(g18
S'\xe0e\x10='
p1213
tp1214
Rp1215
tp1216
a(g200
g6
(g18
S'\x8a\xe6\xab<'
p1217
tp1218
Rp1219
tp1220
asg73
g15
sa(dp1221
g2
S'../../../data/emanuela/activity-recognition/images/NTCIR-Lifelog-256/u1/2015-03-15/b00000004_21i6bq_20150315_075040e.jpg'
p1222
sg4
(lp1223
(g32
g6
(g18
S'\x82\xfcJ?'
p1224
tp1225
Rp1226
tp1227
a(g15
g6
(g18
S'\x15\x93\x95='
p1228
tp1229
Rp1230
tp1231
a(g44
g6
(g18
S'\xa8\x80-='
p1232
tp1233
Rp1234
tp1235
a(g200
g6
(g18
S'\x1f\x02\x97<'
p1236
tp1237
Rp1238
tp1239
a(g100
g6
(g18
S'Ot\x84<'
p1240
tp1241
Rp1242
tp1243
asg73
g15
sa(dp1244
g2
S'../../../data/emanuela/activity-recognition/images/NTCIR-Lifelog-256/u1/2015-02-24/b00000007_21i6bq_20150224_064436e.jpg'
p1245
sg4
(lp1246
(g301
g6
(g18
S'8w\x8b>'
p1247
tp1248
Rp1249
tp1250
a(g424
g6
(g18
S'7\x12J>'
p1251
tp1252
Rp1253
tp1254
a(g15
g6
(g18
S'\x0b\x86\xf2='
p1255
tp1256
Rp1257
tp1258
a(g1135
g6
(g18
S'\xa3p\xe4='
p1259
tp1260
Rp1261
tp1262
a(g68
g6
(g18
S'\x14\xecZ='
p1263
tp1264
Rp1265
tp1266
asg73
g15
sa(dp1267
g2
S'../../../data/emanuela/activity-recognition/images/NTCIR-Lifelog-256/u1/2015-03-18/b00001149_21i6bq_20150318_205614e.jpg'
p1268
sg4
(lp1269
(g15
g6
(g18
S'\x96\xef\xd2>'
p1270
tp1271
Rp1272
tp1273
a(g44
g6
(g18
S'^\xb2\xa3>'
p1274
tp1275
Rp1276
tp1277
a(g32
g6
(g18
S'L\x80\xef='
p1278
tp1279
Rp1280
tp1281
a(g713
g6
(g18
S'\xa7\xac\xc5='
p1282
tp1283
Rp1284
tp1285
a(g424
g6
(g18
S'>\xc9{<'
p1286
tp1287
Rp1288
tp1289
asg73
g15
sa(dp1290
g2
S'../../../data/emanuela/activity-recognition/images/NTCIR-Lifelog-256/u1/2015-02-26/b00000006_21i6bq_20150226_061032e.jpg'
p1291
sg4
(lp1292
(g44
g6
(g18
S'fq\x1a?'
p1293
tp1294
Rp1295
tp1296
a(g15
g6
(g18
S'\xb0\xe8U>'
p1297
tp1298
Rp1299
tp1300
a(g32
g6
(g18
S'\xdf<\xb2='
p1301
tp1302
Rp1303
tp1304
a(g68
g6
(g18
S'\x00\xe1\x83='
p1305
tp1306
Rp1307
tp1308
a(g424
g6
(g18
S'T\x1b\x19<'
p1309
tp1310
Rp1311
tp1312
asg73
g15
sa(dp1313
g2
S'../../../data/emanuela/activity-recognition/images/NTCIR-Lifelog-256/u1/2015-02-23/b00000952_21i6bq_20150223_172904e.jpg'
p1314
sg4
(lp1315
(g68
g6
(g18
S'R\x91\x15?'
p1316
tp1317
Rp1318
tp1319
a(g44
g6
(g18
S'\x9eL\xdf='
p1320
tp1321
Rp1322
tp1323
a(g15
g6
(g18
S'\xd2\xd9\x82='
p1324
tp1325
Rp1326
tp1327
a(g579
g6
(g18
S'R\x85h='
p1328
tp1329
Rp1330
tp1331
a(g424
g6
(g18
S'\xbeQ-='
p1332
tp1333
Rp1334
tp1335
asg73
g15
sa(dp1336
g2
S'../../../data/emanuela/activity-recognition/images/NTCIR-Lifelog-256/u1/2015-03-13/b00001280_21i6bq_20150313_215801e.jpg'
p1337
sg4
(lp1338
(g68
g6
(g18
S'\x95\x81\xc2>'
p1339
tp1340
Rp1341
tp1342
a(g131
g6
(g18
S'nss>'
p1343
tp1344
Rp1345
tp1346
a(g340
g6
(g18
S'\xf2`\xe9='
p1347
tp1348
Rp1349
tp1350
a(g525
g6
(g18
S'\xd9|\x86='
p1351
tp1352
Rp1353
tp1354
a(g32
g6
(g18
S'k\xe0]='
p1355
tp1356
Rp1357
tp1358
asg73
g15
sa(dp1359
g2
S'../../../data/emanuela/activity-recognition/images/NTCIR-Lifelog-256/u1/2015-03-01/b00000055_21i6bq_20150301_073217e.jpg'
p1360
sg4
(lp1361
(g44
g6
(g18
S'{!\xa0>'
p1362
tp1363
Rp1364
tp1365
a(g32
g6
(g18
S'\x19\xccN>'
p1366
tp1367
Rp1368
tp1369
a(g235
g6
(g18
S')c*>'
p1370
tp1371
Rp1372
tp1373
a(g15
g6
(g18
S'\xca_\xc5='
p1374
tp1375
Rp1376
tp1377
a(g131
g6
(g18
S'U\x87b='
p1378
tp1379
Rp1380
tp1381
asg73
g15
sa(dp1382
g2
S'../../../data/emanuela/activity-recognition/images/NTCIR-Lifelog-256/u1/2015-03-18/b00001214_21i6bq_20150318_214017e.jpg'
p1383
sg4
(lp1384
(g32
g6
(g18
S'\x18\x86\x19?'
p1385
tp1386
Rp1387
tp1388
a(g56
g6
(g18
S'\x0c\xfb\x9f>'
p1389
tp1390
Rp1391
tp1392
a(g247
g6
(g18
S'\xf2\xed\x16='
p1393
tp1394
Rp1395
tp1396
a(g44
g6
(g18
S'\xf4w\x12<'
p1397
tp1398
Rp1399
tp1400
a(g212
g6
(g18
S'\xea\x87\x00<'
p1401
tp1402
Rp1403
tp1404
asg73
g15
sa(dp1405
g2
S'../../../data/emanuela/activity-recognition/images/NTCIR-Lifelog-256/u1/2015-03-05/b00000037_21i6bq_20150305_063015e.jpg'
p1406
sg4
(lp1407
(g68
g6
(g18
S'Z_:?'
p1408
tp1409
Rp1410
tp1411
a(g131
g6
(g18
S'\xb7.Y>'
p1412
tp1413
Rp1414
tp1415
a(g15
g6
(g18
S'+\x8e<='
p1416
tp1417
Rp1418
tp1419
a(g235
g6
(g18
S'a\xc9p;'
p1420
tp1421
Rp1422
tp1423
a(g200
g6
(g18
S'\x1c\xf3b;'
p1424
tp1425
Rp1426
tp1427
asg73
g15
sa(dp1428
g2
S'../../../data/emanuela/activity-recognition/images/NTCIR-Lifelog-256/u1/2015-03-01/b00000042_21i6bq_20150301_072641e.jpg'
p1429
sg4
(lp1430
(g15
g6
(g18
S'\x965K?'
p1431
tp1432
Rp1433
tp1434
a(g44
g6
(g18
S'`\xf7\xe8='
p1435
tp1436
Rp1437
tp1438
a(g32
g6
(g18
S' n\x85='
p1439
tp1440
Rp1441
tp1442
a(g68
g6
(g18
S'Z\xd5\xbc;'
p1443
tp1444
Rp1445
tp1446
a(g56
g6
(g18
S'\xc4\x82\xa4;'
p1447
tp1448
Rp1449
tp1450
asg73
g15
sa(dp1451
g2
S'../../../data/emanuela/activity-recognition/images/NTCIR-Lifelog-256/u1/2015-03-15/b00000046_21i6bq_20150315_081136e.jpg'
p1452
sg4
(lp1453
(g32
g6
(g18
S'\xd1\x87V?'
p1454
tp1455
Rp1456
tp1457
a(g15
g6
(g18
S"'\xbf\xf3="
p1458
tp1459
Rp1460
tp1461
a(g44
g6
(g18
S'bJ\xeb<'
p1462
tp1463
Rp1464
tp1465
a(g56
g6
(g18
S'\xc1\xf6\xe8;'
p1466
tp1467
Rp1468
tp1469
a(g301
g6
(g18
S'v\xda\x16;'
p1470
tp1471
Rp1472
tp1473
asg73
g15
sa(dp1474
g2
S'../../../data/emanuela/activity-recognition/images/NTCIR-Lifelog-256/u1/2015-03-02/b00001088_21i6bq_20150302_183032e.jpg'
p1475
sg4
(lp1476
(g44
g6
(g18
S'v-\x13?'
p1477
tp1478
Rp1479
tp1480
a(g15
g6
(g18
S'\xfc]\x8a>'
p1481
tp1482
Rp1483
tp1484
a(g32
g6
(g18
S'zX\x8a='
p1485
tp1486
Rp1487
tp1488
a(g235
g6
(g18
S'V\x94\xe1<'
p1489
tp1490
Rp1491
tp1492
a(g68
g6
(g18
S'\xd6\x08\x92<'
p1493
tp1494
Rp1495
tp1496
asg73
g15
sa(dp1497
g2
S'../../../data/emanuela/activity-recognition/images/NTCIR-Lifelog-256/u1/2015-03-01/b00000041_21i6bq_20150301_072640e.jpg'
p1498
sg4
(lp1499
(g15
g6
(g18
S'\x1cp\xf0>'
p1500
tp1501
Rp1502
tp1503
a(g44
g6
(g18
S'\xc7\xe1{>'
p1504
tp1505
Rp1506
tp1507
a(g32
g6
(g18
S'\xf3a\x1a>'
p1508
tp1509
Rp1510
tp1511
a(g56
g6
(g18
S'V\xa0\x0c='
p1512
tp1513
Rp1514
tp1515
a(g68
g6
(g18
S'\x7f\x16\x82<'
p1516
tp1517
Rp1518
tp1519
asg73
g15
sa(dp1520
g2
S'../../../data/emanuela/activity-recognition/images/NTCIR-Lifelog-256/u1/2015-03-09/b00001154_21i6bq_20150309_190820e.jpg'
p1521
sg4
(lp1522
(g32
g6
(g18
S'\x1c\xfb\xec>'
p1523
tp1524
Rp1525
tp1526
a(g15
g6
(g18
S'\\\xe1\x11>'
p1527
tp1528
Rp1529
tp1530
a(g200
g6
(g18
S'\xde\xe7\xa7='
p1531
tp1532
Rp1533
tp1534
a(g68
g6
(g18
S'\x8cK\x91='
p1535
tp1536
Rp1537
tp1538
a(g56
g6
(g18
S';\xd8F='
p1539
tp1540
Rp1541
tp1542
asg73
g15
sa(dp1543
g2
S'../../../data/emanuela/activity-recognition/images/NTCIR-Lifelog-256/u1/2015-03-05/b00000040_21i6bq_20150305_063155e.jpg'
p1544
sg4
(lp1545
(g32
g6
(g18
S'\xeb\xd5\x9c>'
p1546
tp1547
Rp1548
tp1549
a(g247
g6
(g18
S'5\xcdD>'
p1550
tp1551
Rp1552
tp1553
a(g44
g6
(g18
S'\xc0\xb9#>'
p1554
tp1555
Rp1556
tp1557
a(g68
g6
(g18
S'\xfc\xc0\xfa='
p1558
tp1559
Rp1560
tp1561
a(g301
g6
(g18
S'f\x80\xb9='
p1562
tp1563
Rp1564
tp1565
asg73
g15
sa(dp1566
g2
S'../../../data/emanuela/activity-recognition/images/NTCIR-Lifelog-256/u1/2015-03-02/b00001163_21i6bq_20150302_191717e.jpg'
p1567
sg4
(lp1568
(g68
g6
(g18
S'\xb9K7?'
p1569
tp1570
Rp1571
tp1572
a(g131
g6
(g18
S'\xf2\xaa)>'
p1573
tp1574
Rp1575
tp1576
a(g448
g6
(g18
S'@3\r='
p1577
tp1578
Rp1579
tp1580
a(g44
g6
(g18
S'\x9e\xed\x06='
p1581
tp1582
Rp1583
tp1584
a(g32
g6
(g18
S'\x16\x03U<'
p1585
tp1586
Rp1587
tp1588
asg73
g15
sa(dp1589
g2
S'../../../data/emanuela/activity-recognition/images/NTCIR-Lifelog-256/u1/2015-02-23/b00000957_21i6bq_20150223_173213e.jpg'
p1590
sg4
(lp1591
(g235
g6
(g18
S'\xdcg\xee>'
p1592
tp1593
Rp1594
tp1595
a(g44
g6
(g18
S'\x19\x90N>'
p1596
tp1597
Rp1598
tp1599
a(g6
(g7
(S'S6'
p1600
I0
I1
tp1601
Rp1602
(I3
S'|'
p1603
NNNI6
I1
I0
tp1604
bS'biking'
p1605
tp1606
Rp1607
g6
(g18
S'\x81\xbc\xab='
p1608
tp1609
Rp1610
tp1611
a(g131
g6
(g18
S'\x00R\x9b='
p1612
tp1613
Rp1614
tp1615
a(g68
g6
(g18
S'\xfe\xe9 ='
p1616
tp1617
Rp1618
tp1619
asg73
g15
sa(dp1620
g2
S'../../../data/emanuela/activity-recognition/images/NTCIR-Lifelog-256/u1/2015-02-23/b00001012_21i6bq_20150223_181014e.jpg'
p1621
sg4
(lp1622
(g235
g6
(g18
S'\xc9j\xd3>'
p1623
tp1624
Rp1625
tp1626
a(g131
g6
(g18
S')\xa77>'
p1627
tp1628
Rp1629
tp1630
a(g68
g6
(g18
S'\x12\xee\xe1='
p1631
tp1632
Rp1633
tp1634
a(g56
g6
(g18
S'w\x99\xba='
p1635
tp1636
Rp1637
tp1638
a(g247
g6
(g18
S'i\xab\xaa='
p1639
tp1640
Rp1641
tp1642
asg73
g15
sa(dp1643
g2
S'../../../data/emanuela/activity-recognition/images/NTCIR-Lifelog-256/u1/2015-02-27/b00001160_21i6bq_20150227_205758e.jpg'
p1644
sg4
(lp1645
(g68
g6
(g18
S'\xb6\xe4_?'
p1646
tp1647
Rp1648
tp1649
a(g131
g6
(g18
S'[\x0f\x82='
p1650
tp1651
Rp1652
tp1653
a(g15
g6
(g18
S'U\x08\xf1<'
p1654
tp1655
Rp1656
tp1657
a(g44
g6
(g18
S'\xc8[\x9e<'
p1658
tp1659
Rp1660
tp1661
a(g200
g6
(g18
S'\x0b\xdd6;'
p1662
tp1663
Rp1664
tp1665
asg73
g15
sa(dp1666
g2
S'../../../data/emanuela/activity-recognition/images/NTCIR-Lifelog-256/u1/2015-03-05/b00001213_21i6bq_20150305_200814e.jpg'
p1667
sg4
(lp1668
(g44
g6
(g18
S'\x03\x18B?'
p1669
tp1670
Rp1671
tp1672
a(g15
g6
(g18
S'.\xe3T>'
p1673
tp1674
Rp1675
tp1676
a(g68
g6
(g18
S'\xde-\xa2<'
p1677
tp1678
Rp1679
tp1680
a(g32
g6
(g18
S'>]\xb1;'
p1681
tp1682
Rp1683
tp1684
a(g131
g6
(g18
S'\x12\xb8H;'
p1685
tp1686
Rp1687
tp1688
asg73
g15
sa(dp1689
g2
S'../../../data/emanuela/activity-recognition/images/NTCIR-Lifelog-256/u1/2015-03-19/b00001891_21i6bq_20150319_102055e.jpg'
p1690
sg4
(lp1691
(g44
g6
(g18
S'2\xd8\x9a>'
p1692
tp1693
Rp1694
tp1695
a(g68
g6
(g18
S'\xa7q\x95>'
p1696
tp1697
Rp1698
tp1699
a(g15
g6
(g18
S'\xb8\xe9\xfb='
p1700
tp1701
Rp1702
tp1703
a(g131
g6
(g18
S'\xdf\x93\xf5='
p1704
tp1705
Rp1706
tp1707
a(g247
g6
(g18
S'\xf2\xc1\xbc='
p1708
tp1709
Rp1710
tp1711
asg73
g15
sa(dp1712
g2
S'../../../data/emanuela/activity-recognition/images/NTCIR-Lifelog-256/u1/2015-03-13/b00001279_21i6bq_20150313_215726e.jpg'
p1713
sg4
(lp1714
(g32
g6
(g18
S'\xc3\xc6\xfa>'
p1715
tp1716
Rp1717
tp1718
a(g44
g6
(g18
S'F\x12K>'
p1719
tp1720
Rp1721
tp1722
a(g15
g6
(g18
S'\x1b\xbe\x81='
p1723
tp1724
Rp1725
tp1726
a(g424
g6
(g18
S'm\xe2x='
p1727
tp1728
Rp1729
tp1730
a(g247
g6
(g18
S'\x93\xf7e='
p1731
tp1732
Rp1733
tp1734
asg73
g15
sa(dp1735
g2
S'../../../data/emanuela/activity-recognition/images/NTCIR-Lifelog-256/u1/2015-03-02/b00001085_21i6bq_20150302_182847e.jpg'
p1736
sg4
(lp1737
(g56
g6
(g18
S'\x1e&\xb3>'
p1738
tp1739
Rp1740
tp1741
a(g247
g6
(g18
S'Z\xcc\x0f>'
p1742
tp1743
Rp1744
tp1745
a(g235
g6
(g18
S'\x04\xbe\xdf='
p1746
tp1747
Rp1748
tp1749
a(g525
g6
(g18
S'ul\xbf='
p1750
tp1751
Rp1752
tp1753
a(g32
g6
(g18
S'\x05\xcbu='
p1754
tp1755
Rp1756
tp1757
asg73
g15
sa(dp1758
g2
S'../../../data/emanuela/activity-recognition/images/NTCIR-Lifelog-256/u1/2015-03-01/b00000021_21i6bq_20150301_072048e.jpg'
p1759
sg4
(lp1760
(g15
g6
(g18
S'H\x10D?'
p1761
tp1762
Rp1763
tp1764
a(g68
g6
(g18
S'\xaf\xbd\xc0='
p1765
tp1766
Rp1767
tp1768
a(g44
g6
(g18
S'f\xe3\x7f='
p1769
tp1770
Rp1771
tp1772
a(g32
g6
(g18
S'\xd0\xb3\xbe<'
p1773
tp1774
Rp1775
tp1776
a(g713
g6
(g18
S'nq;<'
p1777
tp1778
Rp1779
tp1780
asg73
g15
sa(dp1781
g2
S'../../../data/emanuela/activity-recognition/images/NTCIR-Lifelog-256/u1/2015-03-01/b00000004_21i6bq_20150301_071647e.jpg'
p1782
sg4
(lp1783
(g68
g6
(g18
S'\x03\xbf\xf7>'
p1784
tp1785
Rp1786
tp1787
a(g15
g6
(g18
S'\x83\x8fi>'
p1788
tp1789
Rp1790
tp1791
a(g44
g6
(g18
S'\x7f\xc3\xbd='
p1792
tp1793
Rp1794
tp1795
a(g131
g6
(g18
S'\x8d\x9eM='
p1796
tp1797
Rp1798
tp1799
a(g247
g6
(g18
S'\tx*='
p1800
tp1801
Rp1802
tp1803
asg73
g15
sa(dp1804
g2
S'../../../data/emanuela/activity-recognition/images/NTCIR-Lifelog-256/u1/2015-02-26/b00000007_21i6bq_20150226_061103e.jpg'
p1805
sg4
(lp1806
(g44
g6
(g18
S'<:A?'
p1807
tp1808
Rp1809
tp1810
a(g15
g6
(g18
S'\xffb\xa6='
p1811
tp1812
Rp1813
tp1814
a(g68
g6
(g18
S'[1\x94='
p1815
tp1816
Rp1817
tp1818
a(g32
g6
(g18
S'\x02\xdc\xe3<'
p1819
tp1820
Rp1821
tp1822
a(g301
g6
(g18
S'8Q\x88<'
p1823
tp1824
Rp1825
tp1826
asg73
g15
sa(dp1827
g2
S'../../../data/emanuela/activity-recognition/images/NTCIR-Lifelog-256/u1/2015-02-23/b00000960_21i6bq_20150223_173507e.jpg'
p1828
sg4
(lp1829
(g44
g6
(g18
S'\x1fNe>'
p1830
tp1831
Rp1832
tp1833
a(g15
g6
(g18
S'BOA>'
p1834
tp1835
Rp1836
tp1837
a(g32
g6
(g18
S'\xa8T4>'
p1838
tp1839
Rp1840
tp1841
a(g68
g6
(g18
S'\x054">'
p1842
tp1843
Rp1844
tp1845
a(g235
g6
(g18
S'\xee\xdb\xad='
p1846
tp1847
Rp1848
tp1849
asg73
g15
sa(dp1850
g2
S'../../../data/emanuela/activity-recognition/images/NTCIR-Lifelog-256/u1/2015-03-05/b00001167_21i6bq_20150305_193520e.jpg'
p1851
sg4
(lp1852
(g32
g6
(g18
S'\xb4\xc8@?'
p1853
tp1854
Rp1855
tp1856
a(g56
g6
(g18
S'\x91n\x8d='
p1857
tp1858
Rp1859
tp1860
a(g44
g6
(g18
S'\x15\xd6S='
p1861
tp1862
Rp1863
tp1864
a(g15
g6
(g18
S'\x0c4$='
p1865
tp1866
Rp1867
tp1868
a(g247
g6
(g18
S'j\xee\xf1<'
p1869
tp1870
Rp1871
tp1872
asg73
g15
sa(dp1873
g2
S'../../../data/emanuela/activity-recognition/images/NTCIR-Lifelog-256/u1/2015-02-23/b00000961_21i6bq_20150223_173557e.jpg'
p1874
sg4
(lp1875
(g68
g6
(g18
S'W\xc1;?'
p1876
tp1877
Rp1878
tp1879
a(g200
g6
(g18
S'\xd0\xa2\xa4='
p1880
tp1881
Rp1882
tp1883
a(g15
g6
(g18
S'\xe03Z='
p1884
tp1885
Rp1886
tp1887
a(g131
g6
(g18
S'Jk+='
p1888
tp1889
Rp1890
tp1891
a(g32
g6
(g18
S'\xea\xa8\x1f='
p1892
tp1893
Rp1894
tp1895
asg73
g15
sa(dp1896
g2
S'../../../data/emanuela/activity-recognition/images/NTCIR-Lifelog-256/u1/2015-03-01/b00000034_21i6bq_20150301_072450e.jpg'
p1897
sg4
(lp1898
(g15
g6
(g18
S'^\x8a\x0c?'
p1899
tp1900
Rp1901
tp1902
a(g44
g6
(g18
S'\x8c\x9eL>'
p1903
tp1904
Rp1905
tp1906
a(g68
g6
(g18
S'%\x81(>'
p1907
tp1908
Rp1909
tp1910
a(g301
g6
(g18
S'\r\x13<='
p1911
tp1912
Rp1913
tp1914
a(g131
g6
(g18
S'W\xab\xa7<'
p1915
tp1916
Rp1917
tp1918
asg73
g15
sa(dp1919
g2
S'../../../data/emanuela/activity-recognition/images/NTCIR-Lifelog-256/u1/2015-02-23/b00000010_21i6bq_20150223_070822e.jpg'
p1920
sg4
(lp1921
(g32
g6
(g18
S'\x94\x8f.?'
p1922
tp1923
Rp1924
tp1925
a(g15
g6
(g18
S'\xaa\xc4\x06>'
p1926
tp1927
Rp1928
tp1929
a(g301
g6
(g18
S'\x85c]='
p1930
tp1931
Rp1932
tp1933
a(g44
g6
(g18
S'Az\x15='
p1934
tp1935
Rp1936
tp1937
a(g56
g6
(g18
S'\xf8\xc6\xed<'
p1938
tp1939
Rp1940
tp1941
asg73
g15
sa(dp1942
g2
S'../../../data/emanuela/activity-recognition/images/NTCIR-Lifelog-256/u1/2015-03-09/b00000011_21i6bq_20150309_065346e.jpg'
p1943
sg4
(lp1944
(g44
g6
(g18
S'v!\x16?'
p1945
tp1946
Rp1947
tp1948
a(g15
g6
(g18
S'.8\x8f>'
p1949
tp1950
Rp1951
tp1952
a(g32
g6
(g18
S'\x92\xf1\xab='
p1953
tp1954
Rp1955
tp1956
a(g56
g6
(g18
S'\x9c\x8bJ<'
p1957
tp1958
Rp1959
tp1960
a(g131
g6
(g18
S'>\x7f*<'
p1961
tp1962
Rp1963
tp1964
asg73
g15
sa(dp1965
g2
S'../../../data/emanuela/activity-recognition/images/NTCIR-Lifelog-256/u1/2015-03-03/b00000047_21i6bq_20150303_062729e.jpg'
p1966
sg4
(lp1967
(g68
g6
(g18
S'|?Z?'
p1968
tp1969
Rp1970
tp1971
a(g131
g6
(g18
S'1#\x93='
p1972
tp1973
Rp1974
tp1975
a(g15
g6
(g18
S'\tC\xbc<'
p1976
tp1977
Rp1978
tp1979
a(g200
g6
(g18
S'\x82\xa6\x89<'
p1980
tp1981
Rp1982
tp1983
a(g235
g6
(g18
S'\x01\xc7\xe2;'
p1984
tp1985
Rp1986
tp1987
asg73
g15
sa(dp1988
g2
S'../../../data/emanuela/activity-recognition/images/NTCIR-Lifelog-256/u1/2015-03-04/b00000046_21i6bq_20150304_070623e.jpg'
p1989
sg4
(lp1990
(g200
g6
(g18
S'R\xd5\xb8>'
p1991
tp1992
Rp1993
tp1994
a(g235
g6
(g18
S'\xc2\xae[>'
p1995
tp1996
Rp1997
tp1998
a(g68
g6
(g18
S'\xe6w$>'
p1999
tp2000
Rp2001
tp2002
a(g15
g6
(g18
S'B\xfc\xb7='
p2003
tp2004
Rp2005
tp2006
a(g44
g6
(g18
S'Pgw='
p2007
tp2008
Rp2009
tp2010
asg73
g15
sa(dp2011
g2
S'../../../data/emanuela/activity-recognition/images/NTCIR-Lifelog-256/u1/2015-02-23/b00000037_21i6bq_20150223_072421e.jpg'
p2012
sg4
(lp2013
(g44
g6
(g18
S'\x152\x9f>'
p2014
tp2015
Rp2016
tp2017
a(g68
g6
(g18
S'\xbb\x16\x8a>'
p2018
tp2019
Rp2020
tp2021
a(g247
g6
(g18
S'y\x10\xe0='
p2022
tp2023
Rp2024
tp2025
a(g32
g6
(g18
S'(\xebH='
p2026
tp2027
Rp2028
tp2029
a(g340
g6
(g18
S'\x10\xd2?='
p2030
tp2031
Rp2032
tp2033
asg73
g15
sa(dp2034
g2
S'../../../data/emanuela/activity-recognition/images/NTCIR-Lifelog-256/u1/2015-02-24/b00000004_21i6bq_20150224_064245e.jpg'
p2035
sg4
(lp2036
(g525
g6
(g18
S'\xc3\xc5*?'
p2037
tp2038
Rp2039
tp2040
a(g424
g6
(g18
S'%i\x9d='
p2041
tp2042
Rp2043
tp2044
a(g68
g6
(g18
S'z\x88\x15='
p2045
tp2046
Rp2047
tp2048
a(g32
g6
(g18
S'\xa3W\x0c='
p2049
tp2050
Rp2051
tp2052
a(g56
g6
(g18
S'e\x91\xef<'
p2053
tp2054
Rp2055
tp2056
asg73
g15
sa(dp2057
g2
S'../../../data/emanuela/activity-recognition/images/NTCIR-Lifelog-256/u1/2015-03-02/b00001093_21i6bq_20150302_183333e.jpg'
p2058
sg4
(lp2059
(g68
g6
(g18
S'130?'
p2060
tp2061
Rp2062
tp2063
a(g131
g6
(g18
S'\x0b\xa0`>'
p2064
tp2065
Rp2066
tp2067
a(g15
g6
(g18
S',S\x89='
p2068
tp2069
Rp2070
tp2071
a(g200
g6
(g18
S'\xdeBt<'
p2072
tp2073
Rp2074
tp2075
a(g340
g6
(g18
S'\xc4\x08p;'
p2076
tp2077
Rp2078
tp2079
asg73
g15
sa(dp2080
g2
S'../../../data/emanuela/activity-recognition/images/NTCIR-Lifelog-256/u1/2015-03-01/b00000052_21i6bq_20150301_073022e.jpg'
p2081
sg4
(lp2082
(g44
g6
(g18
S'\xdc^\t?'
p2083
tp2084
Rp2085
tp2086
a(g15
g6
(g18
S'\x1b\xab\xf6='
p2087
tp2088
Rp2089
tp2090
a(g32
g6
(g18
S'Wf\xe7='
p2091
tp2092
Rp2093
tp2094
a(g235
g6
(g18
S'\xdb\x06\xd8='
p2095
tp2096
Rp2097
tp2098
a(g56
g6
(g18
S'\xd2P\xd0<'
p2099
tp2100
Rp2101
tp2102
asg73
g15
sa(dp2103
g2
S'../../../data/emanuela/activity-recognition/images/NTCIR-Lifelog-256/u1/2015-03-02/b00001086_21i6bq_20150302_182922e.jpg'
p2104
sg4
(lp2105
(g68
g6
(g18
S'p\xc2&?'
p2106
tp2107
Rp2108
tp2109
a(g15
g6
(g18
S':\x0cC>'
p2110
tp2111
Rp2112
tp2113
a(g131
g6
(g18
S'\x18=^='
p2114
tp2115
Rp2116
tp2117
a(g44
g6
(g18
S'\xfd\x90/='
p2118
tp2119
Rp2120
tp2121
a(g525
g6
(g18
S'\xb8\x19\x9b<'
p2122
tp2123
Rp2124
tp2125
asg73
g15
sa(dp2126
g2
S'../../../data/emanuela/activity-recognition/images/NTCIR-Lifelog-256/u1/2015-03-15/b00000012_21i6bq_20150315_075230e.jpg'
p2127
sg4
(lp2128
(g15
g6
(g18
S'\x9d\x86\x1f?'
p2129
tp2130
Rp2131
tp2132
a(g44
g6
(g18
S'<\x8eE>'
p2133
tp2134
Rp2135
tp2136
a(g32
g6
(g18
S'J$\x1d>'
p2137
tp2138
Rp2139
tp2140
a(g68
g6
(g18
S'\x08r3<'
p2141
tp2142
Rp2143
tp2144
a(g340
g6
(g18
S'\xfe\x98\xa3;'
p2145
tp2146
Rp2147
tp2148
asg73
g15
sa(dp2149
g2
S'../../../data/emanuela/activity-recognition/images/NTCIR-Lifelog-256/u1/2015-03-03/b00000035_21i6bq_20150303_062409e.jpg'
p2150
sg4
(lp2151
(g131
g6
(g18
S'\xc7>b>'
p2152
tp2153
Rp2154
tp2155
a(g68
g6
(g18
S'\x1dEW>'
p2156
tp2157
Rp2158
tp2159
a(g56
g6
(g18
S'"\xac\x0e>'
p2160
tp2161
Rp2162
tp2163
a(g247
g6
(g18
S'\x83%\xf2='
p2164
tp2165
Rp2166
tp2167
a(g44
g6
(g18
S'\x97\xb2\xb2='
p2168
tp2169
Rp2170
tp2171
asg73
g15
sa(dp2172
g2
S'../../../data/emanuela/activity-recognition/images/NTCIR-Lifelog-256/u1/2015-03-05/b00001214_21i6bq_20150305_200849e.jpg'
p2173
sg4
(lp2174
(g68
g6
(g18
S'"\xa8\x9b>'
p2175
tp2176
Rp2177
tp2178
a(g131
g6
(g18
S'\x0e\x8e+>'
p2179
tp2180
Rp2181
tp2182
a(g56
g6
(g18
S'Rx\x0e>'
p2183
tp2184
Rp2185
tp2186
a(g525
g6
(g18
S'r\xec\x91='
p2187
tp2188
Rp2189
tp2190
a(g247
g6
(g18
S'T"\x88='
p2191
tp2192
Rp2193
tp2194
asg73
g15
sa(dp2195
g2
S'../../../data/emanuela/activity-recognition/images/NTCIR-Lifelog-256/u1/2015-03-02/b00000039_21i6bq_20150302_065723e.jpg'
p2196
sg4
(lp2197
(g32
g6
(g18
S'\x99\x89\x14?'
p2198
tp2199
Rp2200
tp2201
a(g15
g6
(g18
S'{\xd4\xd5='
p2202
tp2203
Rp2204
tp2205
a(g44
g6
(g18
S'D\x8f\xa4='
p2206
tp2207
Rp2208
tp2209
a(g56
g6
(g18
S'\xf3\x1c3='
p2210
tp2211
Rp2212
tp2213
a(g301
g6
(g18
S'\xfa\x17#='
p2214
tp2215
Rp2216
tp2217
asg73
g15
sa(dp2218
g2
S'../../../data/emanuela/activity-recognition/images/NTCIR-Lifelog-256/u1/2015-03-18/b00001213_21i6bq_20150318_213944e.jpg'
p2219
sg4
(lp2220
(g44
g6
(g18
S'\x11\xf2\xb6>'
p2221
tp2222
Rp2223
tp2224
a(g68
g6
(g18
S'\xd71k>'
p2225
tp2226
Rp2227
tp2228
a(g15
g6
(g18
S'\xec4f>'
p2229
tp2230
Rp2231
tp2232
a(g32
g6
(g18
S'\xb8\x8f\x91='
p2233
tp2234
Rp2235
tp2236
a(g247
g6
(g18
S'\xba \xc1<'
p2237
tp2238
Rp2239
tp2240
asg73
g15
sa(dp2241
g2
S'../../../data/emanuela/activity-recognition/images/NTCIR-Lifelog-256/u1/2015-03-01/b00000043_21i6bq_20150301_072641e.jpg'
p2242
sg4
(lp2243
(g15
g6
(g18
S'5a\x06?'
p2244
tp2245
Rp2246
tp2247
a(g32
g6
(g18
S'\xeaOY>'
p2248
tp2249
Rp2250
tp2251
a(g44
g6
(g18
S'+]m='
p2252
tp2253
Rp2254
tp2255
a(g68
g6
(g18
S'\xc5_Y='
p2256
tp2257
Rp2258
tp2259
a(g56
g6
(g18
S'\x94\xb3/='
p2260
tp2261
Rp2262
tp2263
asg73
g15
sa(dp2264
g2
S'../../../data/emanuela/activity-recognition/images/NTCIR-Lifelog-256/u1/2015-03-01/b00000023_21i6bq_20150301_072049e.jpg'
p2265
sg4
(lp2266
(g15
g6
(g18
S'\xf2\xcb ?'
p2267
tp2268
Rp2269
tp2270
a(g44
g6
(g18
S'\x15\xa8^>'
p2271
tp2272
Rp2273
tp2274
a(g32
g6
(g18
S"\xb8'a="
p2275
tp2276
Rp2277
tp2278
a(g247
g6
(g18
S'b\xd3\xce<'
p2279
tp2280
Rp2281
tp2282
a(g68
g6
(g18
S'34\x9b<'
p2283
tp2284
Rp2285
tp2286
asg73
g15
sa(dp2287
g2
S'../../../data/emanuela/activity-recognition/images/NTCIR-Lifelog-256/u1/2015-03-13/b00000024_21i6bq_20150313_055713e.jpg'
p2288
sg4
(lp2289
(g44
g6
(g18
S'\x89=#?'
p2290
tp2291
Rp2292
tp2293
a(g15
g6
(g18
S'R\xad+>'
p2294
tp2295
Rp2296
tp2297
a(g68
g6
(g18
S'\x82\x95\xef='
p2298
tp2299
Rp2300
tp2301
a(g301
g6
(g18
S']\xa9\xd3<'
p2302
tp2303
Rp2304
tp2305
a(g32
g6
(g18
S'\x056\xbc<'
p2306
tp2307
Rp2308
tp2309
asg73
g15
sa(dp2310
g2
S'../../../data/emanuela/activity-recognition/images/NTCIR-Lifelog-256/u1/2015-02-23/b00001014_21i6bq_20150223_181129e.jpg'
p2311
sg4
(lp2312
(g525
g6
(g18
S'nc_>'
p2313
tp2314
Rp2315
tp2316
a(g68
g6
(g18
S'\xd4i1>'
p2317
tp2318
Rp2319
tp2320
a(g424
g6
(g18
S'9\xbb\x1b>'
p2321
tp2322
Rp2323
tp2324
a(g32
g6
(g18
S'\x7f\t\x08>'
p2325
tp2326
Rp2327
tp2328
a(g15
g6
(g18
S'\x00\xd2\xb5='
p2329
tp2330
Rp2331
tp2332
asg73
g15
sa(dp2333
g2
S'../../../data/emanuela/activity-recognition/images/NTCIR-Lifelog-256/u1/2015-03-01/b00000039_21i6bq_20150301_072638e.jpg'
p2334
sg4
(lp2335
(g15
g6
(g18
S'~\x14\x11?'
p2336
tp2337
Rp2338
tp2339
a(g68
g6
(g18
S'\xd1\xf4)>'
p2340
tp2341
Rp2342
tp2343
a(g131
g6
(g18
S'5u\xd2='
p2344
tp2345
Rp2346
tp2347
a(g247
g6
(g18
S'\xd7S\x15='
p2348
tp2349
Rp2350
tp2351
a(g44
g6
(g18
S'\xa5\xf5\x08='
p2352
tp2353
Rp2354
tp2355
asg73
g15
sa(dp2356
g2
S'../../../data/emanuela/activity-recognition/images/NTCIR-Lifelog-256/u1/2015-02-27/b00001159_21i6bq_20150227_205720e.jpg'
p2357
sg4
(lp2358
(g68
g6
(g18
S'Gj\xcc>'
p2359
tp2360
Rp2361
tp2362
a(g131
g6
(g18
S'\x9c\x8f\x8a>'
p2363
tp2364
Rp2365
tp2366
a(g15
g6
(g18
S'\xcf\x1c\x03>'
p2367
tp2368
Rp2369
tp2370
a(g44
g6
(g18
S'\x1eh\xa6='
p2371
tp2372
Rp2373
tp2374
a(g56
g6
(g18
S'a+\xaa<'
p2375
tp2376
Rp2377
tp2378
asg73
g15
sa(dp2379
g2
S'../../../data/emanuela/activity-recognition/images/NTCIR-Lifelog-256/u1/2015-03-05/b00001215_21i6bq_20150305_200928e.jpg'
p2380
sg4
(lp2381
(g448
g6
(g18
S'\xe5\xb4\x99>'
p2382
tp2383
Rp2384
tp2385
a(g200
g6
(g18
S'\xce^%>'
p2386
tp2387
Rp2388
tp2389
a(g131
g6
(g18
S'\x90\x89\xc0='
p2390
tp2391
Rp2392
tp2393
a(g56
g6
(g18
S'\x87\xc6\xb4='
p2394
tp2395
Rp2396
tp2397
a(g68
g6
(g18
S'\x1a\xcc\xb1='
p2398
tp2399
Rp2400
tp2401
asg73
g15
sa(dp2402
g2
S'../../../data/emanuela/activity-recognition/images/NTCIR-Lifelog-256/u1/2015-03-09/b00001144_21i6bq_20150309_190135e.jpg'
p2403
sg4
(lp2404
(g44
g6
(g18
S'~\xf6\xfe>'
p2405
tp2406
Rp2407
tp2408
a(g15
g6
(g18
S'\x84\xda\xd1>'
p2409
tp2410
Rp2411
tp2412
a(g68
g6
(g18
S'\x0e{\x7f='
p2413
tp2414
Rp2415
tp2416
a(g32
g6
(g18
S'\x87\x07\xef;'
p2417
tp2418
Rp2419
tp2420
a(g301
g6
(g18
S'\x84\xda\xe5;'
p2421
tp2422
Rp2423
tp2424
asg73
g15
sa(dp2425
g2
S'../../../data/emanuela/activity-recognition/images/NTCIR-Lifelog-256/u1/2015-03-02/b00000038_21i6bq_20150302_065548e.jpg'
p2426
sg4
(lp2427
(g44
g6
(g18
S'\xb5(\x92>'
p2428
tp2429
Rp2430
tp2431
a(g235
g6
(g18
S'\x8b\xa7\x8d>'
p2432
tp2433
Rp2434
tp2435
a(g68
g6
(g18
S'\x14\xd4A>'
p2436
tp2437
Rp2438
tp2439
a(g131
g6
(g18
S'\xdbyM='
p2440
tp2441
Rp2442
tp2443
a(g247
g6
(g18
S'\x00\xedK='
p2444
tp2445
Rp2446
tp2447
asg73
g15
sa(dp2448
g2
S'../../../data/emanuela/activity-recognition/images/NTCIR-Lifelog-256/u1/2015-03-01/b00000033_21i6bq_20150301_072415e.jpg'
p2449
sg4
(lp2450
(g15
g6
(g18
S'q#@?'
p2451
tp2452
Rp2453
tp2454
a(g44
g6
(g18
S'D\xde\xd6='
p2455
tp2456
Rp2457
tp2458
a(g32
g6
(g18
S'\xf3\xb5\xca='
p2459
tp2460
Rp2461
tp2462
a(g56
g6
(g18
S'\xfeW\x7f<'
p2463
tp2464
Rp2465
tp2466
a(g200
g6
(g18
S'\x7f)G<'
p2467
tp2468
Rp2469
tp2470
asg73
g15
sa(dp2471
g2
S'../../../data/emanuela/activity-recognition/images/NTCIR-Lifelog-256/u1/2015-03-02/b00001161_21i6bq_20150302_191608e.jpg'
p2472
sg4
(lp2473
(g32
g6
(g18
S'FL\xaf>'
p2474
tp2475
Rp2476
tp2477
a(g68
g6
(g18
S'\xa0cz>'
p2478
tp2479
Rp2480
tp2481
a(g235
g6
(g18
S'3\xea\x9a='
p2482
tp2483
Rp2484
tp2485
a(g44
g6
(g18
S'\x9c8j='
p2486
tp2487
Rp2488
tp2489
a(g212
g6
(g18
S'W\x088='
p2490
tp2491
Rp2492
tp2493
asg73
g15
sa(dp2494
g2
S'../../../data/emanuela/activity-recognition/images/NTCIR-Lifelog-256/u1/2015-03-02/b00001090_21i6bq_20150302_183142e.jpg'
p2495
sg4
(lp2496
(g44
g6
(g18
S'\xc1,\xfc>'
p2497
tp2498
Rp2499
tp2500
a(g525
g6
(g18
S'\x1b\xb9\x12>'
p2501
tp2502
Rp2503
tp2504
a(g68
g6
(g18
S'l\xd1\xd5='
p2505
tp2506
Rp2507
tp2508
a(g235
g6
(g18
S'\x8a"p='
p2509
tp2510
Rp2511
tp2512
a(g32
g6
(g18
S'~\xbcA='
p2513
tp2514
Rp2515
tp2516
asg73
g15
sa(dp2517
g2
S'../../../data/emanuela/activity-recognition/images/NTCIR-Lifelog-256/u1/2015-03-01/b00000053_21i6bq_20150301_073056e.jpg'
p2518
sg4
(lp2519
(g44
g6
(g18
S'\xc4\r"?'
p2520
tp2521
Rp2522
tp2523
a(g15
g6
(g18
S'\xcd\x17\x93>'
p2524
tp2525
Rp2526
tp2527
a(g32
g6
(g18
S'\n\xf8\x80='
p2528
tp2529
Rp2530
tp2531
a(g68
g6
(g18
S'\x19\xcc\xab;'
p2532
tp2533
Rp2534
tp2535
a(g56
g6
(g18
S'\x94\x10V;'
p2536
tp2537
Rp2538
tp2539
asg73
g15
sa(dp2540
g2
S'../../../data/emanuela/activity-recognition/images/NTCIR-Lifelog-256/u1/2015-03-15/b00000014_21i6bq_20150315_075232e.jpg'
p2541
sg4
(lp2542
(g15
g6
(g18
S'\x19R=?'
p2543
tp2544
Rp2545
tp2546
a(g44
g6
(g18
S'^\xd4\xe1='
p2547
tp2548
Rp2549
tp2550
a(g32
g6
(g18
S'\x03\xe4\xd9='
p2551
tp2552
Rp2553
tp2554
a(g424
g6
(g18
S'\xdd\xef]<'
p2555
tp2556
Rp2557
tp2558
a(g68
g6
(g18
S'P\x94\n<'
p2559
tp2560
Rp2561
tp2562
asg73
g15
sa(dp2563
g2
S'../../../data/emanuela/activity-recognition/images/NTCIR-Lifelog-256/u1/2015-03-01/b00000035_21i6bq_20150301_072529e.jpg'
p2564
sg4
(lp2565
(g32
g6
(g18
S'\x04\x8a\x9b>'
p2566
tp2567
Rp2568
tp2569
a(g15
g6
(g18
S'#\xdcb>'
p2570
tp2571
Rp2572
tp2573
a(g424
g6
(g18
S'\xd37#>'
p2574
tp2575
Rp2576
tp2577
a(g44
g6
(g18
S'\x896\xbd='
p2578
tp2579
Rp2580
tp2581
a(g68
g6
(g18
S'\xd5\\\x82='
p2582
tp2583
Rp2584
tp2585
asg73
g15
sa(dp2586
g2
S'../../../data/emanuela/activity-recognition/images/NTCIR-Lifelog-256/u1/2015-03-05/b00001211_21i6bq_20150305_200704e.jpg'
p2587
sg4
(lp2588
(g525
g6
(g18
S',0\r?'
p2589
tp2590
Rp2591
tp2592
a(g32
g6
(g18
S'\x13\x90z>'
p2593
tp2594
Rp2595
tp2596
a(g579
g6
(g18
S'\xab\x1a4='
p2597
tp2598
Rp2599
tp2600
a(g68
g6
(g18
S'E<\x03='
p2601
tp2602
Rp2603
tp2604
a(g56
g6
(g18
S'a\xdc\xf6<'
p2605
tp2606
Rp2607
tp2608
asg73
g15
sa(dp2609
g2
S'../../../data/emanuela/activity-recognition/images/NTCIR-Lifelog-256/u1/2015-03-02/b00000040_21i6bq_20150302_065759e.jpg'
p2610
sg4
(lp2611
(g15
g6
(g18
S'\x87\xd4\xab>'
p2612
tp2613
Rp2614
tp2615
a(g68
g6
(g18
S'\x9d\xac:>'
p2616
tp2617
Rp2618
tp2619
a(g44
g6
(g18
S'G\xfa\xc6='
p2620
tp2621
Rp2622
tp2623
a(g235
g6
(g18
S's\xf4\xaf='
p2624
tp2625
Rp2626
tp2627
a(g32
g6
(g18
S"-'\x95="
p2628
tp2629
Rp2630
tp2631
asg73
g15
sa(dp2632
g2
S'../../../data/emanuela/activity-recognition/images/NTCIR-Lifelog-256/u1/2015-03-15/b00000862_21i6bq_20150315_155938e.jpg'
p2633
sg4
(lp2634
(g32
g6
(g18
S'\x9a*\x92>'
p2635
tp2636
Rp2637
tp2638
a(g247
g6
(g18
S'\xcf\x1a{>'
p2639
tp2640
Rp2641
tp2642
a(g235
g6
(g18
S'\xe8\xd13>'
p2643
tp2644
Rp2645
tp2646
a(g44
g6
(g18
S'\xd9z\x92='
p2647
tp2648
Rp2649
tp2650
a(g131
g6
(g18
S'z\xed[='
p2651
tp2652
Rp2653
tp2654
asg73
g15
sa(dp2655
g2
S'../../../data/emanuela/activity-recognition/images/NTCIR-Lifelog-256/u1/2015-02-24/b00000002_21i6bq_20150224_064141e.jpg'
p2656
sg4
(lp2657
(g713
g6
(g18
S'\xd5z\n?'
p2658
tp2659
Rp2660
tp2661
a(g15
g6
(g18
S'\xb5\x00\xfb='
p2662
tp2663
Rp2664
tp2665
a(g44
g6
(g18
S'W\x11\xe2='
p2666
tp2667
Rp2668
tp2669
a(g100
g6
(g18
S'\xcc\xad\x8d='
p2670
tp2671
Rp2672
tp2673
a(g32
g6
(g18
S'c\xa6k='
p2674
tp2675
Rp2676
tp2677
asg73
g15
sa(dp2678
g2
S'../../../data/emanuela/activity-recognition/images/NTCIR-Lifelog-256/u1/2015-03-01/b00000056_21i6bq_20150301_073252e.jpg'
p2679
sg4
(lp2680
(g44
g6
(g18
S'\xe0u\xef>'
p2681
tp2682
Rp2683
tp2684
a(g32
g6
(g18
S'#D\x94>'
p2685
tp2686
Rp2687
tp2688
a(g15
g6
(g18
S'}{[>'
p2689
tp2690
Rp2691
tp2692
a(g525
g6
(g18
S'$\xbc\x0c<'
p2693
tp2694
Rp2695
tp2696
a(g247
g6
(g18
S'\x18;\xb9;'
p2697
tp2698
Rp2699
tp2700
asg73
g15
sa(dp2701
g2
S'../../../data/emanuela/activity-recognition/images/NTCIR-Lifelog-256/u1/2015-03-15/b00000655_21i6bq_20150315_140121e.jpg'
p2702
sg4
(lp2703
(g15
g6
(g18
S'\xc8N(?'
p2704
tp2705
Rp2706
tp2707
a(g32
g6
(g18
S'\x00tP>'
p2708
tp2709
Rp2710
tp2711
a(g44
g6
(g18
S'#W{='
p2712
tp2713
Rp2714
tp2715
a(g56
g6
(g18
S'jd\x80<'
p2716
tp2717
Rp2718
tp2719
a(g340
g6
(g18
S'\x04h_<'
p2720
tp2721
Rp2722
tp2723
asg73
g15
sa(dp2724
g2
S'../../../data/emanuela/activity-recognition/images/NTCIR-Lifelog-256/u1/2015-03-01/b00000101_21i6bq_20150301_075629e.jpg'
p2725
sg4
(lp2726
(g15
g6
(g18
S'\xd7\xac\xce>'
p2727
tp2728
Rp2729
tp2730
a(g44
g6
(g18
S'\xbdd\xc1>'
p2731
tp2732
Rp2733
tp2734
a(g32
g6
(g18
S'Vt-='
p2735
tp2736
Rp2737
tp2738
a(g235
g6
(g18
S'V.\x06='
p2739
tp2740
Rp2741
tp2742
a(g68
g6
(g18
S'G\xba\xf3<'
p2743
tp2744
Rp2745
tp2746
asg73
g15
sa(dp2747
g2
S'../../../data/emanuela/activity-recognition/images/NTCIR-Lifelog-256/u1/2015-03-02/b00001089_21i6bq_20150302_183107e.jpg'
p2748
sg4
(lp2749
(g68
g6
(g18
S'A\xf3h?'
p2750
tp2751
Rp2752
tp2753
a(g131
g6
(g18
S'Fk\xb0='
p2754
tp2755
Rp2756
tp2757
a(g15
g6
(g18
S'\n=#;'
p2758
tp2759
Rp2760
tp2761
a(g200
g6
(g18
S'\x07\xe9\x9b9'
p2762
tp2763
Rp2764
tp2765
a(g525
g6
(g18
S'\xad\xda\x949'
p2766
tp2767
Rp2768
tp2769
asg73
g15
sa(dp2770
g2
S'../../../data/emanuela/activity-recognition/images/NTCIR-Lifelog-256/u1/2015-03-01/b00000036_21i6bq_20150301_072607e.jpg'
p2771
sg4
(lp2772
(g32
g6
(g18
S'\xb8&\x82>'
p2773
tp2774
Rp2775
tp2776
a(g44
g6
(g18
S'sE,>'
p2777
tp2778
Rp2779
tp2780
a(g15
g6
(g18
S'5\x8b\x1b>'
p2781
tp2782
Rp2783
tp2784
a(g424
g6
(g18
S'Pj\x14>'
p2785
tp2786
Rp2787
tp2788
a(g448
g6
(g18
S'\x99\x01`='
p2789
tp2790
Rp2791
tp2792
asg73
g15
sa(dp2793
g2
S'../../../data/emanuela/activity-recognition/images/NTCIR-Lifelog-256/u1/2015-02-23/b00000008_21i6bq_20150223_070813e.jpg'
p2794
sg4
(lp2795
(g32
g6
(g18
S'm\x05"?'
p2796
tp2797
Rp2798
tp2799
a(g15
g6
(g18
S'/\xab\xe7='
p2800
tp2801
Rp2802
tp2803
a(g301
g6
(g18
S'\xe6\xbb\xa6='
p2804
tp2805
Rp2806
tp2807
a(g44
g6
(g18
S'HO\x9c='
p2808
tp2809
Rp2810
tp2811
a(g56
g6
(g18
S'\x1c\xe3Y='
p2812
tp2813
Rp2814
tp2815
asg73
g15
sa(dp2816
g2
S'../../../data/emanuela/activity-recognition/images/NTCIR-Lifelog-256/u1/2015-02-26/b00000002_21i6bq_20150226_054610e.jpg'
p2817
sg4
(lp2818
(g44
g6
(g18
S'X\xe9\xc4>'
p2819
tp2820
Rp2821
tp2822
a(g68
g6
(g18
S'\x02\x16\xbb>'
p2823
tp2824
Rp2825
tp2826
a(g32
g6
(g18
S'5\xa1\xb9='
p2827
tp2828
Rp2829
tp2830
a(g15
g6
(g18
S'\xb1\xa6\xf0<'
p2831
tp2832
Rp2833
tp2834
a(g131
g6
(g18
S'H\xea\xaa<'
p2835
tp2836
Rp2837
tp2838
asg73
g15
sa(dp2839
g2
S'../../../data/emanuela/activity-recognition/images/NTCIR-Lifelog-256/u1/2015-03-03/b00000041_21i6bq_20150303_062413e.jpg'
p2840
sg4
(lp2841
(g68
g6
(g18
S'\x88!\xe1>'
p2842
tp2843
Rp2844
tp2845
a(g15
g6
(g18
S'\xb4\xd4`>'
p2846
tp2847
Rp2848
tp2849
a(g44
g6
(g18
S'/\xe6\xff='
p2850
tp2851
Rp2852
tp2853
a(g32
g6
(g18
S'\xb8P\xdc='
p2854
tp2855
Rp2856
tp2857
a(g424
g6
(g18
S'\x8a\xb0\xc9<'
p2858
tp2859
Rp2860
tp2861
asg73
g15
sa(dp2862
g2
S'../../../data/emanuela/activity-recognition/images/NTCIR-Lifelog-256/u1/2015-02-23/b00000007_21i6bq_20150223_070813e.jpg'
p2863
sg4
(lp2864
(g32
g6
(g18
S'\xb0\xcd,?'
p2865
tp2866
Rp2867
tp2868
a(g44
g6
(g18
S'\x0b\x82\xeb='
p2869
tp2870
Rp2871
tp2872
a(g15
g6
(g18
S'\xf1\xe1\xa5='
p2873
tp2874
Rp2875
tp2876
a(g301
g6
(g18
S'\x82\xe7\x9d='
p2877
tp2878
Rp2879
tp2880
a(g340
g6
(g18
S'\xae\xd4\x88<'
p2881
tp2882
Rp2883
tp2884
asg73
g15
sa(dp2885
g2
S'../../../data/emanuela/activity-recognition/images/NTCIR-Lifelog-256/u1/2015-03-01/b00000029_21i6bq_20150301_072136e.jpg'
p2886
sg4
(lp2887
(g44
g6
(g18
S' \x93\x95>'
p2888
tp2889
Rp2890
tp2891
a(g32
g6
(g18
S'\x7fB\x94>'
p2892
tp2893
Rp2894
tp2895
a(g56
g6
(g18
S'#\xc4K>'
p2896
tp2897
Rp2898
tp2899
a(g525
g6
(g18
S'\xb0\x8b\x85='
p2900
tp2901
Rp2902
tp2903
a(g131
g6
(g18
S'\xbb\x90\xef<'
p2904
tp2905
Rp2906
tp2907
asg73
g15
sa(dp2908
g2
S'../../../data/emanuela/activity-recognition/images/NTCIR-Lifelog-256/u1/2015-02-23/b00000953_21i6bq_20150223_172938e.jpg'
p2909
sg4
(lp2910
(g44
g6
(g18
S'\xeb\xd9\x94>'
p2911
tp2912
Rp2913
tp2914
a(g68
g6
(g18
S'\xff\x1dO>'
p2915
tp2916
Rp2917
tp2918
a(g235
g6
(g18
S'\xcah8>'
p2919
tp2920
Rp2921
tp2922
a(g15
g6
(g18
S'\xa3\xaf\xdf='
p2923
tp2924
Rp2925
tp2926
a(g131
g6
(g18
S'\xe4\t\xad='
p2927
tp2928
Rp2929
tp2930
asg73
g15
sa(dp2931
g2
S'../../../data/emanuela/activity-recognition/images/NTCIR-Lifelog-256/u1/2015-03-03/b00000032_21i6bq_20150303_062317e.jpg'
p2932
sg4
(lp2933
(g15
g6
(g18
S'\xfa\x0c\xf3>'
p2934
tp2935
Rp2936
tp2937
a(g44
g6
(g18
S'l\x83\xd3>'
p2938
tp2939
Rp2940
tp2941
a(g68
g6
(g18
S'\x98}9='
p2942
tp2943
Rp2944
tp2945
a(g32
g6
(g18
S'\x03o\xa9<'
p2946
tp2947
Rp2948
tp2949
a(g131
g6
(g18
S'o\x96[<'
p2950
tp2951
Rp2952
tp2953
asg73
g15
sa(dp2954
g2
S'../../../data/emanuela/activity-recognition/images/NTCIR-Lifelog-256/u1/2015-03-02/b00000037_21i6bq_20150302_065509e.jpg'
p2955
sg4
(lp2956
(g68
g6
(g18
S'i\xdb\xee>'
p2957
tp2958
Rp2959
tp2960
a(g44
g6
(g18
S'\x8c(y>'
p2961
tp2962
Rp2963
tp2964
a(g15
g6
(g18
S'A\n0>'
p2965
tp2966
Rp2967
tp2968
a(g131
g6
(g18
S"d'\xae="
p2969
tp2970
Rp2971
tp2972
a(g32
g6
(g18
S'V\r\xb0<'
p2973
tp2974
Rp2975
tp2976
asg73
g15
sa(dp2977
g2
S'../../../data/emanuela/activity-recognition/images/NTCIR-Lifelog-256/u1/2015-02-27/b00001162_21i6bq_20150227_205907e.jpg'
p2978
sg4
(lp2979
(g68
g6
(g18
S'\xeb\xccf?'
p2980
tp2981
Rp2982
tp2983
a(g15
g6
(g18
S'*t^='
p2984
tp2985
Rp2986
tp2987
a(g131
g6
(g18
S'\xb7\xc9\xdf<'
p2988
tp2989
Rp2990
tp2991
a(g44
g6
(g18
S'v\x04\xd1;'
p2992
tp2993
Rp2994
tp2995
a(g235
g6
(g18
S'\xf4\x83);'
p2996
tp2997
Rp2998
tp2999
asg73
g15
sa(dp3000
g2
S'../../../data/emanuela/activity-recognition/images/NTCIR-Lifelog-256/u1/2015-03-01/b00000027_21i6bq_20150301_072052e.jpg'
p3001
sg4
(lp3002
(g44
g6
(g18
S'<\x96\x01?'
p3003
tp3004
Rp3005
tp3006
a(g15
g6
(g18
S'A+\xcc>'
p3007
tp3008
Rp3009
tp3010
a(g32
g6
(g18
S'\x1f\x9a ='
p3011
tp3012
Rp3013
tp3014
a(g68
g6
(g18
S'\xf9\xb6\xb3<'
p3015
tp3016
Rp3017
tp3018
a(g424
g6
(g18
S'\xd77\n<'
p3019
tp3020
Rp3021
tp3022
asg73
g15
sa(dp3023
g2
S'../../../data/emanuela/activity-recognition/images/NTCIR-Lifelog-256/u1/2015-03-04/b00000048_21i6bq_20150304_070733e.jpg'
p3024
sg4
(lp3025
(g131
g6
(g18
S'2w[>'
p3026
tp3027
Rp3028
tp3029
a(g235
g6
(g18
S'\xd5\xf9\x1c>'
p3030
tp3031
Rp3032
tp3033
a(g15
g6
(g18
S'\xcf\xc1\x1a>'
p3034
tp3035
Rp3036
tp3037
a(g68
g6
(g18
S'\x9a7\x05>'
p3038
tp3039
Rp3040
tp3041
a(g44
g6
(g18
S'\x94\x9e\xf8='
p3042
tp3043
Rp3044
tp3045
asg73
g15
sa(dp3046
g2
S'../../../data/emanuela/activity-recognition/images/NTCIR-Lifelog-256/u1/2015-02-23/b00000956_21i6bq_20150223_173131e.jpg'
p3047
sg4
(lp3048
(g68
g6
(g18
S'\x88;\xc8>'
p3049
tp3050
Rp3051
tp3052
a(g200
g6
(g18
S'\x9ce\xef='
p3053
tp3054
Rp3055
tp3056
a(g15
g6
(g18
S'V\\\xd3='
p3057
tp3058
Rp3059
tp3060
a(g32
g6
(g18
S'\x912\xb3='
p3061
tp3062
Rp3063
tp3064
a(g340
g6
(g18
S'l0N='
p3065
tp3066
Rp3067
tp3068
asg73
g15
sa(dp3069
g2
S'../../../data/emanuela/activity-recognition/images/NTCIR-Lifelog-256/u1/2015-03-01/b00000020_21i6bq_20150301_072047e.jpg'
p3070
sg4
(lp3071
(g15
g6
(g18
S'Ai\x11?'
p3072
tp3073
Rp3074
tp3075
a(g44
g6
(g18
S'\xcc\xca\x12>'
p3076
tp3077
Rp3078
tp3079
a(g32
g6
(g18
S'\x8f\xfe\xfa='
p3080
tp3081
Rp3082
tp3083
a(g301
g6
(g18
S'\xe1\xa1W='
p3084
tp3085
Rp3086
tp3087
a(g340
g6
(g18
S'\xae\xa2\xd1<'
p3088
tp3089
Rp3090
tp3091
asg73
g15
sa(dp3092
g2
S'../../../data/emanuela/activity-recognition/images/NTCIR-Lifelog-256/u1/2015-03-03/b00000042_21i6bq_20150303_062422e.jpg'
p3093
sg4
(lp3094
(g32
g6
(g18
S'\x0fE\xc8>'
p3095
tp3096
Rp3097
tp3098
a(g44
g6
(g18
S'\xe7m]>'
p3099
tp3100
Rp3101
tp3102
a(g235
g6
(g18
S'\xe4\x94\xa1='
p3103
tp3104
Rp3105
tp3106
a(g301
g6
(g18
S'0\x7fi='
p3107
tp3108
Rp3109
tp3110
a(g131
g6
(g18
S'\xb9\xfe`='
p3111
tp3112
Rp3113
tp3114
asg73
g15
sa(dp3115
g2
S'../../../data/emanuela/activity-recognition/images/NTCIR-Lifelog-256/u1/2015-02-27/b00001158_21i6bq_20150227_205645e.jpg'
p3116
sg4
(lp3117
(g525
g6
(g18
S'\x14\x8e\x07?'
p3118
tp3119
Rp3120
tp3121
a(g68
g6
(g18
S'=\xa21>'
p3122
tp3123
Rp3124
tp3125
a(g32
g6
(g18
S'\xb1\x98\xa2='
p3126
tp3127
Rp3128
tp3129
a(g44
g6
(g18
S'e|,='
p3130
tp3131
Rp3132
tp3133
a(g15
g6
(g18
S'\x83F\xef<'
p3134
tp3135
Rp3136
tp3137
asg73
g15
sa(dp3138
g2
S'../../../data/emanuela/activity-recognition/images/NTCIR-Lifelog-256/u1/2015-03-19/b00001899_21i6bq_20150319_102549e.jpg'
p3139
sg4
(lp3140
(g68
g6
(g18
S'U\nG?'
p3141
tp3142
Rp3143
tp3144
a(g131
g6
(g18
S'\x9b"\xf7='
p3145
tp3146
Rp3147
tp3148
a(g44
g6
(g18
S'\x9d\xd0\x1c='
p3149
tp3150
Rp3151
tp3152
a(g15
g6
(g18
S'\xb11\t='
p3153
tp3154
Rp3155
tp3156
a(g235
g6
(g18
S'\xf2\x8b\xc0<'
p3157
tp3158
Rp3159
tp3160
asg73
g15
sa(dp3161
g2
S'../../../data/emanuela/activity-recognition/images/NTCIR-Lifelog-256/u1/2015-03-13/b00000026_21i6bq_20150313_055823e.jpg'
p3162
sg4
(lp3163
(g15
g6
(g18
S'\xa3\x0bC?'
p3164
tp3165
Rp3166
tp3167
a(g44
g6
(g18
S'\xe6b >'
p3168
tp3169
Rp3170
tp3171
a(g200
g6
(g18
S'"\x98\xeb<'
p3172
tp3173
Rp3174
tp3175
a(g68
g6
(g18
S'\xb5\x84\x94<'
p3176
tp3177
Rp3178
tp3179
a(g32
g6
(g18
S'\x95Si<'
p3180
tp3181
Rp3182
tp3183
asg73
g15
sa(dp3184
g2
S'../../../data/emanuela/activity-recognition/images/NTCIR-Lifelog-256/u1/2015-03-09/b00001143_21i6bq_20150309_190058e.jpg'
p3185
sg4
(lp3186
(g32
g6
(g18
S'2\xd9\x80>'
p3187
tp3188
Rp3189
tp3190
a(g56
g6
(g18
S'\xeeaf>'
p3191
tp3192
Rp3193
tp3194
a(g100
g6
(g18
S'0\xe6a>'
p3195
tp3196
Rp3197
tp3198
a(g525
g6
(g18
S'+\xff\x86='
p3199
tp3200
Rp3201
tp3202
a(g68
g6
(g18
S'UkK='
p3203
tp3204
Rp3205
tp3206
asg73
g15
sa(dp3207
g2
S'../../../data/emanuela/activity-recognition/images/NTCIR-Lifelog-256/u1/2015-03-13/b00000025_21i6bq_20150313_055750e.jpg'
p3208
sg4
(lp3209
(g44
g6
(g18
S'\xe8\x16H?'
p3210
tp3211
Rp3212
tp3213
a(g15
g6
(g18
S'\x075\xc1='
p3214
tp3215
Rp3216
tp3217
a(g68
g6
(g18
S'\x9c\x81>='
p3218
tp3219
Rp3220
tp3221
a(g131
g6
(g18
S'x\xa2\x17='
p3222
tp3223
Rp3224
tp3225
a(g235
g6
(g18
S'\xd4\xb9\xd9<'
p3226
tp3227
Rp3228
tp3229
asg73
g15
sa(dp3230
g2
S'../../../data/emanuela/activity-recognition/images/NTCIR-Lifelog-256/u1/2015-03-01/b00000026_21i6bq_20150301_072052e.jpg'
p3231
sg4
(lp3232
(g15
g6
(g18
S'\x93\xaa\xfc>'
p3233
tp3234
Rp3235
tp3236
a(g44
g6
(g18
S'!\xcd\x89>'
p3237
tp3238
Rp3239
tp3240
a(g32
g6
(g18
S'\xf2\xa1\xe2='
p3241
tp3242
Rp3243
tp3244
a(g424
g6
(g18
S'\x1d\x88\xfd<'
p3245
tp3246
Rp3247
tp3248
a(g448
g6
(g18
S'\xfc\xe5\xc9<'
p3249
tp3250
Rp3251
tp3252
asg73
g15
sa(dp3253
g2
S'../../../data/emanuela/activity-recognition/images/NTCIR-Lifelog-256/u1/2015-03-01/b00000050_21i6bq_20150301_072913e.jpg'
p3254
sg4
(lp3255
(g15
g6
(g18
S'\xcf\x12\xef>'
p3256
tp3257
Rp3258
tp3259
a(g44
g6
(g18
S'\xd6\x96\xcd>'
p3260
tp3261
Rp3262
tp3263
a(g32
g6
(g18
S'`E\x91='
p3264
tp3265
Rp3266
tp3267
a(g68
g6
(g18
S'\n\x01e<'
p3268
tp3269
Rp3270
tp3271
a(g56
g6
(g18
S'g\x05><'
p3272
tp3273
Rp3274
tp3275
asg73
g15
sa(dp3276
g2
S'../../../data/emanuela/activity-recognition/images/NTCIR-Lifelog-256/u1/2015-03-03/b00000034_21i6bq_20150303_062409e.jpg'
p3277
sg4
(lp3278
(g44
g6
(g18
S'\xa3\xf3\x9b>'
p3279
tp3280
Rp3281
tp3282
a(g68
g6
(g18
S'\xd5\xa3\x82>'
p3283
tp3284
Rp3285
tp3286
a(g247
g6
(g18
S'\xc2*\x02>'
p3287
tp3288
Rp3289
tp3290
a(g56
g6
(g18
S'o\xe6\xd2='
p3291
tp3292
Rp3293
tp3294
a(g131
g6
(g18
S'\xbfH\xa0='
p3295
tp3296
Rp3297
tp3298
asg73
g15
sa(dp3299
g2
S'../../../data/emanuela/activity-recognition/images/NTCIR-Lifelog-256/u1/2015-03-01/b00000048_21i6bq_20150301_072806e.jpg'
p3300
sg4
(lp3301
(g32
g6
(g18
S'\xbc\x8bG?'
p3302
tp3303
Rp3304
tp3305
a(g56
g6
(g18
S'\xbcU\xb2='
p3306
tp3307
Rp3308
tp3309
a(g15
g6
(g18
S'\x85~i='
p3310
tp3311
Rp3312
tp3313
a(g44
g6
(g18
S'\xd4>\xeb<'
p3314
tp3315
Rp3316
tp3317
a(g200
g6
(g18
S'\xcdKr<'
p3318
tp3319
Rp3320
tp3321
asg73
g15
sa(dp3322
g2
S'../../../data/emanuela/activity-recognition/images/NTCIR-Lifelog-256/u1/2015-03-19/b00001897_21i6bq_20150319_102435e.jpg'
p3323
sg4
(lp3324
(g44
g6
(g18
S'\x8f\xa8\x0c?'
p3325
tp3326
Rp3327
tp3328
a(g525
g6
(g18
S'\xb7n\x07>'
p3329
tp3330
Rp3331
tp3332
a(g68
g6
(g18
S'm\xad\x01>'
p3333
tp3334
Rp3335
tp3336
a(g32
g6
(g18
S'G|\xc4='
p3337
tp3338
Rp3339
tp3340
a(g15
g6
(g18
S'\xb3\xce\x1d='
p3341
tp3342
Rp3343
tp3344
asg73
g15
sa(dp3345
g2
S'../../../data/emanuela/activity-recognition/images/NTCIR-Lifelog-256/u1/2015-03-01/b00000044_21i6bq_20150301_072642e.jpg'
p3346
sg4
(lp3347
(g15
g6
(g18
S'\x1aa\x88>'
p3348
tp3349
Rp3350
tp3351
a(g32
g6
(g18
S'\xa8@/>'
p3352
tp3353
Rp3354
tp3355
a(g44
g6
(g18
S'\x99\x1b->'
p3356
tp3357
Rp3358
tp3359
a(g525
g6
(g18
S'8s\xe6='
p3360
tp3361
Rp3362
tp3363
a(g68
g6
(g18
S'\xf3z\xb4='
p3364
tp3365
Rp3366
tp3367
asg73
g15
sa(dp3368
g2
S'../../../data/emanuela/activity-recognition/images/NTCIR-Lifelog-256/u1/2015-03-03/b00000043_21i6bq_20150303_062459e.jpg'
p3369
sg4
(lp3370
(g68
g6
(g18
S'\xd4(]?'
p3371
tp3372
Rp3373
tp3374
a(g131
g6
(g18
S'\xdc\xb8\r='
p3375
tp3376
Rp3377
tp3378
a(g15
g6
(g18
S'\xee\xc3\x07='
p3379
tp3380
Rp3381
tp3382
a(g44
g6
(g18
S'E\x9d\x06='
p3383
tp3384
Rp3385
tp3386
a(g247
g6
(g18
S'\xc2\x8bO<'
p3387
tp3388
Rp3389
tp3390
asg73
g15
sa(dp3391
g2
S'../../../data/emanuela/activity-recognition/images/NTCIR-Lifelog-256/u1/2015-03-04/b00000049_21i6bq_20150304_070811e.jpg'
p3392
sg4
(lp3393
(g131
g6
(g18
S'\x17\xc0\x10?'
p3394
tp3395
Rp3396
tp3397
a(g68
g6
(g18
S'\xa5VE>'
p3398
tp3399
Rp3400
tp3401
a(g15
g6
(g18
S'\xef\xe7\xce='
p3402
tp3403
Rp3404
tp3405
a(g235
g6
(g18
S'\x06\x84\x8e='
p3406
tp3407
Rp3408
tp3409
a(g44
g6
(g18
S'S:R='
p3410
tp3411
Rp3412
tp3413
asg73
g15
sa(dp3414
g2
S'../../../data/emanuela/activity-recognition/images/NTCIR-Lifelog-256/u1/2015-02-27/b00001157_21i6bq_20150227_205604e.jpg'
p3415
sg4
(lp3416
(g32
g6
(g18
S'5F\xfa>'
p3417
tp3418
Rp3419
tp3420
a(g713
g6
(g18
S'\xb0,\x8d='
p3421
tp3422
Rp3423
tp3424
a(g15
g6
(g18
S'\x046v='
p3425
tp3426
Rp3427
tp3428
a(g424
g6
(g18
S'e\x8aQ='
p3429
tp3430
Rp3431
tp3432
a(g56
g6
(g18
S'\x16\xcbK='
p3433
tp3434
Rp3435
tp3436
asg73
g15
sa(dp3437
g2
S'../../../data/emanuela/activity-recognition/images/NTCIR-Lifelog-256/u1/2015-03-01/b00000040_21i6bq_20150301_072639e.jpg'
p3438
sg4
(lp3439
(g68
g6
(g18
S'\xb2\xbdv>'
p3440
tp3441
Rp3442
tp3443
a(g131
g6
(g18
S'\x15\x8a<>'
p3444
tp3445
Rp3446
tp3447
a(g15
g6
(g18
S'\xa8\xb1\xef='
p3448
tp3449
Rp3450
tp3451
a(g235
g6
(g18
S'\x84\xe4\xea='
p3452
tp3453
Rp3454
tp3455
a(g247
g6
(g18
S'\x9f\x12\xcd='
p3456
tp3457
Rp3458
tp3459
asg73
g15
sa(dp3460
g2
S'../../../data/emanuela/activity-recognition/images/NTCIR-Lifelog-256/u1/2015-03-01/b00000022_21i6bq_20150301_072048e.jpg'
p3461
sg4
(lp3462
(g15
g6
(g18
S'F\x84\x04?'
p3463
tp3464
Rp3465
tp3466
a(g44
g6
(g18
S'F\xf5\x1c>'
p3467
tp3468
Rp3469
tp3470
a(g713
g6
(g18
S'x\x12\xbb='
p3471
tp3472
Rp3473
tp3474
a(g235
g6
(g18
S'H\xa2\x86='
p3475
tp3476
Rp3477
tp3478
a(g32
g6
(g18
S'3\xce\x18='
p3479
tp3480
Rp3481
tp3482
asg73
g15
sa(dp3483
g2
S'../../../data/emanuela/activity-recognition/images/NTCIR-Lifelog-256/u1/2015-03-05/b00001210_21i6bq_20150305_200628e.jpg'
p3484
sg4
(lp3485
(g32
g6
(g18
S"':??"
p3486
tp3487
Rp3488
tp3489
a(g15
g6
(g18
S'\xcc+\xb0='
p3490
tp3491
Rp3492
tp3493
a(g44
g6
(g18
S'\x943_='
p3494
tp3495
Rp3496
tp3497
a(g713
g6
(g18
S'\x80\x93K='
p3498
tp3499
Rp3500
tp3501
a(g424
g6
(g18
S"'z\xab<"
p3502
tp3503
Rp3504
tp3505
asg73
g15
sa(dp3506
g2
S'../../../data/emanuela/activity-recognition/images/NTCIR-Lifelog-256/u1/2015-03-08/b00000791_21i6bq_20150308_173225e.jpg'
p3507
sg4
(lp3508
(g235
g6
(g18
S'\xb9$\x95>'
p3509
tp3510
Rp3511
tp3512
a(g247
g6
(g18
S'<\xa9\x82>'
p3513
tp3514
Rp3515
tp3516
a(g131
g6
(g18
S'\xd5\x9c;>'
p3517
tp3518
Rp3519
tp3520
a(g44
g6
(g18
S'\xd5\xab\x1b>'
p3521
tp3522
Rp3523
tp3524
a(g68
g6
(g18
S'\x93\x9f\x05='
p3525
tp3526
Rp3527
tp3528
asg73
g15
sa(dp3529
g2
S'../../../data/emanuela/activity-recognition/images/NTCIR-Lifelog-256/u1/2015-03-02/b00001159_21i6bq_20150302_191502e.jpg'
p3530
sg4
(lp3531
(g235
g6
(g18
S'\xc7.\xc2>'
p3532
tp3533
Rp3534
tp3535
a(g15
g6
(g18
S'\xa0\x83\x0c>'
p3536
tp3537
Rp3538
tp3539
a(g44
g6
(g18
S'\xfd\t\xc6='
p3540
tp3541
Rp3542
tp3543
a(g68
g6
(g18
S'.\xea\xa0='
p3544
tp3545
Rp3546
tp3547
a(g247
g6
(g18
S'\x10G\x96='
p3548
tp3549
Rp3550
tp3551
asg73
g15
sa(dp3552
g2
S'../../../data/emanuela/activity-recognition/images/NTCIR-Lifelog-256/u1/2015-02-23/b00000011_21i6bq_20150223_070859e.jpg'
p3553
sg4
(lp3554
(g44
g6
(g18
S'T\x88\xf2>'
p3555
tp3556
Rp3557
tp3558
a(g301
g6
(g18
S'\xed\x82.>'
p3559
tp3560
Rp3561
tp3562
a(g100
g6
(g18
S'\xd2\xc8\xa5='
p3563
tp3564
Rp3565
tp3566
a(g525
g6
(g18
S'\x11&\x8d='
p3567
tp3568
Rp3569
tp3570
a(g212
g6
(g18
S'\xa2qT='
p3571
tp3572
Rp3573
tp3574
asg73
g15
sa(dp3575
g2
S'../../../data/emanuela/activity-recognition/images/NTCIR-Lifelog-256/u1/2015-03-01/b00000025_21i6bq_20150301_072051e.jpg'
p3576
sg4
(lp3577
(g15
g6
(g18
S'\xff\xa8\xa5>'
p3578
tp3579
Rp3580
tp3581
a(g44
g6
(g18
S'\xef\xd2\x9d>'
p3582
tp3583
Rp3584
tp3585
a(g32
g6
(g18
S'f]\x9c>'
p3586
tp3587
Rp3588
tp3589
a(g247
g6
(g18
S'\xef\xd9"<'
p3590
tp3591
Rp3592
tp3593
a(g56
g6
(g18
S'[\xb1\x1e<'
p3594
tp3595
Rp3596
tp3597
asg73
g15
sa(dp3598
g2
S'../../../data/emanuela/activity-recognition/images/NTCIR-Lifelog-256/u1/2015-03-01/b00000088_21i6bq_20150301_074724e.jpg'
p3599
sg4
(lp3600
(g15
g6
(g18
S'Z-\xe1>'
p3601
tp3602
Rp3603
tp3604
a(g68
g6
(g18
S'\xcd;w>'
p3605
tp3606
Rp3607
tp3608
a(g44
g6
(g18
S'H`%>'
p3609
tp3610
Rp3611
tp3612
a(g131
g6
(g18
S'\xe7\xaa\x88='
p3613
tp3614
Rp3615
tp3616
a(g235
g6
(g18
S'S\x96\x83='
p3617
tp3618
Rp3619
tp3620
asg73
g15
sa(dp3621
g2
S'../../../data/emanuela/activity-recognition/images/NTCIR-Lifelog-256/u1/2015-03-02/b00001139_21i6bq_20150302_190044e.jpg'
p3622
sg4
(lp3623
(g32
g6
(g18
S'\t\xed ?'
p3624
tp3625
Rp3626
tp3627
a(g44
g6
(g18
S'T\xae\xf7='
p3628
tp3629
Rp3630
tp3631
a(g301
g6
(g18
S'w"\xc1='
p3632
tp3633
Rp3634
tp3635
a(g68
g6
(g18
S'\xea:\xf2<'
p3636
tp3637
Rp3638
tp3639
a(g525
g6
(g18
S'\xbe\x11\xe0<'
p3640
tp3641
Rp3642
tp3643
asg73
g15
sa(dp3644
g2
S'../../../data/emanuela/activity-recognition/images/NTCIR-Lifelog-256/u1/2015-02-27/b00001161_21i6bq_20150227_205832e.jpg'
p3645
sg4
(lp3646
(g44
g6
(g18
S'\r<\xaa>'
p3647
tp3648
Rp3649
tp3650
a(g301
g6
(g18
S'\xb6f\x93>'
p3651
tp3652
Rp3653
tp3654
a(g15
g6
(g18
S'_\xda\xfd='
p3655
tp3656
Rp3657
tp3658
a(g32
g6
(g18
S'\xab\xf1\xe8='
p3659
tp3660
Rp3661
tp3662
a(g424
g6
(g18
S'{\x8aG='
p3663
tp3664
Rp3665
tp3666
asg73
g15
sa(dp3667
g2
S'../../../data/emanuela/activity-recognition/images/NTCIR-Lifelog-256/u1/2015-02-23/b00000950_21i6bq_20150223_172750e.jpg'
p3668
sg4
(lp3669
(g301
g6
(g18
S'\x8f\xd0\r?'
p3670
tp3671
Rp3672
tp3673
a(g247
g6
(g18
S'\xbeS\x9f='
p3674
tp3675
Rp3676
tp3677
a(g68
g6
(g18
S'r\x16\x9d='
p3678
tp3679
Rp3680
tp3681
a(g56
g6
(g18
S'\xfd\x00\x9a='
p3682
tp3683
Rp3684
tp3685
a(g32
g6
(g18
S'\x9d\xaa\x7f='
p3686
tp3687
Rp3688
tp3689
asg73
g15
sa(dp3690
g2
S'../../../data/emanuela/activity-recognition/images/NTCIR-Lifelog-256/u1/2015-03-03/b00000048_21i6bq_20150303_062802e.jpg'
p3691
sg4
(lp3692
(g44
g6
(g18
S'\xf4\xfe+?'
p3693
tp3694
Rp3695
tp3696
a(g68
g6
(g18
S'\x16\xdb->'
p3697
tp3698
Rp3699
tp3700
a(g15
g6
(g18
S'Ci#='
p3701
tp3702
Rp3703
tp3704
a(g235
g6
(g18
S'\xc0\r\x15='
p3705
tp3706
Rp3707
tp3708
a(g131
g6
(g18
S'\xc22\xa9<'
p3709
tp3710
Rp3711
tp3712
asg73
g15
sa(dp3713
g2
S'../../../data/emanuela/activity-recognition/images/NTCIR-Lifelog-256/u1/2015-03-09/b00001107_21i6bq_20150309_183834e.jpg'
p3714
sg4
(lp3715
(g68
g6
(g18
S'W\xfe\xf8>'
p3716
tp3717
Rp3718
tp3719
a(g131
g6
(g18
S'\xae\xd2H>'
p3720
tp3721
Rp3722
tp3723
a(g44
g6
(g18
S'\xb3\xa9\xdd='
p3724
tp3725
Rp3726
tp3727
a(g15
g6
(g18
S'n~\xc6='
p3728
tp3729
Rp3730
tp3731
a(g32
g6
(g18
S'\xaam\xe1<'
p3732
tp3733
Rp3734
tp3735
asg73
g15
sa(dp3736
g2
S'../../../data/emanuela/activity-recognition/images/NTCIR-Lifelog-256/u1/2015-03-01/b00000045_21i6bq_20150301_072643e.jpg'
p3737
sg4
(lp3738
(g44
g6
(g18
S'\xa527>'
p3739
tp3740
Rp3741
tp3742
a(g15
g6
(g18
S'2\xca\x03>'
p3743
tp3744
Rp3745
tp3746
a(g424
g6
(g18
S'\xd2\xb6\xf4='
p3747
tp3748
Rp3749
tp3750
a(g32
g6
(g18
S'\xbb\xcd\xcd='
p3751
tp3752
Rp3753
tp3754
a(g68
g6
(g18
S'\xa0\xc2\xc5='
p3755
tp3756
Rp3757
tp3758
asg73
g15
sa(dp3759
g2
S'../../../data/emanuela/activity-recognition/images/NTCIR-Lifelog-256/u1/2015-03-05/b00001168_21i6bq_20150305_193555e.jpg'
p3760
sg4
(lp3761
(g15
g6
(g18
S'a\xf9\x97>'
p3762
tp3763
Rp3764
tp3765
a(g32
g6
(g18
S'-M\x91>'
p3766
tp3767
Rp3768
tp3769
a(g56
g6
(g18
S'\xb6\xca >'
p3770
tp3771
Rp3772
tp3773
a(g44
g6
(g18
S'\r=\xb0='
p3774
tp3775
Rp3776
tp3777
a(g68
g6
(g18
S'~\xb8\x1e='
p3778
tp3779
Rp3780
tp3781
asg73
g15
sa(dp3782
g2
S'../../../data/emanuela/activity-recognition/images/NTCIR-Lifelog-256/u1/2015-02-24/b00001343_21i6bq_20150224_201946e.jpg'
p3783
sg4
(lp3784
(g68
g6
(g18
S'\xc9\xf3\xdc>'
p3785
tp3786
Rp3787
tp3788
a(g15
g6
(g18
S'\xcfp\x0c>'
p3789
tp3790
Rp3791
tp3792
a(g424
g6
(g18
S'^K\xe2='
p3793
tp3794
Rp3795
tp3796
a(g713
g6
(g18
S'\xc1\x1b|='
p3797
tp3798
Rp3799
tp3800
a(g32
g6
(g18
S'\x88\x85m='
p3801
tp3802
Rp3803
tp3804
asg73
g15
sa(dp3805
g2
S'../../../data/emanuela/activity-recognition/images/NTCIR-Lifelog-256/u1/2015-02-23/b00000958_21i6bq_20150223_173251e.jpg'
p3806
sg4
(lp3807
(g56
g6
(g18
S'\\2\xa5>'
p3808
tp3809
Rp3810
tp3811
a(g32
g6
(g18
S'\xfa\xe8g>'
p3812
tp3813
Rp3814
tp3815
a(g15
g6
(g18
S'KK\xb2='
p3816
tp3817
Rp3818
tp3819
a(g44
g6
(g18
S'\xcdA\xa3='
p3820
tp3821
Rp3822
tp3823
a(g301
g6
(g18
S'\x94u\x9c='
p3824
tp3825
Rp3826
tp3827
asg73
g15
sa(dp3828
g2
S'../../../data/emanuela/activity-recognition/images/NTCIR-Lifelog-256/u1/2015-02-28/b00001136_21i6bq_20150228_193422e.jpg'
p3829
sg4
(lp3830
(g56
g6
(g18
S'o^\xa2>'
p3831
tp3832
Rp3833
tp3834
a(g713
g6
(g18
S'\xa5\x99B>'
p3835
tp3836
Rp3837
tp3838
a(g32
g6
(g18
S'8\x99\x1c>'
p3839
tp3840
Rp3841
tp3842
a(g100
g6
(g18
S'+\xd3\x91='
p3843
tp3844
Rp3845
tp3846
a(g424
g6
(g18
S'F\x92L='
p3847
tp3848
Rp3849
tp3850
asg73
g15
sa(dp3851
g2
S'../../../data/emanuela/activity-recognition/images/NTCIR-Lifelog-256/u1/2015-02-24/b00001380_21i6bq_20150224_204304e.jpg'
p3852
sg4
(lp3853
(g44
g6
(g18
S'\xa4\x10\xe7>'
p3854
tp3855
Rp3856
tp3857
a(g15
g6
(g18
S'\x81\xe1u>'
p3858
tp3859
Rp3860
tp3861
a(g68
g6
(g18
S'\xc3W\x0b>'
p3862
tp3863
Rp3864
tp3865
a(g235
g6
(g18
S'+\xe5\xb2='
p3866
tp3867
Rp3868
tp3869
a(g32
g6
(g18
S'\xaa4\x01='
p3870
tp3871
Rp3872
tp3873
asg73
g15
sa(dp3874
g2
S'../../../data/emanuela/activity-recognition/images/NTCIR-Lifelog-256/u1/2015-03-02/b00001137_21i6bq_20150302_185922e.jpg'
p3875
sg4
(lp3876
(g15
g6
(g18
S'\x06\xc7\xef>'
p3877
tp3878
Rp3879
tp3880
a(g68
g6
(g18
S'@\xc1\xc7>'
p3881
tp3882
Rp3883
tp3884
a(g131
g6
(g18
S'7\xd8y='
p3885
tp3886
Rp3887
tp3888
a(g44
g6
(g18
S'\xe1\x86\xf0<'
p3889
tp3890
Rp3891
tp3892
a(g200
g6
(g18
S'\xeb\xb7\xd5<'
p3893
tp3894
Rp3895
tp3896
asg73
g15
sa(dp3897
g2
S'../../../data/emanuela/activity-recognition/images/NTCIR-Lifelog-256/u1/2015-03-05/b00000038_21i6bq_20150305_063047e.jpg'
p3898
sg4
(lp3899
(g32
g6
(g18
S'\xec\xc3"?'
p3900
tp3901
Rp3902
tp3903
a(g15
g6
(g18
S'\xc1\xaa\x1f>'
p3904
tp3905
Rp3906
tp3907
a(g44
g6
(g18
S'_\xf6\xa0='
p3908
tp3909
Rp3910
tp3911
a(g68
g6
(g18
S'0m\x9b<'
p3912
tp3913
Rp3914
tp3915
a(g56
g6
(g18
S'\x15\xceo<'
p3916
tp3917
Rp3918
tp3919
asg73
g15
sa(dp3920
g2
S'../../../data/emanuela/activity-recognition/images/NTCIR-Lifelog-256/u1/2015-03-01/b00000051_21i6bq_20150301_072944e.jpg'
p3921
sg4
(lp3922
(g44
g6
(g18
S'\xc1AT?'
p3923
tp3924
Rp3925
tp3926
a(g212
g6
(g18
S'\xb4\xce\xd3<'
p3927
tp3928
Rp3929
tp3930
a(g32
g6
(g18
S'\xe3(\xcb<'
p3931
tp3932
Rp3933
tp3934
a(g56
g6
(g18
S'\x02\x82\xbe<'
p3935
tp3936
Rp3937
tp3938
a(g100
g6
(g18
S'\xd4]\xb9<'
p3939
tp3940
Rp3941
tp3942
asg73
g15
sa(dp3943
g2
S'../../../data/emanuela/activity-recognition/images/NTCIR-Lifelog-256/u1/2015-02-23/b00001028_21i6bq_20150223_182002e.jpg'
p3944
sg4
(lp3945
(g68
g6
(g18
S'\x14\xdcg?'
p3946
tp3947
Rp3948
tp3949
a(g15
g6
(g18
S'\xecy\xb4<'
p3950
tp3951
Rp3952
tp3953
a(g525
g6
(g18
S'\xe1\xc9\xb1<'
p3954
tp3955
Rp3956
tp3957
a(g131
g6
(g18
S'\xf9\x9a-<'
p3958
tp3959
Rp3960
tp3961
a(g200
g6
(g18
S'!/-<'
p3962
tp3963
Rp3964
tp3965
asg73
g15
sa(dp3966
g2
S'../../../data/emanuela/activity-recognition/images/NTCIR-Lifelog-256/u1/2015-03-03/b00000044_21i6bq_20150303_062534e.jpg'
p3967
sg4
(lp3968
(g56
g6
(g18
S'8[\x84>'
p3969
tp3970
Rp3971
tp3972
a(g525
g6
(g18
S'\x07\x7f5>'
p3973
tp3974
Rp3975
tp3976
a(g448
g6
(g18
S'\x86\x84\x17>'
p3977
tp3978
Rp3979
tp3980
a(g68
g6
(g18
S'I\xea\xf3='
p3981
tp3982
Rp3983
tp3984
a(g235
g6
(g18
S'\x9e=\x9b='
p3985
tp3986
Rp3987
tp3988
asg73
g15
sa(dp3989
g2
S'../../../data/emanuela/activity-recognition/images/NTCIR-Lifelog-256/u1/2015-03-01/b00000028_21i6bq_20150301_072100e.jpg'
p3990
sg4
(lp3991
(g44
g6
(g18
S'5\xcc\xcf>'
p3992
tp3993
Rp3994
tp3995
a(g15
g6
(g18
S'1y:>'
p3996
tp3997
Rp3998
tp3999
a(g32
g6
(g18
S'\xeb\x15\x01>'
p4000
tp4001
Rp4002
tp4003
a(g68
g6
(g18
S'+\xab\xba='
p4004
tp4005
Rp4006
tp4007
a(g713
g6
(g18
S'l\x91\x80='
p4008
tp4009
Rp4010
tp4011
asg73
g15
sa(dp4012
g2
S'../../../data/emanuela/activity-recognition/images/NTCIR-Lifelog-256/u1/2015-02-23/b00000955_21i6bq_20150223_173058e.jpg'
p4013
sg4
(lp4014
(g32
g6
(g18
S'\xced\x99>'
p4015
tp4016
Rp4017
tp4018
a(g713
g6
(g18
S'\xf1\xc0\x1f>'
p4019
tp4020
Rp4021
tp4022
a(g68
g6
(g18
S'\xe0(\x11>'
p4023
tp4024
Rp4025
tp4026
a(g301
g6
(g18
S'\xb5\x87\xf3='
p4027
tp4028
Rp4029
tp4030
a(g424
g6
(g18
S'\xf2\t\xd7='
p4031
tp4032
Rp4033
tp4034
asg73
g15
sa(dp4035
g2
S'../../../data/emanuela/activity-recognition/images/NTCIR-Lifelog-256/u1/2015-03-01/b00000031_21i6bq_20150301_072256e.jpg'
p4036
sg4
(lp4037
(g32
g6
(g18
S'\xfb\xdf\xfe>'
p4038
tp4039
Rp4040
tp4041
a(g56
g6
(g18
S'\x8dm\xad='
p4042
tp4043
Rp4044
tp4045
a(g15
g6
(g18
S'\x80\x1a\xa2='
p4046
tp4047
Rp4048
tp4049
a(g44
g6
(g18
S'\x16\x15\x93='
p4050
tp4051
Rp4052
tp4053
a(g424
g6
(g18
S'@\x1ac='
p4054
tp4055
Rp4056
tp4057
asg73
g15
sa(dp4058
g2
S'../../../data/emanuela/activity-recognition/images/NTCIR-Lifelog-256/u1/2015-02-23/b00001013_21i6bq_20150223_181051e.jpg'
p4059
sg4
(lp4060
(g68
g6
(g18
S'\x83\xe3\x18?'
p4061
tp4062
Rp4063
tp4064
a(g579
g6
(g18
S'\xf6\x17\x9a='
p4065
tp4066
Rp4067
tp4068
a(g56
g6
(g18
S'\x8e\x01\x95='
p4069
tp4070
Rp4071
tp4072
a(g525
g6
(g18
S'\x91\xb4\x80='
p4073
tp4074
Rp4075
tp4076
a(g131
g6
(g18
S'C\xaaG='
p4077
tp4078
Rp4079
tp4080
asg73
g15
sa(dp4081
g2
S'../../../data/emanuela/activity-recognition/images/NTCIR-Lifelog-256/u1/2015-02-24/b00000003_21i6bq_20150224_064215e.jpg'
p4082
sg4
(lp4083
(g15
g6
(g18
S'W;\x99>'
p4084
tp4085
Rp4086
tp4087
a(g56
g6
(g18
S'\xee\rl>'
p4088
tp4089
Rp4090
tp4091
a(g32
g6
(g18
S'\xefBe>'
p4092
tp4093
Rp4094
tp4095
a(g44
g6
(g18
S'~wz='
p4096
tp4097
Rp4098
tp4099
a(g131
g6
(g18
S'V\xd5d='
p4100
tp4101
Rp4102
tp4103
asg73
g15
sa(dp4104
g2
S'../../../data/emanuela/activity-recognition/images/NTCIR-Lifelog-256/u1/2015-03-09/b00000010_21i6bq_20150309_065308e.jpg'
p4105
sg4
(lp4106
(g32
g6
(g18
S'\xf5\xcd/?'
p4107
tp4108
Rp4109
tp4110
a(g15
g6
(g18
S'\x884\x90='
p4111
tp4112
Rp4113
tp4114
a(g44
g6
(g18
S'\xe299='
p4115
tp4116
Rp4117
tp4118
a(g200
g6
(g18
S'\x82\xb12='
p4119
tp4120
Rp4121
tp4122
a(g424
g6
(g18
S'\xac\x9c\xc5<'
p4123
tp4124
Rp4125
tp4126
asg73
g15
sa(dp4127
g2
S'../../../data/emanuela/activity-recognition/images/NTCIR-Lifelog-256/u1/2015-03-02/b00001091_21i6bq_20150302_183219e.jpg'
p4128
sg4
(lp4129
(g44
g6
(g18
S'`b\xa8>'
p4130
tp4131
Rp4132
tp4133
a(g235
g6
(g18
S'(\x7f<>'
p4134
tp4135
Rp4136
tp4137
a(g68
g6
(g18
S'Nj\xc8='
p4138
tp4139
Rp4140
tp4141
a(g32
g6
(g18
S'\xa07v='
p4142
tp4143
Rp4144
tp4145
a(g15
g6
(g18
S'\x10\x93e='
p4146
tp4147
Rp4148
tp4149
asg73
g15
sa(dp4150
g2
S'../../../data/emanuela/activity-recognition/images/NTCIR-Lifelog-256/u1/2015-03-03/b00000036_21i6bq_20150303_062410e.jpg'
p4151
sg4
(lp4152
(g44
g6
(g18
S'\xa2\x0fy>'
p4153
tp4154
Rp4155
tp4156
a(g68
g6
(g18
S'\xcaX\x12>'
p4157
tp4158
Rp4159
tp4160
a(g131
g6
(g18
S'zt\x0e>'
p4161
tp4162
Rp4163
tp4164
a(g247
g6
(g18
S'2\x1b\xeb='
p4165
tp4166
Rp4167
tp4168
a(g56
g6
(g18
S'-\xa8\xbb='
p4169
tp4170
Rp4171
tp4172
asg73
g15
sa(dp4173
g2
S'../../../data/emanuela/activity-recognition/images/NTCIR-Lifelog-256/u1/2015-03-03/b00000040_21i6bq_20150303_062413e.jpg'
p4174
sg4
(lp4175
(g15
g6
(g18
S'\xcfF\xe7>'
p4176
tp4177
Rp4178
tp4179
a(g68
g6
(g18
S'\xe3Ub>'
p4180
tp4181
Rp4182
tp4183
a(g44
g6
(g18
S'^{L>'
p4184
tp4185
Rp4186
tp4187
a(g32
g6
(g18
S'J\xdcY='
p4188
tp4189
Rp4190
tp4191
a(g56
g6
(g18
S'w\xc0\x94<'
p4192
tp4193
Rp4194
tp4195
asg73
g15
sa(dp4196
g2
S'../../../data/emanuela/activity-recognition/images/NTCIR-Lifelog-256/u1/2015-03-15/b00000047_21i6bq_20150315_081211e.jpg'
p4197
sg4
(lp4198
(g32
g6
(g18
S'\xae\xd6)?'
p4199
tp4200
Rp4201
tp4202
a(g44
g6
(g18
S';\x16+>'
p4203
tp4204
Rp4205
tp4206
a(g15
g6
(g18
S'\xc3P\x11>'
p4207
tp4208
Rp4209
tp4210
a(g301
g6
(g18
S'9\xdd\x00<'
p4211
tp4212
Rp4213
tp4214
a(g424
g6
(g18
S'A!\xe8;'
p4215
tp4216
Rp4217
tp4218
asg73
g15
sa(dp4219
g2
S'../../../data/emanuela/activity-recognition/images/NTCIR-Lifelog-256/u1/2015-03-05/b00001212_21i6bq_20150305_200739e.jpg'
p4220
sg4
(lp4221
(g44
g6
(g18
S'\x9f\x92\xeb>'
p4222
tp4223
Rp4224
tp4225
a(g235
g6
(g18
S'\xa7x\xec='
p4226
tp4227
Rp4228
tp4229
a(g68
g6
(g18
S'~?\x80='
p4230
tp4231
Rp4232
tp4233
a(g525
g6
(g18
S'\xd7\x83V='
p4234
tp4235
Rp4236
tp4237
a(g56
g6
(g18
S'y\x83G='
p4238
tp4239
Rp4240
tp4241
asg73
g15
sa(dp4242
g2
S'../../../data/emanuela/activity-recognition/images/NTCIR-Lifelog-256/u1/2015-03-03/b00000031_21i6bq_20150303_062240e.jpg'
p4243
sg4
(lp4244
(g448
g6
(g18
S'^\x1dj>'
p4245
tp4246
Rp4247
tp4248
a(g579
g6
(g18
S'\xb7\x90%>'
p4249
tp4250
Rp4251
tp4252
a(g56
g6
(g18
S'\xe6w\xdd='
p4253
tp4254
Rp4255
tp4256
a(g424
g6
(g18
S'\xb4\x1e\xd5='
p4257
tp4258
Rp4259
tp4260
a(g68
g6
(g18
S'\xdc\xd7\xa0='
p4261
tp4262
Rp4263
tp4264
asg73
g15
sa(dp4265
g2
S'../../../data/emanuela/activity-recognition/images/NTCIR-Lifelog-256/u1/2015-03-13/b00001277_21i6bq_20150313_215611e.jpg'
p4266
sg4
(lp4267
(g32
g6
(g18
S'\x1fn\xae>'
p4268
tp4269
Rp4270
tp4271
a(g15
g6
(g18
S'\x7f\xd9{>'
p4272
tp4273
Rp4274
tp4275
a(g68
g6
(g18
S'\x1e\xd0\x1d>'
p4276
tp4277
Rp4278
tp4279
a(g56
g6
(g18
S'k\x9c\xb1='
p4280
tp4281
Rp4282
tp4283
a(g713
g6
(g18
S'\xb9\xdci='
p4284
tp4285
Rp4286
tp4287
asg73
g15
sa(dp4288
g2
S'../../../data/emanuela/activity-recognition/images/NTCIR-Lifelog-256/u1/2015-03-02/b00001092_21i6bq_20150302_183255e.jpg'
p4289
sg4
(lp4290
(g56
g6
(g18
S'\xa7@\x07?'
p4291
tp4292
Rp4293
tp4294
a(g32
g6
(g18
S'\x84\x87>>'
p4295
tp4296
Rp4297
tp4298
a(g44
g6
(g18
S'\xfaIB='
p4299
tp4300
Rp4301
tp4302
a(g15
g6
(g18
S'0\xa4;='
p4303
tp4304
Rp4305
tp4306
a(g448
g6
(g18
S'\xa5\xc08='
p4307
tp4308
Rp4309
tp4310
asg73
g15
sa(dp4311
g2
S'../../../data/emanuela/activity-recognition/images/NTCIR-Lifelog-256/u1/2015-03-19/b00001893_21i6bq_20150319_102216e.jpg'
p4312
sg4
(lp4313
(g235
g6
(g18
S'\xf5^\x90>'
p4314
tp4315
Rp4316
tp4317
a(g68
g6
(g18
S'`\xd6=>'
p4318
tp4319
Rp4320
tp4321
a(g247
g6
(g18
S'2\x8a\x18>'
p4322
tp4323
Rp4324
tp4325
a(g301
g6
(g18
S'\xbb3\xaf='
p4326
tp4327
Rp4328
tp4329
a(g32
g6
(g18
S'pl\x87='
p4330
tp4331
Rp4332
tp4333
asg73
g15
sa(dp4334
g2
S'../../../data/emanuela/activity-recognition/images/NTCIR-Lifelog-256/u1/2015-03-02/b00001138_21i6bq_20150302_190002e.jpg'
p4335
sg4
(lp4336
(g15
g6
(g18
S'\xb7\x8d\xe4>'
p4337
tp4338
Rp4339
tp4340
a(g68
g6
(g18
S' M.>'
p4341
tp4342
Rp4343
tp4344
a(g44
g6
(g18
S'\xf5T\xee='
p4345
tp4346
Rp4347
tp4348
a(g235
g6
(g18
S'(j%='
p4349
tp4350
Rp4351
tp4352
a(g579
g6
(g18
S'2f\x16='
p4353
tp4354
Rp4355
tp4356
asg73
g15
sa(dp4357
g2
S'../../../data/emanuela/activity-recognition/images/NTCIR-Lifelog-256/u1/2015-02-24/b00000005_21i6bq_20150224_064323e.jpg'
p4358
sg4
(lp4359
(g32
g6
(g18
S'\x1a\xa4\x9f>'
p4360
tp4361
Rp4362
tp4363
a(g579
g6
(g18
S'\xd9N\\>'
p4364
tp4365
Rp4366
tp4367
a(g424
g6
(g18
S'D_K>'
p4368
tp4369
Rp4370
tp4371
a(g713
g6
(g18
S'\xa6\xaa\x88='
p4372
tp4373
Rp4374
tp4375
a(g56
g6
(g18
S'\xa0\x07b='
p4376
tp4377
Rp4378
tp4379
asg73
g15
sa(dp4380
g2
S'../../../data/emanuela/activity-recognition/images/NTCIR-Lifelog-256/u1/2015-03-01/b00000046_21i6bq_20150301_072650e.jpg'
p4381
sg4
(lp4382
(g15
g6
(g18
S'1\x113?'
p4383
tp4384
Rp4385
tp4386
a(g44
g6
(g18
S'H\xa0$>'
p4387
tp4388
Rp4389
tp4390
a(g32
g6
(g18
S'\xb9\x07\x8c='
p4391
tp4392
Rp4393
tp4394
a(g131
g6
(g18
S'A\xa3\xd1<'
p4395
tp4396
Rp4397
tp4398
a(g235
g6
(g18
S'\xa4C_<'
p4399
tp4400
Rp4401
tp4402
asg73
g15
sa(dp4403
g2
S'../../../data/emanuela/activity-recognition/images/NTCIR-Lifelog-256/u1/2015-03-03/b00000046_21i6bq_20150303_062650e.jpg'
p4404
sg4
(lp4405
(g68
g6
(g18
S"M'\xdb>"
p4406
tp4407
Rp4408
tp4409
a(g15
g6
(g18
S'\xc3\xf1\xaf>'
p4410
tp4411
Rp4412
tp4413
a(g131
g6
(g18
S'\xdb\x9a\xa4='
p4414
tp4415
Rp4416
tp4417
a(g44
g6
(g18
S'\xa98\x97='
p4418
tp4419
Rp4420
tp4421
a(g247
g6
(g18
S'|Q\xb0<'
p4422
tp4423
Rp4424
tp4425
asg73
g15
sa(dp4426
g2
S'../../../data/emanuela/activity-recognition/images/NTCIR-Lifelog-256/u1/2015-03-02/b00000041_21i6bq_20150302_065835e.jpg'
p4427
sg4
(lp4428
(g44
g6
(g18
S'Ot\xbd>'
p4429
tp4430
Rp4431
tp4432
a(g235
g6
(g18
S'\x86t\x81>'
p4433
tp4434
Rp4435
tp4436
a(g131
g6
(g18
S'\xe9\xf3\x0f>'
p4437
tp4438
Rp4439
tp4440
a(g68
g6
(g18
S'\x80\xd1\x9e='
p4441
tp4442
Rp4443
tp4444
a(g1607
g6
(g18
S'V\xb9\x1c='
p4445
tp4446
Rp4447
tp4448
asg73
g15
sa(dp4449
g2
S'../../../data/emanuela/activity-recognition/images/NTCIR-Lifelog-256/u1/2015-02-26/b00000005_21i6bq_20150226_060953e.jpg'
p4450
sg4
(lp4451
(g44
g6
(g18
S'D\x17o>'
p4452
tp4453
Rp4454
tp4455
a(g235
g6
(g18
S'\x94\x19\xff='
p4456
tp4457
Rp4458
tp4459
a(g15
g6
(g18
S'\xcaj\xed='
p4460
tp4461
Rp4462
tp4463
a(g68
g6
(g18
S'\n\xc0\xae='
p4464
tp4465
Rp4466
tp4467
a(g32
g6
(g18
S'\x9a\xca\x9b='
p4468
tp4469
Rp4470
tp4471
asg73
g15
sa(dp4472
g2
S'../../../data/emanuela/activity-recognition/images/NTCIR-Lifelog-256/u1/2015-02-27/b00001168_21i6bq_20150227_210243e.jpg'
p4473
sg4
(lp4474
(g68
g6
(g18
S'\xfc\x84;?'
p4475
tp4476
Rp4477
tp4478
a(g15
g6
(g18
S'\x13\xb3G>'
p4479
tp4480
Rp4481
tp4482
a(g131
g6
(g18
S'\xc9\x0f`='
p4483
tp4484
Rp4485
tp4486
a(g200
g6
(g18
S'P\x91\xc8;'
p4487
tp4488
Rp4489
tp4490
a(g44
g6
(g18
S'\x12\t\xc5;'
p4491
tp4492
Rp4493
tp4494
asg73
g15
sa(dp4495
g2
S'../../../data/emanuela/activity-recognition/images/NTCIR-Lifelog-256/u1/2015-03-05/b00001169_21i6bq_20150305_193628e.jpg'
p4496
sg4
(lp4497
(g131
g6
(g18
S'\x7f;y>'
p4498
tp4499
Rp4500
tp4501
a(g247
g6
(g18
S'\xa3\xa0#>'
p4502
tp4503
Rp4504
tp4505
a(g68
g6
(g18
S'\xba\x8d\x1f>'
p4506
tp4507
Rp4508
tp4509
a(g235
g6
(g18
S'\x03B\xdc='
p4510
tp4511
Rp4512
tp4513
a(g44
g6
(g18
S'\xf0\xfe\xc3='
p4514
tp4515
Rp4516
tp4517
asg73
g15
sa(dp4518
g2
S'../../../data/emanuela/activity-recognition/images/NTCIR-Lifelog-256/u1/2015-02-23/b00000009_21i6bq_20150223_070814e.jpg'
p4519
sg4
(lp4520
(g15
g6
(g18
S'\xdbbE?'
p4521
tp4522
Rp4523
tp4524
a(g44
g6
(g18
S'|W\xc7='
p4525
tp4526
Rp4527
tp4528
a(g32
g6
(g18
S'\xdc|\xa8='
p4529
tp4530
Rp4531
tp4532
a(g200
g6
(g18
S',\x15&='
p4533
tp4534
Rp4535
tp4536
a(g525
g6
(g18
S'\xcdT\x03;'
p4537
tp4538
Rp4539
tp4540
asg73
g15
sa(dp4541
g2
S'../../../data/emanuela/activity-recognition/images/NTCIR-Lifelog-256/u1/2015-03-02/b00001084_21i6bq_20150302_182702e.jpg'
p4542
sg4
(lp4543
(g32
g6
(g18
S'V\xab\x1a?'
p4544
tp4545
Rp4546
tp4547
a(g15
g6
(g18
S'0\x1c\x1e>'
p4548
tp4549
Rp4550
tp4551
a(g301
g6
(g18
S'\xa2\x8c\x8e='
p4552
tp4553
Rp4554
tp4555
a(g44
g6
(g18
S'4a\\='
p4556
tp4557
Rp4558
tp4559
a(g56
g6
(g18
S'\x91\x02I='
p4560
tp4561
Rp4562
tp4563
asg73
g15
sa(dp4564
g2
S'../../../data/emanuela/activity-recognition/images/NTCIR-Lifelog-256/u1/2015-03-15/b00000003_21i6bq_20150315_074921e.jpg'
p4565
sg4
(lp4566
(g15
g6
(g18
S'QXK?'
p4567
tp4568
Rp4569
tp4570
a(g44
g6
(g18
S'\xbf\x0b;>'
p4571
tp4572
Rp4573
tp4574
a(g32
g6
(g18
S'\xc5\xddQ<'
p4575
tp4576
Rp4577
tp4578
a(g68
g6
(g18
S'\xc2fT;'
p4579
tp4580
Rp4581
tp4582
a(g200
g6
(g18
S'M\xa9Q;'
p4583
tp4584
Rp4585
tp4586
asg73
g15
sa.