(lp0
(dp1
S'image'
p2
S'../../../data/emanuela/activity-recognition/images/NTCIR-Lifelog-256/u1/2015-03-19/b00002130_21i6bq_20150319_125506e.jpg'
p3
sS'result'
p4
(lp5
(cnumpy.core.multiarray
scalar
p6
(cnumpy
dtype
p7
(S'S5'
p8
I0
I1
tp9
Rp10
(I3
S'|'
p11
NNNI5
I1
I0
tp12
bS'plane'
p13
tp14
Rp15
g6
(g7
(S'f4'
p16
I0
I1
tp17
Rp18
(I3
S'<'
p19
NNNI-1
I-1
I0
tp20
bS'\xb8n{?'
p21
tp22
Rp23
tp24
a(g6
(g7
(S'S7'
p25
I0
I1
tp26
Rp27
(I3
S'|'
p28
NNNI7
I1
I0
tp29
bS'reading'
p30
tp31
Rp32
g6
(g18
S'x\x1f.<'
p33
tp34
Rp35
tp36
a(g6
(g7
(S'S16'
p37
I0
I1
tp38
Rp39
(I3
S'|'
p40
NNNI16
I1
I0
tp41
bS'public transport'
p42
tp43
Rp44
g6
(g18
S';\xbe~;'
p45
tp46
Rp47
tp48
a(g6
(g7
(S'S14'
p49
I0
I1
tp50
Rp51
(I3
S'|'
p52
NNNI14
I1
I0
tp53
bS'walking indoor'
p54
tp55
Rp56
g6
(g18
S'l\xbc\x16;'
p57
tp58
Rp59
tp60
a(g6
(g7
(S'S7'
p61
I0
I1
tp62
Rp63
(I3
S'|'
p64
NNNI7
I1
I0
tp65
bS'driving'
p66
tp67
Rp68
g6
(g18
S'\xc7\xd8\x0b:'
p69
tp70
Rp71
tp72
asS'label'
p73
g15
sa(dp74
g2
S'../../../data/emanuela/activity-recognition/images/NTCIR-Lifelog-256/u1/2015-03-17/b00001354_21i6bq_20150317_212319e.jpg'
p75
sg4
(lp76
(g15
g6
(g18
S'}`_?'
p77
tp78
Rp79
tp80
a(g32
g6
(g18
S'\xe2\x98\xd6='
p81
tp82
Rp83
tp84
a(g6
(g7
(S'S7'
p85
I0
I1
tp86
Rp87
(I3
S'|'
p88
NNNI7
I1
I0
tp89
bS'working'
p90
tp91
Rp92
g6
(g18
S'\xc4\xa6\x1c<'
p93
tp94
Rp95
tp96
a(g44
g6
(g18
S'u\x04\x9e;'
p97
tp98
Rp99
tp100
a(g56
g6
(g18
S'\x80\xd4\r;'
p101
tp102
Rp103
tp104
asg73
g15
sa(dp105
g2
S'../../../data/emanuela/activity-recognition/images/NTCIR-Lifelog-256/u1/2015-03-16/b00002549_21i6bq_20150316_170734e.jpg'
p106
sg4
(lp107
(g6
(g7
(S'S8'
p108
I0
I1
tp109
Rp110
(I3
S'|'
p111
NNNI8
I1
I0
tp112
bS'shopping'
p113
tp114
Rp115
g6
(g18
S'\x12\x03\x06?'
p116
tp117
Rp118
tp119
a(g6
(g7
(S'S27'
p120
I0
I1
tp121
Rp122
(I3
S'|'
p123
NNNI27
I1
I0
tp124
bS'having drinks with somebody'
p125
tp126
Rp127
g6
(g18
S':\xa2\x15>'
p128
tp129
Rp130
tp131
a(g56
g6
(g18
S'\xae\xa9\x08>'
p132
tp133
Rp134
tp135
a(g15
g6
(g18
S'M\xc7\xa8='
p136
tp137
Rp138
tp139
a(g6
(g7
(S'S24'
p140
I0
I1
tp141
Rp142
(I3
S'|'
p143
NNNI24
I1
I0
tp144
bS'having drinks/meal alone'
p145
tp146
Rp147
g6
(g18
S'l\x8a\xd0<'
p148
tp149
Rp150
tp151
asg73
g15
sa(dp152
g2
S'../../../data/emanuela/activity-recognition/images/NTCIR-Lifelog-256/u1/2015-03-17/b00001331_21i6bq_20150317_211012e.jpg'
p153
sg4
(lp154
(g15
g6
(g18
S'\x04\x94C?'
p155
tp156
Rp157
tp158
a(g6
(g7
(S'S6'
p159
I0
I1
tp160
Rp161
(I3
S'|'
p162
NNNI6
I1
I0
tp163
bS'mobile'
p164
tp165
Rp166
g6
(g18
S'\xdf\x18\xf2='
p167
tp168
Rp169
tp170
a(g44
g6
(g18
S'\xbd\x80B='
p171
tp172
Rp173
tp174
a(g32
g6
(g18
S'5\xf0\xb2<'
p175
tp176
Rp177
tp178
a(g68
g6
(g18
S'\x9a-\x9d<'
p179
tp180
Rp181
tp182
asg73
g15
sa(dp183
g2
S'../../../data/emanuela/activity-recognition/images/NTCIR-Lifelog-256/u1/2015-03-17/b00001356_21i6bq_20150317_212421e.jpg'
p184
sg4
(lp185
(g15
g6
(g18
S'\xc8EH?'
p186
tp187
Rp188
tp189
a(g32
g6
(g18
S'\x1dO\xa0='
p190
tp191
Rp192
tp193
a(g44
g6
(g18
S'\x17+k='
p194
tp195
Rp196
tp197
a(g56
g6
(g18
S'J\x95\xac<'
p198
tp199
Rp200
tp201
a(g68
g6
(g18
S'8\x13`<'
p202
tp203
Rp204
tp205
asg73
g15
sa(dp206
g2
S'../../../data/emanuela/activity-recognition/images/NTCIR-Lifelog-256/u1/2015-03-17/b00001460_21i6bq_20150317_222151e.jpg'
p207
sg4
(lp208
(g15
g6
(g18
S'^\xa4O?'
p209
tp210
Rp211
tp212
a(g44
g6
(g18
S'd\x94|='
p213
tp214
Rp215
tp216
a(g32
g6
(g18
S'xn\xe7<'
p217
tp218
Rp219
tp220
a(g56
g6
(g18
S' \xdb\xe6<'
p221
tp222
Rp223
tp224
a(g68
g6
(g18
S'\x95\x00\xe4<'
p225
tp226
Rp227
tp228
asg73
g15
sa(dp229
g2
S'../../../data/emanuela/activity-recognition/images/NTCIR-Lifelog-256/u1/2015-03-17/b00001454_21i6bq_20150317_221816e.jpg'
p230
sg4
(lp231
(g15
g6
(g18
S'\x9e\xf3\xc1>'
p232
tp233
Rp234
tp235
a(g166
g6
(g18
S'&\xc9\x99>'
p236
tp237
Rp238
tp239
a(g32
g6
(g18
S'e\x10\x1e>'
p240
tp241
Rp242
tp243
a(g56
g6
(g18
S'\xb7\x01!='
p244
tp245
Rp246
tp247
a(g44
g6
(g18
S'\xca&\x07='
p248
tp249
Rp250
tp251
asg73
g15
sa(dp252
g2
S'../../../data/emanuela/activity-recognition/images/NTCIR-Lifelog-256/u1/2015-03-19/b00002458_21i6bq_20150319_164211e.jpg'
p253
sg4
(lp254
(g166
g6
(g18
S'8\x03\xa1>'
p255
tp256
Rp257
tp258
a(g44
g6
(g18
S'OFV>'
p259
tp260
Rp261
tp262
a(g56
g6
(g18
S'\xb7\xcaM>'
p263
tp264
Rp265
tp266
a(g6
(g7
(S'S7'
p267
I0
I1
tp268
Rp269
(I3
S'|'
p270
NNNI7
I1
I0
tp271
bS'resting'
p272
tp273
Rp274
g6
(g18
S'\xdc\xf5\xe4='
p275
tp276
Rp277
tp278
a(g15
g6
(g18
S'nT=='
p279
tp280
Rp281
tp282
asg73
g15
sa(dp283
g2
S'../../../data/emanuela/activity-recognition/images/NTCIR-Lifelog-256/u1/2015-03-17/b00001442_21i6bq_20150317_221130e.jpg'
p284
sg4
(lp285
(g166
g6
(g18
S'\x93^Y?'
p286
tp287
Rp288
tp289
a(g6
(g7
(S'S7'
p290
I0
I1
tp291
Rp292
(I3
S'|'
p293
NNNI7
I1
I0
tp294
bS'talking'
p295
tp296
Rp297
g6
(g18
S'\xc0\xe9\x1b='
p298
tp299
Rp300
tp301
a(g32
g6
(g18
S'\xa7Z\xa7<'
p302
tp303
Rp304
tp305
a(g147
g6
(g18
S'\xde\xcc\xa4<'
p306
tp307
Rp308
tp309
a(g15
g6
(g18
S'\x07\x9b\x8f<'
p310
tp311
Rp312
tp313
asg73
g15
sa(dp314
g2
S'../../../data/emanuela/activity-recognition/images/NTCIR-Lifelog-256/u1/2015-03-16/b00002474_21i6bq_20150316_162536e.jpg'
p315
sg4
(lp316
(g6
(g7
(S'S19'
p317
I0
I1
tp318
Rp319
(I3
S'|'
p320
NNNI19
I1
I0
tp321
bS'cleaning and chores'
p322
tp323
Rp324
g6
(g18
S'/\xb0\x8e>'
p325
tp326
Rp327
tp328
a(g6
(g7
(S'S7'
p329
I0
I1
tp330
Rp331
(I3
S'|'
p332
NNNI7
I1
I0
tp333
bS'cooking'
p334
tp335
Rp336
g6
(g18
S'D\xf4,>'
p337
tp338
Rp339
tp340
a(g15
g6
(g18
S'X\x82\x1d>'
p341
tp342
Rp343
tp344
a(g56
g6
(g18
S'W!\xbb='
p345
tp346
Rp347
tp348
a(g44
g6
(g18
S'\xd6\x0e\x9a='
p349
tp350
Rp351
tp352
asg73
g15
sa(dp353
g2
S'../../../data/emanuela/activity-recognition/images/NTCIR-Lifelog-256/u1/2015-03-17/b00001466_21i6bq_20150317_222231e.jpg'
p354
sg4
(lp355
(g15
g6
(g18
S'\xa0]D?'
p356
tp357
Rp358
tp359
a(g44
g6
(g18
S'\xccg\x85='
p360
tp361
Rp362
tp363
a(g32
g6
(g18
S'\x93\x9aa='
p364
tp365
Rp366
tp367
a(g56
g6
(g18
S'/\x17Y='
p368
tp369
Rp370
tp371
a(g166
g6
(g18
S'/\xce\x0b='
p372
tp373
Rp374
tp375
asg73
g15
sa(dp376
g2
S'../../../data/emanuela/activity-recognition/images/NTCIR-Lifelog-256/u1/2015-03-17/b00001439_21i6bq_20150317_220940e.jpg'
p377
sg4
(lp378
(g166
g6
(g18
S'\n\xfd]?'
p379
tp380
Rp381
tp382
a(g44
g6
(g18
S']\xdb\x04='
p383
tp384
Rp385
tp386
a(g15
g6
(g18
S"\xfd'\xa8<"
p387
tp388
Rp389
tp390
a(g147
g6
(g18
S'\xb7\t\x8e<'
p391
tp392
Rp393
tp394
a(g297
g6
(g18
S'\xf8\x1b\x8c<'
p395
tp396
Rp397
tp398
asg73
g15
sa(dp399
g2
S'../../../data/emanuela/activity-recognition/images/NTCIR-Lifelog-256/u1/2015-03-17/b00001440_21i6bq_20150317_221015e.jpg'
p400
sg4
(lp401
(g166
g6
(g18
S'a\x886?'
p402
tp403
Rp404
tp405
a(g15
g6
(g18
S'\xe9\x11\xd0='
p406
tp407
Rp408
tp409
a(g32
g6
(g18
S'"\xa7\x9c='
p410
tp411
Rp412
tp413
a(g44
g6
(g18
S'\x1f\\\xf6<'
p414
tp415
Rp416
tp417
a(g147
g6
(g18
S'\xa0\xd9\xbf<'
p418
tp419
Rp420
tp421
asg73
g15
sa(dp422
g2
S'../../../data/emanuela/activity-recognition/images/NTCIR-Lifelog-256/u1/2015-03-17/b00001394_21i6bq_20150317_214701e.jpg'
p423
sg4
(lp424
(g15
g6
(g18
S't\xe1\xb5>'
p425
tp426
Rp427
tp428
a(g166
g6
(g18
S'\xd7\xe4->'
p429
tp430
Rp431
tp432
a(g297
g6
(g18
S'\x18\xe7\xd5='
p433
tp434
Rp435
tp436
a(g56
g6
(g18
S'9M\xba='
p437
tp438
Rp439
tp440
a(g32
g6
(g18
S'\x12l\xb9='
p441
tp442
Rp443
tp444
asg73
g15
sa(dp445
g2
S'../../../data/emanuela/activity-recognition/images/NTCIR-Lifelog-256/u1/2015-03-19/b00002232_21i6bq_20150319_141047e.jpg'
p446
sg4
(lp447
(g15
g6
(g18
S"'\xc9Q?"
p448
tp449
Rp450
tp451
a(g56
g6
(g18
S'\xf3\x04\x1b>'
p452
tp453
Rp454
tp455
a(g44
g6
(g18
S'\xa6qt<'
p456
tp457
Rp458
tp459
a(g32
g6
(g18
S'K\xf2\x1a<'
p460
tp461
Rp462
tp463
a(g274
g6
(g18
S'\t\x9f\x01;'
p464
tp465
Rp466
tp467
asg73
g15
sa(dp468
g2
S'../../../data/emanuela/activity-recognition/images/NTCIR-Lifelog-256/u1/2015-03-16/b00002477_21i6bq_20150316_162708e.jpg'
p469
sg4
(lp470
(g324
g6
(g18
S'\x81\x82\x93>'
p471
tp472
Rp473
tp474
a(g274
g6
(g18
S'\x0f\xfe\x13>'
p475
tp476
Rp477
tp478
a(g15
g6
(g18
S'\x18k\n>'
p479
tp480
Rp481
tp482
a(g56
g6
(g18
S'x\xde\xe9='
p483
tp484
Rp485
tp486
a(g336
g6
(g18
S'E=\xa8='
p487
tp488
Rp489
tp490
asg73
g15
sa(dp491
g2
S'../../../data/emanuela/activity-recognition/images/NTCIR-Lifelog-256/u1/2015-03-19/b00002521_21i6bq_20150319_172119e.jpg'
p492
sg4
(lp493
(g56
g6
(g18
S'\x8e\x90\xeb>'
p494
tp495
Rp496
tp497
a(g274
g6
(g18
S'\x83\xde\xbf>'
p498
tp499
Rp500
tp501
a(g166
g6
(g18
S'r\x1d\xc9='
p502
tp503
Rp504
tp505
a(g6
(g7
(S'S19'
p506
I0
I1
tp507
Rp508
(I3
S'|'
p509
NNNI19
I1
I0
tp510
bS'attending a seminar'
p511
tp512
Rp513
g6
(g18
S'\x07\x95.<'
p514
tp515
Rp516
tp517
a(g297
g6
(g18
S'\x1c-,<'
p518
tp519
Rp520
tp521
asg73
g15
sa(dp522
g2
S'../../../data/emanuela/activity-recognition/images/NTCIR-Lifelog-256/u1/2015-03-17/b00001358_21i6bq_20150317_212539e.jpg'
p523
sg4
(lp524
(g15
g6
(g18
S'\xe7\xf8J?'
p525
tp526
Rp527
tp528
a(g32
g6
(g18
S'\xad\x14\xdc='
p529
tp530
Rp531
tp532
a(g44
g6
(g18
S'D\x05"='
p533
tp534
Rp535
tp536
a(g56
g6
(g18
S'Y2\x8e<'
p537
tp538
Rp539
tp540
a(g92
g6
(g18
S'\xdfA\xe0;'
p541
tp542
Rp543
tp544
asg73
g15
sa(dp545
g2
S'../../../data/emanuela/activity-recognition/images/NTCIR-Lifelog-256/u1/2015-03-08/b00000663_21i6bq_20150308_161649e.jpg'
p546
sg4
(lp547
(g15
g6
(g18
S'5\x064?'
p548
tp549
Rp550
tp551
a(g32
g6
(g18
S'd\x92&>'
p552
tp553
Rp554
tp555
a(g68
g6
(g18
S'\x8e\xbe\xbd='
p556
tp557
Rp558
tp559
a(g44
g6
(g18
S'\xaf[\x19<'
p560
tp561
Rp562
tp563
a(g274
g6
(g18
S'\xa1\x14\x11<'
p564
tp565
Rp566
tp567
asg73
g15
sa(dp568
g2
S'../../../data/emanuela/activity-recognition/images/NTCIR-Lifelog-256/u1/2015-03-16/b00002397_21i6bq_20150316_153846e.jpg'
p569
sg4
(lp570
(g166
g6
(g18
S'B\xa0\x84>'
p571
tp572
Rp573
tp574
a(g15
g6
(g18
S'\xa7\xbeg>'
p575
tp576
Rp577
tp578
a(g147
g6
(g18
S'\xc5bJ>'
p579
tp580
Rp581
tp582
a(g32
g6
(g18
S'\x9cK\x80='
p583
tp584
Rp585
tp586
a(g92
g6
(g18
S'FrV='
p587
tp588
Rp589
tp590
asg73
g15
sa(dp591
g2
S'../../../data/emanuela/activity-recognition/images/NTCIR-Lifelog-256/u1/2015-03-19/b00002501_21i6bq_20150319_170742e.jpg'
p592
sg4
(lp593
(g274
g6
(g18
S'\xc6\x15Y?'
p594
tp595
Rp596
tp597
a(g56
g6
(g18
S'%\x10\xcc='
p598
tp599
Rp600
tp601
a(g513
g6
(g18
S'F\x83\x18<'
p602
tp603
Rp604
tp605
a(g166
g6
(g18
S'\x0f\x8d\xfd;'
p606
tp607
Rp608
tp609
a(g297
g6
(g18
S'\\\x88\xda;'
p610
tp611
Rp612
tp613
asg73
g15
sa(dp614
g2
S'../../../data/emanuela/activity-recognition/images/NTCIR-Lifelog-256/u1/2015-03-16/b00002394_21i6bq_20150316_153705e.jpg'
p615
sg4
(lp616
(g32
g6
(g18
S'\x9c\x8ff>'
p617
tp618
Rp619
tp620
a(g324
g6
(g18
S'\xa6u\xff='
p621
tp622
Rp623
tp624
a(g56
g6
(g18
S'b[\xd8='
p625
tp626
Rp627
tp628
a(g166
g6
(g18
S'\x0cC\xcf='
p629
tp630
Rp631
tp632
a(g147
g6
(g18
S'l\xba\xc3='
p633
tp634
Rp635
tp636
asg73
g15
sa(dp637
g2
S'../../../data/emanuela/activity-recognition/images/NTCIR-Lifelog-256/u1/2015-03-08/b00000654_21i6bq_20150308_161128e.jpg'
p638
sg4
(lp639
(g56
g6
(g18
S'"pk>'
p640
tp641
Rp642
tp643
a(g274
g6
(g18
S'\xbc\x03\x1b>'
p644
tp645
Rp646
tp647
a(g324
g6
(g18
S'\x11\x9f\xc3='
p648
tp649
Rp650
tp651
a(g6
(g7
(S'S11'
p652
I0
I1
tp653
Rp654
(I3
S'|'
p655
NNNI11
I1
I0
tp656
bS'socializing'
p657
tp658
Rp659
g6
(g18
S'\xc9\xc1\xa3='
p660
tp661
Rp662
tp663
a(g297
g6
(g18
S'\xe6.\x98='
p664
tp665
Rp666
tp667
asg73
g15
sa(dp668
g2
S'../../../data/emanuela/activity-recognition/images/NTCIR-Lifelog-256/u1/2015-03-17/b00001474_21i6bq_20150317_222510e.jpg'
p669
sg4
(lp670
(g15
g6
(g18
S'\xa5\xd2Z?'
p671
tp672
Rp673
tp674
a(g32
g6
(g18
S'Z\xb2\x92='
p675
tp676
Rp677
tp678
a(g56
g6
(g18
S'Bk\xd1<'
p679
tp680
Rp681
tp682
a(g44
g6
(g18
S'K\xa5\x8b<'
p683
tp684
Rp685
tp686
a(g166
g6
(g18
S';\r-<'
p687
tp688
Rp689
tp690
asg73
g15
sa(dp691
g2
S'../../../data/emanuela/activity-recognition/images/NTCIR-Lifelog-256/u1/2015-03-19/b00002512_21i6bq_20150319_171518e.jpg'
p692
sg4
(lp693
(g56
g6
(g18
S'\xd4\xe6\xbf>'
p694
tp695
Rp696
tp697
a(g166
g6
(g18
S"\x9b'\x89>"
p698
tp699
Rp700
tp701
a(g274
g6
(g18
S'b\xb7q>'
p702
tp703
Rp704
tp705
a(g15
g6
(g18
S'%\x17\x06='
p706
tp707
Rp708
tp709
a(g297
g6
(g18
S'y\xfe\xac<'
p710
tp711
Rp712
tp713
asg73
g15
sa(dp714
g2
S'../../../data/emanuela/activity-recognition/images/NTCIR-Lifelog-256/u1/2015-03-08/b00000644_21i6bq_20150308_160606e.jpg'
p715
sg4
(lp716
(g32
g6
(g18
S'J\xa2\x0c?'
p717
tp718
Rp719
tp720
a(g15
g6
(g18
S'\xe1\xab\x81>'
p721
tp722
Rp723
tp724
a(g274
g6
(g18
S'\x15\x7fn='
p725
tp726
Rp727
tp728
a(g92
g6
(g18
S'\x8b\x9b:='
p729
tp730
Rp731
tp732
a(g56
g6
(g18
S'\x880\xf9<'
p733
tp734
Rp735
tp736
asg73
g15
sa(dp737
g2
S'../../../data/emanuela/activity-recognition/images/NTCIR-Lifelog-256/u1/2015-03-08/b00000598_21i6bq_20150308_154006e.jpg'
p738
sg4
(lp739
(g15
g6
(g18
S'C\x0fq?'
p740
tp741
Rp742
tp743
a(g32
g6
(g18
S'\xea\xdd\x10='
p744
tp745
Rp746
tp747
a(g56
g6
(g18
S'\xaff\xed;'
p748
tp749
Rp750
tp751
a(g147
g6
(g18
S'8((;'
p752
tp753
Rp754
tp755
a(g274
g6
(g18
S'h2\x15;'
p756
tp757
Rp758
tp759
asg73
g15
sa(dp760
g2
S'../../../data/emanuela/activity-recognition/images/NTCIR-Lifelog-256/u1/2015-03-17/b00001367_21i6bq_20150317_213110e.jpg'
p761
sg4
(lp762
(g15
g6
(g18
S't\x13+?'
p763
tp764
Rp765
tp766
a(g32
g6
(g18
S'\x11\xf1">'
p767
tp768
Rp769
tp770
a(g92
g6
(g18
S'X\xad\x19>'
p771
tp772
Rp773
tp774
a(g166
g6
(g18
S'\xd6\xb0\xad;'
p775
tp776
Rp777
tp778
a(g147
g6
(g18
S'\x95P\x93;'
p779
tp780
Rp781
tp782
asg73
g15
sa(dp783
g2
S'../../../data/emanuela/activity-recognition/images/NTCIR-Lifelog-256/u1/2015-03-19/b00002138_21i6bq_20150319_125921e.jpg'
p784
sg4
(lp785
(g15
g6
(g18
S'\x1a\xef}?'
p786
tp787
Rp788
tp789
a(g32
g6
(g18
S'\x94\xff\x9b;'
p790
tp791
Rp792
tp793
a(g56
g6
(g18
S'\x90\xc4\xcf:'
p794
tp795
Rp796
tp797
a(g44
g6
(g18
S'O\xf6\xa4:'
p798
tp799
Rp800
tp801
a(g68
g6
(g18
S'\xaehY9'
p802
tp803
Rp804
tp805
asg73
g15
sa(dp806
g2
S'../../../data/emanuela/activity-recognition/images/NTCIR-Lifelog-256/u1/2015-03-19/b00002536_21i6bq_20150319_172936e.jpg'
p807
sg4
(lp808
(g166
g6
(g18
S'\xcf\x8cW?'
p809
tp810
Rp811
tp812
a(g32
g6
(g18
S'\xef\x01\x7f='
p813
tp814
Rp815
tp816
a(g56
g6
(g18
S'.i\x13='
p817
tp818
Rp819
tp820
a(g92
g6
(g18
S'\x98D\x10='
p821
tp822
Rp823
tp824
a(g15
g6
(g18
S'\x1c\x91\x9e;'
p825
tp826
Rp827
tp828
asg73
g15
sa(dp829
g2
S'../../../data/emanuela/activity-recognition/images/NTCIR-Lifelog-256/u1/2015-03-19/b00002491_21i6bq_20150319_170134e.jpg'
p830
sg4
(lp831
(g56
g6
(g18
S'x\x0c\x05?'
p832
tp833
Rp834
tp835
a(g274
g6
(g18
S'\xfep\x88>'
p836
tp837
Rp838
tp839
a(g166
g6
(g18
S'\xddb\xe9='
p840
tp841
Rp842
tp843
a(g44
g6
(g18
S'\xc3\x16\xab<'
p844
tp845
Rp846
tp847
a(g297
g6
(g18
S'DF\xa6<'
p848
tp849
Rp850
tp851
asg73
g15
sa(dp852
g2
S'../../../data/emanuela/activity-recognition/images/NTCIR-Lifelog-256/u1/2015-03-19/b00002518_21i6bq_20150319_171927e.jpg'
p853
sg4
(lp854
(g56
g6
(g18
S'\xd3\xdc\xde>'
p855
tp856
Rp857
tp858
a(g166
g6
(g18
S'\xc70\x9b>'
p859
tp860
Rp861
tp862
a(g274
g6
(g18
S'X(\x15>'
p863
tp864
Rp865
tp866
a(g297
g6
(g18
S'p\xdf\xe4<'
p867
tp868
Rp869
tp870
a(g15
g6
(g18
S'ij\xbd<'
p871
tp872
Rp873
tp874
asg73
g15
sa(dp875
g2
S'../../../data/emanuela/activity-recognition/images/NTCIR-Lifelog-256/u1/2015-03-19/b00002468_21i6bq_20150319_164814e.jpg'
p876
sg4
(lp877
(g166
g6
(g18
S'\xe9\x12n?'
p878
tp879
Rp880
tp881
a(g92
g6
(g18
S'\xad\x8b2='
p882
tp883
Rp884
tp885
a(g56
g6
(g18
S'\x1a\x85,<'
p886
tp887
Rp888
tp889
a(g44
g6
(g18
S'-0\x9f;'
p890
tp891
Rp892
tp893
a(g32
g6
(g18
S'+\xe3b;'
p894
tp895
Rp896
tp897
asg73
g15
sa(dp898
g2
S'../../../data/emanuela/activity-recognition/images/NTCIR-Lifelog-256/u1/2015-03-17/b00001314_21i6bq_20150317_205913e.jpg'
p899
sg4
(lp900
(g15
g6
(g18
S'~\xc6M?'
p901
tp902
Rp903
tp904
a(g44
g6
(g18
S'\xdcP\xae='
p905
tp906
Rp907
tp908
a(g56
g6
(g18
S'\xccF\x1f='
p909
tp910
Rp911
tp912
a(g68
g6
(g18
S'r\xc8\xb2<'
p913
tp914
Rp915
tp916
a(g32
g6
(g18
S'\x1d\x7f\x8f<'
p917
tp918
Rp919
tp920
asg73
g15
sa(dp921
g2
S'../../../data/emanuela/activity-recognition/images/NTCIR-Lifelog-256/u1/2015-03-17/b00001317_21i6bq_20150317_210034e.jpg'
p922
sg4
(lp923
(g15
g6
(g18
S'?\xe0\xeb>'
p924
tp925
Rp926
tp927
a(g44
g6
(g18
S'\xa1@,>'
p928
tp929
Rp930
tp931
a(g68
g6
(g18
S'?\xde\xde='
p932
tp933
Rp934
tp935
a(g166
g6
(g18
S'\xea\xe5\xb3='
p936
tp937
Rp938
tp939
a(g32
g6
(g18
S'\t\xc2\x81='
p940
tp941
Rp942
tp943
asg73
g15
sa(dp944
g2
S'../../../data/emanuela/activity-recognition/images/NTCIR-Lifelog-256/u1/2015-03-19/b00002463_21i6bq_20150319_164501e.jpg'
p945
sg4
(lp946
(g166
g6
(g18
S'\xa9\x8af?'
p947
tp948
Rp949
tp950
a(g56
g6
(g18
S'\x9d\x80\n='
p951
tp952
Rp953
tp954
a(g274
g6
(g18
S'!\xf5\xc4<'
p955
tp956
Rp957
tp958
a(g44
g6
(g18
S'\x8f\xee\x04<'
p959
tp960
Rp961
tp962
a(g92
g6
(g18
S'\\\xf8\xbb;'
p963
tp964
Rp965
tp966
asg73
g15
sa(dp967
g2
S'../../../data/emanuela/activity-recognition/images/NTCIR-Lifelog-256/u1/2015-03-08/b00000602_21i6bq_20150308_154229e.jpg'
p968
sg4
(lp969
(g32
g6
(g18
S'B\xc4\xde>'
p970
tp971
Rp972
tp973
a(g15
g6
(g18
S"'U\x8e>"
p974
tp975
Rp976
tp977
a(g166
g6
(g18
S'\xa2\xe6\xec='
p978
tp979
Rp980
tp981
a(g92
g6
(g18
S'\xdd\xec@='
p982
tp983
Rp984
tp985
a(g68
g6
(g18
S'\x9d \xa9<'
p986
tp987
Rp988
tp989
asg73
g15
sa(dp990
g2
S'../../../data/emanuela/activity-recognition/images/NTCIR-Lifelog-256/u1/2015-03-19/b00002328_21i6bq_20150319_150815e.jpg'
p991
sg4
(lp992
(g15
g6
(g18
S'\\\xdbD?'
p993
tp994
Rp995
tp996
a(g32
g6
(g18
S'\x9d\x9d->'
p997
tp998
Rp999
tp1000
a(g324
g6
(g18
S'\xbc\xc7\xa5<'
p1001
tp1002
Rp1003
tp1004
a(g44
g6
(g18
S'o\r\x9c<'
p1005
tp1006
Rp1007
tp1008
a(g56
g6
(g18
S'1\xd0\xec;'
p1009
tp1010
Rp1011
tp1012
asg73
g15
sa(dp1013
g2
S'../../../data/emanuela/activity-recognition/images/NTCIR-Lifelog-256/u1/2015-03-19/b00002538_21i6bq_20150319_173049e.jpg'
p1014
sg4
(lp1015
(g166
g6
(g18
S'U\x1ek?'
p1016
tp1017
Rp1018
tp1019
a(g56
g6
(g18
S'\xe9\xe6P='
p1020
tp1021
Rp1022
tp1023
a(g274
g6
(g18
S'+\xcd\xcd;'
p1024
tp1025
Rp1026
tp1027
a(g6
(g7
(S'S15'
p1028
I0
I1
tp1029
Rp1030
(I3
S'|'
p1031
NNNI15
I1
I0
tp1032
bS'walking outdoor'
p1033
tp1034
Rp1035
g6
(g18
S'\xbco\x89;'
p1036
tp1037
Rp1038
tp1039
a(g324
g6
(g18
S't\x7fU;'
p1040
tp1041
Rp1042
tp1043
asg73
g15
sa(dp1044
g2
S'../../../data/emanuela/activity-recognition/images/NTCIR-Lifelog-256/u1/2015-03-19/b00002445_21i6bq_20150319_163903e.jpg'
p1045
sg4
(lp1046
(g166
g6
(g18
S'\x13\xdet?'
p1047
tp1048
Rp1049
tp1050
a(g92
g6
(g18
S'0\x9d\x8c<'
p1051
tp1052
Rp1053
tp1054
a(g15
g6
(g18
S'\x12\xba\x0f<'
p1055
tp1056
Rp1057
tp1058
a(g56
g6
(g18
S'\xaf\xfc\xf9;'
p1059
tp1060
Rp1061
tp1062
a(g44
g6
(g18
S'\x9bI\x88;'
p1063
tp1064
Rp1065
tp1066
asg73
g15
sa(dp1067
g2
S'../../../data/emanuela/activity-recognition/images/NTCIR-Lifelog-256/u1/2015-03-19/b00002330_21i6bq_20150319_150927e.jpg'
p1068
sg4
(lp1069
(g15
g6
(g18
S']x-?'
p1070
tp1071
Rp1072
tp1073
a(g32
g6
(g18
S'\xcc\x80\x81>'
p1074
tp1075
Rp1076
tp1077
a(g324
g6
(g18
S')\x91\xaa<'
p1078
tp1079
Rp1080
tp1081
a(g92
g6
(g18
S'\xec\r\xa3<'
p1082
tp1083
Rp1084
tp1085
a(g56
g6
(g18
S'r\xe9@<'
p1086
tp1087
Rp1088
tp1089
asg73
g15
sa(dp1090
g2
S'../../../data/emanuela/activity-recognition/images/NTCIR-Lifelog-256/u1/2015-03-17/b00001313_21i6bq_20150317_205913e.jpg'
p1091
sg4
(lp1092
(g15
g6
(g18
S'\x86\xe7\x05?'
p1093
tp1094
Rp1095
tp1096
a(g68
g6
(g18
S'\x17wG>'
p1097
tp1098
Rp1099
tp1100
a(g44
g6
(g18
S'\xe6\xe0\xd8='
p1101
tp1102
Rp1103
tp1104
a(g32
g6
(g18
S'\xd1\xda6='
p1105
tp1106
Rp1107
tp1108
a(g56
g6
(g18
S'\x1d\x8f\xee<'
p1109
tp1110
Rp1111
tp1112
asg73
g15
sa(dp1113
g2
S'../../../data/emanuela/activity-recognition/images/NTCIR-Lifelog-256/u1/2015-03-19/b00002324_21i6bq_20150319_150551e.jpg'
p1114
sg4
(lp1115
(g15
g6
(g18
S'Pn\x07?'
p1116
tp1117
Rp1118
tp1119
a(g32
g6
(g18
S'\x94\x11\x97>'
p1120
tp1121
Rp1122
tp1123
a(g44
g6
(g18
S'\x02\xf6\x17='
p1124
tp1125
Rp1126
tp1127
a(g56
g6
(g18
S'4\x1b\x15='
p1128
tp1129
Rp1130
tp1131
a(g274
g6
(g18
S'FM\x13='
p1132
tp1133
Rp1134
tp1135
asg73
g15
sa(dp1136
g2
S'../../../data/emanuela/activity-recognition/images/NTCIR-Lifelog-256/u1/2015-03-16/b00002464_21i6bq_20150316_162000e.jpg'
p1137
sg4
(lp1138
(g324
g6
(g18
S'\x16\xaf\xce>'
p1139
tp1140
Rp1141
tp1142
a(g15
g6
(g18
S'7\xb9\x1f>'
p1143
tp1144
Rp1145
tp1146
a(g274
g6
(g18
S'\xfef\xda='
p1147
tp1148
Rp1149
tp1150
a(g336
g6
(g18
S'\x1d\xb7\xbf='
p1151
tp1152
Rp1153
tp1154
a(g56
g6
(g18
S'}\xf3\xa1='
p1155
tp1156
Rp1157
tp1158
asg73
g15
sa(dp1159
g2
S'../../../data/emanuela/activity-recognition/images/NTCIR-Lifelog-256/u1/2015-03-17/b00001465_21i6bq_20150317_222230e.jpg'
p1160
sg4
(lp1161
(g15
g6
(g18
S'PPV?'
p1162
tp1163
Rp1164
tp1165
a(g56
g6
(g18
S'V\x80\x80='
p1166
tp1167
Rp1168
tp1169
a(g44
g6
(g18
S'\x80\xcf\xf5<'
p1170
tp1171
Rp1172
tp1173
a(g32
g6
(g18
S'\x84v\xe6<'
p1174
tp1175
Rp1176
tp1177
a(g166
g6
(g18
S'\x0c\x85a<'
p1178
tp1179
Rp1180
tp1181
asg73
g15
sa(dp1182
g2
S'../../../data/emanuela/activity-recognition/images/NTCIR-Lifelog-256/u1/2015-03-17/b00001410_21i6bq_20150317_215644e.jpg'
p1183
sg4
(lp1184
(g15
g6
(g18
S'\xacI\x13?'
p1185
tp1186
Rp1187
tp1188
a(g32
g6
(g18
S'\xa9@\xe2='
p1189
tp1190
Rp1191
tp1192
a(g166
g6
(g18
S'\xc2U\xb4='
p1193
tp1194
Rp1195
tp1196
a(g56
g6
(g18
S'\xbe\xdd#='
p1197
tp1198
Rp1199
tp1200
a(g297
g6
(g18
S'\x04y#='
p1201
tp1202
Rp1203
tp1204
asg73
g15
sa(dp1205
g2
S'../../../data/emanuela/activity-recognition/images/NTCIR-Lifelog-256/u1/2015-03-17/b00001357_21i6bq_20150317_212458e.jpg'
p1206
sg4
(lp1207
(g15
g6
(g18
S'>\x85[?'
p1208
tp1209
Rp1210
tp1211
a(g32
g6
(g18
S'U\xcc\x8c='
p1212
tp1213
Rp1214
tp1215
a(g166
g6
(g18
S'>\x03\xc8<'
p1216
tp1217
Rp1218
tp1219
a(g44
g6
(g18
S'&(n<'
p1220
tp1221
Rp1222
tp1223
a(g68
g6
(g18
S'\xf8!\x05<'
p1224
tp1225
Rp1226
tp1227
asg73
g15
sa(dp1228
g2
S'../../../data/emanuela/activity-recognition/images/NTCIR-Lifelog-256/u1/2015-03-17/b00001450_21i6bq_20150317_221612e.jpg'
p1229
sg4
(lp1230
(g15
g6
(g18
S'\xf5\x1f(?'
p1231
tp1232
Rp1233
tp1234
a(g32
g6
(g18
S'\x1e\xc9\xde='
p1235
tp1236
Rp1237
tp1238
a(g56
g6
(g18
S'pd\xa0='
p1239
tp1240
Rp1241
tp1242
a(g44
g6
(g18
S"A\x15'="
p1243
tp1244
Rp1245
tp1246
a(g166
g6
(g18
S'\xe3,\xd6<'
p1247
tp1248
Rp1249
tp1250
asg73
g15
sa(dp1251
g2
S'../../../data/emanuela/activity-recognition/images/NTCIR-Lifelog-256/u1/2015-03-16/b00002469_21i6bq_20150316_162247e.jpg'
p1252
sg4
(lp1253
(g15
g6
(g18
S'T\x04T>'
p1254
tp1255
Rp1256
tp1257
a(g56
g6
(g18
S'\x93(1>'
p1258
tp1259
Rp1260
tp1261
a(g324
g6
(g18
S'\xfeM$>'
p1262
tp1263
Rp1264
tp1265
a(g44
g6
(g18
S'\xc0\xa5\x17>'
p1266
tp1267
Rp1268
tp1269
a(g336
g6
(g18
S'b\xbd\x9c='
p1270
tp1271
Rp1272
tp1273
asg73
g15
sa(dp1274
g2
S'../../../data/emanuela/activity-recognition/images/NTCIR-Lifelog-256/u1/2015-03-19/b00002497_21i6bq_20150319_170513e.jpg'
p1275
sg4
(lp1276
(g56
g6
(g18
S'\xb7[\x04?'
p1277
tp1278
Rp1279
tp1280
a(g274
g6
(g18
S'\x15\xcb\x9c>'
p1281
tp1282
Rp1283
tp1284
a(g166
g6
(g18
S'_\x12r='
p1285
tp1286
Rp1287
tp1288
a(g297
g6
(g18
S';\xdb\xd7<'
p1289
tp1290
Rp1291
tp1292
a(g513
g6
(g18
S'\x08\x91\xac<'
p1293
tp1294
Rp1295
tp1296
asg73
g15
sa(dp1297
g2
S'../../../data/emanuela/activity-recognition/images/NTCIR-Lifelog-256/u1/2015-03-19/b00002519_21i6bq_20150319_172009e.jpg'
p1298
sg4
(lp1299
(g56
g6
(g18
S'\x90\xa9\xd4>'
p1300
tp1301
Rp1302
tp1303
a(g274
g6
(g18
S'Xt\x8b>'
p1304
tp1305
Rp1306
tp1307
a(g166
g6
(g18
S'\xad`?>'
p1308
tp1309
Rp1310
tp1311
a(g513
g6
(g18
S')\xe6\xf0<'
p1312
tp1313
Rp1314
tp1315
a(g15
g6
(g18
S'\xe2X\xb7<'
p1316
tp1317
Rp1318
tp1319
asg73
g15
sa(dp1320
g2
S'../../../data/emanuela/activity-recognition/images/NTCIR-Lifelog-256/u1/2015-03-19/b00002529_21i6bq_20150319_172553e.jpg'
p1321
sg4
(lp1322
(g56
g6
(g18
S'b\x0cZ?'
p1323
tp1324
Rp1325
tp1326
a(g274
g6
(g18
S'\x08tc='
p1327
tp1328
Rp1329
tp1330
a(g324
g6
(g18
S'x`;='
p1331
tp1332
Rp1333
tp1334
a(g166
g6
(g18
S'\xd3\xd3\xd9<'
p1335
tp1336
Rp1337
tp1338
a(g44
g6
(g18
S'\x0b\xb1\xb9;'
p1339
tp1340
Rp1341
tp1342
asg73
g15
sa(dp1343
g2
S'../../../data/emanuela/activity-recognition/images/NTCIR-Lifelog-256/u1/2015-03-19/b00002515_21i6bq_20150319_171727e.jpg'
p1344
sg4
(lp1345
(g56
g6
(g18
S';F\x1f?'
p1346
tp1347
Rp1348
tp1349
a(g274
g6
(g18
S'\x1d\x9c\x8a>'
p1350
tp1351
Rp1352
tp1353
a(g166
g6
(g18
S'\x03\x8aU='
p1354
tp1355
Rp1356
tp1357
a(g297
g6
(g18
S'\xa2\xd4\xa2<'
p1358
tp1359
Rp1360
tp1361
a(g324
g6
(g18
S'\xac\x0e\xfe;'
p1362
tp1363
Rp1364
tp1365
asg73
g15
sa(dp1366
g2
S'../../../data/emanuela/activity-recognition/images/NTCIR-Lifelog-256/u1/2015-03-19/b00002332_21i6bq_20150319_151031e.jpg'
p1367
sg4
(lp1368
(g15
g6
(g18
S'IQ\x1a?'
p1369
tp1370
Rp1371
tp1372
a(g32
g6
(g18
S'\xac\xba\xa0>'
p1373
tp1374
Rp1375
tp1376
a(g274
g6
(g18
S'\xa2{\xfa<'
p1377
tp1378
Rp1379
tp1380
a(g44
g6
(g18
S'o\xee\x9c<'
p1381
tp1382
Rp1383
tp1384
a(g324
g6
(g18
S'YDJ<'
p1385
tp1386
Rp1387
tp1388
asg73
g15
sa(dp1389
g2
S'../../../data/emanuela/activity-recognition/images/NTCIR-Lifelog-256/u1/2015-03-19/b00002448_21i6bq_20150319_163905e.jpg'
p1390
sg4
(lp1391
(g166
g6
(g18
S'0{~?'
p1392
tp1393
Rp1394
tp1395
a(g56
g6
(g18
S'\xc4\x1b\xc8:'
p1396
tp1397
Rp1398
tp1399
a(g147
g6
(g18
S'}\xfb\xb5:'
p1400
tp1401
Rp1402
tp1403
a(g44
g6
(g18
S'\x11Z\x19:'
p1404
tp1405
Rp1406
tp1407
a(g274
g6
(g18
S'\xea\x04\x07:'
p1408
tp1409
Rp1410
tp1411
asg73
g15
sa(dp1412
g2
S'../../../data/emanuela/activity-recognition/images/NTCIR-Lifelog-256/u1/2015-03-19/b00002507_21i6bq_20150319_171126e.jpg'
p1413
sg4
(lp1414
(g274
g6
(g18
S'\\\x9e\xf7>'
p1415
tp1416
Rp1417
tp1418
a(g324
g6
(g18
S'-CV>'
p1419
tp1420
Rp1421
tp1422
a(g56
g6
(g18
S'5$\x1e>'
p1423
tp1424
Rp1425
tp1426
a(g336
g6
(g18
S'-\x13L='
p1427
tp1428
Rp1429
tp1430
a(g68
g6
(g18
S'Ii\x9a<'
p1431
tp1432
Rp1433
tp1434
asg73
g15
sa(dp1435
g2
S'../../../data/emanuela/activity-recognition/images/NTCIR-Lifelog-256/u1/2015-03-16/b00002465_21i6bq_20150316_162039e.jpg'
p1436
sg4
(lp1437
(g324
g6
(g18
S'\xe9\xad\xfb>'
p1438
tp1439
Rp1440
tp1441
a(g274
g6
(g18
S'\xe4J\xf3='
p1442
tp1443
Rp1444
tp1445
a(g336
g6
(g18
S'\xcb\x8d\xd7='
p1446
tp1447
Rp1448
tp1449
a(g56
g6
(g18
S'2<\xc8='
p1450
tp1451
Rp1452
tp1453
a(g15
g6
(g18
S'\x90%Y='
p1454
tp1455
Rp1456
tp1457
asg73
g15
sa(dp1458
g2
S'../../../data/emanuela/activity-recognition/images/NTCIR-Lifelog-256/u1/2015-03-17/b00001409_21i6bq_20150317_215607e.jpg'
p1459
sg4
(lp1460
(g15
g6
(g18
S'\xf0J ?'
p1461
tp1462
Rp1463
tp1464
a(g166
g6
(g18
S'#\x18\xf9='
p1465
tp1466
Rp1467
tp1468
a(g32
g6
(g18
S'!E\xc0='
p1469
tp1470
Rp1471
tp1472
a(g44
g6
(g18
S'\x04?C='
p1473
tp1474
Rp1475
tp1476
a(g297
g6
(g18
S'r\x13\x0e='
p1477
tp1478
Rp1479
tp1480
asg73
g15
sa(dp1481
g2
S'../../../data/emanuela/activity-recognition/images/NTCIR-Lifelog-256/u1/2015-03-17/b00001471_21i6bq_20150317_222324e.jpg'
p1482
sg4
(lp1483
(g15
g6
(g18
S'\xe7\xbc5?'
p1484
tp1485
Rp1486
tp1487
a(g32
g6
(g18
S'W\xc0\n>'
p1488
tp1489
Rp1490
tp1491
a(g56
g6
(g18
S'\x95\xa0h='
p1492
tp1493
Rp1494
tp1495
a(g166
g6
(g18
S'K\x1f\xf5<'
p1496
tp1497
Rp1498
tp1499
a(g44
g6
(g18
S'\x1c|\xa4<'
p1500
tp1501
Rp1502
tp1503
asg73
g15
sa(dp1504
g2
S'../../../data/emanuela/activity-recognition/images/NTCIR-Lifelog-256/u1/2015-03-08/b00000635_21i6bq_20150308_160112e.jpg'
p1505
sg4
(lp1506
(g15
g6
(g18
S'\xd2`\x02?'
p1507
tp1508
Rp1509
tp1510
a(g32
g6
(g18
S'V0\xbc>'
p1511
tp1512
Rp1513
tp1514
a(g44
g6
(g18
S'\x85`\xb4<'
p1515
tp1516
Rp1517
tp1518
a(g56
g6
(g18
S'\xd8\\\xb1<'
p1519
tp1520
Rp1521
tp1522
a(g92
g6
(g18
S'x"\xa5<'
p1523
tp1524
Rp1525
tp1526
asg73
g15
sa(dp1527
g2
S'../../../data/emanuela/activity-recognition/images/NTCIR-Lifelog-256/u1/2015-03-16/b00002404_21i6bq_20150316_154255e.jpg'
p1528
sg4
(lp1529
(g32
g6
(g18
S'\xc63\xfd>'
p1530
tp1531
Rp1532
tp1533
a(g147
g6
(g18
S'\xe4t\xf8='
p1534
tp1535
Rp1536
tp1537
a(g324
g6
(g18
S'?\x96\xa6='
p1538
tp1539
Rp1540
tp1541
a(g274
g6
(g18
S'\xaf*1='
p1542
tp1543
Rp1544
tp1545
a(g92
g6
(g18
S'I\xca ='
p1546
tp1547
Rp1548
tp1549
asg73
g15
sa(dp1550
g2
S'../../../data/emanuela/activity-recognition/images/NTCIR-Lifelog-256/u1/2015-03-17/b00001338_21i6bq_20150317_211425e.jpg'
p1551
sg4
(lp1552
(g15
g6
(g18
S'gi!?'
p1553
tp1554
Rp1555
tp1556
a(g32
g6
(g18
S'\x05\xba\xe0='
p1557
tp1558
Rp1559
tp1560
a(g56
g6
(g18
S'_f\x93='
p1561
tp1562
Rp1563
tp1564
a(g166
g6
(g18
S'A\xdcd='
p1565
tp1566
Rp1567
tp1568
a(g44
g6
(g18
S'\x16uJ='
p1569
tp1570
Rp1571
tp1572
asg73
g15
sa(dp1573
g2
S'../../../data/emanuela/activity-recognition/images/NTCIR-Lifelog-256/u1/2015-03-08/b00000609_21i6bq_20150308_154626e.jpg'
p1574
sg4
(lp1575
(g32
g6
(g18
S'\xd5@@?'
p1576
tp1577
Rp1578
tp1579
a(g15
g6
(g18
S'Q\x03\xad='
p1580
tp1581
Rp1582
tp1583
a(g92
g6
(g18
S'\xa7\x0e\x8f='
p1584
tp1585
Rp1586
tp1587
a(g513
g6
(g18
S'\xda\xb0\xf0<'
p1588
tp1589
Rp1590
tp1591
a(g274
g6
(g18
S'@z\x9b<'
p1592
tp1593
Rp1594
tp1595
asg73
g15
sa(dp1596
g2
S'../../../data/emanuela/activity-recognition/images/NTCIR-Lifelog-256/u1/2015-03-19/b00002315_21i6bq_20150319_150021e.jpg'
p1597
sg4
(lp1598
(g15
g6
(g18
S'\x87\x9dC?'
p1599
tp1600
Rp1601
tp1602
a(g32
g6
(g18
S'\x9cr\x0f>'
p1603
tp1604
Rp1605
tp1606
a(g44
g6
(g18
S'\x7f\xb8.='
p1607
tp1608
Rp1609
tp1610
a(g92
g6
(g18
S'\x80!\xaf<'
p1611
tp1612
Rp1613
tp1614
a(g56
g6
(g18
S'1qT<'
p1615
tp1616
Rp1617
tp1618
asg73
g15
sa(dp1619
g2
S'../../../data/emanuela/activity-recognition/images/NTCIR-Lifelog-256/u1/2015-03-19/b00002454_21i6bq_20150319_163949e.jpg'
p1620
sg4
(lp1621
(g166
g6
(g18
S'K\x14}?'
p1622
tp1623
Rp1624
tp1625
a(g44
g6
(g18
S'\xcb\xb1q;'
p1626
tp1627
Rp1628
tp1629
a(g56
g6
(g18
S'\x97a-;'
p1630
tp1631
Rp1632
tp1633
a(g274
g6
(g18
S'A\x02\xd6:'
p1634
tp1635
Rp1636
tp1637
a(g1035
g6
(g18
S'\xa74i:'
p1638
tp1639
Rp1640
tp1641
asg73
g15
sa(dp1642
g2
S'../../../data/emanuela/activity-recognition/images/NTCIR-Lifelog-256/u1/2015-03-19/b00002134_21i6bq_20150319_125714e.jpg'
p1643
sg4
(lp1644
(g15
g6
(g18
S'\x88Y~?'
p1645
tp1646
Rp1647
tp1648
a(g32
g6
(g18
S'e\xf9\x93;'
p1649
tp1650
Rp1651
tp1652
a(g56
g6
(g18
S'\x06\xac\x97:'
p1653
tp1654
Rp1655
tp1656
a(g44
g6
(g18
S'\x7f<\xf19'
p1657
tp1658
Rp1659
tp1660
a(g68
g6
(g18
S'\x86\x05\x1f9'
p1661
tp1662
Rp1663
tp1664
asg73
g15
sa(dp1665
g2
S'../../../data/emanuela/activity-recognition/images/NTCIR-Lifelog-256/u1/2015-03-17/b00001349_21i6bq_20150317_212033e.jpg'
p1666
sg4
(lp1667
(g15
g6
(g18
S'}LU?'
p1668
tp1669
Rp1670
tp1671
a(g166
g6
(g18
S'I\xc7.='
p1672
tp1673
Rp1674
tp1675
a(g44
g6
(g18
S'\x08\xc7\x03='
p1676
tp1677
Rp1678
tp1679
a(g56
g6
(g18
S'\xd5\xd5\xfe<'
p1680
tp1681
Rp1682
tp1683
a(g32
g6
(g18
S'ew\xb7<'
p1684
tp1685
Rp1686
tp1687
asg73
g15
sa(dp1688
g2
S'../../../data/emanuela/activity-recognition/images/NTCIR-Lifelog-256/u1/2015-03-17/b00001372_21i6bq_20150317_213353e.jpg'
p1689
sg4
(lp1690
(g15
g6
(g18
S'\x15\x1f^?'
p1691
tp1692
Rp1693
tp1694
a(g32
g6
(g18
S'/7\xa1='
p1695
tp1696
Rp1697
tp1698
a(g92
g6
(g18
S'\xad\x90\xfa<'
p1699
tp1700
Rp1701
tp1702
a(g166
g6
(g18
S"U'#<"
p1703
tp1704
Rp1705
tp1706
a(g44
g6
(g18
S'\x89\xba\xdf;'
p1707
tp1708
Rp1709
tp1710
asg73
g15
sa(dp1711
g2
S'../../../data/emanuela/activity-recognition/images/NTCIR-Lifelog-256/u1/2015-03-16/b00002466_21i6bq_20150316_162110e.jpg'
p1712
sg4
(lp1713
(g324
g6
(g18
S'\xf3\x18\x9d>'
p1714
tp1715
Rp1716
tp1717
a(g336
g6
(g18
S']T\x12>'
p1718
tp1719
Rp1720
tp1721
a(g15
g6
(g18
S'\t\xf4\xfb='
p1722
tp1723
Rp1724
tp1725
a(g56
g6
(g18
S'\x9a\x9a\xa2='
p1726
tp1727
Rp1728
tp1729
a(g147
g6
(g18
S'M\x98\x9e='
p1730
tp1731
Rp1732
tp1733
asg73
g15
sa(dp1734
g2
S'../../../data/emanuela/activity-recognition/images/NTCIR-Lifelog-256/u1/2015-03-08/b00000637_21i6bq_20150308_160213e.jpg'
p1735
sg4
(lp1736
(g15
g6
(g18
S'rZ;?'
p1737
tp1738
Rp1739
tp1740
a(g32
g6
(g18
S'\x16\xbe^>'
p1741
tp1742
Rp1743
tp1744
a(g56
g6
(g18
S'.f;<'
p1745
tp1746
Rp1747
tp1748
a(g92
g6
(g18
S'9\xbd\x13<'
p1749
tp1750
Rp1751
tp1752
a(g324
g6
(g18
S'\xa2J\xed;'
p1753
tp1754
Rp1755
tp1756
asg73
g15
sa(dp1757
g2
S'../../../data/emanuela/activity-recognition/images/NTCIR-Lifelog-256/u1/2015-03-17/b00001362_21i6bq_20150317_212809e.jpg'
p1758
sg4
(lp1759
(g15
g6
(g18
S'\x83\rx?'
p1760
tp1761
Rp1762
tp1763
a(g32
g6
(g18
S'%\xc2j<'
p1764
tp1765
Rp1766
tp1767
a(g44
g6
(g18
S'\xe1S\xfa;'
p1768
tp1769
Rp1770
tp1771
a(g56
g6
(g18
S'\x11>Q;'
p1772
tp1773
Rp1774
tp1775
a(g166
g6
(g18
S'_\x0e\xfa:'
p1776
tp1777
Rp1778
tp1779
asg73
g15
sa(dp1780
g2
S'../../../data/emanuela/activity-recognition/images/NTCIR-Lifelog-256/u1/2015-03-19/b00002525_21i6bq_20150319_172329e.jpg'
p1781
sg4
(lp1782
(g56
g6
(g18
S'a\x8ab?'
p1783
tp1784
Rp1785
tp1786
a(g274
g6
(g18
S'\xa8\xa6n='
p1787
tp1788
Rp1789
tp1790
a(g166
g6
(g18
S'\x1b\xf2\xba<'
p1791
tp1792
Rp1793
tp1794
a(g324
g6
(g18
S'\xa6CU<'
p1795
tp1796
Rp1797
tp1798
a(g44
g6
(g18
S'e#\xae;'
p1799
tp1800
Rp1801
tp1802
asg73
g15
sa(dp1803
g2
S'../../../data/emanuela/activity-recognition/images/NTCIR-Lifelog-256/u1/2015-03-16/b00002467_21i6bq_20150316_162141e.jpg'
p1804
sg4
(lp1805
(g324
g6
(g18
S'z\x0bW>'
p1806
tp1807
Rp1808
tp1809
a(g15
g6
(g18
S'/\xed+>'
p1810
tp1811
Rp1812
tp1813
a(g56
g6
(g18
S'\xdd^\x19>'
p1814
tp1815
Rp1816
tp1817
a(g44
g6
(g18
S'\xc3\xe1\x0e>'
p1818
tp1819
Rp1820
tp1821
a(g336
g6
(g18
S'\xd4O\xbe='
p1822
tp1823
Rp1824
tp1825
asg73
g15
sa(dp1826
g2
S'../../../data/emanuela/activity-recognition/images/NTCIR-Lifelog-256/u1/2015-03-17/b00001363_21i6bq_20150317_212844e.jpg'
p1827
sg4
(lp1828
(g15
g6
(g18
S'87P?'
p1829
tp1830
Rp1831
tp1832
a(g32
g6
(g18
S'\xb3\xf8\xee='
p1833
tp1834
Rp1835
tp1836
a(g92
g6
(g18
S'\xeb\x19\x80<'
p1837
tp1838
Rp1839
tp1840
a(g44
g6
(g18
S'\x00\x8cz<'
p1841
tp1842
Rp1843
tp1844
a(g166
g6
(g18
S'T4p<'
p1845
tp1846
Rp1847
tp1848
asg73
g15
sa(dp1849
g2
S'../../../data/emanuela/activity-recognition/images/NTCIR-Lifelog-256/u1/2015-03-08/b00000643_21i6bq_20150308_160536e.jpg'
p1850
sg4
(lp1851
(g15
g6
(g18
S'\xce\xa4\xfc>'
p1852
tp1853
Rp1854
tp1855
a(g32
g6
(g18
S'U\x06\xb8>'
p1856
tp1857
Rp1858
tp1859
a(g56
g6
(g18
S'\xf1\xfb\x17='
p1860
tp1861
Rp1862
tp1863
a(g92
g6
(g18
S'\xd6\x0b\x0e='
p1864
tp1865
Rp1866
tp1867
a(g274
g6
(g18
S'\xf7s\xb8<'
p1868
tp1869
Rp1870
tp1871
asg73
g15
sa(dp1872
g2
S'../../../data/emanuela/activity-recognition/images/NTCIR-Lifelog-256/u1/2015-03-19/b00002535_21i6bq_20150319_172901e.jpg'
p1873
sg4
(lp1874
(g166
g6
(g18
S'Q\x98\x1f?'
p1875
tp1876
Rp1877
tp1878
a(g92
g6
(g18
S'\xa0\x18\x1d>'
p1879
tp1880
Rp1881
tp1882
a(g56
g6
(g18
S'\x9cn\x87='
p1883
tp1884
Rp1885
tp1886
a(g324
g6
(g18
S'\x19\xc2D='
p1887
tp1888
Rp1889
tp1890
a(g147
g6
(g18
S'l\xe2\x07='
p1891
tp1892
Rp1893
tp1894
asg73
g15
sa(dp1895
g2
S'../../../data/emanuela/activity-recognition/images/NTCIR-Lifelog-256/u1/2015-03-06/b00000111_21i6bq_20150306_062732e.jpg'
p1896
sg4
(lp1897
(g274
g6
(g18
S'AL\x8d>'
p1898
tp1899
Rp1900
tp1901
a(g32
g6
(g18
S'\xf1\xe97>'
p1902
tp1903
Rp1904
tp1905
a(g297
g6
(g18
S'7/\x15>'
p1906
tp1907
Rp1908
tp1909
a(g513
g6
(g18
S'Z\xa0\x07>'
p1910
tp1911
Rp1912
tp1913
a(g15
g6
(g18
S'e \xb4='
p1914
tp1915
Rp1916
tp1917
asg73
g15
sa(dp1918
g2
S'../../../data/emanuela/activity-recognition/images/NTCIR-Lifelog-256/u1/2015-03-19/b00002135_21i6bq_20150319_125744e.jpg'
p1919
sg4
(lp1920
(g15
g6
(g18
S'i\x02}?'
p1921
tp1922
Rp1923
tp1924
a(g32
g6
(g18
S'\x183\xb4;'
p1925
tp1926
Rp1927
tp1928
a(g56
g6
(g18
S'j$<;'
p1929
tp1930
Rp1931
tp1932
a(g44
g6
(g18
S'\xdf\xa5\xd7:'
p1933
tp1934
Rp1935
tp1936
a(g68
g6
(g18
S'dT\xb1:'
p1937
tp1938
Rp1939
tp1940
asg73
g15
sa(dp1941
g2
S'../../../data/emanuela/activity-recognition/images/NTCIR-Lifelog-256/u1/2015-03-16/b00002388_21i6bq_20150316_153325e.jpg'
p1942
sg4
(lp1943
(g324
g6
(g18
S'\xa1s%?'
p1944
tp1945
Rp1946
tp1947
a(g336
g6
(g18
S'\xaf\xe4\n>'
p1948
tp1949
Rp1950
tp1951
a(g147
g6
(g18
S'\x86\x9de='
p1952
tp1953
Rp1954
tp1955
a(g56
g6
(g18
S'\xc3\xc7Q='
p1956
tp1957
Rp1958
tp1959
a(g15
g6
(g18
S'_\x94\x19='
p1960
tp1961
Rp1962
tp1963
asg73
g15
sa(dp1964
g2
S'../../../data/emanuela/activity-recognition/images/NTCIR-Lifelog-256/u1/2015-03-16/b00002470_21i6bq_20150316_162318e.jpg'
p1965
sg4
(lp1966
(g324
g6
(g18
S'K\\\x95>'
p1967
tp1968
Rp1969
tp1970
a(g336
g6
(g18
S'\xba\xf9x>'
p1971
tp1972
Rp1973
tp1974
a(g147
g6
(g18
S'\xa7\xdf">'
p1975
tp1976
Rp1977
tp1978
a(g56
g6
(g18
S'!c\xc1='
p1979
tp1980
Rp1981
tp1982
a(g15
g6
(g18
S'\x8f\x8bp='
p1983
tp1984
Rp1985
tp1986
asg73
g15
sa(dp1987
g2
S'../../../data/emanuela/activity-recognition/images/NTCIR-Lifelog-256/u1/2015-03-17/b00001384_21i6bq_20150317_214103e.jpg'
p1988
sg4
(lp1989
(g15
g6
(g18
S'\xe0\x15\xc2>'
p1990
tp1991
Rp1992
tp1993
a(g32
g6
(g18
S'\x1aR\xad>'
p1994
tp1995
Rp1996
tp1997
a(g297
g6
(g18
S'\x07\x08\x9d='
p1998
tp1999
Rp2000
tp2001
a(g166
g6
(g18
S'\xcd\xa4W='
p2002
tp2003
Rp2004
tp2005
a(g56
g6
(g18
S'7\xb2F='
p2006
tp2007
Rp2008
tp2009
asg73
g15
sa(dp2010
g2
S'../../../data/emanuela/activity-recognition/images/NTCIR-Lifelog-256/u1/2015-03-19/b00002326_21i6bq_20150319_150659e.jpg'
p2011
sg4
(lp2012
(g32
g6
(g18
S'=\xa3\xfc>'
p2013
tp2014
Rp2015
tp2016
a(g15
g6
(g18
S'\n\x95\x93>'
p2017
tp2018
Rp2019
tp2020
a(g274
g6
(g18
S'L]\xbd='
p2021
tp2022
Rp2023
tp2024
a(g56
g6
(g18
S'\xb7\xb3\t='
p2025
tp2026
Rp2027
tp2028
a(g324
g6
(g18
S't\x11\xf9<'
p2029
tp2030
Rp2031
tp2032
asg73
g15
sa(dp2033
g2
S'../../../data/emanuela/activity-recognition/images/NTCIR-Lifelog-256/u1/2015-03-16/b00002486_21i6bq_20150316_163228e.jpg'
p2034
sg4
(lp2035
(g324
g6
(g18
S'\xd7\xd3\x8d>'
p2036
tp2037
Rp2038
tp2039
a(g15
g6
(g18
S'\x8a\xb77>'
p2040
tp2041
Rp2042
tp2043
a(g56
g6
(g18
S' \t\x00>'
p2044
tp2045
Rp2046
tp2047
a(g274
g6
(g18
S'\xc9P\xf0='
p2048
tp2049
Rp2050
tp2051
a(g336
g6
(g18
S'FK\xa1='
p2052
tp2053
Rp2054
tp2055
asg73
g15
sa(dp2056
g2
S'../../../data/emanuela/activity-recognition/images/NTCIR-Lifelog-256/u1/2015-03-17/b00001397_21i6bq_20150317_214858e.jpg'
p2057
sg4
(lp2058
(g15
g6
(g18
S'C\xa5\xb6>'
p2059
tp2060
Rp2061
tp2062
a(g32
g6
(g18
S'\xc8\x1d\x82>'
p2063
tp2064
Rp2065
tp2066
a(g166
g6
(g18
S'\xc3*W>'
p2067
tp2068
Rp2069
tp2070
a(g297
g6
(g18
S'\xc4I!='
p2071
tp2072
Rp2073
tp2074
a(g44
g6
(g18
S'\xde\xd0\x08='
p2075
tp2076
Rp2077
tp2078
asg73
g15
sa(dp2079
g2
S'../../../data/emanuela/activity-recognition/images/NTCIR-Lifelog-256/u1/2015-03-19/b00002513_21i6bq_20150319_171602e.jpg'
p2080
sg4
(lp2081
(g56
g6
(g18
S'o\x8cA?'
p2082
tp2083
Rp2084
tp2085
a(g274
g6
(g18
S'\xe0]\xb9='
p2086
tp2087
Rp2088
tp2089
a(g166
g6
(g18
S'\x10\xf0\x83='
p2090
tp2091
Rp2092
tp2093
a(g44
g6
(g18
S'\xaeX\xa4<'
p2094
tp2095
Rp2096
tp2097
a(g15
g6
(g18
S'G\x96\x7f<'
p2098
tp2099
Rp2100
tp2101
asg73
g15
sa(dp2102
g2
S'../../../data/emanuela/activity-recognition/images/NTCIR-Lifelog-256/u1/2015-03-16/b00002547_21i6bq_20150316_170733e.jpg'
p2103
sg4
(lp2104
(g115
g6
(g18
S'\xe1\x1f)?'
p2105
tp2106
Rp2107
tp2108
a(g56
g6
(g18
S'\x15\xee\x12>'
p2109
tp2110
Rp2111
tp2112
a(g127
g6
(g18
S'\x97\xbe}='
p2113
tp2114
Rp2115
tp2116
a(g15
g6
(g18
S'\x03\xa0\\='
p2117
tp2118
Rp2119
tp2120
a(g6
(g7
(S'S25'
p2121
I0
I1
tp2122
Rp2123
(I3
S'|'
p2124
NNNI25
I1
I0
tp2125
bS'having meal with somebody'
p2126
tp2127
Rp2128
g6
(g18
S'\x94\x96\xa1<'
p2129
tp2130
Rp2131
tp2132
asg73
g15
sa(dp2133
g2
S'../../../data/emanuela/activity-recognition/images/NTCIR-Lifelog-256/u1/2015-03-17/b00001368_21i6bq_20150317_213141e.jpg'
p2134
sg4
(lp2135
(g15
g6
(g18
S'!#g?'
p2136
tp2137
Rp2138
tp2139
a(g32
g6
(g18
S'M\xdf\x88='
p2140
tp2141
Rp2142
tp2143
a(g92
g6
(g18
S'\xba\x1e\x9c<'
p2144
tp2145
Rp2146
tp2147
a(g44
g6
(g18
S'\xe1#S;'
p2148
tp2149
Rp2150
tp2151
a(g166
g6
(g18
S'\x96A\x1b;'
p2152
tp2153
Rp2154
tp2155
asg73
g15
sa(dp2156
g2
S'../../../data/emanuela/activity-recognition/images/NTCIR-Lifelog-256/u1/2015-03-19/b00002323_21i6bq_20150319_150522e.jpg'
p2157
sg4
(lp2158
(g15
g6
(g18
S'|Oa?'
p2159
tp2160
Rp2161
tp2162
a(g32
g6
(g18
S'\xae\xc3\xb7='
p2163
tp2164
Rp2165
tp2166
a(g324
g6
(g18
S'U\xccD<'
p2167
tp2168
Rp2169
tp2170
a(g56
g6
(g18
S'E[&<'
p2171
tp2172
Rp2173
tp2174
a(g44
g6
(g18
S'\xe0\xa2>;'
p2175
tp2176
Rp2177
tp2178
asg73
g15
sa(dp2179
g2
S'../../../data/emanuela/activity-recognition/images/NTCIR-Lifelog-256/u1/2015-03-17/b00001348_21i6bq_20150317_211952e.jpg'
p2180
sg4
(lp2181
(g15
g6
(g18
S"0'??"
p2182
tp2183
Rp2184
tp2185
a(g56
g6
(g18
S'\x83\xb6s='
p2186
tp2187
Rp2188
tp2189
a(g166
g6
(g18
S'=\xc7V='
p2190
tp2191
Rp2192
tp2193
a(g32
g6
(g18
S'rn\x1a='
p2194
tp2195
Rp2196
tp2197
a(g44
g6
(g18
S'\xebB\xda<'
p2198
tp2199
Rp2200
tp2201
asg73
g15
sa(dp2202
g2
S'../../../data/emanuela/activity-recognition/images/NTCIR-Lifelog-256/u1/2015-03-16/b00002479_21i6bq_20150316_162809e.jpg'
p2203
sg4
(lp2204
(g324
g6
(g18
S'\xe5\xf5\xa0>'
p2205
tp2206
Rp2207
tp2208
a(g15
g6
(g18
S'\xa1\xc4\x0f>'
p2209
tp2210
Rp2211
tp2212
a(g68
g6
(g18
S'\xf0R\xf2='
p2213
tp2214
Rp2215
tp2216
a(g44
g6
(g18
S'|\xb1\xb3='
p2217
tp2218
Rp2219
tp2220
a(g336
g6
(g18
S'\xd7\x94\x99='
p2221
tp2222
Rp2223
tp2224
asg73
g15
sa(dp2225
g2
S'../../../data/emanuela/activity-recognition/images/NTCIR-Lifelog-256/u1/2015-03-17/b00001305_21i6bq_20150317_205814e.jpg'
p2226
sg4
(lp2227
(g15
g6
(g18
S'\x81&6?'
p2228
tp2229
Rp2230
tp2231
a(g513
g6
(g18
S'\xd0M\xfd='
p2232
tp2233
Rp2234
tp2235
a(g32
g6
(g18
S'\x15\xe3\x97='
p2236
tp2237
Rp2238
tp2239
a(g147
g6
(g18
S'N;\xbb<'
p2240
tp2241
Rp2242
tp2243
a(g56
g6
(g18
S'\x10\xe8?<'
p2244
tp2245
Rp2246
tp2247
asg73
g15
sa(dp2248
g2
S'../../../data/emanuela/activity-recognition/images/NTCIR-Lifelog-256/u1/2015-03-17/b00001400_21i6bq_20150317_215051e.jpg'
p2249
sg4
(lp2250
(g15
g6
(g18
S'B\x8a\x16?'
p2251
tp2252
Rp2253
tp2254
a(g32
g6
(g18
S'W\xa3/>'
p2255
tp2256
Rp2257
tp2258
a(g166
g6
(g18
S'\xd8e\xa2='
p2259
tp2260
Rp2261
tp2262
a(g297
g6
(g18
S'2\x0f\r='
p2263
tp2264
Rp2265
tp2266
a(g44
g6
(g18
S'\x91\x8a\xcf<'
p2267
tp2268
Rp2269
tp2270
asg73
g15
sa(dp2271
g2
S'../../../data/emanuela/activity-recognition/images/NTCIR-Lifelog-256/u1/2015-03-19/b00002314_21i6bq_20150319_145945e.jpg'
p2272
sg4
(lp2273
(g15
g6
(g18
S'0\xb1v?'
p2274
tp2275
Rp2276
tp2277
a(g32
g6
(g18
S'\x05#\xda<'
p2278
tp2279
Rp2280
tp2281
a(g56
g6
(g18
S'S\x82\xde;'
p2282
tp2283
Rp2284
tp2285
a(g44
g6
(g18
S'BE\xb8:'
p2286
tp2287
Rp2288
tp2289
a(g324
g6
(g18
S'\xecI\x0c:'
p2290
tp2291
Rp2292
tp2293
asg73
g15
sa(dp2294
g2
S'../../../data/emanuela/activity-recognition/images/NTCIR-Lifelog-256/u1/2015-03-08/b00000671_21i6bq_20150308_162114e.jpg'
p2295
sg4
(lp2296
(g56
g6
(g18
S'\x85\xe3J?'
p2297
tp2298
Rp2299
tp2300
a(g274
g6
(g18
S'\xd6\x80d='
p2301
tp2302
Rp2303
tp2304
a(g1035
g6
(g18
S'r\x07\x15='
p2305
tp2306
Rp2307
tp2308
a(g44
g6
(g18
S'\xb9\x06\x0e='
p2309
tp2310
Rp2311
tp2312
a(g297
g6
(g18
S'\x06t{<'
p2313
tp2314
Rp2315
tp2316
asg73
g15
sa(dp2317
g2
S'../../../data/emanuela/activity-recognition/images/NTCIR-Lifelog-256/u1/2015-03-16/b00002555_21i6bq_20150316_170738e.jpg'
p2318
sg4
(lp2319
(g68
g6
(g18
S'\xd9\x9e\xd4>'
p2320
tp2321
Rp2322
tp2323
a(g15
g6
(g18
S'\x95\xf4y>'
p2324
tp2325
Rp2326
tp2327
a(g324
g6
(g18
S'\xee\xf7\x18>'
p2328
tp2329
Rp2330
tp2331
a(g336
g6
(g18
S'?|\x00='
p2332
tp2333
Rp2334
tp2335
a(g147
g6
(g18
S'\xb8"\x00='
p2336
tp2337
Rp2338
tp2339
asg73
g15
sa(dp2340
g2
S'../../../data/emanuela/activity-recognition/images/NTCIR-Lifelog-256/u1/2015-03-16/b00002485_21i6bq_20150316_163148e.jpg'
p2341
sg4
(lp2342
(g15
g6
(g18
S'\x91f\x84>'
p2343
tp2344
Rp2345
tp2346
a(g324
g6
(g18
S'\xbc\x19P>'
p2347
tp2348
Rp2349
tp2350
a(g56
g6
(g18
S'\tr\xd4='
p2351
tp2352
Rp2353
tp2354
a(g44
g6
(g18
S'C\xd0\xbe='
p2355
tp2356
Rp2357
tp2358
a(g274
g6
(g18
S'\x7f\xb7\x9c='
p2359
tp2360
Rp2361
tp2362
asg73
g15
sa(dp2363
g2
S'../../../data/emanuela/activity-recognition/images/NTCIR-Lifelog-256/u1/2015-03-17/b00001457_21i6bq_20150317_221958e.jpg'
p2364
sg4
(lp2365
(g15
g6
(g18
S'\x03\xc15?'
p2366
tp2367
Rp2368
tp2369
a(g32
g6
(g18
S"\xa6\xd6'>"
p2370
tp2371
Rp2372
tp2373
a(g166
g6
(g18
S'L\xaa\x19='
p2374
tp2375
Rp2376
tp2377
a(g56
g6
(g18
S'\x9b\xbf\xf0<'
p2378
tp2379
Rp2380
tp2381
a(g44
g6
(g18
S'\xc8\xf46<'
p2382
tp2383
Rp2384
tp2385
asg73
g15
sa(dp2386
g2
S'../../../data/emanuela/activity-recognition/images/NTCIR-Lifelog-256/u1/2015-03-19/b00002504_21i6bq_20150319_170930e.jpg'
p2387
sg4
(lp2388
(g274
g6
(g18
S'\xec\x86=?'
p2389
tp2390
Rp2391
tp2392
a(g56
g6
(g18
S')\xc5\x1f>'
p2393
tp2394
Rp2395
tp2396
a(g166
g6
(g18
S'\xa4O\x9b<'
p2397
tp2398
Rp2399
tp2400
a(g15
g6
(g18
S'\xaa\x7fJ<'
p2401
tp2402
Rp2403
tp2404
a(g513
g6
(g18
S'\xb2\xcb7<'
p2405
tp2406
Rp2407
tp2408
asg73
g15
sa(dp2409
g2
S'../../../data/emanuela/activity-recognition/images/NTCIR-Lifelog-256/u1/2015-03-19/b00002331_21i6bq_20150319_151001e.jpg'
p2410
sg4
(lp2411
(g15
g6
(g18
S'\x1b\x04Q?'
p2412
tp2413
Rp2414
tp2415
a(g32
g6
(g18
S'+F\x10>'
p2416
tp2417
Rp2418
tp2419
a(g44
g6
(g18
S'\xfdK\x88<'
p2420
tp2421
Rp2422
tp2423
a(g274
g6
(g18
S'z\x80\xee;'
p2424
tp2425
Rp2426
tp2427
a(g324
g6
(g18
S'o\x12\xe7;'
p2428
tp2429
Rp2430
tp2431
asg73
g15
sa(dp2432
g2
S'../../../data/emanuela/activity-recognition/images/NTCIR-Lifelog-256/u1/2015-03-17/b00001388_21i6bq_20150317_214316e.jpg'
p2433
sg4
(lp2434
(g92
g6
(g18
S'\xcd\xbdy?'
p2435
tp2436
Rp2437
tp2438
a(g166
g6
(g18
S'jV\x91<'
p2439
tp2440
Rp2441
tp2442
a(g32
g6
(g18
S'Uq\x86;'
p2443
tp2444
Rp2445
tp2446
a(g6
(g7
(S'S7'
p2447
I0
I1
tp2448
Rp2449
(I3
S'|'
p2450
NNNI7
I1
I0
tp2451
bS'meeting'
p2452
tp2453
Rp2454
g6
(g18
S'\x89\xf6\xb6:'
p2455
tp2456
Rp2457
tp2458
a(g147
g6
(g18
S',\x0c\x06:'
p2459
tp2460
Rp2461
tp2462
asg73
g15
sa(dp2463
g2
S'../../../data/emanuela/activity-recognition/images/NTCIR-Lifelog-256/u1/2015-03-08/b00000658_21i6bq_20150308_161353e.jpg'
p2464
sg4
(lp2465
(g15
g6
(g18
S'@\x93!?'
p2466
tp2467
Rp2468
tp2469
a(g32
g6
(g18
S'\x8f1F>'
p2470
tp2471
Rp2472
tp2473
a(g68
g6
(g18
S'\x08\xa7\xa9='
p2474
tp2475
Rp2476
tp2477
a(g324
g6
(g18
S'<\x80\xa3<'
p2478
tp2479
Rp2480
tp2481
a(g274
g6
(g18
S':\xfb\x8f<'
p2482
tp2483
Rp2484
tp2485
asg73
g15
sa(dp2486
g2
S'../../../data/emanuela/activity-recognition/images/NTCIR-Lifelog-256/u1/2015-03-17/b00001469_21i6bq_20150317_222233e.jpg'
p2487
sg4
(lp2488
(g15
g6
(g18
S'\xaezI?'
p2489
tp2490
Rp2491
tp2492
a(g32
g6
(g18
S'\xees\x9c='
p2493
tp2494
Rp2495
tp2496
a(g56
g6
(g18
S'U\xb4v='
p2497
tp2498
Rp2499
tp2500
a(g44
g6
(g18
S'\x96[\xd4<'
p2501
tp2502
Rp2503
tp2504
a(g166
g6
(g18
S'\\\x1e\xb1<'
p2505
tp2506
Rp2507
tp2508
asg73
g15
sa(dp2509
g2
S'../../../data/emanuela/activity-recognition/images/NTCIR-Lifelog-256/u1/2015-03-17/b00001398_21i6bq_20150317_214939e.jpg'
p2510
sg4
(lp2511
(g15
g6
(g18
S'y\xec\xd7>'
p2512
tp2513
Rp2514
tp2515
a(g166
g6
(g18
S'G\xdbZ>'
p2516
tp2517
Rp2518
tp2519
a(g32
g6
(g18
S'\xae\xfd\x17>'
p2520
tp2521
Rp2522
tp2523
a(g297
g6
(g18
S'#[h='
p2524
tp2525
Rp2526
tp2527
a(g56
g6
(g18
S'\x8a.1='
p2528
tp2529
Rp2530
tp2531
asg73
g15
sa(dp2532
g2
S'../../../data/emanuela/activity-recognition/images/NTCIR-Lifelog-256/u1/2015-03-17/b00001385_21i6bq_20150317_214136e.jpg'
p2533
sg4
(lp2534
(g166
g6
(g18
S'\xeeB\x01?'
p2535
tp2536
Rp2537
tp2538
a(g15
g6
(g18
S'\xdc\xa1n>'
p2539
tp2540
Rp2541
tp2542
a(g32
g6
(g18
S'\xf7E\xa8='
p2543
tp2544
Rp2545
tp2546
a(g56
g6
(g18
S'L\xfag='
p2547
tp2548
Rp2549
tp2550
a(g297
g6
(g18
S'\rO\x16='
p2551
tp2552
Rp2553
tp2554
asg73
g15
sa(dp2555
g2
S'../../../data/emanuela/activity-recognition/images/NTCIR-Lifelog-256/u1/2015-03-16/b00002392_21i6bq_20150316_153545e.jpg'
p2556
sg4
(lp2557
(g147
g6
(g18
S'\xe1\x92(>'
p2558
tp2559
Rp2560
tp2561
a(g32
g6
(g18
S'\xb1K\t>'
p2562
tp2563
Rp2564
tp2565
a(g15
g6
(g18
S'!I\xfd='
p2566
tp2567
Rp2568
tp2569
a(g56
g6
(g18
S'\xd63\xa7='
p2570
tp2571
Rp2572
tp2573
a(g166
g6
(g18
S'\xe9:\x95='
p2574
tp2575
Rp2576
tp2577
asg73
g15
sa(dp2578
g2
S'../../../data/emanuela/activity-recognition/images/NTCIR-Lifelog-256/u1/2015-03-19/b00002460_21i6bq_20150319_164321e.jpg'
p2579
sg4
(lp2580
(g56
g6
(g18
S'\xcc\xd6\xa3>'
p2581
tp2582
Rp2583
tp2584
a(g274
g6
(g18
S'\x8d\xf6\x97>'
p2585
tp2586
Rp2587
tp2588
a(g166
g6
(g18
S'\x81\xae\x04>'
p2589
tp2590
Rp2591
tp2592
a(g513
g6
(g18
S'\t\x8eN='
p2593
tp2594
Rp2595
tp2596
a(g32
g6
(g18
S'@\x03@='
p2597
tp2598
Rp2599
tp2600
asg73
g15
sa(dp2601
g2
S'../../../data/emanuela/activity-recognition/images/NTCIR-Lifelog-256/u1/2015-03-19/b00002325_21i6bq_20150319_150628e.jpg'
p2602
sg4
(lp2603
(g15
g6
(g18
S'\x0c\x83o?'
p2604
tp2605
Rp2606
tp2607
a(g32
g6
(g18
S'o\xe1O='
p2608
tp2609
Rp2610
tp2611
a(g44
g6
(g18
S'\xd5~\xc0;'
p2612
tp2613
Rp2614
tp2615
a(g56
g6
(g18
S'\xd9\xab-;'
p2616
tp2617
Rp2618
tp2619
a(g92
g6
(g18
S'\xe3\x9f\xb5:'
p2620
tp2621
Rp2622
tp2623
asg73
g15
sa(dp2624
g2
S'../../../data/emanuela/activity-recognition/images/NTCIR-Lifelog-256/u1/2015-03-17/b00001366_21i6bq_20150317_213031e.jpg'
p2625
sg4
(lp2626
(g15
g6
(g18
S'!\xc7\x1f?'
p2627
tp2628
Rp2629
tp2630
a(g32
g6
(g18
S'\x8f\xb03>'
p2631
tp2632
Rp2633
tp2634
a(g92
g6
(g18
S'\xf8\xfd.>'
p2635
tp2636
Rp2637
tp2638
a(g44
g6
(g18
S'\t\x81\xbb;'
p2639
tp2640
Rp2641
tp2642
a(g147
g6
(g18
S'\xc3=\xaa;'
p2643
tp2644
Rp2645
tp2646
asg73
g15
sa(dp2647
g2
S'../../../data/emanuela/activity-recognition/images/NTCIR-Lifelog-256/u1/2015-03-19/b00002459_21i6bq_20150319_164250e.jpg'
p2648
sg4
(lp2649
(g56
g6
(g18
S'\xdf\xe0\xa6>'
p2650
tp2651
Rp2652
tp2653
a(g166
g6
(g18
S's\xc9G>'
p2654
tp2655
Rp2656
tp2657
a(g274
g6
(g18
S'D\xaeC>'
p2658
tp2659
Rp2660
tp2661
a(g15
g6
(g18
S'\xddd\x9e='
p2662
tp2663
Rp2664
tp2665
a(g44
g6
(g18
S'\x82\x94p='
p2666
tp2667
Rp2668
tp2669
asg73
g15
sa(dp2670
g2
S'../../../data/emanuela/activity-recognition/images/NTCIR-Lifelog-256/u1/2015-03-17/b00001444_21i6bq_20150317_221236e.jpg'
p2671
sg4
(lp2672
(g15
g6
(g18
S'O\x0e\x0e?'
p2673
tp2674
Rp2675
tp2676
a(g32
g6
(g18
S'\x9aOn>'
p2677
tp2678
Rp2679
tp2680
a(g56
g6
(g18
S'\xf2n<='
p2681
tp2682
Rp2683
tp2684
a(g44
g6
(g18
S'$\xd1\x1d='
p2685
tp2686
Rp2687
tp2688
a(g166
g6
(g18
S'6:\xf4<'
p2689
tp2690
Rp2691
tp2692
asg73
g15
sa(dp2693
g2
S'../../../data/emanuela/activity-recognition/images/NTCIR-Lifelog-256/u1/2015-03-16/b00002387_21i6bq_20150316_153248e.jpg'
p2694
sg4
(lp2695
(g166
g6
(g18
S'\r1\xde>'
p2696
tp2697
Rp2698
tp2699
a(g147
g6
(g18
S'\n\xef\xa9='
p2700
tp2701
Rp2702
tp2703
a(g274
g6
(g18
S'*F\x9e='
p2704
tp2705
Rp2706
tp2707
a(g324
g6
(g18
S'\xb3\x96\x96='
p2708
tp2709
Rp2710
tp2711
a(g44
g6
(g18
S'\x9eoo='
p2712
tp2713
Rp2714
tp2715
asg73
g15
sa(dp2716
g2
S'../../../data/emanuela/activity-recognition/images/NTCIR-Lifelog-256/u1/2015-03-17/b00001312_21i6bq_20150317_205911e.jpg'
p2717
sg4
(lp2718
(g15
g6
(g18
S"\xc7\x11'?"
p2719
tp2720
Rp2721
tp2722
a(g68
g6
(g18
S'^1\x0e>'
p2723
tp2724
Rp2725
tp2726
a(g56
g6
(g18
S'\xe5\xb7A='
p2727
tp2728
Rp2729
tp2730
a(g32
g6
(g18
S'm*\x02='
p2731
tp2732
Rp2733
tp2734
a(g166
g6
(g18
S'\x84\x9f\x01='
p2735
tp2736
Rp2737
tp2738
asg73
g15
sa(dp2739
g2
S'../../../data/emanuela/activity-recognition/images/NTCIR-Lifelog-256/u1/2015-03-16/b00002554_21i6bq_20150316_170737e.jpg'
p2740
sg4
(lp2741
(g324
g6
(g18
S'aj\x80>'
p2742
tp2743
Rp2744
tp2745
a(g15
g6
(g18
S'\x88\xc2g>'
p2746
tp2747
Rp2748
tp2749
a(g68
g6
(g18
S'+\xdcS>'
p2750
tp2751
Rp2752
tp2753
a(g336
g6
(g18
S'\xc8\xf5\xaf='
p2754
tp2755
Rp2756
tp2757
a(g2128
g6
(g18
S'\x9b\xe4X='
p2758
tp2759
Rp2760
tp2761
asg73
g15
sa(dp2762
g2
S'../../../data/emanuela/activity-recognition/images/NTCIR-Lifelog-256/u1/2015-03-17/b00001369_21i6bq_20150317_213212e.jpg'
p2763
sg4
(lp2764
(g15
g6
(g18
S'\xfa\xf4.?'
p2765
tp2766
Rp2767
tp2768
a(g92
g6
(g18
S'\xe7\xfe#>'
p2769
tp2770
Rp2771
tp2772
a(g32
g6
(g18
S'x\xcd\x05>'
p2773
tp2774
Rp2775
tp2776
a(g44
g6
(g18
S'\xf4\x89\xb2;'
p2777
tp2778
Rp2779
tp2780
a(g147
g6
(g18
S'\xaaV\xa9;'
p2781
tp2782
Rp2783
tp2784
asg73
g15
sa(dp2785
g2
S'../../../data/emanuela/activity-recognition/images/NTCIR-Lifelog-256/u1/2015-03-17/b00001403_21i6bq_20150317_215226e.jpg'
p2786
sg4
(lp2787
(g15
g6
(g18
S'\xc8%\xac>'
p2788
tp2789
Rp2790
tp2791
a(g166
g6
(g18
S'\xcc\xa0t>'
p2792
tp2793
Rp2794
tp2795
a(g32
g6
(g18
S'pm(>'
p2796
tp2797
Rp2798
tp2799
a(g56
g6
(g18
S'b[\xa1='
p2800
tp2801
Rp2802
tp2803
a(g44
g6
(g18
S'\x8e\x8aX='
p2804
tp2805
Rp2806
tp2807
asg73
g15
sa(dp2808
g2
S'../../../data/emanuela/activity-recognition/images/NTCIR-Lifelog-256/u1/2015-03-19/b00002467_21i6bq_20150319_164736e.jpg'
p2809
sg4
(lp2810
(g166
g6
(g18
S'3B\xbf>'
p2811
tp2812
Rp2813
tp2814
a(g56
g6
(g18
S'\x89Y\x85>'
p2815
tp2816
Rp2817
tp2818
a(g274
g6
(g18
S'}J\xb9='
p2819
tp2820
Rp2821
tp2822
a(g44
g6
(g18
S'(\xd4b='
p2823
tp2824
Rp2825
tp2826
a(g15
g6
(g18
S';\xb2V='
p2827
tp2828
Rp2829
tp2830
asg73
g15
sa(dp2831
g2
S'../../../data/emanuela/activity-recognition/images/NTCIR-Lifelog-256/u1/2015-03-17/b00001306_21i6bq_20150317_205909e.jpg'
p2832
sg4
(lp2833
(g15
g6
(g18
S"8'{?"
p2834
tp2835
Rp2836
tp2837
a(g32
g6
(g18
S'\r\xd9\x19<'
p2838
tp2839
Rp2840
tp2841
a(g166
g6
(g18
S' \xb7\xee:'
p2842
tp2843
Rp2844
tp2845
a(g147
g6
(g18
S'\x1e\x03\xc4:'
p2846
tp2847
Rp2848
tp2849
a(g68
g6
(g18
S'\x06*\xc3:'
p2850
tp2851
Rp2852
tp2853
asg73
g15
sa(dp2854
g2
S'../../../data/emanuela/activity-recognition/images/NTCIR-Lifelog-256/u1/2015-03-08/b00000651_21i6bq_20150308_160956e.jpg'
p2855
sg4
(lp2856
(g15
g6
(g18
S'\x8e\x89\t?'
p2857
tp2858
Rp2859
tp2860
a(g32
g6
(g18
S'\x17vv>'
p2861
tp2862
Rp2863
tp2864
a(g56
g6
(g18
S'\xb3\x14\x84='
p2865
tp2866
Rp2867
tp2868
a(g147
g6
(g18
S'8M\x07='
p2869
tp2870
Rp2871
tp2872
a(g336
g6
(g18
S'_\x80\xe6<'
p2873
tp2874
Rp2875
tp2876
asg73
g15
sa(dp2877
g2
S'../../../data/emanuela/activity-recognition/images/NTCIR-Lifelog-256/u1/2015-03-17/b00001334_21i6bq_20150317_211203e.jpg'
p2878
sg4
(lp2879
(g15
g6
(g18
S'\xb7\x81\x1a?'
p2880
tp2881
Rp2882
tp2883
a(g166
g6
(g18
S'J\xe8\x1c>'
p2884
tp2885
Rp2886
tp2887
a(g32
g6
(g18
S'x\x1a\xc7='
p2888
tp2889
Rp2890
tp2891
a(g44
g6
(g18
S'\xe8YS='
p2892
tp2893
Rp2894
tp2895
a(g56
g6
(g18
S'M\xd8\x03='
p2896
tp2897
Rp2898
tp2899
asg73
g15
sa(dp2900
g2
S'../../../data/emanuela/activity-recognition/images/NTCIR-Lifelog-256/u1/2015-03-17/b00001377_21i6bq_20150317_213640e.jpg'
p2901
sg4
(lp2902
(g15
g6
(g18
S'G\x13T?'
p2903
tp2904
Rp2905
tp2906
a(g32
g6
(g18
S'\xfb\xc9\x9f='
p2907
tp2908
Rp2909
tp2910
a(g166
g6
(g18
S'S\xde\x0e='
p2911
tp2912
Rp2913
tp2914
a(g92
g6
(g18
S'l*\x08='
p2915
tp2916
Rp2917
tp2918
a(g44
g6
(g18
S'-\xa2\xe5;'
p2919
tp2920
Rp2921
tp2922
asg73
g15
sa(dp2923
g2
S'../../../data/emanuela/activity-recognition/images/NTCIR-Lifelog-256/u1/2015-03-16/b00002384_21i6bq_20150316_153159e.jpg'
p2924
sg4
(lp2925
(g324
g6
(g18
S'd\xa3\xa6>'
p2926
tp2927
Rp2928
tp2929
a(g274
g6
(g18
S'\xba*\x90>'
p2930
tp2931
Rp2932
tp2933
a(g32
g6
(g18
S'#`\xff='
p2934
tp2935
Rp2936
tp2937
a(g56
g6
(g18
S'\x87\xcc\xa4='
p2938
tp2939
Rp2940
tp2941
a(g147
g6
(g18
S'\xb6\xa5!='
p2942
tp2943
Rp2944
tp2945
asg73
g15
sa(dp2946
g2
S'../../../data/emanuela/activity-recognition/images/NTCIR-Lifelog-256/u1/2015-03-17/b00001475_21i6bq_20150317_222547e.jpg'
p2947
sg4
(lp2948
(g15
g6
(g18
S'\xaf\xb6$?'
p2949
tp2950
Rp2951
tp2952
a(g32
g6
(g18
S'\x0fT->'
p2953
tp2954
Rp2955
tp2956
a(g56
g6
(g18
S"F'\x81="
p2957
tp2958
Rp2959
tp2960
a(g166
g6
(g18
S'\xc6\xcbk='
p2961
tp2962
Rp2963
tp2964
a(g44
g6
(g18
S'/\xa1x<'
p2965
tp2966
Rp2967
tp2968
asg73
g15
sa(dp2969
g2
S'../../../data/emanuela/activity-recognition/images/NTCIR-Lifelog-256/u1/2015-03-17/b00001436_21i6bq_20150317_220747e.jpg'
p2970
sg4
(lp2971
(g166
g6
(g18
S'\x8bG\xd2>'
p2972
tp2973
Rp2974
tp2975
a(g15
g6
(g18
S'Y0o>'
p2976
tp2977
Rp2978
tp2979
a(g44
g6
(g18
S'\xb7\x17K>'
p2980
tp2981
Rp2982
tp2983
a(g32
g6
(g18
S'\xba+\x95='
p2984
tp2985
Rp2986
tp2987
a(g56
g6
(g18
S'\xbd\r\x93<'
p2988
tp2989
Rp2990
tp2991
asg73
g15
sa(dp2992
g2
S'../../../data/emanuela/activity-recognition/images/NTCIR-Lifelog-256/u1/2015-03-19/b00002539_21i6bq_20150319_173129e.jpg'
p2993
sg4
(lp2994
(g166
g6
(g18
S'\x0e\xf5y?'
p2995
tp2996
Rp2997
tp2998
a(g56
g6
(g18
S'\x9c\xbbi<'
p2999
tp3000
Rp3001
tp3002
a(g92
g6
(g18
S'\xa4{\xe6:'
p3003
tp3004
Rp3005
tp3006
a(g274
g6
(g18
S'\x83\xec\xcf:'
p3007
tp3008
Rp3009
tp3010
a(g32
g6
(g18
S'\xb5\xd4\x93:'
p3011
tp3012
Rp3013
tp3014
asg73
g15
sa(dp3015
g2
S'../../../data/emanuela/activity-recognition/images/NTCIR-Lifelog-256/u1/2015-03-17/b00001361_21i6bq_20150317_212730e.jpg'
p3016
sg4
(lp3017
(g15
g6
(g18
S'e\xf8Z?'
p3018
tp3019
Rp3020
tp3021
a(g32
g6
(g18
S'N\xaf\x9b='
p3022
tp3023
Rp3024
tp3025
a(g166
g6
(g18
S'\x91\x80\xb9<'
p3026
tp3027
Rp3028
tp3029
a(g44
g6
(g18
S'\xe2\xcbk<'
p3030
tp3031
Rp3032
tp3033
a(g68
g6
(g18
S'C0\x16<'
p3034
tp3035
Rp3036
tp3037
asg73
g15
sa(dp3038
g2
S'../../../data/emanuela/activity-recognition/images/NTCIR-Lifelog-256/u1/2015-03-17/b00001404_21i6bq_20150317_215305e.jpg'
p3039
sg4
(lp3040
(g15
g6
(g18
S'\xf9GI?'
p3041
tp3042
Rp3043
tp3044
a(g44
g6
(g18
S'M\x91\\='
p3045
tp3046
Rp3047
tp3048
a(g166
g6
(g18
S'\xd2b\x19='
p3049
tp3050
Rp3051
tp3052
a(g32
g6
(g18
S'V<\x10='
p3053
tp3054
Rp3055
tp3056
a(g56
g6
(g18
S'u\xeb\xd5<'
p3057
tp3058
Rp3059
tp3060
asg73
g15
sa(dp3061
g2
S'../../../data/emanuela/activity-recognition/images/NTCIR-Lifelog-256/u1/2015-03-16/b00002544_21i6bq_20150316_170542e.jpg'
p3062
sg4
(lp3063
(g44
g6
(g18
S'\x03\xe1!?'
p3064
tp3065
Rp3066
tp3067
a(g15
g6
(g18
S'\x92\xf4\xc0='
p3068
tp3069
Rp3070
tp3071
a(g2128
g6
(g18
S'w\x01\x9e='
p3072
tp3073
Rp3074
tp3075
a(g68
g6
(g18
S'\x85\xb6Y='
p3076
tp3077
Rp3078
tp3079
a(g127
g6
(g18
S'\xba\xb4&='
p3080
tp3081
Rp3082
tp3083
asg73
g15
sa(dp3084
g2
S'../../../data/emanuela/activity-recognition/images/NTCIR-Lifelog-256/u1/2015-03-19/b00002530_21i6bq_20150319_172626e.jpg'
p3085
sg4
(lp3086
(g56
g6
(g18
S'\x93\xd2J?'
p3087
tp3088
Rp3089
tp3090
a(g274
g6
(g18
S'\xa9\xf3\xb0='
p3091
tp3092
Rp3093
tp3094
a(g324
g6
(g18
S'r+\x14='
p3095
tp3096
Rp3097
tp3098
a(g166
g6
(g18
S'\xa8\x93\x01='
p3099
tp3100
Rp3101
tp3102
a(g44
g6
(g18
S'\xc5\xbd%<'
p3103
tp3104
Rp3105
tp3106
asg73
g15
sa(dp3107
g2
S'../../../data/emanuela/activity-recognition/images/NTCIR-Lifelog-256/u1/2015-03-08/b00000669_21i6bq_20150308_162004e.jpg'
p3108
sg4
(lp3109
(g15
g6
(g18
S'\xd5\xce>?'
p3110
tp3111
Rp3112
tp3113
a(g32
g6
(g18
S'>P%>'
p3114
tp3115
Rp3116
tp3117
a(g68
g6
(g18
S'F|e='
p3118
tp3119
Rp3120
tp3121
a(g44
g6
(g18
S'A\xfc+<'
p3122
tp3123
Rp3124
tp3125
a(g92
g6
(g18
S'@\xb3\x07<'
p3126
tp3127
Rp3128
tp3129
asg73
g15
sa(dp3130
g2
S'../../../data/emanuela/activity-recognition/images/NTCIR-Lifelog-256/u1/2015-03-17/b00001321_21i6bq_20150317_210355e.jpg'
p3131
sg4
(lp3132
(g15
g6
(g18
S'\xa8\xf9#?'
p3133
tp3134
Rp3135
tp3136
a(g44
g6
(g18
S'\xd1\xce\x07>'
p3137
tp3138
Rp3139
tp3140
a(g68
g6
(g18
S'\xe8\xf5\xf4='
p3141
tp3142
Rp3143
tp3144
a(g32
g6
(g18
S'V\x1aE='
p3145
tp3146
Rp3147
tp3148
a(g166
g6
(g18
S'\x1em`<'
p3149
tp3150
Rp3151
tp3152
asg73
g15
sa(dp3153
g2
S'../../../data/emanuela/activity-recognition/images/NTCIR-Lifelog-256/u1/2015-03-16/b00002401_21i6bq_20150316_154114e.jpg'
p3154
sg4
(lp3155
(g127
g6
(g18
S'\xbd\x9fL>'
p3156
tp3157
Rp3158
tp3159
a(g15
g6
(g18
S'\xaaG\x1f>'
p3160
tp3161
Rp3162
tp3163
a(g32
g6
(g18
S'\xbdB\xf6='
p3164
tp3165
Rp3166
tp3167
a(g147
g6
(g18
S'\xf5\x1a\xc7='
p3168
tp3169
Rp3170
tp3171
a(g324
g6
(g18
S'\xb4l\xc5='
p3172
tp3173
Rp3174
tp3175
asg73
g15
sa(dp3176
g2
S'../../../data/emanuela/activity-recognition/images/NTCIR-Lifelog-256/u1/2015-03-17/b00001464_21i6bq_20150317_222230e.jpg'
p3177
sg4
(lp3178
(g15
g6
(g18
S'\xe3\xf1f?'
p3179
tp3180
Rp3181
tp3182
a(g32
g6
(g18
S'\xc4}\x10='
p3183
tp3184
Rp3185
tp3186
a(g56
g6
(g18
S'p=\x10='
p3187
tp3188
Rp3189
tp3190
a(g44
g6
(g18
S'M\xeb@<'
p3191
tp3192
Rp3193
tp3194
a(g147
g6
(g18
S'q?z;'
p3195
tp3196
Rp3197
tp3198
asg73
g15
sa(dp3199
g2
S'../../../data/emanuela/activity-recognition/images/NTCIR-Lifelog-256/u1/2015-03-19/b00002482_21i6bq_20150319_165624e.jpg'
p3200
sg4
(lp3201
(g274
g6
(g18
S'\x9a\xa6\xcd>'
p3202
tp3203
Rp3204
tp3205
a(g44
g6
(g18
S'\x90\xbc\x96>'
p3206
tp3207
Rp3208
tp3209
a(g56
g6
(g18
S'\x83;\x81='
p3210
tp3211
Rp3212
tp3213
a(g297
g6
(g18
S'\x05#/='
p3214
tp3215
Rp3216
tp3217
a(g324
g6
(g18
S't\x0c\x11='
p3218
tp3219
Rp3220
tp3221
asg73
g15
sa(dp3222
g2
S'../../../data/emanuela/activity-recognition/images/NTCIR-Lifelog-256/u1/2015-03-19/b00002479_21i6bq_20150319_165432e.jpg'
p3223
sg4
(lp3224
(g56
g6
(g18
S'\x96\n\xce>'
p3225
tp3226
Rp3227
tp3228
a(g274
g6
(g18
S'\x86\xe8\xbf>'
p3229
tp3230
Rp3231
tp3232
a(g166
g6
(g18
S'\xc74_='
p3233
tp3234
Rp3235
tp3236
a(g32
g6
(g18
S'1:\x11='
p3237
tp3238
Rp3239
tp3240
a(g44
g6
(g18
S'\xe0\xcd\xe9<'
p3241
tp3242
Rp3243
tp3244
asg73
g15
sa(dp3245
g2
S'../../../data/emanuela/activity-recognition/images/NTCIR-Lifelog-256/u1/2015-03-16/b00002402_21i6bq_20150316_154149e.jpg'
p3246
sg4
(lp3247
(g32
g6
(g18
S'\xe7\x03x>'
p3248
tp3249
Rp3250
tp3251
a(g127
g6
(g18
S'I\x9d\xfb='
p3252
tp3253
Rp3254
tp3255
a(g147
g6
(g18
S'\xc0\xfb\xdf='
p3256
tp3257
Rp3258
tp3259
a(g15
g6
(g18
S'tG\xb0='
p3260
tp3261
Rp3262
tp3263
a(g68
g6
(g18
S'\xd7r\xaf='
p3264
tp3265
Rp3266
tp3267
asg73
g15
sa(dp3268
g2
S'../../../data/emanuela/activity-recognition/images/NTCIR-Lifelog-256/u1/2015-03-19/b00002523_21i6bq_20150319_172226e.jpg'
p3269
sg4
(lp3270
(g56
g6
(g18
S'\x16B\x11?'
p3271
tp3272
Rp3273
tp3274
a(g166
g6
(g18
S'\x03\xdfi>'
p3275
tp3276
Rp3277
tp3278
a(g274
g6
(g18
S'%\x99\xeb='
p3279
tp3280
Rp3281
tp3282
a(g15
g6
(g18
S':\xf0\xb7<'
p3283
tp3284
Rp3285
tp3286
a(g44
g6
(g18
S'\x08S\\<'
p3287
tp3288
Rp3289
tp3290
asg73
g15
sa(dp3291
g2
S'../../../data/emanuela/activity-recognition/images/NTCIR-Lifelog-256/u1/2015-03-17/b00001456_21i6bq_20150317_221927e.jpg'
p3292
sg4
(lp3293
(g15
g6
(g18
S'O\xf6/?'
p3294
tp3295
Rp3296
tp3297
a(g32
g6
(g18
S'\xc1C5>'
p3298
tp3299
Rp3300
tp3301
a(g56
g6
(g18
S'/T\x0e='
p3302
tp3303
Rp3304
tp3305
a(g166
g6
(g18
S'\xa9{\xe6<'
p3306
tp3307
Rp3308
tp3309
a(g513
g6
(g18
S'L\xaef<'
p3310
tp3311
Rp3312
tp3313
asg73
g15
sa(dp3314
g2
S'../../../data/emanuela/activity-recognition/images/NTCIR-Lifelog-256/u1/2015-03-17/b00001448_21i6bq_20150317_221501e.jpg'
p3315
sg4
(lp3316
(g15
g6
(g18
S'(\x9c\x17?'
p3317
tp3318
Rp3319
tp3320
a(g32
g6
(g18
S'I\x8c\n>'
p3321
tp3322
Rp3323
tp3324
a(g44
g6
(g18
S'\xa1\xbf\xd6='
p3325
tp3326
Rp3327
tp3328
a(g56
g6
(g18
S'\xf6m\x15='
p3329
tp3330
Rp3331
tp3332
a(g166
g6
(g18
S'\x8b\xe1\xd3<'
p3333
tp3334
Rp3335
tp3336
asg73
g15
sa(dp3337
g2
S'../../../data/emanuela/activity-recognition/images/NTCIR-Lifelog-256/u1/2015-03-19/b00002505_21i6bq_20150319_171014e.jpg'
p3338
sg4
(lp3339
(g274
g6
(g18
S'Kd\x18?'
p3340
tp3341
Rp3342
tp3343
a(g56
g6
(g18
S'\xe60\x83>'
p3344
tp3345
Rp3346
tp3347
a(g166
g6
(g18
S'2f\xa0='
p3348
tp3349
Rp3350
tp3351
a(g513
g6
(g18
S'O\xa6\x80<'
p3352
tp3353
Rp3354
tp3355
a(g44
g6
(g18
S'U\xc0h<'
p3356
tp3357
Rp3358
tp3359
asg73
g15
sa(dp3360
g2
S'../../../data/emanuela/activity-recognition/images/NTCIR-Lifelog-256/u1/2015-03-19/b00002140_21i6bq_20150319_130026e.jpg'
p3361
sg4
(lp3362
(g15
g6
(g18
S'0\xa8z?'
p3363
tp3364
Rp3365
tp3366
a(g32
g6
(g18
S'R\xe0p<'
p3367
tp3368
Rp3369
tp3370
a(g56
g6
(g18
S'\x01\x9b$;'
p3371
tp3372
Rp3373
tp3374
a(g44
g6
(g18
S'\xec\xbf\xed:'
p3375
tp3376
Rp3377
tp3378
a(g68
g6
(g18
S'!<\xab:'
p3379
tp3380
Rp3381
tp3382
asg73
g15
sa(dp3383
g2
S'../../../data/emanuela/activity-recognition/images/NTCIR-Lifelog-256/u1/2015-03-16/b00002553_21i6bq_20150316_170737e.jpg'
p3384
sg4
(lp3385
(g56
g6
(g18
S'\xeae\x96>'
p3386
tp3387
Rp3388
tp3389
a(g44
g6
(g18
S'\x96A@>'
p3390
tp3391
Rp3392
tp3393
a(g324
g6
(g18
S'\xfc\xbc\xd9='
p3394
tp3395
Rp3396
tp3397
a(g15
g6
(g18
S'\x11\xddy='
p3398
tp3399
Rp3400
tp3401
a(g513
g6
(g18
S'J3d='
p3402
tp3403
Rp3404
tp3405
asg73
g15
sa(dp3406
g2
S'../../../data/emanuela/activity-recognition/images/NTCIR-Lifelog-256/u1/2015-03-19/b00002514_21i6bq_20150319_171647e.jpg'
p3407
sg4
(lp3408
(g56
g6
(g18
S'\x1f\xc7)?'
p3409
tp3410
Rp3411
tp3412
a(g274
g6
(g18
S'|\xb9\n>'
p3413
tp3414
Rp3415
tp3416
a(g166
g6
(g18
S'\xf3\x92\x95='
p3417
tp3418
Rp3419
tp3420
a(g15
g6
(g18
S'\x1cC\x0b='
p3421
tp3422
Rp3423
tp3424
a(g44
g6
(g18
S'\x14*\xe1<'
p3425
tp3426
Rp3427
tp3428
asg73
g15
sa(dp3429
g2
S'../../../data/emanuela/activity-recognition/images/NTCIR-Lifelog-256/u1/2015-03-16/b00002381_21i6bq_20150316_153157e.jpg'
p3430
sg4
(lp3431
(g274
g6
(g18
S'Qs9?'
p3432
tp3433
Rp3434
tp3435
a(g324
g6
(g18
S'\xdfB3>'
p3436
tp3437
Rp3438
tp3439
a(g56
g6
(g18
S'\xfd)\r='
p3440
tp3441
Rp3442
tp3443
a(g32
g6
(g18
S'^\xf5\xb1<'
p3444
tp3445
Rp3446
tp3447
a(g336
g6
(g18
S'\xf7\xe2\x82<'
p3448
tp3449
Rp3450
tp3451
asg73
g15
sa(dp3452
g2
S'../../../data/emanuela/activity-recognition/images/NTCIR-Lifelog-256/u1/2015-03-08/b00000670_21i6bq_20150308_162034e.jpg'
p3453
sg4
(lp3454
(g56
g6
(g18
S'\xf5\x93\x9a>'
p3455
tp3456
Rp3457
tp3458
a(g274
g6
(g18
S'\xdeX\x13>'
p3459
tp3460
Rp3461
tp3462
a(g324
g6
(g18
S'\xeb\xb6\r>'
p3463
tp3464
Rp3465
tp3466
a(g297
g6
(g18
S'\xe0h\xba='
p3467
tp3468
Rp3469
tp3470
a(g1035
g6
(g18
S'L\xdc=='
p3471
tp3472
Rp3473
tp3474
asg73
g15
sa(dp3475
g2
S'../../../data/emanuela/activity-recognition/images/NTCIR-Lifelog-256/u1/2015-03-16/b00002558_21i6bq_20150316_170859e.jpg'
p3476
sg4
(lp3477
(g68
g6
(g18
S'\xd24\xa2>'
p3478
tp3479
Rp3480
tp3481
a(g324
g6
(g18
S'\x96\xacy>'
p3482
tp3483
Rp3484
tp3485
a(g147
g6
(g18
S'\xbc\xfe\x8a='
p3486
tp3487
Rp3488
tp3489
a(g659
g6
(g18
S'\xbf\xa4\x87='
p3490
tp3491
Rp3492
tp3493
a(g15
g6
(g18
S'\xa3\xc2w='
p3494
tp3495
Rp3496
tp3497
asg73
g15
sa(dp3498
g2
S'../../../data/emanuela/activity-recognition/images/NTCIR-Lifelog-256/u1/2015-03-08/b00000662_21i6bq_20150308_161618e.jpg'
p3499
sg4
(lp3500
(g15
g6
(g18
S'\xde1N?'
p3501
tp3502
Rp3503
tp3504
a(g32
g6
(g18
S'<\x8e\xba='
p3505
tp3506
Rp3507
tp3508
a(g68
g6
(g18
S'+D\xa5='
p3509
tp3510
Rp3511
tp3512
a(g44
g6
(g18
S'\x91\xfe\n<'
p3513
tp3514
Rp3515
tp3516
a(g274
g6
(g18
S'\x7f\x16\x80;'
p3517
tp3518
Rp3519
tp3520
asg73
g15
sa(dp3521
g2
S'../../../data/emanuela/activity-recognition/images/NTCIR-Lifelog-256/u1/2015-03-19/b00002540_21i6bq_20150319_173211e.jpg'
p3522
sg4
(lp3523
(g166
g6
(g18
S'q\x11/?'
p3524
tp3525
Rp3526
tp3527
a(g92
g6
(g18
S'W\x125>'
p3528
tp3529
Rp3530
tp3531
a(g56
g6
(g18
S'GY\x91='
p3532
tp3533
Rp3534
tp3535
a(g324
g6
(g18
S'\x07h\xa0<'
p3536
tp3537
Rp3538
tp3539
a(g32
g6
(g18
S'\x042\x94<'
p3540
tp3541
Rp3542
tp3543
asg73
g15
sa(dp3544
g2
S'../../../data/emanuela/activity-recognition/images/NTCIR-Lifelog-256/u1/2015-03-19/b00002475_21i6bq_20150319_165209e.jpg'
p3545
sg4
(lp3546
(g166
g6
(g18
S'\x18ss?'
p3547
tp3548
Rp3549
tp3550
a(g56
g6
(g18
S'\x0f\x8fz<'
p3551
tp3552
Rp3553
tp3554
a(g44
g6
(g18
S'Q\x1bq<'
p3555
tp3556
Rp3557
tp3558
a(g15
g6
(g18
S'\xf22\xd8;'
p3559
tp3560
Rp3561
tp3562
a(g32
g6
(g18
S'z*`;'
p3563
tp3564
Rp3565
tp3566
asg73
g15
sa(dp3567
g2
S'../../../data/emanuela/activity-recognition/images/NTCIR-Lifelog-256/u1/2015-03-19/b00002259_21i6bq_20150319_142634e.jpg'
p3568
sg4
(lp3569
(g15
g6
(g18
S'Z#y?'
p3570
tp3571
Rp3572
tp3573
a(g56
g6
(g18
S'UbU<'
p3574
tp3575
Rp3576
tp3577
a(g44
g6
(g18
S'\x1dC\x1b<'
p3578
tp3579
Rp3580
tp3581
a(g32
g6
(g18
S'LD:;'
p3582
tp3583
Rp3584
tp3585
a(g92
g6
(g18
S'\xfa\xad\x919'
p3586
tp3587
Rp3588
tp3589
asg73
g15
sa(dp3590
g2
S'../../../data/emanuela/activity-recognition/images/NTCIR-Lifelog-256/u1/2015-03-17/b00001476_21i6bq_20150317_222624e.jpg'
p3591
sg4
(lp3592
(g15
g6
(g18
S'r\x97D?'
p3593
tp3594
Rp3595
tp3596
a(g32
g6
(g18
S'<=\xb4='
p3597
tp3598
Rp3599
tp3600
a(g166
g6
(g18
S'\x00\x07\xaf='
p3601
tp3602
Rp3603
tp3604
a(g56
g6
(g18
S'\xe98\xa4<'
p3605
tp3606
Rp3607
tp3608
a(g44
g6
(g18
S'\x90;q<'
p3609
tp3610
Rp3611
tp3612
asg73
g15
sa(dp3613
g2
S'../../../data/emanuela/activity-recognition/images/NTCIR-Lifelog-256/u1/2015-03-08/b00000596_21i6bq_20150308_153857e.jpg'
p3614
sg4
(lp3615
(g15
g6
(g18
S'/\xf0\x13?'
p3616
tp3617
Rp3618
tp3619
a(g32
g6
(g18
S'f\x1e\x97>'
p3620
tp3621
Rp3622
tp3623
a(g147
g6
(g18
S'\x97\xd1\xf5<'
p3624
tp3625
Rp3626
tp3627
a(g56
g6
(g18
S'\\\x92\xa3<'
p3628
tp3629
Rp3630
tp3631
a(g44
g6
(g18
S'Z\xc9V<'
p3632
tp3633
Rp3634
tp3635
asg73
g15
sa(dp3636
g2
S'../../../data/emanuela/activity-recognition/images/NTCIR-Lifelog-256/u1/2015-03-17/b00001346_21i6bq_20150317_211851e.jpg'
p3637
sg4
(lp3638
(g15
g6
(g18
S'0\xfa[?'
p3639
tp3640
Rp3641
tp3642
a(g32
g6
(g18
S'\r\xa0\xfd<'
p3643
tp3644
Rp3645
tp3646
a(g56
g6
(g18
S'yh\xd4<'
p3647
tp3648
Rp3649
tp3650
a(g68
g6
(g18
S'{\x00\xce<'
p3651
tp3652
Rp3653
tp3654
a(g166
g6
(g18
S'F\x8a\xa7<'
p3655
tp3656
Rp3657
tp3658
asg73
g15
sa(dp3659
g2
S'../../../data/emanuela/activity-recognition/images/NTCIR-Lifelog-256/u1/2015-03-19/b00002322_21i6bq_20150319_150447e.jpg'
p3660
sg4
(lp3661
(g15
g6
(g18
S'\xc0\x13u?'
p3662
tp3663
Rp3664
tp3665
a(g32
g6
(g18
S'\x85\xcb\x06='
p3666
tp3667
Rp3668
tp3669
a(g56
g6
(g18
S'F\x8e\x8c;'
p3670
tp3671
Rp3672
tp3673
a(g44
g6
(g18
S'\x85\xf1\x19;'
p3674
tp3675
Rp3676
tp3677
a(g324
g6
(g18
S'\x0e\x9a\x05;'
p3678
tp3679
Rp3680
tp3681
asg73
g15
sa(dp3682
g2
S'../../../data/emanuela/activity-recognition/images/NTCIR-Lifelog-256/u1/2015-03-16/b00002490_21i6bq_20150316_163434e.jpg'
p3683
sg4
(lp3684
(g324
g6
(g18
S'X\x7f\x0f?'
p3685
tp3686
Rp3687
tp3688
a(g336
g6
(g18
S'\xeb\xbb6>'
p3689
tp3690
Rp3691
tp3692
a(g127
g6
(g18
S'\x1dh\x8f='
p3693
tp3694
Rp3695
tp3696
a(g147
g6
(g18
S'7\xa2\x8a='
p3697
tp3698
Rp3699
tp3700
a(g56
g6
(g18
S'\xd0\x98\xc8<'
p3701
tp3702
Rp3703
tp3704
asg73
g15
sa(dp3705
g2
S'../../../data/emanuela/activity-recognition/images/NTCIR-Lifelog-256/u1/2015-03-08/b00000649_21i6bq_20150308_160851e.jpg'
p3706
sg4
(lp3707
(g32
g6
(g18
S'0q\xb5>'
p3708
tp3709
Rp3710
tp3711
a(g15
g6
(g18
S'm\n\xae>'
p3712
tp3713
Rp3714
tp3715
a(g56
g6
(g18
S'\xf9\xb5\xa6='
p3716
tp3717
Rp3718
tp3719
a(g92
g6
(g18
S'\xd8;Y='
p3720
tp3721
Rp3722
tp3723
a(g274
g6
(g18
S'\xf7\x99;='
p3724
tp3725
Rp3726
tp3727
asg73
g15
sa(dp3728
g2
S'../../../data/emanuela/activity-recognition/images/NTCIR-Lifelog-256/u1/2015-03-17/b00001311_21i6bq_20150317_205911e.jpg'
p3729
sg4
(lp3730
(g15
g6
(g18
S'A\xb6N?'
p3731
tp3732
Rp3733
tp3734
a(g44
g6
(g18
S'=\xaf\x94='
p3735
tp3736
Rp3737
tp3738
a(g56
g6
(g18
S'\x97\x8f<='
p3739
tp3740
Rp3741
tp3742
a(g68
g6
(g18
S'ZK\xcb<'
p3743
tp3744
Rp3745
tp3746
a(g32
g6
(g18
S'ju6<'
p3747
tp3748
Rp3749
tp3750
asg73
g15
sa(dp3751
g2
S'../../../data/emanuela/activity-recognition/images/NTCIR-Lifelog-256/u1/2015-03-08/b00000597_21i6bq_20150308_153931e.jpg'
p3752
sg4
(lp3753
(g15
g6
(g18
S'\x9f\xbe\x01?'
p3754
tp3755
Rp3756
tp3757
a(g32
g6
(g18
S'"\xea\xdd>'
p3758
tp3759
Rp3760
tp3761
a(g92
g6
(g18
S'\xcd\x95,<'
p3762
tp3763
Rp3764
tp3765
a(g513
g6
(g18
S'xB\x0e<'
p3766
tp3767
Rp3768
tp3769
a(g56
g6
(g18
S'\x12B\xeb;'
p3770
tp3771
Rp3772
tp3773
asg73
g15
sa(dp3774
g2
S'../../../data/emanuela/activity-recognition/images/NTCIR-Lifelog-256/u1/2015-03-17/b00001470_21i6bq_20150317_222239e.jpg'
p3775
sg4
(lp3776
(g15
g6
(g18
S'Q\x7fE?'
p3777
tp3778
Rp3779
tp3780
a(g32
g6
(g18
S'\xb4\xee\x14>'
p3781
tp3782
Rp3783
tp3784
a(g56
g6
(g18
S'`5\xdd<'
p3785
tp3786
Rp3787
tp3788
a(g44
g6
(g18
S'q9\xd7<'
p3789
tp3790
Rp3791
tp3792
a(g166
g6
(g18
S'\xe5\xa4\xe7;'
p3793
tp3794
Rp3795
tp3796
asg73
g15
sa(dp3797
g2
S'../../../data/emanuela/activity-recognition/images/NTCIR-Lifelog-256/u1/2015-03-16/b00002545_21i6bq_20150316_170620e.jpg'
p3798
sg4
(lp3799
(g324
g6
(g18
S'\xea\x8fZ>'
p3800
tp3801
Rp3802
tp3803
a(g336
g6
(g18
S'=!3>'
p3804
tp3805
Rp3806
tp3807
a(g15
g6
(g18
S'\x9c\x08\x1f>'
p3808
tp3809
Rp3810
tp3811
a(g44
g6
(g18
S'\t4\xf5='
p3812
tp3813
Rp3814
tp3815
a(g68
g6
(g18
S'\xfbw\xab='
p3816
tp3817
Rp3818
tp3819
asg73
g15
sa(dp3820
g2
S'../../../data/emanuela/activity-recognition/images/NTCIR-Lifelog-256/u1/2015-03-16/b00002379_21i6bq_20150316_153155e.jpg'
p3821
sg4
(lp3822
(g274
g6
(g18
S'gm@?'
p3823
tp3824
Rp3825
tp3826
a(g324
g6
(g18
S'\x88E\x04>'
p3827
tp3828
Rp3829
tp3830
a(g56
g6
(g18
S'{\\\xeb<'
p3831
tp3832
Rp3833
tp3834
a(g32
g6
(g18
S'\xf3a\xc7<'
p3835
tp3836
Rp3837
tp3838
a(g68
g6
(g18
S'\xaa-\xa1<'
p3839
tp3840
Rp3841
tp3842
asg73
g15
sa(dp3843
g2
S'../../../data/emanuela/activity-recognition/images/NTCIR-Lifelog-256/u1/2015-03-16/b00002548_21i6bq_20150316_170734e.jpg'
p3844
sg4
(lp3845
(g115
g6
(g18
S'\x9bB\xcf>'
p3846
tp3847
Rp3848
tp3849
a(g56
g6
(g18
S'\xf6\xcd\x85>'
p3850
tp3851
Rp3852
tp3853
a(g15
g6
(g18
S'\xfe\\\xc9='
p3854
tp3855
Rp3856
tp3857
a(g127
g6
(g18
S'\x8d\xc5Q='
p3858
tp3859
Rp3860
tp3861
a(g147
g6
(g18
S'\xd8\xb3*='
p3862
tp3863
Rp3864
tp3865
asg73
g15
sa(dp3866
g2
S'../../../data/emanuela/activity-recognition/images/NTCIR-Lifelog-256/u1/2015-03-19/b00002528_21i6bq_20150319_172514e.jpg'
p3867
sg4
(lp3868
(g56
g6
(g18
S'*I[?'
p3869
tp3870
Rp3871
tp3872
a(g166
g6
(g18
S'{?~='
p3873
tp3874
Rp3875
tp3876
a(g274
g6
(g18
S'\xbd\xb7\xe3<'
p3877
tp3878
Rp3879
tp3880
a(g324
g6
(g18
S'Z\x89\x93<'
p3881
tp3882
Rp3883
tp3884
a(g44
g6
(g18
S'1\xde0<'
p3885
tp3886
Rp3887
tp3888
asg73
g15
sa(dp3889
g2
S'../../../data/emanuela/activity-recognition/images/NTCIR-Lifelog-256/u1/2015-03-16/b00002561_21i6bq_20150316_171042e.jpg'
p3890
sg4
(lp3891
(g32
g6
(g18
S'y\xe2\xc7>'
p3892
tp3893
Rp3894
tp3895
a(g147
g6
(g18
S'gf\n>'
p3896
tp3897
Rp3898
tp3899
a(g166
g6
(g18
S'\xd9\xfb\xdd='
p3900
tp3901
Rp3902
tp3903
a(g68
g6
(g18
S',\xfcd='
p3904
tp3905
Rp3906
tp3907
a(g92
g6
(g18
S'koM='
p3908
tp3909
Rp3910
tp3911
asg73
g15
sa(dp3912
g2
S'../../../data/emanuela/activity-recognition/images/NTCIR-Lifelog-256/u1/2015-03-19/b00002502_21i6bq_20150319_170815e.jpg'
p3913
sg4
(lp3914
(g274
g6
(g18
S'\xcd\xa4\x1e?'
p3915
tp3916
Rp3917
tp3918
a(g56
g6
(g18
S'\x91\xe8\x81>'
p3919
tp3920
Rp3921
tp3922
a(g513
g6
(g18
S'\xb6\xfe\xd2<'
p3923
tp3924
Rp3925
tp3926
a(g166
g6
(g18
S'\x14\xa5\xc1<'
p3927
tp3928
Rp3929
tp3930
a(g297
g6
(g18
S'<\xb6\x89<'
p3931
tp3932
Rp3933
tp3934
asg73
g15
sa(dp3935
g2
S'../../../data/emanuela/activity-recognition/images/NTCIR-Lifelog-256/u1/2015-03-17/b00001458_21i6bq_20150317_222033e.jpg'
p3936
sg4
(lp3937
(g15
g6
(g18
S'u(-?'
p3938
tp3939
Rp3940
tp3941
a(g166
g6
(g18
S'\x14{\x0c>'
p3942
tp3943
Rp3944
tp3945
a(g32
g6
(g18
S'\xb9\xbb\xaf='
p3946
tp3947
Rp3948
tp3949
a(g44
g6
(g18
S'\xf3\x14\xf5<'
p3950
tp3951
Rp3952
tp3953
a(g56
g6
(g18
S'\xb8\x8c\xa5<'
p3954
tp3955
Rp3956
tp3957
asg73
g15
sa(dp3958
g2
S'../../../data/emanuela/activity-recognition/images/NTCIR-Lifelog-256/u1/2015-03-08/b00000646_21i6bq_20150308_160707e.jpg'
p3959
sg4
(lp3960
(g32
g6
(g18
S'\t\xf6\x0f?'
p3961
tp3962
Rp3963
tp3964
a(g15
g6
(g18
S'\xa7_\x0f>'
p3965
tp3966
Rp3967
tp3968
a(g274
g6
(g18
S'\xdd\xc7\xe2='
p3969
tp3970
Rp3971
tp3972
a(g56
g6
(g18
S'\xf7\x91\x87='
p3973
tp3974
Rp3975
tp3976
a(g92
g6
(g18
S'\xcd\x01\x07='
p3977
tp3978
Rp3979
tp3980
asg73
g15
sa(dp3981
g2
S'../../../data/emanuela/activity-recognition/images/NTCIR-Lifelog-256/u1/2015-03-19/b00002340_21i6bq_20150319_151510e.jpg'
p3982
sg4
(lp3983
(g274
g6
(g18
S'4\x0b\xf5>'
p3984
tp3985
Rp3986
tp3987
a(g15
g6
(g18
S'\xed\xe2\x8f>'
p3988
tp3989
Rp3990
tp3991
a(g32
g6
(g18
S'\xf1\r\xfd='
p3992
tp3993
Rp3994
tp3995
a(g324
g6
(g18
S'\xf4\xae\x7f='
p3996
tp3997
Rp3998
tp3999
a(g56
g6
(g18
S'\x1e\x1d\xe8<'
p4000
tp4001
Rp4002
tp4003
asg73
g15
sa(dp4004
g2
S'../../../data/emanuela/activity-recognition/images/NTCIR-Lifelog-256/u1/2015-03-19/b00002338_21i6bq_20150319_151406e.jpg'
p4005
sg4
(lp4006
(g15
g6
(g18
S'\x8e\x82%?'
p4007
tp4008
Rp4009
tp4010
a(g32
g6
(g18
S'\xb8e\x14>'
p4011
tp4012
Rp4013
tp4014
a(g56
g6
(g18
S'F\xcf\x00>'
p4015
tp4016
Rp4017
tp4018
a(g274
g6
(g18
S'\xeb\xac\xcb<'
p4019
tp4020
Rp4021
tp4022
a(g324
g6
(g18
S'\xa4j\xc4<'
p4023
tp4024
Rp4025
tp4026
asg73
g15
sa(dp4027
g2
S'../../../data/emanuela/activity-recognition/images/NTCIR-Lifelog-256/u1/2015-03-19/b00002142_21i6bq_20150319_130130e.jpg'
p4028
sg4
(lp4029
(g15
g6
(g18
S'!\xb6~?'
p4030
tp4031
Rp4032
tp4033
a(g44
g6
(g18
S'\xb5\xd55;'
p4034
tp4035
Rp4036
tp4037
a(g32
g6
(g18
S'\xfe]\xa1:'
p4038
tp4039
Rp4040
tp4041
a(g56
g6
(g18
S'\xcf\x1ab:'
p4042
tp4043
Rp4044
tp4045
a(g68
g6
(g18
S'o\x1d\xee8'
p4046
tp4047
Rp4048
tp4049
asg73
g15
sa(dp4050
g2
S'../../../data/emanuela/activity-recognition/images/NTCIR-Lifelog-256/u1/2015-03-17/b00001395_21i6bq_20150317_214742e.jpg'
p4051
sg4
(lp4052
(g297
g6
(g18
S'\xa8\xe2\xa5>'
p4053
tp4054
Rp4055
tp4056
a(g15
g6
(g18
S"V')>"
p4057
tp4058
Rp4059
tp4060
a(g56
g6
(g18
S'{\xc6\x0e>'
p4061
tp4062
Rp4063
tp4064
a(g513
g6
(g18
S'\xcf$\t>'
p4065
tp4066
Rp4067
tp4068
a(g32
g6
(g18
S'\xfbz\xc9='
p4069
tp4070
Rp4071
tp4072
asg73
g15
sa(dp4073
g2
S'../../../data/emanuela/activity-recognition/images/NTCIR-Lifelog-256/u1/2015-03-17/b00001374_21i6bq_20150317_213501e.jpg'
p4074
sg4
(lp4075
(g15
g6
(g18
S'u\xf3[?'
p4076
tp4077
Rp4078
tp4079
a(g32
g6
(g18
S'"\xf6\xcc='
p4080
tp4081
Rp4082
tp4083
a(g44
g6
(g18
S'"\xf3[<'
p4084
tp4085
Rp4086
tp4087
a(g92
g6
(g18
S'\x15J*<'
p4088
tp4089
Rp4090
tp4091
a(g166
g6
(g18
S'wA&<'
p4092
tp4093
Rp4094
tp4095
asg73
g15
sa(dp4096
g2
S'../../../data/emanuela/activity-recognition/images/NTCIR-Lifelog-256/u1/2015-03-16/b00002468_21i6bq_20150316_162216e.jpg'
p4097
sg4
(lp4098
(g15
g6
(g18
S'\xbbJ\\>'
p4099
tp4100
Rp4101
tp4102
a(g56
g6
(g18
S'\xa4)9>'
p4103
tp4104
Rp4105
tp4106
a(g44
g6
(g18
S'_\x8a\x0f>'
p4107
tp4108
Rp4109
tp4110
a(g324
g6
(g18
S'M5\xf7='
p4111
tp4112
Rp4113
tp4114
a(g32
g6
(g18
S'\xd9\x02\xca='
p4115
tp4116
Rp4117
tp4118
asg73
g15
sa(dp4119
g2
S'../../../data/emanuela/activity-recognition/images/NTCIR-Lifelog-256/u1/2015-03-16/b00002476_21i6bq_20150316_162638e.jpg'
p4120
sg4
(lp4121
(g15
g6
(g18
S'p\x9eh>'
p4122
tp4123
Rp4124
tp4125
a(g324
g6
(g18
S'\x81u->'
p4126
tp4127
Rp4128
tp4129
a(g274
g6
(g18
S'Z\x15\xd7='
p4130
tp4131
Rp4132
tp4133
a(g56
g6
(g18
S'V{\xc8='
p4134
tp4135
Rp4136
tp4137
a(g336
g6
(g18
S'\xa8\xae\xb3='
p4138
tp4139
Rp4140
tp4141
asg73
g15
sa(dp4142
g2
S'../../../data/emanuela/activity-recognition/images/NTCIR-Lifelog-256/u1/2015-03-19/b00002486_21i6bq_20150319_165830e.jpg'
p4143
sg4
(lp4144
(g166
g6
(g18
S'\xd8\xd8t?'
p4145
tp4146
Rp4147
tp4148
a(g44
g6
(g18
S'l\xfdw<'
p4149
tp4150
Rp4151
tp4152
a(g56
g6
(g18
S'\xd5\xfbN<'
p4153
tp4154
Rp4155
tp4156
a(g274
g6
(g18
S'5J\x07<'
p4157
tp4158
Rp4159
tp4160
a(g1035
g6
(g18
S'1\xda\xa8:'
p4161
tp4162
Rp4163
tp4164
asg73
g15
sa(dp4165
g2
S'../../../data/emanuela/activity-recognition/images/NTCIR-Lifelog-256/u1/2015-03-17/b00001441_21i6bq_20150317_221052e.jpg'
p4166
sg4
(lp4167
(g166
g6
(g18
S'\xc7\xa3B?'
p4168
tp4169
Rp4170
tp4171
a(g32
g6
(g18
S']$G='
p4172
tp4173
Rp4174
tp4175
a(g15
g6
(g18
S')\xb3@='
p4176
tp4177
Rp4178
tp4179
a(g44
g6
(g18
S'\xba%(='
p4180
tp4181
Rp4182
tp4183
a(g297
g6
(g18
S'\x13\xfa&='
p4184
tp4185
Rp4186
tp4187
asg73
g15
sa(dp4188
g2
S'../../../data/emanuela/activity-recognition/images/NTCIR-Lifelog-256/u1/2015-03-19/b00002500_21i6bq_20150319_170708e.jpg'
p4189
sg4
(lp4190
(g274
g6
(g18
S'3,\x14?'
p4191
tp4192
Rp4193
tp4194
a(g56
g6
(g18
S'-\xb8\x91>'
p4195
tp4196
Rp4197
tp4198
a(g166
g6
(g18
S'\xab\xb8\x12='
p4199
tp4200
Rp4201
tp4202
a(g513
g6
(g18
S'U\x1d\r='
p4203
tp4204
Rp4205
tp4206
a(g44
g6
(g18
S'\xe5\xe8g<'
p4207
tp4208
Rp4209
tp4210
asg73
g15
sa(dp4211
g2
S'../../../data/emanuela/activity-recognition/images/NTCIR-Lifelog-256/u1/2015-03-17/b00001343_21i6bq_20150317_211710e.jpg'
p4212
sg4
(lp4213
(g15
g6
(g18
S'd//?'
p4214
tp4215
Rp4216
tp4217
a(g166
g6
(g18
S'O\x9b\xac='
p4218
tp4219
Rp4220
tp4221
a(g68
g6
(g18
S'\x00\x9d\x8d='
p4222
tp4223
Rp4224
tp4225
a(g32
g6
(g18
S'3\x0c`='
p4226
tp4227
Rp4228
tp4229
a(g56
g6
(g18
S'\xf9\xde\xeb<'
p4230
tp4231
Rp4232
tp4233
asg73
g15
sa(dp4234
g2
S'../../../data/emanuela/activity-recognition/images/NTCIR-Lifelog-256/u1/2015-03-17/b00001340_21i6bq_20150317_211534e.jpg'
p4235
sg4
(lp4236
(g15
g6
(g18
S'v\xaf\x12?'
p4237
tp4238
Rp4239
tp4240
a(g56
g6
(g18
S'o\xf1\xe9='
p4241
tp4242
Rp4243
tp4244
a(g32
g6
(g18
S'h|\xe3='
p4245
tp4246
Rp4247
tp4248
a(g166
g6
(g18
S':D1='
p4249
tp4250
Rp4251
tp4252
a(g44
g6
(g18
S'f\x82-='
p4253
tp4254
Rp4255
tp4256
asg73
g15
sa(dp4257
g2
S'../../../data/emanuela/activity-recognition/images/NTCIR-Lifelog-256/u1/2015-03-17/b00001319_21i6bq_20150317_210233e.jpg'
p4258
sg4
(lp4259
(g44
g6
(g18
S'5\x1a\x00?'
p4260
tp4261
Rp4262
tp4263
a(g15
g6
(g18
S'ZEf>'
p4264
tp4265
Rp4266
tp4267
a(g127
g6
(g18
S'\x9d\xfb\x88='
p4268
tp4269
Rp4270
tp4271
a(g324
g6
(g18
S'{\x04\x1e='
p4272
tp4273
Rp4274
tp4275
a(g56
g6
(g18
S'\xa9&\xe1<'
p4276
tp4277
Rp4278
tp4279
asg73
g15
sa(dp4280
g2
S'../../../data/emanuela/activity-recognition/images/NTCIR-Lifelog-256/u1/2015-03-16/b00002487_21i6bq_20150316_163258e.jpg'
p4281
sg4
(lp4282
(g324
g6
(g18
S'\xf2\x1c\x91>'
p4283
tp4284
Rp4285
tp4286
a(g15
g6
(g18
S'\x1c\x17$>'
p4287
tp4288
Rp4289
tp4290
a(g56
g6
(g18
S'\x9e \t>'
p4291
tp4292
Rp4293
tp4294
a(g336
g6
(g18
S'\xb4\xca\xbc='
p4295
tp4296
Rp4297
tp4298
a(g274
g6
(g18
S'-\xaf\xb3='
p4299
tp4300
Rp4301
tp4302
asg73
g15
sa(dp4303
g2
S'../../../data/emanuela/activity-recognition/images/NTCIR-Lifelog-256/u1/2015-03-16/b00002478_21i6bq_20150316_162740e.jpg'
p4304
sg4
(lp4305
(g15
g6
(g18
S'x\x96D>'
p4306
tp4307
Rp4308
tp4309
a(g324
g6
(g18
S'\xcea=>'
p4310
tp4311
Rp4312
tp4313
a(g274
g6
(g18
S'!\xb5\x00>'
p4314
tp4315
Rp4316
tp4317
a(g44
g6
(g18
S'\xa0\xab\xe3='
p4318
tp4319
Rp4320
tp4321
a(g68
g6
(g18
S'\x16w\xd0='
p4322
tp4323
Rp4324
tp4325
asg73
g15
sa(dp4326
g2
S'../../../data/emanuela/activity-recognition/images/NTCIR-Lifelog-256/u1/2015-03-17/b00001389_21i6bq_20150317_214354e.jpg'
p4327
sg4
(lp4328
(g15
g6
(g18
S'\xaf\xee\x10?'
p4329
tp4330
Rp4331
tp4332
a(g56
g6
(g18
S'\xc9\xa29>'
p4333
tp4334
Rp4335
tp4336
a(g32
g6
(g18
S'I\x9f\x98='
p4337
tp4338
Rp4339
tp4340
a(g115
g6
(g18
S'\x87\x95&='
p4341
tp4342
Rp4343
tp4344
a(g166
g6
(g18
S'.\xc9\x03='
p4345
tp4346
Rp4347
tp4348
asg73
g15
sa(dp4349
g2
S'../../../data/emanuela/activity-recognition/images/NTCIR-Lifelog-256/u1/2015-03-17/b00001461_21i6bq_20150317_222228e.jpg'
p4350
sg4
(lp4351
(g15
g6
(g18
S'\xc5$e?'
p4352
tp4353
Rp4354
tp4355
a(g32
g6
(g18
S'\xe6\x894='
p4356
tp4357
Rp4358
tp4359
a(g56
g6
(g18
S'\xcf7\xad<'
p4360
tp4361
Rp4362
tp4363
a(g44
g6
(g18
S'\xe4.\x9a<'
p4364
tp4365
Rp4366
tp4367
a(g166
g6
(g18
S'\xc9,\xf8;'
p4368
tp4369
Rp4370
tp4371
asg73
g15
sa(dp4372
g2
S'../../../data/emanuela/activity-recognition/images/NTCIR-Lifelog-256/u1/2015-03-19/b00002490_21i6bq_20150319_170053e.jpg'
p4373
sg4
(lp4374
(g56
g6
(g18
S'\xcc\xdf\xee>'
p4375
tp4376
Rp4377
tp4378
a(g274
g6
(g18
S'/\x04\xcf>'
p4379
tp4380
Rp4381
tp4382
a(g166
g6
(g18
S'\x04\xcc\r='
p4383
tp4384
Rp4385
tp4386
a(g297
g6
(g18
S'L\xd9\xf0<'
p4387
tp4388
Rp4389
tp4390
a(g513
g6
(g18
S'\x12*\xda<'
p4391
tp4392
Rp4393
tp4394
asg73
g15
sa(dp4395
g2
S'../../../data/emanuela/activity-recognition/images/NTCIR-Lifelog-256/u1/2015-03-19/b00002510_21i6bq_20150319_171340e.jpg'
p4396
sg4
(lp4397
(g56
g6
(g18
S'6~\xdb>'
p4398
tp4399
Rp4400
tp4401
a(g274
g6
(g18
S'\x94\xa7\xcf>'
p4402
tp4403
Rp4404
tp4405
a(g166
g6
(g18
S'\xe1\\R='
p4406
tp4407
Rp4408
tp4409
a(g297
g6
(g18
S'\x1f[\xc4<'
p4410
tp4411
Rp4412
tp4413
a(g513
g6
(g18
S'\xa9\x15\xaa<'
p4414
tp4415
Rp4416
tp4417
asg73
g15
sa(dp4418
g2
S'../../../data/emanuela/activity-recognition/images/NTCIR-Lifelog-256/u1/2015-03-19/b00002230_21i6bq_20150319_141046e.jpg'
p4419
sg4
(lp4420
(g15
g6
(g18
S'\xe8l\x13?'
p4421
tp4422
Rp4423
tp4424
a(g32
g6
(g18
S'Z\xc7,>'
p4425
tp4426
Rp4427
tp4428
a(g56
g6
(g18
S't\x98\x1c>'
p4429
tp4430
Rp4431
tp4432
a(g44
g6
(g18
S'\x15\xa7!='
p4433
tp4434
Rp4435
tp4436
a(g147
g6
(g18
S'\xb3GP<'
p4437
tp4438
Rp4439
tp4440
asg73
g15
sa(dp4441
g2
S'../../../data/emanuela/activity-recognition/images/NTCIR-Lifelog-256/u1/2015-03-16/b00002546_21i6bq_20150316_170700e.jpg'
p4442
sg4
(lp4443
(g68
g6
(g18
S'%\xa1k>'
p4444
tp4445
Rp4446
tp4447
a(g15
g6
(g18
S'\xa7\xcaZ>'
p4448
tp4449
Rp4450
tp4451
a(g324
g6
(g18
S'\x9d\x88+>'
p4452
tp4453
Rp4454
tp4455
a(g336
g6
(g18
S'\x9b\x18\x89='
p4456
tp4457
Rp4458
tp4459
a(g147
g6
(g18
S'\xf3\xef\x84='
p4460
tp4461
Rp4462
tp4463
asg73
g15
sa(dp4464
g2
S'../../../data/emanuela/activity-recognition/images/NTCIR-Lifelog-256/u1/2015-03-16/b00002393_21i6bq_20150316_153626e.jpg'
p4465
sg4
(lp4466
(g166
g6
(g18
S'\xe4x >'
p4467
tp4468
Rp4469
tp4470
a(g324
g6
(g18
S'\x0c\xe6\x1d>'
p4471
tp4472
Rp4473
tp4474
a(g147
g6
(g18
S',\x85\xe6='
p4475
tp4476
Rp4477
tp4478
a(g15
g6
(g18
S'\xa1\n\xc7='
p4479
tp4480
Rp4481
tp4482
a(g56
g6
(g18
S'\x00\xaa\xb1='
p4483
tp4484
Rp4485
tp4486
asg73
g15
sa(dp4487
g2
S'../../../data/emanuela/activity-recognition/images/NTCIR-Lifelog-256/u1/2015-03-17/b00001408_21i6bq_20150317_215534e.jpg'
p4488
sg4
(lp4489
(g15
g6
(g18
S'g]\x0b?'
p4490
tp4491
Rp4492
tp4493
a(g32
g6
(g18
S'\x13\xec(>'
p4494
tp4495
Rp4496
tp4497
a(g166
g6
(g18
S'\xc5\xee\xe0='
p4498
tp4499
Rp4500
tp4501
a(g56
g6
(g18
S'\x8em\x04='
p4502
tp4503
Rp4504
tp4505
a(g92
g6
(g18
S'h\xa1\x01='
p4506
tp4507
Rp4508
tp4509
asg73
g15
sa(dp4510
g2
S'../../../data/emanuela/activity-recognition/images/NTCIR-Lifelog-256/u1/2015-03-08/b00000657_21i6bq_20150308_161314e.jpg'
p4511
sg4
(lp4512
(g15
g6
(g18
S'E\xe4!?'
p4513
tp4514
Rp4515
tp4516
a(g32
g6
(g18
S'\xdb\xd7z>'
p4517
tp4518
Rp4519
tp4520
a(g68
g6
(g18
S'\xd9\x98\xcf<'
p4521
tp4522
Rp4523
tp4524
a(g324
g6
(g18
S'\xed\x05\xbd<'
p4525
tp4526
Rp4527
tp4528
a(g274
g6
(g18
S'\xef\xdf\x97<'
p4529
tp4530
Rp4531
tp4532
asg73
g15
sa(dp4533
g2
S'../../../data/emanuela/activity-recognition/images/NTCIR-Lifelog-256/u1/2015-03-16/b00002395_21i6bq_20150316_153740e.jpg'
p4534
sg4
(lp4535
(g147
g6
(g18
S'\xb2lC>'
p4536
tp4537
Rp4538
tp4539
a(g32
g6
(g18
S'\xaf\xd7,>'
p4540
tp4541
Rp4542
tp4543
a(g92
g6
(g18
S'qr\xcd='
p4544
tp4545
Rp4546
tp4547
a(g166
g6
(g18
S'\x03\x12\xb7='
p4548
tp4549
Rp4550
tp4551
a(g324
g6
(g18
S'\x0b\xb7\xa2='
p4552
tp4553
Rp4554
tp4555
asg73
g15
sa(dp4556
g2
S'../../../data/emanuela/activity-recognition/images/NTCIR-Lifelog-256/u1/2015-03-19/b00002228_21i6bq_20150319_141044e.jpg'
p4557
sg4
(lp4558
(g15
g6
(g18
S'\xf4kj?'
p4559
tp4560
Rp4561
tp4562
a(g56
g6
(g18
S'\x8e\x10\x06='
p4563
tp4564
Rp4565
tp4566
a(g44
g6
(g18
S'X\x96\xd5<'
p4567
tp4568
Rp4569
tp4570
a(g115
g6
(g18
S'\x14y\xef;'
p4571
tp4572
Rp4573
tp4574
a(g32
g6
(g18
S'r$\xbf;'
p4575
tp4576
Rp4577
tp4578
asg73
g15
sa(dp4579
g2
S'../../../data/emanuela/activity-recognition/images/NTCIR-Lifelog-256/u1/2015-03-17/b00001387_21i6bq_20150317_214244e.jpg'
p4580
sg4
(lp4581
(g15
g6
(g18
S'i\xaf\xcf>'
p4582
tp4583
Rp4584
tp4585
a(g32
g6
(g18
S'2\x9fx>'
p4586
tp4587
Rp4588
tp4589
a(g166
g6
(g18
S'\xc1V@>'
p4590
tp4591
Rp4592
tp4593
a(g297
g6
(g18
S'<\xc5\x16='
p4594
tp4595
Rp4596
tp4597
a(g56
g6
(g18
S'\xf9\x91\x15='
p4598
tp4599
Rp4600
tp4601
asg73
g15
sa(dp4602
g2
S'../../../data/emanuela/activity-recognition/images/NTCIR-Lifelog-256/u1/2015-03-19/b00002524_21i6bq_20150319_172300e.jpg'
p4603
sg4
(lp4604
(g56
g6
(g18
S'\xa1\xc4X?'
p4605
tp4606
Rp4607
tp4608
a(g274
g6
(g18
S'\xa9\xcc\xb3='
p4609
tp4610
Rp4611
tp4612
a(g297
g6
(g18
S'xt\x0b='
p4613
tp4614
Rp4615
tp4616
a(g166
g6
(g18
S'\x0e%\xb5;'
p4617
tp4618
Rp4619
tp4620
a(g513
g6
(g18
S'\xb0\x17\xa4;'
p4621
tp4622
Rp4623
tp4624
asg73
g15
sa(dp4625
g2
S'../../../data/emanuela/activity-recognition/images/NTCIR-Lifelog-256/u1/2015-03-19/b00002342_21i6bq_20150319_151618e.jpg'
p4626
sg4
(lp4627
(g166
g6
(g18
S'\xb4&\xfa>'
p4628
tp4629
Rp4630
tp4631
a(g44
g6
(g18
S'\x1f:y>'
p4632
tp4633
Rp4634
tp4635
a(g56
g6
(g18
S'\xb0\xbe\xa1='
p4636
tp4637
Rp4638
tp4639
a(g15
g6
(g18
S'\x87\x97\x94='
p4640
tp4641
Rp4642
tp4643
a(g32
g6
(g18
S'\xf5\xbdp='
p4644
tp4645
Rp4646
tp4647
asg73
g15
sa(dp4648
g2
S'../../../data/emanuela/activity-recognition/images/NTCIR-Lifelog-256/u1/2015-03-17/b00001326_21i6bq_20150317_210708e.jpg'
p4649
sg4
(lp4650
(g166
g6
(g18
S'\x9e\x1e\x81>'
p4651
tp4652
Rp4653
tp4654
a(g274
g6
(g18
S'\xc1\x86P>'
p4655
tp4656
Rp4657
tp4658
a(g2454
g6
(g18
S'.\x84\xbf='
p4659
tp4660
Rp4661
tp4662
a(g44
g6
(g18
S'\xf8\x12\xb9='
p4663
tp4664
Rp4665
tp4666
a(g297
g6
(g18
S'_u\xa1='
p4667
tp4668
Rp4669
tp4670
asg73
g15
sa(dp4671
g2
S'../../../data/emanuela/activity-recognition/images/NTCIR-Lifelog-256/u1/2015-03-19/b00002478_21i6bq_20150319_165351e.jpg'
p4672
sg4
(lp4673
(g166
g6
(g18
S'-\x0cT?'
p4674
tp4675
Rp4676
tp4677
a(g56
g6
(g18
S'\x84]\xa3='
p4678
tp4679
Rp4680
tp4681
a(g44
g6
(g18
S'A\\\xe8<'
p4682
tp4683
Rp4684
tp4685
a(g15
g6
(g18
S'E\xf8\\<'
p4686
tp4687
Rp4688
tp4689
a(g32
g6
(g18
S'(\xce\x1e<'
p4690
tp4691
Rp4692
tp4693
asg73
g15
sa(dp4694
g2
S'../../../data/emanuela/activity-recognition/images/NTCIR-Lifelog-256/u1/2015-03-19/b00002234_21i6bq_20150319_141049e.jpg'
p4695
sg4
(lp4696
(g15
g6
(g18
S'P\x7fe?'
p4697
tp4698
Rp4699
tp4700
a(g56
g6
(g18
S'\x8f\x9b\x82='
p4701
tp4702
Rp4703
tp4704
a(g44
g6
(g18
S'@_\xe7<'
p4705
tp4706
Rp4707
tp4708
a(g32
g6
(g18
S'\x1dc\xea;'
p4709
tp4710
Rp4711
tp4712
a(g274
g6
(g18
S'/\xa0T:'
p4713
tp4714
Rp4715
tp4716
asg73
g15
sa(dp4717
g2
S'../../../data/emanuela/activity-recognition/images/NTCIR-Lifelog-256/u1/2015-03-16/b00002550_21i6bq_20150316_170735e.jpg'
p4718
sg4
(lp4719
(g115
g6
(g18
S'\x9eD\x03?'
p4720
tp4721
Rp4722
tp4723
a(g56
g6
(g18
S'\xe7z\x04>'
p4724
tp4725
Rp4726
tp4727
a(g127
g6
(g18
S'\xc5b\xf3='
p4728
tp4729
Rp4730
tp4731
a(g15
g6
(g18
S'*8\xbf='
p4732
tp4733
Rp4734
tp4735
a(g2128
g6
(g18
S'o\x87Z='
p4736
tp4737
Rp4738
tp4739
asg73
g15
sa(dp4740
g2
S'../../../data/emanuela/activity-recognition/images/NTCIR-Lifelog-256/u1/2015-03-17/b00001467_21i6bq_20150317_222232e.jpg'
p4741
sg4
(lp4742
(g15
g6
(g18
S'\x13\xfbI?'
p4743
tp4744
Rp4745
tp4746
a(g32
g6
(g18
S'\x02P\xb1='
p4747
tp4748
Rp4749
tp4750
a(g56
g6
(g18
S'\x11\n\x18='
p4751
tp4752
Rp4753
tp4754
a(g166
g6
(g18
S'a\xc6\xda<'
p4755
tp4756
Rp4757
tp4758
a(g44
g6
(g18
S'\xdf\xca\xa9<'
p4759
tp4760
Rp4761
tp4762
asg73
g15
sa(dp4763
g2
S'../../../data/emanuela/activity-recognition/images/NTCIR-Lifelog-256/u1/2015-03-16/b00002389_21i6bq_20150316_153404e.jpg'
p4764
sg4
(lp4765
(g324
g6
(g18
S'\xcd\x15\x90>'
p4766
tp4767
Rp4768
tp4769
a(g15
g6
(g18
S'\x90\xafa>'
p4770
tp4771
Rp4772
tp4773
a(g336
g6
(g18
S'\xfcF\xe3='
p4774
tp4775
Rp4776
tp4777
a(g56
g6
(g18
S'\x9a\x08\xb1='
p4778
tp4779
Rp4780
tp4781
a(g147
g6
(g18
S'\x87$\x94='
p4782
tp4783
Rp4784
tp4785
asg73
g15
sa(dp4786
g2
S'../../../data/emanuela/activity-recognition/images/NTCIR-Lifelog-256/u1/2015-03-19/b00002462_21i6bq_20150319_164427e.jpg'
p4787
sg4
(lp4788
(g166
g6
(g18
S'\xac\xc0\xd5>'
p4789
tp4790
Rp4791
tp4792
a(g56
g6
(g18
S'\x14vq>'
p4793
tp4794
Rp4795
tp4796
a(g274
g6
(g18
S'b\xe0\xd1='
p4797
tp4798
Rp4799
tp4800
a(g32
g6
(g18
S'rS\xc9='
p4801
tp4802
Rp4803
tp4804
a(g513
g6
(g18
S'\xcf\xcc\xd6<'
p4805
tp4806
Rp4807
tp4808
asg73
g15
sa(dp4809
g2
S'../../../data/emanuela/activity-recognition/images/NTCIR-Lifelog-256/u1/2015-03-16/b00002377_21i6bq_20150316_153153e.jpg'
p4810
sg4
(lp4811
(g274
g6
(g18
S'%\xde9?'
p4812
tp4813
Rp4814
tp4815
a(g324
g6
(g18
S'=&\x0e>'
p4816
tp4817
Rp4818
tp4819
a(g56
g6
(g18
S'^\xb5\xf7<'
p4820
tp4821
Rp4822
tp4823
a(g32
g6
(g18
S'\xf4\x1f\xc9<'
p4824
tp4825
Rp4826
tp4827
a(g68
g6
(g18
S'!\x16\x98<'
p4828
tp4829
Rp4830
tp4831
asg73
g15
sa(dp4832
g2
S'../../../data/emanuela/activity-recognition/images/NTCIR-Lifelog-256/u1/2015-03-17/b00001402_21i6bq_20150317_215153e.jpg'
p4833
sg4
(lp4834
(g15
g6
(g18
S'rK\x1d?'
p4835
tp4836
Rp4837
tp4838
a(g32
g6
(g18
S"'z\x08>"
p4839
tp4840
Rp4841
tp4842
a(g166
g6
(g18
S'\x1d\x89\x97='
p4843
tp4844
Rp4845
tp4846
a(g56
g6
(g18
S'r_\x18='
p4847
tp4848
Rp4849
tp4850
a(g44
g6
(g18
S'\xe8\xe3\xec<'
p4851
tp4852
Rp4853
tp4854
asg73
g15
sa(dp4855
g2
S'../../../data/emanuela/activity-recognition/images/NTCIR-Lifelog-256/u1/2015-03-17/b00001320_21i6bq_20150317_210314e.jpg'
p4856
sg4
(lp4857
(g15
g6
(g18
S'\x98\xfd-?'
p4858
tp4859
Rp4860
tp4861
a(g166
g6
(g18
S'\xcfX\x12>'
p4862
tp4863
Rp4864
tp4865
a(g44
g6
(g18
S'\xf0S\xbf='
p4866
tp4867
Rp4868
tp4869
a(g32
g6
(g18
S'\x83e\x9e<'
p4870
tp4871
Rp4872
tp4873
a(g92
g6
(g18
S'\xa5-\x8a<'
p4874
tp4875
Rp4876
tp4877
asg73
g15
sa(dp4878
g2
S'../../../data/emanuela/activity-recognition/images/NTCIR-Lifelog-256/u1/2015-03-19/b00002131_21i6bq_20150319_125543e.jpg'
p4879
sg4
(lp4880
(g15
g6
(g18
S'\xdc)~?'
p4881
tp4882
Rp4883
tp4884
a(g32
g6
(g18
S';M\x8f;'
p4885
tp4886
Rp4887
tp4888
a(g56
g6
(g18
S'\xe1!\xb1:'
p4889
tp4890
Rp4891
tp4892
a(g44
g6
(g18
S'\r.\x80:'
p4893
tp4894
Rp4895
tp4896
a(g92
g6
(g18
S'\x83wE9'
p4897
tp4898
Rp4899
tp4900
asg73
g15
sa(dp4901
g2
S'../../../data/emanuela/activity-recognition/images/NTCIR-Lifelog-256/u1/2015-03-17/b00001477_21i6bq_20150317_222703e.jpg'
p4902
sg4
(lp4903
(g15
g6
(g18
S'X\x1bG?'
p4904
tp4905
Rp4906
tp4907
a(g32
g6
(g18
S'o9\x9f='
p4908
tp4909
Rp4910
tp4911
a(g166
g6
(g18
S'Z0I='
p4912
tp4913
Rp4914
tp4915
a(g56
g6
(g18
S'\x11\x01\x15='
p4916
tp4917
Rp4918
tp4919
a(g44
g6
(g18
S'P~Q<'
p4920
tp4921
Rp4922
tp4923
asg73
g15
sa(dp4924
g2
S'../../../data/emanuela/activity-recognition/images/NTCIR-Lifelog-256/u1/2015-03-19/b00002128_21i6bq_20150319_125353e.jpg'
p4925
sg4
(lp4926
(g15
g6
(g18
S',I|?'
p4927
tp4928
Rp4929
tp4930
a(g32
g6
(g18
S'(\x9b\x0c<'
p4931
tp4932
Rp4933
tp4934
a(g56
g6
(g18
S'\x9f\xbe2;'
p4935
tp4936
Rp4937
tp4938
a(g44
g6
(g18
S'i\xa9!;'
p4939
tp4940
Rp4941
tp4942
a(g92
g6
(g18
S'\xa9\x18\x9e9'
p4943
tp4944
Rp4945
tp4946
asg73
g15
sa(dp4947
g2
S'../../../data/emanuela/activity-recognition/images/NTCIR-Lifelog-256/u1/2015-03-17/b00001344_21i6bq_20150317_211746e.jpg'
p4948
sg4
(lp4949
(g15
g6
(g18
S'>\xea,?'
p4950
tp4951
Rp4952
tp4953
a(g166
g6
(g18
S'C\xe1\xb0='
p4954
tp4955
Rp4956
tp4957
a(g32
g6
(g18
S'\x84Dp='
p4958
tp4959
Rp4960
tp4961
a(g68
g6
(g18
S'}\rp='
p4962
tp4963
Rp4964
tp4965
a(g44
g6
(g18
S'\x0f\x13%='
p4966
tp4967
Rp4968
tp4969
asg73
g15
sa(dp4970
g2
S'../../../data/emanuela/activity-recognition/images/NTCIR-Lifelog-256/u1/2015-03-08/b00000661_21i6bq_20150308_161548e.jpg'
p4971
sg4
(lp4972
(g15
g6
(g18
S'\xe4\x16\x1d?'
p4973
tp4974
Rp4975
tp4976
a(g32
g6
(g18
S'\x17E\x83>'
p4977
tp4978
Rp4979
tp4980
a(g68
g6
(g18
S'\xcfD\xaa='
p4981
tp4982
Rp4983
tp4984
a(g44
g6
(g18
S'\xc9\xf1]<'
p4985
tp4986
Rp4987
tp4988
a(g92
g6
(g18
S'\xac\x18\x1e<'
p4989
tp4990
Rp4991
tp4992
asg73
g15
sa(dp4993
g2
S'../../../data/emanuela/activity-recognition/images/NTCIR-Lifelog-256/u1/2015-03-19/b00002534_21i6bq_20150319_172831e.jpg'
p4994
sg4
(lp4995
(g56
g6
(g18
S'a\x87L?'
p4996
tp4997
Rp4998
tp4999
a(g274
g6
(g18
S'Miz='
p5000
tp5001
Rp5002
tp5003
a(g324
g6
(g18
S'\x16I!='
p5004
tp5005
Rp5006
tp5007
a(g166
g6
(g18
S'\xe26\x12='
p5008
tp5009
Rp5010
tp5011
a(g44
g6
(g18
S'-o\x94<'
p5012
tp5013
Rp5014
tp5015
asg73
g15
sa(dp5016
g2
S'../../../data/emanuela/activity-recognition/images/NTCIR-Lifelog-256/u1/2015-03-17/b00001443_21i6bq_20150317_221204e.jpg'
p5017
sg4
(lp5018
(g15
g6
(g18
S'\x12\x1c\x16?'
p5019
tp5020
Rp5021
tp5022
a(g32
g6
(g18
S'\x06\xac\xf8='
p5023
tp5024
Rp5025
tp5026
a(g56
g6
(g18
S'\xd2\x15\xd1='
p5027
tp5028
Rp5029
tp5030
a(g115
g6
(g18
S'\xb0Es='
p5031
tp5032
Rp5033
tp5034
a(g44
g6
(g18
S'\xceLV='
p5035
tp5036
Rp5037
tp5038
asg73
g15
sa(dp5039
g2
S'../../../data/emanuela/activity-recognition/images/NTCIR-Lifelog-256/u1/2015-03-16/b00002403_21i6bq_20150316_154222e.jpg'
p5040
sg4
(lp5041
(g68
g6
(g18
S'\x06\xceQ>'
p5042
tp5043
Rp5044
tp5045
a(g127
g6
(g18
S'\x16\xe0\x1c>'
p5046
tp5047
Rp5048
tp5049
a(g15
g6
(g18
S'\x9e\xe2\x0c>'
p5050
tp5051
Rp5052
tp5053
a(g274
g6
(g18
S'Bx\x96='
p5054
tp5055
Rp5056
tp5057
a(g147
g6
(g18
S'\xd8\x9b\x8b='
p5058
tp5059
Rp5060
tp5061
asg73
g15
sa(dp5062
g2
S'../../../data/emanuela/activity-recognition/images/NTCIR-Lifelog-256/u1/2015-03-17/b00001453_21i6bq_20150317_221746e.jpg'
p5063
sg4
(lp5064
(g15
g6
(g18
S'\x99\xec\xfb>'
p5065
tp5066
Rp5067
tp5068
a(g32
g6
(g18
S',\xe71>'
p5069
tp5070
Rp5071
tp5072
a(g56
g6
(g18
S'\xed\x98\xdf='
p5073
tp5074
Rp5075
tp5076
a(g166
g6
(g18
S'\t\xfa\x9c='
p5077
tp5078
Rp5079
tp5080
a(g44
g6
(g18
S'\x9a\xfe\xf6<'
p5081
tp5082
Rp5083
tp5084
asg73
g15
sa(dp5085
g2
S'../../../data/emanuela/activity-recognition/images/NTCIR-Lifelog-256/u1/2015-03-19/b00002456_21i6bq_20150319_164102e.jpg'
p5086
sg4
(lp5087
(g56
g6
(g18
S'\xbd\x1e\xac>'
p5088
tp5089
Rp5090
tp5091
a(g274
g6
(g18
S'\xe6\xaa\x96>'
p5092
tp5093
Rp5094
tp5095
a(g166
g6
(g18
S'\xa9 \r>'
p5096
tp5097
Rp5098
tp5099
a(g15
g6
(g18
S'\x08\x8c\xa3='
p5100
tp5101
Rp5102
tp5103
a(g44
g6
(g18
S'~|\x18='
p5104
tp5105
Rp5106
tp5107
asg73
g15
sa(dp5108
g2
S'../../../data/emanuela/activity-recognition/images/NTCIR-Lifelog-256/u1/2015-03-19/b00002506_21i6bq_20150319_171047e.jpg'
p5109
sg4
(lp5110
(g56
g6
(g18
S'\xeb\x14\xeb>'
p5111
tp5112
Rp5113
tp5114
a(g274
g6
(g18
S'n\xebs>'
p5115
tp5116
Rp5117
tp5118
a(g166
g6
(g18
S'\xb0\xb5<>'
p5119
tp5120
Rp5121
tp5122
a(g513
g6
(g18
S'O\x08\xc7<'
p5123
tp5124
Rp5125
tp5126
a(g15
g6
(g18
S'\xff;\xb9<'
p5127
tp5128
Rp5129
tp5130
asg73
g15
sa(dp5131
g2
S'../../../data/emanuela/activity-recognition/images/NTCIR-Lifelog-256/u1/2015-03-08/b00000601_21i6bq_20150308_154155e.jpg'
p5132
sg4
(lp5133
(g32
g6
(g18
S'\xdd\xc0\x07?'
p5134
tp5135
Rp5136
tp5137
a(g15
g6
(g18
S'\xf4R\xaa>'
p5138
tp5139
Rp5140
tp5141
a(g92
g6
(g18
S'\xfbNV='
p5142
tp5143
Rp5144
tp5145
a(g274
g6
(g18
S'O\x01\x13='
p5146
tp5147
Rp5148
tp5149
a(g147
g6
(g18
S'z\xab\x9f<'
p5150
tp5151
Rp5152
tp5153
asg73
g15
sa(dp5154
g2
S'../../../data/emanuela/activity-recognition/images/NTCIR-Lifelog-256/u1/2015-03-19/b00002444_21i6bq_20150319_163902e.jpg'
p5155
sg4
(lp5156
(g166
g6
(g18
S'|\x14_?'
p5157
tp5158
Rp5159
tp5160
a(g92
g6
(g18
S'p\x17Q='
p5161
tp5162
Rp5163
tp5164
a(g32
g6
(g18
S'\x1e<\x02='
p5165
tp5166
Rp5167
tp5168
a(g56
g6
(g18
S'\x04\x08\xb8<'
p5169
tp5170
Rp5171
tp5172
a(g15
g6
(g18
S'\xa7x\xe3;'
p5173
tp5174
Rp5175
tp5176
asg73
g15
sa(dp5177
g2
S'../../../data/emanuela/activity-recognition/images/NTCIR-Lifelog-256/u1/2015-03-19/b00002487_21i6bq_20150319_165904e.jpg'
p5178
sg4
(lp5179
(g166
g6
(g18
S'\xb4\xe1^?'
p5180
tp5181
Rp5182
tp5183
a(g56
g6
(g18
S'\xb2\xa7#='
p5184
tp5185
Rp5186
tp5187
a(g44
g6
(g18
S'`\xf9\x04='
p5188
tp5189
Rp5190
tp5191
a(g274
g6
(g18
S'R\n\xbf<'
p5192
tp5193
Rp5194
tp5195
a(g32
g6
(g18
S'\x16\x81\xee;'
p5196
tp5197
Rp5198
tp5199
asg73
g15
sa(dp5200
g2
S'../../../data/emanuela/activity-recognition/images/NTCIR-Lifelog-256/u1/2015-03-19/b00002344_21i6bq_20150319_151730e.jpg'
p5201
sg4
(lp5202
(g44
g6
(g18
S'E\x93\x82>'
p5203
tp5204
Rp5205
tp5206
a(g15
g6
(g18
S'\x8a\xd5D>'
p5207
tp5208
Rp5209
tp5210
a(g274
g6
(g18
S'\xcf\xa6%>'
p5211
tp5212
Rp5213
tp5214
a(g56
g6
(g18
S'}\xbd\xf7='
p5215
tp5216
Rp5217
tp5218
a(g32
g6
(g18
S'\x01\x82\xba='
p5219
tp5220
Rp5221
tp5222
asg73
g15
sa(dp5223
g2
S'../../../data/emanuela/activity-recognition/images/NTCIR-Lifelog-256/u1/2015-03-17/b00001335_21i6bq_20150317_211236e.jpg'
p5224
sg4
(lp5225
(g15
g6
(g18
S'\xb18\xd0>'
p5226
tp5227
Rp5228
tp5229
a(g166
g6
(g18
S'p\xdc\xbd>'
p5230
tp5231
Rp5232
tp5233
a(g32
g6
(g18
S'\x04D\xd4='
p5234
tp5235
Rp5236
tp5237
a(g56
g6
(g18
S'\xde\x1dJ='
p5238
tp5239
Rp5240
tp5241
a(g44
g6
(g18
S'\x80O\xc8<'
p5242
tp5243
Rp5244
tp5245
asg73
g15
sa(dp5246
g2
S'../../../data/emanuela/activity-recognition/images/NTCIR-Lifelog-256/u1/2015-03-19/b00002225_21i6bq_20150319_140908e.jpg'
p5247
sg4
(lp5248
(g56
g6
(g18
S'\xd0\x1d\t?'
p5249
tp5250
Rp5251
tp5252
a(g15
g6
(g18
S'\xf1\xe3\x03>'
p5253
tp5254
Rp5255
tp5256
a(g32
g6
(g18
S'\x08\x97\xe8='
p5257
tp5258
Rp5259
tp5260
a(g297
g6
(g18
S'\x80\x05J='
p5261
tp5262
Rp5263
tp5264
a(g2454
g6
(g18
S'5\xa0I='
p5265
tp5266
Rp5267
tp5268
asg73
g15
sa(dp5269
g2
S'../../../data/emanuela/activity-recognition/images/NTCIR-Lifelog-256/u1/2015-03-17/b00001386_21i6bq_20150317_214207e.jpg'
p5270
sg4
(lp5271
(g15
g6
(g18
S'\xfa\x87\x9b>'
p5272
tp5273
Rp5274
tp5275
a(g32
g6
(g18
S'1F\x86>'
p5276
tp5277
Rp5278
tp5279
a(g166
g6
(g18
S'&\xb3\x7f>'
p5280
tp5281
Rp5282
tp5283
a(g92
g6
(g18
S'n\xedn='
p5284
tp5285
Rp5286
tp5287
a(g56
g6
(g18
S'1\x15\x0c='
p5288
tp5289
Rp5290
tp5291
asg73
g15
sa(dp5292
g2
S'../../../data/emanuela/activity-recognition/images/NTCIR-Lifelog-256/u1/2015-03-19/b00002146_21i6bq_20150319_130356e.jpg'
p5293
sg4
(lp5294
(g32
g6
(g18
S']\xab\x1b?'
p5295
tp5296
Rp5297
tp5298
a(g15
g6
(g18
S'\x1e?\xb4>'
p5299
tp5300
Rp5301
tp5302
a(g92
g6
(g18
S'KcX<'
p5303
tp5304
Rp5305
tp5306
a(g56
g6
(g18
S'O\xa7\xec;'
p5307
tp5308
Rp5309
tp5310
a(g44
g6
(g18
S'&\xf8\xb7;'
p5311
tp5312
Rp5313
tp5314
asg73
g15
sa(dp5315
g2
S'../../../data/emanuela/activity-recognition/images/NTCIR-Lifelog-256/u1/2015-03-16/b00002488_21i6bq_20150316_163328e.jpg'
p5316
sg4
(lp5317
(g15
g6
(g18
S'\x1f\x9d\x92>'
p5318
tp5319
Rp5320
tp5321
a(g324
g6
(g18
S'\x89\xcf!>'
p5322
tp5323
Rp5324
tp5325
a(g274
g6
(g18
S'\xb5\xfd\xfc='
p5326
tp5327
Rp5328
tp5329
a(g56
g6
(g18
S'\x01\x8f\xf8='
p5330
tp5331
Rp5332
tp5333
a(g44
g6
(g18
S'\xe6\x85\xb9='
p5334
tp5335
Rp5336
tp5337
asg73
g15
sa(dp5338
g2
S'../../../data/emanuela/activity-recognition/images/NTCIR-Lifelog-256/u1/2015-03-16/b00002483_21i6bq_20150316_163031e.jpg'
p5339
sg4
(lp5340
(g324
g6
(g18
S'\xdc\x0f\xc0>'
p5341
tp5342
Rp5343
tp5344
a(g15
g6
(g18
S'\x87\x91\x15>'
p5345
tp5346
Rp5347
tp5348
a(g56
g6
(g18
S'\x8cw\xa8='
p5349
tp5350
Rp5351
tp5352
a(g336
g6
(g18
S'";\x9b='
p5353
tp5354
Rp5355
tp5356
a(g274
g6
(g18
S'\x84\xa3\x90='
p5357
tp5358
Rp5359
tp5360
asg73
g15
sa(dp5361
g2
S'../../../data/emanuela/activity-recognition/images/NTCIR-Lifelog-256/u1/2015-03-08/b00000648_21i6bq_20150308_160821e.jpg'
p5362
sg4
(lp5363
(g15
g6
(g18
S'\xe0\xca\xee>'
p5364
tp5365
Rp5366
tp5367
a(g32
g6
(g18
S'\xe2\x00\x98>'
p5368
tp5369
Rp5370
tp5371
a(g56
g6
(g18
S'\xd2\x81\x88='
p5372
tp5373
Rp5374
tp5375
a(g92
g6
(g18
S'\xb7\xf6\x0c='
p5376
tp5377
Rp5378
tp5379
a(g513
g6
(g18
S'6\x88\x00='
p5380
tp5381
Rp5382
tp5383
asg73
g15
sa(dp5384
g2
S'../../../data/emanuela/activity-recognition/images/NTCIR-Lifelog-256/u1/2015-03-17/b00001478_21i6bq_20150317_222738e.jpg'
p5385
sg4
(lp5386
(g15
g6
(g18
S'2lV?'
p5387
tp5388
Rp5389
tp5390
a(g32
g6
(g18
S'Y!`='
p5391
tp5392
Rp5393
tp5394
a(g166
g6
(g18
S'\xe2\x1a-='
p5395
tp5396
Rp5397
tp5398
a(g56
g6
(g18
S'\x15(\xfb<'
p5399
tp5400
Rp5401
tp5402
a(g44
g6
(g18
S'q\xfaT<'
p5403
tp5404
Rp5405
tp5406
asg73
g15
sa(dp5407
g2
S'../../../data/emanuela/activity-recognition/images/NTCIR-Lifelog-256/u1/2015-03-19/b00002132_21i6bq_20150319_125614e.jpg'
p5408
sg4
(lp5409
(g15
g6
(g18
S'\xb0\xed{?'
p5410
tp5411
Rp5412
tp5413
a(g32
g6
(g18
S'5\x9e%<'
p5414
tp5415
Rp5416
tp5417
a(g56
g6
(g18
S'/\x86Q;'
p5418
tp5419
Rp5420
tp5421
a(g44
g6
(g18
S'B]\xee:'
p5422
tp5423
Rp5424
tp5425
a(g68
g6
(g18
S'D\xb7\xac9'
p5426
tp5427
Rp5428
tp5429
asg73
g15
sa(dp5430
g2
S'../../../data/emanuela/activity-recognition/images/NTCIR-Lifelog-256/u1/2015-03-17/b00001446_21i6bq_20150317_221344e.jpg'
p5431
sg4
(lp5432
(g15
g6
(g18
S'\xaa\x9b*?'
p5433
tp5434
Rp5435
tp5436
a(g44
g6
(g18
S'\x85\xc9\xe1='
p5437
tp5438
Rp5439
tp5440
a(g56
g6
(g18
S'\xce\xb0r='
p5441
tp5442
Rp5443
tp5444
a(g32
g6
(g18
S'\x8f~B='
p5445
tp5446
Rp5447
tp5448
a(g513
g6
(g18
S'\x99|\xf9<'
p5449
tp5450
Rp5451
tp5452
asg73
g15
sa(dp5453
g2
S'../../../data/emanuela/activity-recognition/images/NTCIR-Lifelog-256/u1/2015-03-16/b00002391_21i6bq_20150316_153510e.jpg'
p5454
sg4
(lp5455
(g147
g6
(g18
S'\x15\x85n>'
p5456
tp5457
Rp5458
tp5459
a(g166
g6
(g18
S'}\xb6\x07>'
p5460
tp5461
Rp5462
tp5463
a(g56
g6
(g18
S'.s\x06>'
p5464
tp5465
Rp5466
tp5467
a(g32
g6
(g18
S'\xdcB\xdb='
p5468
tp5469
Rp5470
tp5471
a(g324
g6
(g18
S'1Q\xca='
p5472
tp5473
Rp5474
tp5475
asg73
g15
sa(dp5476
g2
S'../../../data/emanuela/activity-recognition/images/NTCIR-Lifelog-256/u1/2015-03-19/b00002233_21i6bq_20150319_141048e.jpg'
p5477
sg4
(lp5478
(g15
g6
(g18
S'\xf0\xf9\xe4>'
p5479
tp5480
Rp5481
tp5482
a(g56
g6
(g18
S'\xa6y\xe1>'
p5483
tp5484
Rp5485
tp5486
a(g44
g6
(g18
S'\xd5Np='
p5487
tp5488
Rp5489
tp5490
a(g32
g6
(g18
S'P\x18\xa9<'
p5491
tp5492
Rp5493
tp5494
a(g92
g6
(g18
S'\x9a\x87\xed;'
p5495
tp5496
Rp5497
tp5498
asg73
g15
sa(dp5499
g2
S'../../../data/emanuela/activity-recognition/images/NTCIR-Lifelog-256/u1/2015-03-17/b00001447_21i6bq_20150317_221422e.jpg'
p5500
sg4
(lp5501
(g15
g6
(g18
S'\xc4\xc2\xca>'
p5502
tp5503
Rp5504
tp5505
a(g32
g6
(g18
S'~\xf2\x91>'
p5506
tp5507
Rp5508
tp5509
a(g166
g6
(g18
S'^4\xbf='
p5510
tp5511
Rp5512
tp5513
a(g56
g6
(g18
S'\xf3,n='
p5514
tp5515
Rp5516
tp5517
a(g44
g6
(g18
S'\x16Wh='
p5518
tp5519
Rp5520
tp5521
asg73
g15
sa(dp5522
g2
S'../../../data/emanuela/activity-recognition/images/NTCIR-Lifelog-256/u1/2015-03-19/b00002481_21i6bq_20150319_165552e.jpg'
p5523
sg4
(lp5524
(g56
g6
(g18
S'\xa2\x1e\xda>'
p5525
tp5526
Rp5527
tp5528
a(g15
g6
(g18
S'7\xcf\r>'
p5529
tp5530
Rp5531
tp5532
a(g166
g6
(g18
S'\xb9\xd6\xb5='
p5533
tp5534
Rp5535
tp5536
a(g44
g6
(g18
S'\xf8\x87\x90='
p5537
tp5538
Rp5539
tp5540
a(g274
g6
(g18
S'\xeaLx='
p5541
tp5542
Rp5543
tp5544
asg73
g15
sa(dp5545
g2
S'../../../data/emanuela/activity-recognition/images/NTCIR-Lifelog-256/u1/2015-03-16/b00002480_21i6bq_20150316_162847e.jpg'
p5546
sg4
(lp5547
(g324
g6
(g18
S'\xe6\x87\x9f>'
p5548
tp5549
Rp5550
tp5551
a(g15
g6
(g18
S'\xa1zL>'
p5552
tp5553
Rp5554
tp5555
a(g68
g6
(g18
S'\xab\xfc\xb3='
p5556
tp5557
Rp5558
tp5559
a(g44
g6
(g18
S'\xc6\xe4\x9f='
p5560
tp5561
Rp5562
tp5563
a(g336
g6
(g18
S'!\xb6\x97='
p5564
tp5565
Rp5566
tp5567
asg73
g15
sa(dp5568
g2
S'../../../data/emanuela/activity-recognition/images/NTCIR-Lifelog-256/u1/2015-03-19/b00002526_21i6bq_20150319_172404e.jpg'
p5569
sg4
(lp5570
(g56
g6
(g18
S'\xcd{_?'
p5571
tp5572
Rp5573
tp5574
a(g274
g6
(g18
S'2xr='
p5575
tp5576
Rp5577
tp5578
a(g166
g6
(g18
S'\xab=\xc1<'
p5579
tp5580
Rp5581
tp5582
a(g15
g6
(g18
S'A1*<'
p5583
tp5584
Rp5585
tp5586
a(g44
g6
(g18
S'\x9fS&<'
p5587
tp5588
Rp5589
tp5590
asg73
g15
sa(dp5591
g2
S'../../../data/emanuela/activity-recognition/images/NTCIR-Lifelog-256/u1/2015-03-17/b00001303_21i6bq_20150317_205727e.jpg'
p5592
sg4
(lp5593
(g127
g6
(g18
S'{=\xfa>'
p5594
tp5595
Rp5596
tp5597
a(g659
g6
(g18
S'>\x14\x1c>'
p5598
tp5599
Rp5600
tp5601
a(g2128
g6
(g18
S'L\x13\xa9='
p5602
tp5603
Rp5604
tp5605
a(g15
g6
(g18
S'e\xa1V='
p5606
tp5607
Rp5608
tp5609
a(g147
g6
(g18
S'6 \x0b='
p5610
tp5611
Rp5612
tp5613
asg73
g15
sa(dp5614
g2
S'../../../data/emanuela/activity-recognition/images/NTCIR-Lifelog-256/u1/2015-03-19/b00002495_21i6bq_20150319_170356e.jpg'
p5615
sg4
(lp5616
(g274
g6
(g18
S'\xe6\x81\x04?'
p5617
tp5618
Rp5619
tp5620
a(g56
g6
(g18
S'\xc8\xce\xb6>'
p5621
tp5622
Rp5623
tp5624
a(g166
g6
(g18
S'\xca\xf6\x04='
p5625
tp5626
Rp5627
tp5628
a(g513
g6
(g18
S'\x9c\xc7\xdd<'
p5629
tp5630
Rp5631
tp5632
a(g44
g6
(g18
S'\xea\x98]<'
p5633
tp5634
Rp5635
tp5636
asg73
g15
sa(dp5637
g2
S'../../../data/emanuela/activity-recognition/images/NTCIR-Lifelog-256/u1/2015-03-17/b00001396_21i6bq_20150317_214821e.jpg'
p5638
sg4
(lp5639
(g15
g6
(g18
S'\xec\xbc\xf2>'
p5640
tp5641
Rp5642
tp5643
a(g32
g6
(g18
S'\xc6\xff%>'
p5644
tp5645
Rp5646
tp5647
a(g166
g6
(g18
S'\x90\xf2\xb7='
p5648
tp5649
Rp5650
tp5651
a(g297
g6
(g18
S'\xc0)\x87='
p5652
tp5653
Rp5654
tp5655
a(g56
g6
(g18
S'\xa4\x8d0='
p5656
tp5657
Rp5658
tp5659
asg73
g15
sa(dp5660
g2
S'../../../data/emanuela/activity-recognition/images/NTCIR-Lifelog-256/u1/2015-03-19/b00002336_21i6bq_20150319_151254e.jpg'
p5661
sg4
(lp5662
(g274
g6
(g18
S'@\x81\xd6>'
p5663
tp5664
Rp5665
tp5666
a(g44
g6
(g18
S'\xab=A>'
p5667
tp5668
Rp5669
tp5670
a(g297
g6
(g18
S'P2\xaf='
p5671
tp5672
Rp5673
tp5674
a(g56
g6
(g18
S'W2\x95='
p5675
tp5676
Rp5677
tp5678
a(g1035
g6
(g18
S'\xdd\xf6\x1c='
p5679
tp5680
Rp5681
tp5682
asg73
g15
sa(dp5683
g2
S'../../../data/emanuela/activity-recognition/images/NTCIR-Lifelog-256/u1/2015-03-08/b00000595_21i6bq_20150308_153821e.jpg'
p5684
sg4
(lp5685
(g92
g6
(g18
S'*i\xb5>'
p5686
tp5687
Rp5688
tp5689
a(g32
g6
(g18
S'\x0b`\xb1>'
p5690
tp5691
Rp5692
tp5693
a(g274
g6
(g18
S'P\xd2\xc5='
p5694
tp5695
Rp5696
tp5697
a(g15
g6
(g18
S'j\xf1F='
p5698
tp5699
Rp5700
tp5701
a(g147
g6
(g18
S'\x9b\x9b;='
p5702
tp5703
Rp5704
tp5705
asg73
g15
sa(dp5706
g2
S'../../../data/emanuela/activity-recognition/images/NTCIR-Lifelog-256/u1/2015-03-17/b00001352_21i6bq_20150317_212210e.jpg'
p5707
sg4
(lp5708
(g15
g6
(g18
S'{\xb33?'
p5709
tp5710
Rp5711
tp5712
a(g56
g6
(g18
S';\xda\x92='
p5713
tp5714
Rp5715
tp5716
a(g166
g6
(g18
S'^\xa9\x7f='
p5717
tp5718
Rp5719
tp5720
a(g44
g6
(g18
S'\xd5\xbch='
p5721
tp5722
Rp5723
tp5724
a(g32
g6
(g18
S'D\x11,='
p5725
tp5726
Rp5727
tp5728
asg73
g15
sa(dp5729
g2
S'../../../data/emanuela/activity-recognition/images/NTCIR-Lifelog-256/u1/2015-03-16/b00002475_21i6bq_20150316_162607e.jpg'
p5730
sg4
(lp5731
(g324
g6
(g18
S'\xdf]\xa1>'
p5732
tp5733
Rp5734
tp5735
a(g15
g6
(g18
S'b\xa40>'
p5736
tp5737
Rp5738
tp5739
a(g336
g6
(g18
S'\x1fl\xef='
p5740
tp5741
Rp5742
tp5743
a(g44
g6
(g18
S'\x9c\x80\xae='
p5744
tp5745
Rp5746
tp5747
a(g56
g6
(g18
S'\xc2\xd9\xaa='
p5748
tp5749
Rp5750
tp5751
asg73
g15
sa(dp5752
g2
S'../../../data/emanuela/activity-recognition/images/NTCIR-Lifelog-256/u1/2015-03-17/b00001401_21i6bq_20150317_215122e.jpg'
p5753
sg4
(lp5754
(g15
g6
(g18
S'C\xac\xe3>'
p5755
tp5756
Rp5757
tp5758
a(g166
g6
(g18
S'\x8c \x13>'
p5759
tp5760
Rp5761
tp5762
a(g32
g6
(g18
S'@\xde\x01>'
p5763
tp5764
Rp5765
tp5766
a(g297
g6
(g18
S'&R\x91='
p5767
tp5768
Rp5769
tp5770
a(g56
g6
(g18
S'\x90\x04r='
p5771
tp5772
Rp5773
tp5774
asg73
g15
sa(dp5775
g2
S'../../../data/emanuela/activity-recognition/images/NTCIR-Lifelog-256/u1/2015-03-19/b00002520_21i6bq_20150319_172043e.jpg'
p5776
sg4
(lp5777
(g56
g6
(g18
S'\xc0W\xdf>'
p5778
tp5779
Rp5780
tp5781
a(g274
g6
(g18
S'=#h>'
p5782
tp5783
Rp5784
tp5785
a(g166
g6
(g18
S'\x8d?X>'
p5786
tp5787
Rp5788
tp5789
a(g297
g6
(g18
S'i\x00\x0b='
p5790
tp5791
Rp5792
tp5793
a(g513
g6
(g18
S'\xd7\xf0\xbb<'
p5794
tp5795
Rp5796
tp5797
asg73
g15
sa(dp5798
g2
S'../../../data/emanuela/activity-recognition/images/NTCIR-Lifelog-256/u1/2015-03-19/b00002231_21i6bq_20150319_141047e.jpg'
p5799
sg4
(lp5800
(g56
g6
(g18
S'\x8b\xcf\x0f?'
p5801
tp5802
Rp5803
tp5804
a(g15
g6
(g18
S'{5\xaa>'
p5805
tp5806
Rp5807
tp5808
a(g32
g6
(g18
S'\x88\n[='
p5809
tp5810
Rp5811
tp5812
a(g44
g6
(g18
S'UX\x9b<'
p5813
tp5814
Rp5815
tp5816
a(g324
g6
(g18
S'V\xe8\x11<'
p5817
tp5818
Rp5819
tp5820
asg73
g15
sa(dp5821
g2
S'../../../data/emanuela/activity-recognition/images/NTCIR-Lifelog-256/u1/2015-03-19/b00002129_21i6bq_20150319_125427e.jpg'
p5822
sg4
(lp5823
(g15
g6
(g18
S'\xa6\xeey?'
p5824
tp5825
Rp5826
tp5827
a(g32
g6
(g18
S'\xe1\xbdq<'
p5828
tp5829
Rp5830
tp5831
a(g56
g6
(g18
S'k=\x80;'
p5832
tp5833
Rp5834
tp5835
a(g44
g6
(g18
S'\xf0\x114;'
p5836
tp5837
Rp5838
tp5839
a(g68
g6
(g18
S'\xc7\xedb:'
p5840
tp5841
Rp5842
tp5843
asg73
g15
sa(dp5844
g2
S'../../../data/emanuela/activity-recognition/images/NTCIR-Lifelog-256/u1/2015-03-19/b00002464_21i6bq_20150319_164540e.jpg'
p5845
sg4
(lp5846
(g166
g6
(g18
S"n\x84'?"
p5847
tp5848
Rp5849
tp5850
a(g32
g6
(g18
S'"@\xd7='
p5851
tp5852
Rp5853
tp5854
a(g44
g6
(g18
S'O[\x9e='
p5855
tp5856
Rp5857
tp5858
a(g56
g6
(g18
S'\xd2\xde\x8d='
p5859
tp5860
Rp5861
tp5862
a(g92
g6
(g18
S'\xa4u ='
p5863
tp5864
Rp5865
tp5866
asg73
g15
sa(dp5867
g2
S'../../../data/emanuela/activity-recognition/images/NTCIR-Lifelog-256/u1/2015-03-19/b00002258_21i6bq_20150319_142604e.jpg'
p5868
sg4
(lp5869
(g15
g6
(g18
S'\xb9"e?'
p5870
tp5871
Rp5872
tp5873
a(g44
g6
(g18
S'\x15Ur='
p5874
tp5875
Rp5876
tp5877
a(g56
g6
(g18
S'r?\xbe<'
p5878
tp5879
Rp5880
tp5881
a(g32
g6
(g18
S'#7z<'
p5882
tp5883
Rp5884
tp5885
a(g147
g6
(g18
S'P\x1d\xc2:'
p5886
tp5887
Rp5888
tp5889
asg73
g15
sa(dp5890
g2
S'../../../data/emanuela/activity-recognition/images/NTCIR-Lifelog-256/u1/2015-03-19/b00002503_21i6bq_20150319_170857e.jpg'
p5891
sg4
(lp5892
(g56
g6
(g18
S'\xf6\x0f\x12?'
p5893
tp5894
Rp5895
tp5896
a(g274
g6
(g18
S'#\x0bK>'
p5897
tp5898
Rp5899
tp5900
a(g166
g6
(g18
S'\x07Q\x82='
p5901
tp5902
Rp5903
tp5904
a(g513
g6
(g18
S'\xfc5E='
p5905
tp5906
Rp5907
tp5908
a(g15
g6
(g18
S'&h9='
p5909
tp5910
Rp5911
tp5912
asg73
g15
sa(dp5913
g2
S'../../../data/emanuela/activity-recognition/images/NTCIR-Lifelog-256/u1/2015-03-17/b00001399_21i6bq_20150317_215018e.jpg'
p5914
sg4
(lp5915
(g15
g6
(g18
S'g\xac\xbe>'
p5916
tp5917
Rp5918
tp5919
a(g166
g6
(g18
S'PuU>'
p5920
tp5921
Rp5922
tp5923
a(g32
g6
(g18
S'E\xcf\x1d>'
p5924
tp5925
Rp5926
tp5927
a(g297
g6
(g18
S'\xa1\xdat='
p5928
tp5929
Rp5930
tp5931
a(g44
g6
(g18
S'\\\x19L='
p5932
tp5933
Rp5934
tp5935
asg73
g15
sa(dp5936
g2
S'../../../data/emanuela/activity-recognition/images/NTCIR-Lifelog-256/u1/2015-03-17/b00001324_21i6bq_20150317_210550e.jpg'
p5937
sg4
(lp5938
(g15
g6
(g18
S'\xae\x05\xa8>'
p5939
tp5940
Rp5941
tp5942
a(g166
g6
(g18
S'\x99\x9c\x8e>'
p5943
tp5944
Rp5945
tp5946
a(g44
g6
(g18
S'\xfd\xc3}>'
p5947
tp5948
Rp5949
tp5950
a(g32
g6
(g18
S'\x173\x7f='
p5951
tp5952
Rp5953
tp5954
a(g68
g6
(g18
S'v\x1eA='
p5955
tp5956
Rp5957
tp5958
asg73
g15
sa(dp5959
g2
S'../../../data/emanuela/activity-recognition/images/NTCIR-Lifelog-256/u1/2015-03-17/b00001342_21i6bq_20150317_211640e.jpg'
p5960
sg4
(lp5961
(g15
g6
(g18
S'\xa1\x0e8?'
p5962
tp5963
Rp5964
tp5965
a(g166
g6
(g18
S'\xe6\xb4\xb2='
p5966
tp5967
Rp5968
tp5969
a(g32
g6
(g18
S'\xcfDM='
p5970
tp5971
Rp5972
tp5973
a(g68
g6
(g18
S'\x9e(\x1e='
p5974
tp5975
Rp5976
tp5977
a(g56
g6
(g18
S'dz\x10='
p5978
tp5979
Rp5980
tp5981
asg73
g15
sa(dp5982
g2
S'../../../data/emanuela/activity-recognition/images/NTCIR-Lifelog-256/u1/2015-03-19/b00002477_21i6bq_20150319_165313e.jpg'
p5983
sg4
(lp5984
(g56
g6
(g18
S'\xce\xac\xcb>'
p5985
tp5986
Rp5987
tp5988
a(g274
g6
(g18
S'\xe7N\x8d>'
p5989
tp5990
Rp5991
tp5992
a(g166
g6
(g18
S' i\x9c='
p5993
tp5994
Rp5995
tp5996
a(g15
g6
(g18
S'\xa2D\x98='
p5997
tp5998
Rp5999
tp6000
a(g44
g6
(g18
S'\x8bmE='
p6001
tp6002
Rp6003
tp6004
asg73
g15
sa(dp6005
g2
S'../../../data/emanuela/activity-recognition/images/NTCIR-Lifelog-256/u1/2015-03-08/b00000652_21i6bq_20150308_161027e.jpg'
p6006
sg4
(lp6007
(g15
g6
(g18
S'\x00\xe2\xd3>'
p6008
tp6009
Rp6010
tp6011
a(g32
g6
(g18
S'\xc9d\xa9>'
p6012
tp6013
Rp6014
tp6015
a(g56
g6
(g18
S'\xc8i\x80='
p6016
tp6017
Rp6018
tp6019
a(g274
g6
(g18
S'\x0f\xefC='
p6020
tp6021
Rp6022
tp6023
a(g147
g6
(g18
S'\xc6L\x07='
p6024
tp6025
Rp6026
tp6027
asg73
g15
sa(dp6028
g2
S'../../../data/emanuela/activity-recognition/images/NTCIR-Lifelog-256/u1/2015-03-16/b00002556_21i6bq_20150316_170746e.jpg'
p6029
sg4
(lp6030
(g68
g6
(g18
S'b\xa9\xbf>'
p6031
tp6032
Rp6033
tp6034
a(g324
g6
(g18
S'Nd3>'
p6035
tp6036
Rp6037
tp6038
a(g15
g6
(g18
S'>#\x0f>'
p6039
tp6040
Rp6041
tp6042
a(g115
g6
(g18
S'\xf1\\~='
p6043
tp6044
Rp6045
tp6046
a(g147
g6
(g18
S'QcH='
p6047
tp6048
Rp6049
tp6050
asg73
g15
sa(dp6051
g2
S'../../../data/emanuela/activity-recognition/images/NTCIR-Lifelog-256/u1/2015-03-19/b00002498_21i6bq_20150319_170552e.jpg'
p6052
sg4
(lp6053
(g274
g6
(g18
S'{6\xdf>'
p6054
tp6055
Rp6056
tp6057
a(g56
g6
(g18
S'\x1e\xbe\xd1>'
p6058
tp6059
Rp6060
tp6061
a(g166
g6
(g18
S'\xb4,d='
p6062
tp6063
Rp6064
tp6065
a(g513
g6
(g18
S';f\xed<'
p6066
tp6067
Rp6068
tp6069
a(g297
g6
(g18
S'\x13\xe9\xbf<'
p6070
tp6071
Rp6072
tp6073
asg73
g15
sa(dp6074
g2
S'../../../data/emanuela/activity-recognition/images/NTCIR-Lifelog-256/u1/2015-03-19/b00002341_21i6bq_20150319_151541e.jpg'
p6075
sg4
(lp6076
(g32
g6
(g18
S'jt\xe3>'
p6077
tp6078
Rp6079
tp6080
a(g166
g6
(g18
S'D\xaf\x07>'
p6081
tp6082
Rp6083
tp6084
a(g56
g6
(g18
S'\x97\t\x01>'
p6085
tp6086
Rp6087
tp6088
a(g15
g6
(g18
S'\xfb\x8a\xfd='
p6089
tp6090
Rp6091
tp6092
a(g44
g6
(g18
S'\xde\x14t='
p6093
tp6094
Rp6095
tp6096
asg73
g15
sa(dp6097
g2
S'../../../data/emanuela/activity-recognition/images/NTCIR-Lifelog-256/u1/2015-03-17/b00001365_21i6bq_20150317_212952e.jpg'
p6098
sg4
(lp6099
(g15
g6
(g18
S'\xbc\xe5Y?'
p6100
tp6101
Rp6102
tp6103
a(g32
g6
(g18
S'\xa9\x19\x81='
p6104
tp6105
Rp6106
tp6107
a(g92
g6
(g18
S'\x14\xebU='
p6108
tp6109
Rp6110
tp6111
a(g44
g6
(g18
S'L\x1eu<'
p6112
tp6113
Rp6114
tp6115
a(g166
g6
(g18
S'\x96S\x12<'
p6116
tp6117
Rp6118
tp6119
asg73
g15
sa(dp6120
g2
S'../../../data/emanuela/activity-recognition/images/NTCIR-Lifelog-256/u1/2015-03-16/b00002472_21i6bq_20150316_162434e.jpg'
p6121
sg4
(lp6122
(g324
g6
(g18
S'\x9c\xc3W>'
p6123
tp6124
Rp6125
tp6126
a(g15
g6
(g18
S'`\x10A>'
p6127
tp6128
Rp6129
tp6130
a(g336
g6
(g18
S'y\xc3\x0f>'
p6131
tp6132
Rp6133
tp6134
a(g56
g6
(g18
S'R(\xe4='
p6135
tp6136
Rp6137
tp6138
a(g44
g6
(g18
S'\xe7\xbd\xdf='
p6139
tp6140
Rp6141
tp6142
asg73
g15
sa(dp6143
g2
S'../../../data/emanuela/activity-recognition/images/NTCIR-Lifelog-256/u1/2015-03-17/b00001472_21i6bq_20150317_222404e.jpg'
p6144
sg4
(lp6145
(g15
g6
(g18
S'1&7?'
p6146
tp6147
Rp6148
tp6149
a(g32
g6
(g18
S'\xca\xbf\xe2='
p6150
tp6151
Rp6152
tp6153
a(g166
g6
(g18
S'\xca\xde\xa6='
p6154
tp6155
Rp6156
tp6157
a(g56
g6
(g18
S'\x85\x8f\x10='
p6158
tp6159
Rp6160
tp6161
a(g147
g6
(g18
S'\xc2\xb4W<'
p6162
tp6163
Rp6164
tp6165
asg73
g15
sa(dp6166
g2
S'../../../data/emanuela/activity-recognition/images/NTCIR-Lifelog-256/u1/2015-03-17/b00001392_21i6bq_20150317_214541e.jpg'
p6167
sg4
(lp6168
(g15
g6
(g18
S'@$\xb3>'
p6169
tp6170
Rp6171
tp6172
a(g56
g6
(g18
S'\xde\x1d?>'
p6173
tp6174
Rp6175
tp6176
a(g297
g6
(g18
S'\x83j\xae='
p6177
tp6178
Rp6179
tp6180
a(g32
g6
(g18
S'\x81\xc4\xa8='
p6181
tp6182
Rp6183
tp6184
a(g115
g6
(g18
S'v\xe7\x96='
p6185
tp6186
Rp6187
tp6188
asg73
g15
sa(dp6189
g2
S'../../../data/emanuela/activity-recognition/images/NTCIR-Lifelog-256/u1/2015-03-08/b00000642_21i6bq_20150308_160457e.jpg'
p6190
sg4
(lp6191
(g32
g6
(g18
S'\xe6\xb5\x15?'
p6192
tp6193
Rp6194
tp6195
a(g15
g6
(g18
S'k\xa7J>'
p6196
tp6197
Rp6198
tp6199
a(g274
g6
(g18
S'\x1e\x0e\x89='
p6200
tp6201
Rp6202
tp6203
a(g56
g6
(g18
S'\xb6\x121='
p6204
tp6205
Rp6206
tp6207
a(g92
g6
(g18
S'\x188\x0e='
p6208
tp6209
Rp6210
tp6211
asg73
g15
sa(dp6212
g2
S'../../../data/emanuela/activity-recognition/images/NTCIR-Lifelog-256/u1/2015-03-06/b00000112_21i6bq_20150306_062811e.jpg'
p6213
sg4
(lp6214
(g32
g6
(g18
S'S{\xc5>'
p6215
tp6216
Rp6217
tp6218
a(g274
g6
(g18
S'\xe6z[>'
p6219
tp6220
Rp6221
tp6222
a(g513
g6
(g18
S'\x1d3C>'
p6223
tp6224
Rp6225
tp6226
a(g297
g6
(g18
S'\x81\x9eH='
p6227
tp6228
Rp6229
tp6230
a(g147
g6
(g18
S'\xc6\x97\x17='
p6231
tp6232
Rp6233
tp6234
asg73
g15
sa(dp6235
g2
S'../../../data/emanuela/activity-recognition/images/NTCIR-Lifelog-256/u1/2015-03-19/b00002455_21i6bq_20150319_164026e.jpg'
p6236
sg4
(lp6237
(g274
g6
(g18
S":'\xf6>"
p6238
tp6239
Rp6240
tp6241
a(g56
g6
(g18
S'NlW>'
p6242
tp6243
Rp6244
tp6245
a(g166
g6
(g18
S'\x0b\xbe\x1d>'
p6246
tp6247
Rp6248
tp6249
a(g32
g6
(g18
S'\tr#='
p6250
tp6251
Rp6252
tp6253
a(g92
g6
(g18
S'\xd8N\x1b='
p6254
tp6255
Rp6256
tp6257
asg73
g15
sa(dp6258
g2
S'../../../data/emanuela/activity-recognition/images/NTCIR-Lifelog-256/u1/2015-03-17/b00001316_21i6bq_20150317_205959e.jpg'
p6259
sg4
(lp6260
(g15
g6
(g18
S'\xef\xb9%?'
p6261
tp6262
Rp6263
tp6264
a(g166
g6
(g18
S'\nL\t>'
p6265
tp6266
Rp6267
tp6268
a(g44
g6
(g18
S'\xabO\x91='
p6269
tp6270
Rp6271
tp6272
a(g32
g6
(g18
S'\xe5\x10\\='
p6273
tp6274
Rp6275
tp6276
a(g56
g6
(g18
S'\xd3\x1f(='
p6277
tp6278
Rp6279
tp6280
asg73
g15
sa(dp6281
g2
S'../../../data/emanuela/activity-recognition/images/NTCIR-Lifelog-256/u1/2015-03-19/b00002333_21i6bq_20150319_151102e.jpg'
p6282
sg4
(lp6283
(g15
g6
(g18
S'\x17\x0eG?'
p6284
tp6285
Rp6286
tp6287
a(g32
g6
(g18
S'\x89\x1a\x1e>'
p6288
tp6289
Rp6290
tp6291
a(g274
g6
(g18
S'\xcb_\xc0<'
p6292
tp6293
Rp6294
tp6295
a(g44
g6
(g18
S'\xd4x\xbe<'
p6296
tp6297
Rp6298
tp6299
a(g56
g6
(g18
S'\xa9;\xf5;'
p6300
tp6301
Rp6302
tp6303
asg73
g15
sa(dp6304
g2
S'../../../data/emanuela/activity-recognition/images/NTCIR-Lifelog-256/u1/2015-03-17/b00001323_21i6bq_20150317_210509e.jpg'
p6305
sg4
(lp6306
(g15
g6
(g18
S'\xfb\xc0S?'
p6307
tp6308
Rp6309
tp6310
a(g44
g6
(g18
S'\x83\xa8L='
p6311
tp6312
Rp6313
tp6314
a(g166
g6
(g18
S'\xb2\xa3F='
p6315
tp6316
Rp6317
tp6318
a(g68
g6
(g18
S'>\xa4\x02='
p6319
tp6320
Rp6321
tp6322
a(g32
g6
(g18
S'\xa3Q\xde<'
p6323
tp6324
Rp6325
tp6326
asg73
g15
sa(dp6327
g2
S'../../../data/emanuela/activity-recognition/images/NTCIR-Lifelog-256/u1/2015-03-19/b00002453_21i6bq_20150319_163915e.jpg'
p6328
sg4
(lp6329
(g166
g6
(g18
S'\\!{?'
p6330
tp6331
Rp6332
tp6333
a(g56
g6
(g18
S'\xb2\x15\xe2;'
p6334
tp6335
Rp6336
tp6337
a(g92
g6
(g18
S'4\xdc\xc9;'
p6338
tp6339
Rp6340
tp6341
a(g44
g6
(g18
S'8\x11\xc6:'
p6342
tp6343
Rp6344
tp6345
a(g32
g6
(g18
S'\x92\x80\xb4:'
p6346
tp6347
Rp6348
tp6349
asg73
g15
sa(dp6350
g2
S'../../../data/emanuela/activity-recognition/images/NTCIR-Lifelog-256/u1/2015-03-19/b00002139_21i6bq_20150319_125956e.jpg'
p6351
sg4
(lp6352
(g15
g6
(g18
S'\xb3g}?'
p6353
tp6354
Rp6355
tp6356
a(g32
g6
(g18
S'\x90\x05\xbe;'
p6357
tp6358
Rp6359
tp6360
a(g56
g6
(g18
S'\xc1\xc9M;'
p6361
tp6362
Rp6363
tp6364
a(g44
g6
(g18
S'\x04i):'
p6365
tp6366
Rp6367
tp6368
a(g68
g6
(g18
S'x\xb2p9'
p6369
tp6370
Rp6371
tp6372
asg73
g15
sa(dp6373
g2
S'../../../data/emanuela/activity-recognition/images/NTCIR-Lifelog-256/u1/2015-03-19/b00002327_21i6bq_20150319_150736e.jpg'
p6374
sg4
(lp6375
(g15
g6
(g18
S'a\x83\n?'
p6376
tp6377
Rp6378
tp6379
a(g32
g6
(g18
S'\x13\xb6\x9e>'
p6380
tp6381
Rp6382
tp6383
a(g274
g6
(g18
S'\xea\x8aa='
p6384
tp6385
Rp6386
tp6387
a(g44
g6
(g18
S'\x9b\xbb\xff<'
p6388
tp6389
Rp6390
tp6391
a(g324
g6
(g18
S'\x0b\xcc\xba<'
p6392
tp6393
Rp6394
tp6395
asg73
g15
sa(dp6396
g2
S'../../../data/emanuela/activity-recognition/images/NTCIR-Lifelog-256/u1/2015-03-17/b00001473_21i6bq_20150317_222434e.jpg'
p6397
sg4
(lp6398
(g15
g6
(g18
S'>BH?'
p6399
tp6400
Rp6401
tp6402
a(g56
g6
(g18
S'\x08\xf4\x94='
p6403
tp6404
Rp6405
tp6406
a(g32
g6
(g18
S'>\x00%='
p6407
tp6408
Rp6409
tp6410
a(g166
g6
(g18
S'sB\x1f='
p6411
tp6412
Rp6413
tp6414
a(g44
g6
(g18
S'n\xa1\xab<'
p6415
tp6416
Rp6417
tp6418
asg73
g15
sa(dp6419
g2
S'../../../data/emanuela/activity-recognition/images/NTCIR-Lifelog-256/u1/2015-03-19/b00002483_21i6bq_20150319_165704e.jpg'
p6420
sg4
(lp6421
(g56
g6
(g18
S'\xf0\xb74?'
p6422
tp6423
Rp6424
tp6425
a(g166
g6
(g18
S'\xa7\x90\x84='
p6426
tp6427
Rp6428
tp6429
a(g15
g6
(g18
S']io='
p6430
tp6431
Rp6432
tp6433
a(g274
g6
(g18
S'\xaf5\\='
p6434
tp6435
Rp6436
tp6437
a(g336
g6
(g18
S'\x90\xea\x12='
p6438
tp6439
Rp6440
tp6441
asg73
g15
sa(dp6442
g2
S'../../../data/emanuela/activity-recognition/images/NTCIR-Lifelog-256/u1/2015-03-19/b00002137_21i6bq_20150319_125851e.jpg'
p6443
sg4
(lp6444
(g15
g6
(g18
S'S\t~?'
p6445
tp6446
Rp6447
tp6448
a(g32
g6
(g18
S'&\x11L;'
p6449
tp6450
Rp6451
tp6452
a(g56
g6
(g18
S'\xc7\xe3\x05;'
p6453
tp6454
Rp6455
tp6456
a(g44
g6
(g18
S'4s\xda:'
p6457
tp6458
Rp6459
tp6460
a(g68
g6
(g18
S'z\xdf\x1d:'
p6461
tp6462
Rp6463
tp6464
asg73
g15
sa(dp6465
g2
S'../../../data/emanuela/activity-recognition/images/NTCIR-Lifelog-256/u1/2015-03-19/b00002493_21i6bq_20150319_170244e.jpg'
p6466
sg4
(lp6467
(g56
g6
(g18
S'D\x11\x00?'
p6468
tp6469
Rp6470
tp6471
a(g274
g6
(g18
S'_\xfc\xa3>'
p6472
tp6473
Rp6474
tp6475
a(g166
g6
(g18
S'Kyk='
p6476
tp6477
Rp6478
tp6479
a(g297
g6
(g18
S'\xe5\xa8\t='
p6480
tp6481
Rp6482
tp6483
a(g513
g6
(g18
S'8\xfa\xe9<'
p6484
tp6485
Rp6486
tp6487
asg73
g15
sa(dp6488
g2
S'../../../data/emanuela/activity-recognition/images/NTCIR-Lifelog-256/u1/2015-03-19/b00002321_21i6bq_20150319_150408e.jpg'
p6489
sg4
(lp6490
(g15
g6
(g18
S'C_c?'
p6491
tp6492
Rp6493
tp6494
a(g32
g6
(g18
S'\x7f\xa2\x97='
p6495
tp6496
Rp6497
tp6498
a(g56
g6
(g18
S'\x1eW\xae<'
p6499
tp6500
Rp6501
tp6502
a(g44
g6
(g18
S']K\x16<'
p6503
tp6504
Rp6505
tp6506
a(g324
g6
(g18
S'T\xd5d;'
p6507
tp6508
Rp6509
tp6510
asg73
g15
sa(dp6511
g2
S'../../../data/emanuela/activity-recognition/images/NTCIR-Lifelog-256/u1/2015-03-16/b00002385_21i6bq_20150316_153200e.jpg'
p6512
sg4
(lp6513
(g274
g6
(g18
S'\xe6\xf7\xd9>'
p6514
tp6515
Rp6516
tp6517
a(g324
g6
(g18
S'\xa4\xfb4>'
p6518
tp6519
Rp6520
tp6521
a(g32
g6
(g18
S'1[\xdc='
p6522
tp6523
Rp6524
tp6525
a(g56
g6
(g18
S'<\xc4\x88='
p6526
tp6527
Rp6528
tp6529
a(g44
g6
(g18
S'\xfbWt='
p6530
tp6531
Rp6532
tp6533
asg73
g15
sa(dp6534
g2
S'../../../data/emanuela/activity-recognition/images/NTCIR-Lifelog-256/u1/2015-03-16/b00002398_21i6bq_20150316_153927e.jpg'
p6535
sg4
(lp6536
(g2128
g6
(g18
S'R\x02G>'
p6537
tp6538
Rp6539
tp6540
a(g127
g6
(g18
S'I\x111>'
p6541
tp6542
Rp6543
tp6544
a(g15
g6
(g18
S'\xfbG\x1e>'
p6545
tp6546
Rp6547
tp6548
a(g147
g6
(g18
S'R\x07\xb5='
p6549
tp6550
Rp6551
tp6552
a(g32
g6
(g18
S'qM\xa3='
p6553
tp6554
Rp6555
tp6556
asg73
g15
sa(dp6557
g2
S'../../../data/emanuela/activity-recognition/images/NTCIR-Lifelog-256/u1/2015-03-19/b00002446_21i6bq_20150319_163904e.jpg'
p6558
sg4
(lp6559
(g166
g6
(g18
S'"\x08d?'
p6560
tp6561
Rp6562
tp6563
a(g56
g6
(g18
S'\xd4\x8f:='
p6564
tp6565
Rp6566
tp6567
a(g32
g6
(g18
S'a\x1f\xd6<'
p6568
tp6569
Rp6570
tp6571
a(g92
g6
(g18
S'pv4<'
p6572
tp6573
Rp6574
tp6575
a(g274
g6
(g18
S'o\xd9\xd6;'
p6576
tp6577
Rp6578
tp6579
asg73
g15
sa(dp6580
g2
S'../../../data/emanuela/activity-recognition/images/NTCIR-Lifelog-256/u1/2015-03-19/b00002508_21i6bq_20150319_171208e.jpg'
p6581
sg4
(lp6582
(g56
g6
(g18
S'\x1a\x10\xf0>'
p6583
tp6584
Rp6585
tp6586
a(g166
g6
(g18
S'\xcd\x1c4>'
p6587
tp6588
Rp6589
tp6590
a(g274
g6
(g18
S'\xfd\x07\xfe='
p6591
tp6592
Rp6593
tp6594
a(g15
g6
(g18
S'\xe1D#='
p6595
tp6596
Rp6597
tp6598
a(g32
g6
(g18
S'-\xed\x0e='
p6599
tp6600
Rp6601
tp6602
asg73
g15
sa(dp6603
g2
S'../../../data/emanuela/activity-recognition/images/NTCIR-Lifelog-256/u1/2015-03-17/b00001455_21i6bq_20150317_221847e.jpg'
p6604
sg4
(lp6605
(g15
g6
(g18
S'\xec\xf23?'
p6606
tp6607
Rp6608
tp6609
a(g32
g6
(g18
S'\xb7@\x0f>'
p6610
tp6611
Rp6612
tp6613
a(g166
g6
(g18
S'\x0eQ\x9d='
p6614
tp6615
Rp6616
tp6617
a(g56
g6
(g18
S'\x93~\x9d<'
p6618
tp6619
Rp6620
tp6621
a(g147
g6
(g18
S'.n^<'
p6622
tp6623
Rp6624
tp6625
asg73
g15
sa(dp6626
g2
S'../../../data/emanuela/activity-recognition/images/NTCIR-Lifelog-256/u1/2015-03-06/b00000193_21i6bq_20150306_071949e.jpg'
p6627
sg4
(lp6628
(g324
g6
(g18
S'C\x17\xaf>'
p6629
tp6630
Rp6631
tp6632
a(g336
g6
(g18
S'Ia->'
p6633
tp6634
Rp6635
tp6636
a(g147
g6
(g18
S'\xaa\x83\xe9='
p6637
tp6638
Rp6639
tp6640
a(g274
g6
(g18
S'\xa7G\xd6='
p6641
tp6642
Rp6643
tp6644
a(g2128
g6
(g18
S'iy\xd5='
p6645
tp6646
Rp6647
tp6648
asg73
g15
sa(dp6649
g2
S'../../../data/emanuela/activity-recognition/images/NTCIR-Lifelog-256/u1/2015-03-16/b00002491_21i6bq_20150316_163507e.jpg'
p6650
sg4
(lp6651
(g274
g6
(g18
S'\xa2\x94U>'
p6652
tp6653
Rp6654
tp6655
a(g324
g6
(g18
S'wQ,>'
p6656
tp6657
Rp6658
tp6659
a(g56
g6
(g18
S'\t\xc3\x15>'
p6660
tp6661
Rp6662
tp6663
a(g44
g6
(g18
S'\x9eA\x04>'
p6664
tp6665
Rp6666
tp6667
a(g15
g6
(g18
S'\xa4\xa2\xea='
p6668
tp6669
Rp6670
tp6671
asg73
g15
sa(dp6672
g2
S'../../../data/emanuela/activity-recognition/images/NTCIR-Lifelog-256/u1/2015-03-19/b00002329_21i6bq_20150319_150857e.jpg'
p6673
sg4
(lp6674
(g32
g6
(g18
S'\x16\x81\xc5>'
p6675
tp6676
Rp6677
tp6678
a(g15
g6
(g18
S'\xa5\xbf\x9f>'
p6679
tp6680
Rp6681
tp6682
a(g274
g6
(g18
S'\xff8K>'
p6683
tp6684
Rp6685
tp6686
a(g44
g6
(g18
S'Xi\x17='
p6687
tp6688
Rp6689
tp6690
a(g324
g6
(g18
S'\xa2Q\xe8<'
p6691
tp6692
Rp6693
tp6694
asg73
g15
sa(dp6695
g2
S'../../../data/emanuela/activity-recognition/images/NTCIR-Lifelog-256/u1/2015-03-16/b00002492_21i6bq_20150316_163548e.jpg'
p6696
sg4
(lp6697
(g324
g6
(g18
S'\xca\x9e\x81>'
p6698
tp6699
Rp6700
tp6701
a(g15
g6
(g18
S'\x8d\x18\x15>'
p6702
tp6703
Rp6704
tp6705
a(g56
g6
(g18
S'\xbc\x0c\r>'
p6706
tp6707
Rp6708
tp6709
a(g336
g6
(g18
S'\xcf\xd4\x07>'
p6710
tp6711
Rp6712
tp6713
a(g274
g6
(g18
S'\x87H\x98='
p6714
tp6715
Rp6716
tp6717
asg73
g15
sa(dp6718
g2
S'../../../data/emanuela/activity-recognition/images/NTCIR-Lifelog-256/u1/2015-03-06/b00000159_21i6bq_20150306_065812e.jpg'
p6719
sg4
(lp6720
(g324
g6
(g18
S'\x0c\x10\xd7>'
p6721
tp6722
Rp6723
tp6724
a(g336
g6
(g18
S'm\xcfO>'
p6725
tp6726
Rp6727
tp6728
a(g127
g6
(g18
S'N\xa3\xb6='
p6729
tp6730
Rp6731
tp6732
a(g56
g6
(g18
S'Su\x9a='
p6733
tp6734
Rp6735
tp6736
a(g147
g6
(g18
S'\x80\x93;='
p6737
tp6738
Rp6739
tp6740
asg73
g15
sa(dp6741
g2
S'../../../data/emanuela/activity-recognition/images/NTCIR-Lifelog-256/u1/2015-03-19/b00002517_21i6bq_20150319_171845e.jpg'
p6742
sg4
(lp6743
(g56
g6
(g18
S'\x7f\x07\xed>'
p6744
tp6745
Rp6746
tp6747
a(g274
g6
(g18
S'\x80\x89\x93>'
p6748
tp6749
Rp6750
tp6751
a(g166
g6
(g18
S'\xb9\xbb\x1e>'
p6752
tp6753
Rp6754
tp6755
a(g297
g6
(g18
S'm\xea\xa5<'
p6756
tp6757
Rp6758
tp6759
a(g15
g6
(g18
S'\xc0\x99\xa3<'
p6760
tp6761
Rp6762
tp6763
asg73
g15
sa(dp6764
g2
S'../../../data/emanuela/activity-recognition/images/NTCIR-Lifelog-256/u1/2015-03-08/b00000659_21i6bq_20150308_161434e.jpg'
p6765
sg4
(lp6766
(g15
g6
(g18
S'vz\x15?'
p6767
tp6768
Rp6769
tp6770
a(g32
g6
(g18
S'(@\x83>'
p6771
tp6772
Rp6773
tp6774
a(g68
g6
(g18
S'\xc3?|='
p6775
tp6776
Rp6777
tp6778
a(g92
g6
(g18
S'T\x13\x04='
p6779
tp6780
Rp6781
tp6782
a(g274
g6
(g18
S'#\x00\xc4<'
p6783
tp6784
Rp6785
tp6786
asg73
g15
sa(dp6787
g2
S'../../../data/emanuela/activity-recognition/images/NTCIR-Lifelog-256/u1/2015-03-06/b00000108_21i6bq_20150306_062534e.jpg'
p6788
sg4
(lp6789
(g32
g6
(g18
S'\x00\xfa\xa6>'
p6790
tp6791
Rp6792
tp6793
a(g274
g6
(g18
S'\xa9aO>'
p6794
tp6795
Rp6796
tp6797
a(g297
g6
(g18
S'\x8dM\r>'
p6798
tp6799
Rp6800
tp6801
a(g92
g6
(g18
S'\xc1P\x96='
p6802
tp6803
Rp6804
tp6805
a(g2454
g6
(g18
S'\xc1\xbc\x88='
p6806
tp6807
Rp6808
tp6809
asg73
g15
sa(dp6810
g2
S'../../../data/emanuela/activity-recognition/images/NTCIR-Lifelog-256/u1/2015-03-19/b00002133_21i6bq_20150319_125644e.jpg'
p6811
sg4
(lp6812
(g15
g6
(g18
S'\xe72|?'
p6813
tp6814
Rp6815
tp6816
a(g32
g6
(g18
S'\xcb$\r<'
p6817
tp6818
Rp6819
tp6820
a(g56
g6
(g18
S'\x9c\xdfL;'
p6821
tp6822
Rp6823
tp6824
a(g44
g6
(g18
S'\xa0l\n;'
p6825
tp6826
Rp6827
tp6828
a(g68
g6
(g18
S'3|\x15:'
p6829
tp6830
Rp6831
tp6832
asg73
g15
sa(dp6833
g2
S'../../../data/emanuela/activity-recognition/images/NTCIR-Lifelog-256/u1/2015-03-19/b00002509_21i6bq_20150319_171253e.jpg'
p6834
sg4
(lp6835
(g166
g6
(g18
S'\x15u\xc3>'
p6836
tp6837
Rp6838
tp6839
a(g274
g6
(g18
S'Xf\x97>'
p6840
tp6841
Rp6842
tp6843
a(g56
g6
(g18
S'\x81pH>'
p6844
tp6845
Rp6846
tp6847
a(g297
g6
(g18
S'\xbb[\xed<'
p6848
tp6849
Rp6850
tp6851
a(g513
g6
(g18
S'W\x8d\x95<'
p6852
tp6853
Rp6854
tp6855
asg73
g15
sa(dp6856
g2
S'../../../data/emanuela/activity-recognition/images/NTCIR-Lifelog-256/u1/2015-03-19/b00002533_21i6bq_20150319_172800e.jpg'
p6857
sg4
(lp6858
(g56
g6
(g18
S'\\\x1dI?'
p6859
tp6860
Rp6861
tp6862
a(g274
g6
(g18
S'\xfe\xc8\x84='
p6863
tp6864
Rp6865
tp6866
a(g324
g6
(g18
S'\xb9\x94W='
p6867
tp6868
Rp6869
tp6870
a(g166
g6
(g18
S'}b\xc5<'
p6871
tp6872
Rp6873
tp6874
a(g44
g6
(g18
S'\x86\xd7\xb4<'
p6875
tp6876
Rp6877
tp6878
asg73
g15
sa(dp6879
g2
S'../../../data/emanuela/activity-recognition/images/NTCIR-Lifelog-256/u1/2015-03-19/b00002511_21i6bq_20150319_171430e.jpg'
p6880
sg4
(lp6881
(g274
g6
(g18
S'O?\xfd>'
p6882
tp6883
Rp6884
tp6885
a(g56
g6
(g18
S'\x1d\x84\x82>'
p6886
tp6887
Rp6888
tp6889
a(g166
g6
(g18
S'_i\x17>'
p6890
tp6891
Rp6892
tp6893
a(g297
g6
(g18
S'\xf8\xe7\xdb<'
p6894
tp6895
Rp6896
tp6897
a(g513
g6
(g18
S'54\x86<'
p6898
tp6899
Rp6900
tp6901
asg73
g15
sa(dp6902
g2
S'../../../data/emanuela/activity-recognition/images/NTCIR-Lifelog-256/u1/2015-03-17/b00001339_21i6bq_20150317_211506e.jpg'
p6903
sg4
(lp6904
(g15
g6
(g18
S'\r\xa1 ?'
p6905
tp6906
Rp6907
tp6908
a(g56
g6
(g18
S'/\x91\xd5='
p6909
tp6910
Rp6911
tp6912
a(g32
g6
(g18
S'\x9a\x08y='
p6913
tp6914
Rp6915
tp6916
a(g68
g6
(g18
S'\x88\xd6c='
p6917
tp6918
Rp6919
tp6920
a(g166
g6
(g18
S'EBG='
p6921
tp6922
Rp6923
tp6924
asg73
g15
sa(dp6925
g2
S'../../../data/emanuela/activity-recognition/images/NTCIR-Lifelog-256/u1/2015-03-19/b00002145_21i6bq_20150319_130323e.jpg'
p6926
sg4
(lp6927
(g32
g6
(g18
S'\x08\xfdy?'
p6928
tp6929
Rp6930
tp6931
a(g92
g6
(g18
S'\xe1L\xbf;'
p6932
tp6933
Rp6934
tp6935
a(g166
g6
(g18
S'\x00\xce\x9d;'
p6936
tp6937
Rp6938
tp6939
a(g15
g6
(g18
S'\xa7\xb4:;'
p6940
tp6941
Rp6942
tp6943
a(g2454
g6
(g18
S'\xdf\xfd\x05;'
p6944
tp6945
Rp6946
tp6947
asg73
g15
sa(dp6948
g2
S'../../../data/emanuela/activity-recognition/images/NTCIR-Lifelog-256/u1/2015-03-16/b00002375_21i6bq_20150316_152949e.jpg'
p6949
sg4
(lp6950
(g115
g6
(g18
S',g\xab>'
p6951
tp6952
Rp6953
tp6954
a(g56
g6
(g18
S'\xb9\x89\x82>'
p6955
tp6956
Rp6957
tp6958
a(g297
g6
(g18
S'\xeb$\x15>'
p6959
tp6960
Rp6961
tp6962
a(g513
g6
(g18
S'\x8c\xb4\xa8='
p6963
tp6964
Rp6965
tp6966
a(g127
g6
(g18
S'\xca\xf9\x84='
p6967
tp6968
Rp6969
tp6970
asg73
g15
sa(dp6971
g2
S'../../../data/emanuela/activity-recognition/images/NTCIR-Lifelog-256/u1/2015-03-17/b00001381_21i6bq_20150317_213908e.jpg'
p6972
sg4
(lp6973
(g15
g6
(g18
S'\xba\x1d\\?'
p6974
tp6975
Rp6976
tp6977
a(g166
g6
(g18
S'B\x18d='
p6978
tp6979
Rp6980
tp6981
a(g32
g6
(g18
S'\x0b\x06`='
p6982
tp6983
Rp6984
tp6985
a(g92
g6
(g18
S'\x9d?\x81<'
p6986
tp6987
Rp6988
tp6989
a(g44
g6
(g18
S'\x13Y\xd8;'
p6990
tp6991
Rp6992
tp6993
asg73
g15
sa(dp6994
g2
S'../../../data/emanuela/activity-recognition/images/NTCIR-Lifelog-256/u1/2015-03-17/b00001451_21i6bq_20150317_221642e.jpg'
p6995
sg4
(lp6996
(g15
g6
(g18
S'\xb9\x1f\xa5>'
p6997
tp6998
Rp6999
tp7000
a(g166
g6
(g18
S'\xad\x0eO>'
p7001
tp7002
Rp7003
tp7004
a(g32
g6
(g18
S"G\xff'>"
p7005
tp7006
Rp7007
tp7008
a(g44
g6
(g18
S'`~\xcb='
p7009
tp7010
Rp7011
tp7012
a(g56
g6
(g18
S'Z1\xb1='
p7013
tp7014
Rp7015
tp7016
asg73
g15
sa(dp7017
g2
S'../../../data/emanuela/activity-recognition/images/NTCIR-Lifelog-256/u1/2015-03-17/b00001383_21i6bq_20150317_214024e.jpg'
p7018
sg4
(lp7019
(g32
g6
(g18
S'\xccn\xe1>'
p7020
tp7021
Rp7022
tp7023
a(g15
g6
(g18
S'v\xeaU>'
p7024
tp7025
Rp7026
tp7027
a(g166
g6
(g18
S'\xc1\x12\xaa='
p7028
tp7029
Rp7030
tp7031
a(g56
g6
(g18
S'\xbc\x0c\x9e='
p7032
tp7033
Rp7034
tp7035
a(g297
g6
(g18
S'\xb5\xcez='
p7036
tp7037
Rp7038
tp7039
asg73
g15
sa(dp7040
g2
S'../../../data/emanuela/activity-recognition/images/NTCIR-Lifelog-256/u1/2015-03-08/b00000636_21i6bq_20150308_160142e.jpg'
p7041
sg4
(lp7042
(g32
g6
(g18
S'\xef\x08\xf8>'
p7043
tp7044
Rp7045
tp7046
a(g15
g6
(g18
S'\xe3\x88\x96>'
p7047
tp7048
Rp7049
tp7050
a(g56
g6
(g18
S'\x8d\xdap='
p7051
tp7052
Rp7053
tp7054
a(g324
g6
(g18
S'\x81}5='
p7055
tp7056
Rp7057
tp7058
a(g513
g6
(g18
S'\x1b\xe9\xad<'
p7059
tp7060
Rp7061
tp7062
asg73
g15
sa(dp7063
g2
S'../../../data/emanuela/activity-recognition/images/NTCIR-Lifelog-256/u1/2015-03-19/b00002466_21i6bq_20150319_164659e.jpg'
p7064
sg4
(lp7065
(g166
g6
(g18
S'\xe1&|?'
p7066
tp7067
Rp7068
tp7069
a(g56
g6
(g18
S'L\xab\xda;'
p7070
tp7071
Rp7072
tp7073
a(g44
g6
(g18
S'X\xde\x14;'
p7074
tp7075
Rp7076
tp7077
a(g92
g6
(g18
S'\x0f\xcb\x01;'
p7078
tp7079
Rp7080
tp7081
a(g32
g6
(g18
S'\x1eOd:'
p7082
tp7083
Rp7084
tp7085
asg73
g15
sa(dp7086
g2
S'../../../data/emanuela/activity-recognition/images/NTCIR-Lifelog-256/u1/2015-03-17/b00001347_21i6bq_20150317_211922e.jpg'
p7087
sg4
(lp7088
(g15
g6
(g18
S'\xd30C?'
p7089
tp7090
Rp7091
tp7092
a(g166
g6
(g18
S'\x1b\xc7\x80='
p7093
tp7094
Rp7095
tp7096
a(g56
g6
(g18
S'\xddD>='
p7097
tp7098
Rp7099
tp7100
a(g32
g6
(g18
S'\x81&\x18='
p7101
tp7102
Rp7103
tp7104
a(g44
g6
(g18
S'\xcfg\xde<'
p7105
tp7106
Rp7107
tp7108
asg73
g15
sa(dp7109
g2
S'../../../data/emanuela/activity-recognition/images/NTCIR-Lifelog-256/u1/2015-03-19/b00002496_21i6bq_20150319_170434e.jpg'
p7110
sg4
(lp7111
(g274
g6
(g18
S'\x16G\xfa>'
p7112
tp7113
Rp7114
tp7115
a(g56
g6
(g18
S'\xca*\xc0>'
p7116
tp7117
Rp7118
tp7119
a(g166
g6
(g18
S'\x0b\xd1\x10='
p7120
tp7121
Rp7122
tp7123
a(g513
g6
(g18
S'\xba&\xed<'
p7124
tp7125
Rp7126
tp7127
a(g297
g6
(g18
S'\xae\xfa[<'
p7128
tp7129
Rp7130
tp7131
asg73
g15
sa(dp7132
g2
S'../../../data/emanuela/activity-recognition/images/NTCIR-Lifelog-256/u1/2015-03-17/b00001350_21i6bq_20150317_212104e.jpg'
p7133
sg4
(lp7134
(g166
g6
(g18
S'\x82@\x98>'
p7135
tp7136
Rp7137
tp7138
a(g15
g6
(g18
S'\x87]i>'
p7139
tp7140
Rp7141
tp7142
a(g56
g6
(g18
S'cR">'
p7143
tp7144
Rp7145
tp7146
a(g44
g6
(g18
S'\xe9\x00\x9b='
p7147
tp7148
Rp7149
tp7150
a(g32
g6
(g18
S'\xe2\x08N='
p7151
tp7152
Rp7153
tp7154
asg73
g15
sa(dp7155
g2
S'../../../data/emanuela/activity-recognition/images/NTCIR-Lifelog-256/u1/2015-03-17/b00001333_21i6bq_20150317_211133e.jpg'
p7156
sg4
(lp7157
(g15
g6
(g18
S'\xb5!=?'
p7158
tp7159
Rp7160
tp7161
a(g166
g6
(g18
S'\xbdU\x0f>'
p7162
tp7163
Rp7164
tp7165
a(g44
g6
(g18
S'U#\x83='
p7166
tp7167
Rp7168
tp7169
a(g56
g6
(g18
S'"\xd2\xad<'
p7170
tp7171
Rp7172
tp7173
a(g32
g6
(g18
S'\xb9\xf4X<'
p7174
tp7175
Rp7176
tp7177
asg73
g15
sa(dp7178
g2
S'../../../data/emanuela/activity-recognition/images/NTCIR-Lifelog-256/u1/2015-03-17/b00001437_21i6bq_20150317_220822e.jpg'
p7179
sg4
(lp7180
(g166
g6
(g18
S'\x17\x88\xc0>'
p7181
tp7182
Rp7183
tp7184
a(g32
g6
(g18
S'*X7>'
p7185
tp7186
Rp7187
tp7188
a(g15
g6
(g18
S'j\x94\xe9='
p7189
tp7190
Rp7191
tp7192
a(g297
g6
(g18
S'\xd34\xa1='
p7193
tp7194
Rp7195
tp7196
a(g44
g6
(g18
S"T'\x9c="
p7197
tp7198
Rp7199
tp7200
asg73
g15
sa(dp7201
g2
S'../../../data/emanuela/activity-recognition/images/NTCIR-Lifelog-256/u1/2015-03-19/b00002472_21i6bq_20150319_165019e.jpg'
p7202
sg4
(lp7203
(g166
g6
(g18
S'\x882b?'
p7204
tp7205
Rp7206
tp7207
a(g92
g6
(g18
S'\xfe=\xd8='
p7208
tp7209
Rp7210
tp7211
a(g56
g6
(g18
S'\xbfNr;'
p7212
tp7213
Rp7214
tp7215
a(g15
g6
(g18
S'\x15\xf9\x03;'
p7216
tp7217
Rp7218
tp7219
a(g32
g6
(g18
S'\xdaw\xcf:'
p7220
tp7221
Rp7222
tp7223
asg73
g15
sa(dp7224
g2
S'../../../data/emanuela/activity-recognition/images/NTCIR-Lifelog-256/u1/2015-03-17/b00001468_21i6bq_20150317_222232e.jpg'
p7225
sg4
(lp7226
(g15
g6
(g18
S'\x89B=?'
p7227
tp7228
Rp7229
tp7230
a(g32
g6
(g18
S'\x82\x05\xf8='
p7231
tp7232
Rp7233
tp7234
a(g56
g6
(g18
S'\xda\x88\x85='
p7235
tp7236
Rp7237
tp7238
a(g166
g6
(g18
S'\x9b\x04\xa4<'
p7239
tp7240
Rp7241
tp7242
a(g44
g6
(g18
S'\x859\x8b<'
p7243
tp7244
Rp7245
tp7246
asg73
g15
sa(dp7247
g2
S'../../../data/emanuela/activity-recognition/images/NTCIR-Lifelog-256/u1/2015-03-19/b00002473_21i6bq_20150319_165053e.jpg'
p7248
sg4
(lp7249
(g166
g6
(g18
S'\x8dSy?'
p7250
tp7251
Rp7252
tp7253
a(g92
g6
(g18
S'\x17.G<'
p7254
tp7255
Rp7256
tp7257
a(g56
g6
(g18
S'\xbc\xb2\xb5;'
p7258
tp7259
Rp7260
tp7261
a(g44
g6
(g18
S'\x15\x9b];'
p7262
tp7263
Rp7264
tp7265
a(g32
g6
(g18
S'\x92\x08\xf0:'
p7266
tp7267
Rp7268
tp7269
asg73
g15
sa(dp7270
g2
S'../../../data/emanuela/activity-recognition/images/NTCIR-Lifelog-256/u1/2015-03-19/b00002532_21i6bq_20150319_172728e.jpg'
p7271
sg4
(lp7272
(g56
g6
(g18
S'\x84\x12H?'
p7273
tp7274
Rp7275
tp7276
a(g274
g6
(g18
S'<\xe1u='
p7277
tp7278
Rp7279
tp7280
a(g324
g6
(g18
S'>\x1a!='
p7281
tp7282
Rp7283
tp7284
a(g166
g6
(g18
S'd\xfd\x1b='
p7285
tp7286
Rp7287
tp7288
a(g44
g6
(g18
S'\x8a\x82\xc0<'
p7289
tp7290
Rp7291
tp7292
asg73
g15
sa(dp7293
g2
S'../../../data/emanuela/activity-recognition/images/NTCIR-Lifelog-256/u1/2015-03-17/b00001479_21i6bq_20150317_222849e.jpg'
p7294
sg4
(lp7295
(g324
g6
(g18
S'U;T>'
p7296
tp7297
Rp7298
tp7299
a(g2128
g6
(g18
S'\xd9\xb5E>'
p7300
tp7301
Rp7302
tp7303
a(g336
g6
(g18
S'\xfe\x11\x18>'
p7304
tp7305
Rp7306
tp7307
a(g659
g6
(g18
S'\x03&\xf8='
p7308
tp7309
Rp7310
tp7311
a(g147
g6
(g18
S'\xf8\x1e\xba='
p7312
tp7313
Rp7314
tp7315
asg73
g15
sa(dp7316
g2
S'../../../data/emanuela/activity-recognition/images/NTCIR-Lifelog-256/u1/2015-03-16/b00002400_21i6bq_20150316_154033e.jpg'
p7317
sg4
(lp7318
(g32
g6
(g18
S'3\xf3p>'
p7319
tp7320
Rp7321
tp7322
a(g2454
g6
(g18
S'2\n%>'
p7323
tp7324
Rp7325
tp7326
a(g297
g6
(g18
S'\xf60\x06>'
p7327
tp7328
Rp7329
tp7330
a(g147
g6
(g18
S'K\xf2\xb9='
p7331
tp7332
Rp7333
tp7334
a(g2128
g6
(g18
S'\x04\x97\xaf='
p7335
tp7336
Rp7337
tp7338
asg73
g15
sa(dp7339
g2
S'../../../data/emanuela/activity-recognition/images/NTCIR-Lifelog-256/u1/2015-03-19/b00002235_21i6bq_20150319_141050e.jpg'
p7340
sg4
(lp7341
(g15
g6
(g18
S'v\xdbS?'
p7342
tp7343
Rp7344
tp7345
a(g56
g6
(g18
S'\x93\xb4\x0b>'
p7346
tp7347
Rp7348
tp7349
a(g44
g6
(g18
S'F\xc6\xab<'
p7350
tp7351
Rp7352
tp7353
a(g32
g6
(g18
S'$?\x18<'
p7354
tp7355
Rp7356
tp7357
a(g274
g6
(g18
S'+\x19\xa7:'
p7358
tp7359
Rp7360
tp7361
asg73
g15
sa(dp7362
g2
S'../../../data/emanuela/activity-recognition/images/NTCIR-Lifelog-256/u1/2015-03-19/b00002531_21i6bq_20150319_172657e.jpg'
p7363
sg4
(lp7364
(g56
g6
(g18
S'\xd9\xd73?'
p7365
tp7366
Rp7367
tp7368
a(g274
g6
(g18
S'8\x11\x1f>'
p7369
tp7370
Rp7371
tp7372
a(g166
g6
(g18
S'\x88\xce\x8c='
p7373
tp7374
Rp7375
tp7376
a(g324
g6
(g18
S'\x15E\xc3<'
p7377
tp7378
Rp7379
tp7380
a(g297
g6
(g18
S'\xf4\xe4\x01<'
p7381
tp7382
Rp7383
tp7384
asg73
g15
sa(dp7385
g2
S'../../../data/emanuela/activity-recognition/images/NTCIR-Lifelog-256/u1/2015-03-16/b00002559_21i6bq_20150316_170931e.jpg'
p7386
sg4
(lp7387
(g127
g6
(g18
S'\x9d\n\x13>'
p7388
tp7389
Rp7390
tp7391
a(g324
g6
(g18
S'^\x16\x03>'
p7392
tp7393
Rp7394
tp7395
a(g2454
g6
(g18
S';{\xd2='
p7396
tp7397
Rp7398
tp7399
a(g32
g6
(g18
S'\xa7\x89\xc2='
p7400
tp7401
Rp7402
tp7403
a(g274
g6
(g18
S'l\xfa\xb5='
p7404
tp7405
Rp7406
tp7407
asg73
g15
sa(dp7408
g2
S'../../../data/emanuela/activity-recognition/images/NTCIR-Lifelog-256/u1/2015-03-08/b00000640_21i6bq_20150308_160356e.jpg'
p7409
sg4
(lp7410
(g32
g6
(g18
S'IS\x10?'
p7411
tp7412
Rp7413
tp7414
a(g15
g6
(g18
S'\x97\xd7c>'
p7415
tp7416
Rp7417
tp7418
a(g56
g6
(g18
S'\xe58Z='
p7419
tp7420
Rp7421
tp7422
a(g324
g6
(g18
S'7n)='
p7423
tp7424
Rp7425
tp7426
a(g92
g6
(g18
S'\x01W\xc5<'
p7427
tp7428
Rp7429
tp7430
asg73
g15
sa(dp7431
g2
S'../../../data/emanuela/activity-recognition/images/NTCIR-Lifelog-256/u1/2015-03-19/b00002492_21i6bq_20150319_170213e.jpg'
p7432
sg4
(lp7433
(g56
g6
(g18
S'\xe5\xf0\xe7>'
p7434
tp7435
Rp7436
tp7437
a(g274
g6
(g18
S'\rL\xc8>'
p7438
tp7439
Rp7440
tp7441
a(g166
g6
(g18
S'\x7f\xe0\x88='
p7442
tp7443
Rp7444
tp7445
a(g513
g6
(g18
S'\xd5\xb1\x9a<'
p7446
tp7447
Rp7448
tp7449
a(g297
g6
(g18
S'-\xd5i<'
p7450
tp7451
Rp7452
tp7453
asg73
g15
sa(dp7454
g2
S'../../../data/emanuela/activity-recognition/images/NTCIR-Lifelog-256/u1/2015-03-08/b00000653_21i6bq_20150308_161057e.jpg'
p7455
sg4
(lp7456
(g15
g6
(g18
S'\\\xe9\xf2>'
p7457
tp7458
Rp7459
tp7460
a(g32
g6
(g18
S"'\x04g>"
p7461
tp7462
Rp7463
tp7464
a(g56
g6
(g18
S'\x12\x03\xcb='
p7465
tp7466
Rp7467
tp7468
a(g324
g6
(g18
S'\xdb{g='
p7469
tp7470
Rp7471
tp7472
a(g274
g6
(g18
S'\xc3sK='
p7473
tp7474
Rp7475
tp7476
asg73
g15
sa(dp7477
g2
S'../../../data/emanuela/activity-recognition/images/NTCIR-Lifelog-256/u1/2015-03-19/b00002474_21i6bq_20150319_165131e.jpg'
p7478
sg4
(lp7479
(g166
g6
(g18
S'\xbb\xb2}?'
p7480
tp7481
Rp7482
tp7483
a(g92
g6
(g18
S'\xda%0;'
p7484
tp7485
Rp7486
tp7487
a(g44
g6
(g18
S'\xd0\xcb";'
p7488
tp7489
Rp7490
tp7491
a(g56
g6
(g18
S'\\\x06\t;'
p7492
tp7493
Rp7494
tp7495
a(g15
g6
(g18
S'\xcdMR:'
p7496
tp7497
Rp7498
tp7499
asg73
g15
sa(dp7500
g2
S'../../../data/emanuela/activity-recognition/images/NTCIR-Lifelog-256/u1/2015-03-19/b00002488_21i6bq_20150319_165937e.jpg'
p7501
sg4
(lp7502
(g166
g6
(g18
S'\xde\x08\x1b?'
p7503
tp7504
Rp7505
tp7506
a(g56
g6
(g18
S'O9S>'
p7507
tp7508
Rp7509
tp7510
a(g15
g6
(g18
S'\x17\xf82='
p7511
tp7512
Rp7513
tp7514
a(g32
g6
(g18
S'\xac<\x01='
p7515
tp7516
Rp7517
tp7518
a(g92
g6
(g18
S"'\xcc\xe7<"
p7519
tp7520
Rp7521
tp7522
asg73
g15
sa(dp7523
g2
S'../../../data/emanuela/activity-recognition/images/NTCIR-Lifelog-256/u1/2015-03-16/b00002557_21i6bq_20150316_170819e.jpg'
p7524
sg4
(lp7525
(g115
g6
(g18
S'\x07s\xaf>'
p7526
tp7527
Rp7528
tp7529
a(g127
g6
(g18
S'[29>'
p7530
tp7531
Rp7532
tp7533
a(g659
g6
(g18
S'\x8b2\x1b>'
p7534
tp7535
Rp7536
tp7537
a(g56
g6
(g18
S'\xce2\x08>'
p7538
tp7539
Rp7540
tp7541
a(g297
g6
(g18
S']\xd1N='
p7542
tp7543
Rp7544
tp7545
asg73
g15
sa(dp7546
g2
S'../../../data/emanuela/activity-recognition/images/NTCIR-Lifelog-256/u1/2015-03-19/b00002537_21i6bq_20150319_173011e.jpg'
p7547
sg4
(lp7548
(g166
g6
(g18
S'\x84\xbdN?'
p7549
tp7550
Rp7551
tp7552
a(g324
g6
(g18
S'9\xd7\x9b='
p7553
tp7554
Rp7555
tp7556
a(g336
g6
(g18
S'\xf5K%='
p7557
tp7558
Rp7559
tp7560
a(g56
g6
(g18
S'GV\xeb<'
p7561
tp7562
Rp7563
tp7564
a(g147
g6
(g18
S'p|\x94<'
p7565
tp7566
Rp7567
tp7568
asg73
g15
sa(dp7569
g2
S'../../../data/emanuela/activity-recognition/images/NTCIR-Lifelog-256/u1/2015-03-19/b00002471_21i6bq_20150319_164945e.jpg'
p7570
sg4
(lp7571
(g166
g6
(g18
S'DX}?'
p7572
tp7573
Rp7574
tp7575
a(g56
g6
(g18
S':\x8e\x8d;'
p7576
tp7577
Rp7578
tp7579
a(g44
g6
(g18
S'\xe8\xfa\xf7:'
p7580
tp7581
Rp7582
tp7583
a(g92
g6
(g18
S'\x1eC\x88:'
p7584
tp7585
Rp7586
tp7587
a(g15
g6
(g18
S'\xd8ZW:'
p7588
tp7589
Rp7590
tp7591
asg73
g15
sa(dp7592
g2
S'../../../data/emanuela/activity-recognition/images/NTCIR-Lifelog-256/u1/2015-03-19/b00002494_21i6bq_20150319_170322e.jpg'
p7593
sg4
(lp7594
(g56
g6
(g18
S'\x17\x1d\xd7>'
p7595
tp7596
Rp7597
tp7598
a(g274
g6
(g18
S'\xc4\x8d\xd1>'
p7599
tp7600
Rp7601
tp7602
a(g166
g6
(g18
S'\x83_Q='
p7603
tp7604
Rp7605
tp7606
a(g513
g6
(g18
S'\xb9p\x0c='
p7607
tp7608
Rp7609
tp7610
a(g297
g6
(g18
S'\x0c)\xbf<'
p7611
tp7612
Rp7613
tp7614
asg73
g15
sa(dp7615
g2
S'../../../data/emanuela/activity-recognition/images/NTCIR-Lifelog-256/u1/2015-03-19/b00002451_21i6bq_20150319_163906e.jpg'
p7616
sg4
(lp7617
(g166
g6
(g18
S'\xfd\xc9t?'
p7618
tp7619
Rp7620
tp7621
a(g56
g6
(g18
S'\xad\x84z<'
p7622
tp7623
Rp7624
tp7625
a(g32
g6
(g18
S'&\xdem<'
p7626
tp7627
Rp7628
tp7629
a(g44
g6
(g18
S'\x05\xf1\xa7;'
p7630
tp7631
Rp7632
tp7633
a(g92
g6
(g18
S'R\xdb\xd9:'
p7634
tp7635
Rp7636
tp7637
asg73
g15
sa(dp7638
g2
S'../../../data/emanuela/activity-recognition/images/NTCIR-Lifelog-256/u1/2015-03-17/b00001459_21i6bq_20150317_222113e.jpg'
p7639
sg4
(lp7640
(g15
g6
(g18
S'\xdf\xb9\x15?'
p7641
tp7642
Rp7643
tp7644
a(g166
g6
(g18
S'd\xec=>'
p7645
tp7646
Rp7647
tp7648
a(g32
g6
(g18
S'w\x10\x19>'
p7649
tp7650
Rp7651
tp7652
a(g56
g6
(g18
S's\xd3\xb3<'
p7653
tp7654
Rp7655
tp7656
a(g44
g6
(g18
S'^\xacq<'
p7657
tp7658
Rp7659
tp7660
asg73
g15
sa(dp7661
g2
S'../../../data/emanuela/activity-recognition/images/NTCIR-Lifelog-256/u1/2015-03-17/b00001310_21i6bq_20150317_205910e.jpg'
p7662
sg4
(lp7663
(g56
g6
(g18
S'\xcb\r\xe1>'
p7664
tp7665
Rp7666
tp7667
a(g15
g6
(g18
S'\x83\xe5N>'
p7668
tp7669
Rp7670
tp7671
a(g44
g6
(g18
S'\xa7\xf4\x13>'
p7672
tp7673
Rp7674
tp7675
a(g659
g6
(g18
S'\xe1T@='
p7676
tp7677
Rp7678
tp7679
a(g166
g6
(g18
S'\xba\x9f\xe5<'
p7680
tp7681
Rp7682
tp7683
asg73
g15
sa(dp7684
g2
S'../../../data/emanuela/activity-recognition/images/NTCIR-Lifelog-256/u1/2015-03-17/b00001341_21i6bq_20150317_211610e.jpg'
p7685
sg4
(lp7686
(g15
g6
(g18
S'%\x1a\x0f?'
p7687
tp7688
Rp7689
tp7690
a(g166
g6
(g18
S'\xe6i\x14>'
p7691
tp7692
Rp7693
tp7694
a(g32
g6
(g18
S'\x18q\xd8='
p7695
tp7696
Rp7697
tp7698
a(g56
g6
(g18
S'\x9a:\xa5='
p7699
tp7700
Rp7701
tp7702
a(g44
g6
(g18
S'% 8='
p7703
tp7704
Rp7705
tp7706
asg73
g15
sa(dp7707
g2
S'../../../data/emanuela/activity-recognition/images/NTCIR-Lifelog-256/u1/2015-03-17/b00001407_21i6bq_20150317_215456e.jpg'
p7708
sg4
(lp7709
(g15
g6
(g18
S'Gk\xfc>'
p7710
tp7711
Rp7712
tp7713
a(g32
g6
(g18
S't\xf35>'
p7714
tp7715
Rp7716
tp7717
a(g166
g6
(g18
S'\x1a#\xc3='
p7718
tp7719
Rp7720
tp7721
a(g92
g6
(g18
S'\xbe~c='
p7722
tp7723
Rp7724
tp7725
a(g56
g6
(g18
S'\xfd\xcb(='
p7726
tp7727
Rp7728
tp7729
asg73
g15
sa(dp7730
g2
S'../../../data/emanuela/activity-recognition/images/NTCIR-Lifelog-256/u1/2015-03-17/b00001371_21i6bq_20150317_213320e.jpg'
p7731
sg4
(lp7732
(g15
g6
(g18
S'\xb9\x0b9?'
p7733
tp7734
Rp7735
tp7736
a(g32
g6
(g18
S'\x82\xc9\x0e>'
p7737
tp7738
Rp7739
tp7740
a(g92
g6
(g18
S'+\x18\xf0='
p7741
tp7742
Rp7743
tp7744
a(g166
g6
(g18
S'\xb0\x891<'
p7745
tp7746
Rp7747
tp7748
a(g147
g6
(g18
S'2\x8e\x90;'
p7749
tp7750
Rp7751
tp7752
asg73
g15
sa(dp7753
g2
S'../../../data/emanuela/activity-recognition/images/NTCIR-Lifelog-256/u1/2015-03-17/b00001375_21i6bq_20150317_213532e.jpg'
p7754
sg4
(lp7755
(g15
g6
(g18
S'\xfc\xbcf?'
p7756
tp7757
Rp7758
tp7759
a(g32
g6
(g18
S'\xa6\x86v='
p7760
tp7761
Rp7762
tp7763
a(g44
g6
(g18
S'\xa52\x92<'
p7764
tp7765
Rp7766
tp7767
a(g166
g6
(g18
S'\xde>\x19<'
p7768
tp7769
Rp7770
tp7771
a(g92
g6
(g18
S'\xbb\x8f\xa8;'
p7772
tp7773
Rp7774
tp7775
asg73
g15
sa(dp7776
g2
S'../../../data/emanuela/activity-recognition/images/NTCIR-Lifelog-256/u1/2015-03-19/b00002480_21i6bq_20150319_165513e.jpg'
p7777
sg4
(lp7778
(g166
g6
(g18
S'\xbdA\xfd>'
p7779
tp7780
Rp7781
tp7782
a(g56
g6
(g18
S'\x99\xbd\x84>'
p7783
tp7784
Rp7785
tp7786
a(g92
g6
(g18
S'P\xa3J='
p7787
tp7788
Rp7789
tp7790
a(g32
g6
(g18
S'\xd3\x19=='
p7791
tp7792
Rp7793
tp7794
a(g15
g6
(g18
S'\xa4\xbb\n='
p7795
tp7796
Rp7797
tp7798
asg73
g15
sa(dp7799
g2
S'../../../data/emanuela/activity-recognition/images/NTCIR-Lifelog-256/u1/2015-03-19/b00002527_21i6bq_20150319_172443e.jpg'
p7800
sg4
(lp7801
(g56
g6
(g18
S'b\xb4Z?'
p7802
tp7803
Rp7804
tp7805
a(g166
g6
(g18
S'\xcd\xe2\x94='
p7806
tp7807
Rp7808
tp7809
a(g274
g6
(g18
S'\x13"\x0b='
p7810
tp7811
Rp7812
tp7813
a(g324
g6
(g18
S'\xebe\x8e<'
p7814
tp7815
Rp7816
tp7817
a(g44
g6
(g18
S'K\xe5\xc6;'
p7818
tp7819
Rp7820
tp7821
asg73
g15
sa(dp7822
g2
S'../../../data/emanuela/activity-recognition/images/NTCIR-Lifelog-256/u1/2015-03-17/b00001373_21i6bq_20150317_213424e.jpg'
p7823
sg4
(lp7824
(g15
g6
(g18
S'\x81\x04i?'
p7825
tp7826
Rp7827
tp7828
a(g32
g6
(g18
S'b\xfe>='
p7829
tp7830
Rp7831
tp7832
a(g44
g6
(g18
S'\\\xf8|<'
p7833
tp7834
Rp7835
tp7836
a(g92
g6
(g18
S"'\xd3r<"
p7837
tp7838
Rp7839
tp7840
a(g166
g6
(g18
S'\x83PT;'
p7841
tp7842
Rp7843
tp7844
asg73
g15
sa(dp7845
g2
S'../../../data/emanuela/activity-recognition/images/NTCIR-Lifelog-256/u1/2015-03-08/b00000639_21i6bq_20150308_160323e.jpg'
p7846
sg4
(lp7847
(g32
g6
(g18
S';2\x13?'
p7848
tp7849
Rp7850
tp7851
a(g15
g6
(g18
S'\xe6X\x8f>'
p7852
tp7853
Rp7854
tp7855
a(g56
g6
(g18
S'A\xf6\x04='
p7856
tp7857
Rp7858
tp7859
a(g324
g6
(g18
S'\x08f\xe6<'
p7860
tp7861
Rp7862
tp7863
a(g92
g6
(g18
S'\xc5\xc8\xb9<'
p7864
tp7865
Rp7866
tp7867
asg73
g15
sa(dp7868
g2
S'../../../data/emanuela/activity-recognition/images/NTCIR-Lifelog-256/u1/2015-03-17/b00001379_21i6bq_20150317_213758e.jpg'
p7869
sg4
(lp7870
(g15
g6
(g18
S'\xe0\x7fl?'
p7871
tp7872
Rp7873
tp7874
a(g32
g6
(g18
S'\xfd\xf11='
p7875
tp7876
Rp7877
tp7878
a(g166
g6
(g18
S'\xab3h<'
p7879
tp7880
Rp7881
tp7882
a(g92
g6
(g18
S'\xc2\xc6\x0e<'
p7883
tp7884
Rp7885
tp7886
a(g44
g6
(g18
S'jd\xba;'
p7887
tp7888
Rp7889
tp7890
asg73
g15
sa(dp7891
g2
S'../../../data/emanuela/activity-recognition/images/NTCIR-Lifelog-256/u1/2015-03-16/b00002552_21i6bq_20150316_170736e.jpg'
p7892
sg4
(lp7893
(g44
g6
(g18
S'c\x91\xc3>'
p7894
tp7895
Rp7896
tp7897
a(g324
g6
(g18
S'\xe1\xa0(>'
p7898
tp7899
Rp7900
tp7901
a(g56
g6
(g18
S'\xc6\xb9\x03>'
p7902
tp7903
Rp7904
tp7905
a(g68
g6
(g18
S'\x145\xf1='
p7906
tp7907
Rp7908
tp7909
a(g147
g6
(g18
S'\xd1-,='
p7910
tp7911
Rp7912
tp7913
asg73
g15
sa(dp7914
g2
S'../../../data/emanuela/activity-recognition/images/NTCIR-Lifelog-256/u1/2015-03-19/b00002489_21i6bq_20150319_170020e.jpg'
p7915
sg4
(lp7916
(g274
g6
(g18
S'\xc5E\xfb>'
p7917
tp7918
Rp7919
tp7920
a(g324
g6
(g18
S'K-.>'
p7921
tp7922
Rp7923
tp7924
a(g56
g6
(g18
S'!\x90\xa8='
p7925
tp7926
Rp7927
tp7928
a(g32
g6
(g18
S'j\xb3\x95='
p7929
tp7930
Rp7931
tp7932
a(g44
g6
(g18
S'uMA='
p7933
tp7934
Rp7935
tp7936
asg73
g15
sa(dp7937
g2
S'../../../data/emanuela/activity-recognition/images/NTCIR-Lifelog-256/u1/2015-03-19/b00002461_21i6bq_20150319_164352e.jpg'
p7938
sg4
(lp7939
(g56
g6
(g18
S'\xb7\xea\x9e>'
p7940
tp7941
Rp7942
tp7943
a(g274
g6
(g18
S'\x8c\x14U>'
p7944
tp7945
Rp7946
tp7947
a(g166
g6
(g18
S'\xda\xc14>'
p7948
tp7949
Rp7950
tp7951
a(g15
g6
(g18
S'A\xaa\xaf='
p7952
tp7953
Rp7954
tp7955
a(g44
g6
(g18
S'|\xb2[='
p7956
tp7957
Rp7958
tp7959
asg73
g15
sa(dp7960
g2
S'../../../data/emanuela/activity-recognition/images/NTCIR-Lifelog-256/u1/2015-03-19/b00002450_21i6bq_20150319_163906e.jpg'
p7961
sg4
(lp7962
(g166
g6
(g18
S'<\xb4}?'
p7963
tp7964
Rp7965
tp7966
a(g56
g6
(g18
S'\xba\xfd\xb5;'
p7967
tp7968
Rp7969
tp7970
a(g274
g6
(g18
S'xnS:'
p7971
tp7972
Rp7973
tp7974
a(g1035
g6
(g18
S'Z>Q:'
p7975
tp7976
Rp7977
tp7978
a(g44
g6
(g18
S"%'2:"
p7979
tp7980
Rp7981
tp7982
asg73
g15
sa(dp7983
g2
S'../../../data/emanuela/activity-recognition/images/NTCIR-Lifelog-256/u1/2015-03-08/b00000666_21i6bq_20150308_161827e.jpg'
p7984
sg4
(lp7985
(g15
g6
(g18
S'\x16\n\x11?'
p7986
tp7987
Rp7988
tp7989
a(g32
g6
(g18
S'\x90\xc0\xa6>'
p7990
tp7991
Rp7992
tp7993
a(g68
g6
(g18
S'\xb4Yt='
p7994
tp7995
Rp7996
tp7997
a(g92
g6
(g18
S'\xbe\xcaP<'
p7998
tp7999
Rp8000
tp8001
a(g274
g6
(g18
S'\xb1\xa1><'
p8002
tp8003
Rp8004
tp8005
asg73
g15
sa(dp8006
g2
S'../../../data/emanuela/activity-recognition/images/NTCIR-Lifelog-256/u1/2015-03-17/b00001318_21i6bq_20150317_210154e.jpg'
p8007
sg4
(lp8008
(g15
g6
(g18
S'Z\xec\xac>'
p8009
tp8010
Rp8011
tp8012
a(g56
g6
(g18
S'\x80\xbf_>'
p8013
tp8014
Rp8015
tp8016
a(g44
g6
(g18
S'\xfa\x05]>'
p8017
tp8018
Rp8019
tp8020
a(g324
g6
(g18
S'I\xd73='
p8021
tp8022
Rp8023
tp8024
a(g659
g6
(g18
S'{g\xee<'
p8025
tp8026
Rp8027
tp8028
asg73
g15
sa(dp8029
g2
S'../../../data/emanuela/activity-recognition/images/NTCIR-Lifelog-256/u1/2015-03-19/b00002339_21i6bq_20150319_151437e.jpg'
p8030
sg4
(lp8031
(g274
g6
(g18
S'\xca:*?'
p8032
tp8033
Rp8034
tp8035
a(g15
g6
(g18
S'#\xa6(>'
p8036
tp8037
Rp8038
tp8039
a(g32
g6
(g18
S'\t\x9d\x8f='
p8040
tp8041
Rp8042
tp8043
a(g324
g6
(g18
S'C(1='
p8044
tp8045
Rp8046
tp8047
a(g56
g6
(g18
S'\xb4\x95\xe4<'
p8048
tp8049
Rp8050
tp8051
asg73
g15
sa(dp8052
g2
S'../../../data/emanuela/activity-recognition/images/NTCIR-Lifelog-256/u1/2015-03-16/b00002396_21i6bq_20150316_153815e.jpg'
p8053
sg4
(lp8054
(g324
g6
(g18
S'\x8ci\xc1>'
p8055
tp8056
Rp8057
tp8058
a(g336
g6
(g18
S'-\x81\x1d>'
p8059
tp8060
Rp8061
tp8062
a(g147
g6
(g18
S'\xdc0\xbc='
p8063
tp8064
Rp8065
tp8066
a(g68
g6
(g18
S'\xad\xf0\x92='
p8067
tp8068
Rp8069
tp8070
a(g274
g6
(g18
S'4\xc9+='
p8071
tp8072
Rp8073
tp8074
asg73
g15
sa(dp8075
g2
S'../../../data/emanuela/activity-recognition/images/NTCIR-Lifelog-256/u1/2015-03-19/b00002457_21i6bq_20150319_164134e.jpg'
p8076
sg4
(lp8077
(g274
g6
(g18
S'\x95f\xd7>'
p8078
tp8079
Rp8080
tp8081
a(g56
g6
(g18
S'hQr>'
p8082
tp8083
Rp8084
tp8085
a(g166
g6
(g18
S'\xa9fA>'
p8086
tp8087
Rp8088
tp8089
a(g44
g6
(g18
S'u(\xe4<'
p8090
tp8091
Rp8092
tp8093
a(g92
g6
(g18
S'i\xaf\xcb<'
p8094
tp8095
Rp8096
tp8097
asg73
g15
sa(dp8098
g2
S'../../../data/emanuela/activity-recognition/images/NTCIR-Lifelog-256/u1/2015-03-16/b00002551_21i6bq_20150316_170736e.jpg'
p8099
sg4
(lp8100
(g56
g6
(g18
S'B\xf9\xd2>'
p8101
tp8102
Rp8103
tp8104
a(g115
g6
(g18
S'r\xe05>'
p8105
tp8106
Rp8107
tp8108
a(g127
g6
(g18
S'h\x8b\xc8='
p8109
tp8110
Rp8111
tp8112
a(g166
g6
(g18
S'chb='
p8113
tp8114
Rp8115
tp8116
a(g44
g6
(g18
S'Z\x8fL='
p8117
tp8118
Rp8119
tp8120
asg73
g15
sa(dp8121
g2
S'../../../data/emanuela/activity-recognition/images/NTCIR-Lifelog-256/u1/2015-03-19/b00002449_21i6bq_20150319_163905e.jpg'
p8122
sg4
(lp8123
(g166
g6
(g18
S'\xec\x81\x7f?'
p8124
tp8125
Rp8126
tp8127
a(g56
g6
(g18
S'\xe3\xf5\xd09'
p8128
tp8129
Rp8130
tp8131
a(g274
g6
(g18
S'h\x97\xc49'
p8132
tp8133
Rp8134
tp8135
a(g1035
g6
(g18
S'\x08Y\x909'
p8136
tp8137
Rp8138
tp8139
a(g324
g6
(g18
S'Q\x93\x849'
p8140
tp8141
Rp8142
tp8143
asg73
g15
sa(dp8144
g2
S'../../../data/emanuela/activity-recognition/images/NTCIR-Lifelog-256/u1/2015-03-17/b00001378_21i6bq_20150317_213717e.jpg'
p8145
sg4
(lp8146
(g15
g6
(g18
S'G\xafd?'
p8147
tp8148
Rp8149
tp8150
a(g32
g6
(g18
S'\xa0\x80\x7f='
p8151
tp8152
Rp8153
tp8154
a(g92
g6
(g18
S'K\x19\xa3<'
p8155
tp8156
Rp8157
tp8158
a(g166
g6
(g18
S'"\xd9\x05<'
p8159
tp8160
Rp8161
tp8162
a(g44
g6
(g18
S'6q\xcd;'
p8163
tp8164
Rp8165
tp8166
asg73
g15
sa(dp8167
g2
S'../../../data/emanuela/activity-recognition/images/NTCIR-Lifelog-256/u1/2015-03-17/b00001332_21i6bq_20150317_211054e.jpg'
p8168
sg4
(lp8169
(g15
g6
(g18
S'z\x9e@?'
p8170
tp8171
Rp8172
tp8173
a(g166
g6
(g18
S'4\xb3\xe5='
p8174
tp8175
Rp8176
tp8177
a(g44
g6
(g18
S'o\xe4x='
p8178
tp8179
Rp8180
tp8181
a(g68
g6
(g18
S'^\x82\x17='
p8182
tp8183
Rp8184
tp8185
a(g32
g6
(g18
S'%!x<'
p8186
tp8187
Rp8188
tp8189
asg73
g15
sa(dp8190
g2
S'../../../data/emanuela/activity-recognition/images/NTCIR-Lifelog-256/u1/2015-03-19/b00002485_21i6bq_20150319_165757e.jpg'
p8191
sg4
(lp8192
(g166
g6
(g18
S'Q\xe2,?'
p8193
tp8194
Rp8195
tp8196
a(g274
g6
(g18
S'\x1dw\xc4='
p8197
tp8198
Rp8199
tp8200
a(g56
g6
(g18
S'4\x1ay='
p8201
tp8202
Rp8203
tp8204
a(g92
g6
(g18
S'\x9981='
p8205
tp8206
Rp8207
tp8208
a(g32
g6
(g18
S'\xf8\xc7(='
p8209
tp8210
Rp8211
tp8212
asg73
g15
sa(dp8213
g2
S'../../../data/emanuela/activity-recognition/images/NTCIR-Lifelog-256/u1/2015-03-19/b00002334_21i6bq_20150319_151134e.jpg'
p8214
sg4
(lp8215
(g15
g6
(g18
S'Dp$?'
p8216
tp8217
Rp8218
tp8219
a(g32
g6
(g18
S',\xf5N>'
p8220
tp8221
Rp8222
tp8223
a(g56
g6
(g18
S'\xda)@='
p8224
tp8225
Rp8226
tp8227
a(g274
g6
(g18
S'Zo\x1c='
p8228
tp8229
Rp8230
tp8231
a(g324
g6
(g18
S'\xe9d\xb8<'
p8232
tp8233
Rp8234
tp8235
asg73
g15
sa(dp8236
g2
S'../../../data/emanuela/activity-recognition/images/NTCIR-Lifelog-256/u1/2015-03-17/b00001438_21i6bq_20150317_220901e.jpg'
p8237
sg4
(lp8238
(g166
g6
(g18
S"\xba\n'?"
p8239
tp8240
Rp8241
tp8242
a(g15
g6
(g18
S'\xad\x85\xa8='
p8243
tp8244
Rp8245
tp8246
a(g297
g6
(g18
S'\x07\xef_='
p8247
tp8248
Rp8249
tp8250
a(g147
g6
(g18
S'*\x84)='
p8251
tp8252
Rp8253
tp8254
a(g44
g6
(g18
S'\x14"\x0f='
p8255
tp8256
Rp8257
tp8258
asg73
g15
sa(dp8259
g2
S'../../../data/emanuela/activity-recognition/images/NTCIR-Lifelog-256/u1/2015-03-19/b00002469_21i6bq_20150319_164844e.jpg'
p8260
sg4
(lp8261
(g166
g6
(g18
S'\xd5\x86%?'
p8262
tp8263
Rp8264
tp8265
a(g56
g6
(g18
S'\x943\x17>'
p8266
tp8267
Rp8268
tp8269
a(g32
g6
(g18
S'\x14\xecV='
p8270
tp8271
Rp8272
tp8273
a(g92
g6
(g18
S'\xe7\xfaJ='
p8274
tp8275
Rp8276
tp8277
a(g15
g6
(g18
S'\xde\x04\n='
p8278
tp8279
Rp8280
tp8281
asg73
g15
sa(dp8282
g2
S'../../../data/emanuela/activity-recognition/images/NTCIR-Lifelog-256/u1/2015-03-17/b00001353_21i6bq_20150317_212246e.jpg'
p8283
sg4
(lp8284
(g15
g6
(g18
S'\xed\xbc>?'
p8285
tp8286
Rp8287
tp8288
a(g92
g6
(g18
S'\x1d\xe3g='
p8289
tp8290
Rp8291
tp8292
a(g513
g6
(g18
S'\x06\xaf\x18='
p8293
tp8294
Rp8295
tp8296
a(g44
g6
(g18
S'sg\x02='
p8297
tp8298
Rp8299
tp8300
a(g32
g6
(g18
S'F5\xd8<'
p8301
tp8302
Rp8303
tp8304
asg73
g15
sa(dp8305
g2
S'../../../data/emanuela/activity-recognition/images/NTCIR-Lifelog-256/u1/2015-03-19/b00002343_21i6bq_20150319_151649e.jpg'
p8306
sg4
(lp8307
(g15
g6
(g18
S'a[k?'
p8308
tp8309
Rp8310
tp8311
a(g32
g6
(g18
S'\xa8\xc9\xef<'
p8312
tp8313
Rp8314
tp8315
a(g44
g6
(g18
S'\xbd\x1f\x8c<'
p8316
tp8317
Rp8318
tp8319
a(g56
g6
(g18
S'\x8b\xaf~<'
p8320
tp8321
Rp8322
tp8323
a(g68
g6
(g18
S'\xc6f\x81;'
p8324
tp8325
Rp8326
tp8327
asg73
g15
sa(dp8328
g2
S'../../../data/emanuela/activity-recognition/images/NTCIR-Lifelog-256/u1/2015-03-08/b00000645_21i6bq_20150308_160638e.jpg'
p8329
sg4
(lp8330
(g32
g6
(g18
S'v\x87\x1a?'
p8331
tp8332
Rp8333
tp8334
a(g15
g6
(g18
S'\xbb\x04S>'
p8335
tp8336
Rp8337
tp8338
a(g274
g6
(g18
S'ZQ\x8e='
p8339
tp8340
Rp8341
tp8342
a(g56
g6
(g18
S'%\xd5\x02='
p8343
tp8344
Rp8345
tp8346
a(g92
g6
(g18
S'J\xcf\xcc<'
p8347
tp8348
Rp8349
tp8350
asg73
g15
sa(dp8351
g2
S'../../../data/emanuela/activity-recognition/images/NTCIR-Lifelog-256/u1/2015-03-16/b00002380_21i6bq_20150316_153156e.jpg'
p8352
sg4
(lp8353
(g274
g6
(g18
S'\xc8\x1c;?'
p8354
tp8355
Rp8356
tp8357
a(g324
g6
(g18
S'|\x9e#>'
p8358
tp8359
Rp8360
tp8361
a(g56
g6
(g18
S'\xcb\xcd\x05='
p8362
tp8363
Rp8364
tp8365
a(g32
g6
(g18
S'\xbe\xe8\xd5<'
p8366
tp8367
Rp8368
tp8369
a(g336
g6
(g18
S'g\xd4\x98<'
p8370
tp8371
Rp8372
tp8373
asg73
g15
sa(dp8374
g2
S'../../../data/emanuela/activity-recognition/images/NTCIR-Lifelog-256/u1/2015-03-19/b00002320_21i6bq_20150319_150329e.jpg'
p8375
sg4
(lp8376
(g15
g6
(g18
S'\xdf\x8ah?'
p8377
tp8378
Rp8379
tp8380
a(g32
g6
(g18
S's\x05\x9b='
p8381
tp8382
Rp8383
tp8384
a(g44
g6
(g18
S'\x80\xd0\xd4;'
p8385
tp8386
Rp8387
tp8388
a(g324
g6
(g18
S'\\0\x84;'
p8389
tp8390
Rp8391
tp8392
a(g56
g6
(g18
S'\xe0\x9a[;'
p8393
tp8394
Rp8395
tp8396
asg73
g15
sa(dp8397
g2
S'../../../data/emanuela/activity-recognition/images/NTCIR-Lifelog-256/u1/2015-03-17/b00001351_21i6bq_20150317_212137e.jpg'
p8398
sg4
(lp8399
(g15
g6
(g18
S'\x06\x82A?'
p8400
tp8401
Rp8402
tp8403
a(g56
g6
(g18
S'\xd5(r='
p8404
tp8405
Rp8406
tp8407
a(g166
g6
(g18
S'\x08\xf7C='
p8408
tp8409
Rp8410
tp8411
a(g44
g6
(g18
S'\x9335='
p8412
tp8413
Rp8414
tp8415
a(g32
g6
(g18
S'\xf6+\xf2<'
p8416
tp8417
Rp8418
tp8419
asg73
g15
sa(dp8420
g2
S'../../../data/emanuela/activity-recognition/images/NTCIR-Lifelog-256/u1/2015-03-17/b00001345_21i6bq_20150317_211821e.jpg'
p8421
sg4
(lp8422
(g15
g6
(g18
S']oT?'
p8423
tp8424
Rp8425
tp8426
a(g166
g6
(g18
S'K\xc4,='
p8427
tp8428
Rp8429
tp8430
a(g44
g6
(g18
S'\xc9D\x10='
p8431
tp8432
Rp8433
tp8434
a(g32
g6
(g18
S'2E\xc4<'
p8435
tp8436
Rp8437
tp8438
a(g56
g6
(g18
S'J\xb9\xb2<'
p8439
tp8440
Rp8441
tp8442
asg73
g15
sa(dp8443
g2
S'../../../data/emanuela/activity-recognition/images/NTCIR-Lifelog-256/u1/2015-03-08/b00000656_21i6bq_20150308_161241e.jpg'
p8444
sg4
(lp8445
(g15
g6
(g18
S'\xb7\xbdO?'
p8446
tp8447
Rp8448
tp8449
a(g32
g6
(g18
S'\x19n\xeb='
p8450
tp8451
Rp8452
tp8453
a(g68
g6
(g18
S'9\xe9.='
p8454
tp8455
Rp8456
tp8457
a(g324
g6
(g18
S')\x00\xc7;'
p8458
tp8459
Rp8460
tp8461
a(g44
g6
(g18
S'S\xe2\xb6;'
p8462
tp8463
Rp8464
tp8465
asg73
g15
sa(dp8466
g2
S'../../../data/emanuela/activity-recognition/images/NTCIR-Lifelog-256/u1/2015-03-08/b00000655_21i6bq_20150308_161208e.jpg'
p8467
sg4
(lp8468
(g15
g6
(g18
S'\xed\xa2??'
p8469
tp8470
Rp8471
tp8472
a(g32
g6
(g18
S'W\xe60>'
p8473
tp8474
Rp8475
tp8476
a(g68
g6
(g18
S'r#\x15='
p8477
tp8478
Rp8479
tp8480
a(g147
g6
(g18
S'\x8c\t=<'
p8481
tp8482
Rp8483
tp8484
a(g44
g6
(g18
S'NB\xb0;'
p8485
tp8486
Rp8487
tp8488
asg73
g15
sa(dp8489
g2
S'../../../data/emanuela/activity-recognition/images/NTCIR-Lifelog-256/u1/2015-03-19/b00002499_21i6bq_20150319_170631e.jpg'
p8490
sg4
(lp8491
(g56
g6
(g18
S'\xfe\xca\xfc>'
p8492
tp8493
Rp8494
tp8495
a(g274
g6
(g18
S'\xbf\r\xa6>'
p8496
tp8497
Rp8498
tp8499
a(g166
g6
(g18
S'3\x08\x8b='
p8500
tp8501
Rp8502
tp8503
a(g513
g6
(g18
S'\xee\xe6\xfa<'
p8504
tp8505
Rp8506
tp8507
a(g297
g6
(g18
S"#'\xc4<"
p8508
tp8509
Rp8510
tp8511
asg73
g15
sa(dp8512
g2
S'../../../data/emanuela/activity-recognition/images/NTCIR-Lifelog-256/u1/2015-03-16/b00002481_21i6bq_20150316_162924e.jpg'
p8513
sg4
(lp8514
(g15
g6
(g18
S'r\xecD>'
p8515
tp8516
Rp8517
tp8518
a(g56
g6
(g18
S'=58>'
p8519
tp8520
Rp8521
tp8522
a(g274
g6
(g18
S'\xb6h\x1c>'
p8523
tp8524
Rp8525
tp8526
a(g324
g6
(g18
S'\xa1\x98\x12>'
p8527
tp8528
Rp8529
tp8530
a(g44
g6
(g18
S"\xf8'\xc9="
p8531
tp8532
Rp8533
tp8534
asg73
g15
sa(dp8535
g2
S'../../../data/emanuela/activity-recognition/images/NTCIR-Lifelog-256/u1/2015-03-16/b00002560_21i6bq_20150316_171005e.jpg'
p8536
sg4
(lp8537
(g147
g6
(g18
S'Z\x8a\x83>'
p8538
tp8539
Rp8540
tp8541
a(g32
g6
(g18
S'\xfc\x1c+>'
p8542
tp8543
Rp8544
tp8545
a(g274
g6
(g18
S'\xc1\x9e\t>'
p8546
tp8547
Rp8548
tp8549
a(g166
g6
(g18
S'\xd5\xfb\xce='
p8550
tp8551
Rp8552
tp8553
a(g324
g6
(g18
S'\xd0^s='
p8554
tp8555
Rp8556
tp8557
asg73
g15
sa(dp8558
g2
S'../../../data/emanuela/activity-recognition/images/NTCIR-Lifelog-256/u1/2015-03-17/b00001364_21i6bq_20150317_212921e.jpg'
p8559
sg4
(lp8560
(g15
g6
(g18
S'Yw^?'
p8561
tp8562
Rp8563
tp8564
a(g32
g6
(g18
S'\xa0K,='
p8565
tp8566
Rp8567
tp8568
a(g44
g6
(g18
S'\x15\x81\x08='
p8569
tp8570
Rp8571
tp8572
a(g166
g6
(g18
S'\x901\x8a<'
p8573
tp8574
Rp8575
tp8576
a(g68
g6
(g18
S'Q3B<'
p8577
tp8578
Rp8579
tp8580
asg73
g15
sa(dp8581
g2
S'../../../data/emanuela/activity-recognition/images/NTCIR-Lifelog-256/u1/2015-03-08/b00000668_21i6bq_20150308_161933e.jpg'
p8582
sg4
(lp8583
(g15
g6
(g18
S'l-&?'
p8584
tp8585
Rp8586
tp8587
a(g32
g6
(g18
S'\xcc\xf9r>'
p8588
tp8589
Rp8590
tp8591
a(g68
g6
(g18
S'\x10\x96{='
p8592
tp8593
Rp8594
tp8595
a(g44
g6
(g18
S'\xdd;p<'
p8596
tp8597
Rp8598
tp8599
a(g92
g6
(g18
S'oB=<'
p8600
tp8601
Rp8602
tp8603
asg73
g15
sa(dp8604
g2
S'../../../data/emanuela/activity-recognition/images/NTCIR-Lifelog-256/u1/2015-03-08/b00000647_21i6bq_20150308_160748e.jpg'
p8605
sg4
(lp8606
(g32
g6
(g18
S'|g\xda>'
p8607
tp8608
Rp8609
tp8610
a(g15
g6
(g18
S'(\xa9\xcd>'
p8611
tp8612
Rp8613
tp8614
a(g274
g6
(g18
S'\xbe#\x19='
p8615
tp8616
Rp8617
tp8618
a(g56
g6
(g18
S'\x05\x0c\x00='
p8619
tp8620
Rp8621
tp8622
a(g92
g6
(g18
S'*-\xd0<'
p8623
tp8624
Rp8625
tp8626
asg73
g15
sa(dp8627
g2
S'../../../data/emanuela/activity-recognition/images/NTCIR-Lifelog-256/u1/2015-03-17/b00001406_21i6bq_20150317_215421e.jpg'
p8628
sg4
(lp8629
(g15
g6
(g18
S'\x1f\xcaK?'
p8630
tp8631
Rp8632
tp8633
a(g56
g6
(g18
S'\x8d]\x80='
p8634
tp8635
Rp8636
tp8637
a(g44
g6
(g18
S'Q\xa61='
p8638
tp8639
Rp8640
tp8641
a(g166
g6
(g18
S'j"\xe5<'
p8642
tp8643
Rp8644
tp8645
a(g32
g6
(g18
S'0\x9c\xb1<'
p8646
tp8647
Rp8648
tp8649
asg73
g15
sa(dp8650
g2
S'../../../data/emanuela/activity-recognition/images/NTCIR-Lifelog-256/u1/2015-03-17/b00001382_21i6bq_20150317_213943e.jpg'
p8651
sg4
(lp8652
(g274
g6
(g18
S'\xaf\x1b|?'
p8653
tp8654
Rp8655
tp8656
a(g32
g6
(g18
S'\xdf1\x92;'
p8657
tp8658
Rp8659
tp8660
a(g2454
g6
(g18
S'\xe7\xc8\x04;'
p8661
tp8662
Rp8663
tp8664
a(g166
g6
(g18
S'\x08\x18\xd6:'
p8665
tp8666
Rp8667
tp8668
a(g92
g6
(g18
S'\x05\x90\xc9:'
p8669
tp8670
Rp8671
tp8672
asg73
g15
sa(dp8673
g2
S'../../../data/emanuela/activity-recognition/images/NTCIR-Lifelog-256/u1/2015-03-17/b00001327_21i6bq_20150317_210744e.jpg'
p8674
sg4
(lp8675
(g56
g6
(g18
S'?\xa1\xc8>'
p8676
tp8677
Rp8678
tp8679
a(g15
g6
(g18
S'\xcb\xf5]>'
p8680
tp8681
Rp8682
tp8683
a(g659
g6
(g18
S'\x88\xb2\x94='
p8684
tp8685
Rp8686
tp8687
a(g513
g6
(g18
S'\xe6\x1ft='
p8688
tp8689
Rp8690
tp8691
a(g44
g6
(g18
S'\xe4\xdaY='
p8692
tp8693
Rp8694
tp8695
asg73
g15
sa(dp8696
g2
S'../../../data/emanuela/activity-recognition/images/NTCIR-Lifelog-256/u1/2015-03-17/b00001322_21i6bq_20150317_210434e.jpg'
p8697
sg4
(lp8698
(g15
g6
(g18
S'Z^\x1d?'
p8699
tp8700
Rp8701
tp8702
a(g44
g6
(g18
S')?\x17>'
p8703
tp8704
Rp8705
tp8706
a(g68
g6
(g18
S'D\xd4\xfc='
p8707
tp8708
Rp8709
tp8710
a(g32
g6
(g18
S'\xaf\x91f='
p8711
tp8712
Rp8713
tp8714
a(g166
g6
(g18
S'\x1eE\xc1<'
p8715
tp8716
Rp8717
tp8718
asg73
g15
sa(dp8719
g2
S'../../../data/emanuela/activity-recognition/images/NTCIR-Lifelog-256/u1/2015-03-19/b00002470_21i6bq_20150319_164915e.jpg'
p8720
sg4
(lp8721
(g56
g6
(g18
S'\xb3\xcd\xf2>'
p8722
tp8723
Rp8724
tp8725
a(g274
g6
(g18
S'\\\x0cP>'
p8726
tp8727
Rp8728
tp8729
a(g166
g6
(g18
S"'\xe9\xb8="
p8730
tp8731
Rp8732
tp8733
a(g44
g6
(g18
S'\xe9\x9d:='
p8734
tp8735
Rp8736
tp8737
a(g15
g6
(g18
S'\xf9\xb93='
p8738
tp8739
Rp8740
tp8741
asg73
g15
sa(dp8742
g2
S'../../../data/emanuela/activity-recognition/images/NTCIR-Lifelog-256/u1/2015-03-08/b00000664_21i6bq_20150308_161720e.jpg'
p8743
sg4
(lp8744
(g15
g6
(g18
S'qZ\x1b?'
p8745
tp8746
Rp8747
tp8748
a(g32
g6
(g18
S'\xff\xc2\x84>'
p8749
tp8750
Rp8751
tp8752
a(g68
g6
(g18
S'x\x83\xc4='
p8753
tp8754
Rp8755
tp8756
a(g44
g6
(g18
S'N\xaf\x05<'
p8757
tp8758
Rp8759
tp8760
a(g324
g6
(g18
S')\x10\xdc;'
p8761
tp8762
Rp8763
tp8764
asg73
g15
sa(dp8765
g2
S'../../../data/emanuela/activity-recognition/images/NTCIR-Lifelog-256/u1/2015-03-08/b00000667_21i6bq_20150308_161858e.jpg'
p8766
sg4
(lp8767
(g15
g6
(g18
S'\xd3\x9b>?'
p8768
tp8769
Rp8770
tp8771
a(g32
g6
(g18
S'\x1f\x85+>'
p8772
tp8773
Rp8774
tp8775
a(g68
g6
(g18
S'\x1d\rk='
p8776
tp8777
Rp8778
tp8779
a(g274
g6
(g18
S'9\xf8\xcb;'
p8780
tp8781
Rp8782
tp8783
a(g92
g6
(g18
S'\xf8\xe4\xc6;'
p8784
tp8785
Rp8786
tp8787
asg73
g15
sa(dp8788
g2
S'../../../data/emanuela/activity-recognition/images/NTCIR-Lifelog-256/u1/2015-03-19/b00002227_21i6bq_20150319_141043e.jpg'
p8789
sg4
(lp8790
(g15
g6
(g18
S'\xb5R-?'
p8791
tp8792
Rp8793
tp8794
a(g56
g6
(g18
S'\xa5J0>'
p8795
tp8796
Rp8797
tp8798
a(g44
g6
(g18
S'Z\xc0\r>'
p8799
tp8800
Rp8801
tp8802
a(g115
g6
(g18
S'1~o;'
p8803
tp8804
Rp8805
tp8806
a(g32
g6
(g18
S'\xd0\x8bA;'
p8807
tp8808
Rp8809
tp8810
asg73
g15
sa(dp8811
g2
S'../../../data/emanuela/activity-recognition/images/NTCIR-Lifelog-256/u1/2015-03-16/b00002399_21i6bq_20150316_154000e.jpg'
p8812
sg4
(lp8813
(g2454
g6
(g18
S'\xbe\x18\x05?'
p8814
tp8815
Rp8816
tp8817
a(g297
g6
(g18
S'~\xa1\x90='
p8818
tp8819
Rp8820
tp8821
a(g324
g6
(g18
S';r3='
p8822
tp8823
Rp8824
tp8825
a(g147
g6
(g18
S'_\xd1)='
p8826
tp8827
Rp8828
tp8829
a(g127
g6
(g18
S'i\xe9!='
p8830
tp8831
Rp8832
tp8833
asg73
g15
sa(dp8834
g2
S'../../../data/emanuela/activity-recognition/images/NTCIR-Lifelog-256/u1/2015-03-19/b00002312_21i6bq_20150319_145827e.jpg'
p8835
sg4
(lp8836
(g15
g6
(g18
S'o\xbeF?'
p8837
tp8838
Rp8839
tp8840
a(g32
g6
(g18
S'\x1fA\xf5='
p8841
tp8842
Rp8843
tp8844
a(g56
g6
(g18
S'B5\x04='
p8845
tp8846
Rp8847
tp8848
a(g44
g6
(g18
S'\xf9\x1e\xfc<'
p8849
tp8850
Rp8851
tp8852
a(g324
g6
(g18
S'\xbb{\xf0<'
p8853
tp8854
Rp8855
tp8856
asg73
g15
sa(dp8857
g2
S'../../../data/emanuela/activity-recognition/images/NTCIR-Lifelog-256/u1/2015-03-17/b00001376_21i6bq_20150317_213603e.jpg'
p8858
sg4
(lp8859
(g15
g6
(g18
S'\r\xcee?'
p8860
tp8861
Rp8862
tp8863
a(g44
g6
(g18
S'pl)='
p8864
tp8865
Rp8866
tp8867
a(g32
g6
(g18
S'\xdb\xe9\xed<'
p8868
tp8869
Rp8870
tp8871
a(g166
g6
(g18
S'\xa4f\x9e<'
p8872
tp8873
Rp8874
tp8875
a(g92
g6
(g18
S'\xe9$\x8e;'
p8876
tp8877
Rp8878
tp8879
asg73
g15
sa(dp8880
g2
S'../../../data/emanuela/activity-recognition/images/NTCIR-Lifelog-256/u1/2015-03-08/b00000665_21i6bq_20150308_161757e.jpg'
p8881
sg4
(lp8882
(g15
g6
(g18
S'D#\x1f?'
p8883
tp8884
Rp8885
tp8886
a(g32
g6
(g18
S'\xb2iQ>'
p8887
tp8888
Rp8889
tp8890
a(g68
g6
(g18
S'/}\x05>'
p8891
tp8892
Rp8893
tp8894
a(g92
g6
(g18
S'\r\xa4H<'
p8895
tp8896
Rp8897
tp8898
a(g44
g6
(g18
S'\x1f\xf2"<'
p8899
tp8900
Rp8901
tp8902
asg73
g15
sa(dp8903
g2
S'../../../data/emanuela/activity-recognition/images/NTCIR-Lifelog-256/u1/2015-03-16/b00002378_21i6bq_20150316_153154e.jpg'
p8904
sg4
(lp8905
(g274
g6
(g18
S'W@H?'
p8906
tp8907
Rp8908
tp8909
a(g324
g6
(g18
S'\xe6\xe3\xd7='
p8910
tp8911
Rp8912
tp8913
a(g56
g6
(g18
S'\xe8w\xda<'
p8914
tp8915
Rp8916
tp8917
a(g32
g6
(g18
S'`5\x8d<'
p8918
tp8919
Rp8920
tp8921
a(g68
g6
(g18
S'\xbd\x15m<'
p8922
tp8923
Rp8924
tp8925
asg73
g15
sa(dp8926
g2
S'../../../data/emanuela/activity-recognition/images/NTCIR-Lifelog-256/u1/2015-03-17/b00001462_21i6bq_20150317_222228e.jpg'
p8927
sg4
(lp8928
(g15
g6
(g18
S'\x01 >?'
p8929
tp8930
Rp8931
tp8932
a(g56
g6
(g18
S'\xe6\x97\xb8='
p8933
tp8934
Rp8935
tp8936
a(g32
g6
(g18
S'\x8c\xc9\xa3='
p8937
tp8938
Rp8939
tp8940
a(g44
g6
(g18
S'\x13\t\xff<'
p8941
tp8942
Rp8943
tp8944
a(g513
g6
(g18
S'\xd3\x9c\x84<'
p8945
tp8946
Rp8947
tp8948
asg73
g15
sa(dp8949
g2
S'../../../data/emanuela/activity-recognition/images/NTCIR-Lifelog-256/u1/2015-03-17/b00001463_21i6bq_20150317_222229e.jpg'
p8950
sg4
(lp8951
(g15
g6
(g18
S'\xa8xC?'
p8952
tp8953
Rp8954
tp8955
a(g32
g6
(g18
S'\xb9\x8e\xbf='
p8956
tp8957
Rp8958
tp8959
a(g56
g6
(g18
S'\x99T\xa6='
p8960
tp8961
Rp8962
tp8963
a(g44
g6
(g18
S'\xa9N\xd0<'
p8964
tp8965
Rp8966
tp8967
a(g513
g6
(g18
S't\xb5w<'
p8968
tp8969
Rp8970
tp8971
asg73
g15
sa(dp8972
g2
S'../../../data/emanuela/activity-recognition/images/NTCIR-Lifelog-256/u1/2015-03-19/b00002141_21i6bq_20150319_130057e.jpg'
p8973
sg4
(lp8974
(g15
g6
(g18
S'\x19d}?'
p8975
tp8976
Rp8977
tp8978
a(g32
g6
(g18
S'#\xce\x9d;'
p8979
tp8980
Rp8981
tp8982
a(g56
g6
(g18
S'Y#O;'
p8983
tp8984
Rp8985
tp8986
a(g44
g6
(g18
S'\x0cN\xe4:'
p8987
tp8988
Rp8989
tp8990
a(g68
g6
(g18
S'\x91\x1d-9'
p8991
tp8992
Rp8993
tp8994
asg73
g15
sa(dp8995
g2
S'../../../data/emanuela/activity-recognition/images/NTCIR-Lifelog-256/u1/2015-03-17/b00001390_21i6bq_20150317_214433e.jpg'
p8996
sg4
(lp8997
(g15
g6
(g18
S'\xee\xbb\xc2>'
p8998
tp8999
Rp9000
tp9001
a(g166
g6
(g18
S'\xb30\x17>'
p9002
tp9003
Rp9004
tp9005
a(g32
g6
(g18
S'\xe1]\x13>'
p9006
tp9007
Rp9008
tp9009
a(g56
g6
(g18
S'\xb4\xc7\xd1='
p9010
tp9011
Rp9012
tp9013
a(g92
g6
(g18
S'I\xd2\xa1='
p9014
tp9015
Rp9016
tp9017
asg73
g15
sa(dp9018
g2
S'../../../data/emanuela/activity-recognition/images/NTCIR-Lifelog-256/u1/2015-03-19/b00002144_21i6bq_20150319_130242e.jpg'
p9019
sg4
(lp9020
(g32
g6
(g18
S'\xc3yu?'
p9021
tp9022
Rp9023
tp9024
a(g15
g6
(g18
S'hE\xf6<'
p9025
tp9026
Rp9027
tp9028
a(g92
g6
(g18
S'\xfa\x84\xc0;'
p9029
tp9030
Rp9031
tp9032
a(g56
g6
(g18
S'@M\xdf:'
p9033
tp9034
Rp9035
tp9036
a(g513
g6
(g18
S'\xccDm:'
p9037
tp9038
Rp9039
tp9040
asg73
g15
sa(dp9041
g2
S'../../../data/emanuela/activity-recognition/images/NTCIR-Lifelog-256/u1/2015-03-17/b00001315_21i6bq_20150317_205921e.jpg'
p9042
sg4
(lp9043
(g15
g6
(g18
S'M)\x0b?'
p9044
tp9045
Rp9046
tp9047
a(g44
g6
(g18
S'\xae\xcc\xeb='
p9048
tp9049
Rp9050
tp9051
a(g32
g6
(g18
S'\xe0\x82\xb3='
p9052
tp9053
Rp9054
tp9055
a(g166
g6
(g18
S'\x9aB\xa2='
p9056
tp9057
Rp9058
tp9059
a(g68
g6
(g18
S'\r\xdd\x9b='
p9060
tp9061
Rp9062
tp9063
asg73
g15
sa(dp9064
g2
S'../../../data/emanuela/activity-recognition/images/NTCIR-Lifelog-256/u1/2015-03-19/b00002522_21i6bq_20150319_172152e.jpg'
p9065
sg4
(lp9066
(g56
g6
(g18
S'\x8d4\xb2>'
p9067
tp9068
Rp9069
tp9070
a(g274
g6
(g18
S'\xf8-\xa7>'
p9071
tp9072
Rp9073
tp9074
a(g166
g6
(g18
S'\x03I\\>'
p9075
tp9076
Rp9077
tp9078
a(g513
g6
(g18
S'F\xda\xa7<'
p9079
tp9080
Rp9081
tp9082
a(g32
g6
(g18
S'M\xc5\x88<'
p9083
tp9084
Rp9085
tp9086
asg73
g15
sa(dp9087
g2
S'../../../data/emanuela/activity-recognition/images/NTCIR-Lifelog-256/u1/2015-03-08/b00000660_21i6bq_20150308_161514e.jpg'
p9088
sg4
(lp9089
(g15
g6
(g18
S'y\xe3\x05?'
p9090
tp9091
Rp9092
tp9093
a(g32
g6
(g18
S'\x9d\x89\xa0>'
p9094
tp9095
Rp9096
tp9097
a(g68
g6
(g18
S'\xb1\x03\xce='
p9098
tp9099
Rp9100
tp9101
a(g44
g6
(g18
S'\xb9\xf1\x81<'
p9102
tp9103
Rp9104
tp9105
a(g274
g6
(g18
S'-5j<'
p9106
tp9107
Rp9108
tp9109
asg73
g15
sa(dp9110
g2
S'../../../data/emanuela/activity-recognition/images/NTCIR-Lifelog-256/u1/2015-03-08/b00000641_21i6bq_20150308_160427e.jpg'
p9111
sg4
(lp9112
(g32
g6
(g18
S'\xe7}3?'
p9113
tp9114
Rp9115
tp9116
a(g15
g6
(g18
S'\xe6\xaf >'
p9117
tp9118
Rp9119
tp9120
a(g274
g6
(g18
S'\x19\xc8,='
p9121
tp9122
Rp9123
tp9124
a(g92
g6
(g18
S'r\x94\x01='
p9125
tp9126
Rp9127
tp9128
a(g56
g6
(g18
S'\x13/\x96<'
p9129
tp9130
Rp9131
tp9132
asg73
g15
sa(dp9133
g2
S'../../../data/emanuela/activity-recognition/images/NTCIR-Lifelog-256/u1/2015-03-17/b00001359_21i6bq_20150317_212614e.jpg'
p9134
sg4
(lp9135
(g15
g6
(g18
S'\x82_`?'
p9136
tp9137
Rp9138
tp9139
a(g32
g6
(g18
S'\xe1\x12f='
p9140
tp9141
Rp9142
tp9143
a(g44
g6
(g18
S'0\x15\xa9<'
p9144
tp9145
Rp9146
tp9147
a(g56
g6
(g18
S'?\x14v<'
p9148
tp9149
Rp9150
tp9151
a(g274
g6
(g18
S'\xbb\x1c\xbb;'
p9152
tp9153
Rp9154
tp9155
asg73
g15
sa(dp9156
g2
S'../../../data/emanuela/activity-recognition/images/NTCIR-Lifelog-256/u1/2015-03-17/b00001380_21i6bq_20150317_213837e.jpg'
p9157
sg4
(lp9158
(g15
g6
(g18
S'\x8fnS?'
p9159
tp9160
Rp9161
tp9162
a(g32
g6
(g18
S'X.\xa1='
p9163
tp9164
Rp9165
tp9166
a(g166
g6
(g18
S'\x81\xd4x='
p9167
tp9168
Rp9169
tp9170
a(g92
g6
(g18
S'\xd2\xd1\x8e<'
p9171
tp9172
Rp9173
tp9174
a(g44
g6
(g18
S'u\xf7"<'
p9175
tp9176
Rp9177
tp9178
asg73
g15
sa(dp9179
g2
S'../../../data/emanuela/activity-recognition/images/NTCIR-Lifelog-256/u1/2015-03-17/b00001449_21i6bq_20150317_221536e.jpg'
p9180
sg4
(lp9181
(g15
g6
(g18
S'\xf9\xa5\x13?'
p9182
tp9183
Rp9184
tp9185
a(g32
g6
(g18
S'\xebsK>'
p9186
tp9187
Rp9188
tp9189
a(g56
g6
(g18
S'\xd2\x12f='
p9190
tp9191
Rp9192
tp9193
a(g166
g6
(g18
S'\xf7\xd9\x18='
p9194
tp9195
Rp9196
tp9197
a(g147
g6
(g18
S'_\xf3\xd8<'
p9198
tp9199
Rp9200
tp9201
asg73
g15
sa(dp9202
g2
S'../../../data/emanuela/activity-recognition/images/NTCIR-Lifelog-256/u1/2015-03-19/b00002316_21i6bq_20150319_150101e.jpg'
p9203
sg4
(lp9204
(g15
g6
(g18
S'.\x0b"?'
p9205
tp9206
Rp9207
tp9208
a(g32
g6
(g18
S'\xbb\x1d\x95>'
p9209
tp9210
Rp9211
tp9212
a(g56
g6
(g18
S'iV\xca<'
p9213
tp9214
Rp9215
tp9216
a(g92
g6
(g18
S'\xc1\xb3_<'
p9217
tp9218
Rp9219
tp9220
a(g147
g6
(g18
S'2|\xd7;'
p9221
tp9222
Rp9223
tp9224
asg73
g15
sa(dp9225
g2
S'../../../data/emanuela/activity-recognition/images/NTCIR-Lifelog-256/u1/2015-03-19/b00002136_21i6bq_20150319_125820e.jpg'
p9226
sg4
(lp9227
(g15
g6
(g18
S'\xb5p~?'
p9228
tp9229
Rp9230
tp9231
a(g32
g6
(g18
S'\xe5o{;'
p9232
tp9233
Rp9234
tp9235
a(g56
g6
(g18
S'\xdd\xfd\x98:'
p9236
tp9237
Rp9238
tp9239
a(g44
g6
(g18
S'247:'
p9240
tp9241
Rp9242
tp9243
a(g92
g6
(g18
S'dc\x159'
p9244
tp9245
Rp9246
tp9247
asg73
g15
sa(dp9248
g2
S'../../../data/emanuela/activity-recognition/images/NTCIR-Lifelog-256/u1/2015-03-17/b00001330_21i6bq_20150317_210933e.jpg'
p9249
sg4
(lp9250
(g15
g6
(g18
S'18;?'
p9251
tp9252
Rp9253
tp9254
a(g166
g6
(g18
S'\x9b\xd47>'
p9255
tp9256
Rp9257
tp9258
a(g32
g6
(g18
S'\x8c4\xcc<'
p9259
tp9260
Rp9261
tp9262
a(g68
g6
(g18
S'B\xc4\xbc<'
p9263
tp9264
Rp9265
tp9266
a(g44
g6
(g18
S'\xbcPW<'
p9267
tp9268
Rp9269
tp9270
asg73
g15
sa(dp9271
g2
S'../../../data/emanuela/activity-recognition/images/NTCIR-Lifelog-256/u1/2015-03-17/b00001329_21i6bq_20150317_210852e.jpg'
p9272
sg4
(lp9273
(g15
g6
(g18
S'\xbe-1?'
p9274
tp9275
Rp9276
tp9277
a(g44
g6
(g18
S'&\xce\x03>'
p9278
tp9279
Rp9280
tp9281
a(g166
g6
(g18
S'\xd9~\xe4='
p9282
tp9283
Rp9284
tp9285
a(g32
g6
(g18
S'\x90\x9f\xcc<'
p9286
tp9287
Rp9288
tp9289
a(g68
g6
(g18
S'\xcbB\xbe<'
p9290
tp9291
Rp9292
tp9293
asg73
g15
sa(dp9294
g2
S'../../../data/emanuela/activity-recognition/images/NTCIR-Lifelog-256/u1/2015-03-08/b00000638_21i6bq_20150308_160248e.jpg'
p9295
sg4
(lp9296
(g15
g6
(g18
S'$\xa6\xfb>'
p9297
tp9298
Rp9299
tp9300
a(g32
g6
(g18
S'\xa0\xec\xc7>'
p9301
tp9302
Rp9303
tp9304
a(g56
g6
(g18
S'\xf6\x97\x03='
p9305
tp9306
Rp9307
tp9308
a(g324
g6
(g18
S'\x9aq\xfa<'
p9309
tp9310
Rp9311
tp9312
a(g274
g6
(g18
S'\xdb\x00J<'
p9313
tp9314
Rp9315
tp9316
asg73
g15
sa(dp9317
g2
S'../../../data/emanuela/activity-recognition/images/NTCIR-Lifelog-256/u1/2015-03-19/b00002335_21i6bq_20150319_151214e.jpg'
p9318
sg4
(lp9319
(g32
g6
(g18
S',\xae\x0f?'
p9320
tp9321
Rp9322
tp9323
a(g15
g6
(g18
S'\xd2lq>'
p9324
tp9325
Rp9326
tp9327
a(g92
g6
(g18
S'\x98\xb9V='
p9328
tp9329
Rp9330
tp9331
a(g56
g6
(g18
S'\x89\xcb*='
p9332
tp9333
Rp9334
tp9335
a(g274
g6
(g18
S'z(\xe7<'
p9336
tp9337
Rp9338
tp9339
asg73
g15
sa(dp9340
g2
S'../../../data/emanuela/activity-recognition/images/NTCIR-Lifelog-256/u1/2015-03-17/b00001391_21i6bq_20150317_214506e.jpg'
p9341
sg4
(lp9342
(g15
g6
(g18
S'zK\xd4>'
p9343
tp9344
Rp9345
tp9346
a(g56
g6
(g18
S'\x81\x15)>'
p9347
tp9348
Rp9349
tp9350
a(g32
g6
(g18
S'\x80\x83\xde='
p9351
tp9352
Rp9353
tp9354
a(g166
g6
(g18
S's$\xdb='
p9355
tp9356
Rp9357
tp9358
a(g297
g6
(g18
S'\xdd\xc5]='
p9359
tp9360
Rp9361
tp9362
asg73
g15
sa(dp9363
g2
S'../../../data/emanuela/activity-recognition/images/NTCIR-Lifelog-256/u1/2015-03-17/b00001445_21i6bq_20150317_221310e.jpg'
p9364
sg4
(lp9365
(g15
g6
(g18
S'\x84\xc9\xde>'
p9366
tp9367
Rp9368
tp9369
a(g32
g6
(g18
S'\t\x82\x08>'
p9370
tp9371
Rp9372
tp9373
a(g166
g6
(g18
S'C9\xed='
p9374
tp9375
Rp9376
tp9377
a(g44
g6
(g18
S'B\xaa\xc8='
p9378
tp9379
Rp9380
tp9381
a(g56
g6
(g18
S'\x8d\x1c\xa7='
p9382
tp9383
Rp9384
tp9385
asg73
g15
sa(dp9386
g2
S'../../../data/emanuela/activity-recognition/images/NTCIR-Lifelog-256/u1/2015-03-06/b00000161_21i6bq_20150306_065933e.jpg'
p9387
sg4
(lp9388
(g115
g6
(g18
S'b.->'
p9389
tp9390
Rp9391
tp9392
a(g127
g6
(g18
S'n\xf9\n>'
p9393
tp9394
Rp9395
tp9396
a(g147
g6
(g18
S'\xe1\x82\x05>'
p9397
tp9398
Rp9399
tp9400
a(g56
g6
(g18
S'\x86A\xdd='
p9401
tp9402
Rp9403
tp9404
a(g297
g6
(g18
S'\x8b\xe6\xcf='
p9405
tp9406
Rp9407
tp9408
asg73
g15
sa(dp9409
g2
S'../../../data/emanuela/activity-recognition/images/NTCIR-Lifelog-256/u1/2015-03-16/b00002471_21i6bq_20150316_162359e.jpg'
p9410
sg4
(lp9411
(g324
g6
(g18
S'h(\xa9>'
p9412
tp9413
Rp9414
tp9415
a(g15
g6
(g18
S'i\xa9\x1b>'
p9416
tp9417
Rp9418
tp9419
a(g336
g6
(g18
S'\xd9m\xec='
p9420
tp9421
Rp9422
tp9423
a(g274
g6
(g18
S'N\xd8\xbf='
p9424
tp9425
Rp9426
tp9427
a(g56
g6
(g18
S'!7\xa4='
p9428
tp9429
Rp9430
tp9431
asg73
g15
sa(dp9432
g2
S'../../../data/emanuela/activity-recognition/images/NTCIR-Lifelog-256/u1/2015-03-19/b00002337_21i6bq_20150319_151333e.jpg'
p9433
sg4
(lp9434
(g274
g6
(g18
S'\x9a\x9e\xcc>'
p9435
tp9436
Rp9437
tp9438
a(g56
g6
(g18
S'7N\xbc>'
p9439
tp9440
Rp9441
tp9442
a(g324
g6
(g18
S'\xfdP\xa2='
p9443
tp9444
Rp9445
tp9446
a(g513
g6
(g18
S'\xaa\x0e,='
p9447
tp9448
Rp9449
tp9450
a(g147
g6
(g18
S'o`\xd9<'
p9451
tp9452
Rp9453
tp9454
asg73
g15
sa(dp9455
g2
S'../../../data/emanuela/activity-recognition/images/NTCIR-Lifelog-256/u1/2015-03-17/b00001360_21i6bq_20150317_212655e.jpg'
p9456
sg4
(lp9457
(g15
g6
(g18
S'\x15\xb3d?'
p9458
tp9459
Rp9460
tp9461
a(g32
g6
(g18
S'\x7f\x12D='
p9462
tp9463
Rp9464
tp9465
a(g44
g6
(g18
S'"\x9d\n='
p9466
tp9467
Rp9468
tp9469
a(g68
g6
(g18
S'\x81\x1b\xe2;'
p9470
tp9471
Rp9472
tp9473
a(g56
g6
(g18
S'\x80<\xb4;'
p9474
tp9475
Rp9476
tp9477
asg73
g15
sa(dp9478
g2
S'../../../data/emanuela/activity-recognition/images/NTCIR-Lifelog-256/u1/2015-03-19/b00002261_21i6bq_20150319_142747e.jpg'
p9479
sg4
(lp9480
(g15
g6
(g18
S'\xd9\xb7\x0b?'
p9481
tp9482
Rp9483
tp9484
a(g56
g6
(g18
S'\xa7\x91\x1b>'
p9485
tp9486
Rp9487
tp9488
a(g32
g6
(g18
S'M\xc3\xa3='
p9489
tp9490
Rp9491
tp9492
a(g44
g6
(g18
S'\xa6\x07\x87='
p9493
tp9494
Rp9495
tp9496
a(g166
g6
(g18
S'\xd9F\x85='
p9497
tp9498
Rp9499
tp9500
asg73
g15
sa(dp9501
g2
S'../../../data/emanuela/activity-recognition/images/NTCIR-Lifelog-256/u1/2015-03-16/b00002473_21i6bq_20150316_162505e.jpg'
p9502
sg4
(lp9503
(g324
g6
(g18
S'E0w>'
p9504
tp9505
Rp9506
tp9507
a(g15
g6
(g18
S'\x06\x83^>'
p9508
tp9509
Rp9510
tp9511
a(g336
g6
(g18
S'9i\x02>'
p9512
tp9513
Rp9514
tp9515
a(g56
g6
(g18
S'\x12I\xc1='
p9516
tp9517
Rp9518
tp9519
a(g44
g6
(g18
S' \r\xa9='
p9520
tp9521
Rp9522
tp9523
asg73
g15
sa(dp9524
g2
S'../../../data/emanuela/activity-recognition/images/NTCIR-Lifelog-256/u1/2015-03-19/b00002260_21i6bq_20150319_142714e.jpg'
p9525
sg4
(lp9526
(g15
g6
(g18
S'\xc1t??'
p9527
tp9528
Rp9529
tp9530
a(g56
g6
(g18
S'\xf6p6>'
p9531
tp9532
Rp9533
tp9534
a(g44
g6
(g18
S'U\x9b\xf6<'
p9535
tp9536
Rp9537
tp9538
a(g32
g6
(g18
S'=,\xa7<'
p9539
tp9540
Rp9541
tp9542
a(g274
g6
(g18
S'\xb1\xeb\xf0;'
p9543
tp9544
Rp9545
tp9546
asg73
g15
sa(dp9547
g2
S'../../../data/emanuela/activity-recognition/images/NTCIR-Lifelog-256/u1/2015-03-19/b00002319_21i6bq_20150319_150251e.jpg'
p9548
sg4
(lp9549
(g15
g6
(g18
S'\x18\x17\x04?'
p9550
tp9551
Rp9552
tp9553
a(g32
g6
(g18
S'\x14\xa5\x82>'
p9554
tp9555
Rp9556
tp9557
a(g324
g6
(g18
S'h\x1c\x06>'
p9558
tp9559
Rp9560
tp9561
a(g44
g6
(g18
S'\xd1n\n='
p9562
tp9563
Rp9564
tp9565
a(g92
g6
(g18
S'\xb13\xad<'
p9566
tp9567
Rp9568
tp9569
asg73
g15
sa(dp9570
g2
S'../../../data/emanuela/activity-recognition/images/NTCIR-Lifelog-256/u1/2015-03-19/b00002143_21i6bq_20150319_130201e.jpg'
p9571
sg4
(lp9572
(g15
g6
(g18
S'~\xcfg?'
p9573
tp9574
Rp9575
tp9576
a(g32
g6
(g18
S'\xab\xad\x9c='
p9577
tp9578
Rp9579
tp9580
a(g44
g6
(g18
S'\xbeO5<'
p9581
tp9582
Rp9583
tp9584
a(g92
g6
(g18
S'h:\x80;'
p9585
tp9586
Rp9587
tp9588
a(g513
g6
(g18
S'\x82O\x97:'
p9589
tp9590
Rp9591
tp9592
asg73
g15
sa(dp9593
g2
S'../../../data/emanuela/activity-recognition/images/NTCIR-Lifelog-256/u1/2015-03-19/b00002452_21i6bq_20150319_163907e.jpg'
p9594
sg4
(lp9595
(g166
g6
(g18
S'\xdeqg?'
p9596
tp9597
Rp9598
tp9599
a(g32
g6
(g18
S'\x01\x068='
p9600
tp9601
Rp9602
tp9603
a(g56
g6
(g18
S'\x8e\r\xe3<'
p9604
tp9605
Rp9606
tp9607
a(g44
g6
(g18
S'\xedw\xb0;'
p9608
tp9609
Rp9610
tp9611
a(g92
g6
(g18
S'<\xfd\x9b;'
p9612
tp9613
Rp9614
tp9615
asg73
g15
sa(dp9616
g2
S'../../../data/emanuela/activity-recognition/images/NTCIR-Lifelog-256/u1/2015-03-19/b00002313_21i6bq_20150319_145904e.jpg'
p9617
sg4
(lp9618
(g15
g6
(g18
S'9\xa4Q?'
p9619
tp9620
Rp9621
tp9622
a(g32
g6
(g18
S'\xab\xbd\x14>'
p9623
tp9624
Rp9625
tp9626
a(g92
g6
(g18
S'\x9fl=<'
p9627
tp9628
Rp9629
tp9630
a(g56
g6
(g18
S'a\xd2&<'
p9631
tp9632
Rp9633
tp9634
a(g44
g6
(g18
S'\x80\xda\xe4;'
p9635
tp9636
Rp9637
tp9638
asg73
g15
sa(dp9639
g2
S'../../../data/emanuela/activity-recognition/images/NTCIR-Lifelog-256/u1/2015-03-19/b00002516_21i6bq_20150319_171804e.jpg'
p9640
sg4
(lp9641
(g56
g6
(g18
S']\xf9\x02?'
p9642
tp9643
Rp9644
tp9645
a(g166
g6
(g18
S'\xc8\xac^>'
p9646
tp9647
Rp9648
tp9649
a(g274
g6
(g18
S'\xb8\x869>'
p9650
tp9651
Rp9652
tp9653
a(g297
g6
(g18
S'\xcf\x13\x04='
p9654
tp9655
Rp9656
tp9657
a(g15
g6
(g18
S'/UV<'
p9658
tp9659
Rp9660
tp9661
asg73
g15
sa(dp9662
g2
S'../../../data/emanuela/activity-recognition/images/NTCIR-Lifelog-256/u1/2015-03-16/b00002489_21i6bq_20150316_163358e.jpg'
p9663
sg4
(lp9664
(g324
g6
(g18
S'\xac\xb7\xce>'
p9665
tp9666
Rp9667
tp9668
a(g147
g6
(g18
S'\xecY\xed='
p9669
tp9670
Rp9671
tp9672
a(g127
g6
(g18
S'\x94\xd5\xb8='
p9673
tp9674
Rp9675
tp9676
a(g274
g6
(g18
S'\x93\xff\xb4='
p9677
tp9678
Rp9679
tp9680
a(g2128
g6
(g18
S'\xaa\xa7\x9a='
p9681
tp9682
Rp9683
tp9684
asg73
g15
sa(dp9685
g2
S'../../../data/emanuela/activity-recognition/images/NTCIR-Lifelog-256/u1/2015-03-17/b00001405_21i6bq_20150317_215340e.jpg'
p9686
sg4
(lp9687
(g15
g6
(g18
S'}o\xfd>'
p9688
tp9689
Rp9690
tp9691
a(g32
g6
(g18
S'\xd9\xef4>'
p9692
tp9693
Rp9694
tp9695
a(g166
g6
(g18
S'\xef\x16\x01>'
p9696
tp9697
Rp9698
tp9699
a(g56
g6
(g18
S'\xac\xcb>='
p9700
tp9701
Rp9702
tp9703
a(g297
g6
(g18
S'\x8cS\t='
p9704
tp9705
Rp9706
tp9707
asg73
g15
sa(dp9708
g2
S'../../../data/emanuela/activity-recognition/images/NTCIR-Lifelog-256/u1/2015-03-17/b00001452_21i6bq_20150317_221712e.jpg'
p9709
sg4
(lp9710
(g15
g6
(g18
S'\xf2\xe0\x0b?'
p9711
tp9712
Rp9713
tp9714
a(g32
g6
(g18
S'\xd1\xf4>>'
p9715
tp9716
Rp9717
tp9718
a(g166
g6
(g18
S'\xd5\xd7\x8c='
p9719
tp9720
Rp9721
tp9722
a(g44
g6
(g18
S'\x9d\x0c|='
p9723
tp9724
Rp9725
tp9726
a(g56
g6
(g18
S'\xe6ng='
p9727
tp9728
Rp9729
tp9730
asg73
g15
sa(dp9731
g2
S'../../../data/emanuela/activity-recognition/images/NTCIR-Lifelog-256/u1/2015-03-19/b00002447_21i6bq_20150319_163904e.jpg'
p9732
sg4
(lp9733
(g166
g6
(g18
S'\x02sC?'
p9734
tp9735
Rp9736
tp9737
a(g56
g6
(g18
S'\x89\xeb\x14>'
p9738
tp9739
Rp9740
tp9741
a(g274
g6
(g18
S'\xf5\xc8\x97<'
p9742
tp9743
Rp9744
tp9745
a(g32
g6
(g18
S'\xd1g\x96<'
p9746
tp9747
Rp9748
tp9749
a(g44
g6
(g18
S'M\x90Q<'
p9750
tp9751
Rp9752
tp9753
asg73
g15
sa(dp9754
g2
S'../../../data/emanuela/activity-recognition/images/NTCIR-Lifelog-256/u1/2015-03-16/b00002383_21i6bq_20150316_153158e.jpg'
p9755
sg4
(lp9756
(g324
g6
(g18
S'\x05j\x05?'
p9757
tp9758
Rp9759
tp9760
a(g32
g6
(g18
S"'^\x04>"
p9761
tp9762
Rp9763
tp9764
a(g274
g6
(g18
S'\xe7\n\xbc='
p9765
tp9766
Rp9767
tp9768
a(g56
g6
(g18
S'\x9ekN='
p9769
tp9770
Rp9771
tp9772
a(g147
g6
(g18
S'\xe3>=='
p9773
tp9774
Rp9775
tp9776
asg73
g15
sa(dp9777
g2
S'../../../data/emanuela/activity-recognition/images/NTCIR-Lifelog-256/u1/2015-03-19/b00002484_21i6bq_20150319_165740e.jpg'
p9778
sg4
(lp9779
(g166
g6
(g18
S'^\xfbx?'
p9780
tp9781
Rp9782
tp9783
a(g56
g6
(g18
S'\xbf\x1d#<'
p9784
tp9785
Rp9786
tp9787
a(g44
g6
(g18
S'l\xed\xb8;'
p9788
tp9789
Rp9790
tp9791
a(g274
g6
(g18
S'\x15\x81<;'
p9792
tp9793
Rp9794
tp9795
a(g147
g6
(g18
S'-F\x08;'
p9796
tp9797
Rp9798
tp9799
asg73
g15
sa(dp9800
g2
S'../../../data/emanuela/activity-recognition/images/NTCIR-Lifelog-256/u1/2015-03-19/b00002465_21i6bq_20150319_164619e.jpg'
p9801
sg4
(lp9802
(g166
g6
(g18
S'\xd8\x846?'
p9803
tp9804
Rp9805
tp9806
a(g56
g6
(g18
S'\xd8\x07\xdd='
p9807
tp9808
Rp9809
tp9810
a(g15
g6
(g18
S'p\x85A='
p9811
tp9812
Rp9813
tp9814
a(g32
g6
(g18
S'\xad\xb0\x12='
p9815
tp9816
Rp9817
tp9818
a(g44
g6
(g18
S'h\xe3\xfc<'
p9819
tp9820
Rp9821
tp9822
asg73
g15
sa(dp9823
g2
S'../../../data/emanuela/activity-recognition/images/NTCIR-Lifelog-256/u1/2015-03-17/b00001337_21i6bq_20150317_211340e.jpg'
p9824
sg4
(lp9825
(g15
g6
(g18
S'\xf5\x8a\x15?'
p9826
tp9827
Rp9828
tp9829
a(g166
g6
(g18
S'\xe6\xf2X>'
p9830
tp9831
Rp9832
tp9833
a(g32
g6
(g18
S'\xd3\x89\x8b='
p9834
tp9835
Rp9836
tp9837
a(g56
g6
(g18
S'\xbe\x82E='
p9838
tp9839
Rp9840
tp9841
a(g44
g6
(g18
S'\x04\x07-='
p9842
tp9843
Rp9844
tp9845
asg73
g15
sa(dp9846
g2
S'../../../data/emanuela/activity-recognition/images/NTCIR-Lifelog-256/u1/2015-03-19/b00002262_21i6bq_20150319_142820e.jpg'
p9847
sg4
(lp9848
(g15
g6
(g18
S'7\xcfj?'
p9849
tp9850
Rp9851
tp9852
a(g56
g6
(g18
S'\xc6c\x87<'
p9853
tp9854
Rp9855
tp9856
a(g2128
g6
(g18
S'\xebAP<'
p9857
tp9858
Rp9859
tp9860
a(g44
g6
(g18
S'\x9fQ\x13<'
p9861
tp9862
Rp9863
tp9864
a(g297
g6
(g18
S'\x15\xb9\r<'
p9865
tp9866
Rp9867
tp9868
asg73
g15
sa(dp9869
g2
S'../../../data/emanuela/activity-recognition/images/NTCIR-Lifelog-256/u1/2015-03-06/b00000191_21i6bq_20150306_071833e.jpg'
p9870
sg4
(lp9871
(g15
g6
(g18
S'\x8e\x90\x16?'
p9872
tp9873
Rp9874
tp9875
a(g324
g6
(g18
S'E\x86\x97='
p9876
tp9877
Rp9878
tp9879
a(g336
g6
(g18
S'\x9e\x9cv='
p9880
tp9881
Rp9882
tp9883
a(g115
g6
(g18
S'\x19\x97C='
p9884
tp9885
Rp9886
tp9887
a(g147
g6
(g18
S'\xf3\x9b8='
p9888
tp9889
Rp9890
tp9891
asg73
g15
sa(dp9892
g2
S'../../../data/emanuela/activity-recognition/images/NTCIR-Lifelog-256/u1/2015-03-16/b00002390_21i6bq_20150316_153435e.jpg'
p9893
sg4
(lp9894
(g324
g6
(g18
S'D{a>'
p9895
tp9896
Rp9897
tp9898
a(g32
g6
(g18
S'\x13\xb9\r>'
p9899
tp9900
Rp9901
tp9902
a(g147
g6
(g18
S'f\xb3\x00>'
p9903
tp9904
Rp9905
tp9906
a(g15
g6
(g18
S' \xa3\xd1='
p9907
tp9908
Rp9909
tp9910
a(g56
g6
(g18
S'\x9d\xe6\xd0='
p9911
tp9912
Rp9913
tp9914
asg73
g15
sa(dp9915
g2
S'../../../data/emanuela/activity-recognition/images/NTCIR-Lifelog-256/u1/2015-03-19/b00002476_21i6bq_20150319_165241e.jpg'
p9916
sg4
(lp9917
(g166
g6
(g18
S'iZh?'
p9918
tp9919
Rp9920
tp9921
a(g56
g6
(g18
S'\x10\xfc\xe5<'
p9922
tp9923
Rp9924
tp9925
a(g92
g6
(g18
S'\x88\xf7q<'
p9926
tp9927
Rp9928
tp9929
a(g44
g6
(g18
S'\x89\x87\x1f<'
p9930
tp9931
Rp9932
tp9933
a(g147
g6
(g18
S'\x9e\x9f\x17<'
p9934
tp9935
Rp9936
tp9937
asg73
g15
sa(dp9938
g2
S'../../../data/emanuela/activity-recognition/images/NTCIR-Lifelog-256/u1/2015-03-17/b00001355_21i6bq_20150317_212350e.jpg'
p9939
sg4
(lp9940
(g15
g6
(g18
S'\xc3sK?'
p9941
tp9942
Rp9943
tp9944
a(g32
g6
(g18
S'\x14Y$>'
p9945
tp9946
Rp9947
tp9948
a(g92
g6
(g18
S'\x17\xb3Z<'
p9949
tp9950
Rp9951
tp9952
a(g44
g6
(g18
S'\xa6rQ<'
p9953
tp9954
Rp9955
tp9956
a(g56
g6
(g18
S'"H\x8f;'
p9957
tp9958
Rp9959
tp9960
asg73
g15
sa(dp9961
g2
S'../../../data/emanuela/activity-recognition/images/NTCIR-Lifelog-256/u1/2015-03-17/b00001393_21i6bq_20150317_214620e.jpg'
p9962
sg4
(lp9963
(g15
g6
(g18
S'*\x9e\xfe>'
p9964
tp9965
Rp9966
tp9967
a(g32
g6
(g18
S'\xb2\x87\x1b>'
p9968
tp9969
Rp9970
tp9971
a(g297
g6
(g18
S'7*\xbf='
p9972
tp9973
Rp9974
tp9975
a(g56
g6
(g18
S'n+\xa9='
p9976
tp9977
Rp9978
tp9979
a(g166
g6
(g18
S'=\xe9u='
p9980
tp9981
Rp9982
tp9983
asg73
g15
sa(dp9984
g2
S'../../../data/emanuela/activity-recognition/images/NTCIR-Lifelog-256/u1/2015-03-17/b00001336_21i6bq_20150317_211309e.jpg'
p9985
sg4
(lp9986
(g166
g6
(g18
S'\x90\xdb\xa7>'
p9987
tp9988
Rp9989
tp9990
a(g15
g6
(g18
S'l<\x8b>'
p9991
tp9992
Rp9993
tp9994
a(g32
g6
(g18
S'\xeaU\x17>'
p9995
tp9996
Rp9997
tp9998
a(g56
g6
(g18
S'\x00\xdd\xfe='
p9999
tp10000
Rp10001
tp10002
a(g92
g6
(g18
S'^\xa9\xd2<'
p10003
tp10004
Rp10005
tp10006
asg73
g15
sa(dp10007
g2
S'../../../data/emanuela/activity-recognition/images/NTCIR-Lifelog-256/u1/2015-03-17/b00001304_21i6bq_20150317_205735e.jpg'
p10008
sg4
(lp10009
(g659
g6
(g18
S'\xf1\xe6y>'
p10010
tp10011
Rp10012
tp10013
a(g15
g6
(g18
S'\x0cJ\x04>'
p10014
tp10015
Rp10016
tp10017
a(g513
g6
(g18
S'\xfb\xe7\xdc='
p10018
tp10019
Rp10020
tp10021
a(g297
g6
(g18
S't\x15\xce='
p10022
tp10023
Rp10024
tp10025
a(g56
g6
(g18
S'\xe4=\xb4='
p10026
tp10027
Rp10028
tp10029
asg73
g15
sa(dp10030
g2
S'../../../data/emanuela/activity-recognition/images/NTCIR-Lifelog-256/u1/2015-03-08/b00000650_21i6bq_20150308_160922e.jpg'
p10031
sg4
(lp10032
(g32
g6
(g18
S'\xe95\xee>'
p10033
tp10034
Rp10035
tp10036
a(g15
g6
(g18
S'\xb9\xc4O>'
p10037
tp10038
Rp10039
tp10040
a(g56
g6
(g18
S'U,\xdf='
p10041
tp10042
Rp10043
tp10044
a(g274
g6
(g18
S';a\xaa='
p10045
tp10046
Rp10047
tp10048
a(g92
g6
(g18
S'X0E='
p10049
tp10050
Rp10051
tp10052
asg73
g15
sa(dp10053
g2
S'../../../data/emanuela/activity-recognition/images/NTCIR-Lifelog-256/u1/2015-03-17/b00001370_21i6bq_20150317_213247e.jpg'
p10054
sg4
(lp10055
(g15
g6
(g18
S'.$W?'
p10056
tp10057
Rp10058
tp10059
a(g32
g6
(g18
S'\x87t\xc7='
p10060
tp10061
Rp10062
tp10063
a(g92
g6
(g18
S'\xca\xbb)='
p10064
tp10065
Rp10066
tp10067
a(g166
g6
(g18
S'6S\x1b<'
p10068
tp10069
Rp10070
tp10071
a(g44
g6
(g18
S'Zf\x8b;'
p10072
tp10073
Rp10074
tp10075
asg73
g15
sa(dp10076
g2
S'../../../data/emanuela/activity-recognition/images/NTCIR-Lifelog-256/u1/2015-03-19/b00002318_21i6bq_20150319_150211e.jpg'
p10077
sg4
(lp10078
(g15
g6
(g18
S'\xd3\xa2\x02?'
p10079
tp10080
Rp10081
tp10082
a(g32
g6
(g18
S'\xe2o\xae>'
p10083
tp10084
Rp10085
tp10086
a(g274
g6
(g18
S'x\xff[='
p10087
tp10088
Rp10089
tp10090
a(g44
g6
(g18
S'\xd2\xc5<='
p10091
tp10092
Rp10093
tp10094
a(g56
g6
(g18
S'&\xf9\xae<'
p10095
tp10096
Rp10097
tp10098
asg73
g15
sa(dp10099
g2
S'../../../data/emanuela/activity-recognition/images/NTCIR-Lifelog-256/u1/2015-03-17/b00001325_21i6bq_20150317_210625e.jpg'
p10100
sg4
(lp10101
(g15
g6
(g18
S'\xf5\x0f\x0c?'
p10102
tp10103
Rp10104
tp10105
a(g68
g6
(g18
S'\x84p,>'
p10106
tp10107
Rp10108
tp10109
a(g44
g6
(g18
S'\xcdY\xd8='
p10110
tp10111
Rp10112
tp10113
a(g166
g6
(g18
S'\x952\x9e='
p10114
tp10115
Rp10116
tp10117
a(g32
g6
(g18
S'\x9e\tr='
p10118
tp10119
Rp10120
tp10121
asg73
g15
sa(dp10122
g2
S'../../../data/emanuela/activity-recognition/images/NTCIR-Lifelog-256/u1/2015-03-17/b00001328_21i6bq_20150317_210815e.jpg'
p10123
sg4
(lp10124
(g15
g6
(g18
S'\x1b\xf7\xb6>'
p10125
tp10126
Rp10127
tp10128
a(g166
g6
(g18
S'\xdb\xa5\x92>'
p10129
tp10130
Rp10131
tp10132
a(g68
g6
(g18
S'T\xae\x1f>'
p10133
tp10134
Rp10135
tp10136
a(g44
g6
(g18
S'\xc9/\xcf='
p10137
tp10138
Rp10139
tp10140
a(g32
g6
(g18
S'\x1d0=='
p10141
tp10142
Rp10143
tp10144
asg73
g15
sa.