(lp0
(dp1
S'image'
p2
S'../../../data/emanuela/activity-recognition/images/NTCIR-Lifelog-256/u1/2015-03-06/b00001232_21i6bq_20150306_175727e.jpg'
p3
sS'result'
p4
(lp5
(cnumpy.core.multiarray
scalar
p6
(cnumpy
dtype
p7
(S'S27'
p8
I0
I1
tp9
Rp10
(I3
S'|'
p11
NNNI27
I1
I0
tp12
bS'having drinks with somebody'
p13
tp14
Rp15
g6
(g7
(S'f4'
p16
I0
I1
tp17
Rp18
(I3
S'<'
p19
NNNI-1
I-1
I0
tp20
bS'\xa3JK?'
p21
tp22
Rp23
tp24
a(g6
(g7
(S'S11'
p25
I0
I1
tp26
Rp27
(I3
S'|'
p28
NNNI11
I1
I0
tp29
bS'socializing'
p30
tp31
Rp32
g6
(g18
S'\x92\xe9&>'
p33
tp34
Rp35
tp36
a(g6
(g7
(S'S25'
p37
I0
I1
tp38
Rp39
(I3
S'|'
p40
NNNI25
I1
I0
tp41
bS'having meal with somebody'
p42
tp43
Rp44
g6
(g18
S'j\xe9\x89<'
p45
tp46
Rp47
tp48
a(g6
(g7
(S'S7'
p49
I0
I1
tp50
Rp51
(I3
S'|'
p52
NNNI7
I1
I0
tp53
bS'talking'
p54
tp55
Rp56
g6
(g18
S'\x03\xff\xe8;'
p57
tp58
Rp59
tp60
a(g6
(g7
(S'S14'
p61
I0
I1
tp62
Rp63
(I3
S'|'
p64
NNNI14
I1
I0
tp65
bS'walking indoor'
p66
tp67
Rp68
g6
(g18
S' 8\x89;'
p69
tp70
Rp71
tp72
asS'label'
p73
g15
sa(dp74
g2
S'../../../data/emanuela/activity-recognition/images/NTCIR-Lifelog-256/u1/2015-03-02/b00000230_21i6bq_20150302_091451e.jpg'
p75
sg4
(lp76
(g6
(g7
(S'S15'
p77
I0
I1
tp78
Rp79
(I3
S'|'
p80
NNNI15
I1
I0
tp81
bS'walking outdoor'
p82
tp83
Rp84
g6
(g18
S'\xc2\x9e\\>'
p85
tp86
Rp87
tp88
a(g56
g6
(g18
S'\x1a\xadQ>'
p89
tp90
Rp91
tp92
a(g15
g6
(g18
S'\xed\xa1E>'
p93
tp94
Rp95
tp96
a(g6
(g7
(S'S16'
p97
I0
I1
tp98
Rp99
(I3
S'|'
p100
NNNI16
I1
I0
tp101
bS'public transport'
p102
tp103
Rp104
g6
(g18
S'\xe7\xaf\x16>'
p105
tp106
Rp107
tp108
a(g32
g6
(g18
S'\x85\xb9\xb9='
p109
tp110
Rp111
tp112
asg73
g15
sa(dp113
g2
S'../../../data/emanuela/activity-recognition/images/NTCIR-Lifelog-256/u1/2015-03-06/b00001289_21i6bq_20150306_183457e.jpg'
p114
sg4
(lp115
(g15
g6
(g18
S'{\xc7u>'
p116
tp117
Rp118
tp119
a(g32
g6
(g18
S'\x87<X>'
p120
tp121
Rp122
tp123
a(g68
g6
(g18
S'\x99\x13\xec='
p124
tp125
Rp126
tp127
a(g6
(g7
(S'S19'
p128
I0
I1
tp129
Rp130
(I3
S'|'
p131
NNNI19
I1
I0
tp132
bS'cleaning and chores'
p133
tp134
Rp135
g6
(g18
S'\x00[\xb3='
p136
tp137
Rp138
tp139
a(g6
(g7
(S'S24'
p140
I0
I1
tp141
Rp142
(I3
S'|'
p143
NNNI24
I1
I0
tp144
bS'having drinks/meal alone'
p145
tp146
Rp147
g6
(g18
S'<[\x90='
p148
tp149
Rp150
tp151
asg73
g15
sa(dp152
g2
S'../../../data/emanuela/activity-recognition/images/NTCIR-Lifelog-256/u1/2015-02-24/b00001056_21i6bq_20150224_172700e.jpg'
p153
sg4
(lp154
(g15
g6
(g18
S'V\x15@?'
p155
tp156
Rp157
tp158
a(g44
g6
(g18
S'\x13\x16Q='
p159
tp160
Rp161
tp162
a(g68
g6
(g18
S'\x9b\xa5H='
p163
tp164
Rp165
tp166
a(g6
(g7
(S'S8'
p167
I0
I1
tp168
Rp169
(I3
S'|'
p170
NNNI8
I1
I0
tp171
bS'shopping'
p172
tp173
Rp174
g6
(g18
S'p\xbd.='
p175
tp176
Rp177
tp178
a(g56
g6
(g18
S'\xbc\xf1\x14='
p179
tp180
Rp181
tp182
asg73
g15
sa(dp183
g2
S'../../../data/emanuela/activity-recognition/images/NTCIR-Lifelog-256/u1/2015-03-06/b00001290_21i6bq_20150306_183532e.jpg'
p184
sg4
(lp185
(g32
g6
(g18
S'-\xd9+?'
p186
tp187
Rp188
tp189
a(g15
g6
(g18
S'\x90\x02s>'
p190
tp191
Rp192
tp193
a(g68
g6
(g18
S'\xaf\x97\xbf<'
p194
tp195
Rp196
tp197
a(g44
g6
(g18
S's\x96\x90<'
p198
tp199
Rp200
tp201
a(g56
g6
(g18
S'\x94\xa7\x86<'
p202
tp203
Rp204
tp205
asg73
g15
sa(dp206
g2
S'../../../data/emanuela/activity-recognition/images/NTCIR-Lifelog-256/u1/2015-03-06/b00001279_21i6bq_20150306_182811e.jpg'
p207
sg4
(lp208
(g15
g6
(g18
S'\xc5\xdb3?'
p209
tp210
Rp211
tp212
a(g32
g6
(g18
S'\x9b\xbfs>'
p213
tp214
Rp215
tp216
a(g68
g6
(g18
S'{\x9c\x99<'
p217
tp218
Rp219
tp220
a(g44
g6
(g18
S'2D!<'
p221
tp222
Rp223
tp224
a(g147
g6
(g18
S'\xc1\x92\xfa;'
p225
tp226
Rp227
tp228
asg73
g15
sa(dp229
g2
S'../../../data/emanuela/activity-recognition/images/NTCIR-Lifelog-256/u1/2015-03-06/b00001239_21i6bq_20150306_180147e.jpg'
p230
sg4
(lp231
(g15
g6
(g18
S'\xccX@?'
p232
tp233
Rp234
tp235
a(g32
g6
(g18
S'\xf0\xe0\t>'
p236
tp237
Rp238
tp239
a(g147
g6
(g18
S'\xf0\x82\x18='
p240
tp241
Rp242
tp243
a(g44
g6
(g18
S'\xa6\xd0e<'
p244
tp245
Rp246
tp247
a(g68
g6
(g18
S'#bW<'
p248
tp249
Rp250
tp251
asg73
g15
sa(dp252
g2
S'../../../data/emanuela/activity-recognition/images/NTCIR-Lifelog-256/u1/2015-03-02/b00000233_21i6bq_20150302_091649e.jpg'
p253
sg4
(lp254
(g56
g6
(g18
S'\xbd5!?'
p255
tp256
Rp257
tp258
a(g6
(g7
(S'S7'
p259
I0
I1
tp260
Rp261
(I3
S'|'
p262
NNNI7
I1
I0
tp263
bS'meeting'
p264
tp265
Rp266
g6
(g18
S'\xbaUq>'
p267
tp268
Rp269
tp270
a(g44
g6
(g18
S'3j\xa1='
p271
tp272
Rp273
tp274
a(g32
g6
(g18
S'\x1a\xa0\x08='
p275
tp276
Rp277
tp278
a(g6
(g7
(S'S19'
p279
I0
I1
tp280
Rp281
(I3
S'|'
p282
NNNI19
I1
I0
tp283
bS'attending a seminar'
p284
tp285
Rp286
g6
(g18
S'U\x12\xf4;'
p287
tp288
Rp289
tp290
asg73
g15
sa(dp291
g2
S'../../../data/emanuela/activity-recognition/images/NTCIR-Lifelog-256/u1/2015-03-10/b00000255_21i6bq_20150310_153531e.jpg'
p292
sg4
(lp293
(g44
g6
(g18
S'L-]?'
p294
tp295
Rp296
tp297
a(g32
g6
(g18
S'\xc2vb='
p298
tp299
Rp300
tp301
a(g56
g6
(g18
S'\xd2ID='
p302
tp303
Rp304
tp305
a(g15
g6
(g18
S'\xd8\x91\xd2<'
p306
tp307
Rp308
tp309
a(g174
g6
(g18
S'\x91\x1d};'
p310
tp311
Rp312
tp313
asg73
g15
sa(dp314
g2
S'../../../data/emanuela/activity-recognition/images/NTCIR-Lifelog-256/u1/2015-02-24/b00001053_21i6bq_20150224_172507e.jpg'
p315
sg4
(lp316
(g15
g6
(g18
S'\x9a\x80u?'
p317
tp318
Rp319
tp320
a(g44
g6
(g18
S'\xde\xd7y<'
p321
tp322
Rp323
tp324
a(g56
g6
(g18
S'\xb7\xf4\x13<'
p325
tp326
Rp327
tp328
a(g32
g6
(g18
S'\xe11\x0e<'
p329
tp330
Rp331
tp332
a(g266
g6
(g18
S',\x7f\x8e;'
p333
tp334
Rp335
tp336
asg73
g15
sa(dp337
g2
S'../../../data/emanuela/activity-recognition/images/NTCIR-Lifelog-256/u1/2015-03-11/b00000599_21i6bq_20150311_130139e.jpg'
p338
sg4
(lp339
(g147
g6
(g18
S'\x17/\xee>'
p340
tp341
Rp342
tp343
a(g174
g6
(g18
S'\xcc\x038>'
p344
tp345
Rp346
tp347
a(g15
g6
(g18
S'/\xc8\xfd='
p348
tp349
Rp350
tp351
a(g68
g6
(g18
S'\xb0\x1b\xb2='
p352
tp353
Rp354
tp355
a(g44
g6
(g18
S'\xb6\x90\xab='
p356
tp357
Rp358
tp359
asg73
g15
sa(dp360
g2
S'../../../data/emanuela/activity-recognition/images/NTCIR-Lifelog-256/u1/2015-03-06/b00001275_21i6bq_20150306_182540e.jpg'
p361
sg4
(lp362
(g15
g6
(g18
S'\x15\x11\x18?'
p363
tp364
Rp365
tp366
a(g68
g6
(g18
S'Q\x06\x05>'
p367
tp368
Rp369
tp370
a(g32
g6
(g18
S'a\xb9\xe1='
p371
tp372
Rp373
tp374
a(g147
g6
(g18
S'#\xb1\x1e='
p375
tp376
Rp377
tp378
a(g174
g6
(g18
S'\xb8s\xf6<'
p379
tp380
Rp381
tp382
asg73
g15
sa(dp383
g2
S'../../../data/emanuela/activity-recognition/images/NTCIR-Lifelog-256/u1/2015-03-06/b00001270_21i6bq_20150306_182235e.jpg'
p384
sg4
(lp385
(g15
g6
(g18
S'\xb4P\xf9>'
p386
tp387
Rp388
tp389
a(g32
g6
(g18
S'&\x90\xc3>'
p390
tp391
Rp392
tp393
a(g44
g6
(g18
S'\x10bf='
p394
tp395
Rp396
tp397
a(g56
g6
(g18
S'q\xc9\xc0<'
p398
tp399
Rp400
tp401
a(g68
g6
(g18
S'\xf6\xf9\x83<'
p402
tp403
Rp404
tp405
asg73
g15
sa(dp406
g2
S'../../../data/emanuela/activity-recognition/images/NTCIR-Lifelog-256/u1/2015-03-06/b00001257_21i6bq_20150306_181359e.jpg'
p407
sg4
(lp408
(g15
g6
(g18
S'\x1e\xf4Z>'
p409
tp410
Rp411
tp412
a(g6
(g7
(S'S6'
p413
I0
I1
tp414
Rp415
(I3
S'|'
p416
NNNI6
I1
I0
tp417
bS'mobile'
p418
tp419
Rp420
g6
(g18
S'g\tC>'
p421
tp422
Rp423
tp424
a(g68
g6
(g18
S'\xe5a(>'
p425
tp426
Rp427
tp428
a(g32
g6
(g18
S'\xd8$\xf1='
p429
tp430
Rp431
tp432
a(g56
g6
(g18
S'\x15\x14\x9f='
p433
tp434
Rp435
tp436
asg73
g15
sa(dp437
g2
S'../../../data/emanuela/activity-recognition/images/NTCIR-Lifelog-256/u1/2015-03-06/b00001265_21i6bq_20150306_181931e.jpg'
p438
sg4
(lp439
(g15
g6
(g18
S'\x12\xad\x8d>'
p440
tp441
Rp442
tp443
a(g104
g6
(g18
S'\xc6\xfc\x1e>'
p444
tp445
Rp446
tp447
a(g68
g6
(g18
S'\x89\x8e\x15>'
p448
tp449
Rp450
tp451
a(g32
g6
(g18
S'\x8e\x06\x13>'
p452
tp453
Rp454
tp455
a(g147
g6
(g18
S'\xc9\xe5\x9b='
p456
tp457
Rp458
tp459
asg73
g15
sa(dp460
g2
S'../../../data/emanuela/activity-recognition/images/NTCIR-Lifelog-256/u1/2015-03-06/b00001224_21i6bq_20150306_175202e.jpg'
p461
sg4
(lp462
(g15
g6
(g18
S'B\x99C?'
p463
tp464
Rp465
tp466
a(g32
g6
(g18
S"\xba'#>"
p467
tp468
Rp469
tp470
a(g44
g6
(g18
S'\xd6\xc7\x05='
p471
tp472
Rp473
tp474
a(g174
g6
(g18
S'O\xc7T<'
p475
tp476
Rp477
tp478
a(g147
g6
(g18
S'\x8c+\x13<'
p479
tp480
Rp481
tp482
asg73
g15
sa(dp483
g2
S'../../../data/emanuela/activity-recognition/images/NTCIR-Lifelog-256/u1/2015-03-11/b00000613_21i6bq_20150311_131018e.jpg'
p484
sg4
(lp485
(g56
g6
(g18
S'\xa9\xbd\xd5>'
p486
tp487
Rp488
tp489
a(g15
g6
(g18
S'\xb5\x1fa>'
p490
tp491
Rp492
tp493
a(g68
g6
(g18
S'\x04\xcc\xdf='
p494
tp495
Rp496
tp497
a(g32
g6
(g18
S'}\x0c\x92='
p498
tp499
Rp500
tp501
a(g174
g6
(g18
S'\x96nV='
p502
tp503
Rp504
tp505
asg73
g15
sa(dp506
g2
S'../../../data/emanuela/activity-recognition/images/NTCIR-Lifelog-256/u1/2015-03-06/b00001252_21i6bq_20150306_181058e.jpg'
p507
sg4
(lp508
(g15
g6
(g18
S'\x930-?'
p509
tp510
Rp511
tp512
a(g32
g6
(g18
S'\x18\x8a6>'
p513
tp514
Rp515
tp516
a(g68
g6
(g18
S'M\xd0U='
p517
tp518
Rp519
tp520
a(g56
g6
(g18
S'\xccC8='
p521
tp522
Rp523
tp524
a(g44
g6
(g18
S'@p{<'
p525
tp526
Rp527
tp528
asg73
g15
sa(dp529
g2
S'../../../data/emanuela/activity-recognition/images/NTCIR-Lifelog-256/u1/2015-02-24/b00001055_21i6bq_20150224_172620e.jpg'
p530
sg4
(lp531
(g15
g6
(g18
S'\xa7\xa2\x11?'
p532
tp533
Rp534
tp535
a(g56
g6
(g18
S'\xd2\x8c3>'
p536
tp537
Rp538
tp539
a(g32
g6
(g18
S'|\x06\xed='
p540
tp541
Rp542
tp543
a(g44
g6
(g18
S'O\xa1\xb1='
p544
tp545
Rp546
tp547
a(g266
g6
(g18
S'\x078\xb7<'
p548
tp549
Rp550
tp551
asg73
g15
sa(dp552
g2
S'../../../data/emanuela/activity-recognition/images/NTCIR-Lifelog-256/u1/2015-03-06/b00001222_21i6bq_20150306_175048e.jpg'
p553
sg4
(lp554
(g15
g6
(g18
S'z\xd8U?'
p555
tp556
Rp557
tp558
a(g44
g6
(g18
S';\xbeo='
p559
tp560
Rp561
tp562
a(g147
g6
(g18
S'\xa4\xffM='
p563
tp564
Rp565
tp566
a(g32
g6
(g18
S')\xc1)='
p567
tp568
Rp569
tp570
a(g135
g6
(g18
S'X\xa4\x01<'
p571
tp572
Rp573
tp574
asg73
g15
sa(dp575
g2
S'../../../data/emanuela/activity-recognition/images/NTCIR-Lifelog-256/u1/2015-03-06/b00001288_21i6bq_20150306_183420e.jpg'
p576
sg4
(lp577
(g15
g6
(g18
S'}\xcd(?'
p578
tp579
Rp580
tp581
a(g32
g6
(g18
S'\xa5\x08\x87>'
p582
tp583
Rp584
tp585
a(g44
g6
(g18
S'no!='
p586
tp587
Rp588
tp589
a(g68
g6
(g18
S'\x9e\x11I<'
p590
tp591
Rp592
tp593
a(g56
g6
(g18
S'\xbc\x01E<'
p594
tp595
Rp596
tp597
asg73
g15
sa(dp598
g2
S'../../../data/emanuela/activity-recognition/images/NTCIR-Lifelog-256/u1/2015-03-11/b00000608_21i6bq_20150311_130713e.jpg'
p599
sg4
(lp600
(g174
g6
(g18
S'V\xe6\xee>'
p601
tp602
Rp603
tp604
a(g56
g6
(g18
S'\xd16\x12>'
p605
tp606
Rp607
tp608
a(g44
g6
(g18
S'+\x98\x02>'
p609
tp610
Rp611
tp612
a(g15
g6
(g18
S'\xa6e\x9c='
p613
tp614
Rp615
tp616
a(g147
g6
(g18
S'Sbr='
p617
tp618
Rp619
tp620
asg73
g15
sa(dp621
g2
S'../../../data/emanuela/activity-recognition/images/NTCIR-Lifelog-256/u1/2015-03-02/b00000245_21i6bq_20150302_092503e.jpg'
p622
sg4
(lp623
(g15
g6
(g18
S'\xc6l\xce>'
p624
tp625
Rp626
tp627
a(g32
g6
(g18
S'\x90\xc9\x99>'
p628
tp629
Rp630
tp631
a(g44
g6
(g18
S'\xd6\x13\x0c>'
p632
tp633
Rp634
tp635
a(g56
g6
(g18
S'\xd6\x84s='
p636
tp637
Rp638
tp639
a(g84
g6
(g18
S'n\xe0\x0b='
p640
tp641
Rp642
tp643
asg73
g15
sa(dp644
g2
S'../../../data/emanuela/activity-recognition/images/NTCIR-Lifelog-256/u1/2015-03-06/b00001315_21i6bq_20150306_185149e.jpg'
p645
sg4
(lp646
(g15
g6
(g18
S'z>]?'
p647
tp648
Rp649
tp650
a(g32
g6
(g18
S'\xec\x17\xaa='
p651
tp652
Rp653
tp654
a(g44
g6
(g18
S'i,\xc6<'
p655
tp656
Rp657
tp658
a(g174
g6
(g18
S'\x00r8<'
p659
tp660
Rp661
tp662
a(g68
g6
(g18
S'\x17\xa1q;'
p663
tp664
Rp665
tp666
asg73
g15
sa(dp667
g2
S'../../../data/emanuela/activity-recognition/images/NTCIR-Lifelog-256/u1/2015-03-06/b00001322_21i6bq_20150306_185606e.jpg'
p668
sg4
(lp669
(g15
g6
(g18
S'\x9e\xb1!?'
p670
tp671
Rp672
tp673
a(g32
g6
(g18
S'\x83<2>'
p674
tp675
Rp676
tp677
a(g68
g6
(g18
S'7\xb0\x9f='
p678
tp679
Rp680
tp681
a(g174
g6
(g18
S'\xceD!='
p682
tp683
Rp684
tp685
a(g56
g6
(g18
S'\xe5\xaa\xc0<'
p686
tp687
Rp688
tp689
asg73
g15
sa(dp690
g2
S'../../../data/emanuela/activity-recognition/images/NTCIR-Lifelog-256/u1/2015-03-06/b00001314_21i6bq_20150306_185113e.jpg'
p691
sg4
(lp692
(g15
g6
(g18
S'\x92P\x0c?'
p693
tp694
Rp695
tp696
a(g32
g6
(g18
S'\xef0\xbb>'
p697
tp698
Rp699
tp700
a(g68
g6
(g18
S'\xc6>\xed<'
p701
tp702
Rp703
tp704
a(g84
g6
(g18
S'\x8b\x9a\\<'
p705
tp706
Rp707
tp708
a(g44
g6
(g18
S'\xba\xe4T<'
p709
tp710
Rp711
tp712
asg73
g15
sa(dp713
g2
S'../../../data/emanuela/activity-recognition/images/NTCIR-Lifelog-256/u1/2015-03-06/b00001295_21i6bq_20150306_183915e.jpg'
p714
sg4
(lp715
(g15
g6
(g18
S'\x1c\xc4^?'
p716
tp717
Rp718
tp719
a(g32
g6
(g18
S'\x0b\xb8\xdc='
p720
tp721
Rp722
tp723
a(g68
g6
(g18
S'FC\xf5;'
p724
tp725
Rp726
tp727
a(g174
g6
(g18
S'\x1a>U;'
p728
tp729
Rp730
tp731
a(g44
g6
(g18
S'\xb7\xeeN;'
p732
tp733
Rp734
tp735
asg73
g15
sa(dp736
g2
S'../../../data/emanuela/activity-recognition/images/NTCIR-Lifelog-256/u1/2015-03-06/b00001268_21i6bq_20150306_182118e.jpg'
p737
sg4
(lp738
(g15
g6
(g18
S'\x10GI?'
p739
tp740
Rp741
tp742
a(g32
g6
(g18
S'\xda\xc3.>'
p743
tp744
Rp745
tp746
a(g68
g6
(g18
S'wXA<'
p747
tp748
Rp749
tp750
a(g174
g6
(g18
S'\x0b6&<'
p751
tp752
Rp753
tp754
a(g44
g6
(g18
S'\xc9\x9a\xff;'
p755
tp756
Rp757
tp758
asg73
g15
sa(dp759
g2
S'../../../data/emanuela/activity-recognition/images/NTCIR-Lifelog-256/u1/2015-02-24/b00000911_21i6bq_20150224_155802e.jpg'
p760
sg4
(lp761
(g15
g6
(g18
S'I\xb5O?'
p762
tp763
Rp764
tp765
a(g56
g6
(g18
S'\x17\x8e\xed<'
p766
tp767
Rp768
tp769
a(g147
g6
(g18
S'\x1d\xb1\xe7<'
p770
tp771
Rp772
tp773
a(g44
g6
(g18
S'\x86\x8b\xd5<'
p774
tp775
Rp776
tp777
a(g266
g6
(g18
S'\xf3\xee\xcf<'
p778
tp779
Rp780
tp781
asg73
g15
sa(dp782
g2
S'../../../data/emanuela/activity-recognition/images/NTCIR-Lifelog-256/u1/2015-03-06/b00001324_21i6bq_20150306_185712e.jpg'
p783
sg4
(lp784
(g15
g6
(g18
S'\xab\xd8\\?'
p785
tp786
Rp787
tp788
a(g32
g6
(g18
S'\xd8\x9a\xa1='
p789
tp790
Rp791
tp792
a(g68
g6
(g18
S'x*\x99<'
p793
tp794
Rp795
tp796
a(g174
g6
(g18
S'<\x8cA<'
p797
tp798
Rp799
tp800
a(g84
g6
(g18
S'\x97[4<'
p801
tp802
Rp803
tp804
asg73
g15
sa(dp805
g2
S'../../../data/emanuela/activity-recognition/images/NTCIR-Lifelog-256/u1/2015-03-06/b00001291_21i6bq_20150306_183610e.jpg'
p806
sg4
(lp807
(g15
g6
(g18
S'Z\xa3s?'
p808
tp809
Rp810
tp811
a(g32
g6
(g18
S'y\xf4\x9b<'
p812
tp813
Rp814
tp815
a(g68
g6
(g18
S'~\xc3#<'
p816
tp817
Rp818
tp819
a(g44
g6
(g18
S'\xdc)\xfb;'
p820
tp821
Rp822
tp823
a(g174
g6
(g18
S'\x14\xa8\x9b;'
p824
tp825
Rp826
tp827
asg73
g15
sa(dp828
g2
S'../../../data/emanuela/activity-recognition/images/NTCIR-Lifelog-256/u1/2015-03-16/b00002898_21i6bq_20150316_195430e.jpg'
p829
sg4
(lp830
(g15
g6
(g18
S't]\xf8>'
p831
tp832
Rp833
tp834
a(g174
g6
(g18
S'{\xb7Z>'
p835
tp836
Rp837
tp838
a(g420
g6
(g18
S'^)\x0b>'
p839
tp840
Rp841
tp842
a(g68
g6
(g18
S'\x9eHQ='
p843
tp844
Rp845
tp846
a(g32
g6
(g18
S'D=\x1f='
p847
tp848
Rp849
tp850
asg73
g15
sa(dp851
g2
S'../../../data/emanuela/activity-recognition/images/NTCIR-Lifelog-256/u1/2015-03-06/b00001242_21i6bq_20150306_180458e.jpg'
p852
sg4
(lp853
(g15
g6
(g18
S'3(\xcc>'
p854
tp855
Rp856
tp857
a(g32
g6
(g18
S'\rv\x9d>'
p858
tp859
Rp860
tp861
a(g68
g6
(g18
S'\xc6+\x13>'
p862
tp863
Rp864
tp865
a(g44
g6
(g18
S'!\x19N='
p866
tp867
Rp868
tp869
a(g56
g6
(g18
S'\x1e-\x94<'
p870
tp871
Rp872
tp873
asg73
g15
sa(dp874
g2
S'../../../data/emanuela/activity-recognition/images/NTCIR-Lifelog-256/u1/2015-03-06/b00001313_21i6bq_20150306_185040e.jpg'
p875
sg4
(lp876
(g32
g6
(g18
S'\xfab\xf6>'
p877
tp878
Rp879
tp880
a(g15
g6
(g18
S'\x82_\xba>'
p881
tp882
Rp883
tp884
a(g56
g6
(g18
S'\x047Y='
p885
tp886
Rp887
tp888
a(g44
g6
(g18
S'\x86\x06L='
p889
tp890
Rp891
tp892
a(g135
g6
(g18
S'VI\x17<'
p893
tp894
Rp895
tp896
asg73
g15
sa(dp897
g2
S'../../../data/emanuela/activity-recognition/images/NTCIR-Lifelog-256/u1/2015-03-10/b00000243_21i6bq_20150310_152633e.jpg'
p898
sg4
(lp899
(g44
g6
(g18
S'\xfcn_?'
p900
tp901
Rp902
tp903
a(g15
g6
(g18
S'\xb3J\xd4='
p904
tp905
Rp906
tp907
a(g32
g6
(g18
S'K\xa4\x82<'
p908
tp909
Rp910
tp911
a(g147
g6
(g18
S'\xf9\x05:;'
p912
tp913
Rp914
tp915
a(g174
g6
(g18
S'\x0fF7;'
p916
tp917
Rp918
tp919
asg73
g15
sa(dp920
g2
S'../../../data/emanuela/activity-recognition/images/NTCIR-Lifelog-256/u1/2015-03-06/b00001312_21i6bq_20150306_185005e.jpg'
p921
sg4
(lp922
(g32
g6
(g18
S'\x82\xcb\x07?'
p923
tp924
Rp925
tp926
a(g15
g6
(g18
S'\xcc\x08\xaa>'
p927
tp928
Rp929
tp930
a(g56
g6
(g18
S'`Z\x03='
p931
tp932
Rp933
tp934
a(g68
g6
(g18
S'"I\xb2<'
p935
tp936
Rp937
tp938
a(g174
g6
(g18
S'\xfc,s<'
p939
tp940
Rp941
tp942
asg73
g15
sa(dp943
g2
S'../../../data/emanuela/activity-recognition/images/NTCIR-Lifelog-256/u1/2015-03-06/b00001256_21i6bq_20150306_181322e.jpg'
p944
sg4
(lp945
(g15
g6
(g18
S'\x1aS\x9f>'
p946
tp947
Rp948
tp949
a(g32
g6
(g18
S'N\xbdM>'
p950
tp951
Rp952
tp953
a(g68
g6
(g18
S'\xc8\xbfG>'
p954
tp955
Rp956
tp957
a(g56
g6
(g18
S'$\xce\x04>'
p958
tp959
Rp960
tp961
a(g44
g6
(g18
S'\x80\x98\xdc='
p962
tp963
Rp964
tp965
asg73
g15
sa(dp966
g2
S'../../../data/emanuela/activity-recognition/images/NTCIR-Lifelog-256/u1/2015-03-02/b00000232_21i6bq_20150302_091609e.jpg'
p967
sg4
(lp968
(g56
g6
(g18
S'\xf5Ol?'
p969
tp970
Rp971
tp972
a(g266
g6
(g18
S'-\xe0\xad<'
p973
tp974
Rp975
tp976
a(g44
g6
(g18
S'_$\xa2<'
p977
tp978
Rp979
tp980
a(g32
g6
(g18
S'\xfe\x12O<'
p981
tp982
Rp983
tp984
a(g286
g6
(g18
S'\xd3\xa4\x12<'
p985
tp986
Rp987
tp988
asg73
g15
sa(dp989
g2
S'../../../data/emanuela/activity-recognition/images/NTCIR-Lifelog-256/u1/2015-03-06/b00001310_21i6bq_20150306_184842e.jpg'
p990
sg4
(lp991
(g15
g6
(g18
S'!2\x03?'
p992
tp993
Rp994
tp995
a(g32
g6
(g18
S'\x81`\x85>'
p996
tp997
Rp998
tp999
a(g68
g6
(g18
S'*\xfa\xc6='
p1000
tp1001
Rp1002
tp1003
a(g174
g6
(g18
S'\x1b6q='
p1004
tp1005
Rp1006
tp1007
a(g104
g6
(g18
S'\xe1\x82\xb9<'
p1008
tp1009
Rp1010
tp1011
asg73
g15
sa(dp1012
g2
S'../../../data/emanuela/activity-recognition/images/NTCIR-Lifelog-256/u1/2015-03-11/b00000605_21i6bq_20150311_130523e.jpg'
p1013
sg4
(lp1014
(g15
g6
(g18
S'ZaM?'
p1015
tp1016
Rp1017
tp1018
a(g32
g6
(g18
S'K/\x93='
p1019
tp1020
Rp1021
tp1022
a(g147
g6
(g18
S'\x84!=='
p1023
tp1024
Rp1025
tp1026
a(g44
g6
(g18
S'\xf9=\x02='
p1027
tp1028
Rp1029
tp1030
a(g104
g6
(g18
S'\xe1\xac%<'
p1031
tp1032
Rp1033
tp1034
asg73
g15
sa(dp1035
g2
S'../../../data/emanuela/activity-recognition/images/NTCIR-Lifelog-256/u1/2015-03-06/b00001225_21i6bq_20150306_175316e.jpg'
p1036
sg4
(lp1037
(g15
g6
(g18
S'\xb55E?'
p1038
tp1039
Rp1040
tp1041
a(g32
g6
(g18
S'\xcb\x18\x98='
p1042
tp1043
Rp1044
tp1045
a(g174
g6
(g18
S'\x03\xd3=='
p1046
tp1047
Rp1048
tp1049
a(g68
g6
(g18
S'\r\xeb\x07='
p1050
tp1051
Rp1052
tp1053
a(g56
g6
(g18
S'o\x15\xd7<'
p1054
tp1055
Rp1056
tp1057
asg73
g15
sa(dp1058
g2
S'../../../data/emanuela/activity-recognition/images/NTCIR-Lifelog-256/u1/2015-03-06/b00001218_21i6bq_20150306_174751e.jpg'
p1059
sg4
(lp1060
(g15
g6
(g18
S'\x84y\x1b?'
p1061
tp1062
Rp1063
tp1064
a(g32
g6
(g18
S'\xe64\xfd='
p1065
tp1066
Rp1067
tp1068
a(g174
g6
(g18
S'c.\xa6='
p1069
tp1070
Rp1071
tp1072
a(g135
g6
(g18
S'\xcd\xd4N='
p1073
tp1074
Rp1075
tp1076
a(g147
g6
(g18
S'\x86@\x1c='
p1077
tp1078
Rp1079
tp1080
asg73
g15
sa(dp1081
g2
S'../../../data/emanuela/activity-recognition/images/NTCIR-Lifelog-256/u1/2015-03-06/b00001278_21i6bq_20150306_182730e.jpg'
p1082
sg4
(lp1083
(g15
g6
(g18
S'\xae\xeck?'
p1084
tp1085
Rp1086
tp1087
a(g32
g6
(g18
S'[\xd6\x07='
p1088
tp1089
Rp1090
tp1091
a(g174
g6
(g18
S'R\x8b\xa6<'
p1092
tp1093
Rp1094
tp1095
a(g68
g6
(g18
S'\xe5\xf0\x06<'
p1096
tp1097
Rp1098
tp1099
a(g147
g6
(g18
S'\x1d\x8a\xee;'
p1100
tp1101
Rp1102
tp1103
asg73
g15
sa(dp1104
g2
S'../../../data/emanuela/activity-recognition/images/NTCIR-Lifelog-256/u1/2015-03-06/b00001281_21i6bq_20150306_183008e.jpg'
p1105
sg4
(lp1106
(g32
g6
(g18
S'#_\x02?'
p1107
tp1108
Rp1109
tp1110
a(g15
g6
(g18
S'+\xd8~>'
p1111
tp1112
Rp1113
tp1114
a(g68
g6
(g18
S'8S\xaf='
p1115
tp1116
Rp1117
tp1118
a(g56
g6
(g18
S't\xe4{='
p1119
tp1120
Rp1121
tp1122
a(g104
g6
(g18
S'{\x0b\xb1<'
p1123
tp1124
Rp1125
tp1126
asg73
g15
sa(dp1127
g2
S'../../../data/emanuela/activity-recognition/images/NTCIR-Lifelog-256/u1/2015-03-02/b00000262_21i6bq_20150302_093645e.jpg'
p1128
sg4
(lp1129
(g32
g6
(g18
S'\x84\xec\xa7>'
p1130
tp1131
Rp1132
tp1133
a(g56
g6
(g18
S',pj>'
p1134
tp1135
Rp1136
tp1137
a(g15
g6
(g18
S'\xe9V\x15>'
p1138
tp1139
Rp1140
tp1141
a(g44
g6
(g18
S'\xdcH\x0b>'
p1142
tp1143
Rp1144
tp1145
a(g84
g6
(g18
S'\xc6\xc4L='
p1146
tp1147
Rp1148
tp1149
asg73
g15
sa(dp1150
g2
S'../../../data/emanuela/activity-recognition/images/NTCIR-Lifelog-256/u1/2015-03-06/b00001323_21i6bq_20150306_185640e.jpg'
p1151
sg4
(lp1152
(g15
g6
(g18
S'\x93\xe1\x0f?'
p1153
tp1154
Rp1155
tp1156
a(g68
g6
(g18
S'\xcd\x98\x11>'
p1157
tp1158
Rp1159
tp1160
a(g32
g6
(g18
S'\xdd\xe8\n>'
p1161
tp1162
Rp1163
tp1164
a(g174
g6
(g18
S'\xfd\x062='
p1165
tp1166
Rp1167
tp1168
a(g56
g6
(g18
S'm\xf6+='
p1169
tp1170
Rp1171
tp1172
asg73
g15
sa(dp1173
g2
S'../../../data/emanuela/activity-recognition/images/NTCIR-Lifelog-256/u1/2015-03-10/b00000229_21i6bq_20150310_151541e.jpg'
p1174
sg4
(lp1175
(g56
g6
(g18
S'\x84@\x9a>'
p1176
tp1177
Rp1178
tp1179
a(g15
g6
(g18
S'\xd7%\x8b>'
p1180
tp1181
Rp1182
tp1183
a(g32
g6
(g18
S'\x9bVS>'
p1184
tp1185
Rp1186
tp1187
a(g174
g6
(g18
S'0\xd2t='
p1188
tp1189
Rp1190
tp1191
a(g44
g6
(g18
S'Zfe='
p1192
tp1193
Rp1194
tp1195
asg73
g15
sa(dp1196
g2
S'../../../data/emanuela/activity-recognition/images/NTCIR-Lifelog-256/u1/2015-03-06/b00001301_21i6bq_20150306_184257e.jpg'
p1197
sg4
(lp1198
(g15
g6
(g18
S'!(:?'
p1199
tp1200
Rp1201
tp1202
a(g32
g6
(g18
S'!\x1b$>'
p1203
tp1204
Rp1205
tp1206
a(g174
g6
(g18
S'\xf2\x90\x12='
p1207
tp1208
Rp1209
tp1210
a(g68
g6
(g18
S'+\xb7p<'
p1211
tp1212
Rp1213
tp1214
a(g135
g6
(g18
S'\x1ern<'
p1215
tp1216
Rp1217
tp1218
asg73
g15
sa(dp1219
g2
S'../../../data/emanuela/activity-recognition/images/NTCIR-Lifelog-256/u1/2015-03-06/b00001221_21i6bq_20150306_174935e.jpg'
p1220
sg4
(lp1221
(g15
g6
(g18
S'\x8b\xe1r?'
p1222
tp1223
Rp1224
tp1225
a(g32
g6
(g18
S'>8\x0e='
p1226
tp1227
Rp1228
tp1229
a(g147
g6
(g18
S'\xc5\x8c\xe3;'
p1230
tp1231
Rp1232
tp1233
a(g44
g6
(g18
S'\x14X\xc5;'
p1234
tp1235
Rp1236
tp1237
a(g174
g6
(g18
S'\xf6\x88o:'
p1238
tp1239
Rp1240
tp1241
asg73
g15
sa(dp1242
g2
S'../../../data/emanuela/activity-recognition/images/NTCIR-Lifelog-256/u1/2015-03-06/b00001286_21i6bq_20150306_183311e.jpg'
p1243
sg4
(lp1244
(g15
g6
(g18
S'\xf8\xeb1?'
p1245
tp1246
Rp1247
tp1248
a(g32
g6
(g18
S'~\xefi>'
p1249
tp1250
Rp1251
tp1252
a(g68
g6
(g18
S'\xa25\xf2<'
p1253
tp1254
Rp1255
tp1256
a(g174
g6
(g18
S'R\xcc\x95<'
p1257
tp1258
Rp1259
tp1260
a(g44
g6
(g18
S'f_u<'
p1261
tp1262
Rp1263
tp1264
asg73
g15
sa(dp1265
g2
S'../../../data/emanuela/activity-recognition/images/NTCIR-Lifelog-256/u1/2015-03-06/b00001250_21i6bq_20150306_180946e.jpg'
p1266
sg4
(lp1267
(g32
g6
(g18
S'3\x9c\xc2>'
p1268
tp1269
Rp1270
tp1271
a(g15
g6
(g18
S'1\xd9\x84>'
p1272
tp1273
Rp1274
tp1275
a(g56
g6
(g18
S'\x89\xf5\x05>'
p1276
tp1277
Rp1278
tp1279
a(g44
g6
(g18
S'\xd0#\xb8='
p1280
tp1281
Rp1282
tp1283
a(g68
g6
(g18
S'k\xfa\x84='
p1284
tp1285
Rp1286
tp1287
asg73
g15
sa(dp1288
g2
S'../../../data/emanuela/activity-recognition/images/NTCIR-Lifelog-256/u1/2015-03-16/b00002896_21i6bq_20150316_195321e.jpg'
p1289
sg4
(lp1290
(g15
g6
(g18
S'\xdf\x04\xf1>'
p1291
tp1292
Rp1293
tp1294
a(g32
g6
(g18
S'\xa6]\x83>'
p1295
tp1296
Rp1297
tp1298
a(g420
g6
(g18
S'\xb78\x1c>'
p1299
tp1300
Rp1301
tp1302
a(g174
g6
(g18
S'fy\xcb<'
p1303
tp1304
Rp1305
tp1306
a(g68
g6
(g18
S'\xf7o\xbf<'
p1307
tp1308
Rp1309
tp1310
asg73
g15
sa(dp1311
g2
S'../../../data/emanuela/activity-recognition/images/NTCIR-Lifelog-256/u1/2015-03-06/b00001251_21i6bq_20150306_181022e.jpg'
p1312
sg4
(lp1313
(g15
g6
(g18
S'\xac1)?'
p1314
tp1315
Rp1316
tp1317
a(g32
g6
(g18
S'<\x92s>'
p1318
tp1319
Rp1320
tp1321
a(g44
g6
(g18
S'\xe5\xbfP='
p1322
tp1323
Rp1324
tp1325
a(g56
g6
(g18
S'o\xfd\x9c<'
p1326
tp1327
Rp1328
tp1329
a(g68
g6
(g18
S'DU7<'
p1330
tp1331
Rp1332
tp1333
asg73
g15
sa(dp1334
g2
S'../../../data/emanuela/activity-recognition/images/NTCIR-Lifelog-256/u1/2015-03-06/b00001247_21i6bq_20150306_180803e.jpg'
p1335
sg4
(lp1336
(g15
g6
(g18
S'\x19k\r?'
p1337
tp1338
Rp1339
tp1340
a(g32
g6
(g18
S'\x14\xa2\xaa>'
p1341
tp1342
Rp1343
tp1344
a(g68
g6
(g18
S'j9\xba<'
p1345
tp1346
Rp1347
tp1348
a(g56
g6
(g18
S'\xa1W\xb5<'
p1349
tp1350
Rp1351
tp1352
a(g104
g6
(g18
S'\xe5\xb5e<'
p1353
tp1354
Rp1355
tp1356
asg73
g15
sa(dp1357
g2
S'../../../data/emanuela/activity-recognition/images/NTCIR-Lifelog-256/u1/2015-03-06/b00001280_21i6bq_20150306_182928e.jpg'
p1358
sg4
(lp1359
(g15
g6
(g18
S'N\x8ck?'
p1360
tp1361
Rp1362
tp1363
a(g32
g6
(g18
S'\xe9\xd76='
p1364
tp1365
Rp1366
tp1367
a(g44
g6
(g18
S'm\x95\xa8<'
p1368
tp1369
Rp1370
tp1371
a(g147
g6
(g18
S'\\\xed\x87;'
p1372
tp1373
Rp1374
tp1375
a(g135
g6
(g18
S'F\xcew;'
p1376
tp1377
Rp1378
tp1379
asg73
g15
sa(dp1380
g2
S'../../../data/emanuela/activity-recognition/images/NTCIR-Lifelog-256/u1/2015-03-10/b00000232_21i6bq_20150310_151728e.jpg'
p1381
sg4
(lp1382
(g44
g6
(g18
S'H\xcb\x17?'
p1383
tp1384
Rp1385
tp1386
a(g15
g6
(g18
S'Xp\xc2>'
p1387
tp1388
Rp1389
tp1390
a(g32
g6
(g18
S'\xf9\x96N<'
p1391
tp1392
Rp1393
tp1394
a(g174
g6
(g18
S'\\\xf7\xf4;'
p1395
tp1396
Rp1397
tp1398
a(g147
g6
(g18
S'\xf9Q";'
p1399
tp1400
Rp1401
tp1402
asg73
g15
sa(dp1403
g2
S'../../../data/emanuela/activity-recognition/images/NTCIR-Lifelog-256/u1/2015-02-26/b00000741_21i6bq_20150226_141415e.jpg'
p1404
sg4
(lp1405
(g15
g6
(g18
S'\xa0\xd1)?'
p1406
tp1407
Rp1408
tp1409
a(g147
g6
(g18
S'\x9b\xa6O>'
p1410
tp1411
Rp1412
tp1413
a(g32
g6
(g18
S'\x1e\x88\x9d='
p1414
tp1415
Rp1416
tp1417
a(g44
g6
(g18
S'\x1a\t\xa9<'
p1418
tp1419
Rp1420
tp1421
a(g68
g6
(g18
S'B%\xd6;'
p1422
tp1423
Rp1424
tp1425
asg73
g15
sa(dp1426
g2
S'../../../data/emanuela/activity-recognition/images/NTCIR-Lifelog-256/u1/2015-03-06/b00001238_21i6bq_20150306_180107e.jpg'
p1427
sg4
(lp1428
(g15
g6
(g18
S'\xfa\xc5-?'
p1429
tp1430
Rp1431
tp1432
a(g32
g6
(g18
S'q\x16\x15>'
p1433
tp1434
Rp1435
tp1436
a(g420
g6
(g18
S'\x00Ah='
p1437
tp1438
Rp1439
tp1440
a(g68
g6
(g18
S'\xbd(9='
p1441
tp1442
Rp1443
tp1444
a(g174
g6
(g18
S'L\xc8\xac<'
p1445
tp1446
Rp1447
tp1448
asg73
g15
sa(dp1449
g2
S'../../../data/emanuela/activity-recognition/images/NTCIR-Lifelog-256/u1/2015-03-06/b00001320_21i6bq_20150306_185455e.jpg'
p1450
sg4
(lp1451
(g15
g6
(g18
S'\xbf\xbc%?'
p1452
tp1453
Rp1454
tp1455
a(g32
g6
(g18
S'\xb3\xb7 >'
p1456
tp1457
Rp1458
tp1459
a(g420
g6
(g18
S'W\xc1\x1a='
p1460
tp1461
Rp1462
tp1463
a(g147
g6
(g18
S'{\xe9\x08='
p1464
tp1465
Rp1466
tp1467
a(g135
g6
(g18
S'\x86\xf2\xf3<'
p1468
tp1469
Rp1470
tp1471
asg73
g15
sa(dp1472
g2
S'../../../data/emanuela/activity-recognition/images/NTCIR-Lifelog-256/u1/2015-02-26/b00000743_21i6bq_20150226_141620e.jpg'
p1473
sg4
(lp1474
(g15
g6
(g18
S'\xa0<\x83>'
p1475
tp1476
Rp1477
tp1478
a(g56
g6
(g18
S'\x17\xe8e>'
p1479
tp1480
Rp1481
tp1482
a(g44
g6
(g18
S'%\x95b>'
p1483
tp1484
Rp1485
tp1486
a(g32
g6
(g18
S'+x\xbb='
p1487
tp1488
Rp1489
tp1490
a(g147
g6
(g18
S'u\x8e\xb6='
p1491
tp1492
Rp1493
tp1494
asg73
g15
sa(dp1495
g2
S'../../../data/emanuela/activity-recognition/images/NTCIR-Lifelog-256/u1/2015-02-26/b00000734_21i6bq_20150226_140639e.jpg'
p1496
sg4
(lp1497
(g15
g6
(g18
S')3!?'
p1498
tp1499
Rp1500
tp1501
a(g147
g6
(g18
S'\xa4\xf6\x81>'
p1502
tp1503
Rp1504
tp1505
a(g32
g6
(g18
S'\xc9\x05\xd1='
p1506
tp1507
Rp1508
tp1509
a(g44
g6
(g18
S'6\xfa <'
p1510
tp1511
Rp1512
tp1513
a(g6
(g7
(S'S7'
p1514
I0
I1
tp1515
Rp1516
(I3
S'|'
p1517
NNNI7
I1
I0
tp1518
bS'cooking'
p1519
tp1520
Rp1521
g6
(g18
S'\xc7\xd0\n;'
p1522
tp1523
Rp1524
tp1525
asg73
g15
sa(dp1526
g2
S'../../../data/emanuela/activity-recognition/images/NTCIR-Lifelog-256/u1/2015-03-06/b00001241_21i6bq_20150306_180345e.jpg'
p1527
sg4
(lp1528
(g15
g6
(g18
S'>dB?'
p1529
tp1530
Rp1531
tp1532
a(g32
g6
(g18
S'\xbd\xfb.>'
p1533
tp1534
Rp1535
tp1536
a(g68
g6
(g18
S'\xfd\xa1\x95<'
p1537
tp1538
Rp1539
tp1540
a(g174
g6
(g18
S'f?\x80<'
p1541
tp1542
Rp1543
tp1544
a(g104
g6
(g18
S'\xa6\x14W<'
p1545
tp1546
Rp1547
tp1548
asg73
g15
sa(dp1549
g2
S'../../../data/emanuela/activity-recognition/images/NTCIR-Lifelog-256/u1/2015-03-10/b00000240_21i6bq_20150310_152251e.jpg'
p1550
sg4
(lp1551
(g44
g6
(g18
S'Gz(?'
p1552
tp1553
Rp1554
tp1555
a(g15
g6
(g18
S'VJ`>'
p1556
tp1557
Rp1558
tp1559
a(g174
g6
(g18
S'.>q='
p1560
tp1561
Rp1562
tp1563
a(g32
g6
(g18
S'\xc9\\\xd3<'
p1564
tp1565
Rp1566
tp1567
a(g56
g6
(g18
S'\xc9YL<'
p1568
tp1569
Rp1570
tp1571
asg73
g15
sa(dp1572
g2
S'../../../data/emanuela/activity-recognition/images/NTCIR-Lifelog-256/u1/2015-03-06/b00001243_21i6bq_20150306_180535e.jpg'
p1573
sg4
(lp1574
(g15
g6
(g18
S'\xb0\xd6\x19?'
p1575
tp1576
Rp1577
tp1578
a(g32
g6
(g18
S'\xf5\xd4\x04>'
p1579
tp1580
Rp1581
tp1582
a(g68
g6
(g18
S'\xa3\x10\xfa='
p1583
tp1584
Rp1585
tp1586
a(g174
g6
(g18
S'\xca\xff\x12='
p1587
tp1588
Rp1589
tp1590
a(g420
g6
(g18
S'\xa9\xc6\xbc<'
p1591
tp1592
Rp1593
tp1594
asg73
g15
sa(dp1595
g2
S'../../../data/emanuela/activity-recognition/images/NTCIR-Lifelog-256/u1/2015-03-06/b00001304_21i6bq_20150306_184455e.jpg'
p1596
sg4
(lp1597
(g15
g6
(g18
S'_,\\?'
p1598
tp1599
Rp1600
tp1601
a(g32
g6
(g18
S'\x08\x05E='
p1602
tp1603
Rp1604
tp1605
a(g174
g6
(g18
S'V\xe4\xaa<'
p1606
tp1607
Rp1608
tp1609
a(g44
g6
(g18
S'eG\x8b<'
p1610
tp1611
Rp1612
tp1613
a(g68
g6
(g18
S'[\xf8\x81<'
p1614
tp1615
Rp1616
tp1617
asg73
g15
sa(dp1618
g2
S'../../../data/emanuela/activity-recognition/images/NTCIR-Lifelog-256/u1/2015-02-24/b00001054_21i6bq_20150224_172549e.jpg'
p1619
sg4
(lp1620
(g15
g6
(g18
S'\x98\x87Y?'
p1621
tp1622
Rp1623
tp1624
a(g32
g6
(g18
S'\n\xc1\x92='
p1625
tp1626
Rp1627
tp1628
a(g44
g6
(g18
S'\xabd\xde<'
p1629
tp1630
Rp1631
tp1632
a(g56
g6
(g18
S'\xb1i\xbc<'
p1633
tp1634
Rp1635
tp1636
a(g174
g6
(g18
S'F\xad1<'
p1637
tp1638
Rp1639
tp1640
asg73
g15
sa(dp1641
g2
S'../../../data/emanuela/activity-recognition/images/NTCIR-Lifelog-256/u1/2015-03-11/b00000602_21i6bq_20150311_130334e.jpg'
p1642
sg4
(lp1643
(g56
g6
(g18
S'D\xab=?'
p1644
tp1645
Rp1646
tp1647
a(g68
g6
(g18
S'U\xf8\xfd='
p1648
tp1649
Rp1650
tp1651
a(g84
g6
(g18
S'^!\xe4='
p1652
tp1653
Rp1654
tp1655
a(g32
g6
(g18
S'\x93\xcd\x1a<'
p1656
tp1657
Rp1658
tp1659
a(g266
g6
(g18
S'\x9a\xab\x82;'
p1660
tp1661
Rp1662
tp1663
asg73
g15
sa(dp1664
g2
S'../../../data/emanuela/activity-recognition/images/NTCIR-Lifelog-256/u1/2015-03-10/b00000241_21i6bq_20150310_152443e.jpg'
p1665
sg4
(lp1666
(g44
g6
(g18
S'_YQ?'
p1667
tp1668
Rp1669
tp1670
a(g56
g6
(g18
S'#u\xc2='
p1671
tp1672
Rp1673
tp1674
a(g32
g6
(g18
S'y\xd7\x1d='
p1675
tp1676
Rp1677
tp1678
a(g15
g6
(g18
S'\xa1\x80\xbd<'
p1679
tp1680
Rp1681
tp1682
a(g174
g6
(g18
S'8\x98\x89<'
p1683
tp1684
Rp1685
tp1686
asg73
g15
sa(dp1687
g2
S'../../../data/emanuela/activity-recognition/images/NTCIR-Lifelog-256/u1/2015-03-11/b00000614_21i6bq_20150311_131056e.jpg'
p1688
sg4
(lp1689
(g44
g6
(g18
S'~\xa4\xb0>'
p1690
tp1691
Rp1692
tp1693
a(g15
g6
(g18
S'\xb9yW>'
p1694
tp1695
Rp1696
tp1697
a(g147
g6
(g18
S'\n\xc9\xc6='
p1698
tp1699
Rp1700
tp1701
a(g104
g6
(g18
S'\x91\x9d\xbb='
p1702
tp1703
Rp1704
tp1705
a(g68
g6
(g18
S'\xf3\xa6\x8f='
p1706
tp1707
Rp1708
tp1709
asg73
g15
sa(dp1710
g2
S'../../../data/emanuela/activity-recognition/images/NTCIR-Lifelog-256/u1/2015-02-24/b00000909_21i6bq_20150224_155642e.jpg'
p1711
sg4
(lp1712
(g147
g6
(g18
S'%\xf0\xfc>'
p1713
tp1714
Rp1715
tp1716
a(g15
g6
(g18
S'8\x81\xb4='
p1717
tp1718
Rp1719
tp1720
a(g6
(g7
(S'S7'
p1721
I0
I1
tp1722
Rp1723
(I3
S'|'
p1724
NNNI7
I1
I0
tp1725
bS'resting'
p1726
tp1727
Rp1728
g6
(g18
S'\x90*\xa0='
p1729
tp1730
Rp1731
tp1732
a(g1521
g6
(g18
S'\xec=\x8f='
p1733
tp1734
Rp1735
tp1736
a(g68
g6
(g18
S'\xe8\xff\x83='
p1737
tp1738
Rp1739
tp1740
asg73
g15
sa(dp1741
g2
S'../../../data/emanuela/activity-recognition/images/NTCIR-Lifelog-256/u1/2015-03-02/b00000235_21i6bq_20150302_091840e.jpg'
p1742
sg4
(lp1743
(g56
g6
(g18
S'=\xff\x0e?'
p1744
tp1745
Rp1746
tp1747
a(g266
g6
(g18
S'p7\xb6>'
p1748
tp1749
Rp1750
tp1751
a(g420
g6
(g18
S'\xe8?\xa1<'
p1752
tp1753
Rp1754
tp1755
a(g6
(g7
(S'S7'
p1756
I0
I1
tp1757
Rp1758
(I3
S'|'
p1759
NNNI7
I1
I0
tp1760
bS'reading'
p1761
tp1762
Rp1763
g6
(g18
S'\x18\xdfs<'
p1764
tp1765
Rp1766
tp1767
a(g44
g6
(g18
S'\x07yp<'
p1768
tp1769
Rp1770
tp1771
asg73
g15
sa(dp1772
g2
S'../../../data/emanuela/activity-recognition/images/NTCIR-Lifelog-256/u1/2015-03-06/b00001298_21i6bq_20150306_184113e.jpg'
p1773
sg4
(lp1774
(g15
g6
(g18
S'\x11\xbe>?'
p1775
tp1776
Rp1777
tp1778
a(g32
g6
(g18
S'\xb6\x90U>'
p1779
tp1780
Rp1781
tp1782
a(g68
g6
(g18
S'\x85"\x99<'
p1783
tp1784
Rp1785
tp1786
a(g44
g6
(g18
S'\x8f\xb9(<'
p1787
tp1788
Rp1789
tp1790
a(g56
g6
(g18
S'\xc3\x14\xaf;'
p1791
tp1792
Rp1793
tp1794
asg73
g15
sa(dp1795
g2
S'../../../data/emanuela/activity-recognition/images/NTCIR-Lifelog-256/u1/2015-03-06/b00001223_21i6bq_20150306_175126e.jpg'
p1796
sg4
(lp1797
(g15
g6
(g18
S'n\x80!?'
p1798
tp1799
Rp1800
tp1801
a(g32
g6
(g18
S'\xa5\x04K>'
p1802
tp1803
Rp1804
tp1805
a(g44
g6
(g18
S'\xba\x97]='
p1806
tp1807
Rp1808
tp1809
a(g147
g6
(g18
S'08:='
p1810
tp1811
Rp1812
tp1813
a(g135
g6
(g18
S'pZ\xba<'
p1814
tp1815
Rp1816
tp1817
asg73
g15
sa(dp1818
g2
S'../../../data/emanuela/activity-recognition/images/NTCIR-Lifelog-256/u1/2015-03-06/b00001267_21i6bq_20150306_182046e.jpg'
p1819
sg4
(lp1820
(g32
g6
(g18
S'\xb6\x9a\xae>'
p1821
tp1822
Rp1823
tp1824
a(g15
g6
(g18
S'Eb\xa2>'
p1825
tp1826
Rp1827
tp1828
a(g68
g6
(g18
S'\xd4\x7f\n>'
p1829
tp1830
Rp1831
tp1832
a(g56
g6
(g18
S'X\xca\xac='
p1833
tp1834
Rp1835
tp1836
a(g174
g6
(g18
S'\xcc\xd6v='
p1837
tp1838
Rp1839
tp1840
asg73
g15
sa(dp1841
g2
S'../../../data/emanuela/activity-recognition/images/NTCIR-Lifelog-256/u1/2015-03-06/b00001302_21i6bq_20150306_184335e.jpg'
p1842
sg4
(lp1843
(g15
g6
(g18
S'\xaf\xd4\x03?'
p1844
tp1845
Rp1846
tp1847
a(g32
g6
(g18
S'8\x0e\xa0>'
p1848
tp1849
Rp1850
tp1851
a(g44
g6
(g18
S'\x89\x19\x99='
p1852
tp1853
Rp1854
tp1855
a(g56
g6
(g18
S'@\xf5/='
p1856
tp1857
Rp1858
tp1859
a(g68
g6
(g18
S'\xa2\xfb\xbb<'
p1860
tp1861
Rp1862
tp1863
asg73
g15
sa(dp1864
g2
S'../../../data/emanuela/activity-recognition/images/NTCIR-Lifelog-256/u1/2015-03-02/b00000259_21i6bq_20150302_093420e.jpg'
p1865
sg4
(lp1866
(g56
g6
(g18
S'ml\x7f>'
p1867
tp1868
Rp1869
tp1870
a(g1763
g6
(g18
S'\xad\x0eG>'
p1871
tp1872
Rp1873
tp1874
a(g266
g6
(g18
S'\xce\x00\x12>'
p1875
tp1876
Rp1877
tp1878
a(g420
g6
(g18
S'\x1aW\x0b>'
p1879
tp1880
Rp1881
tp1882
a(g84
g6
(g18
S'Y\x8ez='
p1883
tp1884
Rp1885
tp1886
asg73
g15
sa(dp1887
g2
S'../../../data/emanuela/activity-recognition/images/NTCIR-Lifelog-256/u1/2015-03-06/b00001258_21i6bq_20150306_181510e.jpg'
p1888
sg4
(lp1889
(g15
g6
(g18
S'\xaem)?'
p1890
tp1891
Rp1892
tp1893
a(g32
g6
(g18
S'\xfc\x8e\xdc='
p1894
tp1895
Rp1896
tp1897
a(g44
g6
(g18
S'\xefu^='
p1898
tp1899
Rp1900
tp1901
a(g147
g6
(g18
S'\x89\x01(='
p1902
tp1903
Rp1904
tp1905
a(g68
g6
(g18
S'\xd8\xa6\x15='
p1906
tp1907
Rp1908
tp1909
asg73
g15
sa(dp1910
g2
S'../../../data/emanuela/activity-recognition/images/NTCIR-Lifelog-256/u1/2015-02-24/b00000910_21i6bq_20150224_155721e.jpg'
p1911
sg4
(lp1912
(g15
g6
(g18
S'G\xc2W?'
p1913
tp1914
Rp1915
tp1916
a(g147
g6
(g18
S'\xd4:\x89='
p1917
tp1918
Rp1919
tp1920
a(g44
g6
(g18
S'\xf2W\xb1<'
p1921
tp1922
Rp1923
tp1924
a(g68
g6
(g18
S'\xbd~\x95<'
p1925
tp1926
Rp1927
tp1928
a(g1728
g6
(g18
S'\x8e\x88u<'
p1929
tp1930
Rp1931
tp1932
asg73
g15
sa(dp1933
g2
S'../../../data/emanuela/activity-recognition/images/NTCIR-Lifelog-256/u1/2015-03-06/b00001266_21i6bq_20150306_182008e.jpg'
p1934
sg4
(lp1935
(g32
g6
(g18
S'\x10c\xdf>'
p1936
tp1937
Rp1938
tp1939
a(g15
g6
(g18
S'\xf3\xbc\xd3>'
p1940
tp1941
Rp1942
tp1943
a(g174
g6
(g18
S'\n+\x0c='
p1944
tp1945
Rp1946
tp1947
a(g68
g6
(g18
S'Y\x8d\xe9<'
p1948
tp1949
Rp1950
tp1951
a(g56
g6
(g18
S'\xd1>\xc0<'
p1952
tp1953
Rp1954
tp1955
asg73
g15
sa(dp1956
g2
S'../../../data/emanuela/activity-recognition/images/NTCIR-Lifelog-256/u1/2015-03-02/b00000239_21i6bq_20150302_092113e.jpg'
p1957
sg4
(lp1958
(g266
g6
(g18
S'\x92!:?'
p1959
tp1960
Rp1961
tp1962
a(g56
g6
(g18
S'*S~>'
p1963
tp1964
Rp1965
tp1966
a(g44
g6
(g18
S'\x1d\xd5=<'
p1967
tp1968
Rp1969
tp1970
a(g32
g6
(g18
S'\x9f\x15\x98;'
p1971
tp1972
Rp1973
tp1974
a(g68
g6
(g18
S'\xfa<);'
p1975
tp1976
Rp1977
tp1978
asg73
g15
sa(dp1979
g2
S'../../../data/emanuela/activity-recognition/images/NTCIR-Lifelog-256/u1/2015-03-06/b00001317_21i6bq_20150306_185300e.jpg'
p1980
sg4
(lp1981
(g15
g6
(g18
S'\x00\x9a.?'
p1982
tp1983
Rp1984
tp1985
a(g44
g6
(g18
S'\x16+\x1c>'
p1986
tp1987
Rp1988
tp1989
a(g32
g6
(g18
S'(/\xd4='
p1990
tp1991
Rp1992
tp1993
a(g56
g6
(g18
S'\xa0]\xa4<'
p1994
tp1995
Rp1996
tp1997
a(g68
g6
(g18
S'f6|<'
p1998
tp1999
Rp2000
tp2001
asg73
g15
sa(dp2002
g2
S'../../../data/emanuela/activity-recognition/images/NTCIR-Lifelog-256/u1/2015-03-06/b00001277_21i6bq_20150306_182656e.jpg'
p2003
sg4
(lp2004
(g32
g6
(g18
S'\xbb\x88\x0c?'
p2005
tp2006
Rp2007
tp2008
a(g15
g6
(g18
S'3OT>'
p2009
tp2010
Rp2011
tp2012
a(g68
g6
(g18
S'\x1e|\xec='
p2013
tp2014
Rp2015
tp2016
a(g56
g6
(g18
S'r\x07=='
p2017
tp2018
Rp2019
tp2020
a(g44
g6
(g18
S'G\x88\xd7<'
p2021
tp2022
Rp2023
tp2024
asg73
g15
sa(dp2025
g2
S'../../../data/emanuela/activity-recognition/images/NTCIR-Lifelog-256/u1/2015-03-10/b00000254_21i6bq_20150310_153452e.jpg'
p2026
sg4
(lp2027
(g56
g6
(g18
S'm\x01\xd0>'
p2028
tp2029
Rp2030
tp2031
a(g44
g6
(g18
S'\x9a\xf2\x91>'
p2032
tp2033
Rp2034
tp2035
a(g32
g6
(g18
S'\x87\x9cD>'
p2036
tp2037
Rp2038
tp2039
a(g174
g6
(g18
S'\x81\xf8\x83='
p2040
tp2041
Rp2042
tp2043
a(g15
g6
(g18
S'.\x1e\n='
p2044
tp2045
Rp2046
tp2047
asg73
g15
sa(dp2048
g2
S'../../../data/emanuela/activity-recognition/images/NTCIR-Lifelog-256/u1/2015-03-06/b00001271_21i6bq_20150306_182315e.jpg'
p2049
sg4
(lp2050
(g32
g6
(g18
S'}#\x01?'
p2051
tp2052
Rp2053
tp2054
a(g15
g6
(g18
S'\x96\xe7.>'
p2055
tp2056
Rp2057
tp2058
a(g44
g6
(g18
S'&\x98(>'
p2059
tp2060
Rp2061
tp2062
a(g56
g6
(g18
S'\xe1\x0b`='
p2063
tp2064
Rp2065
tp2066
a(g6
(g7
(S'S6'
p2067
I0
I1
tp2068
Rp2069
(I3
S'|'
p2070
NNNI6
I1
I0
tp2071
bS'biking'
p2072
tp2073
Rp2074
g6
(g18
S'\xa4\x87\xc6<'
p2075
tp2076
Rp2077
tp2078
asg73
g15
sa(dp2079
g2
S'../../../data/emanuela/activity-recognition/images/NTCIR-Lifelog-256/u1/2015-03-06/b00001245_21i6bq_20150306_180643e.jpg'
p2080
sg4
(lp2081
(g15
g6
(g18
S'\x97!\x19?'
p2082
tp2083
Rp2084
tp2085
a(g32
g6
(g18
S'\x9b\xfa.>'
p2086
tp2087
Rp2088
tp2089
a(g56
g6
(g18
S'\x9f\xea\x99='
p2090
tp2091
Rp2092
tp2093
a(g68
g6
(g18
S'\xe8U\\='
p2094
tp2095
Rp2096
tp2097
a(g420
g6
(g18
S'O\x8d0='
p2098
tp2099
Rp2100
tp2101
asg73
g15
sa(dp2102
g2
S'../../../data/emanuela/activity-recognition/images/NTCIR-Lifelog-256/u1/2015-03-06/b00001217_21i6bq_20150306_174713e.jpg'
p2103
sg4
(lp2104
(g15
g6
(g18
S'\x7fb??'
p2105
tp2106
Rp2107
tp2108
a(g32
g6
(g18
S'ZiP>'
p2109
tp2110
Rp2111
tp2112
a(g44
g6
(g18
S'w\xdc\xe2<'
p2113
tp2114
Rp2115
tp2116
a(g68
g6
(g18
S'\t\x845<'
p2117
tp2118
Rp2119
tp2120
a(g147
g6
(g18
S'\xa3)\xb8;'
p2121
tp2122
Rp2123
tp2124
asg73
g15
sa(dp2125
g2
S'../../../data/emanuela/activity-recognition/images/NTCIR-Lifelog-256/u1/2015-03-06/b00001272_21i6bq_20150306_182352e.jpg'
p2126
sg4
(lp2127
(g15
g6
(g18
S'u\x82\x0c?'
p2128
tp2129
Rp2130
tp2131
a(g32
g6
(g18
S'D!#>'
p2132
tp2133
Rp2134
tp2135
a(g44
g6
(g18
S'1\xd9!>'
p2136
tp2137
Rp2138
tp2139
a(g147
g6
(g18
S'S\xf6`='
p2140
tp2141
Rp2142
tp2143
a(g56
g6
(g18
S'\x08X\x8e<'
p2144
tp2145
Rp2146
tp2147
asg73
g15
sa(dp2148
g2
S'../../../data/emanuela/activity-recognition/images/NTCIR-Lifelog-256/u1/2015-02-28/b00001000_21i6bq_20150228_164105e.jpg'
p2149
sg4
(lp2150
(g15
g6
(g18
S'%\xd4}?'
p2151
tp2152
Rp2153
tp2154
a(g44
g6
(g18
S'\x9a\n\xb7;'
p2155
tp2156
Rp2157
tp2158
a(g32
g6
(g18
S'\xfbY\xd9:'
p2159
tp2160
Rp2161
tp2162
a(g147
g6
(g18
S'\x05`\x82:'
p2163
tp2164
Rp2165
tp2166
a(g174
g6
(g18
S'z\xf0\x029'
p2167
tp2168
Rp2169
tp2170
asg73
g15
sa(dp2171
g2
S'../../../data/emanuela/activity-recognition/images/NTCIR-Lifelog-256/u1/2015-03-06/b00001321_21i6bq_20150306_185531e.jpg'
p2172
sg4
(lp2173
(g15
g6
(g18
S'\x11D\xac>'
p2174
tp2175
Rp2176
tp2177
a(g32
g6
(g18
S'\xd5\x95\x91>'
p2178
tp2179
Rp2180
tp2181
a(g420
g6
(g18
S'\xcb\r\x1d>'
p2182
tp2183
Rp2184
tp2185
a(g56
g6
(g18
S'9:V='
p2186
tp2187
Rp2188
tp2189
a(g68
g6
(g18
S'\x90\xa3#='
p2190
tp2191
Rp2192
tp2193
asg73
g15
sa(dp2194
g2
S'../../../data/emanuela/activity-recognition/images/NTCIR-Lifelog-256/u1/2015-03-11/b00000609_21i6bq_20150311_130750e.jpg'
p2195
sg4
(lp2196
(g56
g6
(g18
S')\x83\x88>'
p2197
tp2198
Rp2199
tp2200
a(g68
g6
(g18
S'oex>'
p2201
tp2202
Rp2203
tp2204
a(g174
g6
(g18
S'\x9f\xc1q>'
p2205
tp2206
Rp2207
tp2208
a(g104
g6
(g18
S'K\xf4\xa5='
p2209
tp2210
Rp2211
tp2212
a(g84
g6
(g18
S'\x8a@5='
p2213
tp2214
Rp2215
tp2216
asg73
g15
sa(dp2217
g2
S'../../../data/emanuela/activity-recognition/images/NTCIR-Lifelog-256/u1/2015-03-06/b00001246_21i6bq_20150306_180723e.jpg'
p2218
sg4
(lp2219
(g15
g6
(g18
S'I\x170?'
p2220
tp2221
Rp2222
tp2223
a(g32
g6
(g18
S'Xs\r>'
p2224
tp2225
Rp2226
tp2227
a(g56
g6
(g18
S'n\xf4\xe1='
p2228
tp2229
Rp2230
tp2231
a(g68
g6
(g18
S'\xfb\x9e\x07='
p2232
tp2233
Rp2234
tp2235
a(g44
g6
(g18
S'\x18\xc8\x18<'
p2236
tp2237
Rp2238
tp2239
asg73
g15
sa(dp2240
g2
S'../../../data/emanuela/activity-recognition/images/NTCIR-Lifelog-256/u1/2015-03-06/b00001282_21i6bq_20150306_183046e.jpg'
p2241
sg4
(lp2242
(g15
g6
(g18
S'dW\xf6>'
p2243
tp2244
Rp2245
tp2246
a(g32
g6
(g18
S'\xec\xe4\xb7>'
p2247
tp2248
Rp2249
tp2250
a(g68
g6
(g18
S'\xcd\x12\x18='
p2251
tp2252
Rp2253
tp2254
a(g56
g6
(g18
S'w\xe5\x06='
p2255
tp2256
Rp2257
tp2258
a(g44
g6
(g18
S'\x91"\x9a<'
p2259
tp2260
Rp2261
tp2262
asg73
g15
sa(dp2263
g2
S'../../../data/emanuela/activity-recognition/images/NTCIR-Lifelog-256/u1/2015-03-10/b00000227_21i6bq_20150310_151424e.jpg'
p2264
sg4
(lp2265
(g68
g6
(g18
S'\x89\x9a\x87>'
p2266
tp2267
Rp2268
tp2269
a(g44
g6
(g18
S'fN\x80>'
p2270
tp2271
Rp2272
tp2273
a(g56
g6
(g18
S')\xb7N>'
p2274
tp2275
Rp2276
tp2277
a(g32
g6
(g18
S'\x05\xc1\n>'
p2278
tp2279
Rp2280
tp2281
a(g15
g6
(g18
S'\xcd\xf1\xb8='
p2282
tp2283
Rp2284
tp2285
asg73
g15
sa(dp2286
g2
S'../../../data/emanuela/activity-recognition/images/NTCIR-Lifelog-256/u1/2015-03-06/b00001299_21i6bq_20150306_184147e.jpg'
p2287
sg4
(lp2288
(g32
g6
(g18
S'\x05=\xcd>'
p2289
tp2290
Rp2291
tp2292
a(g15
g6
(g18
S'9)\xc7>'
p2293
tp2294
Rp2295
tp2296
a(g56
g6
(g18
S'g\x05\x97='
p2297
tp2298
Rp2299
tp2300
a(g44
g6
(g18
S'\x14\xae9='
p2301
tp2302
Rp2303
tp2304
a(g68
g6
(g18
S'\xaeX$='
p2305
tp2306
Rp2307
tp2308
asg73
g15
sa(dp2309
g2
S'../../../data/emanuela/activity-recognition/images/NTCIR-Lifelog-256/u1/2015-03-10/b00000253_21i6bq_20150310_153410e.jpg'
p2310
sg4
(lp2311
(g44
g6
(g18
S'\xf1\x00N?'
p2312
tp2313
Rp2314
tp2315
a(g15
g6
(g18
S'Z(\xb1='
p2316
tp2317
Rp2318
tp2319
a(g56
g6
(g18
S'\xfd\x81_='
p2320
tp2321
Rp2322
tp2323
a(g32
g6
(g18
S'\xa91\x0e='
p2324
tp2325
Rp2326
tp2327
a(g174
g6
(g18
S'\xcc\xec?<'
p2328
tp2329
Rp2330
tp2331
asg73
g15
sa(dp2332
g2
S'../../../data/emanuela/activity-recognition/images/NTCIR-Lifelog-256/u1/2015-03-06/b00001231_21i6bq_20150306_175655e.jpg'
p2333
sg4
(lp2334
(g15
g6
(g18
S'n\xdb4?'
p2335
tp2336
Rp2337
tp2338
a(g32
g6
(g18
S'q&u>'
p2339
tp2340
Rp2341
tp2342
a(g68
g6
(g18
S'1_\x8a<'
p2343
tp2344
Rp2345
tp2346
a(g104
g6
(g18
S'\x1f\xff\x81<'
p2347
tp2348
Rp2349
tp2350
a(g44
g6
(g18
S'\xe7\xc8\x97;'
p2351
tp2352
Rp2353
tp2354
asg73
g15
sa(dp2355
g2
S'../../../data/emanuela/activity-recognition/images/NTCIR-Lifelog-256/u1/2015-03-06/b00001227_21i6bq_20150306_175435e.jpg'
p2356
sg4
(lp2357
(g15
g6
(g18
S'\xcb\xf6\xa5>'
p2358
tp2359
Rp2360
tp2361
a(g44
g6
(g18
S'1\xb0\x82>'
p2362
tp2363
Rp2364
tp2365
a(g174
g6
(g18
S'\x99e\xec='
p2366
tp2367
Rp2368
tp2369
a(g147
g6
(g18
S'\xa4\xe0\xb2='
p2370
tp2371
Rp2372
tp2373
a(g32
g6
(g18
S'\xdcL\xae='
p2374
tp2375
Rp2376
tp2377
asg73
g15
sa(dp2378
g2
S'../../../data/emanuela/activity-recognition/images/NTCIR-Lifelog-256/u1/2015-03-06/b00001216_21i6bq_20150306_174552e.jpg'
p2379
sg4
(lp2380
(g15
g6
(g18
S'\x0bPG?'
p2381
tp2382
Rp2383
tp2384
a(g32
g6
(g18
S'\x97\x94\t>'
p2385
tp2386
Rp2387
tp2388
a(g104
g6
(g18
S';1\xf3<'
p2389
tp2390
Rp2391
tp2392
a(g44
g6
(g18
S'\x1aS\xbd<'
p2393
tp2394
Rp2395
tp2396
a(g147
g6
(g18
S"\xe7E'<"
p2397
tp2398
Rp2399
tp2400
asg73
g15
sa(dp2401
g2
S'../../../data/emanuela/activity-recognition/images/NTCIR-Lifelog-256/u1/2015-03-06/b00001230_21i6bq_20150306_175617e.jpg'
p2402
sg4
(lp2403
(g15
g6
(g18
S'\x96\xab+?'
p2404
tp2405
Rp2406
tp2407
a(g32
g6
(g18
S'\xacnK>'
p2408
tp2409
Rp2410
tp2411
a(g147
g6
(g18
S'6\x85\xe0<'
p2412
tp2413
Rp2414
tp2415
a(g135
g6
(g18
S'?\x8b\xad<'
p2416
tp2417
Rp2418
tp2419
a(g68
g6
(g18
S'\xd0\xb9\xaa<'
p2420
tp2421
Rp2422
tp2423
asg73
g15
sa(dp2424
g2
S'../../../data/emanuela/activity-recognition/images/NTCIR-Lifelog-256/u1/2015-02-24/b00000455_21i6bq_20150224_111831e.jpg'
p2425
sg4
(lp2426
(g15
g6
(g18
S'\xef\xc1p?'
p2427
tp2428
Rp2429
tp2430
a(g32
g6
(g18
S'F\xb9\xc9<'
p2431
tp2432
Rp2433
tp2434
a(g174
g6
(g18
S'M\x83q<'
p2435
tp2436
Rp2437
tp2438
a(g44
g6
(g18
S'\xe9\xfed<'
p2439
tp2440
Rp2441
tp2442
a(g147
g6
(g18
S"d');"
p2443
tp2444
Rp2445
tp2446
asg73
g15
sa(dp2447
g2
S'../../../data/emanuela/activity-recognition/images/NTCIR-Lifelog-256/u1/2015-02-28/b00000999_21i6bq_20150228_163951e.jpg'
p2448
sg4
(lp2449
(g15
g6
(g18
S'*\xac|?'
p2450
tp2451
Rp2452
tp2453
a(g44
g6
(g18
S'\xf5y\xba;'
p2454
tp2455
Rp2456
tp2457
a(g32
g6
(g18
S'\xa6\\\x9e;'
p2458
tp2459
Rp2460
tp2461
a(g147
g6
(g18
S'\xf0\xf1\x02;'
p2462
tp2463
Rp2464
tp2465
a(g174
g6
(g18
S'\x93\x04\x959'
p2466
tp2467
Rp2468
tp2469
asg73
g15
sa(dp2470
g2
S'../../../data/emanuela/activity-recognition/images/NTCIR-Lifelog-256/u1/2015-03-06/b00001248_21i6bq_20150306_180836e.jpg'
p2471
sg4
(lp2472
(g15
g6
(g18
S'\x98\x03\xf9>'
p2473
tp2474
Rp2475
tp2476
a(g32
g6
(g18
S'\xec;(>'
p2477
tp2478
Rp2479
tp2480
a(g147
g6
(g18
S'\xe3D\x00>'
p2481
tp2482
Rp2483
tp2484
a(g44
g6
(g18
S'\xd0\xa6K='
p2485
tp2486
Rp2487
tp2488
a(g420
g6
(g18
S'"\xd3\x1a='
p2489
tp2490
Rp2491
tp2492
asg73
g15
sa(dp2493
g2
S'../../../data/emanuela/activity-recognition/images/NTCIR-Lifelog-256/u1/2015-03-06/b00001273_21i6bq_20150306_182430e.jpg'
p2494
sg4
(lp2495
(g15
g6
(g18
S'\x90\x82\x0c?'
p2496
tp2497
Rp2498
tp2499
a(g32
g6
(g18
S'\xbeI\xc8>'
p2500
tp2501
Rp2502
tp2503
a(g44
g6
(g18
S'\x94m>='
p2504
tp2505
Rp2506
tp2507
a(g147
g6
(g18
S'\xf3~J;'
p2508
tp2509
Rp2510
tp2511
a(g56
g6
(g18
S'\x98\xa94;'
p2512
tp2513
Rp2514
tp2515
asg73
g15
sa(dp2516
g2
S'../../../data/emanuela/activity-recognition/images/NTCIR-Lifelog-256/u1/2015-03-06/b00001215_21i6bq_20150306_174513e.jpg'
p2517
sg4
(lp2518
(g15
g6
(g18
S'\xd5\xc9\xdc>'
p2519
tp2520
Rp2521
tp2522
a(g44
g6
(g18
S'\xd3\xdf\xc9>'
p2523
tp2524
Rp2525
tp2526
a(g32
g6
(g18
S'{b\xcd='
p2527
tp2528
Rp2529
tp2530
a(g147
g6
(g18
S'\xb4\xd3c='
p2531
tp2532
Rp2533
tp2534
a(g1521
g6
(g18
S'\x9d\xa6\xb3;'
p2535
tp2536
Rp2537
tp2538
asg73
g15
sa(dp2539
g2
S'../../../data/emanuela/activity-recognition/images/NTCIR-Lifelog-256/u1/2015-03-10/b00000245_21i6bq_20150310_152752e.jpg'
p2540
sg4
(lp2541
(g44
g6
(g18
S'\xe0\xd9\x08?'
p2542
tp2543
Rp2544
tp2545
a(g32
g6
(g18
S'\xeckX>'
p2546
tp2547
Rp2548
tp2549
a(g15
g6
(g18
S'\xcctL>'
p2550
tp2551
Rp2552
tp2553
a(g56
g6
(g18
S'.\n\xff<'
p2554
tp2555
Rp2556
tp2557
a(g68
g6
(g18
S'\x97\xcd\x19<'
p2558
tp2559
Rp2560
tp2561
asg73
g15
sa(dp2562
g2
S'../../../data/emanuela/activity-recognition/images/NTCIR-Lifelog-256/u1/2015-03-02/b00000258_21i6bq_20150302_093341e.jpg'
p2563
sg4
(lp2564
(g56
g6
(g18
S'\xc3\xb8\xc8>'
p2565
tp2566
Rp2567
tp2568
a(g32
g6
(g18
S'\x0fxM>'
p2569
tp2570
Rp2571
tp2572
a(g84
g6
(g18
S'@V\x1c>'
p2573
tp2574
Rp2575
tp2576
a(g266
g6
(g18
S'\xcc\x18\xc2='
p2577
tp2578
Rp2579
tp2580
a(g44
g6
(g18
S'S\x88\\='
p2581
tp2582
Rp2583
tp2584
asg73
g15
sa(dp2585
g2
S'../../../data/emanuela/activity-recognition/images/NTCIR-Lifelog-256/u1/2015-03-06/b00001219_21i6bq_20150306_174822e.jpg'
p2586
sg4
(lp2587
(g15
g6
(g18
S'9\x7fO?'
p2588
tp2589
Rp2590
tp2591
a(g32
g6
(g18
S'\x88p\xb1='
p2592
tp2593
Rp2594
tp2595
a(g44
g6
(g18
S'\xf9\x03\x91='
p2596
tp2597
Rp2598
tp2599
a(g147
g6
(g18
S'\xda\x18^<'
p2600
tp2601
Rp2602
tp2603
a(g68
g6
(g18
S'\x88Q\xf8;'
p2604
tp2605
Rp2606
tp2607
asg73
g15
sa(dp2608
g2
S'../../../data/emanuela/activity-recognition/images/NTCIR-Lifelog-256/u1/2015-03-02/b00000234_21i6bq_20150302_091758e.jpg'
p2609
sg4
(lp2610
(g266
g6
(g18
S'\xb9w\x18?'
p2611
tp2612
Rp2613
tp2614
a(g56
g6
(g18
S'\x94\x12\x9f>'
p2615
tp2616
Rp2617
tp2618
a(g1763
g6
(g18
S'sy\xea<'
p2619
tp2620
Rp2621
tp2622
a(g44
g6
(g18
S'\xc9s\xe8<'
p2623
tp2624
Rp2625
tp2626
a(g84
g6
(g18
S'\x1e\x18\x15<'
p2627
tp2628
Rp2629
tp2630
asg73
g15
sa(dp2631
g2
S'../../../data/emanuela/activity-recognition/images/NTCIR-Lifelog-256/u1/2015-03-06/b00001259_21i6bq_20150306_181547e.jpg'
p2632
sg4
(lp2633
(g32
g6
(g18
S'\xa3\x07\xd2>'
p2634
tp2635
Rp2636
tp2637
a(g15
g6
(g18
S'\x1b@\xa0>'
p2638
tp2639
Rp2640
tp2641
a(g56
g6
(g18
S'\xbdP\xb5='
p2642
tp2643
Rp2644
tp2645
a(g68
g6
(g18
S'\xac\xf5^='
p2646
tp2647
Rp2648
tp2649
a(g104
g6
(g18
S'T;,='
p2650
tp2651
Rp2652
tp2653
asg73
g15
sa(dp2654
g2
S'../../../data/emanuela/activity-recognition/images/NTCIR-Lifelog-256/u1/2015-03-11/b00000601_21i6bq_20150311_130255e.jpg'
p2655
sg4
(lp2656
(g56
g6
(g18
S'\x9d\xf6\x9a>'
p2657
tp2658
Rp2659
tp2660
a(g15
g6
(g18
S'\x9b\x84R>'
p2661
tp2662
Rp2663
tp2664
a(g68
g6
(g18
S's\xe0N>'
p2665
tp2666
Rp2667
tp2668
a(g32
g6
(g18
S'f\xd3\xd9='
p2669
tp2670
Rp2671
tp2672
a(g104
g6
(g18
S'J}\x99='
p2673
tp2674
Rp2675
tp2676
asg73
g15
sa(dp2677
g2
S'../../../data/emanuela/activity-recognition/images/NTCIR-Lifelog-256/u1/2015-03-11/b00000606_21i6bq_20150311_130601e.jpg'
p2678
sg4
(lp2679
(g68
g6
(g18
S'\xdd\xbb\x17?'
p2680
tp2681
Rp2682
tp2683
a(g104
g6
(g18
S'\xb1\xd3\xee='
p2684
tp2685
Rp2686
tp2687
a(g84
g6
(g18
S'\xbaG\xb4='
p2688
tp2689
Rp2690
tp2691
a(g135
g6
(g18
S'\xd9H\xa1='
p2692
tp2693
Rp2694
tp2695
a(g1728
g6
(g18
S'\xfb\xe1\x18='
p2696
tp2697
Rp2698
tp2699
asg73
g15
sa(dp2700
g2
S'../../../data/emanuela/activity-recognition/images/NTCIR-Lifelog-256/u1/2015-02-24/b00000904_21i6bq_20150224_155342e.jpg'
p2701
sg4
(lp2702
(g15
g6
(g18
S'\xe8hr?'
p2703
tp2704
Rp2705
tp2706
a(g32
g6
(g18
S'\xde\x14/='
p2707
tp2708
Rp2709
tp2710
a(g147
g6
(g18
S'\x14^2;'
p2711
tp2712
Rp2713
tp2714
a(g56
g6
(g18
S'\xc6\x90\x1b;'
p2715
tp2716
Rp2717
tp2718
a(g44
g6
(g18
S'J\x97\x01;'
p2719
tp2720
Rp2721
tp2722
asg73
g15
sa(dp2723
g2
S'../../../data/emanuela/activity-recognition/images/NTCIR-Lifelog-256/u1/2015-03-16/b00002897_21i6bq_20150316_195358e.jpg'
p2724
sg4
(lp2725
(g15
g6
(g18
S'KhG?'
p2726
tp2727
Rp2728
tp2729
a(g174
g6
(g18
S'\x80\xb2\xe4='
p2730
tp2731
Rp2732
tp2733
a(g420
g6
(g18
S'%\x85\t='
p2734
tp2735
Rp2736
tp2737
a(g32
g6
(g18
S'J\xe9\xd2<'
p2738
tp2739
Rp2740
tp2741
a(g68
g6
(g18
S'#\xc3\x82<'
p2742
tp2743
Rp2744
tp2745
asg73
g15
sa(dp2746
g2
S'../../../data/emanuela/activity-recognition/images/NTCIR-Lifelog-256/u1/2015-03-06/b00001318_21i6bq_20150306_185337e.jpg'
p2747
sg4
(lp2748
(g32
g6
(g18
S'SM\x04?'
p2749
tp2750
Rp2751
tp2752
a(g15
g6
(g18
S'\xdb\xf7\x89>'
p2753
tp2754
Rp2755
tp2756
a(g68
g6
(g18
S'\xdc7c='
p2757
tp2758
Rp2759
tp2760
a(g56
g6
(g18
S'\xfb\xfcX='
p2761
tp2762
Rp2763
tp2764
a(g44
g6
(g18
S'\x8cWX='
p2765
tp2766
Rp2767
tp2768
asg73
g15
sa(dp2769
g2
S'../../../data/emanuela/activity-recognition/images/NTCIR-Lifelog-256/u1/2015-03-06/b00001228_21i6bq_20150306_175511e.jpg'
p2770
sg4
(lp2771
(g15
g6
(g18
S'/\xe0\x1a?'
p2772
tp2773
Rp2774
tp2775
a(g56
g6
(g18
S'\xeba\xe0='
p2776
tp2777
Rp2778
tp2779
a(g174
g6
(g18
S'~u\xb4='
p2780
tp2781
Rp2782
tp2783
a(g32
g6
(g18
S'\xe3\xa0\x9f='
p2784
tp2785
Rp2786
tp2787
a(g68
g6
(g18
S'W\xee\x1a='
p2788
tp2789
Rp2790
tp2791
asg73
g15
sa(dp2792
g2
S'../../../data/emanuela/activity-recognition/images/NTCIR-Lifelog-256/u1/2015-03-06/b00001229_21i6bq_20150306_175546e.jpg'
p2793
sg4
(lp2794
(g32
g6
(g18
S')"\x1d?'
p2795
tp2796
Rp2797
tp2798
a(g15
g6
(g18
S'\xa1\x04\x8e>'
p2799
tp2800
Rp2801
tp2802
a(g174
g6
(g18
S'\x97\x0c\x07='
p2803
tp2804
Rp2805
tp2806
a(g68
g6
(g18
S'\x85\xf8\xd9<'
p2807
tp2808
Rp2809
tp2810
a(g56
g6
(g18
S'\xf0yc<'
p2811
tp2812
Rp2813
tp2814
asg73
g15
sa(dp2815
g2
S'../../../data/emanuela/activity-recognition/images/NTCIR-Lifelog-256/u1/2015-03-16/b00002899_21i6bq_20150316_195508e.jpg'
p2816
sg4
(lp2817
(g32
g6
(g18
S'\xea]\x1c?'
p2818
tp2819
Rp2820
tp2821
a(g15
g6
(g18
S'\xfb\xfam>'
p2822
tp2823
Rp2824
tp2825
a(g68
g6
(g18
S'\x04p\x11='
p2826
tp2827
Rp2828
tp2829
a(g6
(g7
(S'S5'
p2830
I0
I1
tp2831
Rp2832
(I3
S'|'
p2833
NNNI5
I1
I0
tp2834
bS'plane'
p2835
tp2836
Rp2837
g6
(g18
S'\x14\xdf\xcd<'
p2838
tp2839
Rp2840
tp2841
a(g6
(g7
(S'S7'
p2842
I0
I1
tp2843
Rp2844
(I3
S'|'
p2845
NNNI7
I1
I0
tp2846
bS'driving'
p2847
tp2848
Rp2849
g6
(g18
S'\rC\xbd<'
p2850
tp2851
Rp2852
tp2853
asg73
g15
sa(dp2854
g2
S'../../../data/emanuela/activity-recognition/images/NTCIR-Lifelog-256/u1/2015-03-11/b00000604_21i6bq_20150311_130449e.jpg'
p2855
sg4
(lp2856
(g15
g6
(g18
S'sF\xad>'
p2857
tp2858
Rp2859
tp2860
a(g147
g6
(g18
S'\x8e\xdcd>'
p2861
tp2862
Rp2863
tp2864
a(g32
g6
(g18
S'\xd8\xcd\xf5='
p2865
tp2866
Rp2867
tp2868
a(g174
g6
(g18
S'-\x8c\xcc='
p2869
tp2870
Rp2871
tp2872
a(g68
g6
(g18
S'P\xe3\xcb='
p2873
tp2874
Rp2875
tp2876
asg73
g15
sa(dp2877
g2
S'../../../data/emanuela/activity-recognition/images/NTCIR-Lifelog-256/u1/2015-03-02/b00000255_21i6bq_20150302_093146e.jpg'
p2878
sg4
(lp2879
(g56
g6
(g18
S'\x96 \xfc>'
p2880
tp2881
Rp2882
tp2883
a(g266
g6
(g18
S'mM >'
p2884
tp2885
Rp2886
tp2887
a(g32
g6
(g18
S'\xabu\x03>'
p2888
tp2889
Rp2890
tp2891
a(g44
g6
(g18
S'&\xfc\x94='
p2892
tp2893
Rp2894
tp2895
a(g1763
g6
(g18
S'\x03\xe4+='
p2896
tp2897
Rp2898
tp2899
asg73
g15
sa(dp2900
g2
S'../../../data/emanuela/activity-recognition/images/NTCIR-Lifelog-256/u1/2015-03-06/b00001296_21i6bq_20150306_183955e.jpg'
p2901
sg4
(lp2902
(g15
g6
(g18
S'\xb3b[?'
p2903
tp2904
Rp2905
tp2906
a(g32
g6
(g18
S'\x8bv\x9f='
p2907
tp2908
Rp2909
tp2910
a(g68
g6
(g18
S'\x03\x10\x1d='
p2911
tp2912
Rp2913
tp2914
a(g174
g6
(g18
S'`\x97[<'
p2915
tp2916
Rp2917
tp2918
a(g44
g6
(g18
S'\x7f\xa4\xac;'
p2919
tp2920
Rp2921
tp2922
asg73
g15
sa(dp2923
g2
S'../../../data/emanuela/activity-recognition/images/NTCIR-Lifelog-256/u1/2015-03-10/b00000261_21i6bq_20150310_153959e.jpg'
p2924
sg4
(lp2925
(g44
g6
(g18
S'\xe5\xc1u?'
p2926
tp2927
Rp2928
tp2929
a(g15
g6
(g18
S'^\x99\xa2<'
p2930
tp2931
Rp2932
tp2933
a(g32
g6
(g18
S'\xa5\xbc#<'
p2934
tp2935
Rp2936
tp2937
a(g147
g6
(g18
S'0\xb0\xa7;'
p2938
tp2939
Rp2940
tp2941
a(g174
g6
(g18
S'\xaf^\x18;'
p2942
tp2943
Rp2944
tp2945
asg73
g15
sa(dp2946
g2
S'../../../data/emanuela/activity-recognition/images/NTCIR-Lifelog-256/u1/2015-03-06/b00001236_21i6bq_20150306_175957e.jpg'
p2947
sg4
(lp2948
(g15
g6
(g18
S'\xab{K?'
p2949
tp2950
Rp2951
tp2952
a(g32
g6
(g18
S'\x95p\x98='
p2953
tp2954
Rp2955
tp2956
a(g68
g6
(g18
S'\xea\x18n='
p2957
tp2958
Rp2959
tp2960
a(g147
g6
(g18
S'\\\xb4\x85<'
p2961
tp2962
Rp2963
tp2964
a(g44
g6
(g18
S'\xbagy<'
p2965
tp2966
Rp2967
tp2968
asg73
g15
sa(dp2969
g2
S'../../../data/emanuela/activity-recognition/images/NTCIR-Lifelog-256/u1/2015-02-24/b00000906_21i6bq_20150224_155456e.jpg'
p2970
sg4
(lp2971
(g15
g6
(g18
S'\x98=!?'
p2972
tp2973
Rp2974
tp2975
a(g266
g6
(g18
S'7\xe5\x0c>'
p2976
tp2977
Rp2978
tp2979
a(g56
g6
(g18
S'\xa78\xa4='
p2980
tp2981
Rp2982
tp2983
a(g32
g6
(g18
S'\xe1\xd2\x87='
p2984
tp2985
Rp2986
tp2987
a(g68
g6
(g18
S'\xff\xfe\x00='
p2988
tp2989
Rp2990
tp2991
asg73
g15
sa(dp2992
g2
S'../../../data/emanuela/activity-recognition/images/NTCIR-Lifelog-256/u1/2015-02-24/b00000905_21i6bq_20150224_155420e.jpg'
p2993
sg4
(lp2994
(g15
g6
(g18
S'NDG?'
p2995
tp2996
Rp2997
tp2998
a(g32
g6
(g18
S'~\x0f\xa5='
p2999
tp3000
Rp3001
tp3002
a(g56
g6
(g18
S'X\xa5\x80='
p3003
tp3004
Rp3005
tp3006
a(g68
g6
(g18
S'\xbf\xea\xad<'
p3007
tp3008
Rp3009
tp3010
a(g266
g6
(g18
S'";\x99<'
p3011
tp3012
Rp3013
tp3014
asg73
g15
sa(dp3015
g2
S'../../../data/emanuela/activity-recognition/images/NTCIR-Lifelog-256/u1/2015-03-06/b00001287_21i6bq_20150306_183345e.jpg'
p3016
sg4
(lp3017
(g15
g6
(g18
S'\x7fA7?'
p3018
tp3019
Rp3020
tp3021
a(g32
g6
(g18
S"B'T>"
p3022
tp3023
Rp3024
tp3025
a(g44
g6
(g18
S'l\xf4\xd3<'
p3026
tp3027
Rp3028
tp3029
a(g56
g6
(g18
S'\n\x19\x9e<'
p3030
tp3031
Rp3032
tp3033
a(g68
g6
(g18
S')cK<'
p3034
tp3035
Rp3036
tp3037
asg73
g15
sa(dp3038
g2
S'../../../data/emanuela/activity-recognition/images/NTCIR-Lifelog-256/u1/2015-03-02/b00000269_21i6bq_20150302_094029e.jpg'
p3039
sg4
(lp3040
(g56
g6
(g18
S'\xd8%\xc4>'
p3041
tp3042
Rp3043
tp3044
a(g266
g6
(g18
S'\x1e\x19s>'
p3045
tp3046
Rp3047
tp3048
a(g32
g6
(g18
S'.B\x05>'
p3049
tp3050
Rp3051
tp3052
a(g15
g6
(g18
S'\xbe\x85\xc7='
p3053
tp3054
Rp3055
tp3056
a(g44
g6
(g18
S'v\xc4_='
p3057
tp3058
Rp3059
tp3060
asg73
g15
sa(dp3061
g2
S'../../../data/emanuela/activity-recognition/images/NTCIR-Lifelog-256/u1/2015-03-06/b00001300_21i6bq_20150306_184220e.jpg'
p3062
sg4
(lp3063
(g15
g6
(g18
S'p\x950?'
p3064
tp3065
Rp3066
tp3067
a(g32
g6
(g18
S'x*\xce='
p3068
tp3069
Rp3070
tp3071
a(g44
g6
(g18
S'S~3='
p3072
tp3073
Rp3074
tp3075
a(g68
g6
(g18
S"'\xc3 ="
p3076
tp3077
Rp3078
tp3079
a(g174
g6
(g18
S'\x8a\xe7\x0b='
p3080
tp3081
Rp3082
tp3083
asg73
g15
sa(dp3084
g2
S'../../../data/emanuela/activity-recognition/images/NTCIR-Lifelog-256/u1/2015-03-06/b00001220_21i6bq_20150306_174858e.jpg'
p3085
sg4
(lp3086
(g15
g6
(g18
S'\xbb\x0e2?'
p3087
tp3088
Rp3089
tp3090
a(g32
g6
(g18
S'\xb6\xc4\x88>'
p3091
tp3092
Rp3093
tp3094
a(g44
g6
(g18
S'2\x1a\xa0<'
p3095
tp3096
Rp3097
tp3098
a(g68
g6
(g18
S'\xe8j\n<'
p3099
tp3100
Rp3101
tp3102
a(g147
g6
(g18
S'm\xe2\x17;'
p3103
tp3104
Rp3105
tp3106
asg73
g15
sa(dp3107
g2
S'../../../data/emanuela/activity-recognition/images/NTCIR-Lifelog-256/u1/2015-02-24/b00000903_21i6bq_20150224_155308e.jpg'
p3108
sg4
(lp3109
(g56
g6
(g18
S'g\x94P?'
p3110
tp3111
Rp3112
tp3113
a(g32
g6
(g18
S'\xafW\xb8='
p3114
tp3115
Rp3116
tp3117
a(g15
g6
(g18
S'G\xb5\x1c='
p3118
tp3119
Rp3120
tp3121
a(g68
g6
(g18
S'\xa0\xd9\n='
p3122
tp3123
Rp3124
tp3125
a(g266
g6
(g18
S'\xed\xae\r<'
p3126
tp3127
Rp3128
tp3129
asg73
g15
sa(dp3130
g2
S'../../../data/emanuela/activity-recognition/images/NTCIR-Lifelog-256/u1/2015-03-06/b00001237_21i6bq_20150306_180032e.jpg'
p3131
sg4
(lp3132
(g15
g6
(g18
S'{H\t?'
p3133
tp3134
Rp3135
tp3136
a(g32
g6
(g18
S'\xdc\xc1\xce>'
p3137
tp3138
Rp3139
tp3140
a(g56
g6
(g18
S'B\xaf\xd2<'
p3141
tp3142
Rp3143
tp3144
a(g44
g6
(g18
S'\xf4\xc9J<'
p3145
tp3146
Rp3147
tp3148
a(g174
g6
(g18
S'\xc8\xb3\xc4;'
p3149
tp3150
Rp3151
tp3152
asg73
g15
sa(dp3153
g2
S'../../../data/emanuela/activity-recognition/images/NTCIR-Lifelog-256/u1/2015-03-10/b00000238_21i6bq_20150310_152142e.jpg'
p3154
sg4
(lp3155
(g44
g6
(g18
S'.\n2?'
p3156
tp3157
Rp3158
tp3159
a(g56
g6
(g18
S'\xa1_\xf9='
p3160
tp3161
Rp3162
tp3163
a(g32
g6
(g18
S'\xa4T\x9e='
p3164
tp3165
Rp3166
tp3167
a(g174
g6
(g18
S'\x194<='
p3168
tp3169
Rp3170
tp3171
a(g15
g6
(g18
S'Py\xc3<'
p3172
tp3173
Rp3174
tp3175
asg73
g15
sa(dp3176
g2
S'../../../data/emanuela/activity-recognition/images/NTCIR-Lifelog-256/u1/2015-03-11/b00000611_21i6bq_20150311_130905e.jpg'
p3177
sg4
(lp3178
(g15
g6
(g18
S'\\\xe7\xbd>'
p3179
tp3180
Rp3181
tp3182
a(g147
g6
(g18
S'\xadQ\x1d>'
p3183
tp3184
Rp3185
tp3186
a(g104
g6
(g18
S'\x04T\x07>'
p3187
tp3188
Rp3189
tp3190
a(g32
g6
(g18
S'd\xe1\x94='
p3191
tp3192
Rp3193
tp3194
a(g56
g6
(g18
S'\xc7$u='
p3195
tp3196
Rp3197
tp3198
asg73
g15
sa(dp3199
g2
S'../../../data/emanuela/activity-recognition/images/NTCIR-Lifelog-256/u1/2015-03-06/b00001240_21i6bq_20150306_180227e.jpg'
p3200
sg4
(lp3201
(g15
g6
(g18
S'\xedg\xed>'
p3202
tp3203
Rp3204
tp3205
a(g32
g6
(g18
S'\x9b%|>'
p3206
tp3207
Rp3208
tp3209
a(g56
g6
(g18
S'\x80RN>'
p3210
tp3211
Rp3212
tp3213
a(g44
g6
(g18
S'\x06\xd8\x00='
p3214
tp3215
Rp3216
tp3217
a(g68
g6
(g18
S'<\xd9\xe7<'
p3218
tp3219
Rp3220
tp3221
asg73
g15
sa(dp3222
g2
S'../../../data/emanuela/activity-recognition/images/NTCIR-Lifelog-256/u1/2015-03-06/b00001276_21i6bq_20150306_182621e.jpg'
p3223
sg4
(lp3224
(g15
g6
(g18
S'*\xe7\x0f?'
p3225
tp3226
Rp3227
tp3228
a(g32
g6
(g18
S'\xd5(\xad>'
p3229
tp3230
Rp3231
tp3232
a(g44
g6
(g18
S'$\x1e\x81='
p3233
tp3234
Rp3235
tp3236
a(g147
g6
(g18
S'!@Y<'
p3237
tp3238
Rp3239
tp3240
a(g286
g6
(g18
S'\xfd\x1b\xab;'
p3241
tp3242
Rp3243
tp3244
asg73
g15
sa(dp3245
g2
S'../../../data/emanuela/activity-recognition/images/NTCIR-Lifelog-256/u1/2015-03-06/b00001249_21i6bq_20150306_180911e.jpg'
p3246
sg4
(lp3247
(g15
g6
(g18
S'\xb8\x15 ?'
p3248
tp3249
Rp3250
tp3251
a(g32
g6
(g18
S'\x84-\x8e>'
p3252
tp3253
Rp3254
tp3255
a(g44
g6
(g18
S'\x99\xc2%='
p3256
tp3257
Rp3258
tp3259
a(g56
g6
(g18
S'IX\x8b<'
p3260
tp3261
Rp3262
tp3263
a(g174
g6
(g18
S'\x91\xdf:<'
p3264
tp3265
Rp3266
tp3267
asg73
g15
sa(dp3268
g2
S'../../../data/emanuela/activity-recognition/images/NTCIR-Lifelog-256/u1/2015-03-02/b00000229_21i6bq_20150302_091406e.jpg'
p3269
sg4
(lp3270
(g420
g6
(g18
S'\xfdQ|>'
p3271
tp3272
Rp3273
tp3274
a(g68
g6
(g18
S'\xc0Qs>'
p3275
tp3276
Rp3277
tp3278
a(g56
g6
(g18
S'\xd2\xd0\xea='
p3279
tp3280
Rp3281
tp3282
a(g32
g6
(g18
S'A\x83\xca='
p3283
tp3284
Rp3285
tp3286
a(g84
g6
(g18
S'\x8d2\xba='
p3287
tp3288
Rp3289
tp3290
asg73
g15
sa(dp3291
g2
S'../../../data/emanuela/activity-recognition/images/NTCIR-Lifelog-256/u1/2015-03-02/b00000257_21i6bq_20150302_093300e.jpg'
p3292
sg4
(lp3293
(g56
g6
(g18
S'\x16\xa7\x1c?'
p3294
tp3295
Rp3296
tp3297
a(g266
g6
(g18
S'\xc9p<>'
p3298
tp3299
Rp3300
tp3301
a(g44
g6
(g18
S'\xc7\xe9\x85='
p3302
tp3303
Rp3304
tp3305
a(g32
g6
(g18
S'\t\x04\x0e='
p3306
tp3307
Rp3308
tp3309
a(g84
g6
(g18
S'\x0e\xec\x0b='
p3310
tp3311
Rp3312
tp3313
asg73
g15
sa(dp3314
g2
S'../../../data/emanuela/activity-recognition/images/NTCIR-Lifelog-256/u1/2015-03-02/b00000240_21i6bq_20150302_092151e.jpg'
p3315
sg4
(lp3316
(g56
g6
(g18
S'W\xbf\xd6>'
p3317
tp3318
Rp3319
tp3320
a(g32
g6
(g18
S'\xbdY\xcd>'
p3321
tp3322
Rp3323
tp3324
a(g266
g6
(g18
S'P\xe0\x8a='
p3325
tp3326
Rp3327
tp3328
a(g44
g6
(g18
S'r\x06\r='
p3329
tp3330
Rp3331
tp3332
a(g15
g6
(g18
S'W@\xef<'
p3333
tp3334
Rp3335
tp3336
asg73
g15
sa(dp3337
g2
S'../../../data/emanuela/activity-recognition/images/NTCIR-Lifelog-256/u1/2015-03-10/b00000237_21i6bq_20150310_152106e.jpg'
p3338
sg4
(lp3339
(g44
g6
(g18
S'\x84\x81%?'
p3340
tp3341
Rp3342
tp3343
a(g15
g6
(g18
S'\x8a\x01G>'
p3344
tp3345
Rp3346
tp3347
a(g32
g6
(g18
S'\xd3\xd8\xf8='
p3348
tp3349
Rp3350
tp3351
a(g174
g6
(g18
S'\xafmn<'
p3352
tp3353
Rp3354
tp3355
a(g56
g6
(g18
S'\xd13 <'
p3356
tp3357
Rp3358
tp3359
asg73
g15
sa(dp3360
g2
S'../../../data/emanuela/activity-recognition/images/NTCIR-Lifelog-256/u1/2015-03-10/b00000233_21i6bq_20150310_151803e.jpg'
p3361
sg4
(lp3362
(g44
g6
(g18
S'\x86r\x0e?'
p3363
tp3364
Rp3365
tp3366
a(g15
g6
(g18
S'\x18\xbei>'
p3367
tp3368
Rp3369
tp3370
a(g68
g6
(g18
S'\x94\xd2\x89='
p3371
tp3372
Rp3373
tp3374
a(g174
g6
(g18
S'\x87\xbdk='
p3375
tp3376
Rp3377
tp3378
a(g32
g6
(g18
S'9\xfd\x0e='
p3379
tp3380
Rp3381
tp3382
asg73
g15
sa(dp3383
g2
S'../../../data/emanuela/activity-recognition/images/NTCIR-Lifelog-256/u1/2015-03-06/b00001260_21i6bq_20150306_181621e.jpg'
p3384
sg4
(lp3385
(g15
g6
(g18
S'\xb0\xb0A?'
p3386
tp3387
Rp3388
tp3389
a(g32
g6
(g18
S'\x8dD\xc2='
p3390
tp3391
Rp3392
tp3393
a(g68
g6
(g18
S'\xd4\xdai='
p3394
tp3395
Rp3396
tp3397
a(g174
g6
(g18
S'WT\x1b='
p3398
tp3399
Rp3400
tp3401
a(g56
g6
(g18
S'&\x0b<<'
p3402
tp3403
Rp3404
tp3405
asg73
g15
sa(dp3406
g2
S'../../../data/emanuela/activity-recognition/images/NTCIR-Lifelog-256/u1/2015-03-10/b00000248_21i6bq_20150310_153012e.jpg'
p3407
sg4
(lp3408
(g44
g6
(g18
S'H/\x1f?'
p3409
tp3410
Rp3411
tp3412
a(g15
g6
(g18
S'ygW>'
p3413
tp3414
Rp3415
tp3416
a(g56
g6
(g18
S'\x1d5\x86='
p3417
tp3418
Rp3419
tp3420
a(g32
g6
(g18
S'L\xe1q='
p3421
tp3422
Rp3423
tp3424
a(g174
g6
(g18
S'[\x12\t='
p3425
tp3426
Rp3427
tp3428
asg73
g15
sa(dp3429
g2
S'../../../data/emanuela/activity-recognition/images/NTCIR-Lifelog-256/u1/2015-03-06/b00001261_21i6bq_20150306_181659e.jpg'
p3430
sg4
(lp3431
(g15
g6
(g18
S'\x95\xf4\xf6>'
p3432
tp3433
Rp3434
tp3435
a(g32
g6
(g18
S'\n\xc4\x82>'
p3436
tp3437
Rp3438
tp3439
a(g174
g6
(g18
S'\x9e>\xe9='
p3440
tp3441
Rp3442
tp3443
a(g56
g6
(g18
S'\xda\xcfX='
p3444
tp3445
Rp3446
tp3447
a(g68
g6
(g18
S'\x08\x8c\x0e='
p3448
tp3449
Rp3450
tp3451
asg73
g15
sa(dp3452
g2
S'../../../data/emanuela/activity-recognition/images/NTCIR-Lifelog-256/u1/2015-03-06/b00001306_21i6bq_20150306_184609e.jpg'
p3453
sg4
(lp3454
(g15
g6
(g18
S'\x81\xe4\xf7>'
p3455
tp3456
Rp3457
tp3458
a(g32
g6
(g18
S'|p\xd8>'
p3459
tp3460
Rp3461
tp3462
a(g44
g6
(g18
S'5`\xb7<'
p3463
tp3464
Rp3465
tp3466
a(g147
g6
(g18
S'y\xf6\xa0<'
p3467
tp3468
Rp3469
tp3470
a(g56
g6
(g18
S'C\xcc\x9c<'
p3471
tp3472
Rp3473
tp3474
asg73
g15
sa(dp3475
g2
S'../../../data/emanuela/activity-recognition/images/NTCIR-Lifelog-256/u1/2015-03-16/b00002900_21i6bq_20150316_195541e.jpg'
p3476
sg4
(lp3477
(g15
g6
(g18
S'\x10\xac\x0f?'
p3478
tp3479
Rp3480
tp3481
a(g32
g6
(g18
S'\xb8i?>'
p3482
tp3483
Rp3484
tp3485
a(g420
g6
(g18
S'Wf\xc5='
p3486
tp3487
Rp3488
tp3489
a(g174
g6
(g18
S'\x18\\|='
p3490
tp3491
Rp3492
tp3493
a(g68
g6
(g18
S'\x0c:\x0e='
p3494
tp3495
Rp3496
tp3497
asg73
g15
sa(dp3498
g2
S'../../../data/emanuela/activity-recognition/images/NTCIR-Lifelog-256/u1/2015-03-02/b00000231_21i6bq_20150302_091531e.jpg'
p3499
sg4
(lp3500
(g56
g6
(g18
S'_\xc8\x8c>'
p3501
tp3502
Rp3503
tp3504
a(g15
g6
(g18
S'\xef\xefh>'
p3505
tp3506
Rp3507
tp3508
a(g44
g6
(g18
S'\xe2\x18\xff='
p3509
tp3510
Rp3511
tp3512
a(g147
g6
(g18
S'~\x15\xfe='
p3513
tp3514
Rp3515
tp3516
a(g266
g6
(g18
S'\xd7G\xa9='
p3517
tp3518
Rp3519
tp3520
asg73
g15
sa(dp3521
g2
S'../../../data/emanuela/activity-recognition/images/NTCIR-Lifelog-256/u1/2015-03-10/b00000230_21i6bq_20150310_151616e.jpg'
p3522
sg4
(lp3523
(g44
g6
(g18
S'\xfa\x85\x17?'
p3524
tp3525
Rp3526
tp3527
a(g15
g6
(g18
S"\xd5'\x94>"
p3528
tp3529
Rp3530
tp3531
a(g174
g6
(g18
S'3\xf30='
p3532
tp3533
Rp3534
tp3535
a(g32
g6
(g18
S'\xb9\xca\x1c='
p3536
tp3537
Rp3538
tp3539
a(g147
g6
(g18
S'\x128\xc3<'
p3540
tp3541
Rp3542
tp3543
asg73
g15
sa(dp3544
g2
S'../../../data/emanuela/activity-recognition/images/NTCIR-Lifelog-256/u1/2015-02-24/b00000908_21i6bq_20150224_155607e.jpg'
p3545
sg4
(lp3546
(g68
g6
(g18
S'\xd9~\xce>'
p3547
tp3548
Rp3549
tp3550
a(g15
g6
(g18
S'\xc6\x12}>'
p3551
tp3552
Rp3553
tp3554
a(g266
g6
(g18
S'[\x94\xd1='
p3555
tp3556
Rp3557
tp3558
a(g56
g6
(g18
S'oD\xa1='
p3559
tp3560
Rp3561
tp3562
a(g1728
g6
(g18
S'BI}='
p3563
tp3564
Rp3565
tp3566
asg73
g15
sa(dp3567
g2
S'../../../data/emanuela/activity-recognition/images/NTCIR-Lifelog-256/u1/2015-03-06/b00001274_21i6bq_20150306_182505e.jpg'
p3568
sg4
(lp3569
(g15
g6
(g18
S'\x19;W?'
p3570
tp3571
Rp3572
tp3573
a(g32
g6
(g18
S'\xc0\xd8\x8e='
p3574
tp3575
Rp3576
tp3577
a(g68
g6
(g18
S'YX\xd5<'
p3578
tp3579
Rp3580
tp3581
a(g56
g6
(g18
S'\xa2\x9c\x8f<'
p3582
tp3583
Rp3584
tp3585
a(g44
g6
(g18
S'\x92\xe5P<'
p3586
tp3587
Rp3588
tp3589
asg73
g15
sa(dp3590
g2
S'../../../data/emanuela/activity-recognition/images/NTCIR-Lifelog-256/u1/2015-03-06/b00001303_21i6bq_20150306_184414e.jpg'
p3591
sg4
(lp3592
(g32
g6
(g18
S'&Y\xcb>'
p3593
tp3594
Rp3595
tp3596
a(g15
g6
(g18
S'\xcb\xf1\x87>'
p3597
tp3598
Rp3599
tp3600
a(g44
g6
(g18
S'\x9a\xcd\xf2='
p3601
tp3602
Rp3603
tp3604
a(g147
g6
(g18
S'\xb2\x86D='
p3605
tp3606
Rp3607
tp3608
a(g104
g6
(g18
S'\x1c\x152='
p3609
tp3610
Rp3611
tp3612
asg73
g15
sa(dp3613
g2
S'../../../data/emanuela/activity-recognition/images/NTCIR-Lifelog-256/u1/2015-03-02/b00000256_21i6bq_20150302_093221e.jpg'
p3614
sg4
(lp3615
(g56
g6
(g18
S'>,\xf7>'
p3616
tp3617
Rp3618
tp3619
a(g266
g6
(g18
S'l\x96\x12>'
p3620
tp3621
Rp3622
tp3623
a(g1763
g6
(g18
S';P\xdc='
p3624
tp3625
Rp3626
tp3627
a(g32
g6
(g18
S'Pi\xd4='
p3628
tp3629
Rp3630
tp3631
a(g15
g6
(g18
S'y\xd8\x11='
p3632
tp3633
Rp3634
tp3635
asg73
g15
sa(dp3636
g2
S'../../../data/emanuela/activity-recognition/images/NTCIR-Lifelog-256/u1/2015-03-06/b00001244_21i6bq_20150306_180610e.jpg'
p3637
sg4
(lp3638
(g15
g6
(g18
S'D\xe2H?'
p3639
tp3640
Rp3641
tp3642
a(g32
g6
(g18
S'\xc1\xb5B>'
p3643
tp3644
Rp3645
tp3646
a(g147
g6
(g18
S'\x11U\xbc;'
p3647
tp3648
Rp3649
tp3650
a(g135
g6
(g18
S'\x00\xd5\x95;'
p3651
tp3652
Rp3653
tp3654
a(g68
g6
(g18
S'6\x99u;'
p3655
tp3656
Rp3657
tp3658
asg73
g15
sa(dp3659
g2
S'../../../data/emanuela/activity-recognition/images/NTCIR-Lifelog-256/u1/2015-03-06/b00001293_21i6bq_20150306_183803e.jpg'
p3660
sg4
(lp3661
(g15
g6
(g18
S'\x04\x8d8?'
p3662
tp3663
Rp3664
tp3665
a(g32
g6
(g18
S'58;>'
p3666
tp3667
Rp3668
tp3669
a(g44
g6
(g18
S'!\x0f\xf8<'
p3670
tp3671
Rp3672
tp3673
a(g56
g6
(g18
S'\x834\xc5<'
p3674
tp3675
Rp3676
tp3677
a(g147
g6
(g18
S'\x90FV<'
p3678
tp3679
Rp3680
tp3681
asg73
g15
sa(dp3682
g2
S'../../../data/emanuela/activity-recognition/images/NTCIR-Lifelog-256/u1/2015-03-06/b00001234_21i6bq_20150306_175842e.jpg'
p3683
sg4
(lp3684
(g32
g6
(g18
S'\xb2\xd2\xc1>'
p3685
tp3686
Rp3687
tp3688
a(g15
g6
(g18
S'U\x8c\x89>'
p3689
tp3690
Rp3691
tp3692
a(g68
g6
(g18
S"\xea\xef'>"
p3693
tp3694
Rp3695
tp3696
a(g56
g6
(g18
S'\xf2\xd7\xa2='
p3697
tp3698
Rp3699
tp3700
a(g44
g6
(g18
S'\xb6\xea\n='
p3701
tp3702
Rp3703
tp3704
asg73
g15
sa(dp3705
g2
S'../../../data/emanuela/activity-recognition/images/NTCIR-Lifelog-256/u1/2015-03-06/b00001292_21i6bq_20150306_183724e.jpg'
p3706
sg4
(lp3707
(g32
g6
(g18
S'\xbe\xe3\x0b?'
p3708
tp3709
Rp3710
tp3711
a(g15
g6
(g18
S'G\x18\x19>'
p3712
tp3713
Rp3714
tp3715
a(g56
g6
(g18
S'rN\x18>'
p3716
tp3717
Rp3718
tp3719
a(g68
g6
(g18
S'\xc9\x91\x8e='
p3720
tp3721
Rp3722
tp3723
a(g44
g6
(g18
S'\x1cj\xba<'
p3724
tp3725
Rp3726
tp3727
asg73
g15
sa(dp3728
g2
S'../../../data/emanuela/activity-recognition/images/NTCIR-Lifelog-256/u1/2015-03-06/b00001297_21i6bq_20150306_184034e.jpg'
p3729
sg4
(lp3730
(g15
g6
(g18
S'1\xcb=?'
p3731
tp3732
Rp3733
tp3734
a(g32
g6
(g18
S'=\xdd2>'
p3735
tp3736
Rp3737
tp3738
a(g147
g6
(g18
S'\xfb}\xd7<'
p3739
tp3740
Rp3741
tp3742
a(g44
g6
(g18
S'V\n\xb2<'
p3743
tp3744
Rp3745
tp3746
a(g135
g6
(g18
S'\x8fI\x98<'
p3747
tp3748
Rp3749
tp3750
asg73
g15
sa(dp3751
g2
S'../../../data/emanuela/activity-recognition/images/NTCIR-Lifelog-256/u1/2015-03-06/b00001235_21i6bq_20150306_175922e.jpg'
p3752
sg4
(lp3753
(g15
g6
(g18
S'c\xd8\r?'
p3754
tp3755
Rp3756
tp3757
a(g135
g6
(g18
S'\xb5\xdaR>'
p3758
tp3759
Rp3760
tp3761
a(g32
g6
(g18
S'\xd3\x0f\x80='
p3762
tp3763
Rp3764
tp3765
a(g147
g6
(g18
S'\xf8\xf9W='
p3766
tp3767
Rp3768
tp3769
a(g68
g6
(g18
S'\xb2\x17\xcf<'
p3770
tp3771
Rp3772
tp3773
asg73
g15
sa(dp3774
g2
S'../../../data/emanuela/activity-recognition/images/NTCIR-Lifelog-256/u1/2015-03-06/b00001264_21i6bq_20150306_181856e.jpg'
p3775
sg4
(lp3776
(g15
g6
(g18
S'\xaf\xd5\x1c?'
p3777
tp3778
Rp3779
tp3780
a(g32
g6
(g18
S'\x88\x1c\xa5='
p3781
tp3782
Rp3783
tp3784
a(g174
g6
(g18
S'UAU='
p3785
tp3786
Rp3787
tp3788
a(g135
g6
(g18
S'\xe9DF='
p3789
tp3790
Rp3791
tp3792
a(g147
g6
(g18
S'\x89_ ='
p3793
tp3794
Rp3795
tp3796
asg73
g15
sa(dp3797
g2
S'../../../data/emanuela/activity-recognition/images/NTCIR-Lifelog-256/u1/2015-03-06/b00001214_21i6bq_20150306_174437e.jpg'
p3798
sg4
(lp3799
(g15
g6
(g18
S'\xb1J4?'
p3800
tp3801
Rp3802
tp3803
a(g32
g6
(g18
S'\xd9\xce\x85>'
p3804
tp3805
Rp3806
tp3807
a(g44
g6
(g18
S'e\x9e\xbb<'
p3808
tp3809
Rp3810
tp3811
a(g147
g6
(g18
S'\xbe\x99\x96;'
p3812
tp3813
Rp3814
tp3815
a(g68
g6
(g18
S'o\rt;'
p3816
tp3817
Rp3818
tp3819
asg73
g15
sa(dp3820
g2
S'../../../data/emanuela/activity-recognition/images/NTCIR-Lifelog-256/u1/2015-03-06/b00001316_21i6bq_20150306_185226e.jpg'
p3821
sg4
(lp3822
(g15
g6
(g18
S'&E\xed>'
p3823
tp3824
Rp3825
tp3826
a(g32
g6
(g18
S'\x1c\xf5v>'
p3827
tp3828
Rp3829
tp3830
a(g135
g6
(g18
S'\xd1\x94\x8e='
p3831
tp3832
Rp3833
tp3834
a(g147
g6
(g18
S'*\x82A='
p3835
tp3836
Rp3837
tp3838
a(g2849
g6
(g18
S'UP\x1d='
p3839
tp3840
Rp3841
tp3842
asg73
g15
sa(dp3843
g2
S'../../../data/emanuela/activity-recognition/images/NTCIR-Lifelog-256/u1/2015-03-06/b00001233_21i6bq_20150306_175805e.jpg'
p3844
sg4
(lp3845
(g15
g6
(g18
S'\xb40;?'
p3846
tp3847
Rp3848
tp3849
a(g32
g6
(g18
S'W!Q>'
p3850
tp3851
Rp3852
tp3853
a(g44
g6
(g18
S'\xf3R\xb1<'
p3854
tp3855
Rp3856
tp3857
a(g147
g6
(g18
S'n\xc5}<'
p3858
tp3859
Rp3860
tp3861
a(g420
g6
(g18
S'bv\xbd;'
p3862
tp3863
Rp3864
tp3865
asg73
g15
sa(dp3866
g2
S'../../../data/emanuela/activity-recognition/images/NTCIR-Lifelog-256/u1/2015-03-06/b00001226_21i6bq_20150306_175355e.jpg'
p3867
sg4
(lp3868
(g15
g6
(g18
S'\x1e\x89_?'
p3869
tp3870
Rp3871
tp3872
a(g32
g6
(g18
S']x\\='
p3873
tp3874
Rp3875
tp3876
a(g44
g6
(g18
S'W\x81\x15='
p3877
tp3878
Rp3879
tp3880
a(g174
g6
(g18
S'\xb0\xac\x8f<'
p3881
tp3882
Rp3883
tp3884
a(g147
g6
(g18
S'\xacX\x14<'
p3885
tp3886
Rp3887
tp3888
asg73
g15
sa(dp3889
g2
S'../../../data/emanuela/activity-recognition/images/NTCIR-Lifelog-256/u1/2015-03-16/b00002901_21i6bq_20150316_195618e.jpg'
p3890
sg4
(lp3891
(g15
g6
(g18
S'>\xa4\xe3>'
p3892
tp3893
Rp3894
tp3895
a(g174
g6
(g18
S'\xf6\x0b>>'
p3896
tp3897
Rp3898
tp3899
a(g420
g6
(g18
S'-(\x11>'
p3900
tp3901
Rp3902
tp3903
a(g32
g6
(g18
S'&\x97\xfd='
p3904
tp3905
Rp3906
tp3907
a(g147
g6
(g18
S'\xb8\xd9\n='
p3908
tp3909
Rp3910
tp3911
asg73
g15
sa(dp3912
g2
S'../../../data/emanuela/activity-recognition/images/NTCIR-Lifelog-256/u1/2015-03-06/b00001311_21i6bq_20150306_184923e.jpg'
p3913
sg4
(lp3914
(g15
g6
(g18
S".\x93'?"
p3915
tp3916
Rp3917
tp3918
a(g32
g6
(g18
S"t\x1a'>"
p3919
tp3920
Rp3921
tp3922
a(g174
g6
(g18
S'\x0f^=='
p3923
tp3924
Rp3925
tp3926
a(g68
g6
(g18
S'\xe4q\x05='
p3927
tp3928
Rp3929
tp3930
a(g44
g6
(g18
S'\x04\x86\xe7<'
p3931
tp3932
Rp3933
tp3934
asg73
g15
sa(dp3935
g2
S'../../../data/emanuela/activity-recognition/images/NTCIR-Lifelog-256/u1/2015-03-06/b00001285_21i6bq_20150306_183237e.jpg'
p3936
sg4
(lp3937
(g15
g6
(g18
S'z\xef\xe2>'
p3938
tp3939
Rp3940
tp3941
a(g68
g6
(g18
S'\x86\x9ao>'
p3942
tp3943
Rp3944
tp3945
a(g32
g6
(g18
S'p\xf8\xcb='
p3946
tp3947
Rp3948
tp3949
a(g174
g6
(g18
S'C\x9b\xad='
p3950
tp3951
Rp3952
tp3953
a(g56
g6
(g18
S'\xecJ ='
p3954
tp3955
Rp3956
tp3957
asg73
g15
sa(dp3958
g2
S'../../../data/emanuela/activity-recognition/images/NTCIR-Lifelog-256/u1/2015-03-16/b00002895_21i6bq_20150316_195245e.jpg'
p3959
sg4
(lp3960
(g15
g6
(g18
S'\x01\xdft?'
p3961
tp3962
Rp3963
tp3964
a(g32
g6
(g18
S'|\x9a}<'
p3965
tp3966
Rp3967
tp3968
a(g174
g6
(g18
S'/\x92F<'
p3969
tp3970
Rp3971
tp3972
a(g420
g6
(g18
S'o\xd8\x89;'
p3973
tp3974
Rp3975
tp3976
a(g56
g6
(g18
S'\xaf\x11z;'
p3977
tp3978
Rp3979
tp3980
asg73
g15
sa(dp3981
g2
S'../../../data/emanuela/activity-recognition/images/NTCIR-Lifelog-256/u1/2015-03-06/b00001283_21i6bq_20150306_183124e.jpg'
p3982
sg4
(lp3983
(g15
g6
(g18
S'$\xdd\x01?'
p3984
tp3985
Rp3986
tp3987
a(g32
g6
(g18
S'\xbed\x10>'
p3988
tp3989
Rp3990
tp3991
a(g68
g6
(g18
S'[L\x95='
p3992
tp3993
Rp3994
tp3995
a(g44
g6
(g18
S'\x059Q='
p3996
tp3997
Rp3998
tp3999
a(g56
g6
(g18
S':\xf2K='
p4000
tp4001
Rp4002
tp4003
asg73
g15
sa.