(lp0
(dp1
S'image'
p2
S'../../../data/emanuela/activity-recognition/images/NTCIR-Lifelog-256/u1/2015-03-01/b00000489_21i6bq_20150301_114228e.jpg'
p3
sS'result'
p4
(lp5
(cnumpy.core.multiarray
scalar
p6
(cnumpy
dtype
p7
(S'S27'
p8
I0
I1
tp9
Rp10
(I3
S'|'
p11
NNNI27
I1
I0
tp12
bS'having drinks with somebody'
p13
tp14
Rp15
g6
(g7
(S'f4'
p16
I0
I1
tp17
Rp18
(I3
S'<'
p19
NNNI-1
I-1
I0
tp20
bS',\xfc\xfd>'
p21
tp22
Rp23
tp24
a(g6
(g7
(S'S25'
p25
I0
I1
tp26
Rp27
(I3
S'|'
p28
NNNI25
I1
I0
tp29
bS'having meal with somebody'
p30
tp31
Rp32
g6
(g18
S'`1\xcb>'
p33
tp34
Rp35
tp36
a(g6
(g7
(S'S11'
p37
I0
I1
tp38
Rp39
(I3
S'|'
p40
NNNI11
I1
I0
tp41
bS'socializing'
p42
tp43
Rp44
g6
(g18
S'\xcd\xa7\x8b='
p45
tp46
Rp47
tp48
a(g6
(g7
(S'S24'
p49
I0
I1
tp50
Rp51
(I3
S'|'
p52
NNNI24
I1
I0
tp53
bS'having drinks/meal alone'
p54
tp55
Rp56
g6
(g18
S'7\x17\x14='
p57
tp58
Rp59
tp60
a(g6
(g7
(S'S7'
p61
I0
I1
tp62
Rp63
(I3
S'|'
p64
NNNI7
I1
I0
tp65
bS'cooking'
p66
tp67
Rp68
g6
(g18
S'\x80\xff\x89:'
p69
tp70
Rp71
tp72
asS'label'
p73
g32
sa(dp74
g2
S'../../../data/emanuela/activity-recognition/images/NTCIR-Lifelog-256/u1/2015-03-01/b00000507_21i6bq_20150301_115353e.jpg'
p75
sg4
(lp76
(g44
g6
(g18
S'Y\xde\x19?'
p77
tp78
Rp79
tp80
a(g32
g6
(g18
S'\xc0\xafi>'
p81
tp82
Rp83
tp84
a(g15
g6
(g18
S'sp\xb2='
p85
tp86
Rp87
tp88
a(g6
(g7
(S'S7'
p89
I0
I1
tp90
Rp91
(I3
S'|'
p92
NNNI7
I1
I0
tp93
bS'talking'
p94
tp95
Rp96
g6
(g18
S"\x8f\xb8'="
p97
tp98
Rp99
tp100
a(g56
g6
(g18
S'W}\xca<'
p101
tp102
Rp103
tp104
asg73
g32
sa(dp105
g2
S'../../../data/emanuela/activity-recognition/images/NTCIR-Lifelog-256/u1/2015-03-02/b00000559_21i6bq_20150302_125423e.jpg'
p106
sg4
(lp107
(g32
g6
(g18
S'\xe4[Z?'
p108
tp109
Rp110
tp111
a(g56
g6
(g18
S'\xc3/\xc0='
p112
tp113
Rp114
tp115
a(g15
g6
(g18
S'\xe7i8='
p116
tp117
Rp118
tp119
a(g44
g6
(g18
S'P^j;'
p120
tp121
Rp122
tp123
a(g6
(g7
(S'S7'
p124
I0
I1
tp125
Rp126
(I3
S'|'
p127
NNNI7
I1
I0
tp128
bS'meeting'
p129
tp130
Rp131
g6
(g18
S'D/\xd5:'
p132
tp133
Rp134
tp135
asg73
g32
sa(dp136
g2
S'../../../data/emanuela/activity-recognition/images/NTCIR-Lifelog-256/u1/2015-02-26/b00000786_21i6bq_20150226_143740e.jpg'
p137
sg4
(lp138
(g32
g6
(g18
S'}v ?'
p139
tp140
Rp141
tp142
a(g56
g6
(g18
S'\x05\x9c\xbb>'
p143
tp144
Rp145
tp146
a(g15
g6
(g18
S'\xcd\x0f\xac;'
p147
tp148
Rp149
tp150
a(g6
(g7
(S'S8'
p151
I0
I1
tp152
Rp153
(I3
S'|'
p154
NNNI8
I1
I0
tp155
bS'shopping'
p156
tp157
Rp158
g6
(g18
S'\xc0i\t:'
p159
tp160
Rp161
tp162
a(g68
g6
(g18
S'L\xb9\xcc9'
p163
tp164
Rp165
tp166
asg73
g32
sa(dp167
g2
S'../../../data/emanuela/activity-recognition/images/NTCIR-Lifelog-256/u1/2015-02-26/b00000778_21i6bq_20150226_143308e.jpg'
p168
sg4
(lp169
(g32
g6
(g18
S'\xaf\xc6j?'
p170
tp171
Rp172
tp173
a(g56
g6
(g18
S'\xaa\x9f\x94='
p174
tp175
Rp176
tp177
a(g96
g6
(g18
S'x\xaaR;'
p178
tp179
Rp180
tp181
a(g15
g6
(g18
S'\xb7\xedK;'
p182
tp183
Rp184
tp185
a(g158
g6
(g18
S'y\xf2=;'
p186
tp187
Rp188
tp189
asg73
g32
sa(dp190
g2
S'../../../data/emanuela/activity-recognition/images/NTCIR-Lifelog-256/u1/2015-03-04/b00000965_21i6bq_20150304_165934e.jpg'
p191
sg4
(lp192
(g32
g6
(g18
S'\xaeZR?'
p193
tp194
Rp195
tp196
a(g56
g6
(g18
S'_\n\x12>'
p197
tp198
Rp199
tp200
a(g158
g6
(g18
S'\xfc\xc5\x01='
p201
tp202
Rp203
tp204
a(g15
g6
(g18
S'"_\xf6:'
p205
tp206
Rp207
tp208
a(g6
(g7
(S'S14'
p209
I0
I1
tp210
Rp211
(I3
S'|'
p212
NNNI14
I1
I0
tp213
bS'walking indoor'
p214
tp215
Rp216
g6
(g18
S'OT\xf09'
p217
tp218
Rp219
tp220
asg73
g32
sa(dp221
g2
S'../../../data/emanuela/activity-recognition/images/NTCIR-Lifelog-256/u1/2015-02-25/b00001013_21i6bq_20150225_163356e.jpg'
p222
sg4
(lp223
(g32
g6
(g18
S'\xff\xe4^?'
p224
tp225
Rp226
tp227
a(g96
g6
(g18
S'\x1c\x8dj='
p228
tp229
Rp230
tp231
a(g158
g6
(g18
S'o:\xfa<'
p232
tp233
Rp234
tp235
a(g131
g6
(g18
S'\xbe4\xb1<'
p236
tp237
Rp238
tp239
a(g56
g6
(g18
S'\x89\x82\xdc;'
p240
tp241
Rp242
tp243
asg73
g32
sa(dp244
g2
S'../../../data/emanuela/activity-recognition/images/NTCIR-Lifelog-256/u1/2015-03-02/b00000579_21i6bq_20150302_130702e.jpg'
p245
sg4
(lp246
(g32
g6
(g18
S'\xb6\xc9\xd6>'
p247
tp248
Rp249
tp250
a(g15
g6
(g18
S'\xb3[K>'
p251
tp252
Rp253
tp254
a(g44
g6
(g18
S'b\x00\x12>'
p255
tp256
Rp257
tp258
a(g216
g6
(g18
S'X\xab\xd1='
p259
tp260
Rp261
tp262
a(g158
g6
(g18
S'\x19 \xb0='
p263
tp264
Rp265
tp266
asg73
g32
sa(dp267
g2
S'../../../data/emanuela/activity-recognition/images/NTCIR-Lifelog-256/u1/2015-02-23/b00000651_21i6bq_20150223_135315e.jpg'
p268
sg4
(lp269
(g32
g6
(g18
S'\xf7\xaax?'
p270
tp271
Rp272
tp273
a(g56
g6
(g18
S'\xfc\xa3@<'
p274
tp275
Rp276
tp277
a(g44
g6
(g18
S'sx\xb5;'
p278
tp279
Rp280
tp281
a(g96
g6
(g18
S'=8\xa1;'
p282
tp283
Rp284
tp285
a(g15
g6
(g18
S'v\xa1\x9d;'
p286
tp287
Rp288
tp289
asg73
g32
sa(dp290
g2
S'../../../data/emanuela/activity-recognition/images/NTCIR-Lifelog-256/u1/2015-03-15/b00001367_21i6bq_20150315_205339e.jpg'
p291
sg4
(lp292
(g44
g6
(g18
S'\x89\x04o?'
p293
tp294
Rp295
tp296
a(g15
g6
(g18
S'b\xda^='
p297
tp298
Rp299
tp300
a(g96
g6
(g18
S'\x93\xe9\x81;'
p301
tp302
Rp303
tp304
a(g32
g6
(g18
S'y?);'
p305
tp306
Rp307
tp308
a(g6
(g7
(S'S19'
p309
I0
I1
tp310
Rp311
(I3
S'|'
p312
NNNI19
I1
I0
tp313
bS'cleaning and chores'
p314
tp315
Rp316
g6
(g18
S'\x11\x93\xea:'
p317
tp318
Rp319
tp320
asg73
g32
sa(dp321
g2
S'../../../data/emanuela/activity-recognition/images/NTCIR-Lifelog-256/u1/2015-02-25/b00001033_21i6bq_20150225_164607e.jpg'
p322
sg4
(lp323
(g96
g6
(g18
S'7v\xe9>'
p324
tp325
Rp326
tp327
a(g131
g6
(g18
S'\x19g\x97>'
p328
tp329
Rp330
tp331
a(g32
g6
(g18
S'\x1dn\x06>'
p332
tp333
Rp334
tp335
a(g15
g6
(g18
S'w\xb2\x1d='
p336
tp337
Rp338
tp339
a(g44
g6
(g18
S'o\xe5\xc0<'
p340
tp341
Rp342
tp343
asg73
g32
sa(dp344
g2
S'../../../data/emanuela/activity-recognition/images/NTCIR-Lifelog-256/u1/2015-02-23/b00000677_21i6bq_20150223_140937e.jpg'
p345
sg4
(lp346
(g44
g6
(g18
S'\x9ci;?'
p347
tp348
Rp349
tp350
a(g96
g6
(g18
S'\xf8yj>'
p351
tp352
Rp353
tp354
a(g32
g6
(g18
S'\xc0\x0f\xb3<'
p355
tp356
Rp357
tp358
a(g131
g6
(g18
S'\xc7\xf3\x05<'
p359
tp360
Rp361
tp362
a(g15
g6
(g18
S'~\x17\x92;'
p363
tp364
Rp365
tp366
asg73
g32
sa(dp367
g2
S'../../../data/emanuela/activity-recognition/images/NTCIR-Lifelog-256/u1/2015-03-04/b00001008_21i6bq_20150304_172721e.jpg'
p368
sg4
(lp369
(g32
g6
(g18
S'T7w?'
p370
tp371
Rp372
tp373
a(g56
g6
(g18
S'16\xe1<'
p374
tp375
Rp376
tp377
a(g158
g6
(g18
S'3\xc8\xab;'
p378
tp379
Rp380
tp381
a(g96
g6
(g18
S'\xcd6R:'
p382
tp383
Rp384
tp385
a(g44
g6
(g18
S'q\x87c9'
p386
tp387
Rp388
tp389
asg73
g32
sa(dp390
g2
S'../../../data/emanuela/activity-recognition/images/NTCIR-Lifelog-256/u1/2015-03-04/b00001015_21i6bq_20150304_173139e.jpg'
p391
sg4
(lp392
(g32
g6
(g18
S'F\x92\t?'
p393
tp394
Rp395
tp396
a(g56
g6
(g18
S'vb\xe9>'
p397
tp398
Rp399
tp400
a(g15
g6
(g18
S'\x04\xd8\xfb:'
p401
tp402
Rp403
tp404
a(g44
g6
(g18
S',\xb5\xb4:'
p405
tp406
Rp407
tp408
a(g158
g6
(g18
S'$\xcd\x97:'
p409
tp410
Rp411
tp412
asg73
g32
sa(dp413
g2
S'../../../data/emanuela/activity-recognition/images/NTCIR-Lifelog-256/u1/2015-03-16/b00002917_21i6bq_20150316_201409e.jpg'
p414
sg4
(lp415
(g6
(g7
(S'S16'
p416
I0
I1
tp417
Rp418
(I3
S'|'
p419
NNNI16
I1
I0
tp420
bS'public transport'
p421
tp422
Rp423
g6
(g18
S'\x81H\xad>'
p424
tp425
Rp426
tp427
a(g44
g6
(g18
S'>\x9cS>'
p428
tp429
Rp430
tp431
a(g216
g6
(g18
S'\xb06\xc8='
p432
tp433
Rp434
tp435
a(g6
(g7
(S'S5'
p436
I0
I1
tp437
Rp438
(I3
S'|'
p439
NNNI5
I1
I0
tp440
bS'plane'
p441
tp442
Rp443
g6
(g18
S'\\\x1e\x94='
p444
tp445
Rp446
tp447
a(g6
(g7
(S'S7'
p448
I0
I1
tp449
Rp450
(I3
S'|'
p451
NNNI7
I1
I0
tp452
bS'driving'
p453
tp454
Rp455
g6
(g18
S'\xab\xfd\x86='
p456
tp457
Rp458
tp459
asg73
g32
sa(dp460
g2
S'../../../data/emanuela/activity-recognition/images/NTCIR-Lifelog-256/u1/2015-02-24/b00000930_21i6bq_20150224_160931e.jpg'
p461
sg4
(lp462
(g32
g6
(g18
S'Q2q?'
p463
tp464
Rp465
tp466
a(g56
g6
(g18
S'\x82\x9aN='
p467
tp468
Rp469
tp470
a(g15
g6
(g18
S'\xd0YB;'
p471
tp472
Rp473
tp474
a(g96
g6
(g18
S'NY\xf9:'
p475
tp476
Rp477
tp478
a(g44
g6
(g18
S'BZ\x82:'
p479
tp480
Rp481
tp482
asg73
g32
sa(dp483
g2
S'../../../data/emanuela/activity-recognition/images/NTCIR-Lifelog-256/u1/2015-03-11/b00001286_21i6bq_20150311_213621e.jpg'
p484
sg4
(lp485
(g56
g6
(g18
S't\x05k?'
p486
tp487
Rp488
tp489
a(g32
g6
(g18
S'\x0c\xbe\xd0<'
p490
tp491
Rp492
tp493
a(g316
g6
(g18
S'm\x0b\xa6<'
p494
tp495
Rp496
tp497
a(g68
g6
(g18
S'\xc9.J<'
p498
tp499
Rp500
tp501
a(g216
g6
(g18
S'\x9f\x19\x1b<'
p502
tp503
Rp504
tp505
asg73
g32
sa(dp506
g2
S'../../../data/emanuela/activity-recognition/images/NTCIR-Lifelog-256/u1/2015-02-23/b00000687_21i6bq_20150223_141540e.jpg'
p507
sg4
(lp508
(g32
g6
(g18
S'\xc0\xc9o?'
p509
tp510
Rp511
tp512
a(g15
g6
(g18
S'B\xb2W='
p513
tp514
Rp515
tp516
a(g131
g6
(g18
S'r\xd2\x97;'
p517
tp518
Rp519
tp520
a(g56
g6
(g18
S'U\x9d.;'
p521
tp522
Rp523
tp524
a(g44
g6
(g18
S'pe*;'
p525
tp526
Rp527
tp528
asg73
g32
sa(dp529
g2
S'../../../data/emanuela/activity-recognition/images/NTCIR-Lifelog-256/u1/2015-02-23/b00000669_21i6bq_20150223_140436e.jpg'
p530
sg4
(lp531
(g32
g6
(g18
S'|\x9f\x7f?'
p532
tp533
Rp534
tp535
a(g56
g6
(g18
S'}\xe9`:'
p536
tp537
Rp538
tp539
a(g131
g6
(g18
S'\x06\xb1\xb29'
p540
tp541
Rp542
tp543
a(g15
g6
(g18
S'\xf2\x14+9'
p544
tp545
Rp546
tp547
a(g96
g6
(g18
S'\xdd\xc2\xb18'
p548
tp549
Rp550
tp551
asg73
g32
sa(dp552
g2
S'../../../data/emanuela/activity-recognition/images/NTCIR-Lifelog-256/u1/2015-02-26/b00000746_21i6bq_20150226_141719e.jpg'
p553
sg4
(lp554
(g32
g6
(g18
S'\x020R?'
p555
tp556
Rp557
tp558
a(g56
g6
(g18
S'\xb0\r,>'
p559
tp560
Rp561
tp562
a(g158
g6
(g18
S'W\x00\xaf;'
p563
tp564
Rp565
tp566
a(g15
g6
(g18
S'\x10\x06~;'
p567
tp568
Rp569
tp570
a(g44
g6
(g18
S'n\xb39:'
p571
tp572
Rp573
tp574
asg73
g32
sa(dp575
g2
S'../../../data/emanuela/activity-recognition/images/NTCIR-Lifelog-256/u1/2015-03-04/b00000952_21i6bq_20150304_165108e.jpg'
p576
sg4
(lp577
(g32
g6
(g18
S' &]?'
p578
tp579
Rp580
tp581
a(g15
g6
(g18
S'\xabP\x93='
p582
tp583
Rp584
tp585
a(g56
g6
(g18
S'!\xd1m='
p586
tp587
Rp588
tp589
a(g158
g6
(g18
S'\xd0\xa5B;'
p590
tp591
Rp592
tp593
a(g44
g6
(g18
S'\x170\x15;'
p594
tp595
Rp596
tp597
asg73
g32
sa(dp598
g2
S'../../../data/emanuela/activity-recognition/images/NTCIR-Lifelog-256/u1/2015-03-15/b00001372_21i6bq_20150315_205643e.jpg'
p599
sg4
(lp600
(g15
g6
(g18
S'U&\x1a?'
p601
tp602
Rp603
tp604
a(g44
g6
(g18
S'\x8c%@>'
p605
tp606
Rp607
tp608
a(g32
g6
(g18
S'\x8c\xa0\x0e>'
p609
tp610
Rp611
tp612
a(g96
g6
(g18
S'\xf4\xfd\x19='
p613
tp614
Rp615
tp616
a(g158
g6
(g18
S'\x15\x03\x18<'
p617
tp618
Rp619
tp620
asg73
g32
sa(dp621
g2
S'../../../data/emanuela/activity-recognition/images/NTCIR-Lifelog-256/u1/2015-03-04/b00000999_21i6bq_20150304_172133e.jpg'
p622
sg4
(lp623
(g32
g6
(g18
S'\x1aT^?'
p624
tp625
Rp626
tp627
a(g56
g6
(g18
S'\x8a\x90\xc2='
p628
tp629
Rp630
tp631
a(g15
g6
(g18
S'\xcb\xa4\x8f<'
p632
tp633
Rp634
tp635
a(g158
g6
(g18
S'czi<'
p636
tp637
Rp638
tp639
a(g96
g6
(g18
S'+\x91\xb3:'
p640
tp641
Rp642
tp643
asg73
g32
sa(dp644
g2
S'../../../data/emanuela/activity-recognition/images/NTCIR-Lifelog-256/u1/2015-03-11/b00001309_21i6bq_20150311_215136e.jpg'
p645
sg4
(lp646
(g15
g6
(g18
S'R,\xee>'
p647
tp648
Rp649
tp650
a(g44
g6
(g18
S'\xf2,\xe4>'
p651
tp652
Rp653
tp654
a(g96
g6
(g18
S'\xe2\xa7\xdc<'
p655
tp656
Rp657
tp658
a(g32
g6
(g18
S'8w\xd5<'
p659
tp660
Rp661
tp662
a(g56
g6
(g18
S'C*\x9e<'
p663
tp664
Rp665
tp666
asg73
g32
sa(dp667
g2
S'../../../data/emanuela/activity-recognition/images/NTCIR-Lifelog-256/u1/2015-03-12/b00001221_21i6bq_20150312_210514e.jpg'
p668
sg4
(lp669
(g15
g6
(g18
S'\x86=b?'
p670
tp671
Rp672
tp673
a(g32
g6
(g18
S'\x96lq='
p674
tp675
Rp676
tp677
a(g44
g6
(g18
S'\xcf\xc1\x03='
p678
tp679
Rp680
tp681
a(g56
g6
(g18
S'\xf9[\x9e<'
p682
tp683
Rp684
tp685
a(g158
g6
(g18
S'y\t\x1e;'
p686
tp687
Rp688
tp689
asg73
g32
sa(dp690
g2
S'../../../data/emanuela/activity-recognition/images/NTCIR-Lifelog-256/u1/2015-02-23/b00000681_21i6bq_20150223_141209e.jpg'
p691
sg4
(lp692
(g32
g6
(g18
S'\xec\xd0p?'
p693
tp694
Rp695
tp696
a(g15
g6
(g18
S'\xa7\xc7\xab<'
p697
tp698
Rp699
tp700
a(g56
g6
(g18
S'\xd8\x1a\x86<'
p701
tp702
Rp703
tp704
a(g131
g6
(g18
S'y\x87\x1d<'
p705
tp706
Rp707
tp708
a(g44
g6
(g18
S'6T\x0b<'
p709
tp710
Rp711
tp712
asg73
g32
sa(dp713
g2
S'../../../data/emanuela/activity-recognition/images/NTCIR-Lifelog-256/u1/2015-02-27/b00000627_21i6bq_20150227_135255e.jpg'
p714
sg4
(lp715
(g32
g6
(g18
S'v\xbfw?'
p716
tp717
Rp718
tp719
a(g56
g6
(g18
S'.t\xd4<'
p720
tp721
Rp722
tp723
a(g158
g6
(g18
S'\r&\xfa:'
p724
tp725
Rp726
tp727
a(g15
g6
(g18
S'\x7fd\xf3:'
p728
tp729
Rp730
tp731
a(g44
g6
(g18
S'\xe9\xd0\xcb:'
p732
tp733
Rp734
tp735
asg73
g32
sa(dp736
g2
S'../../../data/emanuela/activity-recognition/images/NTCIR-Lifelog-256/u1/2015-02-26/b00000779_21i6bq_20150226_143345e.jpg'
p737
sg4
(lp738
(g32
g6
(g18
S'\xf9:J?'
p739
tp740
Rp741
tp742
a(g56
g6
(g18
S'\xc0\xf29>'
p743
tp744
Rp745
tp746
a(g15
g6
(g18
S'~\xa7\xb0<'
p747
tp748
Rp749
tp750
a(g158
g6
(g18
S'"\x14`;'
p751
tp752
Rp753
tp754
a(g44
g6
(g18
S'\x9f1\xd3:'
p755
tp756
Rp757
tp758
asg73
g32
sa(dp759
g2
S'../../../data/emanuela/activity-recognition/images/NTCIR-Lifelog-256/u1/2015-02-25/b00001011_21i6bq_20150225_163245e.jpg'
p760
sg4
(lp761
(g32
g6
(g18
S'\x84\x1e~?'
p762
tp763
Rp764
tp765
a(g56
g6
(g18
S'ET\xb4;'
p766
tp767
Rp768
tp769
a(g158
g6
(g18
S'+\x1a\x8e:'
p770
tp771
Rp772
tp773
a(g96
g6
(g18
S'+\x92R9'
p774
tp775
Rp776
tp777
a(g15
g6
(g18
S'\x1e<>9'
p778
tp779
Rp780
tp781
asg73
g32
sa(dp782
g2
S'../../../data/emanuela/activity-recognition/images/NTCIR-Lifelog-256/u1/2015-02-27/b00000629_21i6bq_20150227_135413e.jpg'
p783
sg4
(lp784
(g32
g6
(g18
S'\x7f\x85o?'
p785
tp786
Rp787
tp788
a(g44
g6
(g18
S'"4\xdf<'
p789
tp790
Rp791
tp792
a(g56
g6
(g18
S'\xfdp\xda<'
p793
tp794
Rp795
tp796
a(g15
g6
(g18
S'\xf4"\xf5;'
p797
tp798
Rp799
tp800
a(g158
g6
(g18
S'L\x10\xf3:'
p801
tp802
Rp803
tp804
asg73
g32
sa(dp805
g2
S'../../../data/emanuela/activity-recognition/images/NTCIR-Lifelog-256/u1/2015-02-27/b00000619_21i6bq_20150227_134747e.jpg'
p806
sg4
(lp807
(g32
g6
(g18
S'\x8a\xad-?'
p808
tp809
Rp810
tp811
a(g15
g6
(g18
S'\xe3\xd8D>'
p812
tp813
Rp814
tp815
a(g56
g6
(g18
S'\xc5\xde\xff='
p816
tp817
Rp818
tp819
a(g44
g6
(g18
S'\xder\x1b;'
p820
tp821
Rp822
tp823
a(g158
g6
(g18
S'U\x14\x84:'
p824
tp825
Rp826
tp827
asg73
g32
sa(dp828
g2
S'../../../data/emanuela/activity-recognition/images/NTCIR-Lifelog-256/u1/2015-02-25/b00001018_21i6bq_20150225_163657e.jpg'
p829
sg4
(lp830
(g32
g6
(g18
S'\xab+~?'
p831
tp832
Rp833
tp834
a(g56
g6
(g18
S'\xcfo\xc7;'
p835
tp836
Rp837
tp838
a(g158
g6
(g18
S'X\x98\xed9'
p839
tp840
Rp841
tp842
a(g15
g6
(g18
S'\xe6\\j9'
p843
tp844
Rp845
tp846
a(g44
g6
(g18
S'e`#9'
p847
tp848
Rp849
tp850
asg73
g32
sa(dp851
g2
S'../../../data/emanuela/activity-recognition/images/NTCIR-Lifelog-256/u1/2015-03-04/b00000985_21i6bq_20150304_171226e.jpg'
p852
sg4
(lp853
(g32
g6
(g18
S'\xe0\xd6\x1a?'
p854
tp855
Rp856
tp857
a(g56
g6
(g18
S'\xf3K\xc8>'
p858
tp859
Rp860
tp861
a(g158
g6
(g18
S'(\xd9\x14;'
p862
tp863
Rp864
tp865
a(g68
g6
(g18
S'\xbf\xddw:'
p866
tp867
Rp868
tp869
a(g15
g6
(g18
S'\xd9\xb7}9'
p870
tp871
Rp872
tp873
asg73
g32
sa(dp874
g2
S'../../../data/emanuela/activity-recognition/images/NTCIR-Lifelog-256/u1/2015-02-26/b00000788_21i6bq_20150226_143855e.jpg'
p875
sg4
(lp876
(g32
g6
(g18
S'W\x87*?'
p877
tp878
Rp879
tp880
a(g56
g6
(g18
S'\rK\xa5>'
p881
tp882
Rp883
tp884
a(g15
g6
(g18
S'\xfap\xd1;'
p885
tp886
Rp887
tp888
a(g158
g6
(g18
S'\x8f\xb6\xd2:'
p889
tp890
Rp891
tp892
a(g68
g6
(g18
S'\x0b\xc1q:'
p893
tp894
Rp895
tp896
asg73
g32
sa(dp897
g2
S'../../../data/emanuela/activity-recognition/images/NTCIR-Lifelog-256/u1/2015-02-24/b00000481_21i6bq_20150224_113433e.jpg'
p898
sg4
(lp899
(g32
g6
(g18
S'0GX?'
p900
tp901
Rp902
tp903
a(g56
g6
(g18
S'\x84e\x08>'
p904
tp905
Rp906
tp907
a(g15
g6
(g18
S'\xa6\xdb\x9f<'
p908
tp909
Rp910
tp911
a(g158
g6
(g18
S'\xc6\xe0\x92:'
p912
tp913
Rp914
tp915
a(g44
g6
(g18
S'\xc8\xe4\x82:'
p916
tp917
Rp918
tp919
asg73
g32
sa(dp920
g2
S'../../../data/emanuela/activity-recognition/images/NTCIR-Lifelog-256/u1/2015-03-11/b00001274_21i6bq_20150311_212632e.jpg'
p921
sg4
(lp922
(g56
g6
(g18
S'4,\xfb>'
p923
tp924
Rp925
tp926
a(g32
g6
(g18
S'\x99#\xe8>'
p927
tp928
Rp929
tp930
a(g15
g6
(g18
S'\x90U$='
p931
tp932
Rp933
tp934
a(g68
g6
(g18
S'\xbd\x0c\xae;'
p935
tp936
Rp937
tp938
a(g316
g6
(g18
S'{|W;'
p939
tp940
Rp941
tp942
asg73
g32
sa(dp943
g2
S'../../../data/emanuela/activity-recognition/images/NTCIR-Lifelog-256/u1/2015-02-25/b00000997_21i6bq_20150225_162400e.jpg'
p944
sg4
(lp945
(g32
g6
(g18
S'\xdcs}?'
p946
tp947
Rp948
tp949
a(g96
g6
(g18
S'w\x1cY;'
p950
tp951
Rp952
tp953
a(g56
g6
(g18
S'\xf2\x178;'
p954
tp955
Rp956
tp957
a(g131
g6
(g18
S'9b\xb0:'
p958
tp959
Rp960
tp961
a(g158
g6
(g18
S'b#?:'
p962
tp963
Rp964
tp965
asg73
g32
sa(dp966
g2
S'../../../data/emanuela/activity-recognition/images/NTCIR-Lifelog-256/u1/2015-02-25/b00000964_21i6bq_20150225_160341e.jpg'
p967
sg4
(lp968
(g32
g6
(g18
S'j1\x97>'
p969
tp970
Rp971
tp972
a(g96
g6
(g18
S'\xea\x82\x93>'
p973
tp974
Rp975
tp976
a(g15
g6
(g18
S'\xa0M >'
p977
tp978
Rp979
tp980
a(g131
g6
(g18
S'\n\xaa\x9f='
p981
tp982
Rp983
tp984
a(g216
g6
(g18
S'\xe9\x90`='
p985
tp986
Rp987
tp988
asg73
g32
sa(dp989
g2
S'../../../data/emanuela/activity-recognition/images/NTCIR-Lifelog-256/u1/2015-03-04/b00001001_21i6bq_20150304_172251e.jpg'
p990
sg4
(lp991
(g32
g6
(g18
S"\xbe\xe9'?"
p992
tp993
Rp994
tp995
a(g56
g6
(g18
S'\xa5Y\xa6>'
p996
tp997
Rp998
tp999
a(g68
g6
(g18
S'a\xd0\x07<'
p1000
tp1001
Rp1002
tp1003
a(g158
g6
(g18
S'\x15\xb9\xfb;'
p1004
tp1005
Rp1006
tp1007
a(g15
g6
(g18
S'\xf7;c:'
p1008
tp1009
Rp1010
tp1011
asg73
g32
sa(dp1012
g2
S'../../../data/emanuela/activity-recognition/images/NTCIR-Lifelog-256/u1/2015-02-25/b00000984_21i6bq_20150225_161606e.jpg'
p1013
sg4
(lp1014
(g56
g6
(g18
S':8j?'
p1015
tp1016
Rp1017
tp1018
a(g32
g6
(g18
S'\xd3\x06\x9c='
p1019
tp1020
Rp1021
tp1022
a(g68
g6
(g18
S'`\xb9Y;'
p1023
tp1024
Rp1025
tp1026
a(g158
g6
(g18
S'zEL;'
p1027
tp1028
Rp1029
tp1030
a(g6
(g7
(S'S2'
p1031
I0
I1
tp1032
Rp1033
(I3
S'|'
p1034
NNNI2
I1
I0
tp1035
bS'tv'
p1036
tp1037
Rp1038
g6
(g18
S'\xc6\xee\\:'
p1039
tp1040
Rp1041
tp1042
asg73
g32
sa(dp1043
g2
S'../../../data/emanuela/activity-recognition/images/NTCIR-Lifelog-256/u1/2015-02-27/b00000630_21i6bq_20150227_135451e.jpg'
p1044
sg4
(lp1045
(g32
g6
(g18
S'\x1aim?'
p1046
tp1047
Rp1048
tp1049
a(g56
g6
(g18
S'\x18\x10}='
p1050
tp1051
Rp1052
tp1053
a(g44
g6
(g18
S'\x9d]\xa3;'
p1054
tp1055
Rp1056
tp1057
a(g15
g6
(g18
S'1\xa1\x80;'
p1058
tp1059
Rp1060
tp1061
a(g158
g6
(g18
S'5\x0c\x9e:'
p1062
tp1063
Rp1064
tp1065
asg73
g32
sa(dp1066
g2
S'../../../data/emanuela/activity-recognition/images/NTCIR-Lifelog-256/u1/2015-02-24/b00000483_21i6bq_20150224_113551e.jpg'
p1067
sg4
(lp1068
(g32
g6
(g18
S'\x1e\x92g?'
p1069
tp1070
Rp1071
tp1072
a(g56
g6
(g18
S'\xbb\xees='
p1073
tp1074
Rp1075
tp1076
a(g15
g6
(g18
S'E\x89\xe7<'
p1077
tp1078
Rp1079
tp1080
a(g158
g6
(g18
S'[\xaf\xb7;'
p1081
tp1082
Rp1083
tp1084
a(g44
g6
(g18
S'k\xd9\xc3:'
p1085
tp1086
Rp1087
tp1088
asg73
g32
sa(dp1089
g2
S'../../../data/emanuela/activity-recognition/images/NTCIR-Lifelog-256/u1/2015-03-06/b00000871_21i6bq_20150306_142615e.jpg'
p1090
sg4
(lp1091
(g56
g6
(g18
S'g\xe8\x0e?'
p1092
tp1093
Rp1094
tp1095
a(g32
g6
(g18
S']\x7f\x83>'
p1096
tp1097
Rp1098
tp1099
a(g15
g6
(g18
S'\xa4\x1b\xe7='
p1100
tp1101
Rp1102
tp1103
a(g44
g6
(g18
S'7$\xaa<'
p1104
tp1105
Rp1106
tp1107
a(g216
g6
(g18
S'\xf0}h<'
p1108
tp1109
Rp1110
tp1111
asg73
g32
sa(dp1112
g2
S'../../../data/emanuela/activity-recognition/images/NTCIR-Lifelog-256/u1/2015-02-25/b00000953_21i6bq_20150225_155702e.jpg'
p1113
sg4
(lp1114
(g6
(g7
(S'S6'
p1115
I0
I1
tp1116
Rp1117
(I3
S'|'
p1118
NNNI6
I1
I0
tp1119
bS'mobile'
p1120
tp1121
Rp1122
g6
(g18
S'\x7f\xe9\x10?'
p1123
tp1124
Rp1125
tp1126
a(g6
(g7
(S'S7'
p1127
I0
I1
tp1128
Rp1129
(I3
S'|'
p1130
NNNI7
I1
I0
tp1131
bS'resting'
p1132
tp1133
Rp1134
g6
(g18
S'{s\xbf='
p1135
tp1136
Rp1137
tp1138
a(g96
g6
(g18
S'p\xe2H='
p1139
tp1140
Rp1141
tp1142
a(g131
g6
(g18
S'y\xfb2='
p1143
tp1144
Rp1145
tp1146
a(g56
g6
(g18
S'\x00F\x0c='
p1147
tp1148
Rp1149
tp1150
asg73
g32
sa(dp1151
g2
S'../../../data/emanuela/activity-recognition/images/NTCIR-Lifelog-256/u1/2015-03-11/b00001246_21i6bq_20150311_210113e.jpg'
p1152
sg4
(lp1153
(g32
g6
(g18
S'\xe2qD?'
p1154
tp1155
Rp1156
tp1157
a(g56
g6
(g18
S'\xb2\xffY>'
p1158
tp1159
Rp1160
tp1161
a(g44
g6
(g18
S'B\xf1 <'
p1162
tp1163
Rp1164
tp1165
a(g15
g6
(g18
S"'j\xc1;"
p1166
tp1167
Rp1168
tp1169
a(g96
g6
(g18
S'\xf9&\xb0:'
p1170
tp1171
Rp1172
tp1173
asg73
g32
sa(dp1174
g2
S'../../../data/emanuela/activity-recognition/images/NTCIR-Lifelog-256/u1/2015-02-24/b00000938_21i6bq_20150224_161423e.jpg'
p1175
sg4
(lp1176
(g56
g6
(g18
S'$m9?'
p1177
tp1178
Rp1179
tp1180
a(g32
g6
(g18
S'(\xb6\x8b>'
p1181
tp1182
Rp1183
tp1184
a(g15
g6
(g18
S'\xc3\x80_:'
p1185
tp1186
Rp1187
tp1188
a(g44
g6
(g18
S'O9\xef9'
p1189
tp1190
Rp1191
tp1192
a(g131
g6
(g18
S'g~\xee9'
p1193
tp1194
Rp1195
tp1196
asg73
g32
sa(dp1197
g2
S'../../../data/emanuela/activity-recognition/images/NTCIR-Lifelog-256/u1/2015-02-25/b00000998_21i6bq_20150225_162438e.jpg'
p1198
sg4
(lp1199
(g32
g6
(g18
S'\xe1\n~?'
p1200
tp1201
Rp1202
tp1203
a(g56
g6
(g18
S'\x13T};'
p1204
tp1205
Rp1206
tp1207
a(g44
g6
(g18
S"'L\x8d:"
p1208
tp1209
Rp1210
tp1211
a(g15
g6
(g18
S'\xa1T\x83:'
p1212
tp1213
Rp1214
tp1215
a(g96
g6
(g18
S'\xd8%5:'
p1216
tp1217
Rp1218
tp1219
asg73
g32
sa(dp1220
g2
S'../../../data/emanuela/activity-recognition/images/NTCIR-Lifelog-256/u1/2015-02-23/b00000678_21i6bq_20150223_141014e.jpg'
p1221
sg4
(lp1222
(g44
g6
(g18
S'@\x80@?'
p1223
tp1224
Rp1225
tp1226
a(g96
g6
(g18
S'\xe4M4>'
p1227
tp1228
Rp1229
tp1230
a(g32
g6
(g18
S'P\xae\x15='
p1231
tp1232
Rp1233
tp1234
a(g131
g6
(g18
S'\x11\x8a\xa3<'
p1235
tp1236
Rp1237
tp1238
a(g6
(g7
(S'S19'
p1239
I0
I1
tp1240
Rp1241
(I3
S'|'
p1242
NNNI19
I1
I0
tp1243
bS'attending a seminar'
p1244
tp1245
Rp1246
g6
(g18
S'\xca\x87\x05<'
p1247
tp1248
Rp1249
tp1250
asg73
g32
sa(dp1251
g2
S'../../../data/emanuela/activity-recognition/images/NTCIR-Lifelog-256/u1/2015-03-11/b00001261_21i6bq_20150311_211322e.jpg'
p1252
sg4
(lp1253
(g15
g6
(g18
S'\x96D\xa8>'
p1254
tp1255
Rp1256
tp1257
a(g32
g6
(g18
S'\xd7\x1e~>'
p1258
tp1259
Rp1260
tp1261
a(g131
g6
(g18
S'(\xb7`>'
p1262
tp1263
Rp1264
tp1265
a(g56
g6
(g18
S'\xe7\x9d\xe7='
p1266
tp1267
Rp1268
tp1269
a(g44
g6
(g18
S'laP='
p1270
tp1271
Rp1272
tp1273
asg73
g32
sa(dp1274
g2
S'../../../data/emanuela/activity-recognition/images/NTCIR-Lifelog-256/u1/2015-03-11/b00001297_21i6bq_20150311_214410e.jpg'
p1275
sg4
(lp1276
(g56
g6
(g18
S'\x8d\xb1\x04?'
p1277
tp1278
Rp1279
tp1280
a(g15
g6
(g18
S'a<\x19>'
p1281
tp1282
Rp1283
tp1284
a(g131
g6
(g18
S'\x0c\xc2\x07>'
p1285
tp1286
Rp1287
tp1288
a(g1246
g6
(g18
S'*\xc2\\='
p1289
tp1290
Rp1291
tp1292
a(g32
g6
(g18
S'\xfej3='
p1293
tp1294
Rp1295
tp1296
asg73
g32
sa(dp1297
g2
S'../../../data/emanuela/activity-recognition/images/NTCIR-Lifelog-256/u1/2015-03-11/b00001233_21i6bq_20150311_204230e.jpg'
p1298
sg4
(lp1299
(g56
g6
(g18
S'\x85\xe8*?'
p1300
tp1301
Rp1302
tp1303
a(g32
g6
(g18
S'\x12\xcbe>'
p1304
tp1305
Rp1306
tp1307
a(g15
g6
(g18
S'd\x81,='
p1308
tp1309
Rp1310
tp1311
a(g68
g6
(g18
S'\x9a\x04\x0c='
p1312
tp1313
Rp1314
tp1315
a(g316
g6
(g18
S'w\xa8p<'
p1316
tp1317
Rp1318
tp1319
asg73
g32
sa(dp1320
g2
S'../../../data/emanuela/activity-recognition/images/NTCIR-Lifelog-256/u1/2015-02-24/b00000919_21i6bq_20150224_160254e.jpg'
p1321
sg4
(lp1322
(g32
g6
(g18
S'\xce\x94D?'
p1323
tp1324
Rp1325
tp1326
a(g56
g6
(g18
S'\x06\xe8P>'
p1327
tp1328
Rp1329
tp1330
a(g15
g6
(g18
S'\x929S<'
p1331
tp1332
Rp1333
tp1334
a(g131
g6
(g18
S'P\xa5"<'
p1335
tp1336
Rp1337
tp1338
a(g96
g6
(g18
S'\x99\x14\xd9:'
p1339
tp1340
Rp1341
tp1342
asg73
g32
sa(dp1343
g2
S'../../../data/emanuela/activity-recognition/images/NTCIR-Lifelog-256/u1/2015-02-25/b00000960_21i6bq_20150225_160117e.jpg'
p1344
sg4
(lp1345
(g15
g6
(g18
S'n\xe0\x8f>'
p1346
tp1347
Rp1348
tp1349
a(g158
g6
(g18
S'a\x9b{>'
p1350
tp1351
Rp1352
tp1353
a(g32
g6
(g18
S'!_$>'
p1354
tp1355
Rp1356
tp1357
a(g96
g6
(g18
S'v\x1e\xe2='
p1358
tp1359
Rp1360
tp1361
a(g443
g6
(g18
S'\xc0x(='
p1362
tp1363
Rp1364
tp1365
asg73
g32
sa(dp1366
g2
S'../../../data/emanuela/activity-recognition/images/NTCIR-Lifelog-256/u1/2015-03-11/b00001250_21i6bq_20150311_210425e.jpg'
p1367
sg4
(lp1368
(g32
g6
(g18
S'\xf8\xc8s?'
p1369
tp1370
Rp1371
tp1372
a(g56
g6
(g18
S'\xc6\xc70='
p1373
tp1374
Rp1375
tp1376
a(g15
g6
(g18
S'ST2;'
p1377
tp1378
Rp1379
tp1380
a(g44
g6
(g18
S'G\nW:'
p1381
tp1382
Rp1383
tp1384
a(g96
g6
(g18
S'\xa3M\xb99'
p1385
tp1386
Rp1387
tp1388
asg73
g32
sa(dp1389
g2
S'../../../data/emanuela/activity-recognition/images/NTCIR-Lifelog-256/u1/2015-02-26/b00000758_21i6bq_20150226_142043e.jpg'
p1390
sg4
(lp1391
(g56
g6
(g18
S'i30?'
p1392
tp1393
Rp1394
tp1395
a(g32
g6
(g18
S'rr\x01>'
p1396
tp1397
Rp1398
tp1399
a(g15
g6
(g18
S'\xc2O\xd1='
p1400
tp1401
Rp1402
tp1403
a(g158
g6
(g18
S'\xee\x01\xd9<'
p1404
tp1405
Rp1406
tp1407
a(g68
g6
(g18
S'62\xc3<'
p1408
tp1409
Rp1410
tp1411
asg73
g32
sa(dp1412
g2
S'../../../data/emanuela/activity-recognition/images/NTCIR-Lifelog-256/u1/2015-02-23/b00000684_21i6bq_20150223_141354e.jpg'
p1413
sg4
(lp1414
(g32
g6
(g18
S'\t\xc9\x06?'
p1415
tp1416
Rp1417
tp1418
a(g131
g6
(g18
S'\x8d\x1d\xd1>'
p1419
tp1420
Rp1421
tp1422
a(g15
g6
(g18
S"\x8f\xee'="
p1423
tp1424
Rp1425
tp1426
a(g96
g6
(g18
S'\x16\x85q<'
p1427
tp1428
Rp1429
tp1430
a(g44
g6
(g18
S'\xa9\x18\x07<'
p1431
tp1432
Rp1433
tp1434
asg73
g32
sa(dp1435
g2
S'../../../data/emanuela/activity-recognition/images/NTCIR-Lifelog-256/u1/2015-02-27/b00000635_21i6bq_20150227_135900e.jpg'
p1436
sg4
(lp1437
(g32
g6
(g18
S'\x01X~?'
p1438
tp1439
Rp1440
tp1441
a(g56
g6
(g18
S'\xc8Q\xae;'
p1442
tp1443
Rp1444
tp1445
a(g15
g6
(g18
S';g\n:'
p1446
tp1447
Rp1448
tp1449
a(g44
g6
(g18
S'%\x0c\xb79'
p1450
tp1451
Rp1452
tp1453
a(g158
g6
(g18
S'N\xfav9'
p1454
tp1455
Rp1456
tp1457
asg73
g32
sa(dp1458
g2
S'../../../data/emanuela/activity-recognition/images/NTCIR-Lifelog-256/u1/2015-03-15/b00000873_21i6bq_20150315_160626e.jpg'
p1459
sg4
(lp1460
(g32
g6
(g18
S'\xdf\x84\xf6>'
p1461
tp1462
Rp1463
tp1464
a(g15
g6
(g18
S'\xad\xeeV>'
p1465
tp1466
Rp1467
tp1468
a(g1122
g6
(g18
S'l\xa9\xd7='
p1469
tp1470
Rp1471
tp1472
a(g56
g6
(g18
S'\xb4\r\xc3='
p1473
tp1474
Rp1475
tp1476
a(g158
g6
(g18
S'\xd43\x0e='
p1477
tp1478
Rp1479
tp1480
asg73
g32
sa(dp1481
g2
S'../../../data/emanuela/activity-recognition/images/NTCIR-Lifelog-256/u1/2015-02-27/b00000624_21i6bq_20150227_135058e.jpg'
p1482
sg4
(lp1483
(g32
g6
(g18
S'\x8e\x1cr?'
p1484
tp1485
Rp1486
tp1487
a(g56
g6
(g18
S'\xf6\xfcU='
p1488
tp1489
Rp1490
tp1491
a(g158
g6
(g18
S'\xda$\x91:'
p1492
tp1493
Rp1494
tp1495
a(g15
g6
(g18
S'\xb6\xa6*:'
p1496
tp1497
Rp1498
tp1499
a(g96
g6
(g18
S'\xffq\xe78'
p1500
tp1501
Rp1502
tp1503
asg73
g32
sa(dp1504
g2
S'../../../data/emanuela/activity-recognition/images/NTCIR-Lifelog-256/u1/2015-03-01/b00000490_21i6bq_20150301_114307e.jpg'
p1505
sg4
(lp1506
(g56
g6
(g18
S'\xd34$?'
p1507
tp1508
Rp1509
tp1510
a(g32
g6
(g18
S'(\xfd\xac>'
p1511
tp1512
Rp1513
tp1514
a(g15
g6
(g18
S'\xda\xbbc<'
p1515
tp1516
Rp1517
tp1518
a(g44
g6
(g18
S'AH};'
p1519
tp1520
Rp1521
tp1522
a(g68
g6
(g18
S'lwn:'
p1523
tp1524
Rp1525
tp1526
asg73
g32
sa(dp1527
g2
S'../../../data/emanuela/activity-recognition/images/NTCIR-Lifelog-256/u1/2015-03-11/b00001287_21i6bq_20150311_213734e.jpg'
p1528
sg4
(lp1529
(g32
g6
(g18
S'\xd1\xc8\xa6>'
p1530
tp1531
Rp1532
tp1533
a(g56
g6
(g18
S'A.C>'
p1534
tp1535
Rp1536
tp1537
a(g15
g6
(g18
S'\xbf\xa71>'
p1538
tp1539
Rp1540
tp1541
a(g131
g6
(g18
S'\x944\xfa='
p1542
tp1543
Rp1544
tp1545
a(g44
g6
(g18
S'\x7fOZ='
p1546
tp1547
Rp1548
tp1549
asg73
g32
sa(dp1550
g2
S'../../../data/emanuela/activity-recognition/images/NTCIR-Lifelog-256/u1/2015-03-01/b00000499_21i6bq_20150301_114858e.jpg'
p1551
sg4
(lp1552
(g32
g6
(g18
S'\xae\xe7v?'
p1553
tp1554
Rp1555
tp1556
a(g44
g6
(g18
S'\xeb\x99\xa3<'
p1557
tp1558
Rp1559
tp1560
a(g56
g6
(g18
S'|Q\xff;'
p1561
tp1562
Rp1563
tp1564
a(g15
g6
(g18
S'/\xfb\xe9;'
p1565
tp1566
Rp1567
tp1568
a(g96
g6
(g18
S'\xb5\xfb\x999'
p1569
tp1570
Rp1571
tp1572
asg73
g32
sa(dp1573
g2
S'../../../data/emanuela/activity-recognition/images/NTCIR-Lifelog-256/u1/2015-02-27/b00000642_21i6bq_20150227_140344e.jpg'
p1574
sg4
(lp1575
(g15
g6
(g18
S'\xc1\x17\xef>'
p1576
tp1577
Rp1578
tp1579
a(g32
g6
(g18
S'\n@\xe9>'
p1580
tp1581
Rp1582
tp1583
a(g56
g6
(g18
S'\xbd\xdf\x96='
p1584
tp1585
Rp1586
tp1587
a(g44
g6
(g18
S'\xcb\x02\xe0:'
p1588
tp1589
Rp1590
tp1591
a(g158
g6
(g18
S'\xc9\xaa\xae:'
p1592
tp1593
Rp1594
tp1595
asg73
g32
sa(dp1596
g2
S'../../../data/emanuela/activity-recognition/images/NTCIR-Lifelog-256/u1/2015-02-25/b00000962_21i6bq_20150225_160229e.jpg'
p1597
sg4
(lp1598
(g15
g6
(g18
S'ZT\x02?'
p1599
tp1600
Rp1601
tp1602
a(g56
g6
(g18
S'\x96;G>'
p1603
tp1604
Rp1605
tp1606
a(g316
g6
(g18
S'\x81\x8d\xa9='
p1607
tp1608
Rp1609
tp1610
a(g32
g6
(g18
S'\xe25+='
p1611
tp1612
Rp1613
tp1614
a(g131
g6
(g18
S'3\x9c\x1e='
p1615
tp1616
Rp1617
tp1618
asg73
g32
sa(dp1619
g2
S'../../../data/emanuela/activity-recognition/images/NTCIR-Lifelog-256/u1/2015-02-25/b00001027_21i6bq_20150225_164227e.jpg'
p1620
sg4
(lp1621
(g32
g6
(g18
S'\xe2\x12|?'
p1622
tp1623
Rp1624
tp1625
a(g56
g6
(g18
S'\\\xdeC<'
p1626
tp1627
Rp1628
tp1629
a(g44
g6
(g18
S'G\x96\xc6:'
p1630
tp1631
Rp1632
tp1633
a(g15
g6
(g18
S'\x98)\x88:'
p1634
tp1635
Rp1636
tp1637
a(g158
g6
(g18
S'J\xf1\x11:'
p1638
tp1639
Rp1640
tp1641
asg73
g32
sa(dp1642
g2
S'../../../data/emanuela/activity-recognition/images/NTCIR-Lifelog-256/u1/2015-02-23/b00000680_21i6bq_20150223_141128e.jpg'
p1643
sg4
(lp1644
(g32
g6
(g18
S'\xa6\x1f~?'
p1645
tp1646
Rp1647
tp1648
a(g131
g6
(g18
S'\x7f\xb9H;'
p1649
tp1650
Rp1651
tp1652
a(g56
g6
(g18
S'\xecs\xf0:'
p1653
tp1654
Rp1655
tp1656
a(g15
g6
(g18
S'\x19]\xe7:'
p1657
tp1658
Rp1659
tp1660
a(g96
g6
(g18
S'7\x81\xc09'
p1661
tp1662
Rp1663
tp1664
asg73
g32
sa(dp1665
g2
S'../../../data/emanuela/activity-recognition/images/NTCIR-Lifelog-256/u1/2015-02-24/b00000482_21i6bq_20150224_113513e.jpg'
p1666
sg4
(lp1667
(g32
g6
(g18
S'\xc4P\x15?'
p1668
tp1669
Rp1670
tp1671
a(g56
g6
(g18
S'%/\xd0>'
p1672
tp1673
Rp1674
tp1675
a(g15
g6
(g18
S'\x9b\x9c\xce;'
p1676
tp1677
Rp1678
tp1679
a(g158
g6
(g18
S'\xc4\x98\t;'
p1680
tp1681
Rp1682
tp1683
a(g44
g6
(g18
S'\xb7\x86\xb5:'
p1684
tp1685
Rp1686
tp1687
asg73
g32
sa(dp1688
g2
S'../../../data/emanuela/activity-recognition/images/NTCIR-Lifelog-256/u1/2015-03-04/b00001016_21i6bq_20150304_173217e.jpg'
p1689
sg4
(lp1690
(g32
g6
(g18
S'\x82\xea]?'
p1691
tp1692
Rp1693
tp1694
a(g56
g6
(g18
S'\xee\n\x05>'
p1695
tp1696
Rp1697
tp1698
a(g15
g6
(g18
S'\xee\r\x9e:'
p1699
tp1700
Rp1701
tp1702
a(g96
g6
(g18
S'\x87\xca/:'
p1703
tp1704
Rp1705
tp1706
a(g44
g6
(g18
S'J\x95\xc19'
p1707
tp1708
Rp1709
tp1710
asg73
g32
sa(dp1711
g2
S'../../../data/emanuela/activity-recognition/images/NTCIR-Lifelog-256/u1/2015-03-02/b00000564_21i6bq_20150302_125733e.jpg'
p1712
sg4
(lp1713
(g32
g6
(g18
S'A\xf3b?'
p1714
tp1715
Rp1716
tp1717
a(g56
g6
(g18
S'\x8b\x12\x88='
p1718
tp1719
Rp1720
tp1721
a(g15
g6
(g18
S'B0\x04='
p1722
tp1723
Rp1724
tp1725
a(g44
g6
(g18
S'\xdc\x8b\n<'
p1726
tp1727
Rp1728
tp1729
a(g158
g6
(g18
S'\x1d\xbf\x85;'
p1730
tp1731
Rp1732
tp1733
asg73
g32
sa(dp1734
g2
S'../../../data/emanuela/activity-recognition/images/NTCIR-Lifelog-256/u1/2015-03-11/b00001302_21i6bq_20150311_214709e.jpg'
p1735
sg4
(lp1736
(g44
g6
(g18
S'!o\xed>'
p1737
tp1738
Rp1739
tp1740
a(g15
g6
(g18
S'7\x18\xbf>'
p1741
tp1742
Rp1743
tp1744
a(g96
g6
(g18
S'\xf1*8='
p1745
tp1746
Rp1747
tp1748
a(g32
g6
(g18
S'i]-='
p1749
tp1750
Rp1751
tp1752
a(g56
g6
(g18
S'=\xb2\xd6<'
p1753
tp1754
Rp1755
tp1756
asg73
g32
sa(dp1757
g2
S'../../../data/emanuela/activity-recognition/images/NTCIR-Lifelog-256/u1/2015-03-01/b00000493_21i6bq_20150301_114533e.jpg'
p1758
sg4
(lp1759
(g32
g6
(g18
S'&\xf9]?'
p1760
tp1761
Rp1762
tp1763
a(g15
g6
(g18
S'\x85\x9d\x97='
p1764
tp1765
Rp1766
tp1767
a(g56
g6
(g18
S'\x06\x8e\r='
p1768
tp1769
Rp1770
tp1771
a(g44
g6
(g18
S'\x99\xef\xa5<'
p1772
tp1773
Rp1774
tp1775
a(g316
g6
(g18
S'I\xb4\xe4:'
p1776
tp1777
Rp1778
tp1779
asg73
g32
sa(dp1780
g2
S'../../../data/emanuela/activity-recognition/images/NTCIR-Lifelog-256/u1/2015-02-26/b00000763_21i6bq_20150226_142352e.jpg'
p1781
sg4
(lp1782
(g32
g6
(g18
S'\x9b\xe87?'
p1783
tp1784
Rp1785
tp1786
a(g56
g6
(g18
S'\xe3\x96[>'
p1787
tp1788
Rp1789
tp1790
a(g15
g6
(g18
S'\x0by\\='
p1791
tp1792
Rp1793
tp1794
a(g158
g6
(g18
S'b$\xbe;'
p1795
tp1796
Rp1797
tp1798
a(g44
g6
(g18
S'q\xf8m;'
p1799
tp1800
Rp1801
tp1802
asg73
g32
sa(dp1803
g2
S'../../../data/emanuela/activity-recognition/images/NTCIR-Lifelog-256/u1/2015-02-25/b00001014_21i6bq_20150225_163430e.jpg'
p1804
sg4
(lp1805
(g32
g6
(g18
S'c\xa5p?'
p1806
tp1807
Rp1808
tp1809
a(g158
g6
(g18
S'E+\x0e='
p1810
tp1811
Rp1812
tp1813
a(g56
g6
(g18
S'\xfc9W<'
p1814
tp1815
Rp1816
tp1817
a(g15
g6
(g18
S'\xae.\x97;'
p1818
tp1819
Rp1820
tp1821
a(g96
g6
(g18
S'\xe0\xbfK;'
p1822
tp1823
Rp1824
tp1825
asg73
g32
sa(dp1826
g2
S'../../../data/emanuela/activity-recognition/images/NTCIR-Lifelog-256/u1/2015-03-04/b00000981_21i6bq_20150304_171002e.jpg'
p1827
sg4
(lp1828
(g32
g6
(g18
S':\x80q?'
p1829
tp1830
Rp1831
tp1832
a(g56
g6
(g18
S'\x87\x0bL='
p1833
tp1834
Rp1835
tp1836
a(g158
g6
(g18
S'\x14\xa1\xa5;'
p1837
tp1838
Rp1839
tp1840
a(g15
g6
(g18
S"\x9f\xac':"
p1841
tp1842
Rp1843
tp1844
a(g96
g6
(g18
S'\x9c\x14\xe79'
p1845
tp1846
Rp1847
tp1848
asg73
g32
sa(dp1849
g2
S'../../../data/emanuela/activity-recognition/images/NTCIR-Lifelog-256/u1/2015-02-26/b00000750_21i6bq_20150226_141722e.jpg'
p1850
sg4
(lp1851
(g56
g6
(g18
S' 5Y?'
p1852
tp1853
Rp1854
tp1855
a(g32
g6
(g18
S'R)\x05>'
p1856
tp1857
Rp1858
tp1859
a(g158
g6
(g18
S'%\xcc\xc6;'
p1860
tp1861
Rp1862
tp1863
a(g15
g6
(g18
S'\xe3\xa4\xbd;'
p1864
tp1865
Rp1866
tp1867
a(g68
g6
(g18
S'\x8f\xd8\x8d;'
p1868
tp1869
Rp1870
tp1871
asg73
g32
sa(dp1872
g2
S'../../../data/emanuela/activity-recognition/images/NTCIR-Lifelog-256/u1/2015-03-04/b00000994_21i6bq_20150304_171752e.jpg'
p1873
sg4
(lp1874
(g32
g6
(g18
S'6}b?'
p1875
tp1876
Rp1877
tp1878
a(g56
g6
(g18
S'\x19q\xcb='
p1879
tp1880
Rp1881
tp1882
a(g158
g6
(g18
S'\x7f" <'
p1883
tp1884
Rp1885
tp1886
a(g15
g6
(g18
S'\xd4v\x18;'
p1887
tp1888
Rp1889
tp1890
a(g96
g6
(g18
S'!\xa9\xcb:'
p1891
tp1892
Rp1893
tp1894
asg73
g32
sa(dp1895
g2
S'../../../data/emanuela/activity-recognition/images/NTCIR-Lifelog-256/u1/2015-03-11/b00001312_21i6bq_20150311_215445e.jpg'
p1896
sg4
(lp1897
(g15
g6
(g18
S'p\xa8\xb0>'
p1898
tp1899
Rp1900
tp1901
a(g44
g6
(g18
S'\x15F\xa1>'
p1902
tp1903
Rp1904
tp1905
a(g96
g6
(g18
S'\x90\x04l>'
p1906
tp1907
Rp1908
tp1909
a(g131
g6
(g18
S'\xe4\xb85='
p1910
tp1911
Rp1912
tp1913
a(g1246
g6
(g18
S'\xbd\xdf%='
p1914
tp1915
Rp1916
tp1917
asg73
g32
sa(dp1918
g2
S'../../../data/emanuela/activity-recognition/images/NTCIR-Lifelog-256/u1/2015-03-11/b00001289_21i6bq_20150311_213844e.jpg'
p1919
sg4
(lp1920
(g15
g6
(g18
S'\x9d\xdbX>'
p1921
tp1922
Rp1923
tp1924
a(g44
g6
(g18
S'$\x1aD>'
p1925
tp1926
Rp1927
tp1928
a(g316
g6
(g18
S'\xa6\xd6?>'
p1929
tp1930
Rp1931
tp1932
a(g68
g6
(g18
S'8U">'
p1933
tp1934
Rp1935
tp1936
a(g216
g6
(g18
S'\xd3\xd0\x92='
p1937
tp1938
Rp1939
tp1940
asg73
g32
sa(dp1941
g2
S'../../../data/emanuela/activity-recognition/images/NTCIR-Lifelog-256/u1/2015-03-11/b00001272_21i6bq_20150311_212411e.jpg'
p1942
sg4
(lp1943
(g56
g6
(g18
S'\xbb\xf7\x83>'
p1944
tp1945
Rp1946
tp1947
a(g32
g6
(g18
S"'By>"
p1948
tp1949
Rp1950
tp1951
a(g15
g6
(g18
S'|\xb0\x1a>'
p1952
tp1953
Rp1954
tp1955
a(g96
g6
(g18
S'\xea8\xee='
p1956
tp1957
Rp1958
tp1959
a(g131
g6
(g18
S'\xfd!\xe5='
p1960
tp1961
Rp1962
tp1963
asg73
g32
sa(dp1964
g2
S'../../../data/emanuela/activity-recognition/images/NTCIR-Lifelog-256/u1/2015-03-15/b00000878_21i6bq_20150315_160923e.jpg'
p1965
sg4
(lp1966
(g15
g6
(g18
S'{MW?'
p1967
tp1968
Rp1969
tp1970
a(g44
g6
(g18
S'\xed\x87\x94='
p1971
tp1972
Rp1973
tp1974
a(g56
g6
(g18
S'\xcf\x9d\x17='
p1975
tp1976
Rp1977
tp1978
a(g32
g6
(g18
S'\x8ets<'
p1979
tp1980
Rp1981
tp1982
a(g1038
g6
(g18
S')\xb2#<'
p1983
tp1984
Rp1985
tp1986
asg73
g32
sa(dp1987
g2
S'../../../data/emanuela/activity-recognition/images/NTCIR-Lifelog-256/u1/2015-02-26/b00000790_21i6bq_20150226_144005e.jpg'
p1988
sg4
(lp1989
(g32
g6
(g18
S'7\xec,?'
p1990
tp1991
Rp1992
tp1993
a(g56
g6
(g18
S'\xd0\xd3\xa5>'
p1994
tp1995
Rp1996
tp1997
a(g158
g6
(g18
S'\xc8\xb1\x889'
p1998
tp1999
Rp2000
tp2001
a(g15
g6
(g18
S'\xf8s&9'
p2002
tp2003
Rp2004
tp2005
a(g68
g6
(g18
S'3\x01\xef8'
p2006
tp2007
Rp2008
tp2009
asg73
g32
sa(dp2010
g2
S'../../../data/emanuela/activity-recognition/images/NTCIR-Lifelog-256/u1/2015-02-27/b00000632_21i6bq_20150227_135602e.jpg'
p2011
sg4
(lp2012
(g32
g6
(g18
S'i\x14z?'
p2013
tp2014
Rp2015
tp2016
a(g15
g6
(g18
S'H\xba3<'
p2017
tp2018
Rp2019
tp2020
a(g56
g6
(g18
S'.\x96\xaf;'
p2021
tp2022
Rp2023
tp2024
a(g158
g6
(g18
S'+\xd5Y;'
p2025
tp2026
Rp2027
tp2028
a(g44
g6
(g18
S'\x1cD.;'
p2029
tp2030
Rp2031
tp2032
asg73
g32
sa(dp2033
g2
S'../../../data/emanuela/activity-recognition/images/NTCIR-Lifelog-256/u1/2015-02-24/b00000922_21i6bq_20150224_160447e.jpg'
p2034
sg4
(lp2035
(g32
g6
(g18
S'\xa2\x81[?'
p2036
tp2037
Rp2038
tp2039
a(g56
g6
(g18
S'>\xcd\xf2='
p2040
tp2041
Rp2042
tp2043
a(g15
g6
(g18
S'\xa1\x91e<'
p2044
tp2045
Rp2046
tp2047
a(g131
g6
(g18
S'\xe8\xd4\x93;'
p2048
tp2049
Rp2050
tp2051
a(g158
g6
(g18
S'\x11\xa2d;'
p2052
tp2053
Rp2054
tp2055
asg73
g32
sa(dp2056
g2
S'../../../data/emanuela/activity-recognition/images/NTCIR-Lifelog-256/u1/2015-02-26/b00000775_21i6bq_20150226_143114e.jpg'
p2057
sg4
(lp2058
(g32
g6
(g18
S'XO,?'
p2059
tp2060
Rp2061
tp2062
a(g15
g6
(g18
S'\x80i4>'
p2063
tp2064
Rp2065
tp2066
a(g44
g6
(g18
S'\x80\xa8\xa5='
p2067
tp2068
Rp2069
tp2070
a(g56
g6
(g18
S'\xce)c='
p2071
tp2072
Rp2073
tp2074
a(g96
g6
(g18
S'\xcdd\xb1;'
p2075
tp2076
Rp2077
tp2078
asg73
g32
sa(dp2079
g2
S'../../../data/emanuela/activity-recognition/images/NTCIR-Lifelog-256/u1/2015-03-04/b00000993_21i6bq_20150304_171717e.jpg'
p2080
sg4
(lp2081
(g32
g6
(g18
S'\xf3\xe3S?'
p2082
tp2083
Rp2084
tp2085
a(g56
g6
(g18
S'\xc0\xde&>'
p2086
tp2087
Rp2088
tp2089
a(g158
g6
(g18
S'\xf0\x97\x99;'
p2090
tp2091
Rp2092
tp2093
a(g15
g6
(g18
S'4\xfa%;'
p2094
tp2095
Rp2096
tp2097
a(g44
g6
(g18
S'\x96}\x1c:'
p2098
tp2099
Rp2100
tp2101
asg73
g32
sa(dp2102
g2
S'../../../data/emanuela/activity-recognition/images/NTCIR-Lifelog-256/u1/2015-02-24/b00000470_21i6bq_20150224_112749e.jpg'
p2103
sg4
(lp2104
(g15
g6
(g18
S'\xdf5p?'
p2105
tp2106
Rp2107
tp2108
a(g44
g6
(g18
S'\xfd\xa7\xaf<'
p2109
tp2110
Rp2111
tp2112
a(g158
g6
(g18
S'\xbd{\xa4<'
p2113
tp2114
Rp2115
tp2116
a(g32
g6
(g18
S'0\xc9\x17<'
p2117
tp2118
Rp2119
tp2120
a(g56
g6
(g18
S'\x0fXW;'
p2121
tp2122
Rp2123
tp2124
asg73
g32
sa(dp2125
g2
S'../../../data/emanuela/activity-recognition/images/NTCIR-Lifelog-256/u1/2015-03-06/b00000870_21i6bq_20150306_142534e.jpg'
p2126
sg4
(lp2127
(g131
g6
(g18
S'T[\x7f>'
p2128
tp2129
Rp2130
tp2131
a(g96
g6
(g18
S'\x94;a>'
p2132
tp2133
Rp2134
tp2135
a(g15
g6
(g18
S'M\x98\xdf='
p2136
tp2137
Rp2138
tp2139
a(g216
g6
(g18
S'\xf7\x0c\x98='
p2140
tp2141
Rp2142
tp2143
a(g32
g6
(g18
S' \x11l='
p2144
tp2145
Rp2146
tp2147
asg73
g32
sa(dp2148
g2
S'../../../data/emanuela/activity-recognition/images/NTCIR-Lifelog-256/u1/2015-02-24/b00000917_21i6bq_20150224_160138e.jpg'
p2149
sg4
(lp2150
(g32
g6
(g18
S'{{D?'
p2151
tp2152
Rp2153
tp2154
a(g56
g6
(g18
S'\x05\x8a:>'
p2155
tp2156
Rp2157
tp2158
a(g131
g6
(g18
S'\x13w\x96<'
p2159
tp2160
Rp2161
tp2162
a(g15
g6
(g18
S'\xcf\x8c\x95<'
p2163
tp2164
Rp2165
tp2166
a(g1038
g6
(g18
S'j\x04\x9d;'
p2167
tp2168
Rp2169
tp2170
asg73
g32
sa(dp2171
g2
S'../../../data/emanuela/activity-recognition/images/NTCIR-Lifelog-256/u1/2015-02-25/b00000963_21i6bq_20150225_160306e.jpg'
p2172
sg4
(lp2173
(g96
g6
(g18
S"'\xfd\\>"
p2174
tp2175
Rp2176
tp2177
a(g131
g6
(g18
S'\t<\xff='
p2178
tp2179
Rp2180
tp2181
a(g1134
g6
(g18
S'\x02:\xea='
p2182
tp2183
Rp2184
tp2185
a(g32
g6
(g18
S'\xda\xf3\xce='
p2186
tp2187
Rp2188
tp2189
a(g15
g6
(g18
S'\xd5G\xc5='
p2190
tp2191
Rp2192
tp2193
asg73
g32
sa(dp2194
g2
S'../../../data/emanuela/activity-recognition/images/NTCIR-Lifelog-256/u1/2015-02-24/b00000923_21i6bq_20150224_160522e.jpg'
p2195
sg4
(lp2196
(g32
g6
(g18
S'\xda\xbdl?'
p2197
tp2198
Rp2199
tp2200
a(g56
g6
(g18
S'9~\x8d='
p2201
tp2202
Rp2203
tp2204
a(g158
g6
(g18
S'%\r\x15;'
p2205
tp2206
Rp2207
tp2208
a(g131
g6
(g18
S'9\x9f\xce:'
p2209
tp2210
Rp2211
tp2212
a(g15
g6
(g18
S'\x9f\xf0\xc2:'
p2213
tp2214
Rp2215
tp2216
asg73
g32
sa(dp2217
g2
S'../../../data/emanuela/activity-recognition/images/NTCIR-Lifelog-256/u1/2015-02-25/b00000980_21i6bq_20150225_161342e.jpg'
p2218
sg4
(lp2219
(g32
g6
(g18
S'\xba\x818?'
p2220
tp2221
Rp2222
tp2223
a(g56
g6
(g18
S'\xc3I\x8e>'
p2224
tp2225
Rp2226
tp2227
a(g158
g6
(g18
S'l3.:'
p2228
tp2229
Rp2230
tp2231
a(g96
g6
(g18
S'\xe2\xcb,9'
p2232
tp2233
Rp2234
tp2235
a(g15
g6
(g18
S'\x04\xda\xd08'
p2236
tp2237
Rp2238
tp2239
asg73
g32
sa(dp2240
g2
S'../../../data/emanuela/activity-recognition/images/NTCIR-Lifelog-256/u1/2015-03-16/b00002908_21i6bq_20150316_200832e.jpg'
p2241
sg4
(lp2242
(g15
g6
(g18
S'\xe0s&?'
p2243
tp2244
Rp2245
tp2246
a(g32
g6
(g18
S'mG\x04>'
p2247
tp2248
Rp2249
tp2250
a(g56
g6
(g18
S'(\xf1\xbf='
p2251
tp2252
Rp2253
tp2254
a(g158
g6
(g18
S'e\xc5d='
p2255
tp2256
Rp2257
tp2258
a(g44
g6
(g18
S'\xa4\xe66='
p2259
tp2260
Rp2261
tp2262
asg73
g32
sa(dp2263
g2
S'../../../data/emanuela/activity-recognition/images/NTCIR-Lifelog-256/u1/2015-02-27/b00000638_21i6bq_20150227_140122e.jpg'
p2264
sg4
(lp2265
(g32
g6
(g18
S'\xb5T}?'
p2266
tp2267
Rp2268
tp2269
a(g56
g6
(g18
S'\xb5(\xe2;'
p2270
tp2271
Rp2272
tp2273
a(g15
g6
(g18
S'\x11\x022;'
p2274
tp2275
Rp2276
tp2277
a(g44
g6
(g18
S'\x93\xfe\x13:'
p2278
tp2279
Rp2280
tp2281
a(g158
g6
(g18
S'\xed\xdb89'
p2282
tp2283
Rp2284
tp2285
asg73
g32
sa(dp2286
g2
S'../../../data/emanuela/activity-recognition/images/NTCIR-Lifelog-256/u1/2015-02-23/b00000665_21i6bq_20150223_140216e.jpg'
p2287
sg4
(lp2288
(g32
g6
(g18
S'#\xdf}?'
p2289
tp2290
Rp2291
tp2292
a(g56
g6
(g18
S'{f\xf5;'
p2293
tp2294
Rp2295
tp2296
a(g15
g6
(g18
S'\r\x91\xc29'
p2297
tp2298
Rp2299
tp2300
a(g131
g6
(g18
S'^\xe1\xa29'
p2301
tp2302
Rp2303
tp2304
a(g44
g6
(g18
S'\xabQ\xac8'
p2305
tp2306
Rp2307
tp2308
asg73
g32
sa(dp2309
g2
S'../../../data/emanuela/activity-recognition/images/NTCIR-Lifelog-256/u1/2015-02-25/b00001000_21i6bq_20150225_162553e.jpg'
p2310
sg4
(lp2311
(g32
g6
(g18
S'v\xfca?'
p2312
tp2313
Rp2314
tp2315
a(g15
g6
(g18
S't\xac\x83='
p2316
tp2317
Rp2318
tp2319
a(g56
g6
(g18
S'\xa8\xe6\xe0<'
p2320
tp2321
Rp2322
tp2323
a(g131
g6
(g18
S"'\x0e <"
p2324
tp2325
Rp2326
tp2327
a(g44
g6
(g18
S'\xb7\xca\x90;'
p2328
tp2329
Rp2330
tp2331
asg73
g32
sa(dp2332
g2
S'../../../data/emanuela/activity-recognition/images/NTCIR-Lifelog-256/u1/2015-03-11/b00001244_21i6bq_20150311_210003e.jpg'
p2333
sg4
(lp2334
(g32
g6
(g18
S'\xac"\xcf>'
p2335
tp2336
Rp2337
tp2338
a(g131
g6
(g18
S'(\xd6\xc9>'
p2339
tp2340
Rp2341
tp2342
a(g56
g6
(g18
S' \xa4\x90='
p2343
tp2344
Rp2345
tp2346
a(g96
g6
(g18
S'7J,='
p2347
tp2348
Rp2349
tp2350
a(g15
g6
(g18
S'\x08\xa3\n='
p2351
tp2352
Rp2353
tp2354
asg73
g32
sa(dp2355
g2
S'../../../data/emanuela/activity-recognition/images/NTCIR-Lifelog-256/u1/2015-03-11/b00001279_21i6bq_20150311_213112e.jpg'
p2356
sg4
(lp2357
(g32
g6
(g18
S'\xba\xd4V?'
p2358
tp2359
Rp2360
tp2361
a(g56
g6
(g18
S'N\xc9\x99='
p2362
tp2363
Rp2364
tp2365
a(g15
g6
(g18
S':\x08M='
p2366
tp2367
Rp2368
tp2369
a(g44
g6
(g18
S'\xe4\x9d\xbd<'
p2370
tp2371
Rp2372
tp2373
a(g96
g6
(g18
S's\xe2\xa2;'
p2374
tp2375
Rp2376
tp2377
asg73
g32
sa(dp2378
g2
S'../../../data/emanuela/activity-recognition/images/NTCIR-Lifelog-256/u1/2015-02-23/b00000672_21i6bq_20150223_140630e.jpg'
p2379
sg4
(lp2380
(g32
g6
(g18
S'\xc8"\x7f?'
p2381
tp2382
Rp2383
tp2384
a(g56
g6
(g18
S'A\xefN;'
p2385
tp2386
Rp2387
tp2388
a(g15
g6
(g18
S'YP\xdd8'
p2389
tp2390
Rp2391
tp2392
a(g131
g6
(g18
S'_\xd4\x9f8'
p2393
tp2394
Rp2395
tp2396
a(g44
g6
(g18
S'\xd2\x86\x9e7'
p2397
tp2398
Rp2399
tp2400
asg73
g32
sa(dp2401
g2
S'../../../data/emanuela/activity-recognition/images/NTCIR-Lifelog-256/u1/2015-03-04/b00000978_21i6bq_20150304_170808e.jpg'
p2402
sg4
(lp2403
(g15
g6
(g18
S'OU\xfb>'
p2404
tp2405
Rp2406
tp2407
a(g32
g6
(g18
S'D"\xcd>'
p2408
tp2409
Rp2410
tp2411
a(g56
g6
(g18
S'\xa4\x02\xb4='
p2412
tp2413
Rp2414
tp2415
a(g158
g6
(g18
S't\xf9\x80<'
p2416
tp2417
Rp2418
tp2419
a(g44
g6
(g18
S'd#\xe6:'
p2420
tp2421
Rp2422
tp2423
asg73
g32
sa(dp2424
g2
S'../../../data/emanuela/activity-recognition/images/NTCIR-Lifelog-256/u1/2015-03-02/b00000569_21i6bq_20150302_130053e.jpg'
p2425
sg4
(lp2426
(g15
g6
(g18
S'D3\x9e>'
p2427
tp2428
Rp2429
tp2430
a(g56
g6
(g18
S'^/y>'
p2431
tp2432
Rp2433
tp2434
a(g6
(g7
(S'S7'
p2435
I0
I1
tp2436
Rp2437
(I3
S'|'
p2438
NNNI7
I1
I0
tp2439
bS'working'
p2440
tp2441
Rp2442
g6
(g18
S'\x9d5$>'
p2443
tp2444
Rp2445
tp2446
a(g6
(g7
(S'S7'
p2447
I0
I1
tp2448
Rp2449
(I3
S'|'
p2450
NNNI7
I1
I0
tp2451
bS'reading'
p2452
tp2453
Rp2454
g6
(g18
S'\xc1\x9b\xb7='
p2455
tp2456
Rp2457
tp2458
a(g455
g6
(g18
S'g\x07O='
p2459
tp2460
Rp2461
tp2462
asg73
g32
sa(dp2463
g2
S'../../../data/emanuela/activity-recognition/images/NTCIR-Lifelog-256/u1/2015-02-25/b00001028_21i6bq_20150225_164305e.jpg'
p2464
sg4
(lp2465
(g96
g6
(g18
S'\xcc\x1e\xb7>'
p2466
tp2467
Rp2468
tp2469
a(g131
g6
(g18
S'^\\\x92>'
p2470
tp2471
Rp2472
tp2473
a(g32
g6
(g18
S'\x10\xae\xfa='
p2474
tp2475
Rp2476
tp2477
a(g15
g6
(g18
S'\xe2\xde^='
p2478
tp2479
Rp2480
tp2481
a(g44
g6
(g18
S'\xe8\xd6\x15='
p2482
tp2483
Rp2484
tp2485
asg73
g32
sa(dp2486
g2
S'../../../data/emanuela/activity-recognition/images/NTCIR-Lifelog-256/u1/2015-03-02/b00000556_21i6bq_20150302_125223e.jpg'
p2487
sg4
(lp2488
(g32
g6
(g18
S'5da?'
p2489
tp2490
Rp2491
tp2492
a(g56
g6
(g18
S'\x13\xd8\xbc='
p2493
tp2494
Rp2495
tp2496
a(g15
g6
(g18
S'\xf5\x85\xf4;'
p2497
tp2498
Rp2499
tp2500
a(g158
g6
(g18
S'v\x10\xed;'
p2501
tp2502
Rp2503
tp2504
a(g1122
g6
(g18
S'5[\xea;'
p2505
tp2506
Rp2507
tp2508
asg73
g32
sa(dp2509
g2
S'../../../data/emanuela/activity-recognition/images/NTCIR-Lifelog-256/u1/2015-03-16/b00002910_21i6bq_20150316_200956e.jpg'
p2510
sg4
(lp2511
(g32
g6
(g18
S'`"M?'
p2512
tp2513
Rp2514
tp2515
a(g56
g6
(g18
S'\x1b"\x0b>'
p2516
tp2517
Rp2518
tp2519
a(g15
g6
(g18
S'\x93\xe4<='
p2520
tp2521
Rp2522
tp2523
a(g158
g6
(g18
S'\xc6\xbcc<'
p2524
tp2525
Rp2526
tp2527
a(g44
g6
(g18
S'\xe9A\xe6:'
p2528
tp2529
Rp2530
tp2531
asg73
g32
sa(dp2532
g2
S'../../../data/emanuela/activity-recognition/images/NTCIR-Lifelog-256/u1/2015-03-06/b00000865_21i6bq_20150306_142234e.jpg'
p2533
sg4
(lp2534
(g56
g6
(g18
S'\xbf,\xe6>'
p2535
tp2536
Rp2537
tp2538
a(g68
g6
(g18
S'Kc\x06>'
p2539
tp2540
Rp2541
tp2542
a(g1122
g6
(g18
S'L\xdd\x03>'
p2543
tp2544
Rp2545
tp2546
a(g316
g6
(g18
S'\x10>\xfd='
p2547
tp2548
Rp2549
tp2550
a(g216
g6
(g18
S'\xc7g#='
p2551
tp2552
Rp2553
tp2554
asg73
g32
sa(dp2555
g2
S'../../../data/emanuela/activity-recognition/images/NTCIR-Lifelog-256/u1/2015-02-23/b00000679_21i6bq_20150223_141055e.jpg'
p2556
sg4
(lp2557
(g32
g6
(g18
S'\x96\x84\x7f?'
p2558
tp2559
Rp2560
tp2561
a(g131
g6
(g18
S'K"}:'
p2562
tp2563
Rp2564
tp2565
a(g56
g6
(g18
S'\xf0s\x1d:'
p2566
tp2567
Rp2568
tp2569
a(g15
g6
(g18
S'\xbe\xc1\x1c9'
p2570
tp2571
Rp2572
tp2573
a(g96
g6
(g18
S'%l\xdb8'
p2574
tp2575
Rp2576
tp2577
asg73
g32
sa(dp2578
g2
S'../../../data/emanuela/activity-recognition/images/NTCIR-Lifelog-256/u1/2015-03-11/b00001255_21i6bq_20150311_210825e.jpg'
p2579
sg4
(lp2580
(g32
g6
(g18
S':E4?'
p2581
tp2582
Rp2583
tp2584
a(g56
g6
(g18
S'\x04\x1bq>'
p2585
tp2586
Rp2587
tp2588
a(g15
g6
(g18
S'\xaa]=='
p2589
tp2590
Rp2591
tp2592
a(g44
g6
(g18
S'\x8d\xb4\x04<'
p2593
tp2594
Rp2595
tp2596
a(g96
g6
(g18
S'\xddC\x1d;'
p2597
tp2598
Rp2599
tp2600
asg73
g32
sa(dp2601
g2
S'../../../data/emanuela/activity-recognition/images/NTCIR-Lifelog-256/u1/2015-02-25/b00001032_21i6bq_20150225_164528e.jpg'
p2602
sg4
(lp2603
(g96
g6
(g18
S'8S\x15?'
p2604
tp2605
Rp2606
tp2607
a(g44
g6
(g18
S'\xc0\xaa8>'
p2608
tp2609
Rp2610
tp2611
a(g32
g6
(g18
S'\x1a\xa8\x98='
p2612
tp2613
Rp2614
tp2615
a(g15
g6
(g18
S'v\xf8$='
p2616
tp2617
Rp2618
tp2619
a(g158
g6
(g18
S'\x16\xc9\x00='
p2620
tp2621
Rp2622
tp2623
asg73
g32
sa(dp2624
g2
S'../../../data/emanuela/activity-recognition/images/NTCIR-Lifelog-256/u1/2015-03-02/b00000560_21i6bq_20150302_125500e.jpg'
p2625
sg4
(lp2626
(g32
g6
(g18
S'\x89vx?'
p2627
tp2628
Rp2629
tp2630
a(g56
g6
(g18
S'\t\x1e\xe9<'
p2631
tp2632
Rp2633
tp2634
a(g15
g6
(g18
S'\xdbK\xa89'
p2635
tp2636
Rp2637
tp2638
a(g158
g6
(g18
S'T\x97\x9f9'
p2639
tp2640
Rp2641
tp2642
a(g44
g6
(g18
S'\x1c\xebw9'
p2643
tp2644
Rp2645
tp2646
asg73
g32
sa(dp2647
g2
S'../../../data/emanuela/activity-recognition/images/NTCIR-Lifelog-256/u1/2015-02-27/b00000625_21i6bq_20150227_135140e.jpg'
p2648
sg4
(lp2649
(g32
g6
(g18
S'>\xe4o?'
p2650
tp2651
Rp2652
tp2653
a(g56
g6
(g18
S'5@T='
p2654
tp2655
Rp2656
tp2657
a(g15
g6
(g18
S'\x9bf\xfc;'
p2658
tp2659
Rp2660
tp2661
a(g44
g6
(g18
S'\x0b\xd2\t;'
p2662
tp2663
Rp2664
tp2665
a(g158
g6
(g18
S'\xad\x04F:'
p2666
tp2667
Rp2668
tp2669
asg73
g32
sa(dp2670
g2
S'../../../data/emanuela/activity-recognition/images/NTCIR-Lifelog-256/u1/2015-02-23/b00000690_21i6bq_20150223_141736e.jpg'
p2671
sg4
(lp2672
(g32
g6
(g18
S'\xca*=?'
p2673
tp2674
Rp2675
tp2676
a(g56
g6
(g18
S'\xc0\xe5=>'
p2677
tp2678
Rp2679
tp2680
a(g15
g6
(g18
S'\x81\x06\xed<'
p2681
tp2682
Rp2683
tp2684
a(g131
g6
(g18
S'\xcci\xc4<'
p2685
tp2686
Rp2687
tp2688
a(g96
g6
(g18
S'\xde5\xd8;'
p2689
tp2690
Rp2691
tp2692
asg73
g32
sa(dp2693
g2
S'../../../data/emanuela/activity-recognition/images/NTCIR-Lifelog-256/u1/2015-03-16/b00002909_21i6bq_20150316_200915e.jpg'
p2694
sg4
(lp2695
(g32
g6
(g18
S'\xa6\xaf$?'
p2696
tp2697
Rp2698
tp2699
a(g56
g6
(g18
S'(\xc5\x8f>'
p2700
tp2701
Rp2702
tp2703
a(g158
g6
(g18
S'2\xf8F='
p2704
tp2705
Rp2706
tp2707
a(g15
g6
(g18
S'\x7f\x1cQ<'
p2708
tp2709
Rp2710
tp2711
a(g44
g6
(g18
S'\xd5\x82\x9d;'
p2712
tp2713
Rp2714
tp2715
asg73
g32
sa(dp2716
g2
S'../../../data/emanuela/activity-recognition/images/NTCIR-Lifelog-256/u1/2015-03-04/b00000962_21i6bq_20150304_165750e.jpg'
p2717
sg4
(lp2718
(g56
g6
(g18
S'Df`?'
p2719
tp2720
Rp2721
tp2722
a(g15
g6
(g18
S'\xbf\xa9\x12='
p2723
tp2724
Rp2725
tp2726
a(g32
g6
(g18
S'\xdfH\xf6<'
p2727
tp2728
Rp2729
tp2730
a(g68
g6
(g18
S'C \x81<'
p2731
tp2732
Rp2733
tp2734
a(g316
g6
(g18
S'bK\x06<'
p2735
tp2736
Rp2737
tp2738
asg73
g32
sa(dp2739
g2
S'../../../data/emanuela/activity-recognition/images/NTCIR-Lifelog-256/u1/2015-02-26/b00000784_21i6bq_20150226_143636e.jpg'
p2740
sg4
(lp2741
(g96
g6
(g18
S'r\xc1\x10?'
p2742
tp2743
Rp2744
tp2745
a(g32
g6
(g18
S'^\xd2$>'
p2746
tp2747
Rp2748
tp2749
a(g15
g6
(g18
S'9\xc7\xaf='
p2750
tp2751
Rp2752
tp2753
a(g158
g6
(g18
S'\x00\t\xab='
p2754
tp2755
Rp2756
tp2757
a(g216
g6
(g18
S'\xf9\x9c\xec<'
p2758
tp2759
Rp2760
tp2761
asg73
g32
sa(dp2762
g2
S'../../../data/emanuela/activity-recognition/images/NTCIR-Lifelog-256/u1/2015-02-26/b00000754_21i6bq_20150226_141812e.jpg'
p2763
sg4
(lp2764
(g32
g6
(g18
S'\xfcg\xe4>'
p2765
tp2766
Rp2767
tp2768
a(g56
g6
(g18
S'H\xde\xc8>'
p2769
tp2770
Rp2771
tp2772
a(g15
g6
(g18
S'S\x03\t>'
p2773
tp2774
Rp2775
tp2776
a(g158
g6
(g18
S'\xee|"<'
p2777
tp2778
Rp2779
tp2780
a(g44
g6
(g18
S'ZN\x01<'
p2781
tp2782
Rp2783
tp2784
asg73
g32
sa(dp2785
g2
S'../../../data/emanuela/activity-recognition/images/NTCIR-Lifelog-256/u1/2015-03-06/b00000868_21i6bq_20150306_142421e.jpg'
p2786
sg4
(lp2787
(g1134
g6
(g18
S'\xfb\xca\xe1>'
p2788
tp2789
Rp2790
tp2791
a(g216
g6
(g18
S'R\xb8\xc5>'
p2792
tp2793
Rp2794
tp2795
a(g96
g6
(g18
S'\xe6b\x87='
p2796
tp2797
Rp2798
tp2799
a(g316
g6
(g18
S'\x8e\x05\x01='
p2800
tp2801
Rp2802
tp2803
a(g44
g6
(g18
S'\x0f\xae\xa2<'
p2804
tp2805
Rp2806
tp2807
asg73
g32
sa(dp2808
g2
S'../../../data/emanuela/activity-recognition/images/NTCIR-Lifelog-256/u1/2015-02-26/b00000782_21i6bq_20150226_143527e.jpg'
p2809
sg4
(lp2810
(g32
g6
(g18
S'\x8b\xbd;?'
p2811
tp2812
Rp2813
tp2814
a(g56
g6
(g18
S'\xdc\xb2s>'
p2815
tp2816
Rp2817
tp2818
a(g15
g6
(g18
S'f\x0b}<'
p2819
tp2820
Rp2821
tp2822
a(g158
g6
(g18
S'\x9b\x8f\xcd;'
p2823
tp2824
Rp2825
tp2826
a(g96
g6
(g18
S' \ta;'
p2827
tp2828
Rp2829
tp2830
asg73
g32
sa(dp2831
g2
S'../../../data/emanuela/activity-recognition/images/NTCIR-Lifelog-256/u1/2015-02-27/b00000641_21i6bq_20150227_140308e.jpg'
p2832
sg4
(lp2833
(g32
g6
(g18
S'\xc9\xd2C?'
p2834
tp2835
Rp2836
tp2837
a(g15
g6
(g18
S'\x11S,>'
p2838
tp2839
Rp2840
tp2841
a(g56
g6
(g18
S'\x8e\xe4@='
p2842
tp2843
Rp2844
tp2845
a(g96
g6
(g18
S'zF\xf7;'
p2846
tp2847
Rp2848
tp2849
a(g44
g6
(g18
S'\xf2#\x89;'
p2850
tp2851
Rp2852
tp2853
asg73
g32
sa(dp2854
g2
S'../../../data/emanuela/activity-recognition/images/NTCIR-Lifelog-256/u1/2015-02-24/b00000469_21i6bq_20150224_112716e.jpg'
p2855
sg4
(lp2856
(g32
g6
(g18
S'\x9aJ"?'
p2857
tp2858
Rp2859
tp2860
a(g56
g6
(g18
S'pHq>'
p2861
tp2862
Rp2863
tp2864
a(g15
g6
(g18
S'\x8a\xe6\xf7='
p2865
tp2866
Rp2867
tp2868
a(g158
g6
(g18
S'\xbd\\\xce;'
p2869
tp2870
Rp2871
tp2872
a(g44
g6
(g18
S';\xc5,;'
p2873
tp2874
Rp2875
tp2876
asg73
g32
sa(dp2877
g2
S'../../../data/emanuela/activity-recognition/images/NTCIR-Lifelog-256/u1/2015-03-02/b00000558_21i6bq_20150302_125344e.jpg'
p2878
sg4
(lp2879
(g32
g6
(g18
S'\xcdaG?'
p2880
tp2881
Rp2882
tp2883
a(g56
g6
(g18
S'i\x1f/>'
p2884
tp2885
Rp2886
tp2887
a(g15
g6
(g18
S'C\xd5,='
p2888
tp2889
Rp2890
tp2891
a(g158
g6
(g18
S'?t\xb3;'
p2892
tp2893
Rp2894
tp2895
a(g44
g6
(g18
S'\xcb\x97\xd3:'
p2896
tp2897
Rp2898
tp2899
asg73
g32
sa(dp2900
g2
S'../../../data/emanuela/activity-recognition/images/NTCIR-Lifelog-256/u1/2015-02-25/b00000974_21i6bq_20150225_161003e.jpg'
p2901
sg4
(lp2902
(g56
g6
(g18
S't\xba6?'
p2903
tp2904
Rp2905
tp2906
a(g32
g6
(g18
S'\xb9\xf6#>'
p2907
tp2908
Rp2909
tp2910
a(g158
g6
(g18
S'bk\xbc='
p2911
tp2912
Rp2913
tp2914
a(g216
g6
(g18
S'|b%<'
p2915
tp2916
Rp2917
tp2918
a(g1122
g6
(g18
S'5\xb2\x0f<'
p2919
tp2920
Rp2921
tp2922
asg73
g32
sa(dp2923
g2
S'../../../data/emanuela/activity-recognition/images/NTCIR-Lifelog-256/u1/2015-02-27/b00000620_21i6bq_20150227_134823e.jpg'
p2924
sg4
(lp2925
(g32
g6
(g18
S'\xf4D\x0f?'
p2926
tp2927
Rp2928
tp2929
a(g15
g6
(g18
S'Hr\x85>'
p2930
tp2931
Rp2932
tp2933
a(g56
g6
(g18
S'\xa7\xff3>'
p2934
tp2935
Rp2936
tp2937
a(g44
g6
(g18
S'\xb24\xfb:'
p2938
tp2939
Rp2940
tp2941
a(g96
g6
(g18
S'\xb1\xb8\x13:'
p2942
tp2943
Rp2944
tp2945
asg73
g32
sa(dp2946
g2
S'../../../data/emanuela/activity-recognition/images/NTCIR-Lifelog-256/u1/2015-02-25/b00000979_21i6bq_20150225_161301e.jpg'
p2947
sg4
(lp2948
(g32
g6
(g18
S'\t\xcb]?'
p2949
tp2950
Rp2951
tp2952
a(g56
g6
(g18
S'\xa0\x80\x05>'
p2953
tp2954
Rp2955
tp2956
a(g158
g6
(g18
S'\x8a\x91\t;'
p2957
tp2958
Rp2959
tp2960
a(g68
g6
(g18
S'v\xbf\x899'
p2961
tp2962
Rp2963
tp2964
a(g15
g6
(g18
S'\xa5\x8a~9'
p2965
tp2966
Rp2967
tp2968
asg73
g32
sa(dp2969
g2
S'../../../data/emanuela/activity-recognition/images/NTCIR-Lifelog-256/u1/2015-02-25/b00001007_21i6bq_20150225_163009e.jpg'
p2970
sg4
(lp2971
(g32
g6
(g18
S'\x89od?'
p2972
tp2973
Rp2974
tp2975
a(g56
g6
(g18
S'~t:='
p2976
tp2977
Rp2978
tp2979
a(g15
g6
(g18
S'{\x02\xd2<'
p2980
tp2981
Rp2982
tp2983
a(g158
g6
(g18
S'v\xddS<'
p2984
tp2985
Rp2986
tp2987
a(g131
g6
(g18
S'::P<'
p2988
tp2989
Rp2990
tp2991
asg73
g32
sa(dp2992
g2
S'../../../data/emanuela/activity-recognition/images/NTCIR-Lifelog-256/u1/2015-03-04/b00001017_21i6bq_20150304_173254e.jpg'
p2993
sg4
(lp2994
(g32
g6
(g18
S'\xb8y[?'
p2995
tp2996
Rp2997
tp2998
a(g56
g6
(g18
S'\xbb\xb3\x05>'
p2999
tp3000
Rp3001
tp3002
a(g158
g6
(g18
S'\x1cw\xac;'
p3003
tp3004
Rp3005
tp3006
a(g96
g6
(g18
S'_$\x8e;'
p3007
tp3008
Rp3009
tp3010
a(g15
g6
(g18
S'\xb9.<:'
p3011
tp3012
Rp3013
tp3014
asg73
g32
sa(dp3015
g2
S'../../../data/emanuela/activity-recognition/images/NTCIR-Lifelog-256/u1/2015-02-24/b00000485_21i6bq_20150224_113712e.jpg'
p3016
sg4
(lp3017
(g56
g6
(g18
S'\xcc@K?'
p3018
tp3019
Rp3020
tp3021
a(g32
g6
(g18
S'0\rK>'
p3022
tp3023
Rp3024
tp3025
a(g15
g6
(g18
S'\xb8-\xb3;'
p3026
tp3027
Rp3028
tp3029
a(g158
g6
(g18
S'` \x7f:'
p3030
tp3031
Rp3032
tp3033
a(g44
g6
(g18
S'l\x97\x12:'
p3034
tp3035
Rp3036
tp3037
asg73
g32
sa(dp3038
g2
S'../../../data/emanuela/activity-recognition/images/NTCIR-Lifelog-256/u1/2015-02-25/b00000999_21i6bq_20150225_162515e.jpg'
p3039
sg4
(lp3040
(g32
g6
(g18
S'\xcf\x8fk?'
p3041
tp3042
Rp3043
tp3044
a(g56
g6
(g18
S'\xd9\xc1U='
p3045
tp3046
Rp3047
tp3048
a(g131
g6
(g18
S"']:<"
p3049
tp3050
Rp3051
tp3052
a(g15
g6
(g18
S'\xc7~+<'
p3053
tp3054
Rp3055
tp3056
a(g96
g6
(g18
S'~;@;'
p3057
tp3058
Rp3059
tp3060
asg73
g32
sa(dp3061
g2
S'../../../data/emanuela/activity-recognition/images/NTCIR-Lifelog-256/u1/2015-02-23/b00000685_21i6bq_20150223_141427e.jpg'
p3062
sg4
(lp3063
(g32
g6
(g18
S')|:?'
p3064
tp3065
Rp3066
tp3067
a(g131
g6
(g18
S'+\x9bo>'
p3068
tp3069
Rp3070
tp3071
a(g15
g6
(g18
S'\xfa=\x89<'
p3072
tp3073
Rp3074
tp3075
a(g96
g6
(g18
S'T\x07\x88<'
p3076
tp3077
Rp3078
tp3079
a(g44
g6
(g18
S'\x9c\xf5V;'
p3080
tp3081
Rp3082
tp3083
asg73
g32
sa(dp3084
g2
S'../../../data/emanuela/activity-recognition/images/NTCIR-Lifelog-256/u1/2015-02-23/b00000663_21i6bq_20150223_140102e.jpg'
p3085
sg4
(lp3086
(g32
g6
(g18
S'G\xda~?'
p3087
tp3088
Rp3089
tp3090
a(g56
g6
(g18
S';\x8f\x8d;'
p3091
tp3092
Rp3093
tp3094
a(g15
g6
(g18
S'\xdbv\x9d8'
p3095
tp3096
Rp3097
tp3098
a(g131
g6
(g18
S'u9\xe17'
p3099
tp3100
Rp3101
tp3102
a(g44
g6
(g18
S'\xf4\x19\xb97'
p3103
tp3104
Rp3105
tp3106
asg73
g32
sa(dp3107
g2
S'../../../data/emanuela/activity-recognition/images/NTCIR-Lifelog-256/u1/2015-02-25/b00000996_21i6bq_20150225_162323e.jpg'
p3108
sg4
(lp3109
(g32
g6
(g18
S'\xc4\x06R?'
p3110
tp3111
Rp3112
tp3113
a(g56
g6
(g18
S'Q\xbd\r>'
p3114
tp3115
Rp3116
tp3117
a(g158
g6
(g18
S'G\xda\xba<'
p3118
tp3119
Rp3120
tp3121
a(g96
g6
(g18
S'\x961\xaa;'
p3122
tp3123
Rp3124
tp3125
a(g15
g6
(g18
S'\xa7\x8d\x82;'
p3126
tp3127
Rp3128
tp3129
asg73
g32
sa(dp3130
g2
S'../../../data/emanuela/activity-recognition/images/NTCIR-Lifelog-256/u1/2015-02-24/b00000915_21i6bq_20150224_160018e.jpg'
p3131
sg4
(lp3132
(g32
g6
(g18
S'O\xa3\x04?'
p3133
tp3134
Rp3135
tp3136
a(g56
g6
(g18
S'h-\xf4>'
p3137
tp3138
Rp3139
tp3140
a(g15
g6
(g18
S'\x884\x94;'
p3141
tp3142
Rp3143
tp3144
a(g44
g6
(g18
S'\xd8\x86\x059'
p3145
tp3146
Rp3147
tp3148
a(g158
g6
(g18
S'\xc7\xa5\xaa8'
p3149
tp3150
Rp3151
tp3152
asg73
g32
sa(dp3153
g2
S'../../../data/emanuela/activity-recognition/images/NTCIR-Lifelog-256/u1/2015-02-24/b00000486_21i6bq_20150224_113744e.jpg'
p3154
sg4
(lp3155
(g32
g6
(g18
S'\xb0\xb9\x1e?'
p3156
tp3157
Rp3158
tp3159
a(g56
g6
(g18
S'KI\xc0>'
p3160
tp3161
Rp3162
tp3163
a(g15
g6
(g18
S'\x0bsH;'
p3164
tp3165
Rp3166
tp3167
a(g44
g6
(g18
S'\x94\xbc;:'
p3168
tp3169
Rp3170
tp3171
a(g158
g6
(g18
S'\xd7\x7f\x00:'
p3172
tp3173
Rp3174
tp3175
asg73
g32
sa(dp3176
g2
S'../../../data/emanuela/activity-recognition/images/NTCIR-Lifelog-256/u1/2015-03-02/b00000566_21i6bq_20150302_125911e.jpg'
p3177
sg4
(lp3178
(g32
g6
(g18
S'\x08&p?'
p3179
tp3180
Rp3181
tp3182
a(g56
g6
(g18
S'i(a='
p3183
tp3184
Rp3185
tp3186
a(g15
g6
(g18
S'\xf7[\xca;'
p3187
tp3188
Rp3189
tp3190
a(g44
g6
(g18
S'^\xe1\x9a9'
p3191
tp3192
Rp3193
tp3194
a(g158
g6
(g18
S'*\xfc|9'
p3195
tp3196
Rp3197
tp3198
asg73
g32
sa(dp3199
g2
S'../../../data/emanuela/activity-recognition/images/NTCIR-Lifelog-256/u1/2015-02-25/b00000981_21i6bq_20150225_161419e.jpg'
p3200
sg4
(lp3201
(g32
g6
(g18
S'V\x17p?'
p3202
tp3203
Rp3204
tp3205
a(g56
g6
(g18
S'm\xc0n='
p3206
tp3207
Rp3208
tp3209
a(g158
g6
(g18
S'vT4;'
p3210
tp3211
Rp3212
tp3213
a(g15
g6
(g18
S'd\xba":'
p3214
tp3215
Rp3216
tp3217
a(g96
g6
(g18
S'\xe6\xbc\xea8'
p3218
tp3219
Rp3220
tp3221
asg73
g32
sa(dp3222
g2
S'../../../data/emanuela/activity-recognition/images/NTCIR-Lifelog-256/u1/2015-03-11/b00001277_21i6bq_20150311_212928e.jpg'
p3223
sg4
(lp3224
(g56
g6
(g18
S'\xc9n\xb1>'
p3225
tp3226
Rp3227
tp3228
a(g131
g6
(g18
S'F\x1ev>'
p3229
tp3230
Rp3231
tp3232
a(g32
g6
(g18
S'L\xb6_>'
p3233
tp3234
Rp3235
tp3236
a(g316
g6
(g18
S'\xad>@='
p3237
tp3238
Rp3239
tp3240
a(g96
g6
(g18
S'\x7f\xb8\xf1<'
p3241
tp3242
Rp3243
tp3244
asg73
g32
sa(dp3245
g2
S'../../../data/emanuela/activity-recognition/images/NTCIR-Lifelog-256/u1/2015-02-24/b00000932_21i6bq_20150224_161051e.jpg'
p3246
sg4
(lp3247
(g56
g6
(g18
S'W\xd5\x12?'
p3248
tp3249
Rp3250
tp3251
a(g32
g6
(g18
S'\xbas\xcf>'
p3252
tp3253
Rp3254
tp3255
a(g15
g6
(g18
S'\xd3\x0c\x95<'
p3256
tp3257
Rp3258
tp3259
a(g216
g6
(g18
S'|u\xe19'
p3260
tp3261
Rp3262
tp3263
a(g44
g6
(g18
S'\x81s\xe19'
p3264
tp3265
Rp3266
tp3267
asg73
g32
sa(dp3268
g2
S'../../../data/emanuela/activity-recognition/images/NTCIR-Lifelog-256/u1/2015-03-11/b00001314_21i6bq_20150311_215630e.jpg'
p3269
sg4
(lp3270
(g15
g6
(g18
S'\x0c\xb3+?'
p3271
tp3272
Rp3273
tp3274
a(g44
g6
(g18
S'&x7>'
p3275
tp3276
Rp3277
tp3278
a(g32
g6
(g18
S'6\x86s='
p3279
tp3280
Rp3281
tp3282
a(g56
g6
(g18
S'\xa5\xdbf='
p3283
tp3284
Rp3285
tp3286
a(g96
g6
(g18
S'\xc7\xd3^<'
p3287
tp3288
Rp3289
tp3290
asg73
g32
sa(dp3291
g2
S'../../../data/emanuela/activity-recognition/images/NTCIR-Lifelog-256/u1/2015-03-02/b00000567_21i6bq_20150302_125946e.jpg'
p3292
sg4
(lp3293
(g32
g6
(g18
S'\xfaEt?'
p3294
tp3295
Rp3296
tp3297
a(g56
g6
(g18
S'M[\xb0<'
p3298
tp3299
Rp3300
tp3301
a(g15
g6
(g18
S'\xab\xe0\x9a<'
p3302
tp3303
Rp3304
tp3305
a(g158
g6
(g18
S'\x9c\xa6\x18;'
p3306
tp3307
Rp3308
tp3309
a(g44
g6
(g18
S'b\x86\x18;'
p3310
tp3311
Rp3312
tp3313
asg73
g32
sa(dp3314
g2
S'../../../data/emanuela/activity-recognition/images/NTCIR-Lifelog-256/u1/2015-03-04/b00000996_21i6bq_20150304_171901e.jpg'
p3315
sg4
(lp3316
(g32
g6
(g18
S'\xb4\xc6K?'
p3317
tp3318
Rp3319
tp3320
a(g56
g6
(g18
S'\xbb\x07D>'
p3321
tp3322
Rp3323
tp3324
a(g158
g6
(g18
S'\x81\xd2\xf4;'
p3325
tp3326
Rp3327
tp3328
a(g15
g6
(g18
S'\x8a\xb9\xe5:'
p3329
tp3330
Rp3331
tp3332
a(g96
g6
(g18
S'H\x1f\x97:'
p3333
tp3334
Rp3335
tp3336
asg73
g32
sa(dp3337
g2
S'../../../data/emanuela/activity-recognition/images/NTCIR-Lifelog-256/u1/2015-03-01/b00000491_21i6bq_20150301_114346e.jpg'
p3338
sg4
(lp3339
(g32
g6
(g18
S'\xf9\xcb5?'
p3340
tp3341
Rp3342
tp3343
a(g56
g6
(g18
S'\xf0\\\x92>'
p3344
tp3345
Rp3346
tp3347
a(g15
g6
(g18
S'\xd5(\x05;'
p3348
tp3349
Rp3350
tp3351
a(g68
g6
(g18
S'\x11\x07X:'
p3352
tp3353
Rp3354
tp3355
a(g44
g6
(g18
S'&C\x1c:'
p3356
tp3357
Rp3358
tp3359
asg73
g32
sa(dp3360
g2
S'../../../data/emanuela/activity-recognition/images/NTCIR-Lifelog-256/u1/2015-02-25/b00000982_21i6bq_20150225_161451e.jpg'
p3361
sg4
(lp3362
(g32
g6
(g18
S'\xffGt?'
p3363
tp3364
Rp3365
tp3366
a(g56
g6
(g18
S'\x7f\xaf\x10='
p3367
tp3368
Rp3369
tp3370
a(g158
g6
(g18
S'\x19\x83\x81;'
p3371
tp3372
Rp3373
tp3374
a(g15
g6
(g18
S'u\x17#;'
p3375
tp3376
Rp3377
tp3378
a(g96
g6
(g18
S'\xc0s\xfb:'
p3379
tp3380
Rp3381
tp3382
asg73
g32
sa(dp3383
g2
S'../../../data/emanuela/activity-recognition/images/NTCIR-Lifelog-256/u1/2015-02-26/b00000749_21i6bq_20150226_141722e.jpg'
p3384
sg4
(lp3385
(g32
g6
(g18
S'O\x8cb?'
p3386
tp3387
Rp3388
tp3389
a(g56
g6
(g18
S'\x1dL\xd7='
p3390
tp3391
Rp3392
tp3393
a(g15
g6
(g18
S'\xa2a\xb4;'
p3394
tp3395
Rp3396
tp3397
a(g158
g6
(g18
S'\xa7\xf5u;'
p3398
tp3399
Rp3400
tp3401
a(g44
g6
(g18
S'\xa7X\xac9'
p3402
tp3403
Rp3404
tp3405
asg73
g32
sa(dp3406
g2
S'../../../data/emanuela/activity-recognition/images/NTCIR-Lifelog-256/u1/2015-02-25/b00001026_21i6bq_20150225_164151e.jpg'
p3407
sg4
(lp3408
(g32
g6
(g18
S'\xe5Od?'
p3409
tp3410
Rp3411
tp3412
a(g15
g6
(g18
S'\xbfGC='
p3413
tp3414
Rp3415
tp3416
a(g56
g6
(g18
S'X\x10\x10='
p3417
tp3418
Rp3419
tp3420
a(g158
g6
(g18
S'\xd3\xfc0<'
p3421
tp3422
Rp3423
tp3424
a(g96
g6
(g18
S'D\xce\xca;'
p3425
tp3426
Rp3427
tp3428
asg73
g32
sa(dp3429
g2
S'../../../data/emanuela/activity-recognition/images/NTCIR-Lifelog-256/u1/2015-02-27/b00000643_21i6bq_20150227_140417e.jpg'
p3430
sg4
(lp3431
(g32
g6
(g18
S'\xbf\x94x?'
p3432
tp3433
Rp3434
tp3435
a(g15
g6
(g18
S'\xc8%c<'
p3436
tp3437
Rp3438
tp3439
a(g56
g6
(g18
S'\x96\xb6_<'
p3440
tp3441
Rp3442
tp3443
a(g44
g6
(g18
S'\r\x01!:'
p3444
tp3445
Rp3446
tp3447
a(g96
g6
(g18
S'\xe91\x0e:'
p3448
tp3449
Rp3450
tp3451
asg73
g32
sa(dp3452
g2
S'../../../data/emanuela/activity-recognition/images/NTCIR-Lifelog-256/u1/2015-02-27/b00000633_21i6bq_20150227_135748e.jpg'
p3453
sg4
(lp3454
(g32
g6
(g18
S'\x9bpv?'
p3455
tp3456
Rp3457
tp3458
a(g56
g6
(g18
S'\xc9\x84\xb8<'
p3459
tp3460
Rp3461
tp3462
a(g15
g6
(g18
S'\xb1{\xfc;'
p3463
tp3464
Rp3465
tp3466
a(g158
g6
(g18
S'2\xa9\x81;'
p3467
tp3468
Rp3469
tp3470
a(g44
g6
(g18
S'\xc6\xa7\x02;'
p3471
tp3472
Rp3473
tp3474
asg73
g32
sa(dp3475
g2
S'../../../data/emanuela/activity-recognition/images/NTCIR-Lifelog-256/u1/2015-02-25/b00000970_21i6bq_20150225_160730e.jpg'
p3476
sg4
(lp3477
(g158
g6
(g18
S'\xd4\xc5\xac>'
p3478
tp3479
Rp3480
tp3481
a(g96
g6
(g18
S'\x86?X>'
p3482
tp3483
Rp3484
tp3485
a(g44
g6
(g18
S'\xdd\xe7\xbe='
p3486
tp3487
Rp3488
tp3489
a(g216
g6
(g18
S'\x0e\xdf\xb3='
p3490
tp3491
Rp3492
tp3493
a(g15
g6
(g18
S'\x96K\xb1='
p3494
tp3495
Rp3496
tp3497
asg73
g32
sa(dp3498
g2
S'../../../data/emanuela/activity-recognition/images/NTCIR-Lifelog-256/u1/2015-02-25/b00001010_21i6bq_20150225_163204e.jpg'
p3499
sg4
(lp3500
(g32
g6
(g18
S'\xbd\x86~?'
p3501
tp3502
Rp3503
tp3504
a(g56
g6
(g18
S'[\x06\xa3;'
p3505
tp3506
Rp3507
tp3508
a(g158
g6
(g18
S'\x02\x10\xc09'
p3509
tp3510
Rp3511
tp3512
a(g15
g6
(g18
S'\xb9\xa7\x0c9'
p3513
tp3514
Rp3515
tp3516
a(g96
g6
(g18
S'\x90G\x0c9'
p3517
tp3518
Rp3519
tp3520
asg73
g32
sa(dp3521
g2
S'../../../data/emanuela/activity-recognition/images/NTCIR-Lifelog-256/u1/2015-02-25/b00001004_21i6bq_20150225_162816e.jpg'
p3522
sg4
(lp3523
(g32
g6
(g18
S'\x03"d?'
p3524
tp3525
Rp3526
tp3527
a(g56
g6
(g18
S'y\\\x06='
p3528
tp3529
Rp3530
tp3531
a(g131
g6
(g18
S'\x04\x7f\xe2<'
p3532
tp3533
Rp3534
tp3535
a(g96
g6
(g18
S'\x8a,\x9c<'
p3536
tp3537
Rp3538
tp3539
a(g158
g6
(g18
S'\xdb\xe7s<'
p3540
tp3541
Rp3542
tp3543
asg73
g32
sa(dp3544
g2
S'../../../data/emanuela/activity-recognition/images/NTCIR-Lifelog-256/u1/2015-02-23/b00000658_21i6bq_20150223_135753e.jpg'
p3545
sg4
(lp3546
(g32
g6
(g18
S'\xd3\x93~?'
p3547
tp3548
Rp3549
tp3550
a(g56
g6
(g18
S'\xb9B\xaa;'
p3551
tp3552
Rp3553
tp3554
a(g96
g6
(g18
S'\xaa\xa9\x109'
p3555
tp3556
Rp3557
tp3558
a(g131
g6
(g18
S'1\xbb\x0f9'
p3559
tp3560
Rp3561
tp3562
a(g15
g6
(g18
S'&\x93\xd67'
p3563
tp3564
Rp3565
tp3566
asg73
g32
sa(dp3567
g2
S'../../../data/emanuela/activity-recognition/images/NTCIR-Lifelog-256/u1/2015-03-04/b00000948_21i6bq_20150304_164834e.jpg'
p3568
sg4
(lp3569
(g32
g6
(g18
S"y'N?"
p3570
tp3571
Rp3572
tp3573
a(g56
g6
(g18
S'\xa5\x0b\r>'
p3574
tp3575
Rp3576
tp3577
a(g158
g6
(g18
S'\xee\xed*='
p3578
tp3579
Rp3580
tp3581
a(g68
g6
(g18
S'^E\xdc;'
p3582
tp3583
Rp3584
tp3585
a(g15
g6
(g18
S'N_s;'
p3586
tp3587
Rp3588
tp3589
asg73
g32
sa(dp3590
g2
S'../../../data/emanuela/activity-recognition/images/NTCIR-Lifelog-256/u1/2015-02-25/b00000978_21i6bq_20150225_161227e.jpg'
p3591
sg4
(lp3592
(g32
g6
(g18
S'\x8a\xab\xfd>'
p3593
tp3594
Rp3595
tp3596
a(g56
g6
(g18
S'\x80`\xfb>'
p3597
tp3598
Rp3599
tp3600
a(g158
g6
(g18
S'\x14\xe3,<'
p3601
tp3602
Rp3603
tp3604
a(g68
g6
(g18
S'\xb5,\x87:'
p3605
tp3606
Rp3607
tp3608
a(g443
g6
(g18
S'\xfc\xff\x16:'
p3609
tp3610
Rp3611
tp3612
asg73
g32
sa(dp3613
g2
S'../../../data/emanuela/activity-recognition/images/NTCIR-Lifelog-256/u1/2015-03-02/b00000554_21i6bq_20150302_125104e.jpg'
p3614
sg4
(lp3615
(g32
g6
(g18
S'U\xb7C?'
p3616
tp3617
Rp3618
tp3619
a(g56
g6
(g18
S'\xe6\x1eo>'
p3620
tp3621
Rp3622
tp3623
a(g44
g6
(g18
S'\xce"\xe49'
p3624
tp3625
Rp3626
tp3627
a(g68
g6
(g18
S"\xc2'\xda9"
p3628
tp3629
Rp3630
tp3631
a(g15
g6
(g18
S'z\xaa\xd99'
p3632
tp3633
Rp3634
tp3635
asg73
g32
sa(dp3636
g2
S'../../../data/emanuela/activity-recognition/images/NTCIR-Lifelog-256/u1/2015-03-04/b00000964_21i6bq_20150304_165901e.jpg'
p3637
sg4
(lp3638
(g56
g6
(g18
S'\xbc\x05 ?'
p3639
tp3640
Rp3641
tp3642
a(g32
g6
(g18
S'\x87r\xb5>'
p3643
tp3644
Rp3645
tp3646
a(g15
g6
(g18
S'\xce\x00\xfc;'
p3647
tp3648
Rp3649
tp3650
a(g44
g6
(g18
S'\x9f\x81\x91;'
p3651
tp3652
Rp3653
tp3654
a(g96
g6
(g18
S'\x08\n\r;'
p3655
tp3656
Rp3657
tp3658
asg73
g32
sa(dp3659
g2
S'../../../data/emanuela/activity-recognition/images/NTCIR-Lifelog-256/u1/2015-03-11/b00001290_21i6bq_20150311_214033e.jpg'
p3660
sg4
(lp3661
(g15
g6
(g18
S'\x8cs\x0c?'
p3662
tp3663
Rp3664
tp3665
a(g216
g6
(g18
S'h\x88G>'
p3666
tp3667
Rp3668
tp3669
a(g44
g6
(g18
S'4\x1c\x95='
p3670
tp3671
Rp3672
tp3673
a(g56
g6
(g18
S'\\\x89P='
p3674
tp3675
Rp3676
tp3677
a(g96
g6
(g18
S'\xf5\xf2\xd0<'
p3678
tp3679
Rp3680
tp3681
asg73
g32
sa(dp3682
g2
S'../../../data/emanuela/activity-recognition/images/NTCIR-Lifelog-256/u1/2015-02-27/b00000637_21i6bq_20150227_140015e.jpg'
p3683
sg4
(lp3684
(g32
g6
(g18
S'O\xa4y?'
p3685
tp3686
Rp3687
tp3688
a(g56
g6
(g18
S'\xa2Zy<'
p3689
tp3690
Rp3691
tp3692
a(g15
g6
(g18
S'\xf7\x89\xb7;'
p3693
tp3694
Rp3695
tp3696
a(g44
g6
(g18
S'\xd7\xa9[;'
p3697
tp3698
Rp3699
tp3700
a(g158
g6
(g18
S'\xbd\x88\xc09'
p3701
tp3702
Rp3703
tp3704
asg73
g32
sa(dp3705
g2
S'../../../data/emanuela/activity-recognition/images/NTCIR-Lifelog-256/u1/2015-02-24/b00000921_21i6bq_20150224_160408e.jpg'
p3706
sg4
(lp3707
(g32
g6
(g18
S'\xb5o\xc3>'
p3708
tp3709
Rp3710
tp3711
a(g44
g6
(g18
S'\xd5\x16`>'
p3712
tp3713
Rp3714
tp3715
a(g15
g6
(g18
S'\x97\xca\x06>'
p3716
tp3717
Rp3718
tp3719
a(g158
g6
(g18
S'\xca\xef\xba='
p3720
tp3721
Rp3722
tp3723
a(g96
g6
(g18
S'h|\x93='
p3724
tp3725
Rp3726
tp3727
asg73
g32
sa(dp3728
g2
S'../../../data/emanuela/activity-recognition/images/NTCIR-Lifelog-256/u1/2015-02-24/b00000939_21i6bq_20150224_161500e.jpg'
p3729
sg4
(lp3730
(g32
g6
(g18
S'\xcf\xa0Y?'
p3731
tp3732
Rp3733
tp3734
a(g56
g6
(g18
S'\xa3\x03\x12>'
p3735
tp3736
Rp3737
tp3738
a(g96
g6
(g18
S'\xcaw];'
p3739
tp3740
Rp3741
tp3742
a(g44
g6
(g18
S'\x9d\xad\xf9:'
p3743
tp3744
Rp3745
tp3746
a(g15
g6
(g18
S'\x8e\xe2\x13:'
p3747
tp3748
Rp3749
tp3750
asg73
g32
sa(dp3751
g2
S'../../../data/emanuela/activity-recognition/images/NTCIR-Lifelog-256/u1/2015-02-25/b00000986_21i6bq_20150225_161718e.jpg'
p3752
sg4
(lp3753
(g32
g6
(g18
S'rwW?'
p3754
tp3755
Rp3756
tp3757
a(g56
g6
(g18
S'6"\x1f>'
p3758
tp3759
Rp3760
tp3761
a(g15
g6
(g18
S'7\xa3\xc8:'
p3762
tp3763
Rp3764
tp3765
a(g158
g6
(g18
S'\x07\x0eK:'
p3766
tp3767
Rp3768
tp3769
a(g96
g6
(g18
S'|\xfd99'
p3770
tp3771
Rp3772
tp3773
asg73
g32
sa(dp3774
g2
S'../../../data/emanuela/activity-recognition/images/NTCIR-Lifelog-256/u1/2015-03-02/b00000555_21i6bq_20150302_125143e.jpg'
p3775
sg4
(lp3776
(g32
g6
(g18
S'I\xcfs?'
p3777
tp3778
Rp3779
tp3780
a(g56
g6
(g18
S'\xfb\xbb\x03='
p3781
tp3782
Rp3783
tp3784
a(g15
g6
(g18
S'\xd1\xb4\x17<'
p3785
tp3786
Rp3787
tp3788
a(g158
g6
(g18
S'\x91\x9b*;'
p3789
tp3790
Rp3791
tp3792
a(g44
g6
(g18
S'6|\x05;'
p3793
tp3794
Rp3795
tp3796
asg73
g32
sa(dp3797
g2
S'../../../data/emanuela/activity-recognition/images/NTCIR-Lifelog-256/u1/2015-03-16/b00002915_21i6bq_20150316_201301e.jpg'
p3798
sg4
(lp3799
(g15
g6
(g18
S'\x84\xb4\xc9>'
p3800
tp3801
Rp3802
tp3803
a(g32
g6
(g18
S'\xf5$\x88>'
p3804
tp3805
Rp3806
tp3807
a(g56
g6
(g18
S'\xee\xf8\xfc='
p3808
tp3809
Rp3810
tp3811
a(g158
g6
(g18
S'z\x03\xbb='
p3812
tp3813
Rp3814
tp3815
a(g44
g6
(g18
S'\xdc#\xa8='
p3816
tp3817
Rp3818
tp3819
asg73
g32
sa(dp3820
g2
S'../../../data/emanuela/activity-recognition/images/NTCIR-Lifelog-256/u1/2015-02-25/b00000954_21i6bq_20150225_155741e.jpg'
p3821
sg4
(lp3822
(g96
g6
(g18
S'q\x7f\x11?'
p3823
tp3824
Rp3825
tp3826
a(g32
g6
(g18
S'\xfay|>'
p3827
tp3828
Rp3829
tp3830
a(g131
g6
(g18
S'NN\x86='
p3831
tp3832
Rp3833
tp3834
a(g15
g6
(g18
S'\n\xde\xf4<'
p3835
tp3836
Rp3837
tp3838
a(g216
g6
(g18
S'lK\xc3<'
p3839
tp3840
Rp3841
tp3842
asg73
g32
sa(dp3843
g2
S'../../../data/emanuela/activity-recognition/images/NTCIR-Lifelog-256/u1/2015-03-16/b00002921_21i6bq_20150316_201834e.jpg'
p3844
sg4
(lp3845
(g15
g6
(g18
S'\x81\x18\x07?'
p3846
tp3847
Rp3848
tp3849
a(g44
g6
(g18
S' ?\xfd='
p3850
tp3851
Rp3852
tp3853
a(g158
g6
(g18
S'K\xbd\xa3='
p3854
tp3855
Rp3856
tp3857
a(g32
g6
(g18
S'\xf2\xa0\x9a='
p3858
tp3859
Rp3860
tp3861
a(g56
g6
(g18
S'|\x89\x91='
p3862
tp3863
Rp3864
tp3865
asg73
g32
sa(dp3866
g2
S'../../../data/emanuela/activity-recognition/images/NTCIR-Lifelog-256/u1/2015-03-15/b00000877_21i6bq_20150315_160850e.jpg'
p3867
sg4
(lp3868
(g15
g6
(g18
S'\xfa\xad1?'
p3869
tp3870
Rp3871
tp3872
a(g44
g6
(g18
S'\xd56=>'
p3873
tp3874
Rp3875
tp3876
a(g56
g6
(g18
S'\xb6\x8d\x14='
p3877
tp3878
Rp3879
tp3880
a(g1122
g6
(g18
S',\xa9\x84<'
p3881
tp3882
Rp3883
tp3884
a(g32
g6
(g18
S'\xc4\xa4{<'
p3885
tp3886
Rp3887
tp3888
asg73
g32
sa(dp3889
g2
S'../../../data/emanuela/activity-recognition/images/NTCIR-Lifelog-256/u1/2015-03-11/b00001252_21i6bq_20150311_210612e.jpg'
p3890
sg4
(lp3891
(g32
g6
(g18
S'\xbe\xa9[?'
p3892
tp3893
Rp3894
tp3895
a(g56
g6
(g18
S'\xc8E5='
p3896
tp3897
Rp3898
tp3899
a(g96
g6
(g18
S'r\xfc#='
p3900
tp3901
Rp3902
tp3903
a(g44
g6
(g18
S'\xee\xd8\xb4<'
p3904
tp3905
Rp3906
tp3907
a(g15
g6
(g18
S'\x96vg<'
p3908
tp3909
Rp3910
tp3911
asg73
g32
sa(dp3912
g2
S'../../../data/emanuela/activity-recognition/images/NTCIR-Lifelog-256/u1/2015-03-04/b00001019_21i6bq_20150304_173414e.jpg'
p3913
sg4
(lp3914
(g32
g6
(g18
S'\x93\xa0p?'
p3915
tp3916
Rp3917
tp3918
a(g56
g6
(g18
S'\xacz^='
p3919
tp3920
Rp3921
tp3922
a(g158
g6
(g18
S's_j;'
p3923
tp3924
Rp3925
tp3926
a(g15
g6
(g18
S'\xe9S\x96:'
p3927
tp3928
Rp3929
tp3930
a(g44
g6
(g18
S':\xe9\xdb9'
p3931
tp3932
Rp3933
tp3934
asg73
g32
sa(dp3935
g2
S'../../../data/emanuela/activity-recognition/images/NTCIR-Lifelog-256/u1/2015-03-11/b00001313_21i6bq_20150311_215517e.jpg'
p3936
sg4
(lp3937
(g44
g6
(g18
S'{\xa9_?'
p3938
tp3939
Rp3940
tp3941
a(g96
g6
(g18
S'\xe9\xe8P='
p3942
tp3943
Rp3944
tp3945
a(g15
g6
(g18
S'@\xa0\xf5<'
p3946
tp3947
Rp3948
tp3949
a(g32
g6
(g18
S'\x03\xaa\xd9<'
p3950
tp3951
Rp3952
tp3953
a(g316
g6
(g18
S'\xa1\x02\x99;'
p3954
tp3955
Rp3956
tp3957
asg73
g32
sa(dp3958
g2
S'../../../data/emanuela/activity-recognition/images/NTCIR-Lifelog-256/u1/2015-03-04/b00000991_21i6bq_20150304_171610e.jpg'
p3959
sg4
(lp3960
(g32
g6
(g18
S'0\x19r?'
p3961
tp3962
Rp3963
tp3964
a(g56
g6
(g18
S'\xc7^D='
p3965
tp3966
Rp3967
tp3968
a(g158
g6
(g18
S'\x92\xea\x88;'
p3969
tp3970
Rp3971
tp3972
a(g15
g6
(g18
S'1#$:'
p3973
tp3974
Rp3975
tp3976
a(g96
g6
(g18
S'\xea\x84":'
p3977
tp3978
Rp3979
tp3980
asg73
g32
sa(dp3981
g2
S'../../../data/emanuela/activity-recognition/images/NTCIR-Lifelog-256/u1/2015-02-25/b00000983_21i6bq_20150225_161531e.jpg'
p3982
sg4
(lp3983
(g32
g6
(g18
S'\xde\xc4\x14?'
p3984
tp3985
Rp3986
tp3987
a(g56
g6
(g18
S'\xb1\x9f\xd4>'
p3988
tp3989
Rp3990
tp3991
a(g158
g6
(g18
S'\xa5G8;'
p3992
tp3993
Rp3994
tp3995
a(g15
g6
(g18
S'*V39'
p3996
tp3997
Rp3998
tp3999
a(g68
g6
(g18
S'\xad\x7f\x129'
p4000
tp4001
Rp4002
tp4003
asg73
g32
sa(dp4004
g2
S'../../../data/emanuela/activity-recognition/images/NTCIR-Lifelog-256/u1/2015-03-16/b00002920_21i6bq_20150316_201756e.jpg'
p4005
sg4
(lp4006
(g15
g6
(g18
S'\xb3\x94\xfc>'
p4007
tp4008
Rp4009
tp4010
a(g158
g6
(g18
S's\xb8\x11>'
p4011
tp4012
Rp4013
tp4014
a(g32
g6
(g18
S'\xea\x17\x07>'
p4015
tp4016
Rp4017
tp4018
a(g44
g6
(g18
S'\xdc\xf9\x03>'
p4019
tp4020
Rp4021
tp4022
a(g96
g6
(g18
S'\xe2\xca!='
p4023
tp4024
Rp4025
tp4026
asg73
g32
sa(dp4027
g2
S'../../../data/emanuela/activity-recognition/images/NTCIR-Lifelog-256/u1/2015-02-25/b00000989_21i6bq_20150225_161904e.jpg'
p4028
sg4
(lp4029
(g32
g6
(g18
S'F\x88c?'
p4030
tp4031
Rp4032
tp4033
a(g56
g6
(g18
S')r\xe2='
p4034
tp4035
Rp4036
tp4037
a(g158
g6
(g18
S'gz\xdf9'
p4038
tp4039
Rp4040
tp4041
a(g216
g6
(g18
S'wUX8'
p4042
tp4043
Rp4044
tp4045
a(g68
g6
(g18
S'\xcf>&8'
p4046
tp4047
Rp4048
tp4049
asg73
g32
sa(dp4050
g2
S'../../../data/emanuela/activity-recognition/images/NTCIR-Lifelog-256/u1/2015-02-24/b00000479_21i6bq_20150224_113321e.jpg'
p4051
sg4
(lp4052
(g32
g6
(g18
S'\xe4\xf6m?'
p4053
tp4054
Rp4055
tp4056
a(g56
g6
(g18
S'>G\x88='
p4057
tp4058
Rp4059
tp4060
a(g158
g6
(g18
S'\xc8\x1fR;'
p4061
tp4062
Rp4063
tp4064
a(g15
g6
(g18
S'\xd4V\x19:'
p4065
tp4066
Rp4067
tp4068
a(g44
g6
(g18
S'/\xf7\x7f8'
p4069
tp4070
Rp4071
tp4072
asg73
g32
sa(dp4073
g2
S'../../../data/emanuela/activity-recognition/images/NTCIR-Lifelog-256/u1/2015-03-12/b00001220_21i6bq_20150312_210437e.jpg'
p4074
sg4
(lp4075
(g15
g6
(g18
S'\xa6\x9eq?'
p4076
tp4077
Rp4078
tp4079
a(g32
g6
(g18
S'$\\\xd2<'
p4080
tp4081
Rp4082
tp4083
a(g44
g6
(g18
S'\x88\x93|<'
p4084
tp4085
Rp4086
tp4087
a(g56
g6
(g18
S'\x87l#<'
p4088
tp4089
Rp4090
tp4091
a(g158
g6
(g18
S'vM3;'
p4092
tp4093
Rp4094
tp4095
asg73
g32
sa(dp4096
g2
S'../../../data/emanuela/activity-recognition/images/NTCIR-Lifelog-256/u1/2015-02-25/b00001031_21i6bq_20150225_164450e.jpg'
p4097
sg4
(lp4098
(g96
g6
(g18
S'5l\x95>'
p4099
tp4100
Rp4101
tp4102
a(g32
g6
(g18
S'\xcb\xb5\x8d>'
p4103
tp4104
Rp4105
tp4106
a(g131
g6
(g18
S'E+(>'
p4107
tp4108
Rp4109
tp4110
a(g15
g6
(g18
S'[W\xfe='
p4111
tp4112
Rp4113
tp4114
a(g44
g6
(g18
S';.\x1d='
p4115
tp4116
Rp4117
tp4118
asg73
g32
sa(dp4119
g2
S'../../../data/emanuela/activity-recognition/images/NTCIR-Lifelog-256/u1/2015-02-25/b00000977_21i6bq_20150225_161150e.jpg'
p4120
sg4
(lp4121
(g1122
g6
(g18
S'>\xcb\x0f?'
p4122
tp4123
Rp4124
tp4125
a(g96
g6
(g18
S'\xfc\xf2\xad='
p4126
tp4127
Rp4128
tp4129
a(g158
g6
(g18
S'\x91\xc2\x8c='
p4130
tp4131
Rp4132
tp4133
a(g32
g6
(g18
S'\x8cw\x81='
p4134
tp4135
Rp4136
tp4137
a(g131
g6
(g18
S'\xeatB='
p4138
tp4139
Rp4140
tp4141
asg73
g32
sa(dp4142
g2
S'../../../data/emanuela/activity-recognition/images/NTCIR-Lifelog-256/u1/2015-03-16/b00002914_21i6bq_20150316_201228e.jpg'
p4143
sg4
(lp4144
(g15
g6
(g18
S'\xc1\x98!?'
p4145
tp4146
Rp4147
tp4148
a(g44
g6
(g18
S'\xf3\xc7D>'
p4149
tp4150
Rp4151
tp4152
a(g32
g6
(g18
S'\x83\r\x80='
p4153
tp4154
Rp4155
tp4156
a(g1246
g6
(g18
S'jz\xad<'
p4157
tp4158
Rp4159
tp4160
a(g96
g6
(g18
S'\x11\x84\xaa<'
p4161
tp4162
Rp4163
tp4164
asg73
g32
sa(dp4165
g2
S'../../../data/emanuela/activity-recognition/images/NTCIR-Lifelog-256/u1/2015-03-15/b00000900_21i6bq_20150315_162258e.jpg'
p4166
sg4
(lp4167
(g56
g6
(g18
S'\x0bB-?'
p4168
tp4169
Rp4170
tp4171
a(g15
g6
(g18
S'\xb4e\xae='
p4172
tp4173
Rp4174
tp4175
a(g1038
g6
(g18
S'\xadhl='
p4176
tp4177
Rp4178
tp4179
a(g32
g6
(g18
S'\t\xd9b='
p4180
tp4181
Rp4182
tp4183
a(g316
g6
(g18
S'\xc2\xa0(='
p4184
tp4185
Rp4186
tp4187
asg73
g32
sa(dp4188
g2
S'../../../data/emanuela/activity-recognition/images/NTCIR-Lifelog-256/u1/2015-03-02/b00000568_21i6bq_20150302_130018e.jpg'
p4189
sg4
(lp4190
(g32
g6
(g18
S'\x7f\xbe\x1b?'
p4191
tp4192
Rp4193
tp4194
a(g15
g6
(g18
S'\x0e\xab\x91>'
p4195
tp4196
Rp4197
tp4198
a(g56
g6
(g18
S'a\x1c\xb4='
p4199
tp4200
Rp4201
tp4202
a(g44
g6
(g18
S'\xb1U\x7f<'
p4203
tp4204
Rp4205
tp4206
a(g158
g6
(g18
S'4p\x97:'
p4207
tp4208
Rp4209
tp4210
asg73
g32
sa(dp4211
g2
S'../../../data/emanuela/activity-recognition/images/NTCIR-Lifelog-256/u1/2015-02-25/b00001025_21i6bq_20150225_164118e.jpg'
p4212
sg4
(lp4213
(g32
g6
(g18
S'\x80\xf5\\?'
p4214
tp4215
Rp4216
tp4217
a(g56
g6
(g18
S'\x95\xe3\x92='
p4218
tp4219
Rp4220
tp4221
a(g15
g6
(g18
S'|FD='
p4222
tp4223
Rp4224
tp4225
a(g158
g6
(g18
S'\xbd\xa0\xcd;'
p4226
tp4227
Rp4228
tp4229
a(g44
g6
(g18
S'"\n\x88;'
p4230
tp4231
Rp4232
tp4233
asg73
g32
sa(dp4234
g2
S'../../../data/emanuela/activity-recognition/images/NTCIR-Lifelog-256/u1/2015-03-02/b00000578_21i6bq_20150302_130621e.jpg'
p4235
sg4
(lp4236
(g32
g6
(g18
S'\xde$N?'
p4237
tp4238
Rp4239
tp4240
a(g15
g6
(g18
S'HM\xb8='
p4241
tp4242
Rp4243
tp4244
a(g44
g6
(g18
S'D\xc0L='
p4245
tp4246
Rp4247
tp4248
a(g158
g6
(g18
S'q\xdd\xe8<'
p4249
tp4250
Rp4251
tp4252
a(g56
g6
(g18
S'\xb7z\xc2<'
p4253
tp4254
Rp4255
tp4256
asg73
g32
sa(dp4257
g2
S'../../../data/emanuela/activity-recognition/images/NTCIR-Lifelog-256/u1/2015-03-04/b00000958_21i6bq_20150304_165518e.jpg'
p4258
sg4
(lp4259
(g32
g6
(g18
S'.\x05T?'
p4260
tp4261
Rp4262
tp4263
a(g56
g6
(g18
S'\x01\xc5.>'
p4264
tp4265
Rp4266
tp4267
a(g15
g6
(g18
S'\xc3\x87\xf89'
p4268
tp4269
Rp4270
tp4271
a(g44
g6
(g18
S"'\xac%9"
p4272
tp4273
Rp4274
tp4275
a(g1122
g6
(g18
S'\x8e\x83 9'
p4276
tp4277
Rp4278
tp4279
asg73
g32
sa(dp4280
g2
S'../../../data/emanuela/activity-recognition/images/NTCIR-Lifelog-256/u1/2015-02-24/b00000934_21i6bq_20150224_161200e.jpg'
p4281
sg4
(lp4282
(g56
g6
(g18
S'\xf6b\x04?'
p4283
tp4284
Rp4285
tp4286
a(g32
g6
(g18
S'-\xf3\xf6>'
p4287
tp4288
Rp4289
tp4290
a(g15
g6
(g18
S'r\x91\xca9'
p4291
tp4292
Rp4293
tp4294
a(g131
g6
(g18
S'\xc0\xa6o8'
p4295
tp4296
Rp4297
tp4298
a(g158
g6
(g18
S'.\xda\xf27'
p4299
tp4300
Rp4301
tp4302
asg73
g32
sa(dp4303
g2
S'../../../data/emanuela/activity-recognition/images/NTCIR-Lifelog-256/u1/2015-03-04/b00001009_21i6bq_20150304_172756e.jpg'
p4304
sg4
(lp4305
(g32
g6
(g18
S'(*;?'
p4306
tp4307
Rp4308
tp4309
a(g56
g6
(g18
S'\xc7\x8e\x07>'
p4310
tp4311
Rp4312
tp4313
a(g15
g6
(g18
S'\x84\x87\x02>'
p4314
tp4315
Rp4316
tp4317
a(g158
g6
(g18
S'\xf6kf;'
p4318
tp4319
Rp4320
tp4321
a(g44
g6
(g18
S'0G\x10;'
p4322
tp4323
Rp4324
tp4325
asg73
g32
sa(dp4326
g2
S'../../../data/emanuela/activity-recognition/images/NTCIR-Lifelog-256/u1/2015-02-25/b00000971_21i6bq_20150225_160805e.jpg'
p4327
sg4
(lp4328
(g96
g6
(g18
S'\xe0\x13\x07?'
p4329
tp4330
Rp4331
tp4332
a(g1122
g6
(g18
S'F@">'
p4333
tp4334
Rp4335
tp4336
a(g131
g6
(g18
S'\xe6#\xc0='
p4337
tp4338
Rp4339
tp4340
a(g56
g6
(g18
S'$\x89\xb4='
p4341
tp4342
Rp4343
tp4344
a(g44
g6
(g18
S'\xbc\x02\xe6<'
p4345
tp4346
Rp4347
tp4348
asg73
g32
sa(dp4349
g2
S'../../../data/emanuela/activity-recognition/images/NTCIR-Lifelog-256/u1/2015-02-25/b00000967_21i6bq_20150225_160533e.jpg'
p4350
sg4
(lp4351
(g15
g6
(g18
S'\xa0\x04{>'
p4352
tp4353
Rp4354
tp4355
a(g44
g6
(g18
S'\xa6pC>'
p4356
tp4357
Rp4358
tp4359
a(g216
g6
(g18
S'\r\xa9\x1b>'
p4360
tp4361
Rp4362
tp4363
a(g131
g6
(g18
S'\x955\xf0='
p4364
tp4365
Rp4366
tp4367
a(g96
g6
(g18
S'\x87G\xd9='
p4368
tp4369
Rp4370
tp4371
asg73
g32
sa(dp4372
g2
S'../../../data/emanuela/activity-recognition/images/NTCIR-Lifelog-256/u1/2015-02-26/b00000781_21i6bq_20150226_143453e.jpg'
p4373
sg4
(lp4374
(g32
g6
(g18
S'&\x92A?'
p4375
tp4376
Rp4377
tp4378
a(g56
g6
(g18
S't1e>'
p4379
tp4380
Rp4381
tp4382
a(g158
g6
(g18
S'\xe1\xb57<'
p4383
tp4384
Rp4385
tp4386
a(g96
g6
(g18
S'\xb1To;'
p4387
tp4388
Rp4389
tp4390
a(g15
g6
(g18
S'6\x8dS;'
p4391
tp4392
Rp4393
tp4394
asg73
g32
sa(dp4395
g2
S'../../../data/emanuela/activity-recognition/images/NTCIR-Lifelog-256/u1/2015-03-01/b00000502_21i6bq_20150301_115049e.jpg'
p4396
sg4
(lp4397
(g32
g6
(g18
S'/\xf5o?'
p4398
tp4399
Rp4400
tp4401
a(g15
g6
(g18
S'\x0e\xbe\xfb<'
p4402
tp4403
Rp4404
tp4405
a(g44
g6
(g18
S'\xc4e\x91<'
p4406
tp4407
Rp4408
tp4409
a(g56
g6
(g18
S'U\x03Q<'
p4410
tp4411
Rp4412
tp4413
a(g68
g6
(g18
S'\xf2}\x1f:'
p4414
tp4415
Rp4416
tp4417
asg73
g32
sa(dp4418
g2
S'../../../data/emanuela/activity-recognition/images/NTCIR-Lifelog-256/u1/2015-03-11/b00001243_21i6bq_20150311_205847e.jpg'
p4419
sg4
(lp4420
(g32
g6
(g18
S'\xe5=T?'
p4421
tp4422
Rp4423
tp4424
a(g15
g6
(g18
S'\t{\xc4='
p4425
tp4426
Rp4427
tp4428
a(g56
g6
(g18
S'\xf7\xc6@='
p4429
tp4430
Rp4431
tp4432
a(g44
g6
(g18
S'WKc<'
p4433
tp4434
Rp4435
tp4436
a(g131
g6
(g18
S'4y\x81;'
p4437
tp4438
Rp4439
tp4440
asg73
g32
sa(dp4441
g2
S'../../../data/emanuela/activity-recognition/images/NTCIR-Lifelog-256/u1/2015-02-25/b00001001_21i6bq_20150225_162626e.jpg'
p4442
sg4
(lp4443
(g32
g6
(g18
S'$\x18f?'
p4444
tp4445
Rp4446
tp4447
a(g56
g6
(g18
S'\x84\x8d\x0c='
p4448
tp4449
Rp4450
tp4451
a(g15
g6
(g18
S'\x03\xa0\xec<'
p4452
tp4453
Rp4454
tp4455
a(g158
g6
(g18
S'T\xf2l<'
p4456
tp4457
Rp4458
tp4459
a(g131
g6
(g18
S'`\xbbK<'
p4460
tp4461
Rp4462
tp4463
asg73
g32
sa(dp4464
g2
S'../../../data/emanuela/activity-recognition/images/NTCIR-Lifelog-256/u1/2015-03-01/b00000486_21i6bq_20150301_114035e.jpg'
p4465
sg4
(lp4466
(g32
g6
(g18
S'`\xaaq?'
p4467
tp4468
Rp4469
tp4470
a(g56
g6
(g18
S'rpT='
p4471
tp4472
Rp4473
tp4474
a(g158
g6
(g18
S'\x8a\xfa\x11;'
p4475
tp4476
Rp4477
tp4478
a(g15
g6
(g18
S'Q\xa7t:'
p4479
tp4480
Rp4481
tp4482
a(g44
g6
(g18
S'\xba"\xff9'
p4483
tp4484
Rp4485
tp4486
asg73
g32
sa(dp4487
g2
S'../../../data/emanuela/activity-recognition/images/NTCIR-Lifelog-256/u1/2015-02-27/b00000636_21i6bq_20150227_135941e.jpg'
p4488
sg4
(lp4489
(g32
g6
(g18
S'\xd8\x7fz?'
p4490
tp4491
Rp4492
tp4493
a(g56
g6
(g18
S'\x99W\x9d<'
p4494
tp4495
Rp4496
tp4497
a(g15
g6
(g18
S'\x13\xe4\x89:'
p4498
tp4499
Rp4500
tp4501
a(g158
g6
(g18
S'/LE:'
p4502
tp4503
Rp4504
tp4505
a(g44
g6
(g18
S'\x7f;\xbb9'
p4506
tp4507
Rp4508
tp4509
asg73
g32
sa(dp4510
g2
S'../../../data/emanuela/activity-recognition/images/NTCIR-Lifelog-256/u1/2015-03-16/b00002911_21i6bq_20150316_201034e.jpg'
p4511
sg4
(lp4512
(g32
g6
(g18
S'\x93X2?'
p4513
tp4514
Rp4515
tp4516
a(g158
g6
(g18
S'h\x05W>'
p4517
tp4518
Rp4519
tp4520
a(g56
g6
(g18
S'\xda]\x9c='
p4521
tp4522
Rp4523
tp4524
a(g15
g6
(g18
S'aY\xf2;'
p4525
tp4526
Rp4527
tp4528
a(g44
g6
(g18
S'\t\xca\x1e;'
p4529
tp4530
Rp4531
tp4532
asg73
g32
sa(dp4533
g2
S'../../../data/emanuela/activity-recognition/images/NTCIR-Lifelog-256/u1/2015-02-25/b00000965_21i6bq_20150225_160421e.jpg'
p4534
sg4
(lp4535
(g1122
g6
(g18
S'\x85v\xb6>'
p4536
tp4537
Rp4538
tp4539
a(g96
g6
(g18
S'\xb8H4>'
p4540
tp4541
Rp4542
tp4543
a(g15
g6
(g18
S'\xfd\x05\xf4='
p4544
tp4545
Rp4546
tp4547
a(g131
g6
(g18
S'5\x07\xbe='
p4548
tp4549
Rp4550
tp4551
a(g44
g6
(g18
S'\xb9\xb49='
p4552
tp4553
Rp4554
tp4555
asg73
g32
sa(dp4556
g2
S'../../../data/emanuela/activity-recognition/images/NTCIR-Lifelog-256/u1/2015-02-23/b00000659_21i6bq_20150223_135826e (1).jpg'
p4557
sg4
(lp4558
(g32
g6
(g18
S'\xa1\x1c\x7f?'
p4559
tp4560
Rp4561
tp4562
a(g56
g6
(g18
S'\xef\xe0J;'
p4563
tp4564
Rp4565
tp4566
a(g96
g6
(g18
S'\x80F\xfd8'
p4567
tp4568
Rp4569
tp4570
a(g15
g6
(g18
S'$\xeb\x958'
p4571
tp4572
Rp4573
tp4574
a(g131
g6
(g18
S'WX?8'
p4575
tp4576
Rp4577
tp4578
asg73
g32
sa(dp4579
g2
S'../../../data/emanuela/activity-recognition/images/NTCIR-Lifelog-256/u1/2015-03-11/b00001239_21i6bq_20150311_205348e.jpg'
p4580
sg4
(lp4581
(g56
g6
(g18
S'\xd8F\x01?'
p4582
tp4583
Rp4584
tp4585
a(g32
g6
(g18
S'\xc7\xde\xb4>'
p4586
tp4587
Rp4588
tp4589
a(g15
g6
(g18
S'T\xc2\xd2='
p4590
tp4591
Rp4592
tp4593
a(g131
g6
(g18
S'\xfaN\xa6<'
p4594
tp4595
Rp4596
tp4597
a(g44
g6
(g18
S'\xda`Q<'
p4598
tp4599
Rp4600
tp4601
asg73
g32
sa(dp4602
g2
S'../../../data/emanuela/activity-recognition/images/NTCIR-Lifelog-256/u1/2015-02-26/b00000785_21i6bq_20150226_143710e.jpg'
p4603
sg4
(lp4604
(g32
g6
(g18
S'\xe3o[?'
p4605
tp4606
Rp4607
tp4608
a(g56
g6
(g18
S'n\x07\x0b>'
p4609
tp4610
Rp4611
tp4612
a(g15
g6
(g18
S'\n\xf3\x8d;'
p4613
tp4614
Rp4615
tp4616
a(g158
g6
(g18
S'\x14h\xbe:'
p4617
tp4618
Rp4619
tp4620
a(g44
g6
(g18
S'\x1da\x0f:'
p4621
tp4622
Rp4623
tp4624
asg73
g32
sa(dp4625
g2
S'../../../data/emanuela/activity-recognition/images/NTCIR-Lifelog-256/u1/2015-02-23/b00000650_21i6bq_20150223_135238e.jpg'
p4626
sg4
(lp4627
(g32
g6
(g18
S'\x87\x83~?'
p4628
tp4629
Rp4630
tp4631
a(g56
g6
(g18
S'\xf3\x8c\xa3;'
p4632
tp4633
Rp4634
tp4635
a(g44
g6
(g18
S'\xa2\xae\x02:'
p4636
tp4637
Rp4638
tp4639
a(g96
g6
(g18
S'\x85\x02\x019'
p4640
tp4641
Rp4642
tp4643
a(g158
g6
(g18
S'1f\xdd8'
p4644
tp4645
Rp4646
tp4647
asg73
g32
sa(dp4648
g2
S'../../../data/emanuela/activity-recognition/images/NTCIR-Lifelog-256/u1/2015-03-04/b00000946_21i6bq_20150304_164725e.jpg'
p4649
sg4
(lp4650
(g32
g6
(g18
S' \x04q?'
p4651
tp4652
Rp4653
tp4654
a(g56
g6
(g18
S'\xbb\xee(='
p4655
tp4656
Rp4657
tp4658
a(g158
g6
(g18
S'\xb3\xab\x00<'
p4659
tp4660
Rp4661
tp4662
a(g15
g6
(g18
S'\x8b\xa1\xfc;'
p4663
tp4664
Rp4665
tp4666
a(g44
g6
(g18
S'b\x9e\xf09'
p4667
tp4668
Rp4669
tp4670
asg73
g32
sa(dp4671
g2
S'../../../data/emanuela/activity-recognition/images/NTCIR-Lifelog-256/u1/2015-03-11/b00001273_21i6bq_20150311_212443e.jpg'
p4672
sg4
(lp4673
(g32
g6
(g18
S'V\x9d_?'
p4674
tp4675
Rp4676
tp4677
a(g56
g6
(g18
S'U\xc5\xdc='
p4678
tp4679
Rp4680
tp4681
a(g15
g6
(g18
S'\xc9/L<'
p4682
tp4683
Rp4684
tp4685
a(g44
g6
(g18
S'\xe7zZ;'
p4686
tp4687
Rp4688
tp4689
a(g96
g6
(g18
S'\tnE:'
p4690
tp4691
Rp4692
tp4693
asg73
g32
sa(dp4694
g2
S'../../../data/emanuela/activity-recognition/images/NTCIR-Lifelog-256/u1/2015-02-27/b00000618_21i6bq_20150227_134706e.jpg'
p4695
sg4
(lp4696
(g32
g6
(g18
S'+\x05w?'
p4697
tp4698
Rp4699
tp4700
a(g56
g6
(g18
S'Z>\xbd<'
p4701
tp4702
Rp4703
tp4704
a(g15
g6
(g18
S'I\xd0 <'
p4705
tp4706
Rp4707
tp4708
a(g158
g6
(g18
S'\x19\x7f+:'
p4709
tp4710
Rp4711
tp4712
a(g96
g6
(g18
S'*?&:'
p4713
tp4714
Rp4715
tp4716
asg73
g32
sa(dp4717
g2
S'../../../data/emanuela/activity-recognition/images/NTCIR-Lifelog-256/u1/2015-02-25/b00000957_21i6bq_20150225_155936e.jpg'
p4718
sg4
(lp4719
(g1122
g6
(g18
S'Q\xd2\xdd>'
p4720
tp4721
Rp4722
tp4723
a(g96
g6
(g18
S'\xfa\x90\x1a>'
p4724
tp4725
Rp4726
tp4727
a(g15
g6
(g18
S'(\xa2\x14>'
p4728
tp4729
Rp4730
tp4731
a(g131
g6
(g18
S'\xd8\xaf\x91='
p4732
tp4733
Rp4734
tp4735
a(g216
g6
(g18
S'\x97\x98\x00='
p4736
tp4737
Rp4738
tp4739
asg73
g32
sa(dp4740
g2
S'../../../data/emanuela/activity-recognition/images/NTCIR-Lifelog-256/u1/2015-02-25/b00000993_21i6bq_20150225_162131e.jpg'
p4741
sg4
(lp4742
(g32
g6
(g18
S'\x85Jr?'
p4743
tp4744
Rp4745
tp4746
a(g56
g6
(g18
S'\x9dlU='
p4747
tp4748
Rp4749
tp4750
a(g158
g6
(g18
S'+c\x17:'
p4751
tp4752
Rp4753
tp4754
a(g96
g6
(g18
S'\xcd3\xaf9'
p4755
tp4756
Rp4757
tp4758
a(g131
g6
(g18
S'GU#9'
p4759
tp4760
Rp4761
tp4762
asg73
g32
sa(dp4763
g2
S'../../../data/emanuela/activity-recognition/images/NTCIR-Lifelog-256/u1/2015-02-24/b00000940_21i6bq_20150224_161533e.jpg'
p4764
sg4
(lp4765
(g56
g6
(g18
S'\xf0\xddp?'
p4766
tp4767
Rp4768
tp4769
a(g32
g6
(g18
S'\xb0WW='
p4770
tp4771
Rp4772
tp4773
a(g15
g6
(g18
S'\x9f\xe4\xf1:'
p4774
tp4775
Rp4776
tp4777
a(g1038
g6
(g18
S'\xdc\x8e\xd2:'
p4778
tp4779
Rp4780
tp4781
a(g131
g6
(g18
S'\xdfIl:'
p4782
tp4783
Rp4784
tp4785
asg73
g32
sa(dp4786
g2
S'../../../data/emanuela/activity-recognition/images/NTCIR-Lifelog-256/u1/2015-02-25/b00001008_21i6bq_20150225_163049e.jpg'
p4787
sg4
(lp4788
(g32
g6
(g18
S'W\xd2p?'
p4789
tp4790
Rp4791
tp4792
a(g158
g6
(g18
S'#M\x18='
p4793
tp4794
Rp4795
tp4796
a(g56
g6
(g18
S'\xd6>#<'
p4797
tp4798
Rp4799
tp4800
a(g15
g6
(g18
S'G\xd2\x9b;'
p4801
tp4802
Rp4803
tp4804
a(g96
g6
(g18
S'{2\x89;'
p4805
tp4806
Rp4807
tp4808
asg73
g32
sa(dp4809
g2
S'../../../data/emanuela/activity-recognition/images/NTCIR-Lifelog-256/u1/2015-02-26/b00000773_21i6bq_20150226_143000e.jpg'
p4810
sg4
(lp4811
(g15
g6
(g18
S'7\xef\x05?'
p4812
tp4813
Rp4814
tp4815
a(g96
g6
(g18
S'>|\r>'
p4816
tp4817
Rp4818
tp4819
a(g56
g6
(g18
S'\x92)\t>'
p4820
tp4821
Rp4822
tp4823
a(g32
g6
(g18
S'\xee\x9b\x91='
p4824
tp4825
Rp4826
tp4827
a(g158
g6
(g18
S'F\x126='
p4828
tp4829
Rp4830
tp4831
asg73
g32
sa(dp4832
g2
S'../../../data/emanuela/activity-recognition/images/NTCIR-Lifelog-256/u1/2015-02-23/b00000675_21i6bq_20150223_140817e.jpg'
p4833
sg4
(lp4834
(g32
g6
(g18
S'kd\x7f?'
p4835
tp4836
Rp4837
tp4838
a(g131
g6
(g18
S'\xe4\x8d\xc2:'
p4839
tp4840
Rp4841
tp4842
a(g56
g6
(g18
S'\xb8+\xc39'
p4843
tp4844
Rp4845
tp4846
a(g96
g6
(g18
S're\x9e9'
p4847
tp4848
Rp4849
tp4850
a(g15
g6
(g18
S'\xedA79'
p4851
tp4852
Rp4853
tp4854
asg73
g32
sa(dp4855
g2
S'../../../data/emanuela/activity-recognition/images/NTCIR-Lifelog-256/u1/2015-03-11/b00001333_21i6bq_20150311_220948e.jpg'
p4856
sg4
(lp4857
(g56
g6
(g18
S"\xbcr'?"
p4858
tp4859
Rp4860
tp4861
a(g32
g6
(g18
S'S\x89\x0f>'
p4862
tp4863
Rp4864
tp4865
a(g316
g6
(g18
S'\x8f$\x81='
p4866
tp4867
Rp4868
tp4869
a(g15
g6
(g18
S'\xdb\x92\xf8<'
p4870
tp4871
Rp4872
tp4873
a(g68
g6
(g18
S'\x9c\x97\xda<'
p4874
tp4875
Rp4876
tp4877
asg73
g32
sa(dp4878
g2
S'../../../data/emanuela/activity-recognition/images/NTCIR-Lifelog-256/u1/2015-03-04/b00000969_21i6bq_20150304_170154e.jpg'
p4879
sg4
(lp4880
(g32
g6
(g18
S'p\xecd?'
p4881
tp4882
Rp4883
tp4884
a(g56
g6
(g18
S'\xa0\xb9\xd2='
p4885
tp4886
Rp4887
tp4888
a(g158
g6
(g18
S'C\x11\x0b;'
p4889
tp4890
Rp4891
tp4892
a(g96
g6
(g18
S'\x89\xfan9'
p4893
tp4894
Rp4895
tp4896
a(g15
g6
(g18
S'!\x1c*9'
p4897
tp4898
Rp4899
tp4900
asg73
g32
sa(dp4901
g2
S'../../../data/emanuela/activity-recognition/images/NTCIR-Lifelog-256/u1/2015-02-26/b00000747_21i6bq_20150226_141720e.jpg'
p4902
sg4
(lp4903
(g32
g6
(g18
S'\xc4-M?'
p4904
tp4905
Rp4906
tp4907
a(g56
g6
(g18
S'\xdcG>>'
p4908
tp4909
Rp4910
tp4911
a(g15
g6
(g18
S'\x8az\xf1;'
p4912
tp4913
Rp4914
tp4915
a(g158
g6
(g18
S'\x12"\x85;'
p4916
tp4917
Rp4918
tp4919
a(g44
g6
(g18
S'\xb7\x11.:'
p4920
tp4921
Rp4922
tp4923
asg73
g32
sa(dp4924
g2
S'../../../data/emanuela/activity-recognition/images/NTCIR-Lifelog-256/u1/2015-02-26/b00000771_21i6bq_20150226_142849e.jpg'
p4925
sg4
(lp4926
(g32
g6
(g18
S'\x83qS?'
p4927
tp4928
Rp4929
tp4930
a(g56
g6
(g18
S'\xde\x84(>'
p4931
tp4932
Rp4933
tp4934
a(g158
g6
(g18
S'R\x0b\xa3;'
p4935
tp4936
Rp4937
tp4938
a(g15
g6
(g18
S'\x93)\x13;'
p4939
tp4940
Rp4941
tp4942
a(g68
g6
(g18
S'#`l:'
p4943
tp4944
Rp4945
tp4946
asg73
g32
sa(dp4947
g2
S'../../../data/emanuela/activity-recognition/images/NTCIR-Lifelog-256/u1/2015-03-15/b00000876_21i6bq_20150315_160816e.jpg'
p4948
sg4
(lp4949
(g56
g6
(g18
S'%b_>'
p4950
tp4951
Rp4952
tp4953
a(g15
g6
(g18
S'$!\xef='
p4954
tp4955
Rp4956
tp4957
a(g32
g6
(g18
S'>\xcd\xdd='
p4958
tp4959
Rp4960
tp4961
a(g44
g6
(g18
S'\x9d\xff\xc9='
p4962
tp4963
Rp4964
tp4965
a(g216
g6
(g18
S'\x9a\xe9\xb8='
p4966
tp4967
Rp4968
tp4969
asg73
g32
sa(dp4970
g2
S'../../../data/emanuela/activity-recognition/images/NTCIR-Lifelog-256/u1/2015-02-27/b00000628_21i6bq_20150227_135332e.jpg'
p4971
sg4
(lp4972
(g32
g6
(g18
S'B\x84u?'
p4973
tp4974
Rp4975
tp4976
a(g56
g6
(g18
S'\xbc\x9c\x16='
p4977
tp4978
Rp4979
tp4980
a(g15
g6
(g18
S'\xd7A\t;'
p4981
tp4982
Rp4983
tp4984
a(g158
g6
(g18
S'\xbd\xa3\xaf:'
p4985
tp4986
Rp4987
tp4988
a(g44
g6
(g18
S'\xbc\xdb\xce9'
p4989
tp4990
Rp4991
tp4992
asg73
g32
sa(dp4993
g2
S'../../../data/emanuela/activity-recognition/images/NTCIR-Lifelog-256/u1/2015-03-03/b00000594_21i6bq_20150303_130453e.jpg'
p4994
sg4
(lp4995
(g15
g6
(g18
S'\x84\x9bL?'
p4996
tp4997
Rp4998
tp4999
a(g32
g6
(g18
S'F\xc7)>'
p5000
tp5001
Rp5002
tp5003
a(g56
g6
(g18
S'\xcb\x06S<'
p5004
tp5005
Rp5006
tp5007
a(g158
g6
(g18
S'Z\x1c3<'
p5008
tp5009
Rp5010
tp5011
a(g44
g6
(g18
S'c\x87\x02<'
p5012
tp5013
Rp5014
tp5015
asg73
g32
sa(dp5016
g2
S'../../../data/emanuela/activity-recognition/images/NTCIR-Lifelog-256/u1/2015-02-24/b00001176_21i6bq_20150224_184501e.jpg'
p5017
sg4
(lp5018
(g158
g6
(g18
S'\x9d\xa1z?'
p5019
tp5020
Rp5021
tp5022
a(g216
g6
(g18
S'\xc0\xc3{<'
p5023
tp5024
Rp5025
tp5026
a(g15
g6
(g18
S'\x16C\xfd:'
p5027
tp5028
Rp5029
tp5030
a(g56
g6
(g18
S'\xa3\xfa\xbe:'
p5031
tp5032
Rp5033
tp5034
a(g32
g6
(g18
S'\xc6TC:'
p5035
tp5036
Rp5037
tp5038
asg73
g32
sa(dp5039
g2
S'../../../data/emanuela/activity-recognition/images/NTCIR-Lifelog-256/u1/2015-02-26/b00000761_21i6bq_20150226_142236e.jpg'
p5040
sg4
(lp5041
(g32
g6
(g18
S'\xf2\x87>?'
p5042
tp5043
Rp5044
tp5045
a(g56
g6
(g18
S'R\xf7j>'
p5046
tp5047
Rp5048
tp5049
a(g15
g6
(g18
S'C\x11\x87<'
p5050
tp5051
Rp5052
tp5053
a(g158
g6
(g18
S'\x8ch\xd0;'
p5054
tp5055
Rp5056
tp5057
a(g68
g6
(g18
S'q\xab\x13;'
p5058
tp5059
Rp5060
tp5061
asg73
g32
sa(dp5062
g2
S'../../../data/emanuela/activity-recognition/images/NTCIR-Lifelog-256/u1/2015-03-04/b00001021_21i6bq_20150304_173525e.jpg'
p5063
sg4
(lp5064
(g32
g6
(g18
S'\xb9w\x1e?'
p5065
tp5066
Rp5067
tp5068
a(g56
g6
(g18
S'\xa7c\xb7>'
p5069
tp5070
Rp5071
tp5072
a(g6
(g7
(S'S15'
p5073
I0
I1
tp5074
Rp5075
(I3
S'|'
p5076
NNNI15
I1
I0
tp5077
bS'walking outdoor'
p5078
tp5079
Rp5080
g6
(g18
S'\xa4E\x9b;'
p5081
tp5082
Rp5083
tp5084
a(g15
g6
(g18
S'\xfd&\x97;'
p5085
tp5086
Rp5087
tp5088
a(g1122
g6
(g18
S'\xbe\xd2g;'
p5089
tp5090
Rp5091
tp5092
asg73
g32
sa(dp5093
g2
S'../../../data/emanuela/activity-recognition/images/NTCIR-Lifelog-256/u1/2015-02-25/b00000987_21i6bq_20150225_161756e.jpg'
p5094
sg4
(lp5095
(g32
g6
(g18
S'l\xc5Z?'
p5096
tp5097
Rp5098
tp5099
a(g56
g6
(g18
S'\xe9t\x10>'
p5100
tp5101
Rp5102
tp5103
a(g158
g6
(g18
S'\t9e;'
p5104
tp5105
Rp5106
tp5107
a(g15
g6
(g18
S'\xa0,$:'
p5108
tp5109
Rp5110
tp5111
a(g44
g6
(g18
S'\xd2\x97\xaa8'
p5112
tp5113
Rp5114
tp5115
asg73
g32
sa(dp5116
g2
S'../../../data/emanuela/activity-recognition/images/NTCIR-Lifelog-256/u1/2015-03-01/b00000500_21i6bq_20150301_114933e.jpg'
p5117
sg4
(lp5118
(g32
g6
(g18
S'\x99\x89@?'
p5119
tp5120
Rp5121
tp5122
a(g44
g6
(g18
S'(\xe65>'
p5123
tp5124
Rp5125
tp5126
a(g15
g6
(g18
S'2<(='
p5127
tp5128
Rp5129
tp5130
a(g56
g6
(g18
S'\x1fO\x8b<'
p5131
tp5132
Rp5133
tp5134
a(g96
g6
(g18
S'd\xc2\xd2;'
p5135
tp5136
Rp5137
tp5138
asg73
g32
sa(dp5139
g2
S'../../../data/emanuela/activity-recognition/images/NTCIR-Lifelog-256/u1/2015-03-04/b00001018_21i6bq_20150304_173335e.jpg'
p5140
sg4
(lp5141
(g32
g6
(g18
S'\xb2tw?'
p5142
tp5143
Rp5144
tp5145
a(g56
g6
(g18
S'\xd3B\xe8<'
p5146
tp5147
Rp5148
tp5149
a(g44
g6
(g18
S'\xbe\xc70;'
p5150
tp5151
Rp5152
tp5153
a(g158
g6
(g18
S'\x8b:\x88:'
p5154
tp5155
Rp5156
tp5157
a(g15
g6
(g18
S'\xe0\xd9\x87:'
p5158
tp5159
Rp5160
tp5161
asg73
g32
sa(dp5162
g2
S'../../../data/emanuela/activity-recognition/images/NTCIR-Lifelog-256/u1/2015-02-27/b00000617_21i6bq_20150227_134631e.jpg'
p5163
sg4
(lp5164
(g32
g6
(g18
S'\n\xc9x?'
p5165
tp5166
Rp5167
tp5168
a(g56
g6
(g18
S'm\xb8\xc5<'
p5169
tp5170
Rp5171
tp5172
a(g15
g6
(g18
S'\xab\x19\x02;'
p5173
tp5174
Rp5175
tp5176
a(g158
g6
(g18
S'\x83\xc3\xdc:'
p5177
tp5178
Rp5179
tp5180
a(g44
g6
(g18
S'92p9'
p5181
tp5182
Rp5183
tp5184
asg73
g32
sa(dp5185
g2
S'../../../data/emanuela/activity-recognition/images/NTCIR-Lifelog-256/u1/2015-03-06/b00000867_21i6bq_20150306_142340e.jpg'
p5186
sg4
(lp5187
(g96
g6
(g18
S'i\x85+>'
p5188
tp5189
Rp5190
tp5191
a(g56
g6
(g18
S'\x08\x06\x1d>'
p5192
tp5193
Rp5194
tp5195
a(g216
g6
(g18
S'\x96h\xeb='
p5196
tp5197
Rp5198
tp5199
a(g131
g6
(g18
S'\xcc\x0e\xc8='
p5200
tp5201
Rp5202
tp5203
a(g158
g6
(g18
S'\x11\xf4\xb9='
p5204
tp5205
Rp5206
tp5207
asg73
g32
sa(dp5208
g2
S'../../../data/emanuela/activity-recognition/images/NTCIR-Lifelog-256/u1/2015-02-27/b00000626_21i6bq_20150227_135221e.jpg'
p5209
sg4
(lp5210
(g32
g6
(g18
S'\xafne?'
p5211
tp5212
Rp5213
tp5214
a(g56
g6
(g18
S'\x7f\x12\xa5='
p5215
tp5216
Rp5217
tp5218
a(g15
g6
(g18
S'\xda\xcej<'
p5219
tp5220
Rp5221
tp5222
a(g44
g6
(g18
S'\x01$\xa0;'
p5223
tp5224
Rp5225
tp5226
a(g158
g6
(g18
S'\x08i4;'
p5227
tp5228
Rp5229
tp5230
asg73
g32
sa(dp5231
g2
S'../../../data/emanuela/activity-recognition/images/NTCIR-Lifelog-256/u1/2015-02-25/b00000973_21i6bq_20150225_160924e.jpg'
p5232
sg4
(lp5233
(g96
g6
(g18
S'I\x9e\xe7>'
p5234
tp5235
Rp5236
tp5237
a(g131
g6
(g18
S'\xca\xfd\xdd='
p5238
tp5239
Rp5240
tp5241
a(g32
g6
(g18
S']\xee\x8e='
p5242
tp5243
Rp5244
tp5245
a(g44
g6
(g18
S'\xc5\xab\x84='
p5246
tp5247
Rp5248
tp5249
a(g56
g6
(g18
S'\x88\xef\x81='
p5250
tp5251
Rp5252
tp5253
asg73
g32
sa(dp5254
g2
S'../../../data/emanuela/activity-recognition/images/NTCIR-Lifelog-256/u1/2015-03-01/b00000508_21i6bq_20150301_115428e.jpg'
p5255
sg4
(lp5256
(g32
g6
(g18
S' \xd6\xe8>'
p5257
tp5258
Rp5259
tp5260
a(g44
g6
(g18
S'\xaf\xa7\xc7>'
p5261
tp5262
Rp5263
tp5264
a(g96
g6
(g18
S"\x93'\xa6="
p5265
tp5266
Rp5267
tp5268
a(g15
g6
(g18
S'\x01\xf4Y='
p5269
tp5270
Rp5271
tp5272
a(g56
g6
(g18
S'\xb3\x81\x00<'
p5273
tp5274
Rp5275
tp5276
asg73
g32
sa(dp5277
g2
S'../../../data/emanuela/activity-recognition/images/NTCIR-Lifelog-256/u1/2015-02-23/b00000676_21i6bq_20150223_140859e.jpg'
p5278
sg4
(lp5279
(g44
g6
(g18
S'\xd10^?'
p5280
tp5281
Rp5282
tp5283
a(g96
g6
(g18
S'n\x1a\xb4='
p5284
tp5285
Rp5286
tp5287
a(g1246
g6
(g18
S'\x19\xb0k<'
p5288
tp5289
Rp5290
tp5291
a(g32
g6
(g18
S'\x98\x94i<'
p5292
tp5293
Rp5294
tp5295
a(g131
g6
(g18
S'\x99/\xf2;'
p5296
tp5297
Rp5298
tp5299
asg73
g32
sa(dp5300
g2
S'../../../data/emanuela/activity-recognition/images/NTCIR-Lifelog-256/u1/2015-02-25/b00000955_21i6bq_20150225_155816e.jpg'
p5301
sg4
(lp5302
(g15
g6
(g18
S'\x7f\xf5\x9e>'
p5303
tp5304
Rp5305
tp5306
a(g96
g6
(g18
S'1\xf11>'
p5307
tp5308
Rp5309
tp5310
a(g131
g6
(g18
S'!\x1b\n>'
p5311
tp5312
Rp5313
tp5314
a(g32
g6
(g18
S'\xca\xc1\xbe='
p5315
tp5316
Rp5317
tp5318
a(g44
g6
(g18
S'c\x8a\x9e='
p5319
tp5320
Rp5321
tp5322
asg73
g32
sa(dp5323
g2
S'../../../data/emanuela/activity-recognition/images/NTCIR-Lifelog-256/u1/2015-02-23/b00000664_21i6bq_20150223_140136e.jpg'
p5324
sg4
(lp5325
(g32
g6
(g18
S'\xafs~?'
p5326
tp5327
Rp5328
tp5329
a(g56
g6
(g18
S'\x87\xb9\x93;'
p5330
tp5331
Rp5332
tp5333
a(g131
g6
(g18
S'\xf6\xc3\x95:'
p5334
tp5335
Rp5336
tp5337
a(g15
g6
(g18
S'\xba\xeaH9'
p5338
tp5339
Rp5340
tp5341
a(g96
g6
(g18
S'\xbfI\xd78'
p5342
tp5343
Rp5344
tp5345
asg73
g32
sa(dp5346
g2
S'../../../data/emanuela/activity-recognition/images/NTCIR-Lifelog-256/u1/2015-02-24/b00000473_21i6bq_20150224_112937e.jpg'
p5347
sg4
(lp5348
(g32
g6
(g18
S'\xce\x81n?'
p5349
tp5350
Rp5351
tp5352
a(g56
g6
(g18
S'G\x9a\x81='
p5353
tp5354
Rp5355
tp5356
a(g15
g6
(g18
S'\xfe^X;'
p5357
tp5358
Rp5359
tp5360
a(g158
g6
(g18
S'n\x82\xcb:'
p5361
tp5362
Rp5363
tp5364
a(g44
g6
(g18
S'\x16B\xc58'
p5365
tp5366
Rp5367
tp5368
asg73
g32
sa(dp5369
g2
S'../../../data/emanuela/activity-recognition/images/NTCIR-Lifelog-256/u1/2015-03-16/b00002912_21i6bq_20150316_201112e.jpg'
p5370
sg4
(lp5371
(g32
g6
(g18
S'\xc9\xb9T?'
p5372
tp5373
Rp5374
tp5375
a(g56
g6
(g18
S'(K\x08>'
p5376
tp5377
Rp5378
tp5379
a(g158
g6
(g18
S'<\xf1\xee<'
p5380
tp5381
Rp5382
tp5383
a(g15
g6
(g18
S'\xb7uR;'
p5384
tp5385
Rp5386
tp5387
a(g44
g6
(g18
S'ln\xc3:'
p5388
tp5389
Rp5390
tp5391
asg73
g32
sa(dp5392
g2
S'../../../data/emanuela/activity-recognition/images/NTCIR-Lifelog-256/u1/2015-03-01/b00000503_21i6bq_20150301_115131e.jpg'
p5393
sg4
(lp5394
(g32
g6
(g18
S'*\x8as?'
p5395
tp5396
Rp5397
tp5398
a(g44
g6
(g18
S'\x12\xca\xa2<'
p5399
tp5400
Rp5401
tp5402
a(g56
g6
(g18
S'\xf9\xbar<'
p5403
tp5404
Rp5405
tp5406
a(g15
g6
(g18
S'\x01hK<'
p5407
tp5408
Rp5409
tp5410
a(g68
g6
(g18
S'\x1f\xc4\x10:'
p5411
tp5412
Rp5413
tp5414
asg73
g32
sa(dp5415
g2
S'../../../data/emanuela/activity-recognition/images/NTCIR-Lifelog-256/u1/2015-02-25/b00000969_21i6bq_20150225_160655e.jpg'
p5416
sg4
(lp5417
(g96
g6
(g18
S'\xa8\xc2\xc5>'
p5418
tp5419
Rp5420
tp5421
a(g131
g6
(g18
S'\x1a\xc2\x87>'
p5422
tp5423
Rp5424
tp5425
a(g44
g6
(g18
S'}\x95\xf9='
p5426
tp5427
Rp5428
tp5429
a(g216
g6
(g18
S'\xfcOD='
p5430
tp5431
Rp5432
tp5433
a(g15
g6
(g18
S'\xf7-2='
p5434
tp5435
Rp5436
tp5437
asg73
g32
sa(dp5438
g2
S'../../../data/emanuela/activity-recognition/images/NTCIR-Lifelog-256/u1/2015-02-25/b00000994_21i6bq_20150225_162211e.jpg'
p5439
sg4
(lp5440
(g32
g6
(g18
S'\xd5\xd2y?'
p5441
tp5442
Rp5443
tp5444
a(g56
g6
(g18
S'\xb0F\xa4<'
p5445
tp5446
Rp5447
tp5448
a(g96
g6
(g18
S'\x13\xf7\xc4:'
p5449
tp5450
Rp5451
tp5452
a(g158
g6
(g18
S'\x940`:'
p5453
tp5454
Rp5455
tp5456
a(g131
g6
(g18
S'\xf4\xce\r:'
p5457
tp5458
Rp5459
tp5460
asg73
g32
sa(dp5461
g2
S'../../../data/emanuela/activity-recognition/images/NTCIR-Lifelog-256/u1/2015-03-01/b00000495_21i6bq_20150301_114642e.jpg'
p5462
sg4
(lp5463
(g32
g6
(g18
S'B\xcf1?'
p5464
tp5465
Rp5466
tp5467
a(g56
g6
(g18
S'J\x13\x9c>'
p5468
tp5469
Rp5470
tp5471
a(g15
g6
(g18
S'Z$\xc89'
p5472
tp5473
Rp5474
tp5475
a(g68
g6
(g18
S'\x93r\xd48'
p5476
tp5477
Rp5478
tp5479
a(g44
g6
(g18
S'\xedq\xae8'
p5480
tp5481
Rp5482
tp5483
asg73
g32
sa(dp5484
g2
S'../../../data/emanuela/activity-recognition/images/NTCIR-Lifelog-256/u1/2015-02-26/b00000776_21i6bq_20150226_143152e.jpg'
p5485
sg4
(lp5486
(g56
g6
(g18
S'\xb7\x8f\x15?'
p5487
tp5488
Rp5489
tp5490
a(g32
g6
(g18
S'2\xae\xd2>'
p5491
tp5492
Rp5493
tp5494
a(g15
g6
(g18
S'\x0e\xfd\x05;'
p5495
tp5496
Rp5497
tp5498
a(g68
g6
(g18
S'%\xd8h:'
p5499
tp5500
Rp5501
tp5502
a(g158
g6
(g18
S'\xb4.\x1d:'
p5503
tp5504
Rp5505
tp5506
asg73
g32
sa(dp5507
g2
S'../../../data/emanuela/activity-recognition/images/NTCIR-Lifelog-256/u1/2015-03-11/b00001240_21i6bq_20150311_205541e.jpg'
p5508
sg4
(lp5509
(g56
g6
(g18
S'\x84\xcdC?'
p5510
tp5511
Rp5512
tp5513
a(g32
g6
(g18
S'\xcbxF>'
p5514
tp5515
Rp5516
tp5517
a(g15
g6
(g18
S'A\x12\x12='
p5518
tp5519
Rp5520
tp5521
a(g44
g6
(g18
S'\xe4\x01\x87;'
p5522
tp5523
Rp5524
tp5525
a(g96
g6
(g18
S'\xdb\x84\xd09'
p5526
tp5527
Rp5528
tp5529
asg73
g32
sa(dp5530
g2
S'../../../data/emanuela/activity-recognition/images/NTCIR-Lifelog-256/u1/2015-02-24/b00000937_21i6bq_20150224_161345e.jpg'
p5531
sg4
(lp5532
(g32
g6
(g18
S'T\xf4\x16?'
p5533
tp5534
Rp5535
tp5536
a(g56
g6
(g18
S'f$\xcc>'
p5537
tp5538
Rp5539
tp5540
a(g15
g6
(g18
S'<=\xca;'
p5541
tp5542
Rp5543
tp5544
a(g158
g6
(g18
S'\xa0S\xf3:'
p5545
tp5546
Rp5547
tp5548
a(g131
g6
(g18
S'E\xc0}:'
p5549
tp5550
Rp5551
tp5552
asg73
g32
sa(dp5553
g2
S'../../../data/emanuela/activity-recognition/images/NTCIR-Lifelog-256/u1/2015-02-23/b00000686_21i6bq_20150223_141503e.jpg'
p5554
sg4
(lp5555
(g32
g6
(g18
S'\xe4\x90\x06?'
p5556
tp5557
Rp5558
tp5559
a(g15
g6
(g18
S'\xce\x02->'
p5560
tp5561
Rp5562
tp5563
a(g131
g6
(g18
S'\xf6\xeb$>'
p5564
tp5565
Rp5566
tp5567
a(g44
g6
(g18
S'\xa4m\xc3='
p5568
tp5569
Rp5570
tp5571
a(g96
g6
(g18
S'\x87\x04\x0e='
p5572
tp5573
Rp5574
tp5575
asg73
g32
sa(dp5576
g2
S'../../../data/emanuela/activity-recognition/images/NTCIR-Lifelog-256/u1/2015-03-01/b00000496_21i6bq_20150301_114716e.jpg'
p5577
sg4
(lp5578
(g32
g6
(g18
S'\xe6\xf2u?'
p5579
tp5580
Rp5581
tp5582
a(g56
g6
(g18
S'\xf8v\xf9<'
p5583
tp5584
Rp5585
tp5586
a(g44
g6
(g18
S'\xcf;\xcd;'
p5587
tp5588
Rp5589
tp5590
a(g15
g6
(g18
S'\xec\xd1\xc8:'
p5591
tp5592
Rp5593
tp5594
a(g96
g6
(g18
S'\xde\x8c\xad9'
p5595
tp5596
Rp5597
tp5598
asg73
g32
sa(dp5599
g2
S'../../../data/emanuela/activity-recognition/images/NTCIR-Lifelog-256/u1/2015-02-26/b00000770_21i6bq_20150226_142813e.jpg'
p5600
sg4
(lp5601
(g32
g6
(g18
S'p\xc2a?'
p5602
tp5603
Rp5604
tp5605
a(g56
g6
(g18
S'\xe5P\xf0='
p5606
tp5607
Rp5608
tp5609
a(g158
g6
(g18
S'\x9b\xe6\xe09'
p5610
tp5611
Rp5612
tp5613
a(g15
g6
(g18
S'k\x00B9'
p5614
tp5615
Rp5616
tp5617
a(g68
g6
(g18
S'z\xd7\x8c8'
p5618
tp5619
Rp5620
tp5621
asg73
g32
sa(dp5622
g2
S'../../../data/emanuela/activity-recognition/images/NTCIR-Lifelog-256/u1/2015-03-11/b00001294_21i6bq_20150311_214223e.jpg'
p5623
sg4
(lp5624
(g56
g6
(g18
S'D\xbf(?'
p5625
tp5626
Rp5627
tp5628
a(g15
g6
(g18
S'\xa7\xa3\x1b>'
p5629
tp5630
Rp5631
tp5632
a(g32
g6
(g18
S'\x9c;\xa1='
p5633
tp5634
Rp5635
tp5636
a(g68
g6
(g18
S'\x0fu\xf8<'
p5637
tp5638
Rp5639
tp5640
a(g316
g6
(g18
S'\xa1i\xd7<'
p5641
tp5642
Rp5643
tp5644
asg73
g32
sa(dp5645
g2
S'../../../data/emanuela/activity-recognition/images/NTCIR-Lifelog-256/u1/2015-03-04/b00000971_21i6bq_20150304_170314e.jpg'
p5646
sg4
(lp5647
(g32
g6
(g18
S'Y?O?'
p5648
tp5649
Rp5650
tp5651
a(g56
g6
(g18
S'\x88\xa48>'
p5652
tp5653
Rp5654
tp5655
a(g158
g6
(g18
S'\xc3\x87\xbf;'
p5656
tp5657
Rp5658
tp5659
a(g15
g6
(g18
S';\x1eh;'
p5660
tp5661
Rp5662
tp5663
a(g68
g6
(g18
S'\x93\xe6i9'
p5664
tp5665
Rp5666
tp5667
asg73
g32
sa(dp5668
g2
S'../../../data/emanuela/activity-recognition/images/NTCIR-Lifelog-256/u1/2015-02-26/b00000787_21i6bq_20150226_143820e.jpg'
p5669
sg4
(lp5670
(g56
g6
(g18
S'\xac\x9e"?'
p5671
tp5672
Rp5673
tp5674
a(g32
g6
(g18
S'K\xae\xb7>'
p5675
tp5676
Rp5677
tp5678
a(g15
g6
(g18
S'.pA;'
p5679
tp5680
Rp5681
tp5682
a(g68
g6
(g18
S":'\xd1:"
p5683
tp5684
Rp5685
tp5686
a(g158
g6
(g18
S'l\xc0\x91:'
p5687
tp5688
Rp5689
tp5690
asg73
g32
sa(dp5691
g2
S'../../../data/emanuela/activity-recognition/images/NTCIR-Lifelog-256/u1/2015-02-24/b00000928_21i6bq_20150224_160822e.jpg'
p5692
sg4
(lp5693
(g32
g6
(g18
S'\xb8\xf2\xce>'
p5694
tp5695
Rp5696
tp5697
a(g131
g6
(g18
S'\xdb\xeco>'
p5698
tp5699
Rp5700
tp5701
a(g56
g6
(g18
S'\xa6y->'
p5702
tp5703
Rp5704
tp5705
a(g15
g6
(g18
S'\x90\xd9\x85='
p5706
tp5707
Rp5708
tp5709
a(g96
g6
(g18
S'\x8d}}='
p5710
tp5711
Rp5712
tp5713
asg73
g32
sa(dp5714
g2
S'../../../data/emanuela/activity-recognition/images/NTCIR-Lifelog-256/u1/2015-02-24/b00001178_21i6bq_20150224_184614e.jpg'
p5715
sg4
(lp5716
(g158
g6
(g18
S'~l~?'
p5717
tp5718
Rp5719
tp5720
a(g216
g6
(g18
S'\x07\x95?;'
p5721
tp5722
Rp5723
tp5724
a(g32
g6
(g18
S'-\xd9\xb5:'
p5725
tp5726
Rp5727
tp5728
a(g15
g6
(g18
S'5\xd5\xa1:'
p5729
tp5730
Rp5731
tp5732
a(g56
g6
(g18
S'ZkS9'
p5733
tp5734
Rp5735
tp5736
asg73
g32
sa(dp5737
g2
S'../../../data/emanuela/activity-recognition/images/NTCIR-Lifelog-256/u1/2015-02-26/b00000762_21i6bq_20150226_142314e.jpg'
p5738
sg4
(lp5739
(g56
g6
(g18
S'_\xf9\x1b?'
p5740
tp5741
Rp5742
tp5743
a(g32
g6
(g18
S'E\xff\x9d>'
p5744
tp5745
Rp5746
tp5747
a(g15
g6
(g18
S'J\x1e?='
p5748
tp5749
Rp5750
tp5751
a(g68
g6
(g18
S'\x81%u<'
p5752
tp5753
Rp5754
tp5755
a(g44
g6
(g18
S"\xbc'><"
p5756
tp5757
Rp5758
tp5759
asg73
g32
sa(dp5760
g2
S'../../../data/emanuela/activity-recognition/images/NTCIR-Lifelog-256/u1/2015-02-24/b00000926_21i6bq_20150224_160712e.jpg'
p5761
sg4
(lp5762
(g32
g6
(g18
S'\xca\x15\x1b?'
p5763
tp5764
Rp5765
tp5766
a(g56
g6
(g18
S'c\x9c\xb9>'
p5767
tp5768
Rp5769
tp5770
a(g158
g6
(g18
S'B\x08\x08<'
p5771
tp5772
Rp5773
tp5774
a(g131
g6
(g18
S'\xc8b\xe7;'
p5775
tp5776
Rp5777
tp5778
a(g96
g6
(g18
S'``\x85;'
p5779
tp5780
Rp5781
tp5782
asg73
g32
sa(dp5783
g2
S'../../../data/emanuela/activity-recognition/images/NTCIR-Lifelog-256/u1/2015-03-16/b00002902_21i6bq_20150316_200255e.jpg'
p5784
sg4
(lp5785
(g15
g6
(g18
S'\xcayV?'
p5786
tp5787
Rp5788
tp5789
a(g32
g6
(g18
S'\x0b\x11\x08>'
p5790
tp5791
Rp5792
tp5793
a(g56
g6
(g18
S'\xbe\xee\x89<'
p5794
tp5795
Rp5796
tp5797
a(g44
g6
(g18
S'\xe4D\xf1;'
p5798
tp5799
Rp5800
tp5801
a(g158
g6
(g18
S'\xfb\xc5);'
p5802
tp5803
Rp5804
tp5805
asg73
g32
sa(dp5806
g2
S'../../../data/emanuela/activity-recognition/images/NTCIR-Lifelog-256/u1/2015-03-04/b00001013_21i6bq_20150304_173026e.jpg'
p5807
sg4
(lp5808
(g32
g6
(g18
S'\xe2\x19h?'
p5809
tp5810
Rp5811
tp5812
a(g56
g6
(g18
S'\x95\xf6\xac='
p5813
tp5814
Rp5815
tp5816
a(g15
g6
(g18
S'\xea\x04\\;'
p5817
tp5818
Rp5819
tp5820
a(g158
g6
(g18
S'\x8eL<;'
p5821
tp5822
Rp5823
tp5824
a(g44
g6
(g18
S'x\xa4\x03:'
p5825
tp5826
Rp5827
tp5828
asg73
g32
sa(dp5829
g2
S'../../../data/emanuela/activity-recognition/images/NTCIR-Lifelog-256/u1/2015-02-25/b00001012_21i6bq_20150225_163316e.jpg'
p5830
sg4
(lp5831
(g32
g6
(g18
S'};{?'
p5832
tp5833
Rp5834
tp5835
a(g56
g6
(g18
S'\xed\xa1T<'
p5836
tp5837
Rp5838
tp5839
a(g158
g6
(g18
S'\x18\x98Z;'
p5840
tp5841
Rp5842
tp5843
a(g96
g6
(g18
S'DmK:'
p5844
tp5845
Rp5846
tp5847
a(g15
g6
(g18
S'\xb8D\x02:'
p5848
tp5849
Rp5850
tp5851
asg73
g32
sa(dp5852
g2
S'../../../data/emanuela/activity-recognition/images/NTCIR-Lifelog-256/u1/2015-03-04/b00000974_21i6bq_20150304_170457e.jpg'
p5853
sg4
(lp5854
(g32
g6
(g18
S'\x7fDV?'
p5855
tp5856
Rp5857
tp5858
a(g56
g6
(g18
S'L9\x18>'
p5859
tp5860
Rp5861
tp5862
a(g158
g6
(g18
S'\x8d<N<'
p5863
tp5864
Rp5865
tp5866
a(g15
g6
(g18
S'Tm\x01:'
p5867
tp5868
Rp5869
tp5870
a(g68
g6
(g18
S'\xb1\x98\xde9'
p5871
tp5872
Rp5873
tp5874
asg73
g32
sa(dp5875
g2
S'../../../data/emanuela/activity-recognition/images/NTCIR-Lifelog-256/u1/2015-03-04/b00001012_21i6bq_20150304_172951e.jpg'
p5876
sg4
(lp5877
(g32
g6
(g18
S'>ZF?'
p5878
tp5879
Rp5880
tp5881
a(g56
g6
(g18
S'\x92\xaeR>'
p5882
tp5883
Rp5884
tp5885
a(g158
g6
(g18
S' \x9a=<'
p5886
tp5887
Rp5888
tp5889
a(g15
g6
(g18
S'\xcf?Y;'
p5890
tp5891
Rp5892
tp5893
a(g96
g6
(g18
S'@\xad\xd5:'
p5894
tp5895
Rp5896
tp5897
asg73
g32
sa(dp5898
g2
S'../../../data/emanuela/activity-recognition/images/NTCIR-Lifelog-256/u1/2015-03-04/b00000983_21i6bq_20150304_171116e.jpg'
p5899
sg4
(lp5900
(g32
g6
(g18
S'\x98#o?'
p5901
tp5902
Rp5903
tp5904
a(g56
g6
(g18
S'p9y='
p5905
tp5906
Rp5907
tp5908
a(g158
g6
(g18
S"%'Z;"
p5909
tp5910
Rp5911
tp5912
a(g96
g6
(g18
S'w\xf6f:'
p5913
tp5914
Rp5915
tp5916
a(g15
g6
(g18
S'\x83\xae\x949'
p5917
tp5918
Rp5919
tp5920
asg73
g32
sa(dp5921
g2
S'../../../data/emanuela/activity-recognition/images/NTCIR-Lifelog-256/u1/2015-02-24/b00000916_21i6bq_20150224_160100e.jpg'
p5922
sg4
(lp5923
(g32
g6
(g18
S'\xa6]\xe6>'
p5924
tp5925
Rp5926
tp5927
a(g15
g6
(g18
S'\xe9\xdb0>'
p5928
tp5929
Rp5930
tp5931
a(g44
g6
(g18
S'\xda\xa3\xda='
p5932
tp5933
Rp5934
tp5935
a(g56
g6
(g18
S'\xe2\xb1\xd6='
p5936
tp5937
Rp5938
tp5939
a(g131
g6
(g18
S'\x84\x9e\xca='
p5940
tp5941
Rp5942
tp5943
asg73
g32
sa(dp5944
g2
S'../../../data/emanuela/activity-recognition/images/NTCIR-Lifelog-256/u1/2015-02-23/b00000667_21i6bq_20150223_140327e.jpg'
p5945
sg4
(lp5946
(g32
g6
(g18
S'?k}?'
p5947
tp5948
Rp5949
tp5950
a(g56
g6
(g18
S'\xfdo\x1f<'
p5951
tp5952
Rp5953
tp5954
a(g131
g6
(g18
S'>&f9'
p5955
tp5956
Rp5957
tp5958
a(g15
g6
(g18
S'\x95\xae\xb18'
p5959
tp5960
Rp5961
tp5962
a(g44
g6
(g18
S'\xea.\xb77'
p5963
tp5964
Rp5965
tp5966
asg73
g32
sa(dp5967
g2
S'../../../data/emanuela/activity-recognition/images/NTCIR-Lifelog-256/u1/2015-02-25/b00000975_21i6bq_20150225_161036e.jpg'
p5968
sg4
(lp5969
(g1122
g6
(g18
S'+\x80\x92>'
p5970
tp5971
Rp5972
tp5973
a(g56
g6
(g18
S'\xbd\x16C>'
p5974
tp5975
Rp5976
tp5977
a(g2454
g6
(g18
S'S\xcf\x04>'
p5978
tp5979
Rp5980
tp5981
a(g131
g6
(g18
S'G\xec\xf3='
p5982
tp5983
Rp5984
tp5985
a(g96
g6
(g18
S'.\xd2\x84='
p5986
tp5987
Rp5988
tp5989
asg73
g32
sa(dp5990
g2
S'../../../data/emanuela/activity-recognition/images/NTCIR-Lifelog-256/u1/2015-03-11/b00001310_21i6bq_20150311_215215e.jpg'
p5991
sg4
(lp5992
(g15
g6
(g18
S'\xc4-L?'
p5993
tp5994
Rp5995
tp5996
a(g32
g6
(g18
S'\xfbQt='
p5997
tp5998
Rp5999
tp6000
a(g44
g6
(g18
S'P\x1ed='
p6001
tp6002
Rp6003
tp6004
a(g56
g6
(g18
S'\x1b\x00_='
p6005
tp6006
Rp6007
tp6008
a(g316
g6
(g18
S'a\xa7r<'
p6009
tp6010
Rp6011
tp6012
asg73
g32
sa(dp6013
g2
S'../../../data/emanuela/activity-recognition/images/NTCIR-Lifelog-256/u1/2015-03-11/b00001227_21i6bq_20150311_203543e.jpg'
p6014
sg4
(lp6015
(g131
g6
(g18
S'\xd9z\x0e?'
p6016
tp6017
Rp6018
tp6019
a(g56
g6
(g18
S'm\xfdd>'
p6020
tp6021
Rp6022
tp6023
a(g32
g6
(g18
S'A\x11r='
p6024
tp6025
Rp6026
tp6027
a(g15
g6
(g18
S'UjY='
p6028
tp6029
Rp6030
tp6031
a(g96
g6
(g18
S'\x1f\x00\x08='
p6032
tp6033
Rp6034
tp6035
asg73
g32
sa(dp6036
g2
S'../../../data/emanuela/activity-recognition/images/NTCIR-Lifelog-256/u1/2015-02-25/b00001016_21i6bq_20150225_163544e.jpg'
p6037
sg4
(lp6038
(g32
g6
(g18
S'R\x88x?'
p6039
tp6040
Rp6041
tp6042
a(g56
g6
(g18
S'\x066\xd4<'
p6043
tp6044
Rp6045
tp6046
a(g158
g6
(g18
S'\x91c\x19;'
p6047
tp6048
Rp6049
tp6050
a(g15
g6
(g18
S'\x03\x17":'
p6051
tp6052
Rp6053
tp6054
a(g44
g6
(g18
S'\xe6\xef\x139'
p6055
tp6056
Rp6057
tp6058
asg73
g32
sa(dp6059
g2
S'../../../data/emanuela/activity-recognition/images/NTCIR-Lifelog-256/u1/2015-03-01/b00000487_21i6bq_20150301_114115e.jpg'
p6060
sg4
(lp6061
(g32
g6
(g18
S'\xe6\xfb\xfc>'
p6062
tp6063
Rp6064
tp6065
a(g15
g6
(g18
S'\xbf|\xde>'
p6066
tp6067
Rp6068
tp6069
a(g56
g6
(g18
S';kc='
p6070
tp6071
Rp6072
tp6073
a(g44
g6
(g18
S'X\xe9l<'
p6074
tp6075
Rp6076
tp6077
a(g68
g6
(g18
S'\x11\xcc\xf59'
p6078
tp6079
Rp6080
tp6081
asg73
g32
sa(dp6082
g2
S'../../../data/emanuela/activity-recognition/images/NTCIR-Lifelog-256/u1/2015-02-26/b00000753_21i6bq_20150226_141731e.jpg'
p6083
sg4
(lp6084
(g32
g6
(g18
S'P1<?'
p6085
tp6086
Rp6087
tp6088
a(g56
g6
(g18
S'\x0b\x10\x82>'
p6089
tp6090
Rp6091
tp6092
a(g158
g6
(g18
S'\xd3y\xa5;'
p6093
tp6094
Rp6095
tp6096
a(g15
g6
(g18
S'\xd8\xbeW;'
p6097
tp6098
Rp6099
tp6100
a(g68
g6
(g18
S'b#\x96:'
p6101
tp6102
Rp6103
tp6104
asg73
g32
sa(dp6105
g2
S'../../../data/emanuela/activity-recognition/images/NTCIR-Lifelog-256/u1/2015-02-24/b00000925_21i6bq_20150224_160636e.jpg'
p6106
sg4
(lp6107
(g56
g6
(g18
S'uy$?'
p6108
tp6109
Rp6110
tp6111
a(g32
g6
(g18
S'\x8de\xb0>'
p6112
tp6113
Rp6114
tp6115
a(g15
g6
(g18
S'\xa9[\xf1;'
p6116
tp6117
Rp6118
tp6119
a(g131
g6
(g18
S'm\x13\xef:'
p6120
tp6121
Rp6122
tp6123
a(g158
g6
(g18
S'K\xf3\xa5:'
p6124
tp6125
Rp6126
tp6127
asg73
g32
sa(dp6128
g2
S'../../../data/emanuela/activity-recognition/images/NTCIR-Lifelog-256/u1/2015-03-01/b00000505_21i6bq_20150301_115244e.jpg'
p6129
sg4
(lp6130
(g44
g6
(g18
S'\x15\xc6\x0c?'
p6131
tp6132
Rp6133
tp6134
a(g32
g6
(g18
S'?1t>'
p6135
tp6136
Rp6137
tp6138
a(g15
g6
(g18
S'\xd9\xdc >'
p6139
tp6140
Rp6141
tp6142
a(g96
g6
(g18
S'\x08\xe3\xba<'
p6143
tp6144
Rp6145
tp6146
a(g56
g6
(g18
S'\xffv\x81<'
p6147
tp6148
Rp6149
tp6150
asg73
g32
sa(dp6151
g2
S'../../../data/emanuela/activity-recognition/images/NTCIR-Lifelog-256/u1/2015-03-15/b00000875_21i6bq_20150315_160740e.jpg'
p6152
sg4
(lp6153
(g15
g6
(g18
S'yu\xed>'
p6154
tp6155
Rp6156
tp6157
a(g56
g6
(g18
S'&\xe5s>'
p6158
tp6159
Rp6160
tp6161
a(g32
g6
(g18
S'\xb1$@>'
p6162
tp6163
Rp6164
tp6165
a(g1122
g6
(g18
S'\xf3\x0b\x1f='
p6166
tp6167
Rp6168
tp6169
a(g158
g6
(g18
S'vX\xb9<'
p6170
tp6171
Rp6172
tp6173
asg73
g32
sa(dp6174
g2
S'../../../data/emanuela/activity-recognition/images/NTCIR-Lifelog-256/u1/2015-03-06/b00000872_21i6bq_20150306_142653e.jpg'
p6175
sg4
(lp6176
(g56
g6
(g18
S'>\xace>'
p6177
tp6178
Rp6179
tp6180
a(g15
g6
(g18
S'#\xafb>'
p6181
tp6182
Rp6183
tp6184
a(g1122
g6
(g18
S'\xa5\xe48>'
p6185
tp6186
Rp6187
tp6188
a(g216
g6
(g18
S'\xc2\xaf\x8f='
p6189
tp6190
Rp6191
tp6192
a(g131
g6
(g18
S'P\x9co='
p6193
tp6194
Rp6195
tp6196
asg73
g32
sa(dp6197
g2
S'../../../data/emanuela/activity-recognition/images/NTCIR-Lifelog-256/u1/2015-02-25/b00001002_21i6bq_20150225_162704e.jpg'
p6198
sg4
(lp6199
(g32
g6
(g18
S'\xf0\xb6!?'
p6200
tp6201
Rp6202
tp6203
a(g56
g6
(g18
S'3\x81\x14>'
p6204
tp6205
Rp6206
tp6207
a(g131
g6
(g18
S'\x8a\xc3\x93='
p6208
tp6209
Rp6210
tp6211
a(g15
g6
(g18
S' \x92\x88='
p6212
tp6213
Rp6214
tp6215
a(g96
g6
(g18
S"\x90n'="
p6216
tp6217
Rp6218
tp6219
asg73
g32
sa(dp6220
g2
S'../../../data/emanuela/activity-recognition/images/NTCIR-Lifelog-256/u1/2015-03-01/b00000498_21i6bq_20150301_114825e.jpg'
p6221
sg4
(lp6222
(g32
g6
(g18
S'\x9cqo?'
p6223
tp6224
Rp6225
tp6226
a(g15
g6
(g18
S',\xa7:='
p6227
tp6228
Rp6229
tp6230
a(g56
g6
(g18
S"'\x9d\x1f<"
p6231
tp6232
Rp6233
tp6234
a(g44
g6
(g18
S'\xf9O\x02<'
p6235
tp6236
Rp6237
tp6238
a(g96
g6
(g18
S'\xe8W\x13:'
p6239
tp6240
Rp6241
tp6242
asg73
g32
sa(dp6243
g2
S'../../../data/emanuela/activity-recognition/images/NTCIR-Lifelog-256/u1/2015-02-26/b00000744_21i6bq_20150226_141718e.jpg'
p6244
sg4
(lp6245
(g32
g6
(g18
S'C\xd18?'
p6246
tp6247
Rp6248
tp6249
a(g56
g6
(g18
S'\xfbe\x8c>'
p6250
tp6251
Rp6252
tp6253
a(g158
g6
(g18
S'C\x14\x04;'
p6254
tp6255
Rp6256
tp6257
a(g68
g6
(g18
S'\xd0\xa4\xdd:'
p6258
tp6259
Rp6260
tp6261
a(g443
g6
(g18
S'T\xff\xfd7'
p6262
tp6263
Rp6264
tp6265
asg73
g32
sa(dp6266
g2
S'../../../data/emanuela/activity-recognition/images/NTCIR-Lifelog-256/u1/2015-03-01/b00000501_21i6bq_20150301_115009e.jpg'
p6267
sg4
(lp6268
(g32
g6
(g18
S'JOp?'
p6269
tp6270
Rp6271
tp6272
a(g15
g6
(g18
S'aR\xb2<'
p6273
tp6274
Rp6275
tp6276
a(g44
g6
(g18
S'4*\xa1<'
p6277
tp6278
Rp6279
tp6280
a(g56
g6
(g18
S'\x9a\xcd\x86<'
p6281
tp6282
Rp6283
tp6284
a(g68
g6
(g18
S'\x88\xeb\xc2:'
p6285
tp6286
Rp6287
tp6288
asg73
g32
sa(dp6289
g2
S'../../../data/emanuela/activity-recognition/images/NTCIR-Lifelog-256/u1/2015-03-01/b00000510_21i6bq_20150301_115530e.jpg'
p6290
sg4
(lp6291
(g44
g6
(g18
S'\x84k\x1d?'
p6292
tp6293
Rp6294
tp6295
a(g32
g6
(g18
S'O\xf0\x90>'
p6296
tp6297
Rp6298
tp6299
a(g15
g6
(g18
S'\x0eIK='
p6300
tp6301
Rp6302
tp6303
a(g96
g6
(g18
S'|\x9b\x0b='
p6304
tp6305
Rp6306
tp6307
a(g56
g6
(g18
S'\xdeF\n<'
p6308
tp6309
Rp6310
tp6311
asg73
g32
sa(dp6312
g2
S'../../../data/emanuela/activity-recognition/images/NTCIR-Lifelog-256/u1/2015-02-24/b00000924_21i6bq_20150224_160603e.jpg'
p6313
sg4
(lp6314
(g32
g6
(g18
S'\xed\xed\x17?'
p6315
tp6316
Rp6317
tp6318
a(g56
g6
(g18
S'ZZ\x95>'
p6319
tp6320
Rp6321
tp6322
a(g15
g6
(g18
S'\x89u\xfc<'
p6323
tp6324
Rp6325
tp6326
a(g158
g6
(g18
S'Az\x8e<'
p6327
tp6328
Rp6329
tp6330
a(g131
g6
(g18
S'\xbe \x8e<'
p6331
tp6332
Rp6333
tp6334
asg73
g32
sa(dp6335
g2
S'../../../data/emanuela/activity-recognition/images/NTCIR-Lifelog-256/u1/2015-02-23/b00000688_21i6bq_20150223_141616e.jpg'
p6336
sg4
(lp6337
(g32
g6
(g18
S'\xabu}?'
p6338
tp6339
Rp6340
tp6341
a(g15
g6
(g18
S'\xa0@\xb9;'
p6342
tp6343
Rp6344
tp6345
a(g131
g6
(g18
S'.4\xec:'
p6346
tp6347
Rp6348
tp6349
a(g56
g6
(g18
S'P\x95\xd1:'
p6350
tp6351
Rp6352
tp6353
a(g96
g6
(g18
S'\xc2+\xe29'
p6354
tp6355
Rp6356
tp6357
asg73
g32
sa(dp6358
g2
S'../../../data/emanuela/activity-recognition/images/NTCIR-Lifelog-256/u1/2015-03-02/b00000570_21i6bq_20150302_130129e.jpg'
p6359
sg4
(lp6360
(g32
g6
(g18
S'\xd8OV?'
p6361
tp6362
Rp6363
tp6364
a(g15
g6
(g18
S'8\xff\x00>'
p6365
tp6366
Rp6367
tp6368
a(g56
g6
(g18
S'iD\x0e='
p6369
tp6370
Rp6371
tp6372
a(g158
g6
(g18
S'%=\x96:'
p6373
tp6374
Rp6375
tp6376
a(g44
g6
(g18
S'\xd9\xe4\t:'
p6377
tp6378
Rp6379
tp6380
asg73
g32
sa(dp6381
g2
S'../../../data/emanuela/activity-recognition/images/NTCIR-Lifelog-256/u1/2015-02-25/b00000991_21i6bq_20150225_162017e.jpg'
p6382
sg4
(lp6383
(g32
g6
(g18
S'W\x0fQ?'
p6384
tp6385
Rp6386
tp6387
a(g56
g6
(g18
S'\xe3}:>'
p6388
tp6389
Rp6390
tp6391
a(g158
g6
(g18
S'\xf1v\xfb9'
p6392
tp6393
Rp6394
tp6395
a(g68
g6
(g18
S'\xa6\x8b|9'
p6396
tp6397
Rp6398
tp6399
a(g44
g6
(g18
S'\xc3\xa7;9'
p6400
tp6401
Rp6402
tp6403
asg73
g32
sa(dp6404
g2
S'../../../data/emanuela/activity-recognition/images/NTCIR-Lifelog-256/u1/2015-02-24/b00000478_21i6bq_20150224_113248e.jpg'
p6405
sg4
(lp6406
(g32
g6
(g18
S'\x0e\x1ae?'
p6407
tp6408
Rp6409
tp6410
a(g56
g6
(g18
S'\xf8\xbd\xac='
p6411
tp6412
Rp6413
tp6414
a(g15
g6
(g18
S'\x98\x1dO<'
p6415
tp6416
Rp6417
tp6418
a(g158
g6
(g18
S'$R\xa8;'
p6419
tp6420
Rp6421
tp6422
a(g44
g6
(g18
S'4\xb7";'
p6423
tp6424
Rp6425
tp6426
asg73
g32
sa(dp6427
g2
S'../../../data/emanuela/activity-recognition/images/NTCIR-Lifelog-256/u1/2015-03-16/b00002922_21i6bq_20150316_201912e.jpg'
p6428
sg4
(lp6429
(g15
g6
(g18
S'Z\x1d\x04?'
p6430
tp6431
Rp6432
tp6433
a(g158
g6
(g18
S'o\xe6X>'
p6434
tp6435
Rp6436
tp6437
a(g443
g6
(g18
S'\x97\x17\x1d='
p6438
tp6439
Rp6440
tp6441
a(g1122
g6
(g18
S'w6\x04='
p6442
tp6443
Rp6444
tp6445
a(g56
g6
(g18
S'\x98\xdf\x03='
p6446
tp6447
Rp6448
tp6449
asg73
g32
sa(dp6450
g2
S'../../../data/emanuela/activity-recognition/images/NTCIR-Lifelog-256/u1/2015-02-23/b00000660_21i6bq_20150223_135905e.jpg'
p6451
sg4
(lp6452
(g32
g6
(g18
S'\xf6\xf6~?'
p6453
tp6454
Rp6455
tp6456
a(g56
g6
(g18
S'\x0b-\x83;'
p6457
tp6458
Rp6459
tp6460
a(g15
g6
(g18
S'\x1eox7'
p6461
tp6462
Rp6463
tp6464
a(g96
g6
(g18
S'Z5\xea6'
p6465
tp6466
Rp6467
tp6468
a(g44
g6
(g18
S'\x8bq\xb36'
p6469
tp6470
Rp6471
tp6472
asg73
g32
sa(dp6473
g2
S'../../../data/emanuela/activity-recognition/images/NTCIR-Lifelog-256/u1/2015-03-11/b00001291_21i6bq_20150311_214111e.jpg'
p6474
sg4
(lp6475
(g56
g6
(g18
S'g\x1c\x94>'
p6476
tp6477
Rp6478
tp6479
a(g216
g6
(g18
S'\xedA">'
p6480
tp6481
Rp6482
tp6483
a(g1134
g6
(g18
S'\x08\x9b\xb8='
p6484
tp6485
Rp6486
tp6487
a(g316
g6
(g18
S'\x10n\xb0='
p6488
tp6489
Rp6490
tp6491
a(g5080
g6
(g18
S'TOv='
p6492
tp6493
Rp6494
tp6495
asg73
g32
sa(dp6496
g2
S'../../../data/emanuela/activity-recognition/images/NTCIR-Lifelog-256/u1/2015-03-01/b00000492_21i6bq_20150301_114421e.jpg'
p6497
sg4
(lp6498
(g56
g6
(g18
S'\xde\x1b\x01?'
p6499
tp6500
Rp6501
tp6502
a(g32
g6
(g18
S'S \xfd>'
p6503
tp6504
Rp6505
tp6506
a(g68
g6
(g18
S' \x17\xe79'
p6507
tp6508
Rp6509
tp6510
a(g15
g6
(g18
S's\xfe\xc69'
p6511
tp6512
Rp6513
tp6514
a(g44
g6
(g18
S'F\xcb\x929'
p6515
tp6516
Rp6517
tp6518
asg73
g32
sa(dp6519
g2
S'../../../data/emanuela/activity-recognition/images/NTCIR-Lifelog-256/u1/2015-03-11/b00001341_21i6bq_20150311_221736e.jpg'
p6520
sg4
(lp6521
(g32
g6
(g18
S'\x0cm5?'
p6522
tp6523
Rp6524
tp6525
a(g15
g6
(g18
S'\xdb\x01\x11>'
p6526
tp6527
Rp6528
tp6529
a(g56
g6
(g18
S'\xb1V\x84='
p6530
tp6531
Rp6532
tp6533
a(g44
g6
(g18
S'\xa3\xc7R='
p6534
tp6535
Rp6536
tp6537
a(g96
g6
(g18
S'\xcb\x89\x89<'
p6538
tp6539
Rp6540
tp6541
asg73
g32
sa(dp6542
g2
S'../../../data/emanuela/activity-recognition/images/NTCIR-Lifelog-256/u1/2015-02-25/b00001009_21i6bq_20150225_163122e.jpg'
p6543
sg4
(lp6544
(g32
g6
(g18
S'4|n?'
p6545
tp6546
Rp6547
tp6548
a(g158
g6
(g18
S'#\xeb\xb3<'
p6549
tp6550
Rp6551
tp6552
a(g56
g6
(g18
S'\\:\x9b<'
p6553
tp6554
Rp6555
tp6556
a(g96
g6
(g18
S'\xf6|\x13<'
p6557
tp6558
Rp6559
tp6560
a(g15
g6
(g18
S'g\xe7\xee;'
p6561
tp6562
Rp6563
tp6564
asg73
g32
sa(dp6565
g2
S'../../../data/emanuela/activity-recognition/images/NTCIR-Lifelog-256/u1/2015-02-27/b00000616_21i6bq_20150227_134544e.jpg'
p6566
sg4
(lp6567
(g32
g6
(g18
S'\x8ejz?'
p6568
tp6569
Rp6570
tp6571
a(g56
g6
(g18
S'\xf2\xc3\x9d<'
p6572
tp6573
Rp6574
tp6575
a(g158
g6
(g18
S'\xb6\xeb\xa4:'
p6576
tp6577
Rp6578
tp6579
a(g15
g6
(g18
S'\x8cz3:'
p6580
tp6581
Rp6582
tp6583
a(g96
g6
(g18
S'>\xe2\xcd9'
p6584
tp6585
Rp6586
tp6587
asg73
g32
sa(dp6588
g2
S'../../../data/emanuela/activity-recognition/images/NTCIR-Lifelog-256/u1/2015-02-23/b00000653_21i6bq_20150223_135432e.jpg'
p6589
sg4
(lp6590
(g32
g6
(g18
S'\xf40~?'
p6591
tp6592
Rp6593
tp6594
a(g56
g6
(g18
S'\xd0]\xc0;'
p6595
tp6596
Rp6597
tp6598
a(g15
g6
(g18
S'\xc8\x0e&:'
p6599
tp6600
Rp6601
tp6602
a(g131
g6
(g18
S'VC\x939'
p6603
tp6604
Rp6605
tp6606
a(g96
g6
(g18
S'/#\xe98'
p6607
tp6608
Rp6609
tp6610
asg73
g32
sa(dp6611
g2
S'../../../data/emanuela/activity-recognition/images/NTCIR-Lifelog-256/u1/2015-03-11/b00001281_21i6bq_20150311_213303e.jpg'
p6612
sg4
(lp6613
(g15
g6
(g18
S'\x07\xd4\xb0>'
p6614
tp6615
Rp6616
tp6617
a(g56
g6
(g18
S'\xe9\xc5\xad>'
p6618
tp6619
Rp6620
tp6621
a(g32
g6
(g18
S'%\x11<>'
p6622
tp6623
Rp6624
tp6625
a(g44
g6
(g18
S'\xed\xb9\x0c='
p6626
tp6627
Rp6628
tp6629
a(g216
g6
(g18
S'qQ\x00='
p6630
tp6631
Rp6632
tp6633
asg73
g32
sa(dp6634
g2
S'../../../data/emanuela/activity-recognition/images/NTCIR-Lifelog-256/u1/2015-03-16/b00002907_21i6bq_20150316_200753e.jpg'
p6635
sg4
(lp6636
(g32
g6
(g18
S'\xd5\xe7\xd6>'
p6637
tp6638
Rp6639
tp6640
a(g15
g6
(g18
S'c\x11V>'
p6641
tp6642
Rp6643
tp6644
a(g56
g6
(g18
S'y,\x19>'
p6645
tp6646
Rp6647
tp6648
a(g44
g6
(g18
S'\xed\x87\xeb='
p6649
tp6650
Rp6651
tp6652
a(g158
g6
(g18
S'G\x1f*='
p6653
tp6654
Rp6655
tp6656
asg73
g32
sa(dp6657
g2
S'../../../data/emanuela/activity-recognition/images/NTCIR-Lifelog-256/u1/2015-02-25/b00001006_21i6bq_20150225_162937e.jpg'
p6658
sg4
(lp6659
(g32
g6
(g18
S'\xe5.j?'
p6660
tp6661
Rp6662
tp6663
a(g56
g6
(g18
S'w@\x98='
p6664
tp6665
Rp6666
tp6667
a(g15
g6
(g18
S'\x88D\x8d;'
p6668
tp6669
Rp6670
tp6671
a(g131
g6
(g18
S'S\xa9\x08;'
p6672
tp6673
Rp6674
tp6675
a(g158
g6
(g18
S'\xdb\xcc\x90:'
p6676
tp6677
Rp6678
tp6679
asg73
g32
sa(dp6680
g2
S'../../../data/emanuela/activity-recognition/images/NTCIR-Lifelog-256/u1/2015-03-01/b00000513_21i6bq_20150301_115715e.jpg'
p6681
sg4
(lp6682
(g44
g6
(g18
S'\xe2\x8a\xea>'
p6683
tp6684
Rp6685
tp6686
a(g32
g6
(g18
S'\x05\r\xcf>'
p6687
tp6688
Rp6689
tp6690
a(g15
g6
(g18
S'\x88\xc8\xf4='
p6691
tp6692
Rp6693
tp6694
a(g96
g6
(g18
S'\xe7\xa5%<'
p6695
tp6696
Rp6697
tp6698
a(g56
g6
(g18
S';\xe9\x94;'
p6699
tp6700
Rp6701
tp6702
asg73
g32
sa(dp6703
g2
S'../../../data/emanuela/activity-recognition/images/NTCIR-Lifelog-256/u1/2015-03-16/b00002918_21i6bq_20150316_201604e.jpg'
p6704
sg4
(lp6705
(g15
g6
(g18
S'\x16(\xd9>'
p6706
tp6707
Rp6708
tp6709
a(g32
g6
(g18
S'\xdb<\\>'
p6710
tp6711
Rp6712
tp6713
a(g44
g6
(g18
S'\xdd\x15\xef='
p6714
tp6715
Rp6716
tp6717
a(g158
g6
(g18
S'\xc2\xb0\xb3='
p6718
tp6719
Rp6720
tp6721
a(g96
g6
(g18
S'\x88\xdb@='
p6722
tp6723
Rp6724
tp6725
asg73
g32
sa(dp6726
g2
S'../../../data/emanuela/activity-recognition/images/NTCIR-Lifelog-256/u1/2015-02-25/b00001022_21i6bq_20150225_163925e.jpg'
p6727
sg4
(lp6728
(g32
g6
(g18
S'\n\xc4k?'
p6729
tp6730
Rp6731
tp6732
a(g56
g6
(g18
S'\rno='
p6733
tp6734
Rp6735
tp6736
a(g15
g6
(g18
S'nI\xd7;'
p6737
tp6738
Rp6739
tp6740
a(g131
g6
(g18
S'\x16\xba\xb6;'
p6741
tp6742
Rp6743
tp6744
a(g158
g6
(g18
S'\xee\xa6\xa3;'
p6745
tp6746
Rp6747
tp6748
asg73
g32
sa(dp6749
g2
S'../../../data/emanuela/activity-recognition/images/NTCIR-Lifelog-256/u1/2015-02-25/b00000985_21i6bq_20150225_161638e.jpg'
p6750
sg4
(lp6751
(g56
g6
(g18
S'\xc3\x97I?'
p6752
tp6753
Rp6754
tp6755
a(g32
g6
(g18
S']\\T>'
p6756
tp6757
Rp6758
tp6759
a(g158
g6
(g18
S'1\xb0\x17;'
p6760
tp6761
Rp6762
tp6763
a(g131
g6
(g18
S'l\xbf\x1d:'
p6764
tp6765
Rp6766
tp6767
a(g96
g6
(g18
S'J\\\xdf9'
p6768
tp6769
Rp6770
tp6771
asg73
g32
sa(dp6772
g2
S'../../../data/emanuela/activity-recognition/images/NTCIR-Lifelog-256/u1/2015-03-04/b00000947_21i6bq_20150304_164758e.jpg'
p6773
sg4
(lp6774
(g32
g6
(g18
S'\xb8\xc3k?'
p6775
tp6776
Rp6777
tp6778
a(g56
g6
(g18
S'l\xf6t='
p6779
tp6780
Rp6781
tp6782
a(g158
g6
(g18
S'bGC<'
p6783
tp6784
Rp6785
tp6786
a(g15
g6
(g18
S'5\x86\xb2;'
p6787
tp6788
Rp6789
tp6790
a(g44
g6
(g18
S'\xdb\x12":'
p6791
tp6792
Rp6793
tp6794
asg73
g32
sa(dp6795
g2
S'../../../data/emanuela/activity-recognition/images/NTCIR-Lifelog-256/u1/2015-02-25/b00000961_21i6bq_20150225_160157e.jpg'
p6796
sg4
(lp6797
(g32
g6
(g18
S'\xdb\x92\xae>'
p6798
tp6799
Rp6800
tp6801
a(g131
g6
(g18
S'\xae\xcf\x15>'
p6802
tp6803
Rp6804
tp6805
a(g96
g6
(g18
S'\xe7\xa5\x05>'
p6806
tp6807
Rp6808
tp6809
a(g15
g6
(g18
S'\xe4\x86\xd9='
p6810
tp6811
Rp6812
tp6813
a(g56
g6
(g18
S'\xb5\x0e\xb2='
p6814
tp6815
Rp6816
tp6817
asg73
g32
sa(dp6818
g2
S'../../../data/emanuela/activity-recognition/images/NTCIR-Lifelog-256/u1/2015-02-25/b00001003_21i6bq_20150225_162742e.jpg'
p6819
sg4
(lp6820
(g32
g6
(g18
S'\xb5\xff$?'
p6821
tp6822
Rp6823
tp6824
a(g56
g6
(g18
S'\xaa\x15\x83>'
p6825
tp6826
Rp6827
tp6828
a(g158
g6
(g18
S'\x0bM\x07='
p6829
tp6830
Rp6831
tp6832
a(g216
g6
(g18
S'\x96\x17c<'
p6833
tp6834
Rp6835
tp6836
a(g96
g6
(g18
S'\xd2kR<'
p6837
tp6838
Rp6839
tp6840
asg73
g32
sa(dp6841
g2
S'../../../data/emanuela/activity-recognition/images/NTCIR-Lifelog-256/u1/2015-03-01/b00000506_21i6bq_20150301_115319e.jpg'
p6842
sg4
(lp6843
(g44
g6
(g18
S'\xd3\xcb\r?'
p6844
tp6845
Rp6846
tp6847
a(g32
g6
(g18
S'\x14\x1fx>'
p6848
tp6849
Rp6850
tp6851
a(g15
g6
(g18
S'\x97\xf2\x04>'
p6852
tp6853
Rp6854
tp6855
a(g96
g6
(g18
S'\xa7N\x06='
p6856
tp6857
Rp6858
tp6859
a(g56
g6
(g18
S'\x90\xdf\xc2<'
p6860
tp6861
Rp6862
tp6863
asg73
g32
sa(dp6864
g2
S'../../../data/emanuela/activity-recognition/images/NTCIR-Lifelog-256/u1/2015-02-26/b00000769_21i6bq_20150226_142735e.jpg'
p6865
sg4
(lp6866
(g32
g6
(g18
S'\xcf\xb7-?'
p6867
tp6868
Rp6869
tp6870
a(g56
g6
(g18
S'R4\x99>'
p6871
tp6872
Rp6873
tp6874
a(g15
g6
(g18
S'\x9eN\x8f<'
p6875
tp6876
Rp6877
tp6878
a(g158
g6
(g18
S'\xe0\xfc\xe1:'
p6879
tp6880
Rp6881
tp6882
a(g68
g6
(g18
S'D\x0f\xd5:'
p6883
tp6884
Rp6885
tp6886
asg73
g32
sa(dp6887
g2
S'../../../data/emanuela/activity-recognition/images/NTCIR-Lifelog-256/u1/2015-03-04/b00001020_21i6bq_20150304_173454e.jpg'
p6888
sg4
(lp6889
(g56
g6
(g18
S'po\xe9>'
p6890
tp6891
Rp6892
tp6893
a(g32
g6
(g18
S'\xecl\xc6>'
p6894
tp6895
Rp6896
tp6897
a(g5080
g6
(g18
S'\xe7\xe0[='
p6898
tp6899
Rp6900
tp6901
a(g15
g6
(g18
S'sf\x08='
p6902
tp6903
Rp6904
tp6905
a(g1122
g6
(g18
S'\xe5\xc3\xc3<'
p6906
tp6907
Rp6908
tp6909
asg73
g32
sa(dp6910
g2
S'../../../data/emanuela/activity-recognition/images/NTCIR-Lifelog-256/u1/2015-03-04/b00000960_21i6bq_20150304_165636e.jpg'
p6911
sg4
(lp6912
(g32
g6
(g18
S'\xe7Jm?'
p6913
tp6914
Rp6915
tp6916
a(g56
g6
(g18
S'\xb4\x1c\x8d='
p6917
tp6918
Rp6919
tp6920
a(g15
g6
(g18
S'$\x0b.;'
p6921
tp6922
Rp6923
tp6924
a(g158
g6
(g18
S'\xa3\xf7f:'
p6925
tp6926
Rp6927
tp6928
a(g44
g6
(g18
S'\xd3\xf0\xa29'
p6929
tp6930
Rp6931
tp6932
asg73
g32
sa(dp6933
g2
S'../../../data/emanuela/activity-recognition/images/NTCIR-Lifelog-256/u1/2015-02-26/b00000752_21i6bq_20150226_141724e.jpg'
p6934
sg4
(lp6935
(g32
g6
(g18
S'0\x0f\x14?'
p6936
tp6937
Rp6938
tp6939
a(g56
g6
(g18
S'\x8f\xd4\x1d>'
p6940
tp6941
Rp6942
tp6943
a(g15
g6
(g18
S'\xe9Q\xfa='
p6944
tp6945
Rp6946
tp6947
a(g44
g6
(g18
S'\x1cJ\xbc='
p6948
tp6949
Rp6950
tp6951
a(g158
g6
(g18
S'\r\x8b\xc1<'
p6952
tp6953
Rp6954
tp6955
asg73
g32
sa(dp6956
g2
S'../../../data/emanuela/activity-recognition/images/NTCIR-Lifelog-256/u1/2015-02-26/b00000755_21i6bq_20150226_141854e.jpg'
p6957
sg4
(lp6958
(g56
g6
(g18
S'W\xe0:?'
p6959
tp6960
Rp6961
tp6962
a(g68
g6
(g18
S'8\xde\x8e='
p6963
tp6964
Rp6965
tp6966
a(g32
g6
(g18
S'0\x8f\x84='
p6967
tp6968
Rp6969
tp6970
a(g1038
g6
(g18
S'3s*='
p6971
tp6972
Rp6973
tp6974
a(g15
g6
(g18
S'3\xb9\xd2<'
p6975
tp6976
Rp6977
tp6978
asg73
g32
sa(dp6979
g2
S'../../../data/emanuela/activity-recognition/images/NTCIR-Lifelog-256/u1/2015-02-24/b00000487_21i6bq_20150224_113819e.jpg'
p6980
sg4
(lp6981
(g32
g6
(g18
S'0\xf4A?'
p6982
tp6983
Rp6984
tp6985
a(g56
g6
(g18
S'd\xc2v>'
p6986
tp6987
Rp6988
tp6989
a(g15
g6
(g18
S'j\x01W:'
p6990
tp6991
Rp6992
tp6993
a(g44
g6
(g18
S'\xa5\x89\x8e9'
p6994
tp6995
Rp6996
tp6997
a(g158
g6
(g18
S'\x0fl.9'
p6998
tp6999
Rp7000
tp7001
asg73
g32
sa(dp7002
g2
S'../../../data/emanuela/activity-recognition/images/NTCIR-Lifelog-256/u1/2015-02-23/b00000655_21i6bq_20150223_135555e.jpg'
p7003
sg4
(lp7004
(g32
g6
(g18
S'\x18\xf9|?'
p7005
tp7006
Rp7007
tp7008
a(g56
g6
(g18
S'\x89\xaf?<'
p7009
tp7010
Rp7011
tp7012
a(g15
g6
(g18
S'\xb2\x8ek8'
p7013
tp7014
Rp7015
tp7016
a(g44
g6
(g18
S'"\xd7\x8a7'
p7017
tp7018
Rp7019
tp7020
a(g96
g6
(g18
S'\xfe\xbby7'
p7021
tp7022
Rp7023
tp7024
asg73
g32
sa(dp7025
g2
S'../../../data/emanuela/activity-recognition/images/NTCIR-Lifelog-256/u1/2015-03-11/b00001266_21i6bq_20150311_212007e.jpg'
p7026
sg4
(lp7027
(g56
g6
(g18
S't\x0eG?'
p7028
tp7029
Rp7030
tp7031
a(g131
g6
(g18
S'B\x06\xb2='
p7032
tp7033
Rp7034
tp7035
a(g216
g6
(g18
S'w\xe3P='
p7036
tp7037
Rp7038
tp7039
a(g1038
g6
(g18
S'\xee}V<'
p7040
tp7041
Rp7042
tp7043
a(g2454
g6
(g18
S'\x16\x16R<'
p7044
tp7045
Rp7046
tp7047
asg73
g32
sa(dp7048
g2
S'../../../data/emanuela/activity-recognition/images/NTCIR-Lifelog-256/u1/2015-02-25/b00001036_21i6bq_20150225_164750e.jpg'
p7049
sg4
(lp7050
(g96
g6
(g18
S'\xeb\xd3\x95>'
p7051
tp7052
Rp7053
tp7054
a(g216
g6
(g18
S'\xce\xf8\x14>'
p7055
tp7056
Rp7057
tp7058
a(g5080
g6
(g18
S'\x8f\x9d\x01>'
p7059
tp7060
Rp7061
tp7062
a(g32
g6
(g18
S'\xbf\xd6\xf2='
p7063
tp7064
Rp7065
tp7066
a(g15
g6
(g18
S'\x83\x8a\xb5='
p7067
tp7068
Rp7069
tp7070
asg73
g32
sa(dp7071
g2
S'../../../data/emanuela/activity-recognition/images/NTCIR-Lifelog-256/u1/2015-02-24/b00000936_21i6bq_20150224_161310e.jpg'
p7072
sg4
(lp7073
(g32
g6
(g18
S'G\n7?'
p7074
tp7075
Rp7076
tp7077
a(g56
g6
(g18
S'r\xb0\x8e>'
p7078
tp7079
Rp7080
tp7081
a(g15
g6
(g18
S'{\xc3`;'
p7082
tp7083
Rp7084
tp7085
a(g131
g6
(g18
S'\xe9\xa6\xbe:'
p7086
tp7087
Rp7088
tp7089
a(g158
g6
(g18
S'I&\xe69'
p7090
tp7091
Rp7092
tp7093
asg73
g32
sa(dp7094
g2
S'../../../data/emanuela/activity-recognition/images/NTCIR-Lifelog-256/u1/2015-03-01/b00000504_21i6bq_20150301_115211e.jpg'
p7095
sg4
(lp7096
(g44
g6
(g18
S'A\xc9\x1f?'
p7097
tp7098
Rp7099
tp7100
a(g32
g6
(g18
S'2\xf5\x82>'
p7101
tp7102
Rp7103
tp7104
a(g15
g6
(g18
S'\x0f\x82\x99='
p7105
tp7106
Rp7107
tp7108
a(g96
g6
(g18
S'\x0c\x95\x9c<'
p7109
tp7110
Rp7111
tp7112
a(g56
g6
(g18
S'\xe2\x83#<'
p7113
tp7114
Rp7115
tp7116
asg73
g32
sa(dp7117
g2
S'../../../data/emanuela/activity-recognition/images/NTCIR-Lifelog-256/u1/2015-02-25/b00000972_21i6bq_20150225_160846e.jpg'
p7118
sg4
(lp7119
(g1122
g6
(g18
S'\x17:\xec>'
p7120
tp7121
Rp7122
tp7123
a(g131
g6
(g18
S'8A\x86>'
p7124
tp7125
Rp7126
tp7127
a(g96
g6
(g18
S'\x8c\xcf\xfa='
p7128
tp7129
Rp7130
tp7131
a(g15
g6
(g18
S'\xe7\xcd,='
p7132
tp7133
Rp7134
tp7135
a(g216
g6
(g18
S'\x9fW\xb3<'
p7136
tp7137
Rp7138
tp7139
asg73
g32
sa(dp7140
g2
S'../../../data/emanuela/activity-recognition/images/NTCIR-Lifelog-256/u1/2015-02-26/b00000772_21i6bq_20150226_142929e.jpg'
p7141
sg4
(lp7142
(g32
g6
(g18
S']6A?'
p7143
tp7144
Rp7145
tp7146
a(g56
g6
(g18
S'8\x02z>'
p7147
tp7148
Rp7149
tp7150
a(g15
g6
(g18
S'\x9a\x198:'
p7151
tp7152
Rp7153
tp7154
a(g158
g6
(g18
S'\n\xb8L9'
p7155
tp7156
Rp7157
tp7158
a(g68
g6
(g18
S'Od\x129'
p7159
tp7160
Rp7161
tp7162
asg73
g32
sa(dp7163
g2
S'../../../data/emanuela/activity-recognition/images/NTCIR-Lifelog-256/u1/2015-03-04/b00000995_21i6bq_20150304_171827e.jpg'
p7164
sg4
(lp7165
(g15
g6
(g18
S'\xfby`>'
p7166
tp7167
Rp7168
tp7169
a(g96
g6
(g18
S'\\n<>'
p7170
tp7171
Rp7172
tp7173
a(g32
g6
(g18
S'4M\x17>'
p7174
tp7175
Rp7176
tp7177
a(g5080
g6
(g18
S'\x97.\x04>'
p7178
tp7179
Rp7180
tp7181
a(g216
g6
(g18
S'\x98\xdb\xb9='
p7182
tp7183
Rp7184
tp7185
asg73
g32
sa(dp7186
g2
S'../../../data/emanuela/activity-recognition/images/NTCIR-Lifelog-256/u1/2015-02-25/b00000966_21i6bq_20150225_160500e.jpg'
p7187
sg4
(lp7188
(g96
g6
(g18
S'\xfd7\xd3>'
p7189
tp7190
Rp7191
tp7192
a(g216
g6
(g18
S'N\xa1\xf7='
p7193
tp7194
Rp7195
tp7196
a(g131
g6
(g18
S'd\xae\xb1='
p7197
tp7198
Rp7199
tp7200
a(g44
g6
(g18
S'\x01\x85\x7f='
p7201
tp7202
Rp7203
tp7204
a(g158
g6
(g18
S'X;s='
p7205
tp7206
Rp7207
tp7208
asg73
g32
sa(dp7209
g2
S'../../../data/emanuela/activity-recognition/images/NTCIR-Lifelog-256/u1/2015-03-11/b00001323_21i6bq_20150311_220341e.jpg'
p7210
sg4
(lp7211
(g15
g6
(g18
S'\xa8\x90\x03?'
p7212
tp7213
Rp7214
tp7215
a(g44
g6
(g18
S'J.\xae>'
p7216
tp7217
Rp7218
tp7219
a(g96
g6
(g18
S'#\xd9\x15='
p7220
tp7221
Rp7222
tp7223
a(g32
g6
(g18
S'_\\\x02='
p7224
tp7225
Rp7226
tp7227
a(g56
g6
(g18
S'\x13E\xa5<'
p7228
tp7229
Rp7230
tp7231
asg73
g32
sa(dp7232
g2
S'../../../data/emanuela/activity-recognition/images/NTCIR-Lifelog-256/u1/2015-02-24/b00000477_21i6bq_20150224_113207e.jpg'
p7233
sg4
(lp7234
(g32
g6
(g18
S'\n m?'
p7235
tp7236
Rp7237
tp7238
a(g56
g6
(g18
S'\xdb\x83\x8b='
p7239
tp7240
Rp7241
tp7242
a(g158
g6
(g18
S'\xd4}F;'
p7243
tp7244
Rp7245
tp7246
a(g15
g6
(g18
S'\xf1<\xf4:'
p7247
tp7248
Rp7249
tp7250
a(g44
g6
(g18
S'\xac\xfe\x06:'
p7251
tp7252
Rp7253
tp7254
asg73
g32
sa(dp7255
g2
S'../../../data/emanuela/activity-recognition/images/NTCIR-Lifelog-256/u1/2015-02-24/b00001179_21i6bq_20150224_184649e.jpg'
p7256
sg4
(lp7257
(g158
g6
(g18
S'\xd6e\xd1>'
p7258
tp7259
Rp7260
tp7261
a(g32
g6
(g18
S'\xcba\x90>'
p7262
tp7263
Rp7264
tp7265
a(g15
g6
(g18
S'\xab\xcaQ>'
p7266
tp7267
Rp7268
tp7269
a(g56
g6
(g18
S'\x8d\xa9\xb6='
p7270
tp7271
Rp7272
tp7273
a(g44
g6
(g18
S'\xc7\xb5\xc1;'
p7274
tp7275
Rp7276
tp7277
asg73
g32
sa(dp7278
g2
S'../../../data/emanuela/activity-recognition/images/NTCIR-Lifelog-256/u1/2015-03-11/b00001248_21i6bq_20150311_210310e.jpg'
p7279
sg4
(lp7280
(g56
g6
(g18
S'\x02\xbcA?'
p7281
tp7282
Rp7283
tp7284
a(g32
g6
(g18
S'a\x06w>'
p7285
tp7286
Rp7287
tp7288
a(g68
g6
(g18
S'\x1d\xffx:'
p7289
tp7290
Rp7291
tp7292
a(g15
g6
(g18
S'*\x1e\x1f:'
p7293
tp7294
Rp7295
tp7296
a(g316
g6
(g18
S'\xe2\x85\x1d9'
p7297
tp7298
Rp7299
tp7300
asg73
g32
sa(dp7301
g2
S'../../../data/emanuela/activity-recognition/images/NTCIR-Lifelog-256/u1/2015-03-06/b00000864_21i6bq_20150306_142159e.jpg'
p7302
sg4
(lp7303
(g15
g6
(g18
S'j\xcc\x15?'
p7304
tp7305
Rp7306
tp7307
a(g32
g6
(g18
S'\xb1\x95\x8d>'
p7308
tp7309
Rp7310
tp7311
a(g44
g6
(g18
S'|\xdc\x85='
p7312
tp7313
Rp7314
tp7315
a(g158
g6
(g18
S'g\x15\xeb<'
p7316
tp7317
Rp7318
tp7319
a(g56
g6
(g18
S'\xb5j\x8f<'
p7320
tp7321
Rp7322
tp7323
asg73
g32
sa(dp7324
g2
S'../../../data/emanuela/activity-recognition/images/NTCIR-Lifelog-256/u1/2015-02-24/b00000927_21i6bq_20150224_160749e.jpg'
p7325
sg4
(lp7326
(g32
g6
(g18
S'jU\xfb>'
p7327
tp7328
Rp7329
tp7330
a(g56
g6
(g18
S'(7\xe6>'
p7331
tp7332
Rp7333
tp7334
a(g15
g6
(g18
S'\xe4\x80_='
p7335
tp7336
Rp7337
tp7338
a(g44
g6
(g18
S'\xcaw\x15;'
p7339
tp7340
Rp7341
tp7342
a(g131
g6
(g18
S'\x85Uj:'
p7343
tp7344
Rp7345
tp7346
asg73
g32
sa(dp7347
g2
S'../../../data/emanuela/activity-recognition/images/NTCIR-Lifelog-256/u1/2015-03-02/b00000557_21i6bq_20150302_125304e.jpg'
p7348
sg4
(lp7349
(g32
g6
(g18
S'\xc8\xb3s?'
p7350
tp7351
Rp7352
tp7353
a(g56
g6
(g18
S'\x02\xdf\xe6<'
p7354
tp7355
Rp7356
tp7357
a(g15
g6
(g18
S'i\xc4q<'
p7358
tp7359
Rp7360
tp7361
a(g158
g6
(g18
S'\xc1\xf8l;'
p7362
tp7363
Rp7364
tp7365
a(g44
g6
(g18
S'\xed\xf4\xa0:'
p7366
tp7367
Rp7368
tp7369
asg73
g32
sa(dp7370
g2
S'../../../data/emanuela/activity-recognition/images/NTCIR-Lifelog-256/u1/2015-02-23/b00000662_21i6bq_20150223_140021e.jpg'
p7371
sg4
(lp7372
(g32
g6
(g18
S'\xf4\xe6}?'
p7373
tp7374
Rp7375
tp7376
a(g56
g6
(g18
S'\xfe\x81\xcc;'
p7377
tp7378
Rp7379
tp7380
a(g131
g6
(g18
S'\xe1\x16R:'
p7381
tp7382
Rp7383
tp7384
a(g15
g6
(g18
S'\x07\xc8\x02:'
p7385
tp7386
Rp7387
tp7388
a(g44
g6
(g18
S'\xbd\xcc\xec9'
p7389
tp7390
Rp7391
tp7392
asg73
g32
sa(dp7393
g2
S'../../../data/emanuela/activity-recognition/images/NTCIR-Lifelog-256/u1/2015-03-11/b00001231_21i6bq_20150311_204038e.jpg'
p7394
sg4
(lp7395
(g15
g6
(g18
S'\x8a\xc7\x07?'
p7396
tp7397
Rp7398
tp7399
a(g56
g6
(g18
S'\xd5\xa6\xac>'
p7400
tp7401
Rp7402
tp7403
a(g32
g6
(g18
S'\x85\xda\x89='
p7404
tp7405
Rp7406
tp7407
a(g44
g6
(g18
S'A\x1e-='
p7408
tp7409
Rp7410
tp7411
a(g96
g6
(g18
S'\xbf\x8d(<'
p7412
tp7413
Rp7414
tp7415
asg73
g32
sa(dp7416
g2
S'../../../data/emanuela/activity-recognition/images/NTCIR-Lifelog-256/u1/2015-02-24/b00000935_21i6bq_20150224_161235e.jpg'
p7417
sg4
(lp7418
(g32
g6
(g18
S'vTV?'
p7419
tp7420
Rp7421
tp7422
a(g56
g6
(g18
S'\x81\xa1\xcd='
p7423
tp7424
Rp7425
tp7426
a(g15
g6
(g18
S'\x11A\x11='
p7427
tp7428
Rp7429
tp7430
a(g131
g6
(g18
S'\xbcQN<'
p7431
tp7432
Rp7433
tp7434
a(g44
g6
(g18
S'\x85BD<'
p7435
tp7436
Rp7437
tp7438
asg73
g32
sa(dp7439
g2
S'../../../data/emanuela/activity-recognition/images/NTCIR-Lifelog-256/u1/2015-02-25/b00001035_21i6bq_20150225_164712e.jpg'
p7440
sg4
(lp7441
(g216
g6
(g18
S'\x93\xe8\x16?'
p7442
tp7443
Rp7444
tp7445
a(g1134
g6
(g18
S'~\xc9d>'
p7446
tp7447
Rp7448
tp7449
a(g316
g6
(g18
S'\xbc\x89\xe9='
p7450
tp7451
Rp7452
tp7453
a(g44
g6
(g18
S'\x05r\xfa<'
p7454
tp7455
Rp7456
tp7457
a(g96
g6
(g18
S'\x8e\x84\xa1<'
p7458
tp7459
Rp7460
tp7461
asg73
g32
sa(dp7462
g2
S'../../../data/emanuela/activity-recognition/images/NTCIR-Lifelog-256/u1/2015-03-02/b00000561_21i6bq_20150302_125541e.jpg'
p7463
sg4
(lp7464
(g32
g6
(g18
S'\xfeOp?'
p7465
tp7466
Rp7467
tp7468
a(g56
g6
(g18
S'\x1eN^='
p7469
tp7470
Rp7471
tp7472
a(g15
g6
(g18
S'ZWs;'
p7473
tp7474
Rp7475
tp7476
a(g158
g6
(g18
S'\xa8\x07\x1a;'
p7477
tp7478
Rp7479
tp7480
a(g44
g6
(g18
S'\x193\x15:'
p7481
tp7482
Rp7483
tp7484
asg73
g32
sa(dp7485
g2
S'../../../data/emanuela/activity-recognition/images/NTCIR-Lifelog-256/u1/2015-02-23/b00000661_21i6bq_20150223_135946e.jpg'
p7486
sg4
(lp7487
(g32
g6
(g18
S'TF}?'
p7488
tp7489
Rp7490
tp7491
a(g56
g6
(g18
S'"\x9f\x1e<'
p7492
tp7493
Rp7494
tp7495
a(g15
g6
(g18
S'\xe13 :'
p7496
tp7497
Rp7498
tp7499
a(g131
g6
(g18
S'Y\xe8\x1a9'
p7500
tp7501
Rp7502
tp7503
a(g44
g6
(g18
S'\xf2\r\xae8'
p7504
tp7505
Rp7506
tp7507
asg73
g32
sa(dp7508
g2
S'../../../data/emanuela/activity-recognition/images/NTCIR-Lifelog-256/u1/2015-03-11/b00001283_21i6bq_20150311_213419e.jpg'
p7509
sg4
(lp7510
(g56
g6
(g18
S'_\xee`?'
p7511
tp7512
Rp7513
tp7514
a(g32
g6
(g18
S'S8\x8f='
p7515
tp7516
Rp7517
tp7518
a(g316
g6
(g18
S'\x80\xd9\x9f<'
p7519
tp7520
Rp7521
tp7522
a(g216
g6
(g18
S'E$4<'
p7523
tp7524
Rp7525
tp7526
a(g68
g6
(g18
S'\xe9\xda\xcd;'
p7527
tp7528
Rp7529
tp7530
asg73
g32
sa(dp7531
g2
S'../../../data/emanuela/activity-recognition/images/NTCIR-Lifelog-256/u1/2015-02-27/b00000623_21i6bq_20150227_135019e.jpg'
p7532
sg4
(lp7533
(g32
g6
(g18
S'\xbf\xcd\x0b?'
p7534
tp7535
Rp7536
tp7537
a(g15
g6
(g18
S'u\xa6\x81>'
p7538
tp7539
Rp7540
tp7541
a(g56
g6
(g18
S'\xa8\xe3I>'
p7542
tp7543
Rp7544
tp7545
a(g44
g6
(g18
S'\x82q\xe7:'
p7546
tp7547
Rp7548
tp7549
a(g158
g6
(g18
S'\xce<Y:'
p7550
tp7551
Rp7552
tp7553
asg73
g32
sa(dp7554
g2
S'../../../data/emanuela/activity-recognition/images/NTCIR-Lifelog-256/u1/2015-02-26/b00000745_21i6bq_20150226_141719e.jpg'
p7555
sg4
(lp7556
(g32
g6
(g18
S'\x9c\x1c$?'
p7557
tp7558
Rp7559
tp7560
a(g56
g6
(g18
S'K\xb9\xb6>'
p7561
tp7562
Rp7563
tp7564
a(g158
g6
(g18
S'~\x12\xe4:'
p7565
tp7566
Rp7567
tp7568
a(g15
g6
(g18
S'\x0b\x9d\xfa8'
p7569
tp7570
Rp7571
tp7572
a(g68
g6
(g18
S'3\x1f\x898'
p7573
tp7574
Rp7575
tp7576
asg73
g32
sa(dp7577
g2
S'../../../data/emanuela/activity-recognition/images/NTCIR-Lifelog-256/u1/2015-02-23/b00000666_21i6bq_20150223_140251e.jpg'
p7578
sg4
(lp7579
(g32
g6
(g18
S'\x93;\x7f?'
p7580
tp7581
Rp7582
tp7583
a(g56
g6
(g18
S'\xfb\xf9\x1c;'
p7584
tp7585
Rp7586
tp7587
a(g15
g6
(g18
S'\x07\x8e\x9d9'
p7588
tp7589
Rp7590
tp7591
a(g131
g6
(g18
S'\xdc\xeb\x8f9'
p7592
tp7593
Rp7594
tp7595
a(g44
g6
(g18
S'\xe3\xa9n7'
p7596
tp7597
Rp7598
tp7599
asg73
g32
sa(dp7600
g2
S'../../../data/emanuela/activity-recognition/images/NTCIR-Lifelog-256/u1/2015-02-23/b00000670_21i6bq_20150223_140515e.jpg'
p7601
sg4
(lp7602
(g32
g6
(g18
S'\rk\x7f?'
p7603
tp7604
Rp7605
tp7606
a(g56
g6
(g18
S'\x8a2\x0e;'
p7607
tp7608
Rp7609
tp7610
a(g15
g6
(g18
S'\xbe\xac$8'
p7611
tp7612
Rp7613
tp7614
a(g131
g6
(g18
S'\x1bZ\x1c8'
p7615
tp7616
Rp7617
tp7618
a(g96
g6
(g18
S'e\x01\x897'
p7619
tp7620
Rp7621
tp7622
asg73
g32
sa(dp7623
g2
S'../../../data/emanuela/activity-recognition/images/NTCIR-Lifelog-256/u1/2015-03-01/b00000497_21i6bq_20150301_114751e.jpg'
p7624
sg4
(lp7625
(g32
g6
(g18
S'\xa1\xaeq?'
p7626
tp7627
Rp7628
tp7629
a(g44
g6
(g18
S'i\x85\xd0<'
p7630
tp7631
Rp7632
tp7633
a(g15
g6
(g18
S'\xaf\x8e\x86<'
p7634
tp7635
Rp7636
tp7637
a(g56
g6
(g18
S'6?H<'
p7638
tp7639
Rp7640
tp7641
a(g96
g6
(g18
S'\xee?_:'
p7642
tp7643
Rp7644
tp7645
asg73
g32
sa(dp7646
g2
S'../../../data/emanuela/activity-recognition/images/NTCIR-Lifelog-256/u1/2015-03-16/b00002903_21i6bq_20150316_200333e.jpg'
p7647
sg4
(lp7648
(g15
g6
(g18
S'M\x92Y?'
p7649
tp7650
Rp7651
tp7652
a(g32
g6
(g18
S'\xa8\xaa\xfa='
p7653
tp7654
Rp7655
tp7656
a(g44
g6
(g18
S'\x02bv<'
p7657
tp7658
Rp7659
tp7660
a(g56
g6
(g18
S'\x8el\x0f<'
p7661
tp7662
Rp7663
tp7664
a(g158
g6
(g18
S'\xdeE\x12;'
p7665
tp7666
Rp7667
tp7668
asg73
g32
sa(dp7669
g2
S'../../../data/emanuela/activity-recognition/images/NTCIR-Lifelog-256/u1/2015-02-24/b00000484_21i6bq_20150224_113631e.jpg'
p7670
sg4
(lp7671
(g32
g6
(g18
S'$3M?'
p7672
tp7673
Rp7674
tp7675
a(g56
g6
(g18
S'\xe2\xecF>'
p7676
tp7677
Rp7678
tp7679
a(g158
g6
(g18
S'HB\xf1:'
p7680
tp7681
Rp7682
tp7683
a(g15
g6
(g18
S'R\xae\xe5:'
p7684
tp7685
Rp7686
tp7687
a(g44
g6
(g18
S'_U\x8f9'
p7688
tp7689
Rp7690
tp7691
asg73
g32
sa(dp7692
g2
S'../../../data/emanuela/activity-recognition/images/NTCIR-Lifelog-256/u1/2015-03-04/b00000967_21i6bq_20150304_170041e.jpg'
p7693
sg4
(lp7694
(g32
g6
(g18
S'6\x7f[?'
p7695
tp7696
Rp7697
tp7698
a(g56
g6
(g18
S'\x89#\x01>'
p7699
tp7700
Rp7701
tp7702
a(g158
g6
(g18
S'\xa6\x90=<'
p7703
tp7704
Rp7705
tp7706
a(g96
g6
(g18
S'0\xba&;'
p7707
tp7708
Rp7709
tp7710
a(g216
g6
(g18
S'\x9c\x9f\x81:'
p7711
tp7712
Rp7713
tp7714
asg73
g32
sa(dp7715
g2
S'../../../data/emanuela/activity-recognition/images/NTCIR-Lifelog-256/u1/2015-03-11/b00001234_21i6bq_20150311_204421e.jpg'
p7716
sg4
(lp7717
(g32
g6
(g18
S'\x866H?'
p7718
tp7719
Rp7720
tp7721
a(g15
g6
(g18
S'\x14\xaa\n>'
p7722
tp7723
Rp7724
tp7725
a(g56
g6
(g18
S'\x04-\x91='
p7726
tp7727
Rp7728
tp7729
a(g44
g6
(g18
S'\x1a\x10\xe3;'
p7730
tp7731
Rp7732
tp7733
a(g96
g6
(g18
S'g\xbe\xa0:'
p7734
tp7735
Rp7736
tp7737
asg73
g32
sa(dp7738
g2
S'../../../data/emanuela/activity-recognition/images/NTCIR-Lifelog-256/u1/2015-02-25/b00001029_21i6bq_20150225_164341e.jpg'
p7739
sg4
(lp7740
(g96
g6
(g18
S'\x14\xbaY?'
p7741
tp7742
Rp7743
tp7744
a(g158
g6
(g18
S'as\x02='
p7745
tp7746
Rp7747
tp7748
a(g32
g6
(g18
S'\xbe\x11\xe8<'
p7749
tp7750
Rp7751
tp7752
a(g131
g6
(g18
S'\xaa;\xa2<'
p7753
tp7754
Rp7755
tp7756
a(g44
g6
(g18
S'Z\xc7\x8a<'
p7757
tp7758
Rp7759
tp7760
asg73
g32
sa(dp7761
g2
S'../../../data/emanuela/activity-recognition/images/NTCIR-Lifelog-256/u1/2015-03-16/b00002916_21i6bq_20150316_201335e.jpg'
p7762
sg4
(lp7763
(g15
g6
(g18
S'r\xfb\xc1>'
p7764
tp7765
Rp7766
tp7767
a(g32
g6
(g18
S'?o0>'
p7768
tp7769
Rp7770
tp7771
a(g158
g6
(g18
S'\xc8\xfb,>'
p7772
tp7773
Rp7774
tp7775
a(g56
g6
(g18
S'\x80G\xd7='
p7776
tp7777
Rp7778
tp7779
a(g44
g6
(g18
S'\x8a\xc4\xb6='
p7780
tp7781
Rp7782
tp7783
asg73
g32
sa(dp7784
g2
S'../../../data/emanuela/activity-recognition/images/NTCIR-Lifelog-256/u1/2015-03-15/b00000881_21i6bq_20150315_161114e.jpg'
p7785
sg4
(lp7786
(g15
g6
(g18
S'3>\x03?'
p7787
tp7788
Rp7789
tp7790
a(g32
g6
(g18
S'\x9b\x1b\xf3='
p7791
tp7792
Rp7793
tp7794
a(g316
g6
(g18
S'\t\xdb\xc3='
p7795
tp7796
Rp7797
tp7798
a(g44
g6
(g18
S'\xeb6\x9f='
p7799
tp7800
Rp7801
tp7802
a(g158
g6
(g18
S'SS=='
p7803
tp7804
Rp7805
tp7806
asg73
g32
sa(dp7807
g2
S'../../../data/emanuela/activity-recognition/images/NTCIR-Lifelog-256/u1/2015-02-23/b00000659_21i6bq_20150223_135826e.jpg'
p7808
sg4
(lp7809
(g32
g6
(g18
S'\xe6+\x7f?'
p7810
tp7811
Rp7812
tp7813
a(g56
g6
(g18
S'\xdd\xbd<;'
p7814
tp7815
Rp7816
tp7817
a(g96
g6
(g18
S'8H\xf48'
p7818
tp7819
Rp7820
tp7821
a(g15
g6
(g18
S'\x9b\xbd\x8e8'
p7822
tp7823
Rp7824
tp7825
a(g131
g6
(g18
S'\xda,18'
p7826
tp7827
Rp7828
tp7829
asg73
g32
sa(dp7830
g2
S'../../../data/emanuela/activity-recognition/images/NTCIR-Lifelog-256/u1/2015-02-25/b00000992_21i6bq_20150225_162058e.jpg'
p7831
sg4
(lp7832
(g32
g6
(g18
S'p\xa3h?'
p7833
tp7834
Rp7835
tp7836
a(g56
g6
(g18
S'\x0c\x8e\xae='
p7837
tp7838
Rp7839
tp7840
a(g158
g6
(g18
S'\x17\x03Y;'
p7841
tp7842
Rp7843
tp7844
a(g15
g6
(g18
S'\xe4\xbfz:'
p7845
tp7846
Rp7847
tp7848
a(g96
g6
(g18
S"\xed'*:"
p7849
tp7850
Rp7851
tp7852
asg73
g32
sa(dp7853
g2
S'../../../data/emanuela/activity-recognition/images/NTCIR-Lifelog-256/u1/2015-02-26/b00000751_21i6bq_20150226_141723e.jpg'
p7854
sg4
(lp7855
(g32
g6
(g18
S'6\x13\xc0>'
p7856
tp7857
Rp7858
tp7859
a(g15
g6
(g18
S'\xf8\xba\xa8>'
p7860
tp7861
Rp7862
tp7863
a(g44
g6
(g18
S'x\xa16>'
p7864
tp7865
Rp7866
tp7867
a(g56
g6
(g18
S'\xa3\xec\xb0='
p7868
tp7869
Rp7870
tp7871
a(g316
g6
(g18
S'o\x8f\xd7;'
p7872
tp7873
Rp7874
tp7875
asg73
g32
sa(dp7876
g2
S'../../../data/emanuela/activity-recognition/images/NTCIR-Lifelog-256/u1/2015-02-24/b00000476_21i6bq_20150224_113130e.jpg'
p7877
sg4
(lp7878
(g32
g6
(g18
S'p\xa3\x1c?'
p7879
tp7880
Rp7881
tp7882
a(g56
g6
(g18
S'\xdcS\xc3>'
p7883
tp7884
Rp7885
tp7886
a(g15
g6
(g18
S'\x87\xe6\xb0;'
p7887
tp7888
Rp7889
tp7890
a(g158
g6
(g18
S'\xba\xfee:'
p7891
tp7892
Rp7893
tp7894
a(g44
g6
(g18
S'v\xdeh9'
p7895
tp7896
Rp7897
tp7898
asg73
g32
sa(dp7899
g2
S'../../../data/emanuela/activity-recognition/images/NTCIR-Lifelog-256/u1/2015-02-24/b00000472_21i6bq_20150224_112858e.jpg'
p7900
sg4
(lp7901
(g32
g6
(g18
S'\xbf\xacu?'
p7902
tp7903
Rp7904
tp7905
a(g56
g6
(g18
S'\xa9L\x1b='
p7906
tp7907
Rp7908
tp7909
a(g15
g6
(g18
S'\xcf\x05\xae:'
p7910
tp7911
Rp7912
tp7913
a(g158
g6
(g18
S'\xa1\xde\x7f:'
p7914
tp7915
Rp7916
tp7917
a(g44
g6
(g18
S'\xa8\x96W8'
p7918
tp7919
Rp7920
tp7921
asg73
g32
sa(dp7922
g2
S'../../../data/emanuela/activity-recognition/images/NTCIR-Lifelog-256/u1/2015-02-26/b00000766_21i6bq_20150226_142539e.jpg'
p7923
sg4
(lp7924
(g32
g6
(g18
S'\x05\xa7!?'
p7925
tp7926
Rp7927
tp7928
a(g56
g6
(g18
S'\xb9t\xb4>'
p7929
tp7930
Rp7931
tp7932
a(g158
g6
(g18
S'\xac4/<'
p7933
tp7934
Rp7935
tp7936
a(g15
g6
(g18
S'5\xd6C;'
p7937
tp7938
Rp7939
tp7940
a(g68
g6
(g18
S'\x8b\xb0\xb3:'
p7941
tp7942
Rp7943
tp7944
asg73
g32
sa(dp7945
g2
S'../../../data/emanuela/activity-recognition/images/NTCIR-Lifelog-256/u1/2015-02-24/b00000474_21i6bq_20150224_113017e.jpg'
p7946
sg4
(lp7947
(g32
g6
(g18
S'\xbdWG?'
p7948
tp7949
Rp7950
tp7951
a(g56
g6
(g18
S'\\\x14U>'
p7952
tp7953
Rp7954
tp7955
a(g15
g6
(g18
S'\x8f\x95\x12<'
p7956
tp7957
Rp7958
tp7959
a(g158
g6
(g18
S'm43;'
p7960
tp7961
Rp7962
tp7963
a(g68
g6
(g18
S'\xf0\xf00:'
p7964
tp7965
Rp7966
tp7967
asg73
g32
sa(dp7968
g2
S'../../../data/emanuela/activity-recognition/images/NTCIR-Lifelog-256/u1/2015-03-11/b00001353_21i6bq_20150311_222605e.jpg'
p7969
sg4
(lp7970
(g1134
g6
(g18
S'n\xfc\xcf>'
p7971
tp7972
Rp7973
tp7974
a(g216
g6
(g18
S'\xfc\xd4q>'
p7975
tp7976
Rp7977
tp7978
a(g2454
g6
(g18
S'\xbf\xac\xf9='
p7979
tp7980
Rp7981
tp7982
a(g316
g6
(g18
S'\x84_\xb0='
p7983
tp7984
Rp7985
tp7986
a(g56
g6
(g18
S'+\xae*='
p7987
tp7988
Rp7989
tp7990
asg73
g32
sa(dp7991
g2
S'../../../data/emanuela/activity-recognition/images/NTCIR-Lifelog-256/u1/2015-03-02/b00000571_21i6bq_20150302_130202e.jpg'
p7992
sg4
(lp7993
(g32
g6
(g18
S'\x10\xbbk?'
p7994
tp7995
Rp7996
tp7997
a(g56
g6
(g18
S'\xc73f='
p7998
tp7999
Rp8000
tp8001
a(g15
g6
(g18
S'u{\xb7<'
p8002
tp8003
Rp8004
tp8005
a(g44
g6
(g18
S'\x9b\xb5T9'
p8006
tp8007
Rp8008
tp8009
a(g158
g6
(g18
S'J\xa4\xca8'
p8010
tp8011
Rp8012
tp8013
asg73
g32
sa(dp8014
g2
S'../../../data/emanuela/activity-recognition/images/NTCIR-Lifelog-256/u1/2015-02-25/b00001037_21i6bq_20150225_164829e.jpg'
p8015
sg4
(lp8016
(g96
g6
(g18
S'\xcd\xdc\xfe>'
p8017
tp8018
Rp8019
tp8020
a(g216
g6
(g18
S'%\x8b\x86>'
p8021
tp8022
Rp8023
tp8024
a(g158
g6
(g18
S'\x99p\xa4='
p8025
tp8026
Rp8027
tp8028
a(g32
g6
(g18
S'.\x19S='
p8029
tp8030
Rp8031
tp8032
a(g131
g6
(g18
S'W\x15\x16='
p8033
tp8034
Rp8035
tp8036
asg73
g32
sa(dp8037
g2
S'../../../data/emanuela/activity-recognition/images/NTCIR-Lifelog-256/u1/2015-02-27/b00000631_21i6bq_20150227_135523e.jpg'
p8038
sg4
(lp8039
(g32
g6
(g18
S'\xf7Fu?'
p8040
tp8041
Rp8042
tp8043
a(g44
g6
(g18
S'\xd1\xee\x82<'
p8044
tp8045
Rp8046
tp8047
a(g56
g6
(g18
S'poj<'
p8048
tp8049
Rp8050
tp8051
a(g15
g6
(g18
S'\xa1z\xfe;'
p8052
tp8053
Rp8054
tp8055
a(g158
g6
(g18
S'\xb7\x99\xfd:'
p8056
tp8057
Rp8058
tp8059
asg73
g32
sa(dp8060
g2
S'../../../data/emanuela/activity-recognition/images/NTCIR-Lifelog-256/u1/2015-03-06/b00000866_21i6bq_20150306_142308e.jpg'
p8061
sg4
(lp8062
(g96
g6
(g18
S'\xbe\xf8_>'
p8063
tp8064
Rp8065
tp8066
a(g131
g6
(g18
S'\x8c\xbcB>'
p8067
tp8068
Rp8069
tp8070
a(g1246
g6
(g18
S'\x17\xc4\x03>'
p8071
tp8072
Rp8073
tp8074
a(g1134
g6
(g18
S'\xa0\x9c\xd1='
p8075
tp8076
Rp8077
tp8078
a(g56
g6
(g18
S'\x94\\\xb9='
p8079
tp8080
Rp8081
tp8082
asg73
g32
sa(dp8083
g2
S'../../../data/emanuela/activity-recognition/images/NTCIR-Lifelog-256/u1/2015-03-11/b00001228_21i6bq_20150311_203623e.jpg'
p8084
sg4
(lp8085
(g131
g6
(g18
S'~8*?'
p8086
tp8087
Rp8088
tp8089
a(g96
g6
(g18
S'\xa4\x10_>'
p8090
tp8091
Rp8092
tp8093
a(g56
g6
(g18
S'D\xf11='
p8094
tp8095
Rp8096
tp8097
a(g32
g6
(g18
S'\xfed\xfd<'
p8098
tp8099
Rp8100
tp8101
a(g216
g6
(g18
S'\xad/\xd8<'
p8102
tp8103
Rp8104
tp8105
asg73
g32
sa(dp8106
g2
S'../../../data/emanuela/activity-recognition/images/NTCIR-Lifelog-256/u1/2015-02-24/b00000480_21i6bq_20150224_113400e.jpg'
p8107
sg4
(lp8108
(g32
g6
(g18
S'\x0c\x02_?'
p8109
tp8110
Rp8111
tp8112
a(g56
g6
(g18
S'Z\r\xfd='
p8113
tp8114
Rp8115
tp8116
a(g15
g6
(g18
S'-\xb62;'
p8117
tp8118
Rp8119
tp8120
a(g158
g6
(g18
S'\x91W\x12;'
p8121
tp8122
Rp8123
tp8124
a(g44
g6
(g18
S'\x15\\S9'
p8125
tp8126
Rp8127
tp8128
asg73
g32
sa(dp8129
g2
S'../../../data/emanuela/activity-recognition/images/NTCIR-Lifelog-256/u1/2015-02-25/b00000995_21i6bq_20150225_162243e.jpg'
p8130
sg4
(lp8131
(g32
g6
(g18
S'\xa63n?'
p8132
tp8133
Rp8134
tp8135
a(g96
g6
(g18
S'\xeb\x13\xac<'
p8136
tp8137
Rp8138
tp8139
a(g56
g6
(g18
S'\x04\x0e\x84<'
p8140
tp8141
Rp8142
tp8143
a(g131
g6
(g18
S'\xbc2L<'
p8144
tp8145
Rp8146
tp8147
a(g15
g6
(g18
S'K\xbe\x00<'
p8148
tp8149
Rp8150
tp8151
asg73
g32
sa(dp8152
g2
S'../../../data/emanuela/activity-recognition/images/NTCIR-Lifelog-256/u1/2015-03-04/b00001003_21i6bq_20150304_172408e.jpg'
p8153
sg4
(lp8154
(g32
g6
(g18
S'\x17\x11:?'
p8155
tp8156
Rp8157
tp8158
a(g56
g6
(g18
S'@\x9a\xd6='
p8159
tp8160
Rp8161
tp8162
a(g158
g6
(g18
S'\xd7g\xd3='
p8163
tp8164
Rp8165
tp8166
a(g1122
g6
(g18
S'\x969\xb9<'
p8167
tp8168
Rp8169
tp8170
a(g96
g6
(g18
S'\x9dd\xa1<'
p8171
tp8172
Rp8173
tp8174
asg73
g32
sa(dp8175
g2
S'../../../data/emanuela/activity-recognition/images/NTCIR-Lifelog-256/u1/2015-02-23/b00000679_21i6bq_20150223_141055e (1).jpg'
p8176
sg4
(lp8177
(g32
g6
(g18
S'\x94t\x7f?'
p8178
tp8179
Rp8180
tp8181
a(g131
g6
(g18
S'L9\x96:'
p8182
tp8183
Rp8184
tp8185
a(g56
g6
(g18
S"#\xcd':"
p8186
tp8187
Rp8188
tp8189
a(g15
g6
(g18
S'\x84\xb5)9'
p8190
tp8191
Rp8192
tp8193
a(g96
g6
(g18
S'\xdd\x8d\xe18'
p8194
tp8195
Rp8196
tp8197
asg73
g32
sa(dp8198
g2
S'../../../data/emanuela/activity-recognition/images/NTCIR-Lifelog-256/u1/2015-03-01/b00000512_21i6bq_20150301_115637e.jpg'
p8199
sg4
(lp8200
(g32
g6
(g18
S'\x16\xad\xeb>'
p8201
tp8202
Rp8203
tp8204
a(g44
g6
(g18
S'\xb3\x92\x9e>'
p8205
tp8206
Rp8207
tp8208
a(g15
g6
(g18
S'\xe9}V>'
p8209
tp8210
Rp8211
tp8212
a(g56
g6
(g18
S'\xbf4\x1a<'
p8213
tp8214
Rp8215
tp8216
a(g96
g6
(g18
S'\xca\xdc\xc9;'
p8217
tp8218
Rp8219
tp8220
asg73
g32
sa(dp8221
g2
S'../../../data/emanuela/activity-recognition/images/NTCIR-Lifelog-256/u1/2015-03-11/b00001259_21i6bq_20150311_211208e.jpg'
p8222
sg4
(lp8223
(g32
g6
(g18
S'r\xd7\t?'
p8224
tp8225
Rp8226
tp8227
a(g15
g6
(g18
S'\x97\x10`>'
p8228
tp8229
Rp8230
tp8231
a(g56
g6
(g18
S'hI\xf2='
p8232
tp8233
Rp8234
tp8235
a(g131
g6
(g18
S'$\xb7J='
p8236
tp8237
Rp8238
tp8239
a(g44
g6
(g18
S'!\xa2C='
p8240
tp8241
Rp8242
tp8243
asg73
g32
sa(dp8244
g2
S'../../../data/emanuela/activity-recognition/images/NTCIR-Lifelog-256/u1/2015-03-11/b00001249_21i6bq_20150311_210348e.jpg'
p8245
sg4
(lp8246
(g32
g6
(g18
S'ONz?'
p8247
tp8248
Rp8249
tp8250
a(g56
g6
(g18
S'q\xf2N<'
p8251
tp8252
Rp8253
tp8254
a(g15
g6
(g18
S'\xc2\xbe\xa4;'
p8255
tp8256
Rp8257
tp8258
a(g44
g6
(g18
S'\x0cC\xe9:'
p8259
tp8260
Rp8261
tp8262
a(g96
g6
(g18
S'\xb5T\xb6:'
p8263
tp8264
Rp8265
tp8266
asg73
g32
sa(dp8267
g2
S'../../../data/emanuela/activity-recognition/images/NTCIR-Lifelog-256/u1/2015-02-27/b00000622_21i6bq_20150227_134938e.jpg'
p8268
sg4
(lp8269
(g32
g6
(g18
S'\x12Bj?'
p8270
tp8271
Rp8272
tp8273
a(g56
g6
(g18
S'\xd97\x97='
p8274
tp8275
Rp8276
tp8277
a(g15
g6
(g18
S'A\xee <'
p8278
tp8279
Rp8280
tp8281
a(g158
g6
(g18
S'd5\x02:'
p8282
tp8283
Rp8284
tp8285
a(g96
g6
(g18
S'Z\xfb\xb99'
p8286
tp8287
Rp8288
tp8289
asg73
g32
sa(dp8290
g2
S'../../../data/emanuela/activity-recognition/images/NTCIR-Lifelog-256/u1/2015-02-25/b00001020_21i6bq_20150225_163811e.jpg'
p8291
sg4
(lp8292
(g15
g6
(g18
S'(\x84\xdd>'
p8293
tp8294
Rp8295
tp8296
a(g32
g6
(g18
S'\xcb\xb4\xb2>'
p8297
tp8298
Rp8299
tp8300
a(g56
g6
(g18
S't\xc5.>'
p8301
tp8302
Rp8303
tp8304
a(g44
g6
(g18
S'\xdc\x81\x8d<'
p8305
tp8306
Rp8307
tp8308
a(g131
g6
(g18
S'\x9a\n\t<'
p8309
tp8310
Rp8311
tp8312
asg73
g32
sa(dp8313
g2
S'../../../data/emanuela/activity-recognition/images/NTCIR-Lifelog-256/u1/2015-03-02/b00000565_21i6bq_20150302_125805e.jpg'
p8314
sg4
(lp8315
(g32
g6
(g18
S' \x9fx?'
p8316
tp8317
Rp8318
tp8319
a(g56
g6
(g18
S'v1\xac<'
p8320
tp8321
Rp8322
tp8323
a(g15
g6
(g18
S'\xb6}\xbb;'
p8324
tp8325
Rp8326
tp8327
a(g44
g6
(g18
S'k\xb0T:'
p8328
tp8329
Rp8330
tp8331
a(g96
g6
(g18
S'6\t\xf59'
p8332
tp8333
Rp8334
tp8335
asg73
g32
sa(dp8336
g2
S'../../../data/emanuela/activity-recognition/images/NTCIR-Lifelog-256/u1/2015-03-16/b00002906_21i6bq_20150316_200712e.jpg'
p8337
sg4
(lp8338
(g32
g6
(g18
S'\xcb\xa3\n?'
p8339
tp8340
Rp8341
tp8342
a(g15
g6
(g18
S'\xf2dZ>'
p8343
tp8344
Rp8345
tp8346
a(g56
g6
(g18
S'\xaa\xcc\xb4='
p8347
tp8348
Rp8349
tp8350
a(g158
g6
(g18
S'\xfa\xd6W='
p8351
tp8352
Rp8353
tp8354
a(g44
g6
(g18
S'\x15\xd1U='
p8355
tp8356
Rp8357
tp8358
asg73
g32
sa(dp8359
g2
S'../../../data/emanuela/activity-recognition/images/NTCIR-Lifelog-256/u1/2015-02-26/b00000777_21i6bq_20150226_143230e.jpg'
p8360
sg4
(lp8361
(g56
g6
(g18
S'\xd4\x91\x10?'
p8362
tp8363
Rp8364
tp8365
a(g32
g6
(g18
S'\xf2f\xdc>'
p8366
tp8367
Rp8368
tp8369
a(g15
g6
(g18
S'|\x82\x12;'
p8370
tp8371
Rp8372
tp8373
a(g158
g6
(g18
S'\xe6\xb7\x83:'
p8374
tp8375
Rp8376
tp8377
a(g68
g6
(g18
S'\xca\xeaA:'
p8378
tp8379
Rp8380
tp8381
asg73
g32
sa(dp8382
g2
S'../../../data/emanuela/activity-recognition/images/NTCIR-Lifelog-256/u1/2015-03-04/b00000998_21i6bq_20150304_172055e.jpg'
p8383
sg4
(lp8384
(g32
g6
(g18
S'=D\xd8>'
p8385
tp8386
Rp8387
tp8388
a(g56
g6
(g18
S'\xcc\x89\xb6>'
p8389
tp8390
Rp8391
tp8392
a(g15
g6
(g18
S'\x87e7>'
p8393
tp8394
Rp8395
tp8396
a(g158
g6
(g18
S'\xa0\x15\x9a<'
p8397
tp8398
Rp8399
tp8400
a(g68
g6
(g18
S'\xe2\xfd\x08<'
p8401
tp8402
Rp8403
tp8404
asg73
g32
sa(dp8405
g2
S'../../../data/emanuela/activity-recognition/images/NTCIR-Lifelog-256/u1/2015-03-02/b00000563_21i6bq_20150302_125700e.jpg'
p8406
sg4
(lp8407
(g32
g6
(g18
S'\xb5\x80`?'
p8408
tp8409
Rp8410
tp8411
a(g56
g6
(g18
S'[~\xe4='
p8412
tp8413
Rp8414
tp8415
a(g15
g6
(g18
S'\xf8\x99\x08<'
p8416
tp8417
Rp8418
tp8419
a(g44
g6
(g18
S'U\xab\xb2:'
p8420
tp8421
Rp8422
tp8423
a(g131
g6
(g18
S'\xae\xec\xbd9'
p8424
tp8425
Rp8426
tp8427
asg73
g32
sa(dp8428
g2
S'../../../data/emanuela/activity-recognition/images/NTCIR-Lifelog-256/u1/2015-03-16/b00002904_21i6bq_20150316_200406e.jpg'
p8429
sg4
(lp8430
(g15
g6
(g18
S'\xe3/c?'
p8431
tp8432
Rp8433
tp8434
a(g32
g6
(g18
S'd\x0fJ='
p8435
tp8436
Rp8437
tp8438
a(g44
g6
(g18
S's\xfc\x1f='
p8439
tp8440
Rp8441
tp8442
a(g158
g6
(g18
S'\xa8\xb2\x04<'
p8443
tp8444
Rp8445
tp8446
a(g56
g6
(g18
S'\xd8\x97\x04<'
p8447
tp8448
Rp8449
tp8450
asg73
g32
sa(dp8451
g2
S'../../../data/emanuela/activity-recognition/images/NTCIR-Lifelog-256/u1/2015-03-02/b00000562_21i6bq_20150302_125621e.jpg'
p8452
sg4
(lp8453
(g56
g6
(g18
S'\xfe\xf5\xa8>'
p8454
tp8455
Rp8456
tp8457
a(g32
g6
(g18
S'G+\x1b>'
p8458
tp8459
Rp8460
tp8461
a(g15
g6
(g18
S'\x9e\x1f\t>'
p8462
tp8463
Rp8464
tp8465
a(g455
g6
(g18
S'\xb5u\x9b='
p8466
tp8467
Rp8468
tp8469
a(g131
g6
(g18
S'\xba1\x99='
p8470
tp8471
Rp8472
tp8473
asg73
g32
sa(dp8474
g2
S'../../../data/emanuela/activity-recognition/images/NTCIR-Lifelog-256/u1/2015-03-04/b00000976_21i6bq_20150304_170613e.jpg'
p8475
sg4
(lp8476
(g32
g6
(g18
S'\x99\x97\xa5>'
p8477
tp8478
Rp8479
tp8480
a(g15
g6
(g18
S'\xdd\xe5e>'
p8481
tp8482
Rp8483
tp8484
a(g158
g6
(g18
S'I\xc0U>'
p8485
tp8486
Rp8487
tp8488
a(g96
g6
(g18
S'\x8c\x9f\xb7='
p8489
tp8490
Rp8491
tp8492
a(g216
g6
(g18
S'\x11\xc1T='
p8493
tp8494
Rp8495
tp8496
asg73
g32
sa(dp8497
g2
S'../../../data/emanuela/activity-recognition/images/NTCIR-Lifelog-256/u1/2015-03-16/b00002905_21i6bq_20150316_200445e.jpg'
p8498
sg4
(lp8499
(g15
g6
(g18
S'f}Q?'
p8500
tp8501
Rp8502
tp8503
a(g44
g6
(g18
S"\xf8'\x00>"
p8504
tp8505
Rp8506
tp8507
a(g32
g6
(g18
S'\xdf\xa3\xff<'
p8508
tp8509
Rp8510
tp8511
a(g56
g6
(g18
S'\xf4.\x80<'
p8512
tp8513
Rp8514
tp8515
a(g1122
g6
(g18
S'\xc6\xe8$;'
p8516
tp8517
Rp8518
tp8519
asg73
g32
sa(dp8520
g2
S'../../../data/emanuela/activity-recognition/images/NTCIR-Lifelog-256/u1/2015-02-25/b00001034_21i6bq_20150225_164639e.jpg'
p8521
sg4
(lp8522
(g96
g6
(g18
S'\xce\xc8\xc8>'
p8523
tp8524
Rp8525
tp8526
a(g32
g6
(g18
S'\xa5Wh>'
p8527
tp8528
Rp8529
tp8530
a(g131
g6
(g18
S'\xc3\xbbV>'
p8531
tp8532
Rp8533
tp8534
a(g15
g6
(g18
S'\xa7\xfb8='
p8535
tp8536
Rp8537
tp8538
a(g44
g6
(g18
S'\xff\xa73='
p8539
tp8540
Rp8541
tp8542
asg73
g32
sa(dp8543
g2
S'../../../data/emanuela/activity-recognition/images/NTCIR-Lifelog-256/u1/2015-02-23/b00000655_21i6bq_20150223_135555e (1).jpg'
p8544
sg4
(lp8545
(g32
g6
(g18
S'pP}?'
p8546
tp8547
Rp8548
tp8549
a(g56
g6
(g18
S'g\x18)<'
p8550
tp8551
Rp8552
tp8553
a(g15
g6
(g18
S'<\x18\x948'
p8554
tp8555
Rp8556
tp8557
a(g44
g6
(g18
S'\x0e\x1f\xc87'
p8558
tp8559
Rp8560
tp8561
a(g131
g6
(g18
S'\x16\xf1\xc57'
p8562
tp8563
Rp8564
tp8565
asg73
g32
sa(dp8566
g2
S'../../../data/emanuela/activity-recognition/images/NTCIR-Lifelog-256/u1/2015-02-27/b00000621_21i6bq_20150227_134859e.jpg'
p8567
sg4
(lp8568
(g32
g6
(g18
S'\x0c\x059?'
p8569
tp8570
Rp8571
tp8572
a(g15
g6
(g18
S'\x92\xf6(>'
p8573
tp8574
Rp8575
tp8576
a(g56
g6
(g18
S'\xeew\xd9='
p8577
tp8578
Rp8579
tp8580
a(g44
g6
(g18
S'\x8d\xe8\xf3:'
p8581
tp8582
Rp8583
tp8584
a(g96
g6
(g18
S'\xdbG\xe9:'
p8585
tp8586
Rp8587
tp8588
asg73
g32
sa(dp8589
g2
S'../../../data/emanuela/activity-recognition/images/NTCIR-Lifelog-256/u1/2015-02-25/b00000968_21i6bq_20150225_160614e.jpg'
p8590
sg4
(lp8591
(g56
g6
(g18
S'y\xd6\x9b>'
p8592
tp8593
Rp8594
tp8595
a(g1122
g6
(g18
S'Nrp>'
p8596
tp8597
Rp8598
tp8599
a(g15
g6
(g18
S'\xc94\xd4='
p8600
tp8601
Rp8602
tp8603
a(g216
g6
(g18
S'\xe1pg='
p8604
tp8605
Rp8606
tp8607
a(g131
g6
(g18
S'C\xe4<='
p8608
tp8609
Rp8610
tp8611
asg73
g32
sa(dp8612
g2
S'../../../data/emanuela/activity-recognition/images/NTCIR-Lifelog-256/u1/2015-03-11/b00001282_21i6bq_20150311_213340e.jpg'
p8613
sg4
(lp8614
(g56
g6
(g18
S'\x7f\x10l?'
p8615
tp8616
Rp8617
tp8618
a(g32
g6
(g18
S'C!\x90='
p8619
tp8620
Rp8621
tp8622
a(g68
g6
(g18
S'\n\x96<;'
p8623
tp8624
Rp8625
tp8626
a(g216
g6
(g18
S'\xe9\x1aV:'
p8627
tp8628
Rp8629
tp8630
a(g316
g6
(g18
S'\x87\xb6*:'
p8631
tp8632
Rp8633
tp8634
asg73
g32
sa(dp8635
g2
S'../../../data/emanuela/activity-recognition/images/NTCIR-Lifelog-256/u1/2015-02-26/b00000765_21i6bq_20150226_142458e.jpg'
p8636
sg4
(lp8637
(g56
g6
(g18
S'\xf8\x81\xf7>'
p8638
tp8639
Rp8640
tp8641
a(g32
g6
(g18
S'\xefy\xb5>'
p8642
tp8643
Rp8644
tp8645
a(g158
g6
(g18
S'MW\xaf='
p8646
tp8647
Rp8648
tp8649
a(g15
g6
(g18
S'n\xba,='
p8650
tp8651
Rp8652
tp8653
a(g68
g6
(g18
S'e6\xa9<'
p8654
tp8655
Rp8656
tp8657
asg73
g32
sa(dp8658
g2
S'../../../data/emanuela/activity-recognition/images/NTCIR-Lifelog-256/u1/2015-02-25/b00000959_21i6bq_20150225_160042e.jpg'
p8659
sg4
(lp8660
(g1134
g6
(g18
S':\x0f<?'
p8661
tp8662
Rp8663
tp8664
a(g216
g6
(g18
S'c\x1c,>'
p8665
tp8666
Rp8667
tp8668
a(g2454
g6
(g18
S'\xaf\xb4F='
p8669
tp8670
Rp8671
tp8672
a(g316
g6
(g18
S'@\xfd\xef<'
p8673
tp8674
Rp8675
tp8676
a(g56
g6
(g18
S'\x80\x81\x84;'
p8677
tp8678
Rp8679
tp8680
asg73
g32
sa(dp8681
g2
S'../../../data/emanuela/activity-recognition/images/NTCIR-Lifelog-256/u1/2015-03-12/b00001219_21i6bq_20150312_210402e.jpg'
p8682
sg4
(lp8683
(g15
g6
(g18
S'Q\x03B?'
p8684
tp8685
Rp8686
tp8687
a(g32
g6
(g18
S'y\xb5\x02>'
p8688
tp8689
Rp8690
tp8691
a(g44
g6
(g18
S'\xd8/b='
p8692
tp8693
Rp8694
tp8695
a(g56
g6
(g18
S'\x98\x8bQ='
p8696
tp8697
Rp8698
tp8699
a(g158
g6
(g18
S'\xaeV\xed:'
p8700
tp8701
Rp8702
tp8703
asg73
g32
sa(dp8704
g2
S'../../../data/emanuela/activity-recognition/images/NTCIR-Lifelog-256/u1/2015-02-24/b00000941_21i6bq_20150224_161609e.jpg'
p8705
sg4
(lp8706
(g32
g6
(g18
S'\x19z\xe8>'
p8707
tp8708
Rp8709
tp8710
a(g56
g6
(g18
S'\xa0\x7f\xaa>'
p8711
tp8712
Rp8713
tp8714
a(g15
g6
(g18
S'\xf1\x02<>'
p8715
tp8716
Rp8717
tp8718
a(g158
g6
(g18
S'\x03N\t<'
p8719
tp8720
Rp8721
tp8722
a(g131
g6
(g18
S'M\xf9\x00<'
p8723
tp8724
Rp8725
tp8726
asg73
g32
sa(dp8727
g2
S'../../../data/emanuela/activity-recognition/images/NTCIR-Lifelog-256/u1/2015-03-15/b00000880_21i6bq_20150315_161039e.jpg'
p8728
sg4
(lp8729
(g32
g6
(g18
S'+NC?'
p8730
tp8731
Rp8732
tp8733
a(g15
g6
(g18
S'\xaa\xe9\x18>'
p8734
tp8735
Rp8736
tp8737
a(g56
g6
(g18
S'\xe36\x1c='
p8738
tp8739
Rp8740
tp8741
a(g158
g6
(g18
S'g\xe0\xb4<'
p8742
tp8743
Rp8744
tp8745
a(g44
g6
(g18
S'7T1<'
p8746
tp8747
Rp8748
tp8749
asg73
g32
sa(dp8750
g2
S'../../../data/emanuela/activity-recognition/images/NTCIR-Lifelog-256/u1/2015-03-01/b00000511_21i6bq_20150301_115605e.jpg'
p8751
sg4
(lp8752
(g44
g6
(g18
S'\x00Q\x1f?'
p8753
tp8754
Rp8755
tp8756
a(g32
g6
(g18
S'\xbe`@>'
p8757
tp8758
Rp8759
tp8760
a(g15
g6
(g18
S'\x97\xf8\x0b>'
p8761
tp8762
Rp8763
tp8764
a(g96
g6
(g18
S'.\xb2*='
p8765
tp8766
Rp8767
tp8768
a(g56
g6
(g18
S'DV\xd3;'
p8769
tp8770
Rp8771
tp8772
asg73
g32
sa(dp8773
g2
S'../../../data/emanuela/activity-recognition/images/NTCIR-Lifelog-256/u1/2015-02-24/b00000920_21i6bq_20150224_160329e.jpg'
p8774
sg4
(lp8775
(g32
g6
(g18
S'a\x9bt?'
p8776
tp8777
Rp8778
tp8779
a(g56
g6
(g18
S'\x9d\xa9\xf8<'
p8780
tp8781
Rp8782
tp8783
a(g44
g6
(g18
S'\x90\xd6\xcb;'
p8784
tp8785
Rp8786
tp8787
a(g15
g6
(g18
S'\x90\xe9\xa2;'
p8788
tp8789
Rp8790
tp8791
a(g131
g6
(g18
S'8\xe8\xc2:'
p8792
tp8793
Rp8794
tp8795
asg73
g32
sa(dp8796
g2
S'../../../data/emanuela/activity-recognition/images/NTCIR-Lifelog-256/u1/2015-03-04/b00001010_21i6bq_20150304_172835e.jpg'
p8797
sg4
(lp8798
(g32
g6
(g18
S'6\xd8p?'
p8799
tp8800
Rp8801
tp8802
a(g56
g6
(g18
S'<ZQ='
p8803
tp8804
Rp8805
tp8806
a(g158
g6
(g18
S'\xffj\xc1;'
p8807
tp8808
Rp8809
tp8810
a(g15
g6
(g18
S'\x18\xfc\xc4:'
p8811
tp8812
Rp8813
tp8814
a(g96
g6
(g18
S'\xb6\xd9:9'
p8815
tp8816
Rp8817
tp8818
asg73
g32
sa(dp8819
g2
S'../../../data/emanuela/activity-recognition/images/NTCIR-Lifelog-256/u1/2015-02-23/b00000668_21i6bq_20150223_140359e.jpg'
p8820
sg4
(lp8821
(g32
g6
(g18
S'\xd9\xa0\x7f?'
p8822
tp8823
Rp8824
tp8825
a(g56
g6
(g18
S'Z\x125:'
p8826
tp8827
Rp8828
tp8829
a(g131
g6
(g18
S'( \x7f9'
p8830
tp8831
Rp8832
tp8833
a(g96
g6
(g18
S'\x1b\x11e9'
p8834
tp8835
Rp8836
tp8837
a(g15
g6
(g18
S'\x7f#"9'
p8838
tp8839
Rp8840
tp8841
asg73
g32
sa(dp8842
g2
S'../../../data/emanuela/activity-recognition/images/NTCIR-Lifelog-256/u1/2015-02-23/b00000654_21i6bq_20150223_135513e.jpg'
p8843
sg4
(lp8844
(g32
g6
(g18
S'\x84\x04}?'
p8845
tp8846
Rp8847
tp8848
a(g56
g6
(g18
S'\xbc\x90\x0c<'
p8849
tp8850
Rp8851
tp8852
a(g131
g6
(g18
S'OY\xc7:'
p8853
tp8854
Rp8855
tp8856
a(g15
g6
(g18
S'\xf5\x1e\x7f:'
p8857
tp8858
Rp8859
tp8860
a(g44
g6
(g18
S'\x8a\x96\x9c9'
p8861
tp8862
Rp8863
tp8864
asg73
g32
sa(dp8865
g2
S'../../../data/emanuela/activity-recognition/images/NTCIR-Lifelog-256/u1/2015-03-11/b00001264_21i6bq_20150311_211658e.jpg'
p8866
sg4
(lp8867
(g32
g6
(g18
S'\x8a\xc6&?'
p8868
tp8869
Rp8870
tp8871
a(g56
g6
(g18
S'\x0by\r>'
p8872
tp8873
Rp8874
tp8875
a(g44
g6
(g18
S')\xfa\xe3='
p8876
tp8877
Rp8878
tp8879
a(g15
g6
(g18
S'\xeb\xf7\xa2='
p8880
tp8881
Rp8882
tp8883
a(g96
g6
(g18
S'\xc1\x13\xfc;'
p8884
tp8885
Rp8886
tp8887
asg73
g32
sa(dp8888
g2
S'../../../data/emanuela/activity-recognition/images/NTCIR-Lifelog-256/u1/2015-02-23/b00000657_21i6bq_20150223_135712e.jpg'
p8889
sg4
(lp8890
(g32
g6
(g18
S'\xf69\x7f?'
p8891
tp8892
Rp8893
tp8894
a(g56
g6
(g18
S'\xb2G\xfd:'
p8895
tp8896
Rp8897
tp8898
a(g44
g6
(g18
S'\xd3\xf5\xdd9'
p8899
tp8900
Rp8901
tp8902
a(g131
g6
(g18
S'\x86\x16\x959'
p8903
tp8904
Rp8905
tp8906
a(g96
g6
(g18
S'i\xfd99'
p8907
tp8908
Rp8909
tp8910
asg73
g32
sa(dp8911
g2
S'../../../data/emanuela/activity-recognition/images/NTCIR-Lifelog-256/u1/2015-02-25/b00001030_21i6bq_20150225_164417e.jpg'
p8912
sg4
(lp8913
(g96
g6
(g18
S'\x7f]J?'
p8914
tp8915
Rp8916
tp8917
a(g131
g6
(g18
S'\x17\xa9n='
p8918
tp8919
Rp8920
tp8921
a(g32
g6
(g18
S'R\x17n='
p8922
tp8923
Rp8924
tp8925
a(g44
g6
(g18
S'n\xa7\x12='
p8926
tp8927
Rp8928
tp8929
a(g1246
g6
(g18
S'\xb9/\xb6<'
p8930
tp8931
Rp8932
tp8933
asg73
g32
sa(dp8934
g2
S'../../../data/emanuela/activity-recognition/images/NTCIR-Lifelog-256/u1/2015-03-16/b00002913_21i6bq_20150316_201148e.jpg'
p8935
sg4
(lp8936
(g32
g6
(g18
S'\xbb\xbch?'
p8937
tp8938
Rp8939
tp8940
a(g56
g6
(g18
S'\xbb\xc3@='
p8941
tp8942
Rp8943
tp8944
a(g15
g6
(g18
S'Q\xb1\x81<'
p8945
tp8946
Rp8947
tp8948
a(g44
g6
(g18
S'f\x81F<'
p8949
tp8950
Rp8951
tp8952
a(g158
g6
(g18
S'\x17M%<'
p8953
tp8954
Rp8955
tp8956
asg73
g32
sa(dp8957
g2
S'../../../data/emanuela/activity-recognition/images/NTCIR-Lifelog-256/u1/2015-02-24/b00000931_21i6bq_20150224_161010e.jpg'
p8958
sg4
(lp8959
(g32
g6
(g18
S'\xd5\x1b,?'
p8960
tp8961
Rp8962
tp8963
a(g15
g6
(g18
S'\xaf\x87\xf5='
p8964
tp8965
Rp8966
tp8967
a(g56
g6
(g18
S'!\xf6\xad='
p8968
tp8969
Rp8970
tp8971
a(g44
g6
(g18
S'h.#='
p8972
tp8973
Rp8974
tp8975
a(g131
g6
(g18
S'oL\x1e='
p8976
tp8977
Rp8978
tp8979
asg73
g32
sa(dp8980
g2
S'../../../data/emanuela/activity-recognition/images/NTCIR-Lifelog-256/u1/2015-02-26/b00000757_21i6bq_20150226_142010e.jpg'
p8981
sg4
(lp8982
(g32
g6
(g18
S'x\x11\x0c?'
p8983
tp8984
Rp8985
tp8986
a(g56
g6
(g18
S'wh\x8c>'
p8987
tp8988
Rp8989
tp8990
a(g15
g6
(g18
S'\x84(,>'
p8991
tp8992
Rp8993
tp8994
a(g44
g6
(g18
S'\x1b\xbfX;'
p8995
tp8996
Rp8997
tp8998
a(g68
g6
(g18
S'\xd3\xbcU;'
p8999
tp9000
Rp9001
tp9002
asg73
g32
sa(dp9003
g2
S'../../../data/emanuela/activity-recognition/images/NTCIR-Lifelog-256/u1/2015-03-01/b00000488_21i6bq_20150301_114150e.jpg'
p9004
sg4
(lp9005
(g32
g6
(g18
S'\xbb\xd06?'
p9006
tp9007
Rp9008
tp9009
a(g15
g6
(g18
S'\x14/2>'
p9010
tp9011
Rp9012
tp9013
a(g56
g6
(g18
S'v\\\xd9='
p9014
tp9015
Rp9016
tp9017
a(g44
g6
(g18
S'\xd5\xd8\xb0;'
p9018
tp9019
Rp9020
tp9021
a(g68
g6
(g18
S'@,\x848'
p9022
tp9023
Rp9024
tp9025
asg73
g32
sa(dp9026
g2
S'../../../data/emanuela/activity-recognition/images/NTCIR-Lifelog-256/u1/2015-02-25/b00000988_21i6bq_20150225_161831e.jpg'
p9027
sg4
(lp9028
(g32
g6
(g18
S'T\xd9L?'
p9029
tp9030
Rp9031
tp9032
a(g56
g6
(g18
S'\xd04H>'
p9033
tp9034
Rp9035
tp9036
a(g158
g6
(g18
S'\xac\\d;'
p9037
tp9038
Rp9039
tp9040
a(g68
g6
(g18
S'\xd1\x0fM9'
p9041
tp9042
Rp9043
tp9044
a(g443
g6
(g18
S'\x9f\xfeJ9'
p9045
tp9046
Rp9047
tp9048
asg73
g32
sa(dp9049
g2
S'../../../data/emanuela/activity-recognition/images/NTCIR-Lifelog-256/u1/2015-02-25/b00000952_21i6bq_20150225_155621e.jpg'
p9050
sg4
(lp9051
(g1122
g6
(g18
S'\xa2\xd42?'
p9052
tp9053
Rp9054
tp9055
a(g131
g6
(g18
S'1\x07\xe0='
p9056
tp9057
Rp9058
tp9059
a(g15
g6
(g18
S'!5\xa1='
p9060
tp9061
Rp9062
tp9063
a(g96
g6
(g18
S"\x9b\xac'="
p9064
tp9065
Rp9066
tp9067
a(g5080
g6
(g18
S'\xcd\x88\xc1<'
p9068
tp9069
Rp9070
tp9071
asg73
g32
sa(dp9072
g2
S'../../../data/emanuela/activity-recognition/images/NTCIR-Lifelog-256/u1/2015-02-24/b00000471_21i6bq_20150224_112827e.jpg'
p9073
sg4
(lp9074
(g32
g6
(g18
S';|q?'
p9075
tp9076
Rp9077
tp9078
a(g56
g6
(g18
S'\xf4\x07X='
p9079
tp9080
Rp9081
tp9082
a(g158
g6
(g18
S'\x8e[F;'
p9083
tp9084
Rp9085
tp9086
a(g15
g6
(g18
S'\xb3\xd5?:'
p9087
tp9088
Rp9089
tp9090
a(g44
g6
(g18
S'\xb7\x01\xfd8'
p9091
tp9092
Rp9093
tp9094
asg73
g32
sa(dp9095
g2
S'../../../data/emanuela/activity-recognition/images/NTCIR-Lifelog-256/u1/2015-02-25/b00000958_21i6bq_20150225_160009e.jpg'
p9096
sg4
(lp9097
(g1122
g6
(g18
S'\x9a&\xb3>'
p9098
tp9099
Rp9100
tp9101
a(g15
g6
(g18
S'\xf3\x11\x8b>'
p9102
tp9103
Rp9104
tp9105
a(g56
g6
(g18
S'\x86M\xa2='
p9106
tp9107
Rp9108
tp9109
a(g44
g6
(g18
S'\xdd\xddx='
p9110
tp9111
Rp9112
tp9113
a(g32
g6
(g18
S'\xc5\x085='
p9114
tp9115
Rp9116
tp9117
asg73
g32
sa(dp9118
g2
S'../../../data/emanuela/activity-recognition/images/NTCIR-Lifelog-256/u1/2015-03-01/b00000509_21i6bq_20150301_115459e.jpg'
p9119
sg4
(lp9120
(g44
g6
(g18
S'S\x14\x07?'
p9121
tp9122
Rp9123
tp9124
a(g32
g6
(g18
S'\xe7\xc0\xb6>'
p9125
tp9126
Rp9127
tp9128
a(g96
g6
(g18
S'&8^='
p9129
tp9130
Rp9131
tp9132
a(g15
g6
(g18
S'\xd1\xd5<='
p9133
tp9134
Rp9135
tp9136
a(g56
g6
(g18
S'\xa5H\xbd;'
p9137
tp9138
Rp9139
tp9140
asg73
g32
sa(dp9141
g2
S'../../../data/emanuela/activity-recognition/images/NTCIR-Lifelog-256/u1/2015-03-11/b00001236_21i6bq_20150311_204533e.jpg'
p9142
sg4
(lp9143
(g131
g6
(g18
S'\xb6e\xd8>'
p9144
tp9145
Rp9146
tp9147
a(g56
g6
(g18
S'`c\xa0>'
p9148
tp9149
Rp9150
tp9151
a(g15
g6
(g18
S'\xc4\xd4\x17>'
p9152
tp9153
Rp9154
tp9155
a(g32
g6
(g18
S'<R\x86='
p9156
tp9157
Rp9158
tp9159
a(g44
g6
(g18
S'H\xea\x02='
p9160
tp9161
Rp9162
tp9163
asg73
g32
sa(dp9164
g2
S'../../../data/emanuela/activity-recognition/images/NTCIR-Lifelog-256/u1/2015-02-26/b00000774_21i6bq_20150226_143036e.jpg'
p9165
sg4
(lp9166
(g32
g6
(g18
S'\xd7\xf5Y?'
p9167
tp9168
Rp9169
tp9170
a(g56
g6
(g18
S'-I\xb3='
p9171
tp9172
Rp9173
tp9174
a(g15
g6
(g18
S'\x9b\xc5]='
p9175
tp9176
Rp9177
tp9178
a(g44
g6
(g18
S"-'L;"
p9179
tp9180
Rp9181
tp9182
a(g158
g6
(g18
S'\xfc\xfd\x1a;'
p9183
tp9184
Rp9185
tp9186
asg73
g32
sa(dp9187
g2
S'../../../data/emanuela/activity-recognition/images/NTCIR-Lifelog-256/u1/2015-03-01/b00000494_21i6bq_20150301_114608e.jpg'
p9188
sg4
(lp9189
(g15
g6
(g18
S'\x97\xc0@?'
p9190
tp9191
Rp9192
tp9193
a(g44
g6
(g18
S'D\xb3\xca='
p9194
tp9195
Rp9196
tp9197
a(g32
g6
(g18
S'\xfd\x8bW='
p9198
tp9199
Rp9200
tp9201
a(g56
g6
(g18
S'\xe5\xb7V='
p9202
tp9203
Rp9204
tp9205
a(g316
g6
(g18
S'}\xc7H<'
p9206
tp9207
Rp9208
tp9209
asg73
g32
sa(dp9210
g2
S'../../../data/emanuela/activity-recognition/images/NTCIR-Lifelog-256/u1/2015-03-06/b00000869_21i6bq_20150306_142501e.jpg'
p9211
sg4
(lp9212
(g56
g6
(g18
S'(\xfe+?'
p9213
tp9214
Rp9215
tp9216
a(g32
g6
(g18
S'\t\xb5\x1a>'
p9217
tp9218
Rp9219
tp9220
a(g15
g6
(g18
S'\x89\xf7\x8a='
p9221
tp9222
Rp9223
tp9224
a(g1122
g6
(g18
S"\x81~'="
p9225
tp9226
Rp9227
tp9228
a(g158
g6
(g18
S'\x0e\xe8\x16='
p9229
tp9230
Rp9231
tp9232
asg73
g32
sa(dp9233
g2
S'../../../data/emanuela/activity-recognition/images/NTCIR-Lifelog-256/u1/2015-02-24/b00000918_21i6bq_20150224_160217e.jpg'
p9234
sg4
(lp9235
(g32
g6
(g18
S'\xa4)\x07?'
p9236
tp9237
Rp9238
tp9239
a(g56
g6
(g18
S'\xa6\t\xdc>'
p9240
tp9241
Rp9242
tp9243
a(g15
g6
(g18
S'\xd0t\xc2<'
p9244
tp9245
Rp9246
tp9247
a(g131
g6
(g18
S'a\x80.<'
p9248
tp9249
Rp9250
tp9251
a(g1038
g6
(g18
S'\xfa\xf6%;'
p9252
tp9253
Rp9254
tp9255
asg73
g32
sa(dp9256
g2
S'../../../data/emanuela/activity-recognition/images/NTCIR-Lifelog-256/u1/2015-03-11/b00001339_21i6bq_20150311_221625e.jpg'
p9257
sg4
(lp9258
(g15
g6
(g18
S'3\x9e\xcd>'
p9259
tp9260
Rp9261
tp9262
a(g316
g6
(g18
S'\xfd\x9bW>'
p9263
tp9264
Rp9265
tp9266
a(g44
g6
(g18
S'\x01\x0c3>'
p9267
tp9268
Rp9269
tp9270
a(g96
g6
(g18
S'~\xea-='
p9271
tp9272
Rp9273
tp9274
a(g56
g6
(g18
S'\x1e\xa1"='
p9275
tp9276
Rp9277
tp9278
asg73
g32
sa(dp9279
g2
S'../../../data/emanuela/activity-recognition/images/NTCIR-Lifelog-256/u1/2015-02-23/b00000656_21i6bq_20150223_135631e.jpg'
p9280
sg4
(lp9281
(g32
g6
(g18
S'\x0b\xce|?'
p9282
tp9283
Rp9284
tp9285
a(g56
g6
(g18
S'W2\xb7;'
p9286
tp9287
Rp9288
tp9289
a(g131
g6
(g18
S'\xac5\xae;'
p9290
tp9291
Rp9292
tp9293
a(g96
g6
(g18
S'3\x8d^:'
p9294
tp9295
Rp9296
tp9297
a(g44
g6
(g18
S'ft\x9e9'
p9298
tp9299
Rp9300
tp9301
asg73
g32
sa(dp9302
g2
S'../../../data/emanuela/activity-recognition/images/NTCIR-Lifelog-256/u1/2015-02-25/b00001005_21i6bq_20150225_162856e.jpg'
p9303
sg4
(lp9304
(g32
g6
(g18
S'\xa1\x94}?'
p9305
tp9306
Rp9307
tp9308
a(g56
g6
(g18
S'\xeb\xc2\x0c<'
p9309
tp9310
Rp9311
tp9312
a(g158
g6
(g18
S'\x17>\xa89'
p9313
tp9314
Rp9315
tp9316
a(g44
g6
(g18
S'D\xb7l9'
p9317
tp9318
Rp9319
tp9320
a(g15
g6
(g18
S'G\xee/9'
p9321
tp9322
Rp9323
tp9324
asg73
g32
sa(dp9325
g2
S'../../../data/emanuela/activity-recognition/images/NTCIR-Lifelog-256/u1/2015-03-11/b00001237_21i6bq_20150311_205238e.jpg'
p9326
sg4
(lp9327
(g56
g6
(g18
S'\xd5\xe9\xdf>'
p9328
tp9329
Rp9330
tp9331
a(g32
g6
(g18
S'\xbf\xbd\xdc>'
p9332
tp9333
Rp9334
tp9335
a(g15
g6
(g18
S'$!\xd0='
p9336
tp9337
Rp9338
tp9339
a(g131
g6
(g18
S'\xcf\x1fe<'
p9340
tp9341
Rp9342
tp9343
a(g44
g6
(g18
S'\xf3\xd9\x00<'
p9344
tp9345
Rp9346
tp9347
asg73
g32
sa(dp9348
g2
S'../../../data/emanuela/activity-recognition/images/NTCIR-Lifelog-256/u1/2015-03-16/b00002919_21i6bq_20150316_201642e.jpg'
p9349
sg4
(lp9350
(g32
g6
(g18
S'\xc9\xe0\xce>'
p9351
tp9352
Rp9353
tp9354
a(g15
g6
(g18
S'\xd1\xc2s>'
p9355
tp9356
Rp9357
tp9358
a(g56
g6
(g18
S'|\xac<>'
p9359
tp9360
Rp9361
tp9362
a(g158
g6
(g18
S'D\xe0\xb2='
p9363
tp9364
Rp9365
tp9366
a(g44
g6
(g18
S'3\x88:='
p9367
tp9368
Rp9369
tp9370
asg73
g32
sa(dp9371
g2
S'../../../data/emanuela/activity-recognition/images/NTCIR-Lifelog-256/u1/2015-03-11/b00001241_21i6bq_20150311_205655e.jpg'
p9372
sg4
(lp9373
(g56
g6
(g18
S'\xfa\xb8\t?'
p9374
tp9375
Rp9376
tp9377
a(g32
g6
(g18
S'\n3\xcc>'
p9378
tp9379
Rp9380
tp9381
a(g15
g6
(g18
S'\xfaC^='
p9382
tp9383
Rp9384
tp9385
a(g44
g6
(g18
S'\xbd\xd3T;'
p9386
tp9387
Rp9388
tp9389
a(g96
g6
(g18
S'\xce\xa9\xd7:'
p9390
tp9391
Rp9392
tp9393
asg73
g32
sa(dp9394
g2
S'../../../data/emanuela/activity-recognition/images/NTCIR-Lifelog-256/u1/2015-03-11/b00001316_21i6bq_20150311_215813e.jpg'
p9395
sg4
(lp9396
(g44
g6
(g18
S'\xfe\xf7\xac>'
p9397
tp9398
Rp9399
tp9400
a(g15
g6
(g18
S'\x96\x92t>'
p9401
tp9402
Rp9403
tp9404
a(g32
g6
(g18
S'\x17\xcci>'
p9405
tp9406
Rp9407
tp9408
a(g56
g6
(g18
S'C\x05\xbe='
p9409
tp9410
Rp9411
tp9412
a(g96
g6
(g18
S'q\xbe\x0f='
p9413
tp9414
Rp9415
tp9416
asg73
g32
sa(dp9417
g2
S'../../../data/emanuela/activity-recognition/images/NTCIR-Lifelog-256/u1/2015-03-15/b00000874_21i6bq_20150315_160659e.jpg'
p9418
sg4
(lp9419
(g15
g6
(g18
S'\x8f\xa0\x02?'
p9420
tp9421
Rp9422
tp9423
a(g1122
g6
(g18
S'\xd9\x1a\xb3>'
p9424
tp9425
Rp9426
tp9427
a(g56
g6
(g18
S'\x9f\xa9l='
p9428
tp9429
Rp9430
tp9431
a(g32
g6
(g18
S'!\x9d\x83<'
p9432
tp9433
Rp9434
tp9435
a(g44
g6
(g18
S'e\xd7z<'
p9436
tp9437
Rp9438
tp9439
asg73
g32
sa(dp9440
g2
S'../../../data/emanuela/activity-recognition/images/NTCIR-Lifelog-256/u1/2015-03-11/b00001235_21i6bq_20150311_204452e.jpg'
p9441
sg4
(lp9442
(g32
g6
(g18
S'hLi?'
p9443
tp9444
Rp9445
tp9446
a(g56
g6
(g18
S'Ya\x8f='
p9447
tp9448
Rp9449
tp9450
a(g15
g6
(g18
S'\xe1\x91h<'
p9451
tp9452
Rp9453
tp9454
a(g44
g6
(g18
S'\x83\xe86;'
p9455
tp9456
Rp9457
tp9458
a(g158
g6
(g18
S'\x0c\x18\xb39'
p9459
tp9460
Rp9461
tp9462
asg73
g32
sa(dp9463
g2
S'../../../data/emanuela/activity-recognition/images/NTCIR-Lifelog-256/u1/2015-03-11/b00001340_21i6bq_20150311_221658e.jpg'
p9464
sg4
(lp9465
(g316
g6
(g18
S'\x96H\xcb>'
p9466
tp9467
Rp9468
tp9469
a(g56
g6
(g18
S' L\x10>'
p9470
tp9471
Rp9472
tp9473
a(g216
g6
(g18
S'\xd1%\x01>'
p9474
tp9475
Rp9476
tp9477
a(g68
g6
(g18
S'\xf9\xe0\xdc='
p9478
tp9479
Rp9480
tp9481
a(g96
g6
(g18
S'\xe9\xb4*='
p9482
tp9483
Rp9484
tp9485
asg73
g32
sa(dp9486
g2
S'../../../data/emanuela/activity-recognition/images/NTCIR-Lifelog-256/u1/2015-02-25/b00001017_21i6bq_20150225_163618e.jpg'
p9487
sg4
(lp9488
(g32
g6
(g18
S'S/m?'
p9489
tp9490
Rp9491
tp9492
a(g56
g6
(g18
S'M::='
p9493
tp9494
Rp9495
tp9496
a(g158
g6
(g18
S'\xd4\x01\x83<'
p9497
tp9498
Rp9499
tp9500
a(g15
g6
(g18
S'M\x10)<'
p9501
tp9502
Rp9503
tp9504
a(g44
g6
(g18
S'\xa8M3:'
p9505
tp9506
Rp9507
tp9508
asg73
g32
sa(dp9509
g2
S'../../../data/emanuela/activity-recognition/images/NTCIR-Lifelog-256/u1/2015-02-24/b00001175_21i6bq_20150224_184425e.jpg'
p9510
sg4
(lp9511
(g158
g6
(g18
S'_\xed|?'
p9512
tp9513
Rp9514
tp9515
a(g216
g6
(g18
S'_y\xb0;'
p9516
tp9517
Rp9518
tp9519
a(g15
g6
(g18
S'x-\x16;'
p9520
tp9521
Rp9522
tp9523
a(g32
g6
(g18
S'a\xa3\xe9:'
p9524
tp9525
Rp9526
tp9527
a(g56
g6
(g18
S'\x997\xa2:'
p9528
tp9529
Rp9530
tp9531
asg73
g32
sa(dp9532
g2
S'../../../data/emanuela/activity-recognition/images/NTCIR-Lifelog-256/u1/2015-02-25/b00000956_21i6bq_20150225_155855e.jpg'
p9533
sg4
(lp9534
(g96
g6
(g18
S'\x0b\x8a\x97>'
p9535
tp9536
Rp9537
tp9538
a(g15
g6
(g18
S'5}{>'
p9539
tp9540
Rp9541
tp9542
a(g131
g6
(g18
S'\xafT,>'
p9543
tp9544
Rp9545
tp9546
a(g1122
g6
(g18
S'\x11\xf3\xe2='
p9547
tp9548
Rp9549
tp9550
a(g32
g6
(g18
S'N\xa6J='
p9551
tp9552
Rp9553
tp9554
asg73
g32
sa(dp9555
g2
S'../../../data/emanuela/activity-recognition/images/NTCIR-Lifelog-256/u1/2015-02-25/b00001023_21i6bq_20150225_164000e.jpg'
p9556
sg4
(lp9557
(g32
g6
(g18
S'\x06\\w?'
p9558
tp9559
Rp9560
tp9561
a(g56
g6
(g18
S'\x19\xb5m<'
p9562
tp9563
Rp9564
tp9565
a(g44
g6
(g18
S'\x08\xc87<'
p9566
tp9567
Rp9568
tp9569
a(g15
g6
(g18
S'\x1b\xc5Q;'
p9570
tp9571
Rp9572
tp9573
a(g96
g6
(g18
S'rh\x0e;'
p9574
tp9575
Rp9576
tp9577
asg73
g32
sa(dp9578
g2
S'../../../data/emanuela/activity-recognition/images/NTCIR-Lifelog-256/u1/2015-02-23/b00000691_21i6bq_20150223_141815e.jpg'
p9579
sg4
(lp9580
(g44
g6
(g18
S'\x82D\xd3>'
p9581
tp9582
Rp9583
tp9584
a(g32
g6
(g18
S'a\x11\x8c>'
p9585
tp9586
Rp9587
tp9588
a(g96
g6
(g18
S'i\xfdM>'
p9589
tp9590
Rp9591
tp9592
a(g131
g6
(g18
S'\xe2\xfa\xb7='
p9593
tp9594
Rp9595
tp9596
a(g15
g6
(g18
S"'\xd8\x92<"
p9597
tp9598
Rp9599
tp9600
asg73
g32
sa(dp9601
g2
S'../../../data/emanuela/activity-recognition/images/NTCIR-Lifelog-256/u1/2015-02-24/b00000468_21i6bq_20150224_112645e.jpg'
p9602
sg4
(lp9603
(g32
g6
(g18
S'\xf5\x991?'
p9604
tp9605
Rp9606
tp9607
a(g56
g6
(g18
S'E\xc3\x81>'
p9608
tp9609
Rp9610
tp9611
a(g15
g6
(g18
S'\xe0d\xea<'
p9612
tp9613
Rp9614
tp9615
a(g158
g6
(g18
S'\xcd\xbf\x9e<'
p9616
tp9617
Rp9618
tp9619
a(g44
g6
(g18
S'\x94e>;'
p9620
tp9621
Rp9622
tp9623
asg73
g32
sa(dp9624
g2
S'../../../data/emanuela/activity-recognition/images/NTCIR-Lifelog-256/u1/2015-03-11/b00001242_21i6bq_20150311_205731e.jpg'
p9625
sg4
(lp9626
(g32
g6
(g18
S'|\x84o?'
p9627
tp9628
Rp9629
tp9630
a(g56
g6
(g18
S'y\x1f^='
p9631
tp9632
Rp9633
tp9634
a(g15
g6
(g18
S'[\x1b\xb0;'
p9635
tp9636
Rp9637
tp9638
a(g131
g6
(g18
S'\xdc3\x12;'
p9639
tp9640
Rp9641
tp9642
a(g44
g6
(g18
S'\xcb\xc0\x8e:'
p9643
tp9644
Rp9645
tp9646
asg73
g32
sa(dp9647
g2
S'../../../data/emanuela/activity-recognition/images/NTCIR-Lifelog-256/u1/2015-02-23/b00000682_21i6bq_20150223_141247e.jpg'
p9648
sg4
(lp9649
(g32
g6
(g18
S'\xb8\xd1}?'
p9650
tp9651
Rp9652
tp9653
a(g131
g6
(g18
S'o\x11\xc4;'
p9654
tp9655
Rp9656
tp9657
a(g56
g6
(g18
S'\xf7\xc0z:'
p9658
tp9659
Rp9660
tp9661
a(g15
g6
(g18
S'\x9a\xc5<:'
p9662
tp9663
Rp9664
tp9665
a(g96
g6
(g18
S'\x08\x95$:'
p9666
tp9667
Rp9668
tp9669
asg73
g32
sa(dp9670
g2
S'../../../data/emanuela/activity-recognition/images/NTCIR-Lifelog-256/u1/2015-02-27/b00000634_21i6bq_20150227_135823e.jpg'
p9671
sg4
(lp9672
(g32
g6
(g18
S'\x94\xe4w?'
p9673
tp9674
Rp9675
tp9676
a(g56
g6
(g18
S'%\x8f\x92<'
p9677
tp9678
Rp9679
tp9680
a(g15
g6
(g18
S'\x93z\xa4;'
p9681
tp9682
Rp9683
tp9684
a(g158
g6
(g18
S'\xc8\xd6\x86;'
p9685
tp9686
Rp9687
tp9688
a(g44
g6
(g18
S'\x9d\x04|;'
p9689
tp9690
Rp9691
tp9692
asg73
g32
sa(dp9693
g2
S'../../../data/emanuela/activity-recognition/images/NTCIR-Lifelog-256/u1/2015-02-25/b00000976_21i6bq_20150225_161112e.jpg'
p9694
sg4
(lp9695
(g1122
g6
(g18
S'\x04\xa2\xa9>'
p9696
tp9697
Rp9698
tp9699
a(g56
g6
(g18
S' \x04@>'
p9700
tp9701
Rp9702
tp9703
a(g15
g6
(g18
S'\x0f\xc4\x1f>'
p9704
tp9705
Rp9706
tp9707
a(g32
g6
(g18
S'f\x16\x8b='
p9708
tp9709
Rp9710
tp9711
a(g131
g6
(g18
S'~\x82M='
p9712
tp9713
Rp9714
tp9715
asg73
g32
sa(dp9716
g2
S'../../../data/emanuela/activity-recognition/images/NTCIR-Lifelog-256/u1/2015-02-24/b00000914_21i6bq_20150224_155943e.jpg'
p9717
sg4
(lp9718
(g56
g6
(g18
S'3?)?'
p9719
tp9720
Rp9721
tp9722
a(g32
g6
(g18
S'\x9dK\xa6>'
p9723
tp9724
Rp9725
tp9726
a(g1122
g6
(g18
S'\xaf\xf9\xa1;'
p9727
tp9728
Rp9729
tp9730
a(g15
g6
(g18
S'\x8c:[;'
p9731
tp9732
Rp9733
tp9734
a(g44
g6
(g18
S'`>\x82:'
p9735
tp9736
Rp9737
tp9738
asg73
g32
sa(dp9739
g2
S'../../../data/emanuela/activity-recognition/images/NTCIR-Lifelog-256/u1/2015-02-24/b00000475_21i6bq_20150224_113051e.jpg'
p9740
sg4
(lp9741
(g32
g6
(g18
S'\x1c\xb3\\?'
p9742
tp9743
Rp9744
tp9745
a(g56
g6
(g18
S'\\=\t>'
p9746
tp9747
Rp9748
tp9749
a(g15
g6
(g18
S'(\xc4!;'
p9750
tp9751
Rp9752
tp9753
a(g158
g6
(g18
S'\xe2\xb8\x93:'
p9754
tp9755
Rp9756
tp9757
a(g44
g6
(g18
S'{QH9'
p9758
tp9759
Rp9760
tp9761
asg73
g32
sa(dp9762
g2
S'../../../data/emanuela/activity-recognition/images/NTCIR-Lifelog-256/u1/2015-03-11/b00001354_21i6bq_20150311_222722e.jpg'
p9763
sg4
(lp9764
(g68
g6
(g18
S'\x83\xb7\n?'
p9765
tp9766
Rp9767
tp9768
a(g316
g6
(g18
S"d'|>"
p9769
tp9770
Rp9771
tp9772
a(g216
g6
(g18
S'\xd4\xf5\xf2='
p9773
tp9774
Rp9775
tp9776
a(g56
g6
(g18
S'\xbd%\xd9<'
p9777
tp9778
Rp9779
tp9780
a(g32
g6
(g18
S'sv\x86<'
p9781
tp9782
Rp9783
tp9784
asg73
g32
sa(dp9785
g2
S'../../../data/emanuela/activity-recognition/images/NTCIR-Lifelog-256/u1/2015-02-23/b00000671_21i6bq_20150223_140552e.jpg'
p9786
sg4
(lp9787
(g32
g6
(g18
S'4\xc5\x7f?'
p9788
tp9789
Rp9790
tp9791
a(g56
g6
(g18
S'\x04N7:'
p9792
tp9793
Rp9794
tp9795
a(g15
g6
(g18
S'%\x1b\xbd8'
p9796
tp9797
Rp9798
tp9799
a(g131
g6
(g18
S'{\x01\x988'
p9800
tp9801
Rp9802
tp9803
a(g96
g6
(g18
S'\\Y\xd17'
p9804
tp9805
Rp9806
tp9807
asg73
g32
sa(dp9808
g2
S'../../../data/emanuela/activity-recognition/images/NTCIR-Lifelog-256/u1/2015-02-26/b00000780_21i6bq_20150226_143420e.jpg'
p9809
sg4
(lp9810
(g32
g6
(g18
S'8{X?'
p9811
tp9812
Rp9813
tp9814
a(g56
g6
(g18
S'\x0e\x95\t>'
p9815
tp9816
Rp9817
tp9818
a(g158
g6
(g18
S'\xb4\xc4W<'
p9819
tp9820
Rp9821
tp9822
a(g96
g6
(g18
S'\xd0\xfa-;'
p9823
tp9824
Rp9825
tp9826
a(g15
g6
(g18
S'\xb2\xf3\x17;'
p9827
tp9828
Rp9829
tp9830
asg73
g32
sa(dp9831
g2
S'../../../data/emanuela/activity-recognition/images/NTCIR-Lifelog-256/u1/2015-03-11/b00001327_21i6bq_20150311_220613e.jpg'
p9832
sg4
(lp9833
(g131
g6
(g18
S'\xbd*\x17?'
p9834
tp9835
Rp9836
tp9837
a(g96
g6
(g18
S'\x9d\x8e\r>'
p9838
tp9839
Rp9840
tp9841
a(g1246
g6
(g18
S'v\xe3\x90='
p9842
tp9843
Rp9844
tp9845
a(g32
g6
(g18
S'>(\x80='
p9846
tp9847
Rp9848
tp9849
a(g56
g6
(g18
S'r\xe1#='
p9850
tp9851
Rp9852
tp9853
asg73
g32
sa(dp9854
g2
S'../../../data/emanuela/activity-recognition/images/NTCIR-Lifelog-256/u1/2015-03-15/b00000872_21i6bq_20150315_160548e.jpg'
p9855
sg4
(lp9856
(g158
g6
(g18
S'+\xb9\xc2>'
p9857
tp9858
Rp9859
tp9860
a(g32
g6
(g18
S'\x03%\xb3>'
p9861
tp9862
Rp9863
tp9864
a(g56
g6
(g18
S':\xe8 >'
p9865
tp9866
Rp9867
tp9868
a(g15
g6
(g18
S'=3q='
p9869
tp9870
Rp9871
tp9872
a(g44
g6
(g18
S';\x1a><'
p9873
tp9874
Rp9875
tp9876
asg73
g32
sa(dp9877
g2
S'../../../data/emanuela/activity-recognition/images/NTCIR-Lifelog-256/u1/2015-02-24/b00000929_21i6bq_20150224_160858e.jpg'
p9878
sg4
(lp9879
(g32
g6
(g18
S'C\xce\x10?'
p9880
tp9881
Rp9882
tp9883
a(g56
g6
(g18
S'\x0b\xaa\xd9>'
p9884
tp9885
Rp9886
tp9887
a(g15
g6
(g18
S'\x8d\x80\x11<'
p9888
tp9889
Rp9890
tp9891
a(g44
g6
(g18
S'\t\xe9\xfe8'
p9892
tp9893
Rp9894
tp9895
a(g158
g6
(g18
S'\\\xbf\xc28'
p9896
tp9897
Rp9898
tp9899
asg73
g32
sa(dp9900
g2
S'../../../data/emanuela/activity-recognition/images/NTCIR-Lifelog-256/u1/2015-02-25/b00001015_21i6bq_20150225_163508e.jpg'
p9901
sg4
(lp9902
(g32
g6
(g18
S'\xf1\x9bJ?'
p9903
tp9904
Rp9905
tp9906
a(g96
g6
(g18
S'\xf5\xf4\x97='
p9907
tp9908
Rp9909
tp9910
a(g158
g6
(g18
S'T\xdcP='
p9911
tp9912
Rp9913
tp9914
a(g131
g6
(g18
S'\xb4\xd8\xf8<'
p9915
tp9916
Rp9917
tp9918
a(g15
g6
(g18
S'f\xa3\xe3<'
p9919
tp9920
Rp9921
tp9922
asg73
g32
sa(dp9923
g2
S'../../../data/emanuela/activity-recognition/images/NTCIR-Lifelog-256/u1/2015-03-06/b00000873_21i6bq_20150306_142728e.jpg'
p9924
sg4
(lp9925
(g131
g6
(g18
S'\xc4\x8d\x96>'
p9926
tp9927
Rp9928
tp9929
a(g15
g6
(g18
S'{\x1d5>'
p9930
tp9931
Rp9932
tp9933
a(g56
g6
(g18
S'\xad\x8a\xd7='
p9934
tp9935
Rp9936
tp9937
a(g96
g6
(g18
S'\x9c\x97\xb0='
p9938
tp9939
Rp9940
tp9941
a(g32
g6
(g18
S'\xa5\xee\x95='
p9942
tp9943
Rp9944
tp9945
asg73
g32
sa(dp9946
g2
S'../../../data/emanuela/activity-recognition/images/NTCIR-Lifelog-256/u1/2015-03-11/b00001334_21i6bq_20150311_221029e.jpg'
p9947
sg4
(lp9948
(g56
g6
(g18
S'\xbfE\x89>'
p9949
tp9950
Rp9951
tp9952
a(g131
g6
(g18
S'F\xbc\x85>'
p9953
tp9954
Rp9955
tp9956
a(g15
g6
(g18
S'\xef\xfd/>'
p9957
tp9958
Rp9959
tp9960
a(g44
g6
(g18
S'\x89\x9d\x16>'
p9961
tp9962
Rp9963
tp9964
a(g32
g6
(g18
S'\x05\x9b\xb8='
p9965
tp9966
Rp9967
tp9968
asg73
g32
sa(dp9969
g2
S'../../../data/emanuela/activity-recognition/images/NTCIR-Lifelog-256/u1/2015-02-26/b00000748_21i6bq_20150226_141721e.jpg'
p9970
sg4
(lp9971
(g32
g6
(g18
S'/\xdb]?'
p9972
tp9973
Rp9974
tp9975
a(g56
g6
(g18
S'\xd66\xe3='
p9976
tp9977
Rp9978
tp9979
a(g15
g6
(g18
S'\xdb-I<'
p9980
tp9981
Rp9982
tp9983
a(g158
g6
(g18
S'U\xfa\x9a;'
p9984
tp9985
Rp9986
tp9987
a(g44
g6
(g18
S'yq);'
p9988
tp9989
Rp9990
tp9991
asg73
g32
sa(dp9992
g2
S'../../../data/emanuela/activity-recognition/images/NTCIR-Lifelog-256/u1/2015-03-04/b00000959_21i6bq_20150304_165558e.jpg'
p9993
sg4
(lp9994
(g32
g6
(g18
S'\xc7\x01h?'
p9995
tp9996
Rp9997
tp9998
a(g56
g6
(g18
S'\xba\xa0\xb7='
p9999
tp10000
Rp10001
tp10002
a(g158
g6
(g18
S'\xda-%;'
p10003
tp10004
Rp10005
tp10006
a(g15
g6
(g18
S'\xc6\x82\x13:'
p10007
tp10008
Rp10009
tp10010
a(g68
g6
(g18
S'\x9a\xa9\x829'
p10011
tp10012
Rp10013
tp10014
asg73
g32
sa(dp10015
g2
S'../../../data/emanuela/activity-recognition/images/NTCIR-Lifelog-256/u1/2015-02-24/b00000933_21i6bq_20150224_161126e.jpg'
p10016
sg4
(lp10017
(g32
g6
(g18
S'\xf2\xf2m?'
p10018
tp10019
Rp10020
tp10021
a(g56
g6
(g18
S'EMr='
p10022
tp10023
Rp10024
tp10025
a(g15
g6
(g18
S'\x8b\xbb\x03<'
p10026
tp10027
Rp10028
tp10029
a(g96
g6
(g18
S'Hk\x83:'
p10030
tp10031
Rp10032
tp10033
a(g44
g6
(g18
S'\x9a~}:'
p10034
tp10035
Rp10036
tp10037
asg73
g32
sa.