(lp0
(dp1
S'image'
p2
S'../../../data/emanuela/activity-recognition/images/NTCIR-Lifelog-256/u1/2015-03-06/b00000862_21i6bq_20150306_142045e.jpg'
p3
sS'result'
p4
(lp5
(cnumpy.core.multiarray
scalar
p6
(cnumpy
dtype
p7
(S'S27'
p8
I0
I1
tp9
Rp10
(I3
S'|'
p11
NNNI27
I1
I0
tp12
bS'having drinks with somebody'
p13
tp14
Rp15
g6
(g7
(S'f4'
p16
I0
I1
tp17
Rp18
(I3
S'<'
p19
NNNI-1
I-1
I0
tp20
bS'Z\xdcS>'
p21
tp22
Rp23
tp24
a(g6
(g7
(S'S7'
p25
I0
I1
tp26
Rp27
(I3
S'|'
p28
NNNI7
I1
I0
tp29
bS'talking'
p30
tp31
Rp32
g6
(g18
S'X@#>'
p33
tp34
Rp35
tp36
a(g6
(g7
(S'S14'
p37
I0
I1
tp38
Rp39
(I3
S'|'
p40
NNNI14
I1
I0
tp41
bS'walking indoor'
p42
tp43
Rp44
g6
(g18
S'Y)\x1b>'
p45
tp46
Rp47
tp48
a(g6
(g7
(S'S6'
p49
I0
I1
tp50
Rp51
(I3
S'|'
p52
NNNI6
I1
I0
tp53
bS'mobile'
p54
tp55
Rp56
g6
(g18
S'l\t\xdf='
p57
tp58
Rp59
tp60
a(g6
(g7
(S'S8'
p61
I0
I1
tp62
Rp63
(I3
S'|'
p64
NNNI8
I1
I0
tp65
bS'shopping'
p66
tp67
Rp68
g6
(g18
S'S\xa7\x95='
p69
tp70
Rp71
tp72
asS'label'
p73
g6
(g7
(S'S11'
p74
I0
I1
tp75
Rp76
(I3
S'|'
p77
NNNI11
I1
I0
tp78
bS'socializing'
p79
tp80
Rp81
sa(dp82
g2
S'../../../data/emanuela/activity-recognition/images/NTCIR-Lifelog-256/u1/2015-03-15/b00001129_21i6bq_20150315_183436e.jpg'
p83
sg4
(lp84
(g81
g6
(g18
S'\x1a{^?'
p85
tp86
Rp87
tp88
a(g15
g6
(g18
S'\x10\x17\xa0='
p89
tp90
Rp91
tp92
a(g44
g6
(g18
S'Op\xb3<'
p93
tp94
Rp95
tp96
a(g32
g6
(g18
S'\x9e\x10?<'
p97
tp98
Rp99
tp100
a(g6
(g7
(S'S25'
p101
I0
I1
tp102
Rp103
(I3
S'|'
p104
NNNI25
I1
I0
tp105
bS'having meal with somebody'
p106
tp107
Rp108
g6
(g18
S'm\x05\xd5;'
p109
tp110
Rp111
tp112
asg73
g81
sa(dp113
g2
S'../../../data/emanuela/activity-recognition/images/NTCIR-Lifelog-256/u1/2015-02-23/b00000493_21i6bq_20150223_121712e.jpg'
p114
sg4
(lp115
(g32
g6
(g18
S'\xd3\x9d\x18?'
p116
tp117
Rp118
tp119
a(g6
(g7
(S'S16'
p120
I0
I1
tp121
Rp122
(I3
S'|'
p123
NNNI16
I1
I0
tp124
bS'public transport'
p125
tp126
Rp127
g6
(g18
S'\xec\xed\xee='
p128
tp129
Rp130
tp131
a(g81
g6
(g18
S'\xeb\x86\xc8='
p132
tp133
Rp134
tp135
a(g56
g6
(g18
S'6\xd4~='
p136
tp137
Rp138
tp139
a(g6
(g7
(S'S15'
p140
I0
I1
tp141
Rp142
(I3
S'|'
p143
NNNI15
I1
I0
tp144
bS'walking outdoor'
p145
tp146
Rp147
g6
(g18
S'\xeb\xd15='
p148
tp149
Rp150
tp151
asg73
g81
sa(dp152
g2
S'../../../data/emanuela/activity-recognition/images/NTCIR-Lifelog-256/u1/2015-03-17/b00000850_21i6bq_20150317_163516e.jpg'
p153
sg4
(lp154
(g15
g6
(g18
S'9\xe4%?'
p155
tp156
Rp157
tp158
a(g81
g6
(g18
S'\xff8%>'
p159
tp160
Rp161
tp162
a(g44
g6
(g18
S'\xd2\x11\x9b='
p163
tp164
Rp165
tp166
a(g127
g6
(g18
S'`\xdb\xd6<'
p167
tp168
Rp169
tp170
a(g68
g6
(g18
S'\xd5\x88\xca<'
p171
tp172
Rp173
tp174
asg73
g81
sa(dp175
g2
S'../../../data/emanuela/activity-recognition/images/NTCIR-Lifelog-256/u1/2015-03-11/b00000203_21i6bq_20150311_084449e.jpg'
p176
sg4
(lp177
(g81
g6
(g18
S'\xcc\xa6N?'
p178
tp179
Rp180
tp181
a(g15
g6
(g18
S'\xd1\xe1\xc0='
p182
tp183
Rp184
tp185
a(g32
g6
(g18
S'\xba\x96\x88='
p186
tp187
Rp188
tp189
a(g44
g6
(g18
S'\x85%\x12<'
p190
tp191
Rp192
tp193
a(g127
g6
(g18
S'\xe5J\xb2;'
p194
tp195
Rp196
tp197
asg73
g81
sa(dp198
g2
S'../../../data/emanuela/activity-recognition/images/NTCIR-Lifelog-256/u1/2015-02-23/b00000635_21i6bq_20150223_134243e.jpg'
p199
sg4
(lp200
(g147
g6
(g18
S'\x1c\xac\xaf>'
p201
tp202
Rp203
tp204
a(g56
g6
(g18
S'\x1a\xff\x85>'
p205
tp206
Rp207
tp208
a(g44
g6
(g18
S'e\xd3\xe2='
p209
tp210
Rp211
tp212
a(g127
g6
(g18
S'\xc7\\\xc7='
p213
tp214
Rp215
tp216
a(g32
g6
(g18
S'q\xcaq='
p217
tp218
Rp219
tp220
asg73
g81
sa(dp221
g2
S'../../../data/emanuela/activity-recognition/images/NTCIR-Lifelog-256/u1/2015-02-23/b00000092_21i6bq_20150223_080038e.jpg'
p222
sg4
(lp223
(g6
(g7
(S'S7'
p224
I0
I1
tp225
Rp226
(I3
S'|'
p227
NNNI7
I1
I0
tp228
bS'resting'
p229
tp230
Rp231
g6
(g18
S'\xb8\xaa\xd3>'
p232
tp233
Rp234
tp235
a(g6
(g7
(S'S7'
p236
I0
I1
tp237
Rp238
(I3
S'|'
p239
NNNI7
I1
I0
tp240
bS'reading'
p241
tp242
Rp243
g6
(g18
S'\t\x81\xc8>'
p244
tp245
Rp246
tp247
a(g6
(g7
(S'S7'
p248
I0
I1
tp249
Rp250
(I3
S'|'
p251
NNNI7
I1
I0
tp252
bS'working'
p253
tp254
Rp255
g6
(g18
S'\x8f\x9f\x0c='
p256
tp257
Rp258
tp259
a(g32
g6
(g18
S'\x07\x14\xf0<'
p260
tp261
Rp262
tp263
a(g6
(g7
(S'S24'
p264
I0
I1
tp265
Rp266
(I3
S'|'
p267
NNNI24
I1
I0
tp268
bS'having drinks/meal alone'
p269
tp270
Rp271
g6
(g18
S'\x7f\xc6\xde<'
p272
tp273
Rp274
tp275
asg73
g81
sa(dp276
g2
S'../../../data/emanuela/activity-recognition/images/NTCIR-Lifelog-256/u1/2015-03-06/b00000856_21i6bq_20150306_141716e.jpg'
p277
sg4
(lp278
(g68
g6
(g18
S'\x81\xc1\xd1>'
p279
tp280
Rp281
tp282
a(g44
g6
(g18
S'\xf6\xf0|>'
p283
tp284
Rp285
tp286
a(g15
g6
(g18
S'a9\x0b>'
p287
tp288
Rp289
tp290
a(g81
g6
(g18
S'\xaa\xe4\x9f='
p291
tp292
Rp293
tp294
a(g32
g6
(g18
S'\xda\xd6\n='
p295
tp296
Rp297
tp298
asg73
g81
sa(dp299
g2
S'../../../data/emanuela/activity-recognition/images/NTCIR-Lifelog-256/u1/2015-02-23/b00000623_21i6bq_20150223_133541e.jpg'
p300
sg4
(lp301
(g147
g6
(g18
S'\x9cX\xc6>'
p302
tp303
Rp304
tp305
a(g127
g6
(g18
S'!\xaf\xb1>'
p306
tp307
Rp308
tp309
a(g56
g6
(g18
S'\xf8\xdf\xc5='
p310
tp311
Rp312
tp313
a(g81
g6
(g18
S'N\xd2B='
p314
tp315
Rp316
tp317
a(g271
g6
(g18
S'\\\xba\xd4<'
p318
tp319
Rp320
tp321
asg73
g81
sa(dp322
g2
S'../../../data/emanuela/activity-recognition/images/NTCIR-Lifelog-256/u1/2015-02-23/b00000622_21i6bq_20150223_133510e.jpg'
p323
sg4
(lp324
(g127
g6
(g18
S'J\xa0X>'
p325
tp326
Rp327
tp328
a(g81
g6
(g18
S'\x0f_C>'
p329
tp330
Rp331
tp332
a(g147
g6
(g18
S'F-\x13>'
p333
tp334
Rp335
tp336
a(g56
g6
(g18
S';\xbb\x03>'
p337
tp338
Rp339
tp340
a(g15
g6
(g18
S'Cs\xf4='
p341
tp342
Rp343
tp344
asg73
g81
sa(dp345
g2
S'../../../data/emanuela/activity-recognition/images/NTCIR-Lifelog-256/u1/2015-02-23/b00000621_21i6bq_20150223_133431e.jpg'
p346
sg4
(lp347
(g127
g6
(g18
S'\x89E\x83>'
p348
tp349
Rp350
tp351
a(g56
g6
(g18
S'\xe9V6>'
p352
tp353
Rp354
tp355
a(g81
g6
(g18
S'\x11\x07\x05>'
p356
tp357
Rp358
tp359
a(g44
g6
(g18
S'\x87\x1d\xe5='
p360
tp361
Rp362
tp363
a(g147
g6
(g18
S'\xaf\xb5\x9d='
p364
tp365
Rp366
tp367
asg73
g81
sa(dp368
g2
S'../../../data/emanuela/activity-recognition/images/NTCIR-Lifelog-256/u1/2015-02-23/b00000511_21i6bq_20150223_122802e.jpg'
p369
sg4
(lp370
(g127
g6
(g18
S'g\xfb\x8e>'
p371
tp372
Rp373
tp374
a(g32
g6
(g18
S'.6g>'
p375
tp376
Rp377
tp378
a(g81
g6
(g18
S'\xfb\xf0\xe4='
p379
tp380
Rp381
tp382
a(g147
g6
(g18
S'{\xdd\xd9='
p383
tp384
Rp385
tp386
a(g44
g6
(g18
S'\xf4\x93\xc2='
p387
tp388
Rp389
tp390
asg73
g81
sa(dp391
g2
S'../../../data/emanuela/activity-recognition/images/NTCIR-Lifelog-256/u1/2015-03-17/b00000842_21i6bq_20150317_163022e.jpg'
p392
sg4
(lp393
(g15
g6
(g18
S'\x92"U?'
p394
tp395
Rp396
tp397
a(g81
g6
(g18
S'\x8c\xf5Y='
p398
tp399
Rp400
tp401
a(g44
g6
(g18
S'\x9b\xa1E='
p402
tp403
Rp404
tp405
a(g68
g6
(g18
S'\xc0\x13-='
p406
tp407
Rp408
tp409
a(g32
g6
(g18
S'\xf1I3<'
p410
tp411
Rp412
tp413
asg73
g81
sa(dp414
g2
S'../../../data/emanuela/activity-recognition/images/NTCIR-Lifelog-256/u1/2015-02-23/b00000547_21i6bq_20150223_124928e.jpg'
p415
sg4
(lp416
(g56
g6
(g18
S'\x15y\x8d>'
p417
tp418
Rp419
tp420
a(g32
g6
(g18
S'~\xb9b>'
p421
tp422
Rp423
tp424
a(g44
g6
(g18
S'\xb7@\x1f>'
p425
tp426
Rp427
tp428
a(g15
g6
(g18
S'{\xb8t='
p429
tp430
Rp431
tp432
a(g271
g6
(g18
S'\x18\xe8G='
p433
tp434
Rp435
tp436
asg73
g81
sa(dp437
g2
S'../../../data/emanuela/activity-recognition/images/NTCIR-Lifelog-256/u1/2015-02-23/b00000534_21i6bq_20150223_124124e.jpg'
p438
sg4
(lp439
(g32
g6
(g18
S'\xcc\xd7\xa4>'
p440
tp441
Rp442
tp443
a(g44
g6
(g18
S';\xfe\x8c>'
p444
tp445
Rp446
tp447
a(g81
g6
(g18
S'\xdff\t>'
p448
tp449
Rp450
tp451
a(g15
g6
(g18
S')\xff\xc3='
p452
tp453
Rp454
tp455
a(g127
g6
(g18
S'\xc5\x946='
p456
tp457
Rp458
tp459
asg73
g81
sa(dp460
g2
S'../../../data/emanuela/activity-recognition/images/NTCIR-Lifelog-256/u1/2015-02-23/b00000606_21i6bq_20150223_132538e.jpg'
p461
sg4
(lp462
(g127
g6
(g18
S'\x8c\x13\xa7>'
p463
tp464
Rp465
tp466
a(g147
g6
(g18
S'\xb9\xa7K>'
p467
tp468
Rp469
tp470
a(g56
g6
(g18
S'\xdf\x8b\xe1='
p471
tp472
Rp473
tp474
a(g44
g6
(g18
S'\x0e\x08\x8e='
p475
tp476
Rp477
tp478
a(g81
g6
(g18
S'\xae\xe1\x8b='
p479
tp480
Rp481
tp482
asg73
g81
sa(dp483
g2
S'../../../data/emanuela/activity-recognition/images/NTCIR-Lifelog-256/u1/2015-03-15/b00001137_21i6bq_20150315_184218e.jpg'
p484
sg4
(lp485
(g81
g6
(g18
S'\x93\xe3\n?'
p486
tp487
Rp488
tp489
a(g44
g6
(g18
S'\x82\xe4\x86>'
p490
tp491
Rp492
tp493
a(g32
g6
(g18
S'\xady\xfd='
p494
tp495
Rp496
tp497
a(g15
g6
(g18
S'V\x81\xe4<'
p498
tp499
Rp500
tp501
a(g68
g6
(g18
S'\x84T\xf7;'
p502
tp503
Rp504
tp505
asg73
g81
sa(dp506
g2
S'../../../data/emanuela/activity-recognition/images/NTCIR-Lifelog-256/u1/2015-02-23/b00000526_21i6bq_20150223_123702e.jpg'
p507
sg4
(lp508
(g6
(g7
(S'S19'
p509
I0
I1
tp510
Rp511
(I3
S'|'
p512
NNNI19
I1
I0
tp513
bS'cleaning and chores'
p514
tp515
Rp516
g6
(g18
S'\x90\xbd\x96>'
p517
tp518
Rp519
tp520
a(g44
g6
(g18
S'\x1f\xd05>'
p521
tp522
Rp523
tp524
a(g15
g6
(g18
S'\x9f\x11$>'
p525
tp526
Rp527
tp528
a(g56
g6
(g18
S'g\x12q='
p529
tp530
Rp531
tp532
a(g271
g6
(g18
S'\xd7mZ='
p533
tp534
Rp535
tp536
asg73
g81
sa(dp537
g2
S'../../../data/emanuela/activity-recognition/images/NTCIR-Lifelog-256/u1/2015-02-23/b00000512_21i6bq_20150223_122840e.jpg'
p538
sg4
(lp539
(g81
g6
(g18
S'K-\x93>'
p540
tp541
Rp542
tp543
a(g32
g6
(g18
S'\xc5\xb5i>'
p544
tp545
Rp546
tp547
a(g127
g6
(g18
S'\x8e\xd72>'
p548
tp549
Rp550
tp551
a(g44
g6
(g18
S'>b\r>'
p552
tp553
Rp554
tp555
a(g147
g6
(g18
S'\xc2\xdf\xa9='
p556
tp557
Rp558
tp559
asg73
g81
sa(dp560
g2
S'../../../data/emanuela/activity-recognition/images/NTCIR-Lifelog-256/u1/2015-02-23/b00000487_21i6bq_20150223_121344e.jpg'
p561
sg4
(lp562
(g81
g6
(g18
S'\xf3\x13\x05?'
p563
tp564
Rp565
tp566
a(g32
g6
(g18
S'\x8c\x12\x8b>'
p567
tp568
Rp569
tp570
a(g44
g6
(g18
S'\xeb,`='
p571
tp572
Rp573
tp574
a(g127
g6
(g18
S'\x8e$X='
p575
tp576
Rp577
tp578
a(g147
g6
(g18
S'K\xa4U='
p579
tp580
Rp581
tp582
asg73
g81
sa(dp583
g2
S'../../../data/emanuela/activity-recognition/images/NTCIR-Lifelog-256/u1/2015-02-23/b00000500_21i6bq_20150223_122129e.jpg'
p584
sg4
(lp585
(g127
g6
(g18
S'\xfc\xc8\xb5>'
p586
tp587
Rp588
tp589
a(g81
g6
(g18
S'\xd6\x94X>'
p590
tp591
Rp592
tp593
a(g56
g6
(g18
S'ha\xf7='
p594
tp595
Rp596
tp597
a(g32
g6
(g18
S'd\x1d\xe5='
p598
tp599
Rp600
tp601
a(g147
g6
(g18
S'\xe2g\xa6='
p602
tp603
Rp604
tp605
asg73
g81
sa(dp606
g2
S'../../../data/emanuela/activity-recognition/images/NTCIR-Lifelog-256/u1/2015-02-23/b00000532_21i6bq_20150223_124018e.jpg'
p607
sg4
(lp608
(g32
g6
(g18
S'\xea\xaf\x81>'
p609
tp610
Rp611
tp612
a(g44
g6
(g18
S'\x9c\xc6S>'
p613
tp614
Rp615
tp616
a(g15
g6
(g18
S'\xf6\xf2(>'
p617
tp618
Rp619
tp620
a(g81
g6
(g18
S'#\x02&>'
p621
tp622
Rp623
tp624
a(g108
g6
(g18
S'\xa4)\x85='
p625
tp626
Rp627
tp628
asg73
g81
sa(dp629
g2
S'../../../data/emanuela/activity-recognition/images/NTCIR-Lifelog-256/u1/2015-02-23/b00000524_21i6bq_20150223_123544e.jpg'
p630
sg4
(lp631
(g44
g6
(g18
S'\xee4\xbc>'
p632
tp633
Rp634
tp635
a(g147
g6
(g18
S'\xecA^>'
p636
tp637
Rp638
tp639
a(g56
g6
(g18
S'\xcc\xd5\xd2='
p640
tp641
Rp642
tp643
a(g6
(g7
(S'S6'
p644
I0
I1
tp645
Rp646
(I3
S'|'
p647
NNNI6
I1
I0
tp648
bS'biking'
p649
tp650
Rp651
g6
(g18
S'\xde\xf6\x81='
p652
tp653
Rp654
tp655
a(g32
g6
(g18
S's\xd0\x80='
p656
tp657
Rp658
tp659
asg73
g81
sa(dp660
g2
S'../../../data/emanuela/activity-recognition/images/NTCIR-Lifelog-256/u1/2015-03-11/b00000213_21i6bq_20150311_085109e.jpg'
p661
sg4
(lp662
(g81
g6
(g18
S'U/\x02?'
p663
tp664
Rp665
tp666
a(g15
g6
(g18
S'\xf9\x80!>'
p667
tp668
Rp669
tp670
a(g32
g6
(g18
S'\xb28\x11>'
p671
tp672
Rp673
tp674
a(g44
g6
(g18
S'?5w='
p675
tp676
Rp677
tp678
a(g127
g6
(g18
S'\x13\x9b\x11='
p679
tp680
Rp681
tp682
asg73
g81
sa(dp683
g2
S'../../../data/emanuela/activity-recognition/images/NTCIR-Lifelog-256/u1/2015-03-11/b00000668_21i6bq_20150311_134425e.jpg'
p684
sg4
(lp685
(g68
g6
(g18
S'%<\xc4>'
p686
tp687
Rp688
tp689
a(g44
g6
(g18
S'J=\xb6>'
p690
tp691
Rp692
tp693
a(g127
g6
(g18
S'_:\x06>'
p694
tp695
Rp696
tp697
a(g32
g6
(g18
S'\xc4\x81\x16='
p698
tp699
Rp700
tp701
a(g15
g6
(g18
S'\xf2\x0b\xf5<'
p702
tp703
Rp704
tp705
asg73
g81
sa(dp706
g2
S'../../../data/emanuela/activity-recognition/images/NTCIR-Lifelog-256/u1/2015-03-06/b00000863_21i6bq_20150306_142120e.jpg'
p707
sg4
(lp708
(g68
g6
(g18
S'\xe8L\x89>'
p709
tp710
Rp711
tp712
a(g15
g6
(g18
S',\xd4\x7f>'
p713
tp714
Rp715
tp716
a(g44
g6
(g18
S'e\xa38>'
p717
tp718
Rp719
tp720
a(g81
g6
(g18
S'\xd0\xb4\xdc='
p721
tp722
Rp723
tp724
a(g32
g6
(g18
S'\xcb!:='
p725
tp726
Rp727
tp728
asg73
g81
sa(dp729
g2
S'../../../data/emanuela/activity-recognition/images/NTCIR-Lifelog-256/u1/2015-03-11/b00000665_21i6bq_20150311_134232e.jpg'
p730
sg4
(lp731
(g127
g6
(g18
S'\x8b\x07/>'
p732
tp733
Rp734
tp735
a(g15
g6
(g18
S'\x17B#>'
p736
tp737
Rp738
tp739
a(g81
g6
(g18
S'"\xf0\x05>'
p740
tp741
Rp742
tp743
a(g56
g6
(g18
S'\xfcJ\xd7='
p744
tp745
Rp746
tp747
a(g44
g6
(g18
S'\x86k\xd0='
p748
tp749
Rp750
tp751
asg73
g81
sa(dp752
g2
S'../../../data/emanuela/activity-recognition/images/NTCIR-Lifelog-256/u1/2015-02-23/b00000589_21i6bq_20150223_131522e.jpg'
p753
sg4
(lp754
(g147
g6
(g18
S'=\xa9\x8b>'
p755
tp756
Rp757
tp758
a(g44
g6
(g18
S'\xfezV>'
p759
tp760
Rp761
tp762
a(g32
g6
(g18
S'\x9b\xe3\xdb='
p763
tp764
Rp765
tp766
a(g56
g6
(g18
S'C\xc8\xc4='
p767
tp768
Rp769
tp770
a(g127
g6
(g18
S'\xf7\xc5\xa8='
p771
tp772
Rp773
tp774
asg73
g81
sa(dp775
g2
S'../../../data/emanuela/activity-recognition/images/NTCIR-Lifelog-256/u1/2015-03-06/b00000851_21i6bq_20150306_141410e.jpg'
p776
sg4
(lp777
(g15
g6
(g18
S'\xf1\x1d\x95>'
p778
tp779
Rp780
tp781
a(g44
g6
(g18
S'0\xd1l>'
p782
tp783
Rp784
tp785
a(g68
g6
(g18
S'>\xf8\xf0='
p786
tp787
Rp788
tp789
a(g81
g6
(g18
S'\xc4E\xdb='
p790
tp791
Rp792
tp793
a(g6
(g7
(S'S7'
p794
I0
I1
tp795
Rp796
(I3
S'|'
p797
NNNI7
I1
I0
tp798
bS'meeting'
p799
tp800
Rp801
g6
(g18
S'\x1c\x9e\x9f='
p802
tp803
Rp804
tp805
asg73
g81
sa(dp806
g2
S'../../../data/emanuela/activity-recognition/images/NTCIR-Lifelog-256/u1/2015-03-06/b00000838_21i6bq_20150306_140613e.jpg'
p807
sg4
(lp808
(g15
g6
(g18
S'\xd9o@?'
p809
tp810
Rp811
tp812
a(g68
g6
(g18
S'\x88\x03\xb3='
p813
tp814
Rp815
tp816
a(g32
g6
(g18
S'P\x82+='
p817
tp818
Rp819
tp820
a(g271
g6
(g18
S'\x1cp\x03='
p821
tp822
Rp823
tp824
a(g56
g6
(g18
S'\xd5H\xb5<'
p825
tp826
Rp827
tp828
asg73
g81
sa(dp829
g2
S'../../../data/emanuela/activity-recognition/images/NTCIR-Lifelog-256/u1/2015-03-15/b00001197_21i6bq_20150315_190841e.jpg'
p830
sg4
(lp831
(g81
g6
(g18
S'\x80\x1dT?'
p832
tp833
Rp834
tp835
a(g32
g6
(g18
S'#\x11\xe8='
p836
tp837
Rp838
tp839
a(g15
g6
(g18
S'J?\t='
p840
tp841
Rp842
tp843
a(g44
g6
(g18
S'\xd8 \x04<'
p844
tp845
Rp846
tp847
a(g6
(g7
(S'S19'
p848
I0
I1
tp849
Rp850
(I3
S'|'
p851
NNNI19
I1
I0
tp852
bS'attending a seminar'
p853
tp854
Rp855
g6
(g18
S'\xec\x16\x9b;'
p856
tp857
Rp858
tp859
asg73
g81
sa(dp860
g2
S'../../../data/emanuela/activity-recognition/images/NTCIR-Lifelog-256/u1/2015-02-23/b00000520_21i6bq_20150223_123327e.jpg'
p861
sg4
(lp862
(g32
g6
(g18
S'\xad\xb5\x8a>'
p863
tp864
Rp865
tp866
a(g15
g6
(g18
S'\xaa\xcd->'
p867
tp868
Rp869
tp870
a(g44
g6
(g18
S'\xe6\xf5#>'
p871
tp872
Rp873
tp874
a(g147
g6
(g18
S'\xa7\xb1\xd7='
p875
tp876
Rp877
tp878
a(g516
g6
(g18
S'\xb0*\xbd='
p879
tp880
Rp881
tp882
asg73
g81
sa(dp883
g2
S'../../../data/emanuela/activity-recognition/images/NTCIR-Lifelog-256/u1/2015-02-23/b00000601_21i6bq_20150223_132232e.jpg'
p884
sg4
(lp885
(g108
g6
(g18
S'\xc9\xf8\x0e?'
p886
tp887
Rp888
tp889
a(g15
g6
(g18
S'\x8c.\x91>'
p890
tp891
Rp892
tp893
a(g81
g6
(g18
S'\xbc\xbb\xb6='
p894
tp895
Rp896
tp897
a(g32
g6
(g18
S'\xfeG\xa2<'
p898
tp899
Rp900
tp901
a(g271
g6
(g18
S'\xfa\x18\x81<'
p902
tp903
Rp904
tp905
asg73
g81
sa(dp906
g2
S'../../../data/emanuela/activity-recognition/images/NTCIR-Lifelog-256/u1/2015-02-23/b00000087_21i6bq_20150223_075634e.jpg'
p907
sg4
(lp908
(g231
g6
(g18
S'\xadk\xa7>'
p909
tp910
Rp911
tp912
a(g56
g6
(g18
S'\xd2\x8aM>'
p913
tp914
Rp915
tp916
a(g243
g6
(g18
S'\x88\xf31>'
p917
tp918
Rp919
tp920
a(g271
g6
(g18
S'\xcd\xc6\xb9='
p921
tp922
Rp923
tp924
a(g44
g6
(g18
S'Se8='
p925
tp926
Rp927
tp928
asg73
g81
sa(dp929
g2
S'../../../data/emanuela/activity-recognition/images/NTCIR-Lifelog-256/u1/2015-02-23/b00000517_21i6bq_20150223_123143e.jpg'
p930
sg4
(lp931
(g32
g6
(g18
S"k\xa5'?"
p932
tp933
Rp934
tp935
a(g81
g6
(g18
S'\xf2[ >'
p936
tp937
Rp938
tp939
a(g15
g6
(g18
S'O\x8f\x8f='
p940
tp941
Rp942
tp943
a(g801
g6
(g18
S'\xe4\xbeC='
p944
tp945
Rp946
tp947
a(g108
g6
(g18
S'i\x1d\xb2<'
p948
tp949
Rp950
tp951
asg73
g81
sa(dp952
g2
S'../../../data/emanuela/activity-recognition/images/NTCIR-Lifelog-256/u1/2015-02-23/b00000525_21i6bq_20150223_123625e.jpg'
p953
sg4
(lp954
(g32
g6
(g18
S'\x95\x93X>'
p955
tp956
Rp957
tp958
a(g44
g6
(g18
S'\x97\xe4A>'
p959
tp960
Rp961
tp962
a(g516
g6
(g18
S't\xb82>'
p963
tp964
Rp965
tp966
a(g147
g6
(g18
S'.P\x14>'
p967
tp968
Rp969
tp970
a(g108
g6
(g18
S'\n\xcbP='
p971
tp972
Rp973
tp974
asg73
g81
sa(dp975
g2
S'../../../data/emanuela/activity-recognition/images/NTCIR-Lifelog-256/u1/2015-03-17/b00000845_21i6bq_20150317_163208e.jpg'
p976
sg4
(lp977
(g15
g6
(g18
S'\x1d\xff\x04?'
p978
tp979
Rp980
tp981
a(g44
g6
(g18
S'\xebM*>'
p982
tp983
Rp984
tp985
a(g68
g6
(g18
S'T\xaf\x11>'
p986
tp987
Rp988
tp989
a(g81
g6
(g18
S'\xdaZ\xc2='
p990
tp991
Rp992
tp993
a(g127
g6
(g18
S'\xd9\x82\x8a<'
p994
tp995
Rp996
tp997
asg73
g81
sa(dp998
g2
S'../../../data/emanuela/activity-recognition/images/NTCIR-Lifelog-256/u1/2015-02-24/b00000454_21i6bq_20150224_111756e.jpg'
p999
sg4
(lp1000
(g15
g6
(g18
S'\x9a#\x0f?'
p1001
tp1002
Rp1003
tp1004
a(g271
g6
(g18
S'\xd36!>'
p1005
tp1006
Rp1007
tp1008
a(g108
g6
(g18
S'Yn\xbc='
p1009
tp1010
Rp1011
tp1012
a(g81
g6
(g18
S'\x96,\xb3='
p1013
tp1014
Rp1015
tp1016
a(g32
g6
(g18
S'\x8c\x9f\n='
p1017
tp1018
Rp1019
tp1020
asg73
g81
sa(dp1021
g2
S'../../../data/emanuela/activity-recognition/images/NTCIR-Lifelog-256/u1/2015-02-23/b00000533_21i6bq_20150223_124049e.jpg'
p1022
sg4
(lp1023
(g44
g6
(g18
S'\xb0\xefo>'
p1024
tp1025
Rp1026
tp1027
a(g32
g6
(g18
S'\xe1MR>'
p1028
tp1029
Rp1030
tp1031
a(g81
g6
(g18
S'\x98\xf5\xf8='
p1032
tp1033
Rp1034
tp1035
a(g15
g6
(g18
S'\x16\xfd\xd4='
p1036
tp1037
Rp1038
tp1039
a(g127
g6
(g18
S'\xa5\xfa\xbb='
p1040
tp1041
Rp1042
tp1043
asg73
g81
sa(dp1044
g2
S'../../../data/emanuela/activity-recognition/images/NTCIR-Lifelog-256/u1/2015-02-23/b00000634_21i6bq_20150223_134212e.jpg'
p1045
sg4
(lp1046
(g147
g6
(g18
S'\xc5\x9f\xb2>'
p1047
tp1048
Rp1049
tp1050
a(g56
g6
(g18
S'\x8f\xe8e>'
p1051
tp1052
Rp1053
tp1054
a(g44
g6
(g18
S'\x1a\xa1\n>'
p1055
tp1056
Rp1057
tp1058
a(g127
g6
(g18
S'I\x88\xd4='
p1059
tp1060
Rp1061
tp1062
a(g32
g6
(g18
S'\xa2\xb7`='
p1063
tp1064
Rp1065
tp1066
asg73
g81
sa(dp1067
g2
S'../../../data/emanuela/activity-recognition/images/NTCIR-Lifelog-256/u1/2015-03-11/b00000202_21i6bq_20150311_084415e.jpg'
p1068
sg4
(lp1069
(g15
g6
(g18
S'@\xde\xb0>'
p1070
tp1071
Rp1072
tp1073
a(g32
g6
(g18
S'\x15\x96\x80>'
p1074
tp1075
Rp1076
tp1077
a(g81
g6
(g18
S'\xe9\xca|>'
p1078
tp1079
Rp1080
tp1081
a(g68
g6
(g18
S'r9\xc6='
p1082
tp1083
Rp1084
tp1085
a(g108
g6
(g18
S'6\xea\x1a='
p1086
tp1087
Rp1088
tp1089
asg73
g81
sa(dp1090
g2
S'../../../data/emanuela/activity-recognition/images/NTCIR-Lifelog-256/u1/2015-02-23/b00000497_21i6bq_20150223_121942e.jpg'
p1091
sg4
(lp1092
(g32
g6
(g18
S'\xbe\x95\xc1>'
p1093
tp1094
Rp1095
tp1096
a(g81
g6
(g18
S'\x9b\xfap>'
p1097
tp1098
Rp1099
tp1100
a(g127
g6
(g18
S'2\x03\xd5='
p1101
tp1102
Rp1103
tp1104
a(g44
g6
(g18
S'y\xc2\xae='
p1105
tp1106
Rp1107
tp1108
a(g147
g6
(g18
S'\xe8n\xa9='
p1109
tp1110
Rp1111
tp1112
asg73
g81
sa(dp1113
g2
S'../../../data/emanuela/activity-recognition/images/NTCIR-Lifelog-256/u1/2015-03-15/b00001194_21i6bq_20150315_190123e.jpg'
p1114
sg4
(lp1115
(g81
g6
(g18
S' \x0ef?'
p1116
tp1117
Rp1118
tp1119
a(g855
g6
(g18
S'\x19R/='
p1120
tp1121
Rp1122
tp1123
a(g15
g6
(g18
S'\x7f^\x9d<'
p1124
tp1125
Rp1126
tp1127
a(g44
g6
(g18
S'\xaa\x15m<'
p1128
tp1129
Rp1130
tp1131
a(g32
g6
(g18
S'\xc6\x9dI<'
p1132
tp1133
Rp1134
tp1135
asg73
g81
sa(dp1136
g2
S'../../../data/emanuela/activity-recognition/images/NTCIR-Lifelog-256/u1/2015-03-11/b00000211_21i6bq_20150311_084950e.jpg'
p1137
sg4
(lp1138
(g81
g6
(g18
S'KS\t?'
p1139
tp1140
Rp1141
tp1142
a(g15
g6
(g18
S'\x8c\xca\xb0>'
p1143
tp1144
Rp1145
tp1146
a(g32
g6
(g18
S'\xd9\xddu='
p1147
tp1148
Rp1149
tp1150
a(g44
g6
(g18
S'\xe9\x01\xc2<'
p1151
tp1152
Rp1153
tp1154
a(g147
g6
(g18
S'\xa4&\x04<'
p1155
tp1156
Rp1157
tp1158
asg73
g81
sa(dp1159
g2
S'../../../data/emanuela/activity-recognition/images/NTCIR-Lifelog-256/u1/2015-03-06/b00000852_21i6bq_20150306_141451e.jpg'
p1160
sg4
(lp1161
(g32
g6
(g18
S'\xd7\xfc\x85>'
p1162
tp1163
Rp1164
tp1165
a(g81
g6
(g18
S'Eq|>'
p1166
tp1167
Rp1168
tp1169
a(g44
g6
(g18
S'\x10\xa7V>'
p1170
tp1171
Rp1172
tp1173
a(g108
g6
(g18
S'7\xfa\xe7='
p1174
tp1175
Rp1176
tp1177
a(g15
g6
(g18
S'"\x15F='
p1178
tp1179
Rp1180
tp1181
asg73
g81
sa(dp1182
g2
S'../../../data/emanuela/activity-recognition/images/NTCIR-Lifelog-256/u1/2015-02-23/b00000598_21i6bq_20150223_132032e.jpg'
p1183
sg4
(lp1184
(g271
g6
(g18
S'\xb1\xe6\x03?'
p1185
tp1186
Rp1187
tp1188
a(g15
g6
(g18
S'\x8d\xd7)>'
p1189
tp1190
Rp1191
tp1192
a(g108
g6
(g18
S'e\xf4\xd1='
p1193
tp1194
Rp1195
tp1196
a(g81
g6
(g18
S'\xd7\xd3\x84='
p1197
tp1198
Rp1199
tp1200
a(g56
g6
(g18
S'r*V='
p1201
tp1202
Rp1203
tp1204
asg73
g81
sa(dp1205
g2
S'../../../data/emanuela/activity-recognition/images/NTCIR-Lifelog-256/u1/2015-02-23/b00000636_21i6bq_20150223_134318e.jpg'
p1206
sg4
(lp1207
(g147
g6
(g18
S'\x05\xf9\xb8>'
p1208
tp1209
Rp1210
tp1211
a(g56
g6
(g18
S'\x1e&H>'
p1212
tp1213
Rp1214
tp1215
a(g127
g6
(g18
S'\xcd\x8e\x19>'
p1216
tp1217
Rp1218
tp1219
a(g44
g6
(g18
S'\xf6\xd2\xd5='
p1220
tp1221
Rp1222
tp1223
a(g32
g6
(g18
S'6\x0e`='
p1224
tp1225
Rp1226
tp1227
asg73
g81
sa(dp1228
g2
S'../../../data/emanuela/activity-recognition/images/NTCIR-Lifelog-256/u1/2015-02-23/b00000600_21i6bq_20150223_132151e.jpg'
p1229
sg4
(lp1230
(g108
g6
(g18
S'\x82\xd1\x0c?'
p1231
tp1232
Rp1233
tp1234
a(g15
g6
(g18
S'\xea\xa9<>'
p1235
tp1236
Rp1237
tp1238
a(g81
g6
(g18
S'\x13}\xbe='
p1239
tp1240
Rp1241
tp1242
a(g32
g6
(g18
S'4\x81\x98='
p1243
tp1244
Rp1245
tp1246
a(g271
g6
(g18
S'&k\x8d='
p1247
tp1248
Rp1249
tp1250
asg73
g81
sa(dp1251
g2
S'../../../data/emanuela/activity-recognition/images/NTCIR-Lifelog-256/u1/2015-02-23/b00000605_21i6bq_20150223_132457e.jpg'
p1252
sg4
(lp1253
(g15
g6
(g18
S'Rz\xb1>'
p1254
tp1255
Rp1256
tp1257
a(g271
g6
(g18
S'\x11\x94Z>'
p1258
tp1259
Rp1260
tp1261
a(g108
g6
(g18
S"Q\xf5'>"
p1262
tp1263
Rp1264
tp1265
a(g81
g6
(g18
S'\x12r\xbf='
p1266
tp1267
Rp1268
tp1269
a(g127
g6
(g18
S'72\x8e='
p1270
tp1271
Rp1272
tp1273
asg73
g81
sa(dp1274
g2
S'../../../data/emanuela/activity-recognition/images/NTCIR-Lifelog-256/u1/2015-02-23/b00000513_21i6bq_20150223_122913e.jpg'
p1275
sg4
(lp1276
(g81
g6
(g18
S'\xea\x1by>'
p1277
tp1278
Rp1279
tp1280
a(g32
g6
(g18
S'\xcb\x85c>'
p1281
tp1282
Rp1283
tp1284
a(g127
g6
(g18
S'\xa3\x9b`>'
p1285
tp1286
Rp1287
tp1288
a(g44
g6
(g18
S'(h\x02>'
p1289
tp1290
Rp1291
tp1292
a(g147
g6
(g18
S'\xac\xc7P='
p1293
tp1294
Rp1295
tp1296
asg73
g81
sa(dp1297
g2
S'../../../data/emanuela/activity-recognition/images/NTCIR-Lifelog-256/u1/2015-02-23/b00000501_21i6bq_20150223_122202e.jpg'
p1298
sg4
(lp1299
(g127
g6
(g18
S'f\xba\xb6>'
p1300
tp1301
Rp1302
tp1303
a(g81
g6
(g18
S'2\xf7\x16>'
p1304
tp1305
Rp1306
tp1307
a(g32
g6
(g18
S'<\x05\n>'
p1308
tp1309
Rp1310
tp1311
a(g147
g6
(g18
S'\x7f\x1b\x06>'
p1312
tp1313
Rp1314
tp1315
a(g56
g6
(g18
S"\xe1'\xe0="
p1316
tp1317
Rp1318
tp1319
asg73
g81
sa(dp1320
g2
S'../../../data/emanuela/activity-recognition/images/NTCIR-Lifelog-256/u1/2015-03-06/b00000832_21i6bq_20150306_140129e.jpg'
p1321
sg4
(lp1322
(g15
g6
(g18
S'\xda`6?'
p1323
tp1324
Rp1325
tp1326
a(g108
g6
(g18
S'\x1a><>'
p1327
tp1328
Rp1329
tp1330
a(g271
g6
(g18
S'q\xcb\x05='
p1331
tp1332
Rp1333
tp1334
a(g801
g6
(g18
S'\xfd\xdd\x86<'
p1335
tp1336
Rp1337
tp1338
a(g68
g6
(g18
S'\xac\x7fp<'
p1339
tp1340
Rp1341
tp1342
asg73
g81
sa(dp1343
g2
S'../../../data/emanuela/activity-recognition/images/NTCIR-Lifelog-256/u1/2015-02-24/b00000458_21i6bq_20150224_112023e.jpg'
p1344
sg4
(lp1345
(g81
g6
(g18
S'\xca\x9b\xb6>'
p1346
tp1347
Rp1348
tp1349
a(g15
g6
(g18
S'\xf6\xcd\xb0>'
p1350
tp1351
Rp1352
tp1353
a(g108
g6
(g18
S'\x1a\x8c_>'
p1354
tp1355
Rp1356
tp1357
a(g68
g6
(g18
S'q\xe5\xc2<'
p1358
tp1359
Rp1360
tp1361
a(g32
g6
(g18
S' \xf9\x92<'
p1362
tp1363
Rp1364
tp1365
asg73
g81
sa(dp1366
g2
S'../../../data/emanuela/activity-recognition/images/NTCIR-Lifelog-256/u1/2015-02-23/b00000562_21i6bq_20150223_125818e.jpg'
p1367
sg4
(lp1368
(g32
g6
(g18
S'\xa4p\x8f>'
p1369
tp1370
Rp1371
tp1372
a(g44
g6
(g18
S'_\xb8\x0c>'
p1373
tp1374
Rp1375
tp1376
a(g147
g6
(g18
S'\x94\xeb\xe8='
p1377
tp1378
Rp1379
tp1380
a(g56
g6
(g18
S'\x15\r\xc9='
p1381
tp1382
Rp1383
tp1384
a(g127
g6
(g18
S'\x96\xfci='
p1385
tp1386
Rp1387
tp1388
asg73
g81
sa(dp1389
g2
S'../../../data/emanuela/activity-recognition/images/NTCIR-Lifelog-256/u1/2015-02-23/b00000540_21i6bq_20150223_124503e.jpg'
p1390
sg4
(lp1391
(g32
g6
(g18
S'\xe74\x9d>'
p1392
tp1393
Rp1394
tp1395
a(g56
g6
(g18
S'Nz\xee='
p1396
tp1397
Rp1398
tp1399
a(g147
g6
(g18
S'\xf7\x87\xe2='
p1400
tp1401
Rp1402
tp1403
a(g108
g6
(g18
S'\xb4Y\xde='
p1404
tp1405
Rp1406
tp1407
a(g44
g6
(g18
S'W\xd8\xd7='
p1408
tp1409
Rp1410
tp1411
asg73
g81
sa(dp1412
g2
S'../../../data/emanuela/activity-recognition/images/NTCIR-Lifelog-256/u1/2015-02-23/b00000542_21i6bq_20150223_124619e.jpg'
p1413
sg4
(lp1414
(g32
g6
(g18
S'\xf2\\o>'
p1415
tp1416
Rp1417
tp1418
a(g44
g6
(g18
S'\xff\xd3C>'
p1419
tp1420
Rp1421
tp1422
a(g147
g6
(g18
S'\xa01\xe0='
p1423
tp1424
Rp1425
tp1426
a(g56
g6
(g18
S'\xc5e\xd0='
p1427
tp1428
Rp1429
tp1430
a(g516
g6
(g18
S'\xd42\xc6='
p1431
tp1432
Rp1433
tp1434
asg73
g81
sa(dp1435
g2
S'../../../data/emanuela/activity-recognition/images/NTCIR-Lifelog-256/u1/2015-03-17/b00000856_21i6bq_20150317_163851e.jpg'
p1436
sg4
(lp1437
(g15
g6
(g18
S'\x1f\xc0\xa0>'
p1438
tp1439
Rp1440
tp1441
a(g44
g6
(g18
S'\x0bsr>'
p1442
tp1443
Rp1444
tp1445
a(g81
g6
(g18
S'\x0bz!>'
p1446
tp1447
Rp1448
tp1449
a(g68
g6
(g18
S'\x7f5\xc4='
p1450
tp1451
Rp1452
tp1453
a(g6
(g7
(S'S5'
p1454
I0
I1
tp1455
Rp1456
(I3
S'|'
p1457
NNNI5
I1
I0
tp1458
bS'plane'
p1459
tp1460
Rp1461
g6
(g18
S'\xa0X\xb9='
p1462
tp1463
Rp1464
tp1465
asg73
g81
sa(dp1466
g2
S'../../../data/emanuela/activity-recognition/images/NTCIR-Lifelog-256/u1/2015-02-23/b00000522_21i6bq_20150223_123431e.jpg'
p1467
sg4
(lp1468
(g32
g6
(g18
S'a\xe6w>'
p1469
tp1470
Rp1471
tp1472
a(g56
g6
(g18
S'q\xdb0>'
p1473
tp1474
Rp1475
tp1476
a(g147
g6
(g18
S'\xcf~/>'
p1477
tp1478
Rp1479
tp1480
a(g44
g6
(g18
S'n\x91\xf2='
p1481
tp1482
Rp1483
tp1484
a(g81
g6
(g18
S'+\xef\xd4='
p1485
tp1486
Rp1487
tp1488
asg73
g81
sa(dp1489
g2
S'../../../data/emanuela/activity-recognition/images/NTCIR-Lifelog-256/u1/2015-03-06/b00000849_21i6bq_20150306_141301e.jpg'
p1490
sg4
(lp1491
(g32
g6
(g18
S'\x81\xaeT>'
p1492
tp1493
Rp1494
tp1495
a(g81
g6
(g18
S'\xe9\xb20>'
p1496
tp1497
Rp1498
tp1499
a(g68
g6
(g18
S'\x05\xd4\r>'
p1500
tp1501
Rp1502
tp1503
a(g108
g6
(g18
S'\x11\xbc\x06>'
p1504
tp1505
Rp1506
tp1507
a(g44
g6
(g18
S'G\x8e\x02>'
p1508
tp1509
Rp1510
tp1511
asg73
g81
sa(dp1512
g2
S'../../../data/emanuela/activity-recognition/images/NTCIR-Lifelog-256/u1/2015-02-23/b00000496_21i6bq_20150223_121907e.jpg'
p1513
sg4
(lp1514
(g32
g6
(g18
S'\x10o\x84>'
p1515
tp1516
Rp1517
tp1518
a(g147
g6
(g18
S'\x00\xffz>'
p1519
tp1520
Rp1521
tp1522
a(g127
g6
(g18
S'\x82\xe8$>'
p1523
tp1524
Rp1525
tp1526
a(g81
g6
(g18
S'\\t\t>'
p1527
tp1528
Rp1529
tp1530
a(g44
g6
(g18
S'\xe3y\xa7='
p1531
tp1532
Rp1533
tp1534
asg73
g81
sa(dp1535
g2
S'../../../data/emanuela/activity-recognition/images/NTCIR-Lifelog-256/u1/2015-03-06/b00000839_21i6bq_20150306_140650e.jpg'
p1536
sg4
(lp1537
(g68
g6
(g18
S'Y_\xa4>'
p1538
tp1539
Rp1540
tp1541
a(g32
g6
(g18
S'SeU>'
p1542
tp1543
Rp1544
tp1545
a(g801
g6
(g18
S'\xe9J2>'
p1546
tp1547
Rp1548
tp1549
a(g15
g6
(g18
S'\xe7U\xb7='
p1550
tp1551
Rp1552
tp1553
a(g56
g6
(g18
S'\x88\xf8\x92='
p1554
tp1555
Rp1556
tp1557
asg73
g81
sa(dp1558
g2
S'../../../data/emanuela/activity-recognition/images/NTCIR-Lifelog-256/u1/2015-03-06/b00000837_21i6bq_20150306_140532e.jpg'
p1559
sg4
(lp1560
(g32
g6
(g18
S'[\x99\x00?'
p1561
tp1562
Rp1563
tp1564
a(g801
g6
(g18
S'Ds\x0e>'
p1565
tp1566
Rp1567
tp1568
a(g15
g6
(g18
S'c\x02\x08>'
p1569
tp1570
Rp1571
tp1572
a(g68
g6
(g18
S'P\xed`='
p1573
tp1574
Rp1575
tp1576
a(g271
g6
(g18
S'|dG='
p1577
tp1578
Rp1579
tp1580
asg73
g81
sa(dp1581
g2
S'../../../data/emanuela/activity-recognition/images/NTCIR-Lifelog-256/u1/2015-02-23/b00000507_21i6bq_20150223_122535e.jpg'
p1582
sg4
(lp1583
(g81
g6
(g18
S'\x1b}\x08?'
p1584
tp1585
Rp1586
tp1587
a(g127
g6
(g18
S'\x99\x7f\xe7='
p1588
tp1589
Rp1590
tp1591
a(g44
g6
(g18
S'\xde\x9e\xca='
p1592
tp1593
Rp1594
tp1595
a(g32
g6
(g18
S'\xc3\x90\x96='
p1596
tp1597
Rp1598
tp1599
a(g147
g6
(g18
S'^\xc5U='
p1600
tp1601
Rp1602
tp1603
asg73
g81
sa(dp1604
g2
S'../../../data/emanuela/activity-recognition/images/NTCIR-Lifelog-256/u1/2015-02-23/b00000510_21i6bq_20150223_122723e.jpg'
p1605
sg4
(lp1606
(g81
g6
(g18
S'u}\xe0>'
p1607
tp1608
Rp1609
tp1610
a(g127
g6
(g18
S'4\x97V>'
p1611
tp1612
Rp1613
tp1614
a(g32
g6
(g18
S'M\xfa\x0e>'
p1615
tp1616
Rp1617
tp1618
a(g44
g6
(g18
S'\xe3\xc5\xa1='
p1619
tp1620
Rp1621
tp1622
a(g147
g6
(g18
S'#\xe7\xed<'
p1623
tp1624
Rp1625
tp1626
asg73
g81
sa(dp1627
g2
S'../../../data/emanuela/activity-recognition/images/NTCIR-Lifelog-256/u1/2015-03-11/b00000659_21i6bq_20150311_133852e.jpg'
p1628
sg4
(lp1629
(g147
g6
(g18
S'\xdc\xfb\xff>'
p1630
tp1631
Rp1632
tp1633
a(g44
g6
(g18
S'B\xb6f>'
p1634
tp1635
Rp1636
tp1637
a(g32
g6
(g18
S'P.\x03>'
p1638
tp1639
Rp1640
tp1641
a(g81
g6
(g18
S'`;U='
p1642
tp1643
Rp1644
tp1645
a(g127
g6
(g18
S'T\xb7\r='
p1646
tp1647
Rp1648
tp1649
asg73
g81
sa(dp1650
g2
S'../../../data/emanuela/activity-recognition/images/NTCIR-Lifelog-256/u1/2015-03-11/b00000661_21i6bq_20150311_134005e.jpg'
p1651
sg4
(lp1652
(g44
g6
(g18
S'bH\xbe>'
p1653
tp1654
Rp1655
tp1656
a(g127
g6
(g18
S'v\x0e\x9f>'
p1657
tp1658
Rp1659
tp1660
a(g147
g6
(g18
S'`\x9d!>'
p1661
tp1662
Rp1663
tp1664
a(g32
g6
(g18
S'Qw\x8d='
p1665
tp1666
Rp1667
tp1668
a(g15
g6
(g18
S']\xfe\xb2<'
p1669
tp1670
Rp1671
tp1672
asg73
g81
sa(dp1673
g2
S'../../../data/emanuela/activity-recognition/images/NTCIR-Lifelog-256/u1/2015-02-23/b00000480_21i6bq_20150223_120928e.jpg'
p1674
sg4
(lp1675
(g81
g6
(g18
S'\xcd\xf4\xb7>'
p1676
tp1677
Rp1678
tp1679
a(g32
g6
(g18
S'\xf3t_>'
p1680
tp1681
Rp1682
tp1683
a(g44
g6
(g18
S'-8\x12>'
p1684
tp1685
Rp1686
tp1687
a(g147
g6
(g18
S'S\x16\x08>'
p1688
tp1689
Rp1690
tp1691
a(g127
g6
(g18
S'\xd9\xcc^='
p1692
tp1693
Rp1694
tp1695
asg73
g81
sa(dp1696
g2
S'../../../data/emanuela/activity-recognition/images/NTCIR-Lifelog-256/u1/2015-02-23/b00000627_21i6bq_20150223_133806e.jpg'
p1697
sg4
(lp1698
(g127
g6
(g18
S'\x8d\x17W>'
p1699
tp1700
Rp1701
tp1702
a(g81
g6
(g18
S'q\xd0>>'
p1703
tp1704
Rp1705
tp1706
a(g15
g6
(g18
S'\xb94\x14>'
p1707
tp1708
Rp1709
tp1710
a(g32
g6
(g18
S'>\x12\x0c>'
p1711
tp1712
Rp1713
tp1714
a(g44
g6
(g18
S'7\xd5\xaa='
p1715
tp1716
Rp1717
tp1718
asg73
g81
sa(dp1719
g2
S'../../../data/emanuela/activity-recognition/images/NTCIR-Lifelog-256/u1/2015-02-23/b00000592_21i6bq_20150223_131709e.jpg'
p1720
sg4
(lp1721
(g56
g6
(g18
S'\xd7\xaa\x86>'
p1722
tp1723
Rp1724
tp1725
a(g32
g6
(g18
S'\xa7\xb6X>'
p1726
tp1727
Rp1728
tp1729
a(g147
g6
(g18
S'\x83pU>'
p1730
tp1731
Rp1732
tp1733
a(g127
g6
(g18
S'$\xb9\xe7='
p1734
tp1735
Rp1736
tp1737
a(g44
g6
(g18
S'U\x82\x90='
p1738
tp1739
Rp1740
tp1741
asg73
g81
sa(dp1742
g2
S'../../../data/emanuela/activity-recognition/images/NTCIR-Lifelog-256/u1/2015-03-15/b00001200_21i6bq_20150315_191029e.jpg'
p1743
sg4
(lp1744
(g81
g6
(g18
S'/*a?'
p1745
tp1746
Rp1747
tp1748
a(g15
g6
(g18
S'h\x92\x94='
p1749
tp1750
Rp1751
tp1752
a(g32
g6
(g18
S'\x85\xcd\xd3<'
p1753
tp1754
Rp1755
tp1756
a(g44
g6
(g18
S'\x02h\xad;'
p1757
tp1758
Rp1759
tp1760
a(g108
g6
(g18
S'\x17\xbe\xa8;'
p1761
tp1762
Rp1763
tp1764
asg73
g81
sa(dp1765
g2
S'../../../data/emanuela/activity-recognition/images/NTCIR-Lifelog-256/u1/2015-03-15/b00001139_21i6bq_20150315_184445e.jpg'
p1766
sg4
(lp1767
(g81
g6
(g18
S'\xd15&?'
p1768
tp1769
Rp1770
tp1771
a(g44
g6
(g18
S'\x9fsI>'
p1772
tp1773
Rp1774
tp1775
a(g32
g6
(g18
S'go&='
p1776
tp1777
Rp1778
tp1779
a(g108
g6
(g18
S'>]\x0b='
p1780
tp1781
Rp1782
tp1783
a(g147
g6
(g18
S'\x95\xbf\xef<'
p1784
tp1785
Rp1786
tp1787
asg73
g81
sa(dp1788
g2
S'../../../data/emanuela/activity-recognition/images/NTCIR-Lifelog-256/u1/2015-03-15/b00001126_21i6bq_20150315_183249e.jpg'
p1789
sg4
(lp1790
(g81
g6
(g18
S'\xf7\x9d(?'
p1791
tp1792
Rp1793
tp1794
a(g15
g6
(g18
S'\ncc>'
p1795
tp1796
Rp1797
tp1798
a(g44
g6
(g18
S'n\xb3\xae='
p1799
tp1800
Rp1801
tp1802
a(g32
g6
(g18
S'\\\x97\xe6;'
p1803
tp1804
Rp1805
tp1806
a(g68
g6
(g18
S'\x07\x97\xb9;'
p1807
tp1808
Rp1809
tp1810
asg73
g81
sa(dp1811
g2
S'../../../data/emanuela/activity-recognition/images/NTCIR-Lifelog-256/u1/2015-03-15/b00001127_21i6bq_20150315_183331e.jpg'
p1812
sg4
(lp1813
(g44
g6
(g18
S'J!\xdc>'
p1814
tp1815
Rp1816
tp1817
a(g81
g6
(g18
S'\x0bt\xc3>'
p1818
tp1819
Rp1820
tp1821
a(g15
g6
(g18
S'\x1d\xc8H='
p1822
tp1823
Rp1824
tp1825
a(g855
g6
(g18
S'\x9d\xa6-='
p1826
tp1827
Rp1828
tp1829
a(g32
g6
(g18
S'\xf1A\x03='
p1830
tp1831
Rp1832
tp1833
asg73
g81
sa(dp1834
g2
S'../../../data/emanuela/activity-recognition/images/NTCIR-Lifelog-256/u1/2015-02-23/b00000583_21i6bq_20150223_131128e.jpg'
p1835
sg4
(lp1836
(g44
g6
(g18
S'3\xb4^>'
p1837
tp1838
Rp1839
tp1840
a(g32
g6
(g18
S',\x87R>'
p1841
tp1842
Rp1843
tp1844
a(g81
g6
(g18
S'\x8f?H>'
p1845
tp1846
Rp1847
tp1848
a(g147
g6
(g18
S'\xd4{3>'
p1849
tp1850
Rp1851
tp1852
a(g56
g6
(g18
S'o\x13*='
p1853
tp1854
Rp1855
tp1856
asg73
g81
sa(dp1857
g2
S'../../../data/emanuela/activity-recognition/images/NTCIR-Lifelog-256/u1/2015-03-11/b00000212_21i6bq_20150311_085028e.jpg'
p1858
sg4
(lp1859
(g81
g6
(g18
S'\t0B?'
p1860
tp1861
Rp1862
tp1863
a(g32
g6
(g18
S'\x91\xb7)>'
p1864
tp1865
Rp1866
tp1867
a(g15
g6
(g18
S'\x03xZ='
p1868
tp1869
Rp1870
tp1871
a(g44
g6
(g18
S'\xd43\xc2;'
p1872
tp1873
Rp1874
tp1875
a(g108
g6
(g18
S'\xc3\xd8V;'
p1876
tp1877
Rp1878
tp1879
asg73
g81
sa(dp1880
g2
S'../../../data/emanuela/activity-recognition/images/NTCIR-Lifelog-256/u1/2015-03-15/b00001196_21i6bq_20150315_190502e.jpg'
p1881
sg4
(lp1882
(g81
g6
(g18
S'\xa9C#?'
p1883
tp1884
Rp1885
tp1886
a(g15
g6
(g18
S'\x07M\x0c>'
p1887
tp1888
Rp1889
tp1890
a(g32
g6
(g18
S'\xeb-\xf6='
p1891
tp1892
Rp1893
tp1894
a(g44
g6
(g18
S'\x04\x82\xc0<'
p1895
tp1896
Rp1897
tp1898
a(g855
g6
(g18
S'U\xcb\x9b<'
p1899
tp1900
Rp1901
tp1902
asg73
g81
sa(dp1903
g2
S'../../../data/emanuela/activity-recognition/images/NTCIR-Lifelog-256/u1/2015-03-06/b00000848_21i6bq_20150306_141229e.jpg'
p1904
sg4
(lp1905
(g855
g6
(g18
S'pV\xa0>'
p1906
tp1907
Rp1908
tp1909
a(g801
g6
(g18
S'\x02\x8b\x9e>'
p1910
tp1911
Rp1912
tp1913
a(g32
g6
(g18
S'\x9e\\I>'
p1914
tp1915
Rp1916
tp1917
a(g15
g6
(g18
S'\xd7\x16\x1a='
p1918
tp1919
Rp1920
tp1921
a(g81
g6
(g18
S'\xaa\xc8\x05='
p1922
tp1923
Rp1924
tp1925
asg73
g81
sa(dp1926
g2
S'../../../data/emanuela/activity-recognition/images/NTCIR-Lifelog-256/u1/2015-02-23/b00000521_21i6bq_20150223_123358e.jpg'
p1927
sg4
(lp1928
(g44
g6
(g18
S'^\xaf\x02?'
p1929
tp1930
Rp1931
tp1932
a(g516
g6
(g18
S'6 $>'
p1933
tp1934
Rp1935
tp1936
a(g56
g6
(g18
S'c\x1c\xa4='
p1937
tp1938
Rp1939
tp1940
a(g147
g6
(g18
S'T\x17\x9c='
p1941
tp1942
Rp1943
tp1944
a(g32
g6
(g18
S'V\x01Q='
p1945
tp1946
Rp1947
tp1948
asg73
g81
sa(dp1949
g2
S'../../../data/emanuela/activity-recognition/images/NTCIR-Lifelog-256/u1/2015-02-23/b00000575_21i6bq_20150223_130640e.jpg'
p1950
sg4
(lp1951
(g81
g6
(g18
S'\xcc.t>'
p1952
tp1953
Rp1954
tp1955
a(g147
g6
(g18
S'*3T>'
p1956
tp1957
Rp1958
tp1959
a(g127
g6
(g18
S'\xa6\xe6B>'
p1960
tp1961
Rp1962
tp1963
a(g44
g6
(g18
S'!\xbb\x07>'
p1964
tp1965
Rp1966
tp1967
a(g32
g6
(g18
S'9;\xb1='
p1968
tp1969
Rp1970
tp1971
asg73
g81
sa(dp1972
g2
S'../../../data/emanuela/activity-recognition/images/NTCIR-Lifelog-256/u1/2015-02-23/b00000628_21i6bq_20150223_133842e.jpg'
p1973
sg4
(lp1974
(g147
g6
(g18
S'\xa4\xb3\xea>'
p1975
tp1976
Rp1977
tp1978
a(g32
g6
(g18
S'r\x84\x05>'
p1979
tp1980
Rp1981
tp1982
a(g44
g6
(g18
S'\x99\xb3\xd9='
p1983
tp1984
Rp1985
tp1986
a(g56
g6
(g18
S"\xdc'\xca="
p1987
tp1988
Rp1989
tp1990
a(g127
g6
(g18
S'~\x19\xb0='
p1991
tp1992
Rp1993
tp1994
asg73
g81
sa(dp1995
g2
S'../../../data/emanuela/activity-recognition/images/NTCIR-Lifelog-256/u1/2015-03-06/b00000843_21i6bq_20150306_140921e.jpg'
p1996
sg4
(lp1997
(g15
g6
(g18
S'4\xec\x82>'
p1998
tp1999
Rp2000
tp2001
a(g44
g6
(g18
S'\xa1\xaf@>'
p2002
tp2003
Rp2004
tp2005
a(g81
g6
(g18
S'g\xe9\t>'
p2006
tp2007
Rp2008
tp2009
a(g68
g6
(g18
S'\xa7O\xc6='
p2010
tp2011
Rp2012
tp2013
a(g32
g6
(g18
S'\x1f\x9b\xa1='
p2014
tp2015
Rp2016
tp2017
asg73
g81
sa(dp2018
g2
S'../../../data/emanuela/activity-recognition/images/NTCIR-Lifelog-256/u1/2015-02-23/b00000624_21i6bq_20150223_133612e.jpg'
p2019
sg4
(lp2020
(g15
g6
(g18
S'\x0c\xe4D?'
p2021
tp2022
Rp2023
tp2024
a(g81
g6
(g18
S'R\xb0\xb3='
p2025
tp2026
Rp2027
tp2028
a(g108
g6
(g18
S'-\xa3\xa0='
p2029
tp2030
Rp2031
tp2032
a(g271
g6
(g18
S'\x8b\x00\xaa<'
p2033
tp2034
Rp2035
tp2036
a(g127
g6
(g18
S'\xb2}\xfe;'
p2037
tp2038
Rp2039
tp2040
asg73
g81
sa(dp2041
g2
S'../../../data/emanuela/activity-recognition/images/NTCIR-Lifelog-256/u1/2015-02-23/b00000603_21i6bq_20150223_132345e.jpg'
p2042
sg4
(lp2043
(g127
g6
(g18
S'^\xa3\xbd>'
p2044
tp2045
Rp2046
tp2047
a(g15
g6
(g18
S' \xd99>'
p2048
tp2049
Rp2050
tp2051
a(g271
g6
(g18
S':\x1f$>'
p2052
tp2053
Rp2054
tp2055
a(g108
g6
(g18
S'1\xf9\xf1='
p2056
tp2057
Rp2058
tp2059
a(g81
g6
(g18
S'=uc='
p2060
tp2061
Rp2062
tp2063
asg73
g81
sa(dp2064
g2
S'../../../data/emanuela/activity-recognition/images/NTCIR-Lifelog-256/u1/2015-02-23/b00000629_21i6bq_20150223_133921e.jpg'
p2065
sg4
(lp2066
(g147
g6
(g18
S'\x94d\x8e>'
p2067
tp2068
Rp2069
tp2070
a(g56
g6
(g18
S'\xecP\\>'
p2071
tp2072
Rp2073
tp2074
a(g44
g6
(g18
S"@'\x17>"
p2075
tp2076
Rp2077
tp2078
a(g127
g6
(g18
S'\x7f&\x0b>'
p2079
tp2080
Rp2081
tp2082
a(g32
g6
(g18
S'\xf3\xa0\xb3='
p2083
tp2084
Rp2085
tp2086
asg73
g81
sa(dp2087
g2
S'../../../data/emanuela/activity-recognition/images/NTCIR-Lifelog-256/u1/2015-02-23/b00000527_21i6bq_20150223_123737e.jpg'
p2088
sg4
(lp2089
(g44
g6
(g18
S'^\xc5\x98>'
p2090
tp2091
Rp2092
tp2093
a(g147
g6
(g18
S'\xd8\x8f`>'
p2094
tp2095
Rp2096
tp2097
a(g32
g6
(g18
S'\x9e\xfe*>'
p2098
tp2099
Rp2100
tp2101
a(g651
g6
(g18
S'\xa4F\x8b='
p2102
tp2103
Rp2104
tp2105
a(g15
g6
(g18
S'Zv\x86='
p2106
tp2107
Rp2108
tp2109
asg73
g81
sa(dp2110
g2
S'../../../data/emanuela/activity-recognition/images/NTCIR-Lifelog-256/u1/2015-02-23/b00000609_21i6bq_20150223_132720e.jpg'
p2111
sg4
(lp2112
(g127
g6
(g18
S'\x1dd\x0c?'
p2113
tp2114
Rp2115
tp2116
a(g56
g6
(g18
S'\x1bP\x10>'
p2117
tp2118
Rp2119
tp2120
a(g147
g6
(g18
S'\xd6m\x0b>'
p2121
tp2122
Rp2123
tp2124
a(g243
g6
(g18
S'6\xb0(='
p2125
tp2126
Rp2127
tp2128
a(g44
g6
(g18
S"{'!="
p2129
tp2130
Rp2131
tp2132
asg73
g81
sa(dp2133
g2
S'../../../data/emanuela/activity-recognition/images/NTCIR-Lifelog-256/u1/2015-02-23/b00000495_21i6bq_20150223_121832e.jpg'
p2134
sg4
(lp2135
(g127
g6
(g18
S'~:\x8b>'
p2136
tp2137
Rp2138
tp2139
a(g81
g6
(g18
S'\xe7\x0e\x81>'
p2140
tp2141
Rp2142
tp2143
a(g32
g6
(g18
S'R,2>'
p2144
tp2145
Rp2146
tp2147
a(g147
g6
(g18
S'\xc3\x14\x07>'
p2148
tp2149
Rp2150
tp2151
a(g44
g6
(g18
S'\x1d\xc7\xa5='
p2152
tp2153
Rp2154
tp2155
asg73
g81
sa(dp2156
g2
S'../../../data/emanuela/activity-recognition/images/NTCIR-Lifelog-256/u1/2015-03-11/b00000667_21i6bq_20150311_134348e.jpg'
p2157
sg4
(lp2158
(g44
g6
(g18
S'X\x90\xb5>'
p2159
tp2160
Rp2161
tp2162
a(g147
g6
(g18
S'g\xdb<>'
p2163
tp2164
Rp2165
tp2166
a(g127
g6
(g18
S'f\xd53>'
p2167
tp2168
Rp2169
tp2170
a(g15
g6
(g18
S'\x16\xbf\xa7='
p2171
tp2172
Rp2173
tp2174
a(g32
g6
(g18
S',\xb0\x9d='
p2175
tp2176
Rp2177
tp2178
asg73
g81
sa(dp2179
g2
S'../../../data/emanuela/activity-recognition/images/NTCIR-Lifelog-256/u1/2015-03-11/b00000207_21i6bq_20150311_084727e.jpg'
p2180
sg4
(lp2181
(g81
g6
(g18
S'\xaa\x98\x0f?'
p2182
tp2183
Rp2184
tp2185
a(g15
g6
(g18
S'\xd5\xd4\xb5>'
p2186
tp2187
Rp2188
tp2189
a(g32
g6
(g18
S'\x13\x84&='
p2190
tp2191
Rp2192
tp2193
a(g44
g6
(g18
S'\xc3\xba\xee<'
p2194
tp2195
Rp2196
tp2197
a(g108
g6
(g18
S'\xea\x00D;'
p2198
tp2199
Rp2200
tp2201
asg73
g81
sa(dp2202
g2
S'../../../data/emanuela/activity-recognition/images/NTCIR-Lifelog-256/u1/2015-02-23/b00000613_21i6bq_20150223_132948e.jpg'
p2203
sg4
(lp2204
(g56
g6
(g18
S';\xa7\xc5>'
p2205
tp2206
Rp2207
tp2208
a(g147
g6
(g18
S'{\x08N>'
p2209
tp2210
Rp2211
tp2212
a(g32
g6
(g18
S'\xd33<>'
p2213
tp2214
Rp2215
tp2216
a(g44
g6
(g18
S'e\xeb\xe6='
p2217
tp2218
Rp2219
tp2220
a(g127
g6
(g18
S'\x98\xe7r='
p2221
tp2222
Rp2223
tp2224
asg73
g81
sa(dp2225
g2
S'../../../data/emanuela/activity-recognition/images/NTCIR-Lifelog-256/u1/2015-02-23/b00000590_21i6bq_20150223_131553e.jpg'
p2226
sg4
(lp2227
(g32
g6
(g18
S';z\x93>'
p2228
tp2229
Rp2230
tp2231
a(g147
g6
(g18
S'\x870>>'
p2232
tp2233
Rp2234
tp2235
a(g44
g6
(g18
S'\xe3;\t>'
p2236
tp2237
Rp2238
tp2239
a(g127
g6
(g18
S'e\xf0\xd8='
p2240
tp2241
Rp2242
tp2243
a(g81
g6
(g18
S'^\x8f\xb8='
p2244
tp2245
Rp2246
tp2247
asg73
g81
sa(dp2248
g2
S'../../../data/emanuela/activity-recognition/images/NTCIR-Lifelog-256/u1/2015-02-23/b00000597_21i6bq_20150223_131956e.jpg'
p2249
sg4
(lp2250
(g127
g6
(g18
S'\x84\x14\xb5>'
p2251
tp2252
Rp2253
tp2254
a(g81
g6
(g18
S'Y\x07\x86>'
p2255
tp2256
Rp2257
tp2258
a(g32
g6
(g18
S'\xdbG\x00>'
p2259
tp2260
Rp2261
tp2262
a(g516
g6
(g18
S'\xc2\xd6\x8a='
p2263
tp2264
Rp2265
tp2266
a(g147
g6
(g18
S'\xedCQ='
p2267
tp2268
Rp2269
tp2270
asg73
g81
sa(dp2271
g2
S'../../../data/emanuela/activity-recognition/images/NTCIR-Lifelog-256/u1/2015-03-15/b00001135_21i6bq_20150315_183907e.jpg'
p2272
sg4
(lp2273
(g81
g6
(g18
S'>\x1c\x1e?'
p2274
tp2275
Rp2276
tp2277
a(g15
g6
(g18
S'\xae\xe0;>'
p2278
tp2279
Rp2280
tp2281
a(g44
g6
(g18
S'\xd9\x86\xc0='
p2282
tp2283
Rp2284
tp2285
a(g68
g6
(g18
S'\x17\x03\xd7<'
p2286
tp2287
Rp2288
tp2289
a(g32
g6
(g18
S'\x8aI\xaf<'
p2290
tp2291
Rp2292
tp2293
asg73
g81
sa(dp2294
g2
S'../../../data/emanuela/activity-recognition/images/NTCIR-Lifelog-256/u1/2015-02-23/b00000637_21i6bq_20150223_134351e.jpg'
p2295
sg4
(lp2296
(g44
g6
(g18
S'\xfbU:?'
p2297
tp2298
Rp2299
tp2300
a(g32
g6
(g18
S'\x97"\xf6='
p2301
tp2302
Rp2303
tp2304
a(g81
g6
(g18
S'^\x18~='
p2305
tp2306
Rp2307
tp2308
a(g516
g6
(g18
S'*\xa7\xcb<'
p2309
tp2310
Rp2311
tp2312
a(g56
g6
(g18
S'\xf3+\x83<'
p2313
tp2314
Rp2315
tp2316
asg73
g81
sa(dp2317
g2
S'../../../data/emanuela/activity-recognition/images/NTCIR-Lifelog-256/u1/2015-02-23/b00000485_21i6bq_20150223_121232e.jpg'
p2318
sg4
(lp2319
(g81
g6
(g18
S'\x12\x11\x12?'
p2320
tp2321
Rp2322
tp2323
a(g127
g6
(g18
S'\x02l\x04>'
p2324
tp2325
Rp2326
tp2327
a(g32
g6
(g18
S'\xc4\x07\xed='
p2328
tp2329
Rp2330
tp2331
a(g44
g6
(g18
S'\x8a\xac\x81='
p2332
tp2333
Rp2334
tp2335
a(g147
g6
(g18
S'\xa0\xc1"='
p2336
tp2337
Rp2338
tp2339
asg73
g81
sa(dp2340
g2
S'../../../data/emanuela/activity-recognition/images/NTCIR-Lifelog-256/u1/2015-03-06/b00000836_21i6bq_20150306_140451e.jpg'
p2341
sg4
(lp2342
(g15
g6
(g18
S'jY:?'
p2343
tp2344
Rp2345
tp2346
a(g271
g6
(g18
S'\xa8M\xf4='
p2347
tp2348
Rp2349
tp2350
a(g68
g6
(g18
S'\xc6"F='
p2351
tp2352
Rp2353
tp2354
a(g81
g6
(g18
S'\x83G\xdf<'
p2355
tp2356
Rp2357
tp2358
a(g56
g6
(g18
S"\x7f'\xba<"
p2359
tp2360
Rp2361
tp2362
asg73
g81
sa(dp2363
g2
S'../../../data/emanuela/activity-recognition/images/NTCIR-Lifelog-256/u1/2015-02-23/b00000584_21i6bq_20150223_131209e.jpg'
p2364
sg4
(lp2365
(g44
g6
(g18
S'\xc3=o>'
p2366
tp2367
Rp2368
tp2369
a(g147
g6
(g18
S'\x07\x08]>'
p2370
tp2371
Rp2372
tp2373
a(g32
g6
(g18
S'\xf1\xd8A>'
p2374
tp2375
Rp2376
tp2377
a(g81
g6
(g18
S'\xe2\x1f4>'
p2378
tp2379
Rp2380
tp2381
a(g15
g6
(g18
S'\xb8\xa4)='
p2382
tp2383
Rp2384
tp2385
asg73
g81
sa(dp2386
g2
S'../../../data/emanuela/activity-recognition/images/NTCIR-Lifelog-256/u1/2015-02-23/b00000539_21i6bq_20150223_124424e.jpg'
p2387
sg4
(lp2388
(g32
g6
(g18
S'\xd3\x14\x80>'
p2389
tp2390
Rp2391
tp2392
a(g147
g6
(g18
S'7I >'
p2393
tp2394
Rp2395
tp2396
a(g108
g6
(g18
S'\x88E\xf9='
p2397
tp2398
Rp2399
tp2400
a(g127
g6
(g18
S'BT\xb0='
p2401
tp2402
Rp2403
tp2404
a(g44
g6
(g18
S'v\xcd\xaa='
p2405
tp2406
Rp2407
tp2408
asg73
g81
sa(dp2409
g2
S'../../../data/emanuela/activity-recognition/images/NTCIR-Lifelog-256/u1/2015-03-15/b00001199_21i6bq_20150315_190953e.jpg'
p2410
sg4
(lp2411
(g81
g6
(g18
S'O+\x1c?'
p2412
tp2413
Rp2414
tp2415
a(g32
g6
(g18
S'(K\x0b>'
p2416
tp2417
Rp2418
tp2419
a(g15
g6
(g18
S'|\xc3\xc5='
p2420
tp2421
Rp2422
tp2423
a(g855
g6
(g18
S'\x0eC\x91='
p2424
tp2425
Rp2426
tp2427
a(g44
g6
(g18
S'\x08\xa4P='
p2428
tp2429
Rp2430
tp2431
asg73
g81
sa(dp2432
g2
S'../../../data/emanuela/activity-recognition/images/NTCIR-Lifelog-256/u1/2015-03-11/b00000204_21i6bq_20150311_084529e.jpg'
p2433
sg4
(lp2434
(g15
g6
(g18
S'\x19\x80\xf5>'
p2435
tp2436
Rp2437
tp2438
a(g81
g6
(g18
S'\xa3X\xe6>'
p2439
tp2440
Rp2441
tp2442
a(g32
g6
(g18
S'\xe3\xbc\x14='
p2443
tp2444
Rp2445
tp2446
a(g44
g6
(g18
S'9\xe1c<'
p2447
tp2448
Rp2449
tp2450
a(g108
g6
(g18
S'\xbd\xce\xe9;'
p2451
tp2452
Rp2453
tp2454
asg73
g81
sa(dp2455
g2
S'../../../data/emanuela/activity-recognition/images/NTCIR-Lifelog-256/u1/2015-03-15/b00001132_21i6bq_20150315_183629e.jpg'
p2456
sg4
(lp2457
(g44
g6
(g18
S'\x03\xf6x?'
p2458
tp2459
Rp2460
tp2461
a(g147
g6
(g18
S'\x9d\xfa\xab;'
p2462
tp2463
Rp2464
tp2465
a(g81
g6
(g18
S'2%\x84;'
p2466
tp2467
Rp2468
tp2469
a(g516
g6
(g18
S'qzZ;'
p2470
tp2471
Rp2472
tp2473
a(g32
g6
(g18
S'Dt3;'
p2474
tp2475
Rp2476
tp2477
asg73
g81
sa(dp2478
g2
S'../../../data/emanuela/activity-recognition/images/NTCIR-Lifelog-256/u1/2015-03-15/b00001198_21i6bq_20150315_190913e.jpg'
p2479
sg4
(lp2480
(g81
g6
(g18
S'\x98G\x13?'
p2481
tp2482
Rp2483
tp2484
a(g15
g6
(g18
S'\xb3\xe4\xbb>'
p2485
tp2486
Rp2487
tp2488
a(g32
g6
(g18
S'\t\x00\xbc<'
p2489
tp2490
Rp2491
tp2492
a(g44
g6
(g18
S'\xae\xf3<<'
p2493
tp2494
Rp2495
tp2496
a(g855
g6
(g18
S'\xaff%<'
p2497
tp2498
Rp2499
tp2500
asg73
g81
sa(dp2501
g2
S'../../../data/emanuela/activity-recognition/images/NTCIR-Lifelog-256/u1/2015-02-23/b00000481_21i6bq_20150223_121006e.jpg'
p2502
sg4
(lp2503
(g127
g6
(g18
S'A#\xc5>'
p2504
tp2505
Rp2506
tp2507
a(g81
g6
(g18
S'?l1>'
p2508
tp2509
Rp2510
tp2511
a(g44
g6
(g18
S'\n\xee\xaf='
p2512
tp2513
Rp2514
tp2515
a(g56
g6
(g18
S'\x8a\x90\x99='
p2516
tp2517
Rp2518
tp2519
a(g32
g6
(g18
S'\xcc\x05\x99='
p2520
tp2521
Rp2522
tp2523
asg73
g81
sa(dp2524
g2
S'../../../data/emanuela/activity-recognition/images/NTCIR-Lifelog-256/u1/2015-02-23/b00000574_21i6bq_20150223_130609e.jpg'
p2525
sg4
(lp2526
(g127
g6
(g18
S'\xe0\xbd\x96>'
p2527
tp2528
Rp2529
tp2530
a(g44
g6
(g18
S'\xb6E0>'
p2531
tp2532
Rp2533
tp2534
a(g81
g6
(g18
S'\xe6\xba\x01>'
p2535
tp2536
Rp2537
tp2538
a(g147
g6
(g18
S'\x8aw\x01>'
p2539
tp2540
Rp2541
tp2542
a(g56
g6
(g18
S'\xeb\x99\xb9='
p2543
tp2544
Rp2545
tp2546
asg73
g81
sa(dp2547
g2
S'../../../data/emanuela/activity-recognition/images/NTCIR-Lifelog-256/u1/2015-03-11/b00000201_21i6bq_20150311_084341e.jpg'
p2548
sg4
(lp2549
(g32
g6
(g18
S'\xbad\r?'
p2550
tp2551
Rp2552
tp2553
a(g44
g6
(g18
S'`\xe0\xf7='
p2554
tp2555
Rp2556
tp2557
a(g15
g6
(g18
S'\xcb\x87\xec='
p2558
tp2559
Rp2560
tp2561
a(g81
g6
(g18
S'o\x0e\xbe='
p2562
tp2563
Rp2564
tp2565
a(g68
g6
(g18
S'8vt='
p2566
tp2567
Rp2568
tp2569
asg73
g81
sa(dp2570
g2
S'../../../data/emanuela/activity-recognition/images/NTCIR-Lifelog-256/u1/2015-03-11/b00000208_21i6bq_20150311_084806e.jpg'
p2571
sg4
(lp2572
(g81
g6
(g18
S'6\x03A?'
p2573
tp2574
Rp2575
tp2576
a(g15
g6
(g18
S'\xea\x8e9>'
p2577
tp2578
Rp2579
tp2580
a(g32
g6
(g18
S'L\xe4\x03='
p2581
tp2582
Rp2583
tp2584
a(g44
g6
(g18
S'+\xb0P<'
p2585
tp2586
Rp2587
tp2588
a(g127
g6
(g18
S'0\x95\x03<'
p2589
tp2590
Rp2591
tp2592
asg73
g81
sa(dp2593
g2
S'../../../data/emanuela/activity-recognition/images/NTCIR-Lifelog-256/u1/2015-02-23/b00000615_21i6bq_20150223_133055e.jpg'
p2594
sg4
(lp2595
(g56
g6
(g18
S'\xf4\xaa\xd0>'
p2596
tp2597
Rp2598
tp2599
a(g32
g6
(g18
S'%8\x04>'
p2600
tp2601
Rp2602
tp2603
a(g44
g6
(g18
S'\x166\xd5='
p2604
tp2605
Rp2606
tp2607
a(g127
g6
(g18
S'\xad\x1a\xbe='
p2608
tp2609
Rp2610
tp2611
a(g147
g6
(g18
S';\xa0\xa0='
p2612
tp2613
Rp2614
tp2615
asg73
g81
sa(dp2616
g2
S'../../../data/emanuela/activity-recognition/images/NTCIR-Lifelog-256/u1/2015-03-06/b00000857_21i6bq_20150306_141755e.jpg'
p2617
sg4
(lp2618
(g81
g6
(g18
S'=}D>'
p2619
tp2620
Rp2621
tp2622
a(g44
g6
(g18
S'\xd25=>'
p2623
tp2624
Rp2625
tp2626
a(g6
(g7
(S'S7'
p2627
I0
I1
tp2628
Rp2629
(I3
S'|'
p2630
NNNI7
I1
I0
tp2631
bS'cooking'
p2632
tp2633
Rp2634
g6
(g18
S'\xca\xb6\xe8='
p2635
tp2636
Rp2637
tp2638
a(g271
g6
(g18
S'E\xba\x8c='
p2639
tp2640
Rp2641
tp2642
a(g32
g6
(g18
S'\xd7\xefx='
p2643
tp2644
Rp2645
tp2646
asg73
g81
sa(dp2647
g2
S'../../../data/emanuela/activity-recognition/images/NTCIR-Lifelog-256/u1/2015-02-23/b00000530_21i6bq_20150223_123910e.jpg'
p2648
sg4
(lp2649
(g44
g6
(g18
S'34\x9b>'
p2650
tp2651
Rp2652
tp2653
a(g32
g6
(g18
S'\xf2\x06d>'
p2654
tp2655
Rp2656
tp2657
a(g81
g6
(g18
S'/y\r>'
p2658
tp2659
Rp2660
tp2661
a(g108
g6
(g18
S'W\x87\x8b='
p2662
tp2663
Rp2664
tp2665
a(g15
g6
(g18
S'\x19\x18\x80='
p2666
tp2667
Rp2668
tp2669
asg73
g81
sa(dp2670
g2
S'../../../data/emanuela/activity-recognition/images/NTCIR-Lifelog-256/u1/2015-02-23/b00000573_21i6bq_20150223_130536e.jpg'
p2671
sg4
(lp2672
(g127
g6
(g18
S'\xc6\xf5\x96>'
p2673
tp2674
Rp2675
tp2676
a(g147
g6
(g18
S'X\x1c5>'
p2677
tp2678
Rp2679
tp2680
a(g44
g6
(g18
S'\x0b3%>'
p2681
tp2682
Rp2683
tp2684
a(g56
g6
(g18
S'\x9e\x82\xdf='
p2685
tp2686
Rp2687
tp2688
a(g81
g6
(g18
S'\x02\xb1\xd3='
p2689
tp2690
Rp2691
tp2692
asg73
g81
sa(dp2693
g2
S'../../../data/emanuela/activity-recognition/images/NTCIR-Lifelog-256/u1/2015-03-15/b00000969_21i6bq_20150315_170423e.jpg'
p2694
sg4
(lp2695
(g81
g6
(g18
S'4\x15\\?'
p2696
tp2697
Rp2698
tp2699
a(g108
g6
(g18
S'\t\xfc0='
p2700
tp2701
Rp2702
tp2703
a(g516
g6
(g18
S'\xdb\xba\xe8<'
p2704
tp2705
Rp2706
tp2707
a(g32
g6
(g18
S'\x15\x0b\xb2<'
p2708
tp2709
Rp2710
tp2711
a(g15
g6
(g18
S'L})<'
p2712
tp2713
Rp2714
tp2715
asg73
g81
sa(dp2716
g2
S'../../../data/emanuela/activity-recognition/images/NTCIR-Lifelog-256/u1/2015-02-23/b00000566_21i6bq_20150223_130056e.jpg'
p2717
sg4
(lp2718
(g108
g6
(g18
S'\xe9\x8b\xca>'
p2719
tp2720
Rp2721
tp2722
a(g81
g6
(g18
S'\xbd\xb6&>'
p2723
tp2724
Rp2725
tp2726
a(g271
g6
(g18
S' \xa1\xd4='
p2727
tp2728
Rp2729
tp2730
a(g32
g6
(g18
S'WA\xab='
p2731
tp2732
Rp2733
tp2734
a(g44
g6
(g18
S'].\xa5='
p2735
tp2736
Rp2737
tp2738
asg73
g81
sa(dp2739
g2
S'../../../data/emanuela/activity-recognition/images/NTCIR-Lifelog-256/u1/2015-02-23/b00000483_21i6bq_20150223_121114e.jpg'
p2740
sg4
(lp2741
(g127
g6
(g18
S'\xff\xad\xef>'
p2742
tp2743
Rp2744
tp2745
a(g81
g6
(g18
S'\xa8\x07\xe5='
p2746
tp2747
Rp2748
tp2749
a(g147
g6
(g18
S'B\x18\xdb='
p2750
tp2751
Rp2752
tp2753
a(g32
g6
(g18
S'5\xb9\xb4='
p2754
tp2755
Rp2756
tp2757
a(g44
g6
(g18
S'\xb6\x0e\xad='
p2758
tp2759
Rp2760
tp2761
asg73
g81
sa(dp2762
g2
S'../../../data/emanuela/activity-recognition/images/NTCIR-Lifelog-256/u1/2015-02-23/b00000555_21i6bq_20150223_125419e.jpg'
p2763
sg4
(lp2764
(g516
g6
(g18
S'2R\xe5>'
p2765
tp2766
Rp2767
tp2768
a(g32
g6
(g18
S'\xf8 $>'
p2769
tp2770
Rp2771
tp2772
a(g127
g6
(g18
S'\xfd0\xe1='
p2773
tp2774
Rp2775
tp2776
a(g44
g6
(g18
S'\xcf\xaa\xa6='
p2777
tp2778
Rp2779
tp2780
a(g147
g6
(g18
S'"\xa9\'='
p2781
tp2782
Rp2783
tp2784
asg73
g81
sa(dp2785
g2
S'../../../data/emanuela/activity-recognition/images/NTCIR-Lifelog-256/u1/2015-02-24/b00000457_21i6bq_20150224_111947e.jpg'
p2786
sg4
(lp2787
(g15
g6
(g18
S'\x80g[?'
p2788
tp2789
Rp2790
tp2791
a(g81
g6
(g18
S'\xe9\xb8\xb4='
p2792
tp2793
Rp2794
tp2795
a(g68
g6
(g18
S'2B\xd4<'
p2796
tp2797
Rp2798
tp2799
a(g108
g6
(g18
S'4\x83\x92<'
p2800
tp2801
Rp2802
tp2803
a(g32
g6
(g18
S'74\x8e;'
p2804
tp2805
Rp2806
tp2807
asg73
g81
sa(dp2808
g2
S'../../../data/emanuela/activity-recognition/images/NTCIR-Lifelog-256/u1/2015-02-23/b00000556_21i6bq_20150223_125452e.jpg'
p2809
sg4
(lp2810
(g516
g6
(g18
S']\xa9\x99>'
p2811
tp2812
Rp2813
tp2814
a(g32
g6
(g18
S'\xae\x9a|>'
p2815
tp2816
Rp2817
tp2818
a(g44
g6
(g18
S'\xd0\x85\x0b>'
p2819
tp2820
Rp2821
tp2822
a(g81
g6
(g18
S'\x173\x81='
p2823
tp2824
Rp2825
tp2826
a(g108
g6
(g18
S"\xab'o="
p2827
tp2828
Rp2829
tp2830
asg73
g81
sa(dp2831
g2
S'../../../data/emanuela/activity-recognition/images/NTCIR-Lifelog-256/u1/2015-03-15/b00001131_21i6bq_20150315_183548e.jpg'
p2832
sg4
(lp2833
(g44
g6
(g18
S'$re?'
p2834
tp2835
Rp2836
tp2837
a(g81
g6
(g18
S'+\xf9\xd0<'
p2838
tp2839
Rp2840
tp2841
a(g147
g6
(g18
S'L\xec\xb8<'
p2842
tp2843
Rp2844
tp2845
a(g32
g6
(g18
S'm\xb69<'
p2846
tp2847
Rp2848
tp2849
a(g231
g6
(g18
S'\xeeZ$<'
p2850
tp2851
Rp2852
tp2853
asg73
g81
sa(dp2854
g2
S'../../../data/emanuela/activity-recognition/images/NTCIR-Lifelog-256/u1/2015-03-11/b00000664_21i6bq_20150311_134159e.jpg'
p2855
sg4
(lp2856
(g127
g6
(g18
S'6.a>'
p2857
tp2858
Rp2859
tp2860
a(g15
g6
(g18
S'\x9b\xf3?>'
p2861
tp2862
Rp2863
tp2864
a(g68
g6
(g18
S'a\x05\t>'
p2865
tp2866
Rp2867
tp2868
a(g32
g6
(g18
S'\xf8\x8f\xdd='
p2869
tp2870
Rp2871
tp2872
a(g81
g6
(g18
S'\xe0\x93\xc8='
p2873
tp2874
Rp2875
tp2876
asg73
g81
sa(dp2877
g2
S'../../../data/emanuela/activity-recognition/images/NTCIR-Lifelog-256/u1/2015-03-06/b00000835_21i6bq_20150306_140400e.jpg'
p2878
sg4
(lp2879
(g15
g6
(g18
S'\xab\x8cA?'
p2880
tp2881
Rp2882
tp2883
a(g271
g6
(g18
S'*\x96A>'
p2884
tp2885
Rp2886
tp2887
a(g108
g6
(g18
S'S\xb5#='
p2888
tp2889
Rp2890
tp2891
a(g516
g6
(g18
S'\xe0\x8fy;'
p2892
tp2893
Rp2894
tp2895
a(g81
g6
(g18
S'\x12}c;'
p2896
tp2897
Rp2898
tp2899
asg73
g81
sa(dp2900
g2
S'../../../data/emanuela/activity-recognition/images/NTCIR-Lifelog-256/u1/2015-02-23/b00000591_21i6bq_20150223_131634e.jpg'
p2901
sg4
(lp2902
(g147
g6
(g18
S'J\x03\xeb>'
p2903
tp2904
Rp2905
tp2906
a(g32
g6
(g18
S'V\xe4\xe1='
p2907
tp2908
Rp2909
tp2910
a(g44
g6
(g18
S'\x19\xf9\xd1='
p2911
tp2912
Rp2913
tp2914
a(g127
g6
(g18
S'2Q\xc6='
p2915
tp2916
Rp2917
tp2918
a(g56
g6
(g18
S'\xba\xb4\xad='
p2919
tp2920
Rp2921
tp2922
asg73
g81
sa(dp2923
g2
S'../../../data/emanuela/activity-recognition/images/NTCIR-Lifelog-256/u1/2015-03-11/b00000658_21i6bq_20150311_133817e.jpg'
p2924
sg4
(lp2925
(g147
g6
(g18
S'\x0c\xaaj>'
p2926
tp2927
Rp2928
tp2929
a(g44
g6
(g18
S'|\xb4*>'
p2930
tp2931
Rp2932
tp2933
a(g127
g6
(g18
S"9\xcd'>"
p2934
tp2935
Rp2936
tp2937
a(g15
g6
(g18
S'\xb2\x90\x1e>'
p2938
tp2939
Rp2940
tp2941
a(g32
g6
(g18
S'\x17\xae\x94='
p2942
tp2943
Rp2944
tp2945
asg73
g81
sa(dp2946
g2
S'../../../data/emanuela/activity-recognition/images/NTCIR-Lifelog-256/u1/2015-02-23/b00000506_21i6bq_20150223_122501e.jpg'
p2947
sg4
(lp2948
(g81
g6
(g18
S'\x08\xf3\x91>'
p2949
tp2950
Rp2951
tp2952
a(g127
g6
(g18
S'\xc0\x94k>'
p2953
tp2954
Rp2955
tp2956
a(g44
g6
(g18
S'\x84c2>'
p2957
tp2958
Rp2959
tp2960
a(g32
g6
(g18
S'\x12\xc8\xbb='
p2961
tp2962
Rp2963
tp2964
a(g147
g6
(g18
S'\xf8\xfa\x8b='
p2965
tp2966
Rp2967
tp2968
asg73
g81
sa(dp2969
g2
S'../../../data/emanuela/activity-recognition/images/NTCIR-Lifelog-256/u1/2015-02-23/b00000529_21i6bq_20150223_123841e.jpg'
p2970
sg4
(lp2971
(g32
g6
(g18
S'Q\x9ae>'
p2972
tp2973
Rp2974
tp2975
a(g81
g6
(g18
S'\xc1\x9e$>'
p2976
tp2977
Rp2978
tp2979
a(g44
g6
(g18
S'\x0e\xb6\x06>'
p2980
tp2981
Rp2982
tp2983
a(g15
g6
(g18
S'\xf6\xc4\xf5='
p2984
tp2985
Rp2986
tp2987
a(g516
g6
(g18
S'\xc6\xa1\xaa='
p2988
tp2989
Rp2990
tp2991
asg73
g81
sa(dp2992
g2
S'../../../data/emanuela/activity-recognition/images/NTCIR-Lifelog-256/u1/2015-02-23/b00000585_21i6bq_20150223_131248e.jpg'
p2993
sg4
(lp2994
(g147
g6
(g18
S'x{\x88>'
p2995
tp2996
Rp2997
tp2998
a(g44
g6
(g18
S'\xde\xd3\x07>'
p2999
tp3000
Rp3001
tp3002
a(g32
g6
(g18
S'\x18\xb0\x04>'
p3003
tp3004
Rp3005
tp3006
a(g127
g6
(g18
S'W|\xfe='
p3007
tp3008
Rp3009
tp3010
a(g56
g6
(g18
S'\xa1\x07\xec='
p3011
tp3012
Rp3013
tp3014
asg73
g81
sa(dp3015
g2
S'../../../data/emanuela/activity-recognition/images/NTCIR-Lifelog-256/u1/2015-03-06/b00000858_21i6bq_20150306_141828e.jpg'
p3016
sg4
(lp3017
(g44
g6
(g18
S'\xc2\x98\xbe>'
p3018
tp3019
Rp3020
tp3021
a(g801
g6
(g18
S'`\x19\x04>'
p3022
tp3023
Rp3024
tp3025
a(g68
g6
(g18
S'\xbf\xe2\x01>'
p3026
tp3027
Rp3028
tp3029
a(g32
g6
(g18
S'\x8b\x17\xcc='
p3030
tp3031
Rp3032
tp3033
a(g855
g6
(g18
S'\x11\x90\x8b='
p3034
tp3035
Rp3036
tp3037
asg73
g81
sa(dp3038
g2
S'../../../data/emanuela/activity-recognition/images/NTCIR-Lifelog-256/u1/2015-03-06/b00000846_21i6bq_20150306_141118e.jpg'
p3039
sg4
(lp3040
(g68
g6
(g18
S'\xb1\x1f\x99>'
p3041
tp3042
Rp3043
tp3044
a(g81
g6
(g18
S'z\x1a`>'
p3045
tp3046
Rp3047
tp3048
a(g15
g6
(g18
S'\xbb\xe8^>'
p3049
tp3050
Rp3051
tp3052
a(g108
g6
(g18
S'\x14\xaa\xad='
p3053
tp3054
Rp3055
tp3056
a(g44
g6
(g18
S'\xbb\x11S='
p3057
tp3058
Rp3059
tp3060
asg73
g81
sa(dp3061
g2
S'../../../data/emanuela/activity-recognition/images/NTCIR-Lifelog-256/u1/2015-02-23/b00000538_21i6bq_20150223_124351e.jpg'
p3062
sg4
(lp3063
(g44
g6
(g18
S'\x120i>'
p3064
tp3065
Rp3066
tp3067
a(g56
g6
(g18
S'\xc5\x8e,>'
p3068
tp3069
Rp3070
tp3071
a(g147
g6
(g18
S'\x1aI,>'
p3072
tp3073
Rp3074
tp3075
a(g32
g6
(g18
S'<\x9c\x19>'
p3076
tp3077
Rp3078
tp3079
a(g127
g6
(g18
S'\xfc\x81z='
p3080
tp3081
Rp3082
tp3083
asg73
g81
sa(dp3084
g2
S'../../../data/emanuela/activity-recognition/images/NTCIR-Lifelog-256/u1/2015-02-23/b00000492_21i6bq_20150223_121640e.jpg'
p3085
sg4
(lp3086
(g32
g6
(g18
S'\xf8l\xd7>'
p3087
tp3088
Rp3089
tp3090
a(g81
g6
(g18
S'&\xe8=>'
p3091
tp3092
Rp3093
tp3094
a(g127
g6
(g18
S'\xc6\xff)>'
p3095
tp3096
Rp3097
tp3098
a(g44
g6
(g18
S'Rp\xb6='
p3099
tp3100
Rp3101
tp3102
a(g56
g6
(g18
S'P\x15\x87='
p3103
tp3104
Rp3105
tp3106
asg73
g81
sa(dp3107
g2
S'../../../data/emanuela/activity-recognition/images/NTCIR-Lifelog-256/u1/2015-02-23/b00000498_21i6bq_20150223_122019e.jpg'
p3108
sg4
(lp3109
(g32
g6
(g18
S'z$\xf6>'
p3110
tp3111
Rp3112
tp3113
a(g81
g6
(g18
S'"@\x11>'
p3114
tp3115
Rp3116
tp3117
a(g127
g6
(g18
S'J\x9a\x01>'
p3118
tp3119
Rp3120
tp3121
a(g147
g6
(g18
S'*&\xf2='
p3122
tp3123
Rp3124
tp3125
a(g44
g6
(g18
S']rz='
p3126
tp3127
Rp3128
tp3129
asg73
g81
sa(dp3130
g2
S'../../../data/emanuela/activity-recognition/images/NTCIR-Lifelog-256/u1/2015-02-23/b00000588_21i6bq_20150223_131445e.jpg'
p3131
sg4
(lp3132
(g147
g6
(g18
S'\xdd\xc1\t?'
p3133
tp3134
Rp3135
tp3136
a(g44
g6
(g18
S'\xdcj\xf5='
p3137
tp3138
Rp3139
tp3140
a(g56
g6
(g18
S'*9\xdd='
p3141
tp3142
Rp3143
tp3144
a(g127
g6
(g18
S'{\x02\x7f='
p3145
tp3146
Rp3147
tp3148
a(g32
g6
(g18
S'\x05\x8a/='
p3149
tp3150
Rp3151
tp3152
asg73
g81
sa(dp3153
g2
S'../../../data/emanuela/activity-recognition/images/NTCIR-Lifelog-256/u1/2015-03-17/b00000851_21i6bq_20150317_163556e.jpg'
p3154
sg4
(lp3155
(g15
g6
(g18
S'\x83*8?'
p3156
tp3157
Rp3158
tp3159
a(g81
g6
(g18
S'n\xcc\x1a>'
p3160
tp3161
Rp3162
tp3163
a(g127
g6
(g18
S'P:-='
p3164
tp3165
Rp3166
tp3167
a(g1461
g6
(g18
S'@\x19\x07='
p3168
tp3169
Rp3170
tp3171
a(g68
g6
(g18
S'\x99\x13\xc0<'
p3172
tp3173
Rp3174
tp3175
asg73
g81
sa(dp3176
g2
S'../../../data/emanuela/activity-recognition/images/NTCIR-Lifelog-256/u1/2015-03-15/b00001193_21i6bq_20150315_190048e.jpg'
p3177
sg4
(lp3178
(g231
g6
(g18
S'\x11\x83\xc8>'
p3179
tp3180
Rp3181
tp3182
a(g147
g6
(g18
S'c\x91\x19>'
p3183
tp3184
Rp3185
tp3186
a(g44
g6
(g18
S']J\x0e>'
p3187
tp3188
Rp3189
tp3190
a(g81
g6
(g18
S'\xec\xf2\xf8='
p3191
tp3192
Rp3193
tp3194
a(g243
g6
(g18
S'\xbf\x88\x92='
p3195
tp3196
Rp3197
tp3198
asg73
g81
sa(dp3199
g2
S'../../../data/emanuela/activity-recognition/images/NTCIR-Lifelog-256/u1/2015-02-23/b00000535_21i6bq_20150223_124200e.jpg'
p3200
sg4
(lp3201
(g81
g6
(g18
S'y\xde\x9b>'
p3202
tp3203
Rp3204
tp3205
a(g32
g6
(g18
S'\xd7I\xeb='
p3206
tp3207
Rp3208
tp3209
a(g127
g6
(g18
S'\xbel\xbb='
p3210
tp3211
Rp3212
tp3213
a(g108
g6
(g18
S'8\xbf\xa4='
p3214
tp3215
Rp3216
tp3217
a(g271
g6
(g18
S'=\xaf\x8f='
p3218
tp3219
Rp3220
tp3221
asg73
g81
sa(dp3222
g2
S'../../../data/emanuela/activity-recognition/images/NTCIR-Lifelog-256/u1/2015-02-23/b00000509_21i6bq_20150223_122643e.jpg'
p3223
sg4
(lp3224
(g81
g6
(g18
S'K!\x03?'
p3225
tp3226
Rp3227
tp3228
a(g32
g6
(g18
S';DG>'
p3229
tp3230
Rp3231
tp3232
a(g44
g6
(g18
S'\x9b\xbe\xd3='
p3233
tp3234
Rp3235
tp3236
a(g127
g6
(g18
S'6~\x98='
p3237
tp3238
Rp3239
tp3240
a(g147
g6
(g18
S'\xf0\xdd\xed<'
p3241
tp3242
Rp3243
tp3244
asg73
g81
sa(dp3245
g2
S'../../../data/emanuela/activity-recognition/images/NTCIR-Lifelog-256/u1/2015-03-15/b00001136_21i6bq_20150315_184143e.jpg'
p3246
sg4
(lp3247
(g81
g6
(g18
S'\xd5\xa1\x08?'
p3248
tp3249
Rp3250
tp3251
a(g44
g6
(g18
S'i\x19">'
p3252
tp3253
Rp3254
tp3255
a(g32
g6
(g18
S'^3\x10>'
p3256
tp3257
Rp3258
tp3259
a(g15
g6
(g18
S'r\xa0\xae='
p3260
tp3261
Rp3262
tp3263
a(g108
g6
(g18
S'\x19\xd7z<'
p3264
tp3265
Rp3266
tp3267
asg73
g81
sa(dp3268
g2
S'../../../data/emanuela/activity-recognition/images/NTCIR-Lifelog-256/u1/2015-03-11/b00000214_21i6bq_20150311_085146e.jpg'
p3269
sg4
(lp3270
(g32
g6
(g18
S'\xfa\xe3\xe8>'
p3271
tp3272
Rp3273
tp3274
a(g81
g6
(g18
S'\xf5\x9d\xbe>'
p3275
tp3276
Rp3277
tp3278
a(g15
g6
(g18
S'\x10e\xc5='
p3279
tp3280
Rp3281
tp3282
a(g44
g6
(g18
S'U\xae\xc7<'
p3283
tp3284
Rp3285
tp3286
a(g855
g6
(g18
S'\r\xc3f<'
p3287
tp3288
Rp3289
tp3290
asg73
g81
sa(dp3291
g2
S'../../../data/emanuela/activity-recognition/images/NTCIR-Lifelog-256/u1/2015-03-15/b00001134_21i6bq_20150315_183749e.jpg'
p3292
sg4
(lp3293
(g81
g6
(g18
S's\xd5Q?'
p3294
tp3295
Rp3296
tp3297
a(g15
g6
(g18
S'\xbd\xd0%>'
p3298
tp3299
Rp3300
tp3301
a(g32
g6
(g18
S'\xda`\xd9;'
p3302
tp3303
Rp3304
tp3305
a(g108
g6
(g18
S':,\x80;'
p3306
tp3307
Rp3308
tp3309
a(g68
g6
(g18
S'\xf7\x06\x11;'
p3310
tp3311
Rp3312
tp3313
asg73
g81
sa(dp3314
g2
S'../../../data/emanuela/activity-recognition/images/NTCIR-Lifelog-256/u1/2015-03-15/b00001143_21i6bq_20150315_184719e.jpg'
p3315
sg4
(lp3316
(g81
g6
(g18
S'\x9f\x12\xa6>'
p3317
tp3318
Rp3319
tp3320
a(g32
g6
(g18
S'\xe992>'
p3321
tp3322
Rp3323
tp3324
a(g44
g6
(g18
S'X\xc6&>'
p3325
tp3326
Rp3327
tp3328
a(g15
g6
(g18
S'\x08\xc9\xa0='
p3329
tp3330
Rp3331
tp3332
a(g108
g6
(g18
S'\x84\xa3s='
p3333
tp3334
Rp3335
tp3336
asg73
g81
sa(dp3337
g2
S'../../../data/emanuela/activity-recognition/images/NTCIR-Lifelog-256/u1/2015-02-23/b00000494_21i6bq_20150223_121751e.jpg'
p3338
sg4
(lp3339
(g32
g6
(g18
S'\xb3\x8b\xa1>'
p3340
tp3341
Rp3342
tp3343
a(g147
g6
(g18
S'\x06\xba\x17>'
p3344
tp3345
Rp3346
tp3347
a(g56
g6
(g18
S'\xe5K\x0b>'
p3348
tp3349
Rp3350
tp3351
a(g127
g6
(g18
S'@\xe1\xf1='
p3352
tp3353
Rp3354
tp3355
a(g81
g6
(g18
S'.*\xd7='
p3356
tp3357
Rp3358
tp3359
asg73
g81
sa(dp3360
g2
S'../../../data/emanuela/activity-recognition/images/NTCIR-Lifelog-256/u1/2015-02-23/b00000560_21i6bq_20150223_125712e.jpg'
p3361
sg4
(lp3362
(g44
g6
(g18
S'd`\xb7>'
p3363
tp3364
Rp3365
tp3366
a(g147
g6
(g18
S'!\xd3/>'
p3367
tp3368
Rp3369
tp3370
a(g56
g6
(g18
S'E%\x12>'
p3371
tp3372
Rp3373
tp3374
a(g32
g6
(g18
S'I\xb2\x02>'
p3375
tp3376
Rp3377
tp3378
a(g108
g6
(g18
S'\x0b}\xfb<'
p3379
tp3380
Rp3381
tp3382
asg73
g81
sa(dp3383
g2
S'../../../data/emanuela/activity-recognition/images/NTCIR-Lifelog-256/u1/2015-02-23/b00000608_21i6bq_20150223_132650e.jpg'
p3384
sg4
(lp3385
(g127
g6
(g18
S'q\xb3\xd6>'
p3386
tp3387
Rp3388
tp3389
a(g56
g6
(g18
S'\xe2\x10\xfb='
p3390
tp3391
Rp3392
tp3393
a(g147
g6
(g18
S'\x16h\xc4='
p3394
tp3395
Rp3396
tp3397
a(g231
g6
(g18
S'0\x08\xba='
p3398
tp3399
Rp3400
tp3401
a(g32
g6
(g18
S'\x8d!\xac='
p3402
tp3403
Rp3404
tp3405
asg73
g81
sa(dp3406
g2
S'../../../data/emanuela/activity-recognition/images/NTCIR-Lifelog-256/u1/2015-03-06/b00000834_21i6bq_20150306_140307e.jpg'
p3407
sg4
(lp3408
(g15
g6
(g18
S'\xf1\x1bQ?'
p3409
tp3410
Rp3411
tp3412
a(g108
g6
(g18
S'\x1b\xff\xb5='
p3413
tp3414
Rp3415
tp3416
a(g81
g6
(g18
S'\xf7g\xdf<'
p3417
tp3418
Rp3419
tp3420
a(g271
g6
(g18
S'\xeb7\xc5<'
p3421
tp3422
Rp3423
tp3424
a(g68
g6
(g18
S'\xf3\xdb\x8b<'
p3425
tp3426
Rp3427
tp3428
asg73
g81
sa(dp3429
g2
S'../../../data/emanuela/activity-recognition/images/NTCIR-Lifelog-256/u1/2015-02-23/b00000504_21i6bq_20150223_122343e.jpg'
p3430
sg4
(lp3431
(g32
g6
(g18
S'\x17\xd7\xce>'
p3432
tp3433
Rp3434
tp3435
a(g81
g6
(g18
S'}+A>'
p3436
tp3437
Rp3438
tp3439
a(g44
g6
(g18
S'J\xd3\n>'
p3440
tp3441
Rp3442
tp3443
a(g147
g6
(g18
S'\xd8\x08\xc8='
p3444
tp3445
Rp3446
tp3447
a(g127
g6
(g18
S'N\xef\xa9='
p3448
tp3449
Rp3450
tp3451
asg73
g81
sa(dp3452
g2
S'../../../data/emanuela/activity-recognition/images/NTCIR-Lifelog-256/u1/2015-03-15/b00001138_21i6bq_20150315_184410e.jpg'
p3453
sg4
(lp3454
(g81
g6
(g18
S'\xe3\xee\x0f?'
p3455
tp3456
Rp3457
tp3458
a(g44
g6
(g18
S'Q\xc4\xfb='
p3459
tp3460
Rp3461
tp3462
a(g32
g6
(g18
S'3\x14\xb4='
p3463
tp3464
Rp3465
tp3466
a(g108
g6
(g18
S'\xfa\xa7\x98='
p3467
tp3468
Rp3469
tp3470
a(g855
g6
(g18
S'\x0fEW='
p3471
tp3472
Rp3473
tp3474
asg73
g81
sa(dp3475
g2
S'../../../data/emanuela/activity-recognition/images/NTCIR-Lifelog-256/u1/2015-03-15/b00001133_21i6bq_20150315_183710e.jpg'
p3476
sg4
(lp3477
(g81
g6
(g18
S'\xa4\x89_?'
p3478
tp3479
Rp3480
tp3481
a(g15
g6
(g18
S'\x889\xa7='
p3482
tp3483
Rp3484
tp3485
a(g32
g6
(g18
S'\xb3\xe7\x93<'
p3486
tp3487
Rp3488
tp3489
a(g44
g6
(g18
S'p\x12!<'
p3490
tp3491
Rp3492
tp3493
a(g108
g6
(g18
S'\xd6\x88\xc3;'
p3494
tp3495
Rp3496
tp3497
asg73
g81
sa(dp3498
g2
S'../../../data/emanuela/activity-recognition/images/NTCIR-Lifelog-256/u1/2015-02-23/b00000552_21i6bq_20150223_125228e.jpg'
p3499
sg4
(lp3500
(g44
g6
(g18
S'\xd4I\x83>'
p3501
tp3502
Rp3503
tp3504
a(g32
g6
(g18
S'Q<[>'
p3505
tp3506
Rp3507
tp3508
a(g108
g6
(g18
S'\t"\xd2='
p3509
tp3510
Rp3511
tp3512
a(g81
g6
(g18
S'\xfd~\xc8='
p3513
tp3514
Rp3515
tp3516
a(g147
g6
(g18
S'{R\xa8='
p3517
tp3518
Rp3519
tp3520
asg73
g81
sa(dp3521
g2
S'../../../data/emanuela/activity-recognition/images/NTCIR-Lifelog-256/u1/2015-02-23/b00000541_21i6bq_20150223_124542e.jpg'
p3522
sg4
(lp3523
(g32
g6
(g18
S'$v\xd6>'
p3524
tp3525
Rp3526
tp3527
a(g147
g6
(g18
S'\xc7\xe2#>'
p3528
tp3529
Rp3530
tp3531
a(g44
g6
(g18
S'\xce\x93\xbf='
p3532
tp3533
Rp3534
tp3535
a(g108
g6
(g18
S'\xf3\xdeo='
p3536
tp3537
Rp3538
tp3539
a(g127
g6
(g18
S'\x88Rh='
p3540
tp3541
Rp3542
tp3543
asg73
g81
sa(dp3544
g2
S'../../../data/emanuela/activity-recognition/images/NTCIR-Lifelog-256/u1/2015-02-23/b00000614_21i6bq_20150223_133024e.jpg'
p3545
sg4
(lp3546
(g147
g6
(g18
S']\x13U>'
p3547
tp3548
Rp3549
tp3550
a(g127
g6
(g18
S'\xaa\xdb8>'
p3551
tp3552
Rp3553
tp3554
a(g56
g6
(g18
S'\xe6\xc40>'
p3555
tp3556
Rp3557
tp3558
a(g44
g6
(g18
S'?v#>'
p3559
tp3560
Rp3561
tp3562
a(g32
g6
(g18
S'\xc7\xf5\x04>'
p3563
tp3564
Rp3565
tp3566
asg73
g81
sa(dp3567
g2
S'../../../data/emanuela/activity-recognition/images/NTCIR-Lifelog-256/u1/2015-02-23/b00000557_21i6bq_20150223_125525e.jpg'
p3568
sg4
(lp3569
(g32
g6
(g18
S'\x98\x9a\x87>'
p3570
tp3571
Rp3572
tp3573
a(g44
g6
(g18
S'A\x16y>'
p3574
tp3575
Rp3576
tp3577
a(g147
g6
(g18
S'\np&>'
p3578
tp3579
Rp3580
tp3581
a(g56
g6
(g18
S'\x87\x92u='
p3582
tp3583
Rp3584
tp3585
a(g108
g6
(g18
S'`\x96W='
p3586
tp3587
Rp3588
tp3589
asg73
g81
sa(dp3590
g2
S'../../../data/emanuela/activity-recognition/images/NTCIR-Lifelog-256/u1/2015-02-23/b00000544_21i6bq_20150223_124731e.jpg'
p3591
sg4
(lp3592
(g147
g6
(g18
S'\x93@\x90>'
p3593
tp3594
Rp3595
tp3596
a(g32
g6
(g18
S'p9@>'
p3597
tp3598
Rp3599
tp3600
a(g44
g6
(g18
S'M\xfc&>'
p3601
tp3602
Rp3603
tp3604
a(g15
g6
(g18
S'^(\x8a='
p3605
tp3606
Rp3607
tp3608
a(g108
g6
(g18
S'-\xed\x83='
p3609
tp3610
Rp3611
tp3612
asg73
g81
sa(dp3613
g2
S'../../../data/emanuela/activity-recognition/images/NTCIR-Lifelog-256/u1/2015-03-11/b00000662_21i6bq_20150311_134044e.jpg'
p3614
sg4
(lp3615
(g127
g6
(g18
S'\xeb\x16\x03?'
p3616
tp3617
Rp3618
tp3619
a(g15
g6
(g18
S'\xd1\xf4\x08>'
p3620
tp3621
Rp3622
tp3623
a(g44
g6
(g18
S'\x95\xc8\xd4='
p3624
tp3625
Rp3626
tp3627
a(g147
g6
(g18
S'\x02\xa6\xb4='
p3628
tp3629
Rp3630
tp3631
a(g56
g6
(g18
S'\x13\x0e\xa2='
p3632
tp3633
Rp3634
tp3635
asg73
g81
sa(dp3636
g2
S'../../../data/emanuela/activity-recognition/images/NTCIR-Lifelog-256/u1/2015-02-23/b00000570_21i6bq_20150223_130333e.jpg'
p3637
sg4
(lp3638
(g108
g6
(g18
S'\x0f\x04\x84>'
p3639
tp3640
Rp3641
tp3642
a(g56
g6
(g18
S'b\xc6\xea='
p3643
tp3644
Rp3645
tp3646
a(g32
g6
(g18
S'\xc8\r\xcf='
p3647
tp3648
Rp3649
tp3650
a(g516
g6
(g18
S'\x8f\xe4\xce='
p3651
tp3652
Rp3653
tp3654
a(g44
g6
(g18
S"w'\xcb="
p3655
tp3656
Rp3657
tp3658
asg73
g81
sa(dp3659
g2
S'../../../data/emanuela/activity-recognition/images/NTCIR-Lifelog-256/u1/2015-02-23/b00000559_21i6bq_20150223_125639e.jpg'
p3660
sg4
(lp3661
(g32
g6
(g18
S'P\xc4\xa5>'
p3662
tp3663
Rp3664
tp3665
a(g147
g6
(g18
S'8e\r>'
p3666
tp3667
Rp3668
tp3669
a(g44
g6
(g18
S'\xd1\xdf\n>'
p3670
tp3671
Rp3672
tp3673
a(g108
g6
(g18
S'\xa06\xdc='
p3674
tp3675
Rp3676
tp3677
a(g81
g6
(g18
S'rI\x8a='
p3678
tp3679
Rp3680
tp3681
asg73
g81
sa(dp3682
g2
S'../../../data/emanuela/activity-recognition/images/NTCIR-Lifelog-256/u1/2015-02-23/b00000619_21i6bq_20150223_133319e.jpg'
p3683
sg4
(lp3684
(g56
g6
(g18
S'\xa9\x9d\x10?'
p3685
tp3686
Rp3687
tp3688
a(g15
g6
(g18
S'w\xcc\x15>'
p3689
tp3690
Rp3691
tp3692
a(g81
g6
(g18
S'"Q\xe0='
p3693
tp3694
Rp3695
tp3696
a(g32
g6
(g18
S'\xb63+='
p3697
tp3698
Rp3699
tp3700
a(g44
g6
(g18
S'o\xa3\x10='
p3701
tp3702
Rp3703
tp3704
asg73
g81
sa(dp3705
g2
S'../../../data/emanuela/activity-recognition/images/NTCIR-Lifelog-256/u1/2015-02-23/b00000610_21i6bq_20150223_132800e.jpg'
p3706
sg4
(lp3707
(g147
g6
(g18
S'\x86Z\xf3>'
p3708
tp3709
Rp3710
tp3711
a(g127
g6
(g18
S'5\xd37>'
p3712
tp3713
Rp3714
tp3715
a(g56
g6
(g18
S'W\x94\x0c>'
p3716
tp3717
Rp3718
tp3719
a(g32
g6
(g18
S'\xc8\xf6@='
p3720
tp3721
Rp3722
tp3723
a(g44
g6
(g18
S'\xcb\xf4\x15='
p3724
tp3725
Rp3726
tp3727
asg73
g81
sa(dp3728
g2
S'../../../data/emanuela/activity-recognition/images/NTCIR-Lifelog-256/u1/2015-02-23/b00000596_21i6bq_20150223_131925e.jpg'
p3729
sg4
(lp3730
(g81
g6
(g18
S'\x00l\xb0>'
p3731
tp3732
Rp3733
tp3734
a(g127
g6
(g18
S'2\x86\x92>'
p3735
tp3736
Rp3737
tp3738
a(g32
g6
(g18
S'\x9bn\x15>'
p3739
tp3740
Rp3741
tp3742
a(g44
g6
(g18
S'\xa7\xfe\x95='
p3743
tp3744
Rp3745
tp3746
a(g516
g6
(g18
S'\xfc\xf5*='
p3747
tp3748
Rp3749
tp3750
asg73
g81
sa(dp3751
g2
S'../../../data/emanuela/activity-recognition/images/NTCIR-Lifelog-256/u1/2015-02-23/b00000546_21i6bq_20150223_124849e.jpg'
p3752
sg4
(lp3753
(g32
g6
(g18
S'\xa8$\x9a>'
p3754
tp3755
Rp3756
tp3757
a(g81
g6
(g18
S'RhE>'
p3758
tp3759
Rp3760
tp3761
a(g127
g6
(g18
S'\xfco\xe7='
p3762
tp3763
Rp3764
tp3765
a(g15
g6
(g18
S'\x86\xde\xce='
p3766
tp3767
Rp3768
tp3769
a(g56
g6
(g18
S'\x1ai\xab='
p3770
tp3771
Rp3772
tp3773
asg73
g81
sa(dp3774
g2
S'../../../data/emanuela/activity-recognition/images/NTCIR-Lifelog-256/u1/2015-03-06/b00000833_21i6bq_20150306_140215e.jpg'
p3775
sg4
(lp3776
(g15
g6
(g18
S'\xc7\xca\xc3>'
p3777
tp3778
Rp3779
tp3780
a(g81
g6
(g18
S'\xfa\xd0u>'
p3781
tp3782
Rp3783
tp3784
a(g44
g6
(g18
S'\xf9\x95\xc6='
p3785
tp3786
Rp3787
tp3788
a(g801
g6
(g18
S'vz\xbf='
p3789
tp3790
Rp3791
tp3792
a(g32
g6
(g18
S'\x06\x9e\x9a='
p3793
tp3794
Rp3795
tp3796
asg73
g81
sa(dp3797
g2
S'../../../data/emanuela/activity-recognition/images/NTCIR-Lifelog-256/u1/2015-02-23/b00000479_21i6bq_20150223_120842e.jpg'
p3798
sg4
(lp3799
(g108
g6
(g18
S'T/9>'
p3800
tp3801
Rp3802
tp3803
a(g271
g6
(g18
S'\xc4#/>'
p3804
tp3805
Rp3806
tp3807
a(g44
g6
(g18
S'bn\x03>'
p3808
tp3809
Rp3810
tp3811
a(g32
g6
(g18
S'ih\xfe='
p3812
tp3813
Rp3814
tp3815
a(g516
g6
(g18
S'GH\xfa='
p3816
tp3817
Rp3818
tp3819
asg73
g81
sa(dp3820
g2
S'../../../data/emanuela/activity-recognition/images/NTCIR-Lifelog-256/u1/2015-02-23/b00000602_21i6bq_20150223_132307e.jpg'
p3821
sg4
(lp3822
(g15
g6
(g18
S'ge\x91>'
p3823
tp3824
Rp3825
tp3826
a(g108
g6
(g18
S'\x110s>'
p3827
tp3828
Rp3829
tp3830
a(g81
g6
(g18
S'\r`\x07>'
p3831
tp3832
Rp3833
tp3834
a(g127
g6
(g18
S'\x97h\xd2='
p3835
tp3836
Rp3837
tp3838
a(g32
g6
(g18
S'\x97)\xad='
p3839
tp3840
Rp3841
tp3842
asg73
g81
sa(dp3843
g2
S'../../../data/emanuela/activity-recognition/images/NTCIR-Lifelog-256/u1/2015-03-06/b00000859_21i6bq_20150306_141908e.jpg'
p3844
sg4
(lp3845
(g68
g6
(g18
S'\x1b\x1a\x9e>'
p3846
tp3847
Rp3848
tp3849
a(g44
g6
(g18
S'\x88<d>'
p3850
tp3851
Rp3852
tp3853
a(g801
g6
(g18
S"'\x94(>"
p3854
tp3855
Rp3856
tp3857
a(g32
g6
(g18
S'\xf31\xd0='
p3858
tp3859
Rp3860
tp3861
a(g56
g6
(g18
S'\xa5\x86?='
p3862
tp3863
Rp3864
tp3865
asg73
g81
sa(dp3866
g2
S'../../../data/emanuela/activity-recognition/images/NTCIR-Lifelog-256/u1/2015-02-23/b00000098_21i6bq_20150223_080631e.jpg'
p3867
sg4
(lp3868
(g243
g6
(g18
S'#$c?'
p3869
tp3870
Rp3871
tp3872
a(g801
g6
(g18
S'v}B='
p3873
tp3874
Rp3875
tp3876
a(g271
g6
(g18
S'[g\xe6<'
p3877
tp3878
Rp3879
tp3880
a(g44
g6
(g18
S'\xf5\x99\xfa;'
p3881
tp3882
Rp3883
tp3884
a(g231
g6
(g18
S'\xed\x18\xe4;'
p3885
tp3886
Rp3887
tp3888
asg73
g81
sa(dp3889
g2
S'../../../data/emanuela/activity-recognition/images/NTCIR-Lifelog-256/u1/2015-02-23/b00000537_21i6bq_20150223_124312e.jpg'
p3890
sg4
(lp3891
(g32
g6
(g18
S'\xd8\x14\x95>'
p3892
tp3893
Rp3894
tp3895
a(g44
g6
(g18
S'\x1fV(>'
p3896
tp3897
Rp3898
tp3899
a(g147
g6
(g18
S'\xc5d\xd2='
p3900
tp3901
Rp3902
tp3903
a(g516
g6
(g18
S'\xe2\xff\xaf='
p3904
tp3905
Rp3906
tp3907
a(g56
g6
(g18
S'\xc4\xa8\xae='
p3908
tp3909
Rp3910
tp3911
asg73
g81
sa(dp3912
g2
S'../../../data/emanuela/activity-recognition/images/NTCIR-Lifelog-256/u1/2015-02-23/b00000571_21i6bq_20150223_130414e.jpg'
p3913
sg4
(lp3914
(g32
g6
(g18
S'\xb1\xd3_>'
p3915
tp3916
Rp3917
tp3918
a(g56
g6
(g18
S'q\xa7)>'
p3919
tp3920
Rp3921
tp3922
a(g44
g6
(g18
S'\xe5z\x0b>'
p3923
tp3924
Rp3925
tp3926
a(g108
g6
(g18
S'\xccu\xfc='
p3927
tp3928
Rp3929
tp3930
a(g81
g6
(g18
S'z\xe9\xbc='
p3931
tp3932
Rp3933
tp3934
asg73
g81
sa(dp3935
g2
S'../../../data/emanuela/activity-recognition/images/NTCIR-Lifelog-256/u1/2015-03-11/b00000669_21i6bq_20150311_134501e.jpg'
p3936
sg4
(lp3937
(g68
g6
(g18
S'\xdf\x1f\x00?'
p3938
tp3939
Rp3940
tp3941
a(g44
g6
(g18
S'/#(>'
p3942
tp3943
Rp3944
tp3945
a(g15
g6
(g18
S'\x95@\x15>'
p3946
tp3947
Rp3948
tp3949
a(g127
g6
(g18
S'\xd2\x1f\xec='
p3950
tp3951
Rp3952
tp3953
a(g32
g6
(g18
S'\xc9\xc7\x8e<'
p3954
tp3955
Rp3956
tp3957
asg73
g81
sa(dp3958
g2
S'../../../data/emanuela/activity-recognition/images/NTCIR-Lifelog-256/u1/2015-03-11/b00000663_21i6bq_20150311_134125e.jpg'
p3959
sg4
(lp3960
(g44
g6
(g18
S'n\xe8\x04?'
p3961
tp3962
Rp3963
tp3964
a(g147
g6
(g18
S'\xff\xb6\xf1='
p3965
tp3966
Rp3967
tp3968
a(g56
g6
(g18
S'G\x1c\x92='
p3969
tp3970
Rp3971
tp3972
a(g15
g6
(g18
S'd\x95\x84='
p3973
tp3974
Rp3975
tp3976
a(g271
g6
(g18
S'\x83r^='
p3977
tp3978
Rp3979
tp3980
asg73
g81
sa(dp3981
g2
S'../../../data/emanuela/activity-recognition/images/NTCIR-Lifelog-256/u1/2015-02-23/b00000531_21i6bq_20150223_123943e.jpg'
p3982
sg4
(lp3983
(g44
g6
(g18
S'\xa5q\x7f>'
p3984
tp3985
Rp3986
tp3987
a(g32
g6
(g18
S'HU5>'
p3988
tp3989
Rp3990
tp3991
a(g15
g6
(g18
S'\x02<\xb9='
p3992
tp3993
Rp3994
tp3995
a(g127
g6
(g18
S'\xe1\xec\x9d='
p3996
tp3997
Rp3998
tp3999
a(g56
g6
(g18
S'qi\x92='
p4000
tp4001
Rp4002
tp4003
asg73
g81
sa(dp4004
g2
S'../../../data/emanuela/activity-recognition/images/NTCIR-Lifelog-256/u1/2015-02-23/b00000515_21i6bq_20150223_123029e.jpg'
p4005
sg4
(lp4006
(g44
g6
(g18
S'\x9a6\xe4>'
p4007
tp4008
Rp4009
tp4010
a(g516
g6
(g18
S',}\xe8='
p4011
tp4012
Rp4013
tp4014
a(g147
g6
(g18
S'\x07\xaa\xc2='
p4015
tp4016
Rp4017
tp4018
a(g32
g6
(g18
S'A\x86\x9a='
p4019
tp4020
Rp4021
tp4022
a(g56
g6
(g18
S'\x9e\xd9\x8c='
p4023
tp4024
Rp4025
tp4026
asg73
g81
sa(dp4027
g2
S'../../../data/emanuela/activity-recognition/images/NTCIR-Lifelog-256/u1/2015-02-23/b00000550_21i6bq_20150223_125118e.jpg'
p4028
sg4
(lp4029
(g44
g6
(g18
S'Y\x10\xeb>'
p4030
tp4031
Rp4032
tp4033
a(g147
g6
(g18
S'\xbe/\xe1='
p4034
tp4035
Rp4036
tp4037
a(g32
g6
(g18
S'\x93L\xc7='
p4038
tp4039
Rp4040
tp4041
a(g56
g6
(g18
S'\xe8>\xa8='
p4042
tp4043
Rp4044
tp4045
a(g108
g6
(g18
S'\xa6\x9c@='
p4046
tp4047
Rp4048
tp4049
asg73
g81
sa(dp4050
g2
S'../../../data/emanuela/activity-recognition/images/NTCIR-Lifelog-256/u1/2015-02-23/b00000620_21i6bq_20150223_133350e.jpg'
p4051
sg4
(lp4052
(g15
g6
(g18
S'\xf7\xcd\xba>'
p4053
tp4054
Rp4055
tp4056
a(g81
g6
(g18
S'\xafin>'
p4057
tp4058
Rp4059
tp4060
a(g127
g6
(g18
S'SW\xa5='
p4061
tp4062
Rp4063
tp4064
a(g32
g6
(g18
S'\xfa\xb0\x9b='
p4065
tp4066
Rp4067
tp4068
a(g44
g6
(g18
S'[\xe1t='
p4069
tp4070
Rp4071
tp4072
asg73
g81
sa(dp4073
g2
S'../../../data/emanuela/activity-recognition/images/NTCIR-Lifelog-256/u1/2015-02-23/b00000611_21i6bq_20150223_132832e.jpg'
p4074
sg4
(lp4075
(g147
g6
(g18
S'\x0c\x81\x0b?'
p4076
tp4077
Rp4078
tp4079
a(g56
g6
(g18
S'\xf8d\x00>'
p4080
tp4081
Rp4082
tp4083
a(g32
g6
(g18
S'\x94l\xcd='
p4084
tp4085
Rp4086
tp4087
a(g44
g6
(g18
S'c\xa1\x95='
p4088
tp4089
Rp4090
tp4091
a(g231
g6
(g18
S'\x02\\p='
p4092
tp4093
Rp4094
tp4095
asg73
g81
sa(dp4096
g2
S'../../../data/emanuela/activity-recognition/images/NTCIR-Lifelog-256/u1/2015-02-23/b00000625_21i6bq_20150223_133652e.jpg'
p4097
sg4
(lp4098
(g32
g6
(g18
S'\x1f\xf2\x0f?'
p4099
tp4100
Rp4101
tp4102
a(g81
g6
(g18
S'\xf3\x8d\r>'
p4103
tp4104
Rp4105
tp4106
a(g15
g6
(g18
S'\rR\x08>'
p4107
tp4108
Rp4109
tp4110
a(g44
g6
(g18
S"\xe9'\x03="
p4111
tp4112
Rp4113
tp4114
a(g147
g6
(g18
S's\xaa\xfd<'
p4115
tp4116
Rp4117
tp4118
asg73
g81
sa(dp4119
g2
S'../../../data/emanuela/activity-recognition/images/NTCIR-Lifelog-256/u1/2015-03-06/b00000842_21i6bq_20150306_140849e.jpg'
p4120
sg4
(lp4121
(g81
g6
(g18
S'\x1f\x11\x82>'
p4122
tp4123
Rp4124
tp4125
a(g801
g6
(g18
S'\x9a\xeb3>'
p4126
tp4127
Rp4128
tp4129
a(g108
g6
(g18
S'\xa7\xee\x12>'
p4130
tp4131
Rp4132
tp4133
a(g32
g6
(g18
S'd\xf1\xc2='
p4134
tp4135
Rp4136
tp4137
a(g15
g6
(g18
S'x\xa9\xb6='
p4138
tp4139
Rp4140
tp4141
asg73
g81
sa(dp4142
g2
S'../../../data/emanuela/activity-recognition/images/NTCIR-Lifelog-256/u1/2015-02-23/b00000477_21i6bq_20150223_120703e.jpg'
p4143
sg4
(lp4144
(g32
g6
(g18
S'\x02\r\xf3>'
p4145
tp4146
Rp4147
tp4148
a(g147
g6
(g18
S'\x99\xa5\x16>'
p4149
tp4150
Rp4151
tp4152
a(g44
g6
(g18
S'\xdb]\x00>'
p4153
tp4154
Rp4155
tp4156
a(g81
g6
(g18
S'V\x1e\xf0='
p4157
tp4158
Rp4159
tp4160
a(g127
g6
(g18
S'v[\x84='
p4161
tp4162
Rp4163
tp4164
asg73
g81
sa(dp4165
g2
S'../../../data/emanuela/activity-recognition/images/NTCIR-Lifelog-256/u1/2015-03-15/b00001130_21i6bq_20150315_183509e.jpg'
p4166
sg4
(lp4167
(g81
g6
(g18
S'\xa6eM?'
p4168
tp4169
Rp4170
tp4171
a(g44
g6
(g18
S"\xdb'\x94="
p4172
tp4173
Rp4174
tp4175
a(g15
g6
(g18
S'\xc3WR='
p4176
tp4177
Rp4178
tp4179
a(g32
g6
(g18
S'5\xb1\xaa<'
p4180
tp4181
Rp4182
tp4183
a(g68
g6
(g18
S'p\xbaN<'
p4184
tp4185
Rp4186
tp4187
asg73
g81
sa(dp4188
g2
S'../../../data/emanuela/activity-recognition/images/NTCIR-Lifelog-256/u1/2015-02-23/b00000482_21i6bq_20150223_121042e.jpg'
p4189
sg4
(lp4190
(g81
g6
(g18
S'\xe8\xa9\x01?'
p4191
tp4192
Rp4193
tp4194
a(g127
g6
(g18
S'C\xd6_>'
p4195
tp4196
Rp4197
tp4198
a(g147
g6
(g18
S'Q\x9e\x93='
p4199
tp4200
Rp4201
tp4202
a(g32
g6
(g18
S'\xc7\xc1\x8b='
p4203
tp4204
Rp4205
tp4206
a(g44
g6
(g18
S'VR^='
p4207
tp4208
Rp4209
tp4210
asg73
g81
sa(dp4211
g2
S'../../../data/emanuela/activity-recognition/images/NTCIR-Lifelog-256/u1/2015-03-06/b00000853_21i6bq_20150306_141522e.jpg'
p4212
sg4
(lp4213
(g44
g6
(g18
S'evp>'
p4214
tp4215
Rp4216
tp4217
a(g32
g6
(g18
S'\x1c\nd>'
p4218
tp4219
Rp4220
tp4221
a(g15
g6
(g18
S'\xf2\xa4\xff='
p4222
tp4223
Rp4224
tp4225
a(g81
g6
(g18
S'}\x9d\xd3='
p4226
tp4227
Rp4228
tp4229
a(g68
g6
(g18
S'L\x9e\xd1='
p4230
tp4231
Rp4232
tp4233
asg73
g81
sa(dp4234
g2
S'../../../data/emanuela/activity-recognition/images/NTCIR-Lifelog-256/u1/2015-03-17/b00000854_21i6bq_20150317_163739e.jpg'
p4235
sg4
(lp4236
(g15
g6
(g18
S'\xa6\x82G?'
p4237
tp4238
Rp4239
tp4240
a(g81
g6
(g18
S'\xc1\x03\xe3='
p4241
tp4242
Rp4243
tp4244
a(g44
g6
(g18
S'\xc7^\x06='
p4245
tp4246
Rp4247
tp4248
a(g127
g6
(g18
S'\xe2\\\xb9<'
p4249
tp4250
Rp4251
tp4252
a(g68
g6
(g18
S'8\x8d\x81<'
p4253
tp4254
Rp4255
tp4256
asg73
g81
sa(dp4257
g2
S'../../../data/emanuela/activity-recognition/images/NTCIR-Lifelog-256/u1/2015-02-23/b00000595_21i6bq_20150223_131854e.jpg'
p4258
sg4
(lp4259
(g127
g6
(g18
S'E\xd9\x1f?'
p4260
tp4261
Rp4262
tp4263
a(g56
g6
(g18
S'\x06\x90\x94='
p4264
tp4265
Rp4266
tp4267
a(g81
g6
(g18
S'\xc3D\x80='
p4268
tp4269
Rp4270
tp4271
a(g32
g6
(g18
S'o4_='
p4272
tp4273
Rp4274
tp4275
a(g516
g6
(g18
S'\x14\rU='
p4276
tp4277
Rp4278
tp4279
asg73
g81
sa(dp4280
g2
S'../../../data/emanuela/activity-recognition/images/NTCIR-Lifelog-256/u1/2015-02-23/b00000567_21i6bq_20150223_130132e.jpg'
p4281
sg4
(lp4282
(g32
g6
(g18
S'\xf5\xdd\x9a>'
p4283
tp4284
Rp4285
tp4286
a(g56
g6
(g18
S'f\x997>'
p4287
tp4288
Rp4289
tp4290
a(g44
g6
(g18
S'Z\xb2\x1a>'
p4291
tp4292
Rp4293
tp4294
a(g147
g6
(g18
S'5\xa2\xdc='
p4295
tp4296
Rp4297
tp4298
a(g108
g6
(g18
S';N@='
p4299
tp4300
Rp4301
tp4302
asg73
g81
sa(dp4303
g2
S'../../../data/emanuela/activity-recognition/images/NTCIR-Lifelog-256/u1/2015-02-24/b00000450_21i6bq_20150224_111543e.jpg'
p4304
sg4
(lp4305
(g15
g6
(g18
S'\xf6\x10??'
p4306
tp4307
Rp4308
tp4309
a(g81
g6
(g18
S'\x97\xc4n>'
p4310
tp4311
Rp4312
tp4313
a(g44
g6
(g18
S'*\x18\x9b;'
p4314
tp4315
Rp4316
tp4317
a(g271
g6
(g18
S'\xab/\x84;'
p4318
tp4319
Rp4320
tp4321
a(g32
g6
(g18
S'\xf3Xo;'
p4322
tp4323
Rp4324
tp4325
asg73
g81
sa(dp4326
g2
S'../../../data/emanuela/activity-recognition/images/NTCIR-Lifelog-256/u1/2015-03-17/b00000846_21i6bq_20150317_163246e.jpg'
p4327
sg4
(lp4328
(g81
g6
(g18
S'\\\xd0\xb0>'
p4329
tp4330
Rp4331
tp4332
a(g44
g6
(g18
S'W\x01\x88>'
p4333
tp4334
Rp4335
tp4336
a(g15
g6
(g18
S'K\xcb\x81>'
p4337
tp4338
Rp4339
tp4340
a(g127
g6
(g18
S'\xe52\xfb<'
p4341
tp4342
Rp4343
tp4344
a(g68
g6
(g18
S']\x14\xf6<'
p4345
tp4346
Rp4347
tp4348
asg73
g81
sa(dp4349
g2
S'../../../data/emanuela/activity-recognition/images/NTCIR-Lifelog-256/u1/2015-03-06/b00000854_21i6bq_20150306_141603e.jpg'
p4350
sg4
(lp4351
(g44
g6
(g18
S'\xda\x88\xcd>'
p4352
tp4353
Rp4354
tp4355
a(g68
g6
(g18
S'-\x15\x8c>'
p4356
tp4357
Rp4358
tp4359
a(g32
g6
(g18
S'\x85\x1f\xa5='
p4360
tp4361
Rp4362
tp4363
a(g801
g6
(g18
S'i\x1c\x91='
p4364
tp4365
Rp4366
tp4367
a(g15
g6
(g18
S'\x19\xd2D='
p4368
tp4369
Rp4370
tp4371
asg73
g81
sa(dp4372
g2
S'../../../data/emanuela/activity-recognition/images/NTCIR-Lifelog-256/u1/2015-02-23/b00000594_21i6bq_20150223_131815e.jpg'
p4373
sg4
(lp4374
(g127
g6
(g18
S'\x83\x0f\x9b>'
p4375
tp4376
Rp4377
tp4378
a(g44
g6
(g18
S'r\xec$>'
p4379
tp4380
Rp4381
tp4382
a(g32
g6
(g18
S'\x9bC">'
p4383
tp4384
Rp4385
tp4386
a(g147
g6
(g18
S'y\xbb\x0f>'
p4387
tp4388
Rp4389
tp4390
a(g56
g6
(g18
S'\x93\x10\xac='
p4391
tp4392
Rp4393
tp4394
asg73
g81
sa(dp4395
g2
S'../../../data/emanuela/activity-recognition/images/NTCIR-Lifelog-256/u1/2015-03-17/b00000849_21i6bq_20150317_163439e.jpg'
p4396
sg4
(lp4397
(g15
g6
(g18
S'\xb2\xabM?'
p4398
tp4399
Rp4400
tp4401
a(g81
g6
(g18
S'Ae\xbb='
p4402
tp4403
Rp4404
tp4405
a(g44
g6
(g18
S'F}R='
p4406
tp4407
Rp4408
tp4409
a(g68
g6
(g18
S'\xa77\xe8<'
p4410
tp4411
Rp4412
tp4413
a(g1461
g6
(g18
S'\xcb;\x1f<'
p4414
tp4415
Rp4416
tp4417
asg73
g81
sa(dp4418
g2
S'../../../data/emanuela/activity-recognition/images/NTCIR-Lifelog-256/u1/2015-03-17/b00000855_21i6bq_20150317_163818e.jpg'
p4419
sg4
(lp4420
(g44
g6
(g18
S'@]\xbf>'
p4421
tp4422
Rp4423
tp4424
a(g15
g6
(g18
S'\x89\xf8I>'
p4425
tp4426
Rp4427
tp4428
a(g81
g6
(g18
S'TF\x13>'
p4429
tp4430
Rp4431
tp4432
a(g127
g6
(g18
S'\x80\xdc\x03>'
p4433
tp4434
Rp4435
tp4436
a(g147
g6
(g18
S'\xc9\xa3\x12='
p4437
tp4438
Rp4439
tp4440
asg73
g81
sa(dp4441
g2
S'../../../data/emanuela/activity-recognition/images/NTCIR-Lifelog-256/u1/2015-02-23/b00000578_21i6bq_20150223_130829e.jpg'
p4442
sg4
(lp4443
(g127
g6
(g18
S'e0\xec>'
p4444
tp4445
Rp4446
tp4447
a(g44
g6
(g18
S'#\xb9\xdb='
p4448
tp4449
Rp4450
tp4451
a(g81
g6
(g18
S'np\xcd='
p4452
tp4453
Rp4454
tp4455
a(g56
g6
(g18
S'(\x18\xb7='
p4456
tp4457
Rp4458
tp4459
a(g147
g6
(g18
S'\xc6\x92\x9d='
p4460
tp4461
Rp4462
tp4463
asg73
g81
sa(dp4464
g2
S'../../../data/emanuela/activity-recognition/images/NTCIR-Lifelog-256/u1/2015-02-23/b00000523_21i6bq_20150223_123505e.jpg'
p4465
sg4
(lp4466
(g44
g6
(g18
S'&\xb7\x05?'
p4467
tp4468
Rp4469
tp4470
a(g32
g6
(g18
S'0\xac\xed='
p4471
tp4472
Rp4473
tp4474
a(g56
g6
(g18
S's\x1e\x96='
p4475
tp4476
Rp4477
tp4478
a(g15
g6
(g18
S'\xc7<\x80='
p4479
tp4480
Rp4481
tp4482
a(g147
g6
(g18
S'\xe4\x0bP='
p4483
tp4484
Rp4485
tp4486
asg73
g81
sa(dp4487
g2
S'../../../data/emanuela/activity-recognition/images/NTCIR-Lifelog-256/u1/2015-03-06/b00000860_21i6bq_20150306_141940e.jpg'
p4488
sg4
(lp4489
(g855
g6
(g18
S'\xe2\xc5\x9e>'
p4490
tp4491
Rp4492
tp4493
a(g801
g6
(g18
S'\x89\xe18>'
p4494
tp4495
Rp4496
tp4497
a(g32
g6
(g18
S"^')>"
p4498
tp4499
Rp4500
tp4501
a(g81
g6
(g18
S'\x05\xc9\xca='
p4502
tp4503
Rp4504
tp4505
a(g44
g6
(g18
S'9.\xac='
p4506
tp4507
Rp4508
tp4509
asg73
g81
sa(dp4510
g2
S'../../../data/emanuela/activity-recognition/images/NTCIR-Lifelog-256/u1/2015-02-23/b00000519_21i6bq_20150223_123256e.jpg'
p4511
sg4
(lp4512
(g516
g6
(g18
S'E`\xdd>'
p4513
tp4514
Rp4515
tp4516
a(g44
g6
(g18
S'\xc0\xf2#>'
p4517
tp4518
Rp4519
tp4520
a(g147
g6
(g18
S'(e\x97='
p4521
tp4522
Rp4523
tp4524
a(g32
g6
(g18
S'\xefg\x92='
p4525
tp4526
Rp4527
tp4528
a(g56
g6
(g18
S'u\x04d='
p4529
tp4530
Rp4531
tp4532
asg73
g81
sa(dp4533
g2
S'../../../data/emanuela/activity-recognition/images/NTCIR-Lifelog-256/u1/2015-02-23/b00000516_21i6bq_20150223_123108e.jpg'
p4534
sg4
(lp4535
(g32
g6
(g18
S'\xbdO\x06?'
p4536
tp4537
Rp4538
tp4539
a(g44
g6
(g18
S'\x8f\xd9\x0e>'
p4540
tp4541
Rp4542
tp4543
a(g516
g6
(g18
S'\x00=\x81='
p4544
tp4545
Rp4546
tp4547
a(g147
g6
(g18
S'\x072}='
p4548
tp4549
Rp4550
tp4551
a(g108
g6
(g18
S'X\xe8T='
p4552
tp4553
Rp4554
tp4555
asg73
g81
sa(dp4556
g2
S'../../../data/emanuela/activity-recognition/images/NTCIR-Lifelog-256/u1/2015-02-23/b00000478_21i6bq_20150223_120756e.jpg'
p4557
sg4
(lp4558
(g127
g6
(g18
S'Y\xdb\x8b>'
p4559
tp4560
Rp4561
tp4562
a(g147
g6
(g18
S'i\x14z>'
p4563
tp4564
Rp4565
tp4566
a(g56
g6
(g18
S'\x06\xbd7>'
p4567
tp4568
Rp4569
tp4570
a(g32
g6
(g18
S'\x1fc\x9f='
p4571
tp4572
Rp4573
tp4574
a(g81
g6
(g18
S'\xa8\xf9\x8f='
p4575
tp4576
Rp4577
tp4578
asg73
g81
sa(dp4579
g2
S'../../../data/emanuela/activity-recognition/images/NTCIR-Lifelog-256/u1/2015-02-23/b00000593_21i6bq_20150223_131743e.jpg'
p4580
sg4
(lp4581
(g81
g6
(g18
S'\xb1\xd2\xe2>'
p4582
tp4583
Rp4584
tp4585
a(g32
g6
(g18
S'\xf6e\x10>'
p4586
tp4587
Rp4588
tp4589
a(g127
g6
(g18
S'\x8bK\x06>'
p4590
tp4591
Rp4592
tp4593
a(g44
g6
(g18
S'UE\xef='
p4594
tp4595
Rp4596
tp4597
a(g516
g6
(g18
S'(\xf6]='
p4598
tp4599
Rp4600
tp4601
asg73
g81
sa(dp4602
g2
S'../../../data/emanuela/activity-recognition/images/NTCIR-Lifelog-256/u1/2015-02-23/b00000097_21i6bq_20150223_080552e.jpg'
p4603
sg4
(lp4604
(g243
g6
(g18
S'T;O?'
p4605
tp4606
Rp4607
tp4608
a(g801
g6
(g18
S'\xe2\xf6:='
p4609
tp4610
Rp4611
tp4612
a(g231
g6
(g18
S'\xfd\x062='
p4613
tp4614
Rp4615
tp4616
a(g855
g6
(g18
S'\xe8R\xb6<'
p4617
tp4618
Rp4619
tp4620
a(g44
g6
(g18
S'Z\x17\xb3<'
p4621
tp4622
Rp4623
tp4624
asg73
g81
sa(dp4625
g2
S'../../../data/emanuela/activity-recognition/images/NTCIR-Lifelog-256/u1/2015-02-23/b00000586_21i6bq_20150223_131329e.jpg'
p4626
sg4
(lp4627
(g32
g6
(g18
S'\xaf\x04W>'
p4628
tp4629
Rp4630
tp4631
a(g147
g6
(g18
S'\xa6kU>'
p4632
tp4633
Rp4634
tp4635
a(g44
g6
(g18
S'\xd1\xb9\x00>'
p4636
tp4637
Rp4638
tp4639
a(g56
g6
(g18
S'\xc9\xf3\xbc='
p4640
tp4641
Rp4642
tp4643
a(g127
g6
(g18
S'\xdb2\xba='
p4644
tp4645
Rp4646
tp4647
asg73
g81
sa(dp4648
g2
S'../../../data/emanuela/activity-recognition/images/NTCIR-Lifelog-256/u1/2015-03-11/b00000666_21i6bq_20150311_134308e.jpg'
p4649
sg4
(lp4650
(g127
g6
(g18
S'lh\xe8>'
p4651
tp4652
Rp4653
tp4654
a(g44
g6
(g18
S'\xd9L\xae>'
p4655
tp4656
Rp4657
tp4658
a(g68
g6
(g18
S'\xdc\xf0\xa1='
p4659
tp4660
Rp4661
tp4662
a(g56
g6
(g18
S'\x92Q\xe2<'
p4663
tp4664
Rp4665
tp4666
a(g147
g6
(g18
S'\xed\xf4\xcc<'
p4667
tp4668
Rp4669
tp4670
asg73
g81
sa(dp4671
g2
S'../../../data/emanuela/activity-recognition/images/NTCIR-Lifelog-256/u1/2015-02-23/b00000103_21i6bq_20150223_080938e.jpg'
p4672
sg4
(lp4673
(g231
g6
(g18
S'\xa4\x00\xac>'
p4674
tp4675
Rp4676
tp4677
a(g243
g6
(g18
S'\x9e\x97\xa2>'
p4678
tp4679
Rp4680
tp4681
a(g32
g6
(g18
S'\xbe\xf0\xae='
p4682
tp4683
Rp4684
tp4685
a(g801
g6
(g18
S']\xaa\x94='
p4686
tp4687
Rp4688
tp4689
a(g271
g6
(g18
S'E!\x8a='
p4690
tp4691
Rp4692
tp4693
asg73
g81
sa(dp4694
g2
S'../../../data/emanuela/activity-recognition/images/NTCIR-Lifelog-256/u1/2015-02-23/b00000626_21i6bq_20150223_133733e.jpg'
p4695
sg4
(lp4696
(g15
g6
(g18
S';\xca\xf7>'
p4697
tp4698
Rp4699
tp4700
a(g127
g6
(g18
S'\x03\r\xf7='
p4701
tp4702
Rp4703
tp4704
a(g81
g6
(g18
S'\x9b\x1b\xeb='
p4705
tp4706
Rp4707
tp4708
a(g32
g6
(g18
S'v\x95\xbc='
p4709
tp4710
Rp4711
tp4712
a(g56
g6
(g18
S'\xf3\x99U='
p4713
tp4714
Rp4715
tp4716
asg73
g81
sa(dp4717
g2
S'../../../data/emanuela/activity-recognition/images/NTCIR-Lifelog-256/u1/2015-02-23/b00000577_21i6bq_20150223_130748e.jpg'
p4718
sg4
(lp4719
(g127
g6
(g18
S'8\x13\xea>'
p4720
tp4721
Rp4722
tp4723
a(g56
g6
(g18
S'\x9a\x7f\x02>'
p4724
tp4725
Rp4726
tp4727
a(g147
g6
(g18
S'\x07x\xd2='
p4728
tp4729
Rp4730
tp4731
a(g44
g6
(g18
S'\x03\x1e\xb0='
p4732
tp4733
Rp4734
tp4735
a(g32
g6
(g18
S'\xea]\x7f='
p4736
tp4737
Rp4738
tp4739
asg73
g81
sa(dp4740
g2
S'../../../data/emanuela/activity-recognition/images/NTCIR-Lifelog-256/u1/2015-02-23/b00000617_21i6bq_20150223_133203e.jpg'
p4741
sg4
(lp4742
(g127
g6
(g18
S'\xd0\xb9\x99>'
p4743
tp4744
Rp4745
tp4746
a(g32
g6
(g18
S'\x04\xfdk>'
p4747
tp4748
Rp4749
tp4750
a(g81
g6
(g18
S'\xd2b\x04>'
p4751
tp4752
Rp4753
tp4754
a(g147
g6
(g18
S'\xe7=\x03>'
p4755
tp4756
Rp4757
tp4758
a(g44
g6
(g18
S')(\xd2='
p4759
tp4760
Rp4761
tp4762
asg73
g81
sa(dp4763
g2
S'../../../data/emanuela/activity-recognition/images/NTCIR-Lifelog-256/u1/2015-02-23/b00000508_21i6bq_20150223_122611e.jpg'
p4764
sg4
(lp4765
(g81
g6
(g18
S'|u\xb0>'
p4766
tp4767
Rp4768
tp4769
a(g127
g6
(g18
S'\x98\xa85>'
p4770
tp4771
Rp4772
tp4773
a(g32
g6
(g18
S'R\x980>'
p4774
tp4775
Rp4776
tp4777
a(g44
g6
(g18
S'\xb4\x85\xc2='
p4778
tp4779
Rp4780
tp4781
a(g147
g6
(g18
S'\xec\xd0e='
p4782
tp4783
Rp4784
tp4785
asg73
g81
sa(dp4786
g2
S'../../../data/emanuela/activity-recognition/images/NTCIR-Lifelog-256/u1/2015-02-23/b00000536_21i6bq_20150223_124239e.jpg'
p4787
sg4
(lp4788
(g32
g6
(g18
S'\xf3\x16\xb4>'
p4789
tp4790
Rp4791
tp4792
a(g44
g6
(g18
S'\x81\xe3\xea='
p4793
tp4794
Rp4795
tp4796
a(g56
g6
(g18
S'\xc0N\xe1='
p4797
tp4798
Rp4799
tp4800
a(g147
g6
(g18
S'\x97?\xa7='
p4801
tp4802
Rp4803
tp4804
a(g108
g6
(g18
S'\xf4\x9d\x94='
p4805
tp4806
Rp4807
tp4808
asg73
g81
sa(dp4809
g2
S'../../../data/emanuela/activity-recognition/images/NTCIR-Lifelog-256/u1/2015-03-06/b00000845_21i6bq_20150306_141039e.jpg'
p4810
sg4
(lp4811
(g68
g6
(g18
S'x\x86\xe4>'
p4812
tp4813
Rp4814
tp4815
a(g15
g6
(g18
S'\x01VD>'
p4816
tp4817
Rp4818
tp4819
a(g801
g6
(g18
S'\xcdX\xbe='
p4820
tp4821
Rp4822
tp4823
a(g44
g6
(g18
S'\n\xfb\x97='
p4824
tp4825
Rp4826
tp4827
a(g32
g6
(g18
S'\xa9\xd7\x83='
p4828
tp4829
Rp4830
tp4831
asg73
g81
sa(dp4832
g2
S'../../../data/emanuela/activity-recognition/images/NTCIR-Lifelog-256/u1/2015-03-17/b00000848_21i6bq_20150317_163401e.jpg'
p4833
sg4
(lp4834
(g15
g6
(g18
S'\x86\xc0d?'
p4835
tp4836
Rp4837
tp4838
a(g81
g6
(g18
S'eV<='
p4839
tp4840
Rp4841
tp4842
a(g44
g6
(g18
S'#\x01\xcf<'
p4843
tp4844
Rp4845
tp4846
a(g68
g6
(g18
S'\xa3\xd3v<'
p4847
tp4848
Rp4849
tp4850
a(g32
g6
(g18
S'\x99\xb3\xe6;'
p4851
tp4852
Rp4853
tp4854
asg73
g81
sa(dp4855
g2
S'../../../data/emanuela/activity-recognition/images/NTCIR-Lifelog-256/u1/2015-02-23/b00000545_21i6bq_20150223_124810e.jpg'
p4856
sg4
(lp4857
(g44
g6
(g18
S'\xbc\xd6\xb5>'
p4858
tp4859
Rp4860
tp4861
a(g147
g6
(g18
S'\xb9\xe4[>'
p4862
tp4863
Rp4864
tp4865
a(g32
g6
(g18
S'W`\xf3='
p4866
tp4867
Rp4868
tp4869
a(g56
g6
(g18
S'\x96\x8d\xb3='
p4870
tp4871
Rp4872
tp4873
a(g651
g6
(g18
S'\xd11,='
p4874
tp4875
Rp4876
tp4877
asg73
g81
sa(dp4878
g2
S'../../../data/emanuela/activity-recognition/images/NTCIR-Lifelog-256/u1/2015-03-06/b00000861_21i6bq_20150306_142013e.jpg'
p4879
sg4
(lp4880
(g32
g6
(g18
S'\x17\xef\xa9>'
p4881
tp4882
Rp4883
tp4884
a(g81
g6
(g18
S'\xce\xa3R>'
p4885
tp4886
Rp4887
tp4888
a(g801
g6
(g18
S'\xdd\xf0\x1d>'
p4889
tp4890
Rp4891
tp4892
a(g44
g6
(g18
S'AJ\xbc='
p4893
tp4894
Rp4895
tp4896
a(g855
g6
(g18
S'ZA\x87='
p4897
tp4898
Rp4899
tp4900
asg73
g81
sa(dp4901
g2
S'../../../data/emanuela/activity-recognition/images/NTCIR-Lifelog-256/u1/2015-02-23/b00000490_21i6bq_20150223_121529e.jpg'
p4902
sg4
(lp4903
(g81
g6
(g18
S'\x00\xf4\xba>'
p4904
tp4905
Rp4906
tp4907
a(g32
g6
(g18
S'\xcaE\xa0>'
p4908
tp4909
Rp4910
tp4911
a(g44
g6
(g18
S'\xbf)\xbf='
p4912
tp4913
Rp4914
tp4915
a(g127
g6
(g18
S'\xdc\x94\x8e='
p4916
tp4917
Rp4918
tp4919
a(g147
g6
(g18
S'A\x89\x86='
p4920
tp4921
Rp4922
tp4923
asg73
g81
sa(dp4924
g2
S'../../../data/emanuela/activity-recognition/images/NTCIR-Lifelog-256/u1/2015-02-23/b00000569_21i6bq_20150223_130255e.jpg'
p4925
sg4
(lp4926
(g32
g6
(g18
S'qX\xe5>'
p4927
tp4928
Rp4929
tp4930
a(g56
g6
(g18
S'\xd6\x8d\x9e>'
p4931
tp4932
Rp4933
tp4934
a(g44
g6
(g18
S'O\xa0\x93='
p4935
tp4936
Rp4937
tp4938
a(g147
g6
(g18
S'\xca\xc0v='
p4939
tp4940
Rp4941
tp4942
a(g651
g6
(g18
S'\xdat\xa7<'
p4943
tp4944
Rp4945
tp4946
asg73
g81
sa(dp4947
g2
S'../../../data/emanuela/activity-recognition/images/NTCIR-Lifelog-256/u1/2015-02-23/b00000572_21i6bq_20150223_130455e.jpg'
p4948
sg4
(lp4949
(g81
g6
(g18
S'?_\x7f>'
p4950
tp4951
Rp4952
tp4953
a(g44
g6
(g18
S'3p9>'
p4954
tp4955
Rp4956
tp4957
a(g32
g6
(g18
S'\xbe\x15\x16>'
p4958
tp4959
Rp4960
tp4961
a(g147
g6
(g18
S'\xd1\x87\xc5='
p4962
tp4963
Rp4964
tp4965
a(g56
g6
(g18
S'\xbc\x7f\x9e='
p4966
tp4967
Rp4968
tp4969
asg73
g81
sa(dp4970
g2
S'../../../data/emanuela/activity-recognition/images/NTCIR-Lifelog-256/u1/2015-02-23/b00000543_21i6bq_20150223_124652e.jpg'
p4971
sg4
(lp4972
(g147
g6
(g18
S'\x0e\x1bZ>'
p4973
tp4974
Rp4975
tp4976
a(g44
g6
(g18
S'\x97\xa2I>'
p4977
tp4978
Rp4979
tp4980
a(g56
g6
(g18
S'\xfbJ\xf4='
p4981
tp4982
Rp4983
tp4984
a(g516
g6
(g18
S'UJ\xe8='
p4985
tp4986
Rp4987
tp4988
a(g32
g6
(g18
S'\xc0\xbe\x9d='
p4989
tp4990
Rp4991
tp4992
asg73
g81
sa(dp4993
g2
S'../../../data/emanuela/activity-recognition/images/NTCIR-Lifelog-256/u1/2015-03-06/b00000844_21i6bq_20150306_141001e.jpg'
p4994
sg4
(lp4995
(g44
g6
(g18
S'\xe6-N>'
p4996
tp4997
Rp4998
tp4999
a(g855
g6
(g18
S'W\xb85>'
p5000
tp5001
Rp5002
tp5003
a(g801
g6
(g18
S'\xc4\xf5">'
p5004
tp5005
Rp5006
tp5007
a(g32
g6
(g18
S'\x15:\xff='
p5008
tp5009
Rp5010
tp5011
a(g68
g6
(g18
S'\xab*\xb6='
p5012
tp5013
Rp5014
tp5015
asg73
g81
sa(dp5016
g2
S'../../../data/emanuela/activity-recognition/images/NTCIR-Lifelog-256/u1/2015-02-23/b00000568_21i6bq_20150223_130219e.jpg'
p5017
sg4
(lp5018
(g56
g6
(g18
S'\x90\x14\xd2>'
p5019
tp5020
Rp5021
tp5022
a(g271
g6
(g18
S'\xaewM>'
p5023
tp5024
Rp5025
tp5026
a(g108
g6
(g18
S'\xba\xe4\xef='
p5027
tp5028
Rp5029
tp5030
a(g32
g6
(g18
S'\x1b\xb0\x84='
p5031
tp5032
Rp5033
tp5034
a(g147
g6
(g18
S'\xa8\xca3='
p5035
tp5036
Rp5037
tp5038
asg73
g81
sa(dp5039
g2
S'../../../data/emanuela/activity-recognition/images/NTCIR-Lifelog-256/u1/2015-02-23/b00000499_21i6bq_20150223_122057e.jpg'
p5040
sg4
(lp5041
(g127
g6
(g18
S'\xc2\xa8\x96>'
p5042
tp5043
Rp5044
tp5045
a(g32
g6
(g18
S'\xf3\xb3l>'
p5046
tp5047
Rp5048
tp5049
a(g147
g6
(g18
S'\x15\xba\x0b>'
p5050
tp5051
Rp5052
tp5053
a(g56
g6
(g18
S'\xb1&\xbd='
p5054
tp5055
Rp5056
tp5057
a(g81
g6
(g18
S'\xf0\x8a\xb8='
p5058
tp5059
Rp5060
tp5061
asg73
g81
sa(dp5062
g2
S'../../../data/emanuela/activity-recognition/images/NTCIR-Lifelog-256/u1/2015-02-23/b00000091_21i6bq_20150223_075924e.jpg'
p5063
sg4
(lp5064
(g243
g6
(g18
S'\xf5\x01c?'
p5065
tp5066
Rp5067
tp5068
a(g855
g6
(g18
S'\xe3\x93\x01='
p5069
tp5070
Rp5071
tp5072
a(g231
g6
(g18
S'\xbdg\xe9<'
p5073
tp5074
Rp5075
tp5076
a(g44
g6
(g18
S'a\x10\x90<'
p5077
tp5078
Rp5079
tp5080
a(g801
g6
(g18
S'[\xdbA<'
p5081
tp5082
Rp5083
tp5084
asg73
g81
sa(dp5085
g2
S'../../../data/emanuela/activity-recognition/images/NTCIR-Lifelog-256/u1/2015-02-23/b00000633_21i6bq_20150223_134141e.jpg'
p5086
sg4
(lp5087
(g147
g6
(g18
S'\x8dU\xb6>'
p5088
tp5089
Rp5090
tp5091
a(g44
g6
(g18
S'\xfc\xb8!>'
p5092
tp5093
Rp5094
tp5095
a(g56
g6
(g18
S'\x8f}\x1a>'
p5096
tp5097
Rp5098
tp5099
a(g32
g6
(g18
S'sb\xd6='
p5100
tp5101
Rp5102
tp5103
a(g127
g6
(g18
S'\xd1 \xb0='
p5104
tp5105
Rp5106
tp5107
asg73
g81
sa(dp5108
g2
S'../../../data/emanuela/activity-recognition/images/NTCIR-Lifelog-256/u1/2015-02-23/b00000604_21i6bq_20150223_132421e.jpg'
p5109
sg4
(lp5110
(g32
g6
(g18
S'\xbc\x88\x8d>'
p5111
tp5112
Rp5113
tp5114
a(g81
g6
(g18
S' \x96\n>'
p5115
tp5116
Rp5117
tp5118
a(g44
g6
(g18
S'R\xd7\xc0='
p5119
tp5120
Rp5121
tp5122
a(g516
g6
(g18
S'\x93\xd8\xb8='
p5123
tp5124
Rp5125
tp5126
a(g127
g6
(g18
S'V\xbd\xb7='
p5127
tp5128
Rp5129
tp5130
asg73
g81
sa(dp5131
g2
S'../../../data/emanuela/activity-recognition/images/NTCIR-Lifelog-256/u1/2015-02-23/b00000587_21i6bq_20150223_131404e.jpg'
p5132
sg4
(lp5133
(g81
g6
(g18
S'\xa4\x0cs>'
p5134
tp5135
Rp5136
tp5137
a(g32
g6
(g18
S'\x94r9>'
p5138
tp5139
Rp5140
tp5141
a(g147
g6
(g18
S'\x8f\xa3\x1c>'
p5142
tp5143
Rp5144
tp5145
a(g44
g6
(g18
S'.\x7f\xe0='
p5146
tp5147
Rp5148
tp5149
a(g56
g6
(g18
S'oh\xdd='
p5150
tp5151
Rp5152
tp5153
asg73
g81
sa(dp5154
g2
S'../../../data/emanuela/activity-recognition/images/NTCIR-Lifelog-256/u1/2015-03-15/b00001140_21i6bq_20150315_184524e.jpg'
p5155
sg4
(lp5156
(g81
g6
(g18
S'1\xbf\xee>'
p5157
tp5158
Rp5159
tp5160
a(g855
g6
(g18
S')\xb5:>'
p5161
tp5162
Rp5163
tp5164
a(g44
g6
(g18
S'Q\x96#>'
p5165
tp5166
Rp5167
tp5168
a(g108
g6
(g18
S'\xd2\xd8\xa0='
p5169
tp5170
Rp5171
tp5172
a(g32
g6
(g18
S'\xdb\xcb\x8c='
p5173
tp5174
Rp5175
tp5176
asg73
g81
sa(dp5177
g2
S'../../../data/emanuela/activity-recognition/images/NTCIR-Lifelog-256/u1/2015-02-23/b00000548_21i6bq_20150223_125006e.jpg'
p5178
sg4
(lp5179
(g56
g6
(g18
S'm\x9b\x8c>'
p5180
tp5181
Rp5182
tp5183
a(g44
g6
(g18
S'\x84OW>'
p5184
tp5185
Rp5186
tp5187
a(g32
g6
(g18
S'\xb0\x87I>'
p5188
tp5189
Rp5190
tp5191
a(g147
g6
(g18
S'xe\xe9='
p5192
tp5193
Rp5194
tp5195
a(g271
g6
(g18
S'@\xc38='
p5196
tp5197
Rp5198
tp5199
asg73
g81
sa(dp5200
g2
S'../../../data/emanuela/activity-recognition/images/NTCIR-Lifelog-256/u1/2015-02-23/b00000599_21i6bq_20150223_132112e.jpg'
p5201
sg4
(lp5202
(g56
g6
(g18
S'\xbd\x14\xa8>'
p5203
tp5204
Rp5205
tp5206
a(g32
g6
(g18
S'\xe9<\x87>'
p5207
tp5208
Rp5209
tp5210
a(g127
g6
(g18
S'\xf0\x90\xf2='
p5211
tp5212
Rp5213
tp5214
a(g44
g6
(g18
S'\x7f\x07\xd4='
p5215
tp5216
Rp5217
tp5218
a(g271
g6
(g18
S'\x0b\x00\x14='
p5219
tp5220
Rp5221
tp5222
asg73
g81
sa(dp5223
g2
S'../../../data/emanuela/activity-recognition/images/NTCIR-Lifelog-256/u1/2015-02-23/b00000580_21i6bq_20150223_130931e.jpg'
p5224
sg4
(lp5225
(g81
g6
(g18
S'\x14gi>'
p5226
tp5227
Rp5228
tp5229
a(g147
g6
(g18
S'q\xef;>'
p5230
tp5231
Rp5232
tp5233
a(g44
g6
(g18
S'\xea\x84 >'
p5234
tp5235
Rp5236
tp5237
a(g32
g6
(g18
S'e\xfa\x00>'
p5238
tp5239
Rp5240
tp5241
a(g127
g6
(g18
S'\xf8\xb5\xa7='
p5242
tp5243
Rp5244
tp5245
asg73
g81
sa(dp5246
g2
S'../../../data/emanuela/activity-recognition/images/NTCIR-Lifelog-256/u1/2015-03-15/b00001128_21i6bq_20150315_183403e.jpg'
p5247
sg4
(lp5248
(g81
g6
(g18
S'\x16LG?'
p5249
tp5250
Rp5251
tp5252
a(g44
g6
(g18
S'v\xa6\xbd='
p5253
tp5254
Rp5255
tp5256
a(g15
g6
(g18
S'Y\xcd\x8a='
p5257
tp5258
Rp5259
tp5260
a(g32
g6
(g18
S'\xba,\xdb<'
p5261
tp5262
Rp5263
tp5264
a(g68
g6
(g18
S'PB1<'
p5265
tp5266
Rp5267
tp5268
asg73
g81
sa(dp5269
g2
S'../../../data/emanuela/activity-recognition/images/NTCIR-Lifelog-256/u1/2015-02-23/b00000576_21i6bq_20150223_130717e.jpg'
p5270
sg4
(lp5271
(g127
g6
(g18
S'\xe6\x95\x86>'
p5272
tp5273
Rp5274
tp5275
a(g44
g6
(g18
S'\xd3\xf7B>'
p5276
tp5277
Rp5278
tp5279
a(g81
g6
(g18
S'U\x077>'
p5280
tp5281
Rp5282
tp5283
a(g147
g6
(g18
S'l\xec\xd3='
p5284
tp5285
Rp5286
tp5287
a(g32
g6
(g18
S'?j\x9f='
p5288
tp5289
Rp5290
tp5291
asg73
g81
sa(dp5292
g2
S'../../../data/emanuela/activity-recognition/images/NTCIR-Lifelog-256/u1/2015-02-23/b00000582_21i6bq_20150223_131047e.jpg'
p5293
sg4
(lp5294
(g147
g6
(g18
S'\x89.\x90>'
p5295
tp5296
Rp5297
tp5298
a(g56
g6
(g18
S"'!&>"
p5299
tp5300
Rp5301
tp5302
a(g127
g6
(g18
S'\xd8D\x1d>'
p5303
tp5304
Rp5305
tp5306
a(g44
g6
(g18
S':\x03\xbd='
p5307
tp5308
Rp5309
tp5310
a(g81
g6
(g18
S'\xe4\xe5\xb2='
p5311
tp5312
Rp5313
tp5314
asg73
g81
sa(dp5315
g2
S'../../../data/emanuela/activity-recognition/images/NTCIR-Lifelog-256/u1/2015-02-23/b00000579_21i6bq_20150223_130900e.jpg'
p5316
sg4
(lp5317
(g56
g6
(g18
S'{M\x95>'
p5318
tp5319
Rp5320
tp5321
a(g127
g6
(g18
S'\xd1H\x94>'
p5322
tp5323
Rp5324
tp5325
a(g147
g6
(g18
S'vd\xcb='
p5326
tp5327
Rp5328
tp5329
a(g44
g6
(g18
S'*\xf9\x96='
p5330
tp5331
Rp5332
tp5333
a(g81
g6
(g18
S'a\x19t='
p5334
tp5335
Rp5336
tp5337
asg73
g81
sa(dp5338
g2
S'../../../data/emanuela/activity-recognition/images/NTCIR-Lifelog-256/u1/2015-02-23/b00000514_21i6bq_20150223_122949e.jpg'
p5339
sg4
(lp5340
(g32
g6
(g18
S'\x01^\xa2>'
p5341
tp5342
Rp5343
tp5344
a(g81
g6
(g18
S'\xff\xa4\x93>'
p5345
tp5346
Rp5347
tp5348
a(g15
g6
(g18
S'\x90\xde\xe4='
p5349
tp5350
Rp5351
tp5352
a(g108
g6
(g18
S'\xe0p\x93='
p5353
tp5354
Rp5355
tp5356
a(g44
g6
(g18
S'\xbf\xe9\x80='
p5357
tp5358
Rp5359
tp5360
asg73
g81
sa(dp5361
g2
S'../../../data/emanuela/activity-recognition/images/NTCIR-Lifelog-256/u1/2015-02-23/b00000551_21i6bq_20150223_125151e.jpg'
p5362
sg4
(lp5363
(g44
g6
(g18
S'\xc5\x1e\x89>'
p5364
tp5365
Rp5366
tp5367
a(g147
g6
(g18
S'c\xab\x84>'
p5368
tp5369
Rp5370
tp5371
a(g32
g6
(g18
S'5\x05\x19>'
p5372
tp5373
Rp5374
tp5375
a(g56
g6
(g18
S'E\xc8\xc8='
p5376
tp5377
Rp5378
tp5379
a(g127
g6
(g18
S'\x8d\xffP='
p5380
tp5381
Rp5382
tp5383
asg73
g81
sa(dp5384
g2
S'../../../data/emanuela/activity-recognition/images/NTCIR-Lifelog-256/u1/2015-02-23/b00000549_21i6bq_20150223_125041e.jpg'
p5385
sg4
(lp5386
(g32
g6
(g18
S'\xa2\x85\x8e>'
p5387
tp5388
Rp5389
tp5390
a(g56
g6
(g18
S'\xdbo\x89>'
p5391
tp5392
Rp5393
tp5394
a(g44
g6
(g18
S'91V>'
p5395
tp5396
Rp5397
tp5398
a(g147
g6
(g18
S'\xb1\x86\x00>'
p5399
tp5400
Rp5401
tp5402
a(g855
g6
(g18
S'\xf2l\x96<'
p5403
tp5404
Rp5405
tp5406
asg73
g81
sa(dp5407
g2
S'../../../data/emanuela/activity-recognition/images/NTCIR-Lifelog-256/u1/2015-02-23/b00000616_21i6bq_20150223_133127e.jpg'
p5408
sg4
(lp5409
(g44
g6
(g18
S'7\x86S>'
p5410
tp5411
Rp5412
tp5413
a(g56
g6
(g18
S'\xe2\xa8H>'
p5414
tp5415
Rp5416
tp5417
a(g32
g6
(g18
S'M0?>'
p5418
tp5419
Rp5420
tp5421
a(g147
g6
(g18
S'|a\x01>'
p5422
tp5423
Rp5424
tp5425
a(g127
g6
(g18
S'\xaf,\xc7='
p5426
tp5427
Rp5428
tp5429
asg73
g81
sa(dp5430
g2
S'../../../data/emanuela/activity-recognition/images/NTCIR-Lifelog-256/u1/2015-03-15/b00001141_21i6bq_20150315_184606e.jpg'
p5431
sg4
(lp5432
(g81
g6
(g18
S'26\x10?'
p5433
tp5434
Rp5435
tp5436
a(g15
g6
(g18
S'\xaf\xb57>'
p5437
tp5438
Rp5439
tp5440
a(g108
g6
(g18
S'\x12/\xdd='
p5441
tp5442
Rp5443
tp5444
a(g855
g6
(g18
S'\xfdaC='
p5445
tp5446
Rp5447
tp5448
a(g271
g6
(g18
S'8\xd8\xb9<'
p5449
tp5450
Rp5451
tp5452
asg73
g81
sa(dp5453
g2
S'../../../data/emanuela/activity-recognition/images/NTCIR-Lifelog-256/u1/2015-02-23/b00000088_21i6bq_20150223_075712e.jpg'
p5454
sg4
(lp5455
(g231
g6
(g18
S'\xd5\xf5a?'
p5456
tp5457
Rp5458
tp5459
a(g243
g6
(g18
S'\n\xb9\xa6='
p5460
tp5461
Rp5462
tp5463
a(g44
g6
(g18
S'\xe2\xad/<'
p5464
tp5465
Rp5466
tp5467
a(g855
g6
(g18
S'\xcc\xaa\x9e;'
p5468
tp5469
Rp5470
tp5471
a(g32
g6
(g18
S'\xd4kp;'
p5472
tp5473
Rp5474
tp5475
asg73
g81
sa(dp5476
g2
S'../../../data/emanuela/activity-recognition/images/NTCIR-Lifelog-256/u1/2015-02-23/b00000630_21i6bq_20150223_133952e.jpg'
p5477
sg4
(lp5478
(g56
g6
(g18
S'\x0b\xce\x96>'
p5479
tp5480
Rp5481
tp5482
a(g44
g6
(g18
S'\xc3-y>'
p5483
tp5484
Rp5485
tp5486
a(g147
g6
(g18
S'\xf9\xaeT>'
p5487
tp5488
Rp5489
tp5490
a(g127
g6
(g18
S'\xf37\x9a='
p5491
tp5492
Rp5493
tp5494
a(g32
g6
(g18
S'\xb1\x0c\x80='
p5495
tp5496
Rp5497
tp5498
asg73
g81
sa(dp5499
g2
S'../../../data/emanuela/activity-recognition/images/NTCIR-Lifelog-256/u1/2015-02-23/b00000503_21i6bq_20150223_122310e.jpg'
p5500
sg4
(lp5501
(g127
g6
(g18
S'\xb4w\x1c?'
p5502
tp5503
Rp5504
tp5505
a(g15
g6
(g18
S'\n\xca\xdd='
p5506
tp5507
Rp5508
tp5509
a(g81
g6
(g18
S'#sk='
p5510
tp5511
Rp5512
tp5513
a(g271
g6
(g18
S'\xf3\xd2R='
p5514
tp5515
Rp5516
tp5517
a(g516
g6
(g18
S'Hl:='
p5518
tp5519
Rp5520
tp5521
asg73
g81
sa(dp5522
g2
S'../../../data/emanuela/activity-recognition/images/NTCIR-Lifelog-256/u1/2015-03-11/b00000209_21i6bq_20150311_084839e.jpg'
p5523
sg4
(lp5524
(g68
g6
(g18
S'Peq?'
p5525
tp5526
Rp5527
tp5528
a(g15
g6
(g18
S']X\x17='
p5529
tp5530
Rp5531
tp5532
a(g81
g6
(g18
S'Eg=<'
p5533
tp5534
Rp5535
tp5536
a(g56
g6
(g18
S'\x18gi;'
p5537
tp5538
Rp5539
tp5540
a(g44
g6
(g18
S'\xf0f\xd1:'
p5541
tp5542
Rp5543
tp5544
asg73
g81
sa(dp5545
g2
S'../../../data/emanuela/activity-recognition/images/NTCIR-Lifelog-256/u1/2015-02-23/b00000518_21i6bq_20150223_123218e.jpg'
p5546
sg4
(lp5547
(g44
g6
(g18
S'0\x9f\x9d>'
p5548
tp5549
Rp5550
tp5551
a(g516
g6
(g18
S'"Q\x9a>'
p5552
tp5553
Rp5554
tp5555
a(g147
g6
(g18
S'3W\x17>'
p5556
tp5557
Rp5558
tp5559
a(g56
g6
(g18
S'[#7='
p5560
tp5561
Rp5562
tp5563
a(g32
g6
(g18
S'[\x04\x17='
p5564
tp5565
Rp5566
tp5567
asg73
g81
sa(dp5568
g2
S'../../../data/emanuela/activity-recognition/images/NTCIR-Lifelog-256/u1/2015-03-06/b00000841_21i6bq_20150306_140809e.jpg'
p5569
sg4
(lp5570
(g15
g6
(g18
S'l=i?'
p5571
tp5572
Rp5573
tp5574
a(g108
g6
(g18
S'f\xa7\x17='
p5575
tp5576
Rp5577
tp5578
a(g81
g6
(g18
S'\x1d\x06\x90<'
p5579
tp5580
Rp5581
tp5582
a(g271
g6
(g18
S'\x018\x86<'
p5583
tp5584
Rp5585
tp5586
a(g516
g6
(g18
S'\xe6\x8b\x01<'
p5587
tp5588
Rp5589
tp5590
asg73
g81
sa(dp5591
g2
S'../../../data/emanuela/activity-recognition/images/NTCIR-Lifelog-256/u1/2015-02-23/b00000628_21i6bq_20150223_133842e (1).jpg'
p5592
sg4
(lp5593
(g147
g6
(g18
S'\x98D\xd5>'
p5594
tp5595
Rp5596
tp5597
a(g56
g6
(g18
S'.K0>'
p5598
tp5599
Rp5600
tp5601
a(g44
g6
(g18
S'\x10\xbf\xec='
p5602
tp5603
Rp5604
tp5605
a(g32
g6
(g18
S'y\xaa\xb5='
p5606
tp5607
Rp5608
tp5609
a(g127
g6
(g18
S'\\\x84\x98='
p5610
tp5611
Rp5612
tp5613
asg73
g81
sa(dp5614
g2
S'../../../data/emanuela/activity-recognition/images/NTCIR-Lifelog-256/u1/2015-03-15/b00001142_21i6bq_20150315_184642e.jpg'
p5615
sg4
(lp5616
(g81
g6
(g18
S'\xafY8?'
p5617
tp5618
Rp5619
tp5620
a(g44
g6
(g18
S'\xf42\xd0='
p5621
tp5622
Rp5623
tp5624
a(g32
g6
(g18
S'u6i='
p5625
tp5626
Rp5627
tp5628
a(g108
g6
(g18
S'\xa9\xac\xff<'
p5629
tp5630
Rp5631
tp5632
a(g15
g6
(g18
S'\xf7:\xf5<'
p5633
tp5634
Rp5635
tp5636
asg73
g81
sa(dp5637
g2
S'../../../data/emanuela/activity-recognition/images/NTCIR-Lifelog-256/u1/2015-03-15/b00001195_21i6bq_20150315_190236e.jpg'
p5638
sg4
(lp5639
(g56
g6
(g18
S'tj\xbd>'
p5640
tp5641
Rp5642
tp5643
a(g855
g6
(g18
S'\xd0\xa7\xa0>'
p5644
tp5645
Rp5646
tp5647
a(g32
g6
(g18
S'"\x18m>'
p5648
tp5649
Rp5650
tp5651
a(g15
g6
(g18
S'\xc5n^<'
p5652
tp5653
Rp5654
tp5655
a(g44
g6
(g18
S'\x93KX<'
p5656
tp5657
Rp5658
tp5659
asg73
g81
sa(dp5660
g2
S'../../../data/emanuela/activity-recognition/images/NTCIR-Lifelog-256/u1/2015-02-23/b00000612_21i6bq_20150223_132908e.jpg'
p5661
sg4
(lp5662
(g147
g6
(g18
S'{\xbf\xc4>'
p5663
tp5664
Rp5665
tp5666
a(g56
g6
(g18
S'>\xfe~>'
p5667
tp5668
Rp5669
tp5670
a(g32
g6
(g18
S'\x1e\xb7\x1b>'
p5671
tp5672
Rp5673
tp5674
a(g127
g6
(g18
S'\xa7\x94\xa6='
p5675
tp5676
Rp5677
tp5678
a(g44
g6
(g18
S'\x03\x11\x9d='
p5679
tp5680
Rp5681
tp5682
asg73
g81
sa(dp5683
g2
S'../../../data/emanuela/activity-recognition/images/NTCIR-Lifelog-256/u1/2015-03-06/b00000847_21i6bq_20150306_141155e.jpg'
p5684
sg4
(lp5685
(g801
g6
(g18
S'E\x17\xe5>'
p5686
tp5687
Rp5688
tp5689
a(g855
g6
(g18
S'\x8a9u>'
p5690
tp5691
Rp5692
tp5693
a(g32
g6
(g18
S'}C\xae='
p5694
tp5695
Rp5696
tp5697
a(g255
g6
(g18
S'\xb3R2='
p5698
tp5699
Rp5700
tp5701
a(g44
g6
(g18
S'_}+='
p5702
tp5703
Rp5704
tp5705
asg73
g81
sa(dp5706
g2
S'../../../data/emanuela/activity-recognition/images/NTCIR-Lifelog-256/u1/2015-03-06/b00000855_21i6bq_20150306_141639e.jpg'
p5707
sg4
(lp5708
(g68
g6
(g18
S'k\x98\x11?'
p5709
tp5710
Rp5711
tp5712
a(g44
g6
(g18
S'\xf5\x99\x13>'
p5713
tp5714
Rp5715
tp5716
a(g32
g6
(g18
S'\xea\x03\x96='
p5717
tp5718
Rp5719
tp5720
a(g801
g6
(g18
S'\xfa\x90n='
p5721
tp5722
Rp5723
tp5724
a(g15
g6
(g18
S'\xd7\x97k='
p5725
tp5726
Rp5727
tp5728
asg73
g81
sa(dp5729
g2
S'../../../data/emanuela/activity-recognition/images/NTCIR-Lifelog-256/u1/2015-02-23/b00000554_21i6bq_20150223_125340e.jpg'
p5730
sg4
(lp5731
(g32
g6
(g18
S'\xdfW\xa8>'
p5732
tp5733
Rp5734
tp5735
a(g516
g6
(g18
S'\xfd\xd9\x83>'
p5736
tp5737
Rp5738
tp5739
a(g44
g6
(g18
S'\xc3_\xca='
p5740
tp5741
Rp5742
tp5743
a(g81
g6
(g18
S'\xf6g\xbe='
p5744
tp5745
Rp5746
tp5747
a(g127
g6
(g18
S'5-q='
p5748
tp5749
Rp5750
tp5751
asg73
g81
sa(dp5752
g2
S'../../../data/emanuela/activity-recognition/images/NTCIR-Lifelog-256/u1/2015-02-23/b00000491_21i6bq_20150223_121601e.jpg'
p5753
sg4
(lp5754
(g81
g6
(g18
S'\x91\xf7\xbf>'
p5755
tp5756
Rp5757
tp5758
a(g32
g6
(g18
S'V\xff\x8f>'
p5759
tp5760
Rp5761
tp5762
a(g147
g6
(g18
S'=C\xc8='
p5763
tp5764
Rp5765
tp5766
a(g44
g6
(g18
S'\x07\xf3\x96='
p5767
tp5768
Rp5769
tp5770
a(g15
g6
(g18
S'O\xf8g='
p5771
tp5772
Rp5773
tp5774
asg73
g81
sa(dp5775
g2
S'../../../data/emanuela/activity-recognition/images/NTCIR-Lifelog-256/u1/2015-03-06/b00000840_21i6bq_20150306_140727e.jpg'
p5776
sg4
(lp5777
(g44
g6
(g18
S'\n\x9b\x98>'
p5778
tp5779
Rp5780
tp5781
a(g15
g6
(g18
S'x\xb1j>'
p5782
tp5783
Rp5784
tp5785
a(g68
g6
(g18
S'\xc4UY>'
p5786
tp5787
Rp5788
tp5789
a(g32
g6
(g18
S'J\xcd\x80='
p5790
tp5791
Rp5792
tp5793
a(g81
g6
(g18
S'\xd3pM='
p5794
tp5795
Rp5796
tp5797
asg73
g81
sa(dp5798
g2
S'../../../data/emanuela/activity-recognition/images/NTCIR-Lifelog-256/u1/2015-02-23/b00000631_21i6bq_20150223_134031e.jpg'
p5799
sg4
(lp5800
(g44
g6
(g18
S'\x9c\xf6\x94>'
p5801
tp5802
Rp5803
tp5804
a(g147
g6
(g18
S'\x8e\x0ev>'
p5805
tp5806
Rp5807
tp5808
a(g56
g6
(g18
S'\xf7\x16\x17>'
p5809
tp5810
Rp5811
tp5812
a(g32
g6
(g18
S'%(\xda='
p5813
tp5814
Rp5815
tp5816
a(g81
g6
(g18
S'\x80\x17B='
p5817
tp5818
Rp5819
tp5820
asg73
g81
sa(dp5821
g2
S'../../../data/emanuela/activity-recognition/images/NTCIR-Lifelog-256/u1/2015-03-11/b00000205_21i6bq_20150311_084609e.jpg'
p5822
sg4
(lp5823
(g81
g6
(g18
S'tRX?'
p5824
tp5825
Rp5826
tp5827
a(g15
g6
(g18
S'F\xb8\x08>'
p5828
tp5829
Rp5830
tp5831
a(g32
g6
(g18
S'XT:<'
p5832
tp5833
Rp5834
tp5835
a(g44
g6
(g18
S'\xed\x07\xab;'
p5836
tp5837
Rp5838
tp5839
a(g271
g6
(g18
S'q\xd6s:'
p5840
tp5841
Rp5842
tp5843
asg73
g81
sa(dp5844
g2
S'../../../data/emanuela/activity-recognition/images/NTCIR-Lifelog-256/u1/2015-02-23/b00000638_21i6bq_20150223_134431e.jpg'
p5845
sg4
(lp5846
(g32
g6
(g18
S'\x16\xd6\xdc>'
p5847
tp5848
Rp5849
tp5850
a(g81
g6
(g18
S'+\x8c\xb7>'
p5851
tp5852
Rp5853
tp5854
a(g44
g6
(g18
S'6\xb2\x8e='
p5855
tp5856
Rp5857
tp5858
a(g147
g6
(g18
S'\xa7\x1a\x00='
p5859
tp5860
Rp5861
tp5862
a(g127
g6
(g18
S'\xc3\x8f\xda<'
p5863
tp5864
Rp5865
tp5866
asg73
g81
sa(dp5867
g2
S'../../../data/emanuela/activity-recognition/images/NTCIR-Lifelog-256/u1/2015-02-23/b00000581_21i6bq_20150223_131010e.jpg'
p5868
sg4
(lp5869
(g147
g6
(g18
S'\xf9U\xac>'
p5870
tp5871
Rp5872
tp5873
a(g44
g6
(g18
S'\xde0 >'
p5874
tp5875
Rp5876
tp5877
a(g127
g6
(g18
S']\xa1\r>'
p5878
tp5879
Rp5880
tp5881
a(g81
g6
(g18
S'T\xb2\x03>'
p5882
tp5883
Rp5884
tp5885
a(g32
g6
(g18
S'\xd1\x07\x87='
p5886
tp5887
Rp5888
tp5889
asg73
g81
sa(dp5890
g2
S'../../../data/emanuela/activity-recognition/images/NTCIR-Lifelog-256/u1/2015-03-11/b00000660_21i6bq_20150311_133932e.jpg'
p5891
sg4
(lp5892
(g44
g6
(g18
S'\xa3\xf1\xfd>'
p5893
tp5894
Rp5895
tp5896
a(g127
g6
(g18
S'\xe1\xb4J>'
p5897
tp5898
Rp5899
tp5900
a(g68
g6
(g18
S'\x8b\xe0\xf7='
p5901
tp5902
Rp5903
tp5904
a(g147
g6
(g18
S')\x99;='
p5905
tp5906
Rp5907
tp5908
a(g15
g6
(g18
S'\xdb)\xc4<'
p5909
tp5910
Rp5911
tp5912
asg73
g81
sa(dp5913
g2
S'../../../data/emanuela/activity-recognition/images/NTCIR-Lifelog-256/u1/2015-03-06/b00000850_21i6bq_20150306_141334e.jpg'
p5914
sg4
(lp5915
(g44
g6
(g18
S'(\xf9\x90>'
p5916
tp5917
Rp5918
tp5919
a(g32
g6
(g18
S'$a*>'
p5920
tp5921
Rp5922
tp5923
a(g81
g6
(g18
S'\x89<\xe9='
p5924
tp5925
Rp5926
tp5927
a(g15
g6
(g18
S'+(\xe9='
p5928
tp5929
Rp5930
tp5931
a(g801
g6
(g18
S'\xf0\x94\xd8='
p5932
tp5933
Rp5934
tp5935
asg73
g81
sa(dp5936
g2
S'../../../data/emanuela/activity-recognition/images/NTCIR-Lifelog-256/u1/2015-03-17/b00000843_21i6bq_20150317_163102e.jpg'
p5937
sg4
(lp5938
(g15
g6
(g18
S'|\x9c??'
p5939
tp5940
Rp5941
tp5942
a(g81
g6
(g18
S'\xf7\x8e->'
p5943
tp5944
Rp5945
tp5946
a(g127
g6
(g18
S'\xefQ\xdc<'
p5947
tp5948
Rp5949
tp5950
a(g68
g6
(g18
S'\x18\xed|<'
p5951
tp5952
Rp5953
tp5954
a(g44
g6
(g18
S'z\x11S<'
p5955
tp5956
Rp5957
tp5958
asg73
g81
sa(dp5959
g2
S'../../../data/emanuela/activity-recognition/images/NTCIR-Lifelog-256/u1/2015-02-23/b00000486_21i6bq_20150223_121310e.jpg'
p5960
sg4
(lp5961
(g81
g6
(g18
S'n\xfe\xc3>'
p5962
tp5963
Rp5964
tp5965
a(g32
g6
(g18
S'\xc8\xa7\x8c>'
p5966
tp5967
Rp5968
tp5969
a(g44
g6
(g18
S'\x93\xdc\xe2='
p5970
tp5971
Rp5972
tp5973
a(g127
g6
(g18
S'\xa6\x8cH='
p5974
tp5975
Rp5976
tp5977
a(g147
g6
(g18
S'\xc1S-='
p5978
tp5979
Rp5980
tp5981
asg73
g81
sa(dp5982
g2
S'../../../data/emanuela/activity-recognition/images/NTCIR-Lifelog-256/u1/2015-02-23/b00000558_21i6bq_20150223_125558e.jpg'
p5983
sg4
(lp5984
(g32
g6
(g18
S'\xac\xaf\xa9>'
p5985
tp5986
Rp5987
tp5988
a(g108
g6
(g18
S'W\xfe&>'
p5989
tp5990
Rp5991
tp5992
a(g44
g6
(g18
S'\xd0\x03\t>'
p5993
tp5994
Rp5995
tp5996
a(g516
g6
(g18
S';O\xb0='
p5997
tp5998
Rp5999
tp6000
a(g15
g6
(g18
S'\xcb6\xae='
p6001
tp6002
Rp6003
tp6004
asg73
g81
sa(dp6005
g2
S'../../../data/emanuela/activity-recognition/images/NTCIR-Lifelog-256/u1/2015-02-23/b00000607_21i6bq_20150223_132615e.jpg'
p6006
sg4
(lp6007
(g127
g6
(g18
S'Vi\xee>'
p6008
tp6009
Rp6010
tp6011
a(g56
g6
(g18
S'z\xe77>'
p6012
tp6013
Rp6014
tp6015
a(g147
g6
(g18
S'\x97\x86\x0b>'
p6016
tp6017
Rp6018
tp6019
a(g243
g6
(g18
S'\x14"u='
p6020
tp6021
Rp6022
tp6023
a(g44
g6
(g18
S'\x92J\x10='
p6024
tp6025
Rp6026
tp6027
asg73
g81
sa(dp6028
g2
S'../../../data/emanuela/activity-recognition/images/NTCIR-Lifelog-256/u1/2015-02-23/b00000618_21i6bq_20150223_133246e.jpg'
p6029
sg4
(lp6030
(g56
g6
(g18
S'\xe4\x0b9?'
p6031
tp6032
Rp6033
tp6034
a(g32
g6
(g18
S'\xcfM*>'
p6035
tp6036
Rp6037
tp6038
a(g147
g6
(g18
S'w\x9a/='
p6039
tp6040
Rp6041
tp6042
a(g127
g6
(g18
S'\xcb\x80"='
p6043
tp6044
Rp6045
tp6046
a(g44
g6
(g18
S' k\x1d<'
p6047
tp6048
Rp6049
tp6050
asg73
g81
sa(dp6051
g2
S'../../../data/emanuela/activity-recognition/images/NTCIR-Lifelog-256/u1/2015-02-23/b00000484_21i6bq_20150223_121157e.jpg'
p6052
sg4
(lp6053
(g32
g6
(g18
S'\x15\x86\xae>'
p6054
tp6055
Rp6056
tp6057
a(g15
g6
(g18
S'G\x9c\x17>'
p6058
tp6059
Rp6060
tp6061
a(g81
g6
(g18
S')\x7f\xf5='
p6062
tp6063
Rp6064
tp6065
a(g651
g6
(g18
S'\x86\xbd~='
p6066
tp6067
Rp6068
tp6069
a(g127
g6
(g18
S'\x98x;='
p6070
tp6071
Rp6072
tp6073
asg73
g81
sa(dp6074
g2
S'../../../data/emanuela/activity-recognition/images/NTCIR-Lifelog-256/u1/2015-02-23/b00000488_21i6bq_20150223_121421e.jpg'
p6075
sg4
(lp6076
(g81
g6
(g18
S'uS\xe1>'
p6077
tp6078
Rp6079
tp6080
a(g32
g6
(g18
S'\xb2\x8dv>'
p6081
tp6082
Rp6083
tp6084
a(g44
g6
(g18
S'B\xc3\xde='
p6085
tp6086
Rp6087
tp6088
a(g147
g6
(g18
S'7\x82c='
p6089
tp6090
Rp6091
tp6092
a(g127
g6
(g18
S'X\xa6X='
p6093
tp6094
Rp6095
tp6096
asg73
g81
sa(dp6097
g2
S'../../../data/emanuela/activity-recognition/images/NTCIR-Lifelog-256/u1/2015-03-11/b00000206_21i6bq_20150311_084646e.jpg'
p6098
sg4
(lp6099
(g81
g6
(g18
S'Y9-?'
p6100
tp6101
Rp6102
tp6103
a(g32
g6
(g18
S'\x06\xe7c>'
p6104
tp6105
Rp6106
tp6107
a(g44
g6
(g18
S'\x95C\x86='
p6108
tp6109
Rp6110
tp6111
a(g15
g6
(g18
S'\x0cK\r<'
p6112
tp6113
Rp6114
tp6115
a(g516
g6
(g18
S'#\xcb\x02<'
p6116
tp6117
Rp6118
tp6119
asg73
g81
sa(dp6120
g2
S'../../../data/emanuela/activity-recognition/images/NTCIR-Lifelog-256/u1/2015-02-23/b00000561_21i6bq_20150223_125747e.jpg'
p6121
sg4
(lp6122
(g32
g6
(g18
S'\x95\x90\xf4>'
p6123
tp6124
Rp6125
tp6126
a(g44
g6
(g18
S'\xde\xdf+>'
p6127
tp6128
Rp6129
tp6130
a(g147
g6
(g18
S'\xe4)\xdb='
p6131
tp6132
Rp6133
tp6134
a(g108
g6
(g18
S')\xebI='
p6135
tp6136
Rp6137
tp6138
a(g127
g6
(g18
S'\xdel)='
p6139
tp6140
Rp6141
tp6142
asg73
g81
sa(dp6143
g2
S'../../../data/emanuela/activity-recognition/images/NTCIR-Lifelog-256/u1/2015-03-11/b00000210_21i6bq_20150311_084917e.jpg'
p6144
sg4
(lp6145
(g81
g6
(g18
S'\xa1[M?'
p6146
tp6147
Rp6148
tp6149
a(g15
g6
(g18
S"\x9cS'>"
p6150
tp6151
Rp6152
tp6153
a(g32
g6
(g18
S'Ez\xab<'
p6154
tp6155
Rp6156
tp6157
a(g44
g6
(g18
S'\xa8e\xe5;'
p6158
tp6159
Rp6160
tp6161
a(g108
g6
(g18
S'\x1b\xb9;;'
p6162
tp6163
Rp6164
tp6165
asg73
g81
sa(dp6166
g2
S'../../../data/emanuela/activity-recognition/images/NTCIR-Lifelog-256/u1/2015-03-17/b00000847_21i6bq_20150317_163321e.jpg'
p6167
sg4
(lp6168
(g15
g6
(g18
S'?Y\x11?'
p6169
tp6170
Rp6171
tp6172
a(g44
g6
(g18
S'c)|>'
p6173
tp6174
Rp6175
tp6176
a(g81
g6
(g18
S'\xc0\xf2\xfd='
p6177
tp6178
Rp6179
tp6180
a(g68
g6
(g18
S'\xc6O\xff<'
p6181
tp6182
Rp6183
tp6184
a(g127
g6
(g18
S'\xf20@<'
p6185
tp6186
Rp6187
tp6188
asg73
g81
sa(dp6189
g2
S'../../../data/emanuela/activity-recognition/images/NTCIR-Lifelog-256/u1/2015-03-17/b00000852_21i6bq_20150317_163633e.jpg'
p6190
sg4
(lp6191
(g15
g6
(g18
S'\x8a\xaa\x17?'
p6192
tp6193
Rp6194
tp6195
a(g81
g6
(g18
S'\x85\xfc\xd8='
p6196
tp6197
Rp6198
tp6199
a(g68
g6
(g18
S';\x84\xb5='
p6200
tp6201
Rp6202
tp6203
a(g44
g6
(g18
S'\xe4!\x95='
p6204
tp6205
Rp6206
tp6207
a(g1461
g6
(g18
S'I-\x90='
p6208
tp6209
Rp6210
tp6211
asg73
g81
sa(dp6212
g2
S'../../../data/emanuela/activity-recognition/images/NTCIR-Lifelog-256/u1/2015-02-23/b00000090_21i6bq_20150223_075832e.jpg'
p6213
sg4
(lp6214
(g243
g6
(g18
S'o\x03\xbe>'
p6215
tp6216
Rp6217
tp6218
a(g231
g6
(g18
S'\xf8\xa74>'
p6219
tp6220
Rp6221
tp6222
a(g44
g6
(g18
S'\x88`\t>'
p6223
tp6224
Rp6225
tp6226
a(g32
g6
(g18
S'\xb3b\x8a='
p6227
tp6228
Rp6229
tp6230
a(g801
g6
(g18
S'\xa4\x1cw='
p6231
tp6232
Rp6233
tp6234
asg73
g81
sa(dp6235
g2
S'../../../data/emanuela/activity-recognition/images/NTCIR-Lifelog-256/u1/2015-03-17/b00000853_21i6bq_20150317_163706e.jpg'
p6236
sg4
(lp6237
(g15
g6
(g18
S'\xce\xb2\x9b>'
p6238
tp6239
Rp6240
tp6241
a(g81
g6
(g18
S'D`o>'
p6242
tp6243
Rp6244
tp6245
a(g44
g6
(g18
S'\xa1\x86C>'
p6246
tp6247
Rp6248
tp6249
a(g32
g6
(g18
S'\xf3\x9e\xf3='
p6250
tp6251
Rp6252
tp6253
a(g127
g6
(g18
S'\xc7\xa8.='
p6254
tp6255
Rp6256
tp6257
asg73
g81
sa(dp6258
g2
S'../../../data/emanuela/activity-recognition/images/NTCIR-Lifelog-256/u1/2015-02-23/b00000502_21i6bq_20150223_122234e.jpg'
p6259
sg4
(lp6260
(g127
g6
(g18
S'\xcaC\x96>'
p6261
tp6262
Rp6263
tp6264
a(g32
g6
(g18
S'\xa2\xccm>'
p6265
tp6266
Rp6267
tp6268
a(g56
g6
(g18
S'\x98\x91\x16>'
p6269
tp6270
Rp6271
tp6272
a(g147
g6
(g18
S'\xe6@\xd8='
p6273
tp6274
Rp6275
tp6276
a(g81
g6
(g18
S'gX\xa1='
p6277
tp6278
Rp6279
tp6280
asg73
g81
sa(dp6281
g2
S'../../../data/emanuela/activity-recognition/images/NTCIR-Lifelog-256/u1/2015-02-23/b00000632_21i6bq_20150223_134102e.jpg'
p6282
sg4
(lp6283
(g147
g6
(g18
S'\xf9p\xc7>'
p6284
tp6285
Rp6286
tp6287
a(g56
g6
(g18
S'y\x88\\>'
p6288
tp6289
Rp6290
tp6291
a(g127
g6
(g18
S'\xa1\xc5\xde='
p6292
tp6293
Rp6294
tp6295
a(g44
g6
(g18
S'\x8f\x96\xc6='
p6296
tp6297
Rp6298
tp6299
a(g32
g6
(g18
S'67\x93='
p6300
tp6301
Rp6302
tp6303
asg73
g81
sa(dp6304
g2
S'../../../data/emanuela/activity-recognition/images/NTCIR-Lifelog-256/u1/2015-02-23/b00000528_21i6bq_20150223_123810e.jpg'
p6305
sg4
(lp6306
(g44
g6
(g18
S'\xc0\x1e\x97>'
p6307
tp6308
Rp6309
tp6310
a(g147
g6
(g18
S'\xff\x8dl>'
p6311
tp6312
Rp6313
tp6314
a(g32
g6
(g18
S'c\xb7">'
p6315
tp6316
Rp6317
tp6318
a(g56
g6
(g18
S'm\x02\x01>'
p6319
tp6320
Rp6321
tp6322
a(g651
g6
(g18
S'\x1d\x01c='
p6323
tp6324
Rp6325
tp6326
asg73
g81
sa(dp6327
g2
S'../../../data/emanuela/activity-recognition/images/NTCIR-Lifelog-256/u1/2015-02-23/b00000553_21i6bq_20150223_125307e.jpg'
p6328
sg4
(lp6329
(g108
g6
(g18
S'\xa9\x89\x92>'
p6330
tp6331
Rp6332
tp6333
a(g32
g6
(g18
S'\x19\x03\x07>'
p6334
tp6335
Rp6336
tp6337
a(g15
g6
(g18
S'\x82\x82\xfc='
p6338
tp6339
Rp6340
tp6341
a(g516
g6
(g18
S'\xf2?\xd7='
p6342
tp6343
Rp6344
tp6345
a(g81
g6
(g18
S'\x88\xcc\x94='
p6346
tp6347
Rp6348
tp6349
asg73
g81
sa(dp6350
g2
S'../../../data/emanuela/activity-recognition/images/NTCIR-Lifelog-256/u1/2015-03-17/b00000844_21i6bq_20150317_163136e.jpg'
p6351
sg4
(lp6352
(g15
g6
(g18
S'\xf7kd?'
p6353
tp6354
Rp6355
tp6356
a(g81
g6
(g18
S'd\x88\x90='
p6357
tp6358
Rp6359
tp6360
a(g68
g6
(g18
S'\x19\xe7\x90<'
p6361
tp6362
Rp6363
tp6364
a(g44
g6
(g18
S'\xe8\xa1@<'
p6365
tp6366
Rp6367
tp6368
a(g127
g6
(g18
S')o#;'
p6369
tp6370
Rp6371
tp6372
asg73
g81
sa(dp6373
g2
S'../../../data/emanuela/activity-recognition/images/NTCIR-Lifelog-256/u1/2015-03-11/b00000215_21i6bq_20150311_085225e.jpg'
p6374
sg4
(lp6375
(g81
g6
(g18
S'7\xeeG?'
p6376
tp6377
Rp6378
tp6379
a(g15
g6
(g18
S'm\x8e\xcb='
p6380
tp6381
Rp6382
tp6383
a(g44
g6
(g18
S'\xe9\xa0F='
p6384
tp6385
Rp6386
tp6387
a(g108
g6
(g18
S'|r\xa0<'
p6388
tp6389
Rp6390
tp6391
a(g32
g6
(g18
S's\xe2\x8d<'
p6392
tp6393
Rp6394
tp6395
asg73
g81
sa(dp6396
g2
S'../../../data/emanuela/activity-recognition/images/NTCIR-Lifelog-256/u1/2015-02-23/b00000489_21i6bq_20150223_121455e.jpg'
p6397
sg4
(lp6398
(g32
g6
(g18
S'\x19l\x90>'
p6399
tp6400
Rp6401
tp6402
a(g81
g6
(g18
S' \xcbP>'
p6403
tp6404
Rp6405
tp6406
a(g147
g6
(g18
S'[\x015>'
p6407
tp6408
Rp6409
tp6410
a(g44
g6
(g18
S'\x86\x9b\x07>'
p6411
tp6412
Rp6413
tp6414
a(g127
g6
(g18
S'nD\xb3='
p6415
tp6416
Rp6417
tp6418
asg73
g81
sa(dp6419
g2
S'../../../data/emanuela/activity-recognition/images/NTCIR-Lifelog-256/u1/2015-02-24/b00000456_21i6bq_20150224_111910e.jpg'
p6420
sg4
(lp6421
(g15
g6
(g18
S'\x19@\xb6>'
p6422
tp6423
Rp6424
tp6425
a(g81
g6
(g18
S'\xdfE#>'
p6426
tp6427
Rp6428
tp6429
a(g68
g6
(g18
S'\x1e\xb6\x13>'
p6430
tp6431
Rp6432
tp6433
a(g56
g6
(g18
S'\nK\xf5='
p6434
tp6435
Rp6436
tp6437
a(g271
g6
(g18
S'4\xabT='
p6438
tp6439
Rp6440
tp6441
asg73
g81
sa.