(lp0
(dp1
S'image'
p2
S'../../../data/emanuela/activity-recognition/images/NTCIR-Lifelog-256/u2/2015-06-20/b00004241_21i7lf_20150620_092308e.jpg'
p3
sS'result'
p4
(lp5
(cnumpy.core.multiarray
scalar
p6
(cnumpy
dtype
p7
(S'S27'
p8
I0
I1
tp9
Rp10
(I3
S'|'
p11
NNNI27
I1
I0
tp12
bS'having drinks with somebody'
p13
tp14
Rp15
g6
(g7
(S'f4'
p16
I0
I1
tp17
Rp18
(I3
S'<'
p19
NNNI-1
I-1
I0
tp20
bS'G\xd9\xcb>'
p21
tp22
Rp23
tp24
a(g6
(g7
(S'S11'
p25
I0
I1
tp26
Rp27
(I3
S'|'
p28
NNNI11
I1
I0
tp29
bS'socializing'
p30
tp31
Rp32
g6
(g18
S'\xd9\xfc\x1c>'
p33
tp34
Rp35
tp36
a(g6
(g7
(S'S16'
p37
I0
I1
tp38
Rp39
(I3
S'|'
p40
NNNI16
I1
I0
tp41
bS'public transport'
p42
tp43
Rp44
g6
(g18
S'7\xcb\xc9='
p45
tp46
Rp47
tp48
a(g6
(g7
(S'S7'
p49
I0
I1
tp50
Rp51
(I3
S'|'
p52
NNNI7
I1
I0
tp53
bS'talking'
p54
tp55
Rp56
g6
(g18
S'\xbbB\xbf='
p57
tp58
Rp59
tp60
a(g6
(g7
(S'S14'
p61
I0
I1
tp62
Rp63
(I3
S'|'
p64
NNNI14
I1
I0
tp65
bS'walking indoor'
p66
tp67
Rp68
g6
(g18
S'B\x90\xbc='
p69
tp70
Rp71
tp72
asS'label'
p73
g44
sa(dp74
g2
S'../../../data/emanuela/activity-recognition/images/NTCIR-Lifelog-256/u2/2015-05-03/b00003794_21i7lf_20150503_145136e.jpg'
p75
sg4
(lp76
(g68
g6
(g18
S'\xf2y9?'
p77
tp78
Rp79
tp80
a(g6
(g7
(S'S24'
p81
I0
I1
tp82
Rp83
(I3
S'|'
p84
NNNI24
I1
I0
tp85
bS'having drinks/meal alone'
p86
tp87
Rp88
g6
(g18
S'}\xb7\xd7='
p89
tp90
Rp91
tp92
a(g6
(g7
(S'S15'
p93
I0
I1
tp94
Rp95
(I3
S'|'
p96
NNNI15
I1
I0
tp97
bS'walking outdoor'
p98
tp99
Rp100
g6
(g18
S'\x83ou='
p101
tp102
Rp103
tp104
a(g6
(g7
(S'S6'
p105
I0
I1
tp106
Rp107
(I3
S'|'
p108
NNNI6
I1
I0
tp109
bS'mobile'
p110
tp111
Rp112
g6
(g18
S'&DD='
p113
tp114
Rp115
tp116
a(g44
g6
(g18
S'Ot\x15='
p117
tp118
Rp119
tp120
asg73
g44
sa(dp121
g2
S'../../../data/emanuela/activity-recognition/images/NTCIR-Lifelog-256/u2/2015-06-20/b00004627_21i7lf_20150620_125645e.jpg'
p122
sg4
(lp123
(g68
g6
(g18
S'\xe1`:?'
p124
tp125
Rp126
tp127
a(g100
g6
(g18
S'~\xc9=>'
p128
tp129
Rp130
tp131
a(g44
g6
(g18
S'8YU='
p132
tp133
Rp134
tp135
a(g6
(g7
(S'S8'
p136
I0
I1
tp137
Rp138
(I3
S'|'
p139
NNNI8
I1
I0
tp140
bS'shopping'
p141
tp142
Rp143
g6
(g18
S'a8=<'
p144
tp145
Rp146
tp147
a(g88
g6
(g18
S'(y\xc4;'
p148
tp149
Rp150
tp151
asg73
g44
sa(dp152
g2
S'../../../data/emanuela/activity-recognition/images/NTCIR-Lifelog-256/u2/2015-04-21/b00000848_21i7lf_20150421_183335e.jpg'
p153
sg4
(lp154
(g32
g6
(g18
S'\xd4\x11\x9a>'
p155
tp156
Rp157
tp158
a(g15
g6
(g18
S'F\x93\x80>'
p159
tp160
Rp161
tp162
a(g44
g6
(g18
S'|\xe0L>'
p163
tp164
Rp165
tp166
a(g68
g6
(g18
S'l\x16\x03>'
p167
tp168
Rp169
tp170
a(g56
g6
(g18
S'\xe9-<='
p171
tp172
Rp173
tp174
asg73
g44
sa(dp175
g2
S'../../../data/emanuela/activity-recognition/images/NTCIR-Lifelog-256/u2/2015-06-18/b00002833_21i7lf_20150618_122813e.jpg'
p176
sg4
(lp177
(g15
g6
(g18
S'V\xf3\xdb>'
p178
tp179
Rp180
tp181
a(g32
g6
(g18
S'9\xech>'
p182
tp183
Rp184
tp185
a(g143
g6
(g18
S'\xfd[\xb5='
p186
tp187
Rp188
tp189
a(g68
g6
(g18
S'\xfeAg='
p190
tp191
Rp192
tp193
a(g6
(g7
(S'S25'
p194
I0
I1
tp195
Rp196
(I3
S'|'
p197
NNNI25
I1
I0
tp198
bS'having meal with somebody'
p199
tp200
Rp201
g6
(g18
S'y\xc0B='
p202
tp203
Rp204
tp205
asg73
g44
sa(dp206
g2
S'../../../data/emanuela/activity-recognition/images/NTCIR-Lifelog-256/u2/2015-06-20/b00004637_21i7lf_20150620_130814e.jpg'
p207
sg4
(lp208
(g44
g6
(g18
S'\xc2\xe6\xfb>'
p209
tp210
Rp211
tp212
a(g68
g6
(g18
S'\x13iI>'
p213
tp214
Rp215
tp216
a(g15
g6
(g18
S'\x189;>'
p217
tp218
Rp219
tp220
a(g32
g6
(g18
S'!\x8el='
p221
tp222
Rp223
tp224
a(g6
(g7
(S'S7'
p225
I0
I1
tp226
Rp227
(I3
S'|'
p228
NNNI7
I1
I0
tp229
bS'meeting'
p230
tp231
Rp232
g6
(g18
S'\x88(\xc7<'
p233
tp234
Rp235
tp236
asg73
g44
sa(dp237
g2
S'../../../data/emanuela/activity-recognition/images/NTCIR-Lifelog-256/u2/2015-05-03/b00004041_21i7lf_20150503_172619e.jpg'
p238
sg4
(lp239
(g44
g6
(g18
S'\x04m\xf0>'
p240
tp241
Rp242
tp243
a(g6
(g7
(S'S7'
p244
I0
I1
tp245
Rp246
(I3
S'|'
p247
NNNI7
I1
I0
tp248
bS'driving'
p249
tp250
Rp251
g6
(g18
S'\x12\x81N>'
p252
tp253
Rp254
tp255
a(g112
g6
(g18
S'\xdf/\xaf='
p256
tp257
Rp258
tp259
a(g6
(g7
(S'S5'
p260
I0
I1
tp261
Rp262
(I3
S'|'
p263
NNNI5
I1
I0
tp264
bS'plane'
p265
tp266
Rp267
g6
(g18
S'O\x8at='
p268
tp269
Rp270
tp271
a(g100
g6
(g18
S"\xcd\xd0'="
p272
tp273
Rp274
tp275
asg73
g44
sa(dp276
g2
S'../../../data/emanuela/activity-recognition/images/NTCIR-Lifelog-256/u2/2015-06-19/b00002952_21i7lf_20150619_064256e.jpg'
p277
sg4
(lp278
(g44
g6
(g18
S'\xdb\x94A?'
p279
tp280
Rp281
tp282
a(g68
g6
(g18
S'\xc7UC>'
p283
tp284
Rp285
tp286
a(g15
g6
(g18
S'\x0e \x85<'
p287
tp288
Rp289
tp290
a(g143
g6
(g18
S"'\xaa\x80<"
p291
tp292
Rp293
tp294
a(g100
g6
(g18
S'\x86\xa5\t<'
p295
tp296
Rp297
tp298
asg73
g44
sa(dp299
g2
S'../../../data/emanuela/activity-recognition/images/NTCIR-Lifelog-256/u2/2015-06-20/b00004231_21i7lf_20150620_090940e.jpg'
p300
sg4
(lp301
(g68
g6
(g18
S'\x8c\x8fe?'
p302
tp303
Rp304
tp305
a(g44
g6
(g18
S'*\x0b\r='
p306
tp307
Rp308
tp309
a(g56
g6
(g18
S'p\x83\x05='
p310
tp311
Rp312
tp313
a(g267
g6
(g18
S'\xba\xcd\x88<'
p314
tp315
Rp316
tp317
a(g232
g6
(g18
S't\xb0\xb2;'
p318
tp319
Rp320
tp321
asg73
g44
sa(dp322
g2
S'../../../data/emanuela/activity-recognition/images/NTCIR-Lifelog-256/u2/2015-06-17/b00002170_21i7lf_20150617_104953e.jpg'
p323
sg4
(lp324
(g44
g6
(g18
S'\xc5\xa9\x12?'
p325
tp326
Rp327
tp328
a(g15
g6
(g18
S'e\xde\xa2>'
p329
tp330
Rp331
tp332
a(g68
g6
(g18
S'\xb7\x80"='
p333
tp334
Rp335
tp336
a(g112
g6
(g18
S'\xfe\x17\xac<'
p337
tp338
Rp339
tp340
a(g32
g6
(g18
S'\x97\xd0\x16<'
p341
tp342
Rp343
tp344
asg73
g44
sa(dp345
g2
S'../../../data/emanuela/activity-recognition/images/NTCIR-Lifelog-256/u2/2015-05-03/b00004035_21i7lf_20150503_172227e.jpg'
p346
sg4
(lp347
(g112
g6
(g18
S'\xb3\x0e\xc2>'
p348
tp349
Rp350
tp351
a(g44
g6
(g18
S'[\\\xa3>'
p352
tp353
Rp354
tp355
a(g251
g6
(g18
S'~\x9a\x04>'
p356
tp357
Rp358
tp359
a(g32
g6
(g18
S'\xe9\x0b\xec<'
p360
tp361
Rp362
tp363
a(g267
g6
(g18
S'\xd3\x83\xe7<'
p364
tp365
Rp366
tp367
asg73
g44
sa(dp368
g2
S'../../../data/emanuela/activity-recognition/images/NTCIR-Lifelog-256/u2/2015-06-20/b00004639_21i7lf_20150620_131104e.jpg'
p369
sg4
(lp370
(g56
g6
(g18
S'\xd0v\x12?'
p371
tp372
Rp373
tp374
a(g68
g6
(g18
S'q\xa2v>'
p375
tp376
Rp377
tp378
a(g232
g6
(g18
S'\xa3\x12\x16>'
p379
tp380
Rp381
tp382
a(g100
g6
(g18
S'd\xaa\x9e<'
p383
tp384
Rp385
tp386
a(g6
(g7
(S'S7'
p387
I0
I1
tp388
Rp389
(I3
S'|'
p390
NNNI7
I1
I0
tp391
bS'reading'
p392
tp393
Rp394
g6
(g18
S'\x93\xfb\xab;'
p395
tp396
Rp397
tp398
asg73
g44
sa(dp399
g2
S'../../../data/emanuela/activity-recognition/images/NTCIR-Lifelog-256/u2/2015-05-03/b00003790_21i7lf_20150503_144913e.jpg'
p400
sg4
(lp401
(g44
g6
(g18
S'=\xffu?'
p402
tp403
Rp404
tp405
a(g88
g6
(g18
S'\xdb\x92O<'
p406
tp407
Rp408
tp409
a(g68
g6
(g18
S'\xaeb?<'
p410
tp411
Rp412
tp413
a(g100
g6
(g18
S'\x9a\xc6\x85;'
p414
tp415
Rp416
tp417
a(g6
(g7
(S'S7'
p418
I0
I1
tp419
Rp420
(I3
S'|'
p421
NNNI7
I1
I0
tp422
bS'cooking'
p423
tp424
Rp425
g6
(g18
S'5\xed%;'
p426
tp427
Rp428
tp429
asg73
g44
sa(dp430
g2
S'../../../data/emanuela/activity-recognition/images/NTCIR-Lifelog-256/u2/2015-06-16/b00001338_21i7lf_20150616_071331e.jpg'
p431
sg4
(lp432
(g112
g6
(g18
S'kS-?'
p433
tp434
Rp435
tp436
a(g44
g6
(g18
S'\xeaG\x97>'
p437
tp438
Rp439
tp440
a(g267
g6
(g18
S'\xd2\x08^<'
p441
tp442
Rp443
tp444
a(g68
g6
(g18
S'\xf6j\x82;'
p445
tp446
Rp447
tp448
a(g88
g6
(g18
S'!\x14\x11;'
p449
tp450
Rp451
tp452
asg73
g44
sa(dp453
g2
S'../../../data/emanuela/activity-recognition/images/NTCIR-Lifelog-256/u2/2015-06-16/b00001317_21i7lf_20150616_070132e.jpg'
p454
sg4
(lp455
(g44
g6
(g18
S'\x12\x83Q?'
p456
tp457
Rp458
tp459
a(g112
g6
(g18
S'\xb6\xa0\x8d='
p460
tp461
Rp462
tp463
a(g394
g6
(g18
S'\x0e\xf7~='
p464
tp465
Rp466
tp467
a(g68
g6
(g18
S'BA\x9c<'
p468
tp469
Rp470
tp471
a(g6
(g7
(S'S19'
p472
I0
I1
tp473
Rp474
(I3
S'|'
p475
NNNI19
I1
I0
tp476
bS'cleaning and chores'
p477
tp478
Rp479
g6
(g18
S'\x01\xd6\xc4;'
p480
tp481
Rp482
tp483
asg73
g44
sa(dp484
g2
S'../../../data/emanuela/activity-recognition/images/NTCIR-Lifelog-256/u2/2015-06-18/b00002606_21i7lf_20150618_095939e.jpg'
p485
sg4
(lp486
(g68
g6
(g18
S'y\xc44?'
p487
tp488
Rp489
tp490
a(g15
g6
(g18
S'\xe8F\xef='
p491
tp492
Rp493
tp494
a(g44
g6
(g18
S'\xbdu\xaa='
p495
tp496
Rp497
tp498
a(g232
g6
(g18
S'\xf5\xce\xe0<'
p499
tp500
Rp501
tp502
a(g56
g6
(g18
S'V\x9d\xbc<'
p503
tp504
Rp505
tp506
asg73
g44
sa(dp507
g2
S'../../../data/emanuela/activity-recognition/images/NTCIR-Lifelog-256/u2/2015-06-20/b00004228_21i7lf_20150620_090521e.jpg'
p508
sg4
(lp509
(g68
g6
(g18
S'\x8dfP?'
p510
tp511
Rp512
tp513
a(g44
g6
(g18
S'ZM\xf8='
p514
tp515
Rp516
tp517
a(g143
g6
(g18
S'z\x10\xa5<'
p518
tp519
Rp520
tp521
a(g100
g6
(g18
S'\xa3\xe1g<'
p522
tp523
Rp524
tp525
a(g267
g6
(g18
S'\xd6\xefA<'
p526
tp527
Rp528
tp529
asg73
g44
sa(dp530
g2
S'../../../data/emanuela/activity-recognition/images/NTCIR-Lifelog-256/u2/2015-06-18/b00002823_21i7lf_20150618_122159e.jpg'
p531
sg4
(lp532
(g232
g6
(g18
S'_\xbc\xac>'
p533
tp534
Rp535
tp536
a(g68
g6
(g18
S'\xad\xa4\x9b>'
p537
tp538
Rp539
tp540
a(g15
g6
(g18
S'\xf8t\xef='
p541
tp542
Rp543
tp544
a(g100
g6
(g18
S'\xc9Ak='
p545
tp546
Rp547
tp548
a(g44
g6
(g18
S'\xdb\x11>='
p549
tp550
Rp551
tp552
asg73
g44
sa(dp553
g2
S'../../../data/emanuela/activity-recognition/images/NTCIR-Lifelog-256/u2/2015-05-03/b00003778_21i7lf_20150503_144156e.jpg'
p554
sg4
(lp555
(g44
g6
(g18
S'\xb0\xd8|?'
p556
tp557
Rp558
tp559
a(g88
g6
(g18
S'\xff\xf4\xb0;'
p560
tp561
Rp562
tp563
a(g394
g6
(g18
S'\x1f1\x1c;'
p564
tp565
Rp566
tp567
a(g68
g6
(g18
S'+\xa7\xc2:'
p568
tp569
Rp570
tp571
a(g267
g6
(g18
S'\xe7\xe6$:'
p572
tp573
Rp574
tp575
asg73
g44
sa(dp576
g2
S'../../../data/emanuela/activity-recognition/images/NTCIR-Lifelog-256/u2/2015-06-20/b00004237_21i7lf_20150620_091720e.jpg'
p577
sg4
(lp578
(g112
g6
(g18
S'@\xaaT?'
p579
tp580
Rp581
tp582
a(g44
g6
(g18
S'\xdcs\x06='
p583
tp584
Rp585
tp586
a(g6
(g7
(S'S7'
p587
I0
I1
tp588
Rp589
(I3
S'|'
p590
NNNI7
I1
I0
tp591
bS'working'
p592
tp593
Rp594
g6
(g18
S'\xc1\xc6\x04='
p595
tp596
Rp597
tp598
a(g232
g6
(g18
S'\x91\xb6\xdd<'
p599
tp600
Rp601
tp602
a(g68
g6
(g18
S'\x15\xec\xc7<'
p603
tp604
Rp605
tp606
asg73
g44
sa(dp607
g2
S'../../../data/emanuela/activity-recognition/images/NTCIR-Lifelog-256/u2/2015-04-21/b00000845_21i7lf_20150421_183153e.jpg'
p608
sg4
(lp609
(g32
g6
(g18
S'$</?'
p610
tp611
Rp612
tp613
a(g15
g6
(g18
S'|,e>'
p614
tp615
Rp616
tp617
a(g44
g6
(g18
S'oK1='
p618
tp619
Rp620
tp621
a(g68
g6
(g18
S'V\xbe\x84<'
p622
tp623
Rp624
tp625
a(g100
g6
(g18
S'\x19lJ<'
p626
tp627
Rp628
tp629
asg73
g44
sa(dp630
g2
S'../../../data/emanuela/activity-recognition/images/NTCIR-Lifelog-256/u2/2015-04-26/b00004142_21i7lf_20150426_153902e.jpg'
p631
sg4
(lp632
(g44
g6
(g18
S'\xfbM\xf3>'
p633
tp634
Rp635
tp636
a(g100
g6
(g18
S'Z\xb4q>'
p637
tp638
Rp639
tp640
a(g68
g6
(g18
S'\x83g\xce='
p641
tp642
Rp643
tp644
a(g15
g6
(g18
S'\x8e\x13\xab='
p645
tp646
Rp647
tp648
a(g32
g6
(g18
S'\xed\x8b\x12='
p649
tp650
Rp651
tp652
asg73
g44
sa(dp653
g2
S'../../../data/emanuela/activity-recognition/images/NTCIR-Lifelog-256/u2/2015-06-18/b00002840_21i7lf_20150618_123405e (1).jpg'
p654
sg4
(lp655
(g68
g6
(g18
S'\xa2\x9bb?'
p656
tp657
Rp658
tp659
a(g100
g6
(g18
S'\xba\xa0\xb8<'
p660
tp661
Rp662
tp663
a(g44
g6
(g18
S'a\x83\x91<'
p664
tp665
Rp666
tp667
a(g143
g6
(g18
S'\x16\x8d\x8a<'
p668
tp669
Rp670
tp671
a(g15
g6
(g18
S'\xfb#|<'
p672
tp673
Rp674
tp675
asg73
g44
sa(dp676
g2
S'../../../data/emanuela/activity-recognition/images/NTCIR-Lifelog-256/u2/2015-06-20/b00004626_21i7lf_20150620_125610e.jpg'
p677
sg4
(lp678
(g68
g6
(g18
S'\x19$f?'
p679
tp680
Rp681
tp682
a(g143
g6
(g18
S'-\x91\xa5='
p683
tp684
Rp685
tp686
a(g15
g6
(g18
S'\x8b\x17^<'
p687
tp688
Rp689
tp690
a(g6
(g7
(S'S19'
p691
I0
I1
tp692
Rp693
(I3
S'|'
p694
NNNI19
I1
I0
tp695
bS'attending a seminar'
p696
tp697
Rp698
g6
(g18
S'\x96X0;'
p699
tp700
Rp701
tp702
a(g267
g6
(g18
S'\xc2&\xd9:'
p703
tp704
Rp705
tp706
asg73
g44
sa(dp707
g2
S'../../../data/emanuela/activity-recognition/images/NTCIR-Lifelog-256/u2/2015-05-03/b00003792_21i7lf_20150503_145025e.jpg'
p708
sg4
(lp709
(g44
g6
(g18
S'l\x9cx?'
p710
tp711
Rp712
tp713
a(g68
g6
(g18
S'1BQ<'
p714
tp715
Rp716
tp717
a(g88
g6
(g18
S'\x8a\xaf\xf2;'
p718
tp719
Rp720
tp721
a(g394
g6
(g18
S'\xd2\xdab;'
p722
tp723
Rp724
tp725
a(g100
g6
(g18
S'\x98s\xb5:'
p726
tp727
Rp728
tp729
asg73
g44
sa(dp730
g2
S'../../../data/emanuela/activity-recognition/images/NTCIR-Lifelog-256/u2/2015-06-17/b00002406_21i7lf_20150617_134547e.jpg'
p731
sg4
(lp732
(g44
g6
(g18
S'\x1a./?'
p733
tp734
Rp735
tp736
a(g15
g6
(g18
S'\x15\xcc\xc9='
p737
tp738
Rp739
tp740
a(g68
g6
(g18
S'[?\x86='
p741
tp742
Rp743
tp744
a(g267
g6
(g18
S'\xa0P\xcc<'
p745
tp746
Rp747
tp748
a(g143
g6
(g18
S'\xcef\xb5<'
p749
tp750
Rp751
tp752
asg73
g44
sa(dp753
g2
S'../../../data/emanuela/activity-recognition/images/NTCIR-Lifelog-256/u2/2015-06-17/b00002166_21i7lf_20150617_104649e.jpg'
p754
sg4
(lp755
(g88
g6
(g18
S'\x13\xb0\x94>'
p756
tp757
Rp758
tp759
a(g15
g6
(g18
S'\xf3H4>'
p760
tp761
Rp762
tp763
a(g112
g6
(g18
S'\x92\x86\xdd='
p764
tp765
Rp766
tp767
a(g44
g6
(g18
S'\xbc\xde\xd7='
p768
tp769
Rp770
tp771
a(g68
g6
(g18
S'f-\x88='
p772
tp773
Rp774
tp775
asg73
g44
sa(dp776
g2
S'../../../data/emanuela/activity-recognition/images/NTCIR-Lifelog-256/u2/2015-05-03/b00003784_21i7lf_20150503_144535e.jpg'
p777
sg4
(lp778
(g44
g6
(g18
S'\to{?'
p779
tp780
Rp781
tp782
a(g88
g6
(g18
S'\x05\x13\xf8;'
p783
tp784
Rp785
tp786
a(g68
g6
(g18
S'X\x9d\x85;'
p787
tp788
Rp789
tp790
a(g425
g6
(g18
S'\xf5p\x8c:'
p791
tp792
Rp793
tp794
a(g267
g6
(g18
S'\xf4[\x87:'
p795
tp796
Rp797
tp798
asg73
g44
sa(dp799
g2
S'../../../data/emanuela/activity-recognition/images/NTCIR-Lifelog-256/u2/2015-05-03/b00004030_21i7lf_20150503_171928e.jpg'
p800
sg4
(lp801
(g100
g6
(g18
S'1\xdd]?'
p802
tp803
Rp804
tp805
a(g44
g6
(g18
S'\xc9\xe2F='
p806
tp807
Rp808
tp809
a(g68
g6
(g18
S'\x06\xef1='
p810
tp811
Rp812
tp813
a(g56
g6
(g18
S'\xf2\xe3\x85<'
p814
tp815
Rp816
tp817
a(g88
g6
(g18
S'\xb6s\xd8;'
p818
tp819
Rp820
tp821
asg73
g44
sa(dp822
g2
S'../../../data/emanuela/activity-recognition/images/NTCIR-Lifelog-256/u2/2015-06-20/b00004234_21i7lf_20150620_091303e.jpg'
p823
sg4
(lp824
(g68
g6
(g18
S'\xe5\xa6c?'
p825
tp826
Rp827
tp828
a(g56
g6
(g18
S'#R)='
p829
tp830
Rp831
tp832
a(g232
g6
(g18
S'\x9e\x18\xc1<'
p833
tp834
Rp835
tp836
a(g143
g6
(g18
S'O\\\x9c<'
p837
tp838
Rp839
tp840
a(g100
g6
(g18
S'\x1c\xdf\x0c<'
p841
tp842
Rp843
tp844
asg73
g44
sa(dp845
g2
S'../../../data/emanuela/activity-recognition/images/NTCIR-Lifelog-256/u2/2015-06-16/b00001328_21i7lf_20150616_070757e.jpg'
p846
sg4
(lp847
(g44
g6
(g18
S'\xec\x00k?'
p848
tp849
Rp850
tp851
a(g68
g6
(g18
S'\xc7\x90\x13='
p852
tp853
Rp854
tp855
a(g100
g6
(g18
S'\x8fj9<'
p856
tp857
Rp858
tp859
a(g112
g6
(g18
S'7z"<'
p860
tp861
Rp862
tp863
a(g394
g6
(g18
S'\xec\xbe\xcc;'
p864
tp865
Rp866
tp867
asg73
g44
sa(dp868
g2
S'../../../data/emanuela/activity-recognition/images/NTCIR-Lifelog-256/u2/2015-06-17/b00002412_21i7lf_20150617_135018e.jpg'
p869
sg4
(lp870
(g44
g6
(g18
S'(\xa7\x16?'
p871
tp872
Rp873
tp874
a(g112
g6
(g18
S'\xe0TJ>'
p875
tp876
Rp877
tp878
a(g15
g6
(g18
S'\xf3\xcd\x85='
p879
tp880
Rp881
tp882
a(g32
g6
(g18
S':\xad ='
p883
tp884
Rp885
tp886
a(g100
g6
(g18
S'a\xf8\x06='
p887
tp888
Rp889
tp890
asg73
g44
sa(dp891
g2
S'../../../data/emanuela/activity-recognition/images/NTCIR-Lifelog-256/u2/2015-05-03/b00003777_21i7lf_20150503_144120e.jpg'
p892
sg4
(lp893
(g44
g6
(g18
S'\x0b\tz?'
p894
tp895
Rp896
tp897
a(g88
g6
(g18
S'\x81\xa7\x1f<'
p898
tp899
Rp900
tp901
a(g394
g6
(g18
S'Y\x84|;'
p902
tp903
Rp904
tp905
a(g68
g6
(g18
S'\xde\xec\x12;'
p906
tp907
Rp908
tp909
a(g100
g6
(g18
S'td\t;'
p910
tp911
Rp912
tp913
asg73
g44
sa(dp914
g2
S'../../../data/emanuela/activity-recognition/images/NTCIR-Lifelog-256/u2/2015-06-20/b00004634_21i7lf_20150620_130357e.jpg'
p915
sg4
(lp916
(g68
g6
(g18
S'\xfd\x8cG?'
p917
tp918
Rp919
tp920
a(g44
g6
(g18
S'x\x1e\xa3='
p921
tp922
Rp923
tp924
a(g56
g6
(g18
S'3\x8d,='
p925
tp926
Rp927
tp928
a(g232
g6
(g18
S'E\xb4\xfb<'
p929
tp930
Rp931
tp932
a(g15
g6
(g18
S't\xd6\xe6<'
p933
tp934
Rp935
tp936
asg73
g44
sa(dp937
g2
S'../../../data/emanuela/activity-recognition/images/NTCIR-Lifelog-256/u2/2015-05-03/b00004051_21i7lf_20150503_173238e.jpg'
p938
sg4
(lp939
(g88
g6
(g18
S'),\xba>'
p940
tp941
Rp942
tp943
a(g251
g6
(g18
S'[\xc8^>'
p944
tp945
Rp946
tp947
a(g112
g6
(g18
S'\x10l\xef='
p948
tp949
Rp950
tp951
a(g44
g6
(g18
S'\xc9\xcf\xd5='
p952
tp953
Rp954
tp955
a(g479
g6
(g18
S'wwm='
p956
tp957
Rp958
tp959
asg73
g44
sa(dp960
g2
S'../../../data/emanuela/activity-recognition/images/NTCIR-Lifelog-256/u2/2015-06-16/b00001330_21i7lf_20150616_070904e.jpg'
p961
sg4
(lp962
(g44
g6
(g18
S'\x84\xd7f?'
p963
tp964
Rp965
tp966
a(g68
g6
(g18
S'8_k='
p967
tp968
Rp969
tp970
a(g88
g6
(g18
S'\xf6\x19\x02<'
p971
tp972
Rp973
tp974
a(g32
g6
(g18
S'\xc4\xdc\xb9;'
p975
tp976
Rp977
tp978
a(g479
g6
(g18
S'\xaa\x17\xa2;'
p979
tp980
Rp981
tp982
asg73
g44
sa(dp983
g2
S'../../../data/emanuela/activity-recognition/images/NTCIR-Lifelog-256/u2/2015-06-16/b00001323_21i7lf_20150616_070501e.jpg'
p984
sg4
(lp985
(g112
g6
(g18
S'=\x91:?'
p986
tp987
Rp988
tp989
a(g44
g6
(g18
S'\x11\x15\xc0='
p990
tp991
Rp992
tp993
a(g394
g6
(g18
S'N\xa8\x93='
p994
tp995
Rp996
tp997
a(g68
g6
(g18
S')>\t='
p998
tp999
Rp1000
tp1001
a(g267
g6
(g18
S'\xce0\xe0<'
p1002
tp1003
Rp1004
tp1005
asg73
g44
sa(dp1006
g2
S'../../../data/emanuela/activity-recognition/images/NTCIR-Lifelog-256/u2/2015-04-21/b00000849_21i7lf_20150421_183407e.jpg'
p1007
sg4
(lp1008
(g32
g6
(g18
S'\xd5\xbd\xeb>'
p1009
tp1010
Rp1011
tp1012
a(g15
g6
(g18
S'*\x14b>'
p1013
tp1014
Rp1015
tp1016
a(g44
g6
(g18
S'\xd2\x82\x89='
p1017
tp1018
Rp1019
tp1020
a(g68
g6
(g18
S'\xd8\x19\x84='
p1021
tp1022
Rp1023
tp1024
a(g56
g6
(g18
S'"Ig='
p1025
tp1026
Rp1027
tp1028
asg73
g44
sa(dp1029
g2
S'../../../data/emanuela/activity-recognition/images/NTCIR-Lifelog-256/u2/2015-06-17/b00002410_21i7lf_20150617_134834e.jpg'
p1030
sg4
(lp1031
(g15
g6
(g18
S'\xc9\xad\xc9>'
p1032
tp1033
Rp1034
tp1035
a(g44
g6
(g18
S'\xdfZ\xa3>'
p1036
tp1037
Rp1038
tp1039
a(g143
g6
(g18
S'\xefZ\x97='
p1040
tp1041
Rp1042
tp1043
a(g32
g6
(g18
S'z4\t='
p1044
tp1045
Rp1046
tp1047
a(g68
g6
(g18
S'\xbe\xc0\x02='
p1048
tp1049
Rp1050
tp1051
asg73
g44
sa(dp1052
g2
S'../../../data/emanuela/activity-recognition/images/NTCIR-Lifelog-256/u2/2015-06-20/b00004230_21i7lf_20150620_090815e.jpg'
p1053
sg4
(lp1054
(g68
g6
(g18
S'\xbb#\n?'
p1055
tp1056
Rp1057
tp1058
a(g56
g6
(g18
S'\xee\xcd\x8a>'
p1059
tp1060
Rp1061
tp1062
a(g232
g6
(g18
S'\x9a\xea\x8b='
p1063
tp1064
Rp1065
tp1066
a(g15
g6
(g18
S'?\xd9z='
p1067
tp1068
Rp1069
tp1070
a(g32
g6
(g18
S'\x9f3\x0b='
p1071
tp1072
Rp1073
tp1074
asg73
g44
sa(dp1075
g2
S'../../../data/emanuela/activity-recognition/images/NTCIR-Lifelog-256/u2/2015-06-16/b00001318_21i7lf_20150616_070211e.jpg'
p1076
sg4
(lp1077
(g44
g6
(g18
S'F,h?'
p1078
tp1079
Rp1080
tp1081
a(g112
g6
(g18
S'+\t%='
p1082
tp1083
Rp1084
tp1085
a(g68
g6
(g18
S'F\xf8\xaa<'
p1086
tp1087
Rp1088
tp1089
a(g267
g6
(g18
S'/\xca\x9a<'
p1090
tp1091
Rp1092
tp1093
a(g394
g6
(g18
S'\xcb\x9dB;'
p1094
tp1095
Rp1096
tp1097
asg73
g44
sa(dp1098
g2
S'../../../data/emanuela/activity-recognition/images/NTCIR-Lifelog-256/u2/2015-05-03/b00003786_21i7lf_20150503_144645e.jpg'
p1099
sg4
(lp1100
(g44
g6
(g18
S'\x94By?'
p1101
tp1102
Rp1103
tp1104
a(g88
g6
(g18
S'\x01\xc1\x83<'
p1105
tp1106
Rp1107
tp1108
a(g68
g6
(g18
S'(\x9fh;'
p1109
tp1110
Rp1111
tp1112
a(g100
g6
(g18
S'\xba\xea\xc5:'
p1113
tp1114
Rp1115
tp1116
a(g394
g6
(g18
S'6n\xae:'
p1117
tp1118
Rp1119
tp1120
asg73
g44
sa(dp1121
g2
S'../../../data/emanuela/activity-recognition/images/NTCIR-Lifelog-256/u2/2015-06-20/b00004628_21i7lf_20150620_125725e.jpg'
p1122
sg4
(lp1123
(g68
g6
(g18
S'\x04\x83b?'
p1124
tp1125
Rp1126
tp1127
a(g143
g6
(g18
S'D|n='
p1128
tp1129
Rp1130
tp1131
a(g100
g6
(g18
S'\xbf\xd3\xcc<'
p1132
tp1133
Rp1134
tp1135
a(g267
g6
(g18
S'{\x9b0<'
p1136
tp1137
Rp1138
tp1139
a(g44
g6
(g18
S'4V\xea;'
p1140
tp1141
Rp1142
tp1143
asg73
g44
sa(dp1144
g2
S'../../../data/emanuela/activity-recognition/images/NTCIR-Lifelog-256/u2/2015-06-17/b00002407_21i7lf_20150617_134632e.jpg'
p1145
sg4
(lp1146
(g15
g6
(g18
S'Lx\xcc>'
p1147
tp1148
Rp1149
tp1150
a(g112
g6
(g18
S'C\xb5d>'
p1151
tp1152
Rp1153
tp1154
a(g44
g6
(g18
S'+\xe8\x12>'
p1155
tp1156
Rp1157
tp1158
a(g232
g6
(g18
S'\x9d3\x8a='
p1159
tp1160
Rp1161
tp1162
a(g56
g6
(g18
S'\xd3\xcdK='
p1163
tp1164
Rp1165
tp1166
asg73
g44
sa(dp1167
g2
S'../../../data/emanuela/activity-recognition/images/NTCIR-Lifelog-256/u2/2015-05-03/b00003794_21i7lf_20150503_145136e (1).jpg'
p1168
sg4
(lp1169
(g68
g6
(g18
S'\xf2y9?'
p1170
tp1171
Rp1172
tp1173
a(g88
g6
(g18
S'}\xb7\xd7='
p1174
tp1175
Rp1176
tp1177
a(g100
g6
(g18
S'\x83ou='
p1178
tp1179
Rp1180
tp1181
a(g112
g6
(g18
S'&DD='
p1182
tp1183
Rp1184
tp1185
a(g44
g6
(g18
S'Ot\x15='
p1186
tp1187
Rp1188
tp1189
asg73
g44
sa(dp1190
g2
S'../../../data/emanuela/activity-recognition/images/NTCIR-Lifelog-256/u2/2015-06-20/b00004643_21i7lf_20150620_131645e.jpg'
p1191
sg4
(lp1192
(g68
g6
(g18
S'\x9fG_?'
p1193
tp1194
Rp1195
tp1196
a(g143
g6
(g18
S'\x0e\xb0\xe5='
p1197
tp1198
Rp1199
tp1200
a(g100
g6
(g18
S'e"\xec;'
p1201
tp1202
Rp1203
tp1204
a(g56
g6
(g18
S'\xdb$S;'
p1205
tp1206
Rp1207
tp1208
a(g15
g6
(g18
S'9~\x91:'
p1209
tp1210
Rp1211
tp1212
asg73
g44
sa(dp1213
g2
S'../../../data/emanuela/activity-recognition/images/NTCIR-Lifelog-256/u2/2015-06-20/b00004252_21i7lf_20150620_093857e.jpg'
p1214
sg4
(lp1215
(g68
g6
(g18
S'\xd4\xcc\x0b?'
p1216
tp1217
Rp1218
tp1219
a(g44
g6
(g18
S'\xc8?a>'
p1220
tp1221
Rp1222
tp1223
a(g100
g6
(g18
S'\xf2\xe0*>'
p1224
tp1225
Rp1226
tp1227
a(g15
g6
(g18
S'M\xcb\xa8<'
p1228
tp1229
Rp1230
tp1231
a(g56
g6
(g18
S'\x8e\x89p<'
p1232
tp1233
Rp1234
tp1235
asg73
g44
sa(dp1236
g2
S'../../../data/emanuela/activity-recognition/images/NTCIR-Lifelog-256/u2/2015-06-18/b00002836_21i7lf_20150618_123007e.jpg'
p1237
sg4
(lp1238
(g394
g6
(g18
S'\xd1_B>'
p1239
tp1240
Rp1241
tp1242
a(g88
g6
(g18
S'\xb3\xb2/>'
p1243
tp1244
Rp1245
tp1246
a(g112
g6
(g18
S'TV\x07>'
p1247
tp1248
Rp1249
tp1250
a(g44
g6
(g18
S'l`\xb3='
p1251
tp1252
Rp1253
tp1254
a(g15
g6
(g18
S'\xcc0\xa4='
p1255
tp1256
Rp1257
tp1258
asg73
g44
sa(dp1259
g2
S'../../../data/emanuela/activity-recognition/images/NTCIR-Lifelog-256/u2/2015-04-21/b00000840_21i7lf_20150421_182845e.jpg'
p1260
sg4
(lp1261
(g88
g6
(g18
S'?\xf9\x15?'
p1262
tp1263
Rp1264
tp1265
a(g44
g6
(g18
S'\xc8\x9d\xdf='
p1266
tp1267
Rp1268
tp1269
a(g15
g6
(g18
S'>\xb8\xd4='
p1270
tp1271
Rp1272
tp1273
a(g100
g6
(g18
S'\xce\xc61='
p1274
tp1275
Rp1276
tp1277
a(g479
g6
(g18
S'>m\x11='
p1278
tp1279
Rp1280
tp1281
asg73
g44
sa(dp1282
g2
S'../../../data/emanuela/activity-recognition/images/NTCIR-Lifelog-256/u2/2015-06-20/b00004243_21i7lf_20150620_092602e.jpg'
p1283
sg4
(lp1284
(g201
g6
(g18
S'\xe2oP>'
p1285
tp1286
Rp1287
tp1288
a(g15
g6
(g18
S'u\xc2O>'
p1289
tp1290
Rp1291
tp1292
a(g32
g6
(g18
S'\x83\xd3H>'
p1293
tp1294
Rp1295
tp1296
a(g88
g6
(g18
S'o\x06\x10>'
p1297
tp1298
Rp1299
tp1300
a(g56
g6
(g18
S'\x0f\xa3`='
p1301
tp1302
Rp1303
tp1304
asg73
g44
sa(dp1305
g2
S'../../../data/emanuela/activity-recognition/images/NTCIR-Lifelog-256/u2/2015-05-03/b00004047_21i7lf_20150503_173014e.jpg'
p1306
sg4
(lp1307
(g112
g6
(g18
S'2)\xda>'
p1308
tp1309
Rp1310
tp1311
a(g44
g6
(g18
S'\xfa^\xc5>'
p1312
tp1313
Rp1314
tp1315
a(g251
g6
(g18
S';h\x84='
p1316
tp1317
Rp1318
tp1319
a(g32
g6
(g18
S'5\x94b='
p1320
tp1321
Rp1322
tp1323
a(g100
g6
(g18
S'\xdd\xd9\x18='
p1324
tp1325
Rp1326
tp1327
asg73
g44
sa(dp1328
g2
S'../../../data/emanuela/activity-recognition/images/NTCIR-Lifelog-256/u2/2015-06-20/b00004251_21i7lf_20150620_093734e.jpg'
p1329
sg4
(lp1330
(g44
g6
(g18
S'\x93\xc1\x8c>'
p1331
tp1332
Rp1333
tp1334
a(g15
g6
(g18
S'\x03\x0e\x89>'
p1335
tp1336
Rp1337
tp1338
a(g68
g6
(g18
S'\r\xf5b>'
p1339
tp1340
Rp1341
tp1342
a(g100
g6
(g18
S'\xc9\x85t='
p1343
tp1344
Rp1345
tp1346
a(g232
g6
(g18
S'eo5='
p1347
tp1348
Rp1349
tp1350
asg73
g44
sa(dp1351
g2
S'../../../data/emanuela/activity-recognition/images/NTCIR-Lifelog-256/u2/2015-05-03/b00003773_21i7lf_20150503_143858e.jpg'
p1352
sg4
(lp1353
(g44
g6
(g18
S'\xf8\x1d{?'
p1354
tp1355
Rp1356
tp1357
a(g88
g6
(g18
S'\x1f\x0bD<'
p1358
tp1359
Rp1360
tp1361
a(g112
g6
(g18
S'\xe0\x8c\x01;'
p1362
tp1363
Rp1364
tp1365
a(g394
g6
(g18
S'\x88N\xac:'
p1366
tp1367
Rp1368
tp1369
a(g267
g6
(g18
S'\xb5W\x97:'
p1370
tp1371
Rp1372
tp1373
asg73
g44
sa(dp1374
g2
S'../../../data/emanuela/activity-recognition/images/NTCIR-Lifelog-256/u2/2015-06-18/b00002849_21i7lf_20150618_124003e.jpg'
p1375
sg4
(lp1376
(g143
g6
(g18
S'0a\xfc>'
p1377
tp1378
Rp1379
tp1380
a(g698
g6
(g18
S'JY*>'
p1381
tp1382
Rp1383
tp1384
a(g68
g6
(g18
S'\xb8\x9a\x14>'
p1385
tp1386
Rp1387
tp1388
a(g32
g6
(g18
S'\x1e#\xb6='
p1389
tp1390
Rp1391
tp1392
a(g15
g6
(g18
S'l\x95\x92='
p1393
tp1394
Rp1395
tp1396
asg73
g44
sa(dp1397
g2
S'../../../data/emanuela/activity-recognition/images/NTCIR-Lifelog-256/u2/2015-06-20/b00004618_21i7lf_20150620_125121e.jpg'
p1398
sg4
(lp1399
(g68
g6
(g18
S'"Sq?'
p1400
tp1401
Rp1402
tp1403
a(g232
g6
(g18
S'\xafl\xce<'
p1404
tp1405
Rp1406
tp1407
a(g44
g6
(g18
S'\x84@><'
p1408
tp1409
Rp1410
tp1411
a(g56
g6
(g18
S'o\x0b\xde;'
p1412
tp1413
Rp1414
tp1415
a(g100
g6
(g18
S'<\xc4\xaa;'
p1416
tp1417
Rp1418
tp1419
asg73
g44
sa(dp1420
g2
S'../../../data/emanuela/activity-recognition/images/NTCIR-Lifelog-256/u2/2015-06-20/b00004235_21i7lf_20150620_091431e.jpg'
p1421
sg4
(lp1422
(g68
g6
(g18
S'%\nH?'
p1423
tp1424
Rp1425
tp1426
a(g44
g6
(g18
S'\xda\xc4\x97='
p1427
tp1428
Rp1429
tp1430
a(g15
g6
(g18
S'k\x06F='
p1431
tp1432
Rp1433
tp1434
a(g267
g6
(g18
S'\x0f\x81\xd4<'
p1435
tp1436
Rp1437
tp1438
a(g143
g6
(g18
S'O\xf3X<'
p1439
tp1440
Rp1441
tp1442
asg73
g44
sa(dp1443
g2
S'../../../data/emanuela/activity-recognition/images/NTCIR-Lifelog-256/u2/2015-06-18/b00002826_21i7lf_20150618_122351e.jpg'
p1444
sg4
(lp1445
(g15
g6
(g18
S'\x12M\xb4>'
p1446
tp1447
Rp1448
tp1449
a(g143
g6
(g18
S'\xd0xa>'
p1450
tp1451
Rp1452
tp1453
a(g112
g6
(g18
S'\xb2\x96\x1b>'
p1454
tp1455
Rp1456
tp1457
a(g68
g6
(g18
S'\x16\xee\xa8='
p1458
tp1459
Rp1460
tp1461
a(g44
g6
(g18
S'P\x02A='
p1462
tp1463
Rp1464
tp1465
asg73
g44
sa(dp1466
g2
S'../../../data/emanuela/activity-recognition/images/NTCIR-Lifelog-256/u2/2015-06-20/b00004258_21i7lf_20150620_094759e.jpg'
p1467
sg4
(lp1468
(g68
g6
(g18
S'\xbf,\\?'
p1469
tp1470
Rp1471
tp1472
a(g143
g6
(g18
S'\xe2+\n>'
p1473
tp1474
Rp1475
tp1476
a(g44
g6
(g18
S'\x9dm\xa4:'
p1477
tp1478
Rp1479
tp1480
a(g56
g6
(g18
S'^{\x9f:'
p1481
tp1482
Rp1483
tp1484
a(g100
g6
(g18
S'(\x19?:'
p1485
tp1486
Rp1487
tp1488
asg73
g44
sa(dp1489
g2
S'../../../data/emanuela/activity-recognition/images/NTCIR-Lifelog-256/u2/2015-06-18/b00002842_21i7lf_20150618_123520e.jpg'
p1490
sg4
(lp1491
(g15
g6
(g18
S'\xc4\xcf\x80>'
p1492
tp1493
Rp1494
tp1495
a(g68
g6
(g18
S't\xe7w>'
p1496
tp1497
Rp1498
tp1499
a(g56
g6
(g18
S'x\x7f->'
p1500
tp1501
Rp1502
tp1503
a(g232
g6
(g18
S'\x80\xb5\xfd='
p1504
tp1505
Rp1506
tp1507
a(g44
g6
(g18
S'\xf0\xd0\xed='
p1508
tp1509
Rp1510
tp1511
asg73
g44
sa(dp1512
g2
S'../../../data/emanuela/activity-recognition/images/NTCIR-Lifelog-256/u2/2015-06-16/b00001316_21i7lf_20150616_070101e.jpg'
p1513
sg4
(lp1514
(g44
g6
(g18
S'\xcc\x0e\n?'
p1515
tp1516
Rp1517
tp1518
a(g112
g6
(g18
S"'\xb1\xda>"
p1519
tp1520
Rp1521
tp1522
a(g394
g6
(g18
S'\xda\xc3\xeb;'
p1523
tp1524
Rp1525
tp1526
a(g594
g6
(g18
S'\xdd\x9c\xda;'
p1527
tp1528
Rp1529
tp1530
a(g68
g6
(g18
S'|\xfe\x9b;'
p1531
tp1532
Rp1533
tp1534
asg73
g44
sa(dp1535
g2
S'../../../data/emanuela/activity-recognition/images/NTCIR-Lifelog-256/u2/2015-06-18/b00002603_21i7lf_20150618_095746e.jpg'
p1536
sg4
(lp1537
(g68
g6
(g18
S'\xfe\xd4r?'
p1538
tp1539
Rp1540
tp1541
a(g143
g6
(g18
S'\xd8\xec\xc1<'
p1542
tp1543
Rp1544
tp1545
a(g44
g6
(g18
S'\xd5\x03z<'
p1546
tp1547
Rp1548
tp1549
a(g100
g6
(g18
S'\x1d\x8e\xd0;'
p1550
tp1551
Rp1552
tp1553
a(g267
g6
(g18
S'\xab\x03\xcc:'
p1554
tp1555
Rp1556
tp1557
asg73
g44
sa(dp1558
g2
S'../../../data/emanuela/activity-recognition/images/NTCIR-Lifelog-256/u2/2015-05-03/b00003791_21i7lf_20150503_144952e.jpg'
p1559
sg4
(lp1560
(g44
g6
(g18
S'm\x86M?'
p1561
tp1562
Rp1563
tp1564
a(g88
g6
(g18
S'VB\x8e='
p1565
tp1566
Rp1567
tp1568
a(g68
g6
(g18
S'\x8ak6='
p1569
tp1570
Rp1571
tp1572
a(g394
g6
(g18
S'Lm\xce<'
p1573
tp1574
Rp1575
tp1576
a(g112
g6
(g18
S'\x81\xd6}<'
p1577
tp1578
Rp1579
tp1580
asg73
g44
sa(dp1581
g2
S'../../../data/emanuela/activity-recognition/images/NTCIR-Lifelog-256/u2/2015-06-16/b00001325_21i7lf_20150616_070609e.jpg'
p1582
sg4
(lp1583
(g44
g6
(g18
S'\xc37\xd3>'
p1584
tp1585
Rp1586
tp1587
a(g112
g6
(g18
S'p_\xc4>'
p1588
tp1589
Rp1590
tp1591
a(g68
g6
(g18
S'r\x1ao='
p1592
tp1593
Rp1594
tp1595
a(g394
g6
(g18
S'k\xe0\xd1<'
p1596
tp1597
Rp1598
tp1599
a(g15
g6
(g18
S'\x7f\xc1\xb4<'
p1600
tp1601
Rp1602
tp1603
asg73
g44
sa(dp1604
g2
S'../../../data/emanuela/activity-recognition/images/NTCIR-Lifelog-256/u2/2015-06-19/b00002956_21i7lf_20150619_064526e.jpg'
p1605
sg4
(lp1606
(g15
g6
(g18
S'\x07\x95\xdc>'
p1607
tp1608
Rp1609
tp1610
a(g88
g6
(g18
S'\xfa\x9c\t>'
p1611
tp1612
Rp1613
tp1614
a(g143
g6
(g18
S'\xad\x99\xa1='
p1615
tp1616
Rp1617
tp1618
a(g425
g6
(g18
S'w"i='
p1619
tp1620
Rp1621
tp1622
a(g267
g6
(g18
S'w\xcbI='
p1623
tp1624
Rp1625
tp1626
asg73
g44
sa(dp1627
g2
S'../../../data/emanuela/activity-recognition/images/NTCIR-Lifelog-256/u2/2015-06-16/b00001348_21i7lf_20150616_071956e.jpg'
p1628
sg4
(lp1629
(g44
g6
(g18
S'h\xe9\x0e?'
p1630
tp1631
Rp1632
tp1633
a(g68
g6
(g18
S'S\xb3Y>'
p1634
tp1635
Rp1636
tp1637
a(g479
g6
(g18
S'\xea\x9e\xd4='
p1638
tp1639
Rp1640
tp1641
a(g425
g6
(g18
S'\xa0\xe8\x03='
p1642
tp1643
Rp1644
tp1645
a(g100
g6
(g18
S'\x06\xa6\x88<'
p1646
tp1647
Rp1648
tp1649
asg73
g44
sa(dp1650
g2
S'../../../data/emanuela/activity-recognition/images/NTCIR-Lifelog-256/u2/2015-06-20/b00004233_21i7lf_20150620_091139e.jpg'
p1651
sg4
(lp1652
(g68
g6
(g18
S'\x84!I?'
p1653
tp1654
Rp1655
tp1656
a(g56
g6
(g18
S'\x1b\x87\xa8='
p1657
tp1658
Rp1659
tp1660
a(g232
g6
(g18
S'\x1b3\x93='
p1661
tp1662
Rp1663
tp1664
a(g267
g6
(g18
S'\xbf\xe2\x8e<'
p1665
tp1666
Rp1667
tp1668
a(g44
g6
(g18
S'\x14\xc3@<'
p1669
tp1670
Rp1671
tp1672
asg73
g44
sa(dp1673
g2
S'../../../data/emanuela/activity-recognition/images/NTCIR-Lifelog-256/u2/2015-06-20/b00004222_21i7lf_20150620_085827e.jpg'
p1674
sg4
(lp1675
(g68
g6
(g18
S'\x0fCC?'
p1676
tp1677
Rp1678
tp1679
a(g143
g6
(g18
S'N^\x03>'
p1680
tp1681
Rp1682
tp1683
a(g15
g6
(g18
S'\xf5\x85\x04='
p1684
tp1685
Rp1686
tp1687
a(g425
g6
(g18
S'\xbf\x8b\xb7<'
p1688
tp1689
Rp1690
tp1691
a(g88
g6
(g18
S"'MH<"
p1692
tp1693
Rp1694
tp1695
asg73
g44
sa(dp1696
g2
S'../../../data/emanuela/activity-recognition/images/NTCIR-Lifelog-256/u2/2015-06-18/b00002604_21i7lf_20150618_095819e.jpg'
p1697
sg4
(lp1698
(g68
g6
(g18
S'\x19\xd5\x16?'
p1699
tp1700
Rp1701
tp1702
a(g44
g6
(g18
S'\x99\xc3\xaf>'
p1703
tp1704
Rp1705
tp1706
a(g143
g6
(g18
S'Zv(='
p1707
tp1708
Rp1709
tp1710
a(g100
g6
(g18
S'\xf3\xec\x1c<'
p1711
tp1712
Rp1713
tp1714
a(g15
g6
(g18
S'j>\xbc;'
p1715
tp1716
Rp1717
tp1718
asg73
g44
sa(dp1719
g2
S'../../../data/emanuela/activity-recognition/images/NTCIR-Lifelog-256/u2/2015-05-03/b00004042_21i7lf_20150503_172658e.jpg'
p1720
sg4
(lp1721
(g44
g6
(g18
S'SV\x18?'
p1722
tp1723
Rp1724
tp1725
a(g112
g6
(g18
S'\x04T\xc4='
p1726
tp1727
Rp1728
tp1729
a(g251
g6
(g18
S'\x17\x04\xa5='
p1730
tp1731
Rp1732
tp1733
a(g100
g6
(g18
S'\x14$=='
p1734
tp1735
Rp1736
tp1737
a(g88
g6
(g18
S'\xd6\xf6\x1e='
p1738
tp1739
Rp1740
tp1741
asg73
g44
sa(dp1742
g2
S'../../../data/emanuela/activity-recognition/images/NTCIR-Lifelog-256/u2/2015-06-17/b00002413_21i7lf_20150617_135103e.jpg'
p1743
sg4
(lp1744
(g15
g6
(g18
S'\x0c}\xf6>'
p1745
tp1746
Rp1747
tp1748
a(g32
g6
(g18
S'\xa2u\x80>'
p1749
tp1750
Rp1751
tp1752
a(g44
g6
(g18
S'\x80\x1a\x04>'
p1753
tp1754
Rp1755
tp1756
a(g143
g6
(g18
S'\x04\x87#='
p1757
tp1758
Rp1759
tp1760
a(g100
g6
(g18
S'\n\x90\xe4<'
p1761
tp1762
Rp1763
tp1764
asg73
g44
sa(dp1765
g2
S'../../../data/emanuela/activity-recognition/images/NTCIR-Lifelog-256/u2/2015-04-24/b00002786_21i7lf_20150424_182529e.jpg'
p1766
sg4
(lp1767
(g44
g6
(g18
S'\xba@c?'
p1768
tp1769
Rp1770
tp1771
a(g100
g6
(g18
S'E\xdcw='
p1772
tp1773
Rp1774
tp1775
a(g68
g6
(g18
S'5\x1dC='
p1776
tp1777
Rp1778
tp1779
a(g143
g6
(g18
S'Y\x00\xb8:'
p1780
tp1781
Rp1782
tp1783
a(g112
g6
(g18
S'\x90\t\xab:'
p1784
tp1785
Rp1786
tp1787
asg73
g44
sa(dp1788
g2
S'../../../data/emanuela/activity-recognition/images/NTCIR-Lifelog-256/u2/2015-04-24/b00002789_21i7lf_20150424_182724e.jpg'
p1789
sg4
(lp1790
(g44
g6
(g18
S'\xd3_r?'
p1791
tp1792
Rp1793
tp1794
a(g100
g6
(g18
S'\xe7\xf6\xff<'
p1795
tp1796
Rp1797
tp1798
a(g68
g6
(g18
S'C\x9f\x87<'
p1799
tp1800
Rp1801
tp1802
a(g112
g6
(g18
S'd\xaf];'
p1803
tp1804
Rp1805
tp1806
a(g267
g6
(g18
S'\xa1\x019:'
p1807
tp1808
Rp1809
tp1810
asg73
g44
sa(dp1811
g2
S'../../../data/emanuela/activity-recognition/images/NTCIR-Lifelog-256/u2/2015-05-03/b00003788_21i7lf_20150503_144759e.jpg'
p1812
sg4
(lp1813
(g44
g6
(g18
S'YEt?'
p1814
tp1815
Rp1816
tp1817
a(g88
g6
(g18
S'\xc0x\x9b<'
p1818
tp1819
Rp1820
tp1821
a(g68
g6
(g18
S'\xb7\xc9U<'
p1822
tp1823
Rp1824
tp1825
a(g425
g6
(g18
S'\x9cT0;'
p1826
tp1827
Rp1828
tp1829
a(g394
g6
(g18
S'\x91l\x0e;'
p1830
tp1831
Rp1832
tp1833
asg73
g44
sa(dp1834
g2
S'../../../data/emanuela/activity-recognition/images/NTCIR-Lifelog-256/u2/2015-06-17/b00002168_21i7lf_20150617_104837e.jpg'
p1835
sg4
(lp1836
(g44
g6
(g18
S'V\x88w?'
p1837
tp1838
Rp1839
tp1840
a(g15
g6
(g18
S'\x1e\xf1s<'
p1841
tp1842
Rp1843
tp1844
a(g112
g6
(g18
S'\x81c\xf3;'
p1845
tp1846
Rp1847
tp1848
a(g68
g6
(g18
S'\xca\xd7k;'
p1849
tp1850
Rp1851
tp1852
a(g267
g6
(g18
S'\x16J\x03;'
p1853
tp1854
Rp1855
tp1856
asg73
g44
sa(dp1857
g2
S'../../../data/emanuela/activity-recognition/images/NTCIR-Lifelog-256/u2/2015-06-18/b00002827_21i7lf_20150618_122426e.jpg'
p1858
sg4
(lp1859
(g15
g6
(g18
S'\x8f\x94k>'
p1860
tp1861
Rp1862
tp1863
a(g68
g6
(g18
S'\xeb\xa9->'
p1864
tp1865
Rp1866
tp1867
a(g44
g6
(g18
S"\x06'\x0c>"
p1868
tp1869
Rp1870
tp1871
a(g143
g6
(g18
S'\xde\x1b\x00>'
p1872
tp1873
Rp1874
tp1875
a(g32
g6
(g18
S'\xd1?\xf3='
p1876
tp1877
Rp1878
tp1879
asg73
g44
sa(dp1880
g2
S'../../../data/emanuela/activity-recognition/images/NTCIR-Lifelog-256/u2/2015-06-20/b00004630_21i7lf_20150620_125813e.jpg'
p1881
sg4
(lp1882
(g68
g6
(g18
S'\xe3\xdfI?'
p1883
tp1884
Rp1885
tp1886
a(g232
g6
(g18
S'\xa2e\x9f='
p1887
tp1888
Rp1889
tp1890
a(g56
g6
(g18
S'\xa9\xef\x87='
p1891
tp1892
Rp1893
tp1894
a(g44
g6
(g18
S'-p\x06='
p1895
tp1896
Rp1897
tp1898
a(g100
g6
(g18
S'\x8a\xac\x85<'
p1899
tp1900
Rp1901
tp1902
asg73
g44
sa(dp1903
g2
S'../../../data/emanuela/activity-recognition/images/NTCIR-Lifelog-256/u2/2015-05-03/b00004049_21i7lf_20150503_173126e.jpg'
p1904
sg4
(lp1905
(g44
g6
(g18
S'\x9a\xe3\xc8>'
p1906
tp1907
Rp1908
tp1909
a(g112
g6
(g18
S'S\xfb\xb4>'
p1910
tp1911
Rp1912
tp1913
a(g251
g6
(g18
S'\x1eE\x02>'
p1914
tp1915
Rp1916
tp1917
a(g100
g6
(g18
S'y/)='
p1918
tp1919
Rp1920
tp1921
a(g267
g6
(g18
S'\xc4\x9c\xe9<'
p1922
tp1923
Rp1924
tp1925
asg73
g44
sa(dp1926
g2
S'../../../data/emanuela/activity-recognition/images/NTCIR-Lifelog-256/u2/2015-06-20/b00004629_21i7lf_20150620_125801e.jpg'
p1927
sg4
(lp1928
(g143
g6
(g18
S'%Gg?'
p1929
tp1930
Rp1931
tp1932
a(g68
g6
(g18
S'*\t\xa1='
p1933
tp1934
Rp1935
tp1936
a(g15
g6
(g18
S'\x89\xea\x0f<'
p1937
tp1938
Rp1939
tp1940
a(g201
g6
(g18
S'y\\\xd2:'
p1941
tp1942
Rp1943
tp1944
a(g88
g6
(g18
S'a\r\xaf:'
p1945
tp1946
Rp1947
tp1948
asg73
g44
sa(dp1949
g2
S'../../../data/emanuela/activity-recognition/images/NTCIR-Lifelog-256/u2/2015-06-18/b00002837_21i7lf_20150618_123205e.jpg'
p1950
sg4
(lp1951
(g68
g6
(g18
S'\x9e\xae\xee>'
p1952
tp1953
Rp1954
tp1955
a(g394
g6
(g18
S'}\xda\xb4>'
p1956
tp1957
Rp1958
tp1959
a(g143
g6
(g18
S'@\x9c\x0b='
p1960
tp1961
Rp1962
tp1963
a(g594
g6
(g18
S'\xef\x9f\xec<'
p1964
tp1965
Rp1966
tp1967
a(g88
g6
(g18
S'\xd8\xd3\xd6<'
p1968
tp1969
Rp1970
tp1971
asg73
g44
sa(dp1972
g2
S'../../../data/emanuela/activity-recognition/images/NTCIR-Lifelog-256/u2/2015-05-03/b00003780_21i7lf_20150503_144309e.jpg'
p1973
sg4
(lp1974
(g44
g6
(g18
S'\xb0\x1f}?'
p1975
tp1976
Rp1977
tp1978
a(g88
g6
(g18
S'\xbd\xbf\x90;'
p1979
tp1980
Rp1981
tp1982
a(g394
g6
(g18
S'$\xa5\x10;'
p1983
tp1984
Rp1985
tp1986
a(g112
g6
(g18
S'\xca\xa0\xe7:'
p1987
tp1988
Rp1989
tp1990
a(g267
g6
(g18
S'.x\xa3:'
p1991
tp1992
Rp1993
tp1994
asg73
g44
sa(dp1995
g2
S'../../../data/emanuela/activity-recognition/images/NTCIR-Lifelog-256/u2/2015-06-17/b00002160_21i7lf_20150617_104254e.jpg'
p1996
sg4
(lp1997
(g44
g6
(g18
S'\xd5`\x13?'
p1998
tp1999
Rp2000
tp2001
a(g68
g6
(g18
S'\x12\x10\x87>'
p2002
tp2003
Rp2004
tp2005
a(g143
g6
(g18
S'\xc2\xa2\xfb='
p2006
tp2007
Rp2008
tp2009
a(g15
g6
(g18
S'J\x91\x89<'
p2010
tp2011
Rp2012
tp2013
a(g267
g6
(g18
S'u\t\xb0;'
p2014
tp2015
Rp2016
tp2017
asg73
g44
sa(dp2018
g2
S'../../../data/emanuela/activity-recognition/images/NTCIR-Lifelog-256/u2/2015-05-03/b00003764_21i7lf_20150503_143324e.jpg'
p2019
sg4
(lp2020
(g44
g6
(g18
S'.\xd0\x18?'
p2021
tp2022
Rp2023
tp2024
a(g15
g6
(g18
S'\x87,y>'
p2025
tp2026
Rp2027
tp2028
a(g68
g6
(g18
S'\xcft\xaf='
p2029
tp2030
Rp2031
tp2032
a(g32
g6
(g18
S'\x15+\x14='
p2033
tp2034
Rp2035
tp2036
a(g143
g6
(g18
S'\x864\xc2<'
p2037
tp2038
Rp2039
tp2040
asg73
g44
sa(dp2041
g2
S'../../../data/emanuela/activity-recognition/images/NTCIR-Lifelog-256/u2/2015-06-16/b00001341_21i7lf_20150616_071528e.jpg'
p2042
sg4
(lp2043
(g44
g6
(g18
S']t^?'
p2044
tp2045
Rp2046
tp2047
a(g68
g6
(g18
S'\xb8L\x88='
p2048
tp2049
Rp2050
tp2051
a(g100
g6
(g18
S'\xa4\xa94='
p2052
tp2053
Rp2054
tp2055
a(g32
g6
(g18
S'9\xd8Z<'
p2056
tp2057
Rp2058
tp2059
a(g112
g6
(g18
S'\xc1\xa0\xb4:'
p2060
tp2061
Rp2062
tp2063
asg73
g44
sa(dp2064
g2
S'../../../data/emanuela/activity-recognition/images/NTCIR-Lifelog-256/u2/2015-06-20/b00004625_21i7lf_20150620_125532e.jpg'
p2065
sg4
(lp2066
(g68
g6
(g18
S'MFd>'
p2067
tp2068
Rp2069
tp2070
a(g479
g6
(g18
S'\xaf\xb2\x11>'
p2071
tp2072
Rp2073
tp2074
a(g88
g6
(g18
S'\xdf;\x01>'
p2075
tp2076
Rp2077
tp2078
a(g6
(g7
(S'S7'
p2079
I0
I1
tp2080
Rp2081
(I3
S'|'
p2082
NNNI7
I1
I0
tp2083
bS'resting'
p2084
tp2085
Rp2086
g6
(g18
S'\x0eT\xd9='
p2087
tp2088
Rp2089
tp2090
a(g112
g6
(g18
S'&\xeb\xd7='
p2091
tp2092
Rp2093
tp2094
asg73
g44
sa(dp2095
g2
S'../../../data/emanuela/activity-recognition/images/NTCIR-Lifelog-256/u2/2015-06-18/b00002841_21i7lf_20150618_123442e.jpg'
p2096
sg4
(lp2097
(g68
g6
(g18
S'g\xaa\x00?'
p2098
tp2099
Rp2100
tp2101
a(g100
g6
(g18
S'O]\x9f>'
p2102
tp2103
Rp2104
tp2105
a(g143
g6
(g18
S'\x0e\xcc\xfe='
p2106
tp2107
Rp2108
tp2109
a(g394
g6
(g18
S'\xf0h\x05='
p2110
tp2111
Rp2112
tp2113
a(g232
g6
(g18
S'X\xd5\xd4;'
p2114
tp2115
Rp2116
tp2117
asg73
g44
sa(dp2118
g2
S'../../../data/emanuela/activity-recognition/images/NTCIR-Lifelog-256/u2/2015-06-19/b00002954_21i7lf_20150619_064412e.jpg'
p2119
sg4
(lp2120
(g68
g6
(g18
S'\x1a\xe6\x04?'
p2121
tp2122
Rp2123
tp2124
a(g44
g6
(g18
S'\x1a\x8d\x1c>'
p2125
tp2126
Rp2127
tp2128
a(g15
g6
(g18
S'[E\xc9='
p2129
tp2130
Rp2131
tp2132
a(g143
g6
(g18
S'\xa6\xf4\x8d='
p2133
tp2134
Rp2135
tp2136
a(g32
g6
(g18
S'Q\x98\x8b='
p2137
tp2138
Rp2139
tp2140
asg73
g44
sa(dp2141
g2
S'../../../data/emanuela/activity-recognition/images/NTCIR-Lifelog-256/u2/2015-05-03/b00003785_21i7lf_20150503_144614e.jpg'
p2142
sg4
(lp2143
(g44
g6
(g18
S'\x15\xc0s?'
p2144
tp2145
Rp2146
tp2147
a(g88
g6
(g18
S'(2\xc8<'
p2148
tp2149
Rp2150
tp2151
a(g68
g6
(g18
S'\xd2o\x17<'
p2152
tp2153
Rp2154
tp2155
a(g100
g6
(g18
S'dk\x8a;'
p2156
tp2157
Rp2158
tp2159
a(g425
g6
(g18
S'{\xda\x14;'
p2160
tp2161
Rp2162
tp2163
asg73
g44
sa(dp2164
g2
S'../../../data/emanuela/activity-recognition/images/NTCIR-Lifelog-256/u2/2015-06-18/b00002833_21i7lf_20150618_122813e (1).jpg'
p2165
sg4
(lp2166
(g15
g6
(g18
S'V\xf3\xdb>'
p2167
tp2168
Rp2169
tp2170
a(g32
g6
(g18
S'9\xech>'
p2171
tp2172
Rp2173
tp2174
a(g143
g6
(g18
S'\xfd[\xb5='
p2175
tp2176
Rp2177
tp2178
a(g68
g6
(g18
S'\xfeAg='
p2179
tp2180
Rp2181
tp2182
a(g201
g6
(g18
S'y\xc0B='
p2183
tp2184
Rp2185
tp2186
asg73
g44
sa(dp2187
g2
S'../../../data/emanuela/activity-recognition/images/NTCIR-Lifelog-256/u2/2015-06-18/b00002830_21i7lf_20150618_122625e.jpg'
p2188
sg4
(lp2189
(g15
g6
(g18
S'E\x1e\xce>'
p2190
tp2191
Rp2192
tp2193
a(g32
g6
(g18
S'\xea\x0e\xbd>'
p2194
tp2195
Rp2196
tp2197
a(g143
g6
(g18
S'\xcd\x1d^='
p2198
tp2199
Rp2200
tp2201
a(g201
g6
(g18
S'\xf7oE='
p2202
tp2203
Rp2204
tp2205
a(g68
g6
(g18
S'\x12\x18"='
p2206
tp2207
Rp2208
tp2209
asg73
g44
sa(dp2210
g2
S'../../../data/emanuela/activity-recognition/images/NTCIR-Lifelog-256/u2/2015-06-16/b00001331_21i7lf_20150616_070940e.jpg'
p2211
sg4
(lp2212
(g44
g6
(g18
S'gBk?'
p2213
tp2214
Rp2215
tp2216
a(g112
g6
(g18
S'\x14\xea\x8b='
p2217
tp2218
Rp2219
tp2220
a(g68
g6
(g18
S'Z\\\xa9;'
p2221
tp2222
Rp2223
tp2224
a(g100
g6
(g18
S'\xd1\x06\xfb:'
p2225
tp2226
Rp2227
tp2228
a(g267
g6
(g18
S'\xe4e\xbf:'
p2229
tp2230
Rp2231
tp2232
asg73
g44
sa(dp2233
g2
S'../../../data/emanuela/activity-recognition/images/NTCIR-Lifelog-256/u2/2015-05-03/b00004036_21i7lf_20150503_172308e.jpg'
p2234
sg4
(lp2235
(g112
g6
(g18
S"\xcb\xe3'?"
p2236
tp2237
Rp2238
tp2239
a(g44
g6
(g18
S's\xcef>'
p2240
tp2241
Rp2242
tp2243
a(g251
g6
(g18
S'\xb0\xbcJ='
p2244
tp2245
Rp2246
tp2247
a(g267
g6
(g18
S'\x97\x83\x95<'
p2248
tp2249
Rp2250
tp2251
a(g32
g6
(g18
S'\xccT\x83<'
p2252
tp2253
Rp2254
tp2255
asg73
g44
sa(dp2256
g2
S'../../../data/emanuela/activity-recognition/images/NTCIR-Lifelog-256/u2/2015-06-18/b00002835_21i7lf_20150618_122924e.jpg'
p2257
sg4
(lp2258
(g143
g6
(g18
S'w\x15\xbb>'
p2259
tp2260
Rp2261
tp2262
a(g68
g6
(g18
S'\xcbH\x9d>'
p2263
tp2264
Rp2265
tp2266
a(g44
g6
(g18
S'PP\xcc='
p2267
tp2268
Rp2269
tp2270
a(g112
g6
(g18
S'\x1f\xb2\x85='
p2271
tp2272
Rp2273
tp2274
a(g479
g6
(g18
S'\xc3lH='
p2275
tp2276
Rp2277
tp2278
asg73
g44
sa(dp2279
g2
S'../../../data/emanuela/activity-recognition/images/NTCIR-Lifelog-256/u2/2015-06-17/b00002163_21i7lf_20150617_104449e.jpg'
p2280
sg4
(lp2281
(g44
g6
(g18
S'#\xd8\x15?'
p2282
tp2283
Rp2284
tp2285
a(g15
g6
(g18
S'\x80\xae.>'
p2286
tp2287
Rp2288
tp2289
a(g267
g6
(g18
S'\x1c\x02{='
p2290
tp2291
Rp2292
tp2293
a(g68
g6
(g18
S'|\x8aQ='
p2294
tp2295
Rp2296
tp2297
a(g100
g6
(g18
S'\x1d\xe4\xa3<'
p2298
tp2299
Rp2300
tp2301
asg73
g44
sa(dp2302
g2
S'../../../data/emanuela/activity-recognition/images/NTCIR-Lifelog-256/u2/2015-06-19/b00002949_21i7lf_20150619_064101e.jpg'
p2303
sg4
(lp2304
(g68
g6
(g18
S'p\xc6\xd7>'
p2305
tp2306
Rp2307
tp2308
a(g143
g6
(g18
S'\xa8 w>'
p2309
tp2310
Rp2311
tp2312
a(g44
g6
(g18
S'\x1e\x80H>'
p2313
tp2314
Rp2315
tp2316
a(g15
g6
(g18
S'8\xeb\x1b='
p2317
tp2318
Rp2319
tp2320
a(g267
g6
(g18
S'\x80`\xc3<'
p2321
tp2322
Rp2323
tp2324
asg73
g44
sa(dp2325
g2
S'../../../data/emanuela/activity-recognition/images/NTCIR-Lifelog-256/u2/2015-06-17/b00002415_21i7lf_20150617_135303e.jpg'
p2326
sg4
(lp2327
(g44
g6
(g18
S'/ ]?'
p2328
tp2329
Rp2330
tp2331
a(g267
g6
(g18
S'\x86\xc7\xf3='
p2332
tp2333
Rp2334
tp2335
a(g68
g6
(g18
S'_\xd5\x11<'
p2336
tp2337
Rp2338
tp2339
a(g100
g6
(g18
S'\x97\x0c\x7f;'
p2340
tp2341
Rp2342
tp2343
a(g143
g6
(g18
S'b\x9ci;'
p2344
tp2345
Rp2346
tp2347
asg73
g44
sa(dp2348
g2
S'../../../data/emanuela/activity-recognition/images/NTCIR-Lifelog-256/u2/2015-06-20/b00004229_21i7lf_20150620_090646e.jpg'
p2349
sg4
(lp2350
(g232
g6
(g18
S'Mp\xc9>'
p2351
tp2352
Rp2353
tp2354
a(g68
g6
(g18
S'\x17u\x80>'
p2355
tp2356
Rp2357
tp2358
a(g56
g6
(g18
S'\x1cMo>'
p2359
tp2360
Rp2361
tp2362
a(g15
g6
(g18
S'\x92\xa8R='
p2363
tp2364
Rp2365
tp2366
a(g201
g6
(g18
S'U8m<'
p2367
tp2368
Rp2369
tp2370
asg73
g44
sa(dp2371
g2
S'../../../data/emanuela/activity-recognition/images/NTCIR-Lifelog-256/u2/2015-05-03/b00003774_21i7lf_20150503_143937e.jpg'
p2372
sg4
(lp2373
(g44
g6
(g18
S'9\x94\x7f?'
p2374
tp2375
Rp2376
tp2377
a(g88
g6
(g18
S'\x82\x97W:'
p2378
tp2379
Rp2380
tp2381
a(g394
g6
(g18
S'\x16,\x859'
p2382
tp2383
Rp2384
tp2385
a(g425
g6
(g18
S'}\xa0$9'
p2386
tp2387
Rp2388
tp2389
a(g267
g6
(g18
S'\xe3\xc1\x149'
p2390
tp2391
Rp2392
tp2393
asg73
g44
sa(dp2394
g2
S'../../../data/emanuela/activity-recognition/images/NTCIR-Lifelog-256/u2/2015-06-16/b00001345_21i7lf_20150616_071804e.jpg'
p2395
sg4
(lp2396
(g394
g6
(g18
S'\x14\xe9t?'
p2397
tp2398
Rp2399
tp2400
a(g44
g6
(g18
S'\xb81\x9b<'
p2401
tp2402
Rp2403
tp2404
a(g100
g6
(g18
S'\xd0O\x96<'
p2405
tp2406
Rp2407
tp2408
a(g68
g6
(g18
S':7\x92;'
p2409
tp2410
Rp2411
tp2412
a(g112
g6
(g18
S'9\x96I:'
p2413
tp2414
Rp2415
tp2416
asg73
g44
sa(dp2417
g2
S'../../../data/emanuela/activity-recognition/images/NTCIR-Lifelog-256/u2/2015-06-18/b00002847_21i7lf_20150618_123840e.jpg'
p2418
sg4
(lp2419
(g15
g6
(g18
S"'\xb4\n?"
p2420
tp2421
Rp2422
tp2423
a(g44
g6
(g18
S'\xcb\x0b\xa3>'
p2424
tp2425
Rp2426
tp2427
a(g68
g6
(g18
S'\x81\x94"='
p2428
tp2429
Rp2430
tp2431
a(g32
g6
(g18
S'lG\xc3<'
p2432
tp2433
Rp2434
tp2435
a(g100
g6
(g18
S':b\xbf<'
p2436
tp2437
Rp2438
tp2439
asg73
g44
sa(dp2440
g2
S'../../../data/emanuela/activity-recognition/images/NTCIR-Lifelog-256/u2/2015-06-16/b00001343_21i7lf_20150616_071648e.jpg'
p2441
sg4
(lp2442
(g44
g6
(g18
S'\xb1\x89k?'
p2443
tp2444
Rp2445
tp2446
a(g68
g6
(g18
S'\x8d\x91l='
p2447
tp2448
Rp2449
tp2450
a(g100
g6
(g18
S'v\x93\x1c<'
p2451
tp2452
Rp2453
tp2454
a(g112
g6
(g18
S'T\xd7m;'
p2455
tp2456
Rp2457
tp2458
a(g267
g6
(g18
S'\x7f\xfa&;'
p2459
tp2460
Rp2461
tp2462
asg73
g44
sa(dp2463
g2
S'../../../data/emanuela/activity-recognition/images/NTCIR-Lifelog-256/u2/2015-06-20/b00004223_21i7lf_20150620_085842e.jpg'
p2464
sg4
(lp2465
(g68
g6
(g18
S'\x9awX?'
p2466
tp2467
Rp2468
tp2469
a(g698
g6
(g18
S'\xb6\xc1\x8a='
p2470
tp2471
Rp2472
tp2473
a(g88
g6
(g18
S'\xa9)\xfb<'
p2474
tp2475
Rp2476
tp2477
a(g143
g6
(g18
S'[\x03\xe4<'
p2478
tp2479
Rp2480
tp2481
a(g15
g6
(g18
S'\xea#+<'
p2482
tp2483
Rp2484
tp2485
asg73
g44
sa(dp2486
g2
S'../../../data/emanuela/activity-recognition/images/NTCIR-Lifelog-256/u2/2015-06-16/b00001346_21i7lf_20150616_071841e.jpg'
p2487
sg4
(lp2488
(g44
g6
(g18
S'\x9c\xddi?'
p2489
tp2490
Rp2491
tp2492
a(g68
g6
(g18
S'\x9420='
p2493
tp2494
Rp2495
tp2496
a(g100
g6
(g18
S'\xf5\xf5\x88<'
p2497
tp2498
Rp2499
tp2500
a(g267
g6
(g18
S'\x89\xe1\xe7;'
p2501
tp2502
Rp2503
tp2504
a(g32
g6
(g18
S'\x8f&\x90;'
p2505
tp2506
Rp2507
tp2508
asg73
g44
sa(dp2509
g2
S'../../../data/emanuela/activity-recognition/images/NTCIR-Lifelog-256/u2/2015-06-16/b00001342_21i7lf_20150616_071607e.jpg'
p2510
sg4
(lp2511
(g44
g6
(g18
S'\xe3\x04s?'
p2512
tp2513
Rp2514
tp2515
a(g68
g6
(g18
S'r\x1f\xf1<'
p2516
tp2517
Rp2518
tp2519
a(g100
g6
(g18
S'\xf3\x8fw<'
p2520
tp2521
Rp2522
tp2523
a(g112
g6
(g18
S'M\xf0\xce:'
p2524
tp2525
Rp2526
tp2527
a(g425
g6
(g18
S'\x90,e:'
p2528
tp2529
Rp2530
tp2531
asg73
g44
sa(dp2532
g2
S'../../../data/emanuela/activity-recognition/images/NTCIR-Lifelog-256/u2/2015-06-16/b00001321_21i7lf_20150616_070354e.jpg'
p2533
sg4
(lp2534
(g44
g6
(g18
S'\xf9\xe6Z?'
p2535
tp2536
Rp2537
tp2538
a(g112
g6
(g18
S'\xd0\xdd\x00>'
p2539
tp2540
Rp2541
tp2542
a(g68
g6
(g18
S'.\x9f\xa3;'
p2543
tp2544
Rp2545
tp2546
a(g267
g6
(g18
S'U)\x9f;'
p2547
tp2548
Rp2549
tp2550
a(g394
g6
(g18
S'\xb0\x8by;'
p2551
tp2552
Rp2553
tp2554
asg73
g44
sa(dp2555
g2
S'../../../data/emanuela/activity-recognition/images/NTCIR-Lifelog-256/u2/2015-06-20/b00004622_21i7lf_20150620_125344e.jpg'
p2556
sg4
(lp2557
(g32
g6
(g18
S'\x01\xa3\xbc>'
p2558
tp2559
Rp2560
tp2561
a(g232
g6
(g18
S'\xd3\xed\xb6>'
p2562
tp2563
Rp2564
tp2565
a(g698
g6
(g18
S"\xbf'P>"
p2566
tp2567
Rp2568
tp2569
a(g56
g6
(g18
S'\xc0\x84\x1b='
p2570
tp2571
Rp2572
tp2573
a(g201
g6
(g18
S'z\xb2\x8d<'
p2574
tp2575
Rp2576
tp2577
asg73
g44
sa(dp2578
g2
S'../../../data/emanuela/activity-recognition/images/NTCIR-Lifelog-256/u2/2015-05-03/b00004038_21i7lf_20150503_172430e.jpg'
p2579
sg4
(lp2580
(g44
g6
(g18
S'\xe3H\x10?'
p2581
tp2582
Rp2583
tp2584
a(g112
g6
(g18
S'SO\x9b>'
p2585
tp2586
Rp2587
tp2588
a(g251
g6
(g18
S'K\x07\x83='
p2589
tp2590
Rp2591
tp2592
a(g100
g6
(g18
S'\x80W\xad<'
p2593
tp2594
Rp2595
tp2596
a(g32
g6
(g18
S'dLT<'
p2597
tp2598
Rp2599
tp2600
asg73
g44
sa(dp2601
g2
S'../../../data/emanuela/activity-recognition/images/NTCIR-Lifelog-256/u2/2015-06-20/b00004635_21i7lf_20150620_130520e.jpg'
p2602
sg4
(lp2603
(g68
g6
(g18
S'QX\xe9>'
p2604
tp2605
Rp2606
tp2607
a(g232
g6
(g18
S'\x16\xc2\xbc>'
p2608
tp2609
Rp2610
tp2611
a(g56
g6
(g18
S'\xa7\xf8\xcb='
p2612
tp2613
Rp2614
tp2615
a(g15
g6
(g18
S'\xff\xdc\x03='
p2616
tp2617
Rp2618
tp2619
a(g44
g6
(g18
S'L\xe0\xb3<'
p2620
tp2621
Rp2622
tp2623
asg73
g44
sa(dp2624
g2
S'../../../data/emanuela/activity-recognition/images/NTCIR-Lifelog-256/u2/2015-06-17/b00002164_21i7lf_20150617_104523e.jpg'
p2625
sg4
(lp2626
(g44
g6
(g18
S']\xc55?'
p2627
tp2628
Rp2629
tp2630
a(g15
g6
(g18
S'\xab\xaa\xc6='
p2631
tp2632
Rp2633
tp2634
a(g68
g6
(g18
S'\xe9\x03\x8d='
p2635
tp2636
Rp2637
tp2638
a(g267
g6
(g18
S'\xdc\x17\\='
p2639
tp2640
Rp2641
tp2642
a(g112
g6
(g18
S'\xfcS\xad<'
p2643
tp2644
Rp2645
tp2646
asg73
g44
sa(dp2647
g2
S'../../../data/emanuela/activity-recognition/images/NTCIR-Lifelog-256/u2/2015-06-18/b00002825_21i7lf_20150618_122308e.jpg'
p2648
sg4
(lp2649
(g15
g6
(g18
S'\x80\xbf\x92>'
p2650
tp2651
Rp2652
tp2653
a(g112
g6
(g18
S'\x82gn>'
p2654
tp2655
Rp2656
tp2657
a(g232
g6
(g18
S'\xe2>\x13>'
p2658
tp2659
Rp2660
tp2661
a(g68
g6
(g18
S'\xae\xc9\xa6='
p2662
tp2663
Rp2664
tp2665
a(g56
g6
(g18
S'\xf2)r='
p2666
tp2667
Rp2668
tp2669
asg73
g44
sa(dp2670
g2
S'../../../data/emanuela/activity-recognition/images/NTCIR-Lifelog-256/u2/2015-05-03/b00003767_21i7lf_20150503_143510e.jpg'
p2671
sg4
(lp2672
(g44
g6
(g18
S'\x82\xb1}?'
p2673
tp2674
Rp2675
tp2676
a(g68
g6
(g18
S'?\x14\x83;'
p2677
tp2678
Rp2679
tp2680
a(g100
g6
(g18
S'u\xa5\x0b;'
p2681
tp2682
Rp2683
tp2684
a(g267
g6
(g18
S'H\x94~:'
p2685
tp2686
Rp2687
tp2688
a(g15
g6
(g18
S'N\xb1R:'
p2689
tp2690
Rp2691
tp2692
asg73
g44
sa(dp2693
g2
S'../../../data/emanuela/activity-recognition/images/NTCIR-Lifelog-256/u2/2015-06-16/b00001347_21i7lf_20150616_071914e.jpg'
p2694
sg4
(lp2695
(g44
g6
(g18
S'\xda\xcfn?'
p2696
tp2697
Rp2698
tp2699
a(g68
g6
(g18
S'h\x908='
p2700
tp2701
Rp2702
tp2703
a(g100
g6
(g18
S'\xfd\xd34<'
p2704
tp2705
Rp2706
tp2707
a(g32
g6
(g18
S'\x86l\x91;'
p2708
tp2709
Rp2710
tp2711
a(g112
g6
(g18
S'\xe7\xcfC;'
p2712
tp2713
Rp2714
tp2715
asg73
g44
sa(dp2716
g2
S'../../../data/emanuela/activity-recognition/images/NTCIR-Lifelog-256/u2/2015-05-03/b00003769_21i7lf_20150503_143624e.jpg'
p2717
sg4
(lp2718
(g44
g6
(g18
S'\xf4[~?'
p2719
tp2720
Rp2721
tp2722
a(g88
g6
(g18
S'+\xfb\xd9:'
p2723
tp2724
Rp2725
tp2726
a(g425
g6
(g18
S'\xb5\x04\xcd:'
p2727
tp2728
Rp2729
tp2730
a(g394
g6
(g18
S'6U\x99:'
p2731
tp2732
Rp2733
tp2734
a(g267
g6
(g18
S'wQ\x15:'
p2735
tp2736
Rp2737
tp2738
asg73
g44
sa(dp2739
g2
S'../../../data/emanuela/activity-recognition/images/NTCIR-Lifelog-256/u2/2015-05-03/b00003772_21i7lf_20150503_143821e.jpg'
p2740
sg4
(lp2741
(g44
g6
(g18
S'\x9b\xc3{?'
p2742
tp2743
Rp2744
tp2745
a(g88
g6
(g18
S'\xfe\x081<'
p2746
tp2747
Rp2748
tp2749
a(g100
g6
(g18
S'\xcb\xb6*;'
p2750
tp2751
Rp2752
tp2753
a(g68
g6
(g18
S'\xb8\x03\x19:'
p2754
tp2755
Rp2756
tp2757
a(g15
g6
(g18
S'*\xa4\x02:'
p2758
tp2759
Rp2760
tp2761
asg73
g44
sa(dp2762
g2
S'../../../data/emanuela/activity-recognition/images/NTCIR-Lifelog-256/u2/2015-06-20/b00004236_21i7lf_20150620_091557e.jpg'
p2763
sg4
(lp2764
(g112
g6
(g18
S'\x9d\x07w?'
p2765
tp2766
Rp2767
tp2768
a(g44
g6
(g18
S'\xd0z\xc0<'
p2769
tp2770
Rp2771
tp2772
a(g15
g6
(g18
S'\xcc5H;'
p2773
tp2774
Rp2775
tp2776
a(g68
g6
(g18
S'\x08(0;'
p2777
tp2778
Rp2779
tp2780
a(g267
g6
(g18
S'\x8b7\x1e;'
p2781
tp2782
Rp2783
tp2784
asg73
g44
sa(dp2785
g2
S'../../../data/emanuela/activity-recognition/images/NTCIR-Lifelog-256/u2/2015-06-18/b00002843_21i7lf_20150618_123603e.jpg'
p2786
sg4
(lp2787
(g44
g6
(g18
S'"\xb9%?'
p2788
tp2789
Rp2790
tp2791
a(g15
g6
(g18
S'<\xbc.>'
p2792
tp2793
Rp2794
tp2795
a(g201
g6
(g18
S'\xc9\x99T='
p2796
tp2797
Rp2798
tp2799
a(g32
g6
(g18
S'\xdf\xa4\x11='
p2800
tp2801
Rp2802
tp2803
a(g68
g6
(g18
S'\xb2T\xb7<'
p2804
tp2805
Rp2806
tp2807
asg73
g44
sa(dp2808
g2
S'../../../data/emanuela/activity-recognition/images/NTCIR-Lifelog-256/u2/2015-06-20/b00004256_21i7lf_20150620_094457e.jpg'
p2809
sg4
(lp2810
(g68
g6
(g18
S'\x9cn\x0b?'
p2811
tp2812
Rp2813
tp2814
a(g143
g6
(g18
S'\x12Q\xe6>'
p2815
tp2816
Rp2817
tp2818
a(g15
g6
(g18
S'6K\x0c;'
p2819
tp2820
Rp2821
tp2822
a(g232
g6
(g18
S'0t;:'
p2823
tp2824
Rp2825
tp2826
a(g112
g6
(g18
S'\x13\xab\x12:'
p2827
tp2828
Rp2829
tp2830
asg73
g44
sa(dp2831
g2
S'../../../data/emanuela/activity-recognition/images/NTCIR-Lifelog-256/u2/2015-06-18/b00002832_21i7lf_20150618_122737e.jpg'
p2832
sg4
(lp2833
(g15
g6
(g18
S'\xea\xe3\x0c?'
p2834
tp2835
Rp2836
tp2837
a(g32
g6
(g18
S'|\xb3\xfb='
p2838
tp2839
Rp2840
tp2841
a(g44
g6
(g18
S'\x1dz\xed='
p2842
tp2843
Rp2844
tp2845
a(g143
g6
(g18
S'96M='
p2846
tp2847
Rp2848
tp2849
a(g112
g6
(g18
S'\xa3t6='
p2850
tp2851
Rp2852
tp2853
asg73
g44
sa(dp2854
g2
S'../../../data/emanuela/activity-recognition/images/NTCIR-Lifelog-256/u2/2015-05-03/b00003779_21i7lf_20150503_144230e.jpg'
p2855
sg4
(lp2856
(g44
g6
(g18
S'}0\x7f?'
p2857
tp2858
Rp2859
tp2860
a(g88
g6
(g18
S'\xa8\xa5\xc1:'
p2861
tp2862
Rp2863
tp2864
a(g394
g6
(g18
S'\x1c\xac+:'
p2865
tp2866
Rp2867
tp2868
a(g68
g6
(g18
S'`\x1e\x9b9'
p2869
tp2870
Rp2871
tp2872
a(g425
g6
(g18
S'\xef\xe3e9'
p2873
tp2874
Rp2875
tp2876
asg73
g44
sa(dp2877
g2
S'../../../data/emanuela/activity-recognition/images/NTCIR-Lifelog-256/u2/2015-05-03/b00004040_21i7lf_20150503_172538e.jpg'
p2878
sg4
(lp2879
(g112
g6
(g18
S'\xff\xf1=?'
p2880
tp2881
Rp2882
tp2883
a(g44
g6
(g18
S'\x16\x8a<>'
p2884
tp2885
Rp2886
tp2887
a(g251
g6
(g18
S'\xba\xd2\x11='
p2888
tp2889
Rp2890
tp2891
a(g100
g6
(g18
S'L\x8d3<'
p2892
tp2893
Rp2894
tp2895
a(g267
g6
(g18
S'm}\xea;'
p2896
tp2897
Rp2898
tp2899
asg73
g44
sa(dp2900
g2
S'../../../data/emanuela/activity-recognition/images/NTCIR-Lifelog-256/u2/2015-05-03/b00003770_21i7lf_20150503_143704e.jpg'
p2901
sg4
(lp2902
(g44
g6
(g18
S'\x8a\x83s?'
p2903
tp2904
Rp2905
tp2906
a(g112
g6
(g18
S'\xe0\x87w<'
p2907
tp2908
Rp2909
tp2910
a(g68
g6
(g18
S'G\x81*<'
p2911
tp2912
Rp2913
tp2914
a(g88
g6
(g18
S'-\x03\x08<'
p2915
tp2916
Rp2917
tp2918
a(g394
g6
(g18
S'\xfcY\xc6;'
p2919
tp2920
Rp2921
tp2922
asg73
g44
sa(dp2923
g2
S'../../../data/emanuela/activity-recognition/images/NTCIR-Lifelog-256/u2/2015-05-03/b00004043_21i7lf_20150503_172740e.jpg'
p2924
sg4
(lp2925
(g112
g6
(g18
S'\x8b\xef\x1f?'
p2926
tp2927
Rp2928
tp2929
a(g44
g6
(g18
S'\x12\xeb\xac='
p2930
tp2931
Rp2932
tp2933
a(g479
g6
(g18
S'@\xfb\x11='
p2934
tp2935
Rp2936
tp2937
a(g251
g6
(g18
S'?\x1f\x07='
p2938
tp2939
Rp2940
tp2941
a(g594
g6
(g18
S'\xb2/\x01='
p2942
tp2943
Rp2944
tp2945
asg73
g44
sa(dp2946
g2
S'../../../data/emanuela/activity-recognition/images/NTCIR-Lifelog-256/u2/2015-06-16/b00001326_21i7lf_20150616_070645e.jpg'
p2947
sg4
(lp2948
(g44
g6
(g18
S'\xa5\x06\x17?'
p2949
tp2950
Rp2951
tp2952
a(g112
g6
(g18
S'0\x08\x85>'
p2953
tp2954
Rp2955
tp2956
a(g394
g6
(g18
S'aG\x81='
p2957
tp2958
Rp2959
tp2960
a(g68
g6
(g18
S'\xa3\x98\xae<'
p2961
tp2962
Rp2963
tp2964
a(g232
g6
(g18
S'g\x80q<'
p2965
tp2966
Rp2967
tp2968
asg73
g44
sa(dp2969
g2
S'../../../data/emanuela/activity-recognition/images/NTCIR-Lifelog-256/u2/2015-05-03/b00004032_21i7lf_20150503_172044e.jpg'
p2970
sg4
(lp2971
(g112
g6
(g18
S'g\xae\x00?'
p2972
tp2973
Rp2974
tp2975
a(g267
g6
(g18
S'w\xe7\xd0='
p2976
tp2977
Rp2978
tp2979
a(g88
g6
(g18
S'1\xfa\xbc='
p2980
tp2981
Rp2982
tp2983
a(g44
g6
(g18
S'\x04\x08\xb7='
p2984
tp2985
Rp2986
tp2987
a(g251
g6
(g18
S'\x9ey\x85='
p2988
tp2989
Rp2990
tp2991
asg73
g44
sa(dp2992
g2
S'../../../data/emanuela/activity-recognition/images/NTCIR-Lifelog-256/u2/2015-05-03/b00004045_21i7lf_20150503_172857e.jpg'
p2993
sg4
(lp2994
(g112
g6
(g18
S'\xf3{\xc5>'
p2995
tp2996
Rp2997
tp2998
a(g251
g6
(g18
S'\xfd\xa9\xf8='
p2999
tp3000
Rp3001
tp3002
a(g394
g6
(g18
S'\xd3\x8a\xd3='
p3003
tp3004
Rp3005
tp3006
a(g44
g6
(g18
S';\xfc\xd1='
p3007
tp3008
Rp3009
tp3010
a(g479
g6
(g18
S'\xb4\x8d\xb5='
p3011
tp3012
Rp3013
tp3014
asg73
g44
sa(dp3015
g2
S'../../../data/emanuela/activity-recognition/images/NTCIR-Lifelog-256/u2/2015-06-20/b00004642_21i7lf_20150620_131521e.jpg'
p3016
sg4
(lp3017
(g15
g6
(g18
S'\xf1\x04\x02?'
p3018
tp3019
Rp3020
tp3021
a(g68
g6
(g18
S'Q\x08g>'
p3022
tp3023
Rp3024
tp3025
a(g44
g6
(g18
S'O8\x06>'
p3026
tp3027
Rp3028
tp3029
a(g56
g6
(g18
S'\x81\xe0B='
p3030
tp3031
Rp3032
tp3033
a(g143
g6
(g18
S'9\xf5\x14='
p3034
tp3035
Rp3036
tp3037
asg73
g44
sa(dp3038
g2
S'../../../data/emanuela/activity-recognition/images/NTCIR-Lifelog-256/u2/2015-06-17/b00002162_21i7lf_20150617_104408e.jpg'
p3039
sg4
(lp3040
(g44
g6
(g18
S'\x11(\x05?'
p3041
tp3042
Rp3043
tp3044
a(g112
g6
(g18
S'\tg\x80>'
p3045
tp3046
Rp3047
tp3048
a(g68
g6
(g18
S'\xbd\xfb\xef='
p3049
tp3050
Rp3051
tp3052
a(g15
g6
(g18
S'u\xd2/='
p3053
tp3054
Rp3055
tp3056
a(g88
g6
(g18
S'@\x91\x9c<'
p3057
tp3058
Rp3059
tp3060
asg73
g44
sa(dp3061
g2
S'../../../data/emanuela/activity-recognition/images/NTCIR-Lifelog-256/u2/2015-05-03/b00004053_21i7lf_20150503_173352e.jpg'
p3062
sg4
(lp3063
(g112
g6
(g18
S'sE\x00?'
p3064
tp3065
Rp3066
tp3067
a(g44
g6
(g18
S'\x1a!=>'
p3068
tp3069
Rp3070
tp3071
a(g251
g6
(g18
S'\x7f\xb6\x11>'
p3072
tp3073
Rp3074
tp3075
a(g88
g6
(g18
S'O\xeeU='
p3076
tp3077
Rp3078
tp3079
a(g100
g6
(g18
S'BC\x02='
p3080
tp3081
Rp3082
tp3083
asg73
g44
sa(dp3084
g2
S'../../../data/emanuela/activity-recognition/images/NTCIR-Lifelog-256/u2/2015-06-20/b00004621_21i7lf_20150620_125304e.jpg'
p3085
sg4
(lp3086
(g68
g6
(g18
S'C\xcar?'
p3087
tp3088
Rp3089
tp3090
a(g232
g6
(g18
S'v<\xc7<'
p3091
tp3092
Rp3093
tp3094
a(g100
g6
(g18
S'\xbc\x18\r<'
p3095
tp3096
Rp3097
tp3098
a(g44
g6
(g18
S'\x11\x12\xdd;'
p3099
tp3100
Rp3101
tp3102
a(g143
g6
(g18
S'\xd6?\xad;'
p3103
tp3104
Rp3105
tp3106
asg73
g44
sa(dp3107
g2
S'../../../data/emanuela/activity-recognition/images/NTCIR-Lifelog-256/u2/2015-05-03/b00003782_21i7lf_20150503_144430e.jpg'
p3108
sg4
(lp3109
(g44
g6
(g18
S'\x93*\x7f?'
p3110
tp3111
Rp3112
tp3113
a(g88
g6
(g18
S'B,4;'
p3114
tp3115
Rp3116
tp3117
a(g394
g6
(g18
S'ZE\x1a9'
p3118
tp3119
Rp3120
tp3121
a(g267
g6
(g18
S'&\x80\xc38'
p3122
tp3123
Rp3124
tp3125
a(g112
g6
(g18
S'\x16\xd4\xbc8'
p3126
tp3127
Rp3128
tp3129
asg73
g44
sa(dp3130
g2
S'../../../data/emanuela/activity-recognition/images/NTCIR-Lifelog-256/u2/2015-06-18/b00002846_21i7lf_20150618_123800e.jpg'
p3131
sg4
(lp3132
(g44
g6
(g18
S'^7$?'
p3133
tp3134
Rp3135
tp3136
a(g15
g6
(g18
S'\x02r\x8c>'
p3137
tp3138
Rp3139
tp3140
a(g32
g6
(g18
S'\xcc\xcf\x93='
p3141
tp3142
Rp3143
tp3144
a(g68
g6
(g18
S'=C|;'
p3145
tp3146
Rp3147
tp3148
a(g100
g6
(g18
S'\x9d*\xf9:'
p3149
tp3150
Rp3151
tp3152
asg73
g44
sa(dp3153
g2
S'../../../data/emanuela/activity-recognition/images/NTCIR-Lifelog-256/u2/2015-06-18/b00002840_21i7lf_20150618_123405e.jpg'
p3154
sg4
(lp3155
(g68
g6
(g18
S'\xa2\x9bb?'
p3156
tp3157
Rp3158
tp3159
a(g100
g6
(g18
S'\xba\xa0\xb8<'
p3160
tp3161
Rp3162
tp3163
a(g44
g6
(g18
S'a\x83\x91<'
p3164
tp3165
Rp3166
tp3167
a(g143
g6
(g18
S'\x16\x8d\x8a<'
p3168
tp3169
Rp3170
tp3171
a(g15
g6
(g18
S'\xfb#|<'
p3172
tp3173
Rp3174
tp3175
asg73
g44
sa(dp3176
g2
S'../../../data/emanuela/activity-recognition/images/NTCIR-Lifelog-256/u2/2015-06-17/b00002159_21i7lf_20150617_104217e.jpg'
p3177
sg4
(lp3178
(g68
g6
(g18
S'\\= ?'
p3179
tp3180
Rp3181
tp3182
a(g44
g6
(g18
S'K\x16J>'
p3183
tp3184
Rp3185
tp3186
a(g143
g6
(g18
S'\xb2\x1d\xae='
p3187
tp3188
Rp3189
tp3190
a(g15
g6
(g18
S'\xa2\x90\x05='
p3191
tp3192
Rp3193
tp3194
a(g100
g6
(g18
S'\t\x83\xbd<'
p3195
tp3196
Rp3197
tp3198
asg73
g44
sa(dp3199
g2
S'../../../data/emanuela/activity-recognition/images/NTCIR-Lifelog-256/u2/2015-05-03/b00004030_21i7lf_20150503_171928e (1).jpg'
p3200
sg4
(lp3201
(g100
g6
(g18
S'1\xdd]?'
p3202
tp3203
Rp3204
tp3205
a(g44
g6
(g18
S'\xc9\xe2F='
p3206
tp3207
Rp3208
tp3209
a(g68
g6
(g18
S'\x06\xef1='
p3210
tp3211
Rp3212
tp3213
a(g56
g6
(g18
S'\xf2\xe3\x85<'
p3214
tp3215
Rp3216
tp3217
a(g88
g6
(g18
S'\xb6s\xd8;'
p3218
tp3219
Rp3220
tp3221
asg73
g44
sa(dp3222
g2
S'../../../data/emanuela/activity-recognition/images/NTCIR-Lifelog-256/u2/2015-06-20/b00004227_21i7lf_20150620_090356e.jpg'
p3223
sg4
(lp3224
(g68
g6
(g18
S't\x9br?'
p3225
tp3226
Rp3227
tp3228
a(g56
g6
(g18
S'\x87z\xdc<'
p3229
tp3230
Rp3231
tp3232
a(g44
g6
(g18
S'\xc0\xd1\x1b<'
p3233
tp3234
Rp3235
tp3236
a(g100
g6
(g18
S'\xb7M\xcf;'
p3237
tp3238
Rp3239
tp3240
a(g267
g6
(g18
S'%\xdbE;'
p3241
tp3242
Rp3243
tp3244
asg73
g44
sa(dp3245
g2
S'../../../data/emanuela/activity-recognition/images/NTCIR-Lifelog-256/u2/2015-05-03/b00003761_21i7lf_20150503_143135e.jpg'
p3246
sg4
(lp3247
(g15
g6
(g18
S'\xb6\x88E?'
p3248
tp3249
Rp3250
tp3251
a(g68
g6
(g18
S'\xff\xbf\x04>'
p3252
tp3253
Rp3254
tp3255
a(g44
g6
(g18
S')@:='
p3256
tp3257
Rp3258
tp3259
a(g143
g6
(g18
S'\xa8\x0f\xb5<'
p3260
tp3261
Rp3262
tp3263
a(g100
g6
(g18
S'\xbf`3<'
p3264
tp3265
Rp3266
tp3267
asg73
g44
sa(dp3268
g2
S'../../../data/emanuela/activity-recognition/images/NTCIR-Lifelog-256/u2/2015-04-21/b00000842_21i7lf_20150421_182959e.jpg'
p3269
sg4
(lp3270
(g44
g6
(g18
S'>r\x1c?'
p3271
tp3272
Rp3273
tp3274
a(g32
g6
(g18
S'\xf9\xb2h>'
p3275
tp3276
Rp3277
tp3278
a(g15
g6
(g18
S'\xd3\xa4\r>'
p3279
tp3280
Rp3281
tp3282
a(g68
g6
(g18
S'\xafk\x84<'
p3283
tp3284
Rp3285
tp3286
a(g56
g6
(g18
S'aS{;'
p3287
tp3288
Rp3289
tp3290
asg73
g44
sa(dp3291
g2
S'../../../data/emanuela/activity-recognition/images/NTCIR-Lifelog-256/u2/2015-06-20/b00004225_21i7lf_20150620_090144e.jpg'
p3292
sg4
(lp3293
(g68
g6
(g18
S'\xb1\x9ca?'
p3294
tp3295
Rp3296
tp3297
a(g44
g6
(g18
S'\x1f\n\x01='
p3298
tp3299
Rp3300
tp3301
a(g100
g6
(g18
S'\x06B\x94<'
p3302
tp3303
Rp3304
tp3305
a(g143
g6
(g18
S'\xf9\xbdw<'
p3306
tp3307
Rp3308
tp3309
a(g32
g6
(g18
S'\x10\x9d\x0f<'
p3310
tp3311
Rp3312
tp3313
asg73
g44
sa(dp3314
g2
S'../../../data/emanuela/activity-recognition/images/NTCIR-Lifelog-256/u2/2015-05-03/b00003766_21i7lf_20150503_143437e.jpg'
p3315
sg4
(lp3316
(g44
g6
(g18
S'\x9f\x90\x7f?'
p3317
tp3318
Rp3319
tp3320
a(g68
g6
(g18
S'-xp:'
p3321
tp3322
Rp3323
tp3324
a(g15
g6
(g18
S'\x1fB\xbf9'
p3325
tp3326
Rp3327
tp3328
a(g267
g6
(g18
S'd\xe2\x0c9'
p3329
tp3330
Rp3331
tp3332
a(g32
g6
(g18
S'\xae\x08\xcd8'
p3333
tp3334
Rp3335
tp3336
asg73
g44
sa(dp3337
g2
S'../../../data/emanuela/activity-recognition/images/NTCIR-Lifelog-256/u2/2015-06-19/b00002950_21i7lf_20150619_064136e.jpg'
p3338
sg4
(lp3339
(g68
g6
(g18
S'\x9aM\xc9>'
p3340
tp3341
Rp3342
tp3343
a(g44
g6
(g18
S'\x19\xe7\xa7>'
p3344
tp3345
Rp3346
tp3347
a(g143
g6
(g18
S'\x06\x1a>>'
p3348
tp3349
Rp3350
tp3351
a(g267
g6
(g18
S'\x04\xf6\xeb<'
p3352
tp3353
Rp3354
tp3355
a(g15
g6
(g18
S':\x9e\xa2<'
p3356
tp3357
Rp3358
tp3359
asg73
g44
sa(dp3360
g2
S'../../../data/emanuela/activity-recognition/images/NTCIR-Lifelog-256/u2/2015-06-17/b00002411_21i7lf_20150617_134923e.jpg'
p3361
sg4
(lp3362
(g32
g6
(g18
S'\xab6\xfc>'
p3363
tp3364
Rp3365
tp3366
a(g15
g6
(g18
S'\xa7\xf7\x88>'
p3367
tp3368
Rp3369
tp3370
a(g44
g6
(g18
S'\x93\x96d='
p3371
tp3372
Rp3373
tp3374
a(g143
g6
(g18
S'\x1dl\x1e='
p3375
tp3376
Rp3377
tp3378
a(g68
g6
(g18
S'\xc0\xdf\x10='
p3379
tp3380
Rp3381
tp3382
asg73
g44
sa(dp3383
g2
S'../../../data/emanuela/activity-recognition/images/NTCIR-Lifelog-256/u2/2015-05-03/b00003793_21i7lf_20150503_145100e.jpg'
p3384
sg4
(lp3385
(g44
g6
(g18
S'\xe1\x851?'
p3386
tp3387
Rp3388
tp3389
a(g68
g6
(g18
S'\x81\x99/>'
p3390
tp3391
Rp3392
tp3393
a(g88
g6
(g18
S'\xff\x89\x8b='
p3394
tp3395
Rp3396
tp3397
a(g394
g6
(g18
S'\xffL\xc3<'
p3398
tp3399
Rp3400
tp3401
a(g2086
g6
(g18
S'\xfb\xe8\x83<'
p3402
tp3403
Rp3404
tp3405
asg73
g44
sa(dp3406
g2
S'../../../data/emanuela/activity-recognition/images/NTCIR-Lifelog-256/u2/2015-06-18/b00002828_21i7lf_20150618_122510e.jpg'
p3407
sg4
(lp3408
(g15
g6
(g18
S'\xbfd\xb4>'
p3409
tp3410
Rp3411
tp3412
a(g32
g6
(g18
S'\x9e\xa9\xa8>'
p3413
tp3414
Rp3415
tp3416
a(g201
g6
(g18
S'L\x0e\xa6='
p3417
tp3418
Rp3419
tp3420
a(g44
g6
(g18
S'NE\x8e='
p3421
tp3422
Rp3423
tp3424
a(g68
g6
(g18
S'r\xf8Z='
p3425
tp3426
Rp3427
tp3428
asg73
g44
sa(dp3429
g2
S'../../../data/emanuela/activity-recognition/images/NTCIR-Lifelog-256/u2/2015-05-03/b00003789_21i7lf_20150503_144840e.jpg'
p3430
sg4
(lp3431
(g44
g6
(g18
S'|as?'
p3432
tp3433
Rp3434
tp3435
a(g88
g6
(g18
S'\x14\x94\x9a<'
p3436
tp3437
Rp3438
tp3439
a(g68
g6
(g18
S'2\xe2\x8d<'
p3440
tp3441
Rp3442
tp3443
a(g100
g6
(g18
S'\x8e%\x1e;'
p3444
tp3445
Rp3446
tp3447
a(g425
g6
(g18
S'\xaf0\x12;'
p3448
tp3449
Rp3450
tp3451
asg73
g44
sa(dp3452
g2
S'../../../data/emanuela/activity-recognition/images/NTCIR-Lifelog-256/u2/2015-06-19/b00002948_21i7lf_20150619_064018e.jpg'
p3453
sg4
(lp3454
(g68
g6
(g18
S'V!\x15?'
p3455
tp3456
Rp3457
tp3458
a(g44
g6
(g18
S'z\x99]>'
p3459
tp3460
Rp3461
tp3462
a(g143
g6
(g18
S' \x1e\x9c='
p3463
tp3464
Rp3465
tp3466
a(g56
g6
(g18
S'\xdc\xa3\x0c='
p3467
tp3468
Rp3469
tp3470
a(g100
g6
(g18
S'GR\x07='
p3471
tp3472
Rp3473
tp3474
asg73
g44
sa(dp3475
g2
S'../../../data/emanuela/activity-recognition/images/NTCIR-Lifelog-256/u2/2015-04-24/b00002788_21i7lf_20150424_182645e.jpg'
p3476
sg4
(lp3477
(g44
g6
(g18
S'\x07x_?'
p3478
tp3479
Rp3480
tp3481
a(g100
g6
(g18
S'\xe3p\xfa='
p3482
tp3483
Rp3484
tp3485
a(g68
g6
(g18
S'\x03|X;'
p3486
tp3487
Rp3488
tp3489
a(g112
g6
(g18
S'\x19\xfdV:'
p3490
tp3491
Rp3492
tp3493
a(g88
g6
(g18
S'&_\xce9'
p3494
tp3495
Rp3496
tp3497
asg73
g44
sa(dp3498
g2
S'../../../data/emanuela/activity-recognition/images/NTCIR-Lifelog-256/u2/2015-06-16/b00001315_21i7lf_20150616_070022e.jpg'
p3499
sg4
(lp3500
(g44
g6
(g18
S'\x16\xc1\xf8>'
p3501
tp3502
Rp3503
tp3504
a(g112
g6
(g18
S'\xd0\x86\xf5>'
p3505
tp3506
Rp3507
tp3508
a(g594
g6
(g18
S'\x8aS-<'
p3509
tp3510
Rp3511
tp3512
a(g394
g6
(g18
S'\x12\xda\xa9;'
p3513
tp3514
Rp3515
tp3516
a(g267
g6
(g18
S'F\x10\x96;'
p3517
tp3518
Rp3519
tp3520
asg73
g44
sa(dp3521
g2
S'../../../data/emanuela/activity-recognition/images/NTCIR-Lifelog-256/u2/2015-06-16/b00001329_21i7lf_20150616_070831e.jpg'
p3522
sg4
(lp3523
(g44
g6
(g18
S'\x06\xd0\x1f?'
p3524
tp3525
Rp3526
tp3527
a(g68
g6
(g18
S'\xf2\xc9\xed='
p3528
tp3529
Rp3530
tp3531
a(g112
g6
(g18
S'\x8c\xa3k='
p3532
tp3533
Rp3534
tp3535
a(g56
g6
(g18
S'H<I='
p3536
tp3537
Rp3538
tp3539
a(g32
g6
(g18
S'\x19\xe2\xd7<'
p3540
tp3541
Rp3542
tp3543
asg73
g44
sa(dp3544
g2
S'../../../data/emanuela/activity-recognition/images/NTCIR-Lifelog-256/u2/2015-06-20/b00004255_21i7lf_20150620_094328e.jpg'
p3545
sg4
(lp3546
(g68
g6
(g18
S'\xe7\x1e<?'
p3547
tp3548
Rp3549
tp3550
a(g143
g6
(g18
S'\xa8\xfeG>'
p3551
tp3552
Rp3553
tp3554
a(g698
g6
(g18
S'\x14\x9a\xe2<'
p3555
tp3556
Rp3557
tp3558
a(g56
g6
(g18
S'\x81g/<'
p3559
tp3560
Rp3561
tp3562
a(g32
g6
(g18
S'\xa9\xd3\xc3;'
p3563
tp3564
Rp3565
tp3566
asg73
g44
sa(dp3567
g2
S'../../../data/emanuela/activity-recognition/images/NTCIR-Lifelog-256/u2/2015-04-24/b00002785_21i7lf_20150424_182450e.jpg'
p3568
sg4
(lp3569
(g394
g6
(g18
S'\xe6]V>'
p3570
tp3571
Rp3572
tp3573
a(g143
g6
(g18
S'K\x98%>'
p3574
tp3575
Rp3576
tp3577
a(g44
g6
(g18
S'\xdc\xbd\x04>'
p3578
tp3579
Rp3580
tp3581
a(g267
g6
(g18
S'\xb2\xa4\xe0='
p3582
tp3583
Rp3584
tp3585
a(g100
g6
(g18
S'\x95\x01\xcd='
p3586
tp3587
Rp3588
tp3589
asg73
g44
sa(dp3590
g2
S'../../../data/emanuela/activity-recognition/images/NTCIR-Lifelog-256/u2/2015-06-16/b00001333_21i7lf_20150616_071046e.jpg'
p3591
sg4
(lp3592
(g44
g6
(g18
S'|\x87D?'
p3593
tp3594
Rp3595
tp3596
a(g112
g6
(g18
S'e\xd1c>'
p3597
tp3598
Rp3599
tp3600
a(g68
g6
(g18
S'\xed\xfd9;'
p3601
tp3602
Rp3603
tp3604
a(g267
g6
(g18
S'\xa1\xa4\xb2:'
p3605
tp3606
Rp3607
tp3608
a(g88
g6
(g18
S'\xb1\x10\xb0:'
p3609
tp3610
Rp3611
tp3612
asg73
g44
sa(dp3613
g2
S'../../../data/emanuela/activity-recognition/images/NTCIR-Lifelog-256/u2/2015-06-20/b00004631_21i7lf_20150620_125938e.jpg'
p3614
sg4
(lp3615
(g232
g6
(g18
S'u(\x1f?'
p3616
tp3617
Rp3618
tp3619
a(g56
g6
(g18
S'2`7>'
p3620
tp3621
Rp3622
tp3623
a(g68
g6
(g18
S'\xb0\xbd\x06>'
p3624
tp3625
Rp3626
tp3627
a(g15
g6
(g18
S'd\x1d\xa8<'
p3628
tp3629
Rp3630
tp3631
a(g112
g6
(g18
S'\xbf\xdc\x9e<'
p3632
tp3633
Rp3634
tp3635
asg73
g44
sa(dp3636
g2
S'../../../data/emanuela/activity-recognition/images/NTCIR-Lifelog-256/u2/2015-06-20/b00004644_21i7lf_20150620_131812e.jpg'
p3637
sg4
(lp3638
(g68
g6
(g18
S'\xf4Dx?'
p3639
tp3640
Rp3641
tp3642
a(g143
g6
(g18
S'A\x97|<'
p3643
tp3644
Rp3645
tp3646
a(g100
g6
(g18
S'\x076N<'
p3647
tp3648
Rp3649
tp3650
a(g112
g6
(g18
S'\\c\r:'
p3651
tp3652
Rp3653
tp3654
a(g479
g6
(g18
S'\x94.\xc39'
p3655
tp3656
Rp3657
tp3658
asg73
g44
sa(dp3659
g2
S'../../../data/emanuela/activity-recognition/images/NTCIR-Lifelog-256/u2/2015-06-20/b00004226_21i7lf_20150620_090312e.jpg'
p3660
sg4
(lp3661
(g68
g6
(g18
S'\x8a\x1f[?'
p3662
tp3663
Rp3664
tp3665
a(g15
g6
(g18
S'\xc49\x88='
p3666
tp3667
Rp3668
tp3669
a(g143
g6
(g18
S'\x13\xd8\x9e<'
p3670
tp3671
Rp3672
tp3673
a(g56
g6
(g18
S'\x8b\xb6\x84<'
p3674
tp3675
Rp3676
tp3677
a(g232
g6
(g18
S'h\xb9\x17<'
p3678
tp3679
Rp3680
tp3681
asg73
g44
sa(dp3682
g2
S'../../../data/emanuela/activity-recognition/images/NTCIR-Lifelog-256/u2/2015-06-20/b00004619_21i7lf_20150620_125158e.jpg'
p3683
sg4
(lp3684
(g68
g6
(g18
S'\x8a\xbeo?'
p3685
tp3686
Rp3687
tp3688
a(g143
g6
(g18
S'\x11\xa0\x8c<'
p3689
tp3690
Rp3691
tp3692
a(g100
g6
(g18
S'\x86\xc8\x85<'
p3693
tp3694
Rp3695
tp3696
a(g15
g6
(g18
S'~\x16\x07<'
p3697
tp3698
Rp3699
tp3700
a(g232
g6
(g18
S'\xbe\xb1\xff;'
p3701
tp3702
Rp3703
tp3704
asg73
g44
sa(dp3705
g2
S'../../../data/emanuela/activity-recognition/images/NTCIR-Lifelog-256/u2/2015-06-20/b00004624_21i7lf_20150620_125452e.jpg'
p3706
sg4
(lp3707
(g68
g6
(g18
S'\x94\x85o?'
p3708
tp3709
Rp3710
tp3711
a(g100
g6
(g18
S'\x8a\xad\x95<'
p3712
tp3713
Rp3714
tp3715
a(g698
g6
(g18
S'\x84\xba\x80<'
p3716
tp3717
Rp3718
tp3719
a(g232
g6
(g18
S'Nd\xa2;'
p3720
tp3721
Rp3722
tp3723
a(g56
g6
(g18
S'\x0c\xf1\x97;'
p3724
tp3725
Rp3726
tp3727
asg73
g44
sa(dp3728
g2
S'../../../data/emanuela/activity-recognition/images/NTCIR-Lifelog-256/u2/2015-05-03/b00003762_21i7lf_20150503_143215e.jpg'
p3729
sg4
(lp3730
(g143
g6
(g18
S'K\xd5\r?'
p3731
tp3732
Rp3733
tp3734
a(g68
g6
(g18
S'O$(>'
p3735
tp3736
Rp3737
tp3738
a(g15
g6
(g18
S'0\xaa\x8a='
p3739
tp3740
Rp3741
tp3742
a(g479
g6
(g18
S'|\x97\x88='
p3743
tp3744
Rp3745
tp3746
a(g267
g6
(g18
S'\xbe\x9a*='
p3747
tp3748
Rp3749
tp3750
asg73
g44
sa(dp3751
g2
S'../../../data/emanuela/activity-recognition/images/NTCIR-Lifelog-256/u2/2015-05-03/b00004048_21i7lf_20150503_173055e.jpg'
p3752
sg4
(lp3753
(g112
g6
(g18
S'*\xbc\xcd>'
p3754
tp3755
Rp3756
tp3757
a(g44
g6
(g18
S'\xb3Zy>'
p3758
tp3759
Rp3760
tp3761
a(g251
g6
(g18
S'\xbf\x98\xba='
p3762
tp3763
Rp3764
tp3765
a(g32
g6
(g18
S'q\\I='
p3766
tp3767
Rp3768
tp3769
a(g267
g6
(g18
S'"\x05I='
p3770
tp3771
Rp3772
tp3773
asg73
g44
sa(dp3774
g2
S'../../../data/emanuela/activity-recognition/images/NTCIR-Lifelog-256/u2/2015-06-20/b00004257_21i7lf_20150620_094628e.jpg'
p3775
sg4
(lp3776
(g68
g6
(g18
S'\x14\x1d\x1a?'
p3777
tp3778
Rp3779
tp3780
a(g143
g6
(g18
S'\xf4\xc4\xca>'
p3781
tp3782
Rp3783
tp3784
a(g267
g6
(g18
S'\xfe\xc4\xe89'
p3785
tp3786
Rp3787
tp3788
a(g15
g6
(g18
S'\xd5\xe3\xb79'
p3789
tp3790
Rp3791
tp3792
a(g232
g6
(g18
S'\x18\x7f\x9f9'
p3793
tp3794
Rp3795
tp3796
asg73
g44
sa(dp3797
g2
S'../../../data/emanuela/activity-recognition/images/NTCIR-Lifelog-256/u2/2015-06-18/b00002602_21i7lf_20150618_095700e.jpg'
p3798
sg4
(lp3799
(g68
g6
(g18
S'z\xdcY?'
p3800
tp3801
Rp3802
tp3803
a(g44
g6
(g18
S'G\x00\xf6='
p3804
tp3805
Rp3806
tp3807
a(g100
g6
(g18
S'/\xc8m<'
p3808
tp3809
Rp3810
tp3811
a(g143
g6
(g18
S'\x01V\xf1;'
p3812
tp3813
Rp3814
tp3815
a(g15
g6
(g18
S'6y\x1a;'
p3816
tp3817
Rp3818
tp3819
asg73
g44
sa(dp3820
g2
S'../../../data/emanuela/activity-recognition/images/NTCIR-Lifelog-256/u2/2015-06-20/b00004617_21i7lf_20150620_125043e.jpg'
p3821
sg4
(lp3822
(g68
g6
(g18
S'\xacoY?'
p3823
tp3824
Rp3825
tp3826
a(g143
g6
(g18
S'\xec\xa3\x0e>'
p3827
tp3828
Rp3829
tp3830
a(g100
g6
(g18
S'\x8b\x89l;'
p3831
tp3832
Rp3833
tp3834
a(g267
g6
(g18
S'\xb3O\xe0:'
p3835
tp3836
Rp3837
tp3838
a(g15
g6
(g18
S'=\xe8\x9d:'
p3839
tp3840
Rp3841
tp3842
asg73
g44
sa(dp3843
g2
S'../../../data/emanuela/activity-recognition/images/NTCIR-Lifelog-256/u2/2015-06-16/b00001332_21i7lf_20150616_071015e.jpg'
p3844
sg4
(lp3845
(g44
g6
(g18
S'h\x90`?'
p3846
tp3847
Rp3848
tp3849
a(g112
g6
(g18
S'2\xc9\xe6='
p3850
tp3851
Rp3852
tp3853
a(g68
g6
(g18
S'r\xc3\\;'
p3854
tp3855
Rp3856
tp3857
a(g267
g6
(g18
S'\xa3(\xfc:'
p3858
tp3859
Rp3860
tp3861
a(g100
g6
(g18
S'\xa3\xbf\xa4:'
p3862
tp3863
Rp3864
tp3865
asg73
g44
sa(dp3866
g2
S'../../../data/emanuela/activity-recognition/images/NTCIR-Lifelog-256/u2/2015-06-18/b00002601_21i7lf_20150618_095621e.jpg'
p3867
sg4
(lp3868
(g68
g6
(g18
S'\x11\xd1\xf1>'
p3869
tp3870
Rp3871
tp3872
a(g44
g6
(g18
S'8\x9a\xab>'
p3873
tp3874
Rp3875
tp3876
a(g143
g6
(g18
S'\x0c3\x00>'
p3877
tp3878
Rp3879
tp3880
a(g267
g6
(g18
S'\x083\xe8<'
p3881
tp3882
Rp3883
tp3884
a(g15
g6
(g18
S'_\x8cg<'
p3885
tp3886
Rp3887
tp3888
asg73
g44
sa(dp3889
g2
S'../../../data/emanuela/activity-recognition/images/NTCIR-Lifelog-256/u2/2015-05-03/b00003768_21i7lf_20150503_143546e.jpg'
p3890
sg4
(lp3891
(g44
g6
(g18
S'\xaeQ~?'
p3892
tp3893
Rp3894
tp3895
a(g88
g6
(g18
S'\x1d\xea\x95;'
p3896
tp3897
Rp3898
tp3899
a(g394
g6
(g18
S'O"R:'
p3900
tp3901
Rp3902
tp3903
a(g68
g6
(g18
S"'|\x969"
p3904
tp3905
Rp3906
tp3907
a(g2086
g6
(g18
S'\x10m^9'
p3908
tp3909
Rp3910
tp3911
asg73
g44
sa(dp3912
g2
S'../../../data/emanuela/activity-recognition/images/NTCIR-Lifelog-256/u2/2015-06-18/b00002605_21i7lf_20150618_095901e.jpg'
p3913
sg4
(lp3914
(g68
g6
(g18
S'\x9d:I?'
p3915
tp3916
Rp3917
tp3918
a(g44
g6
(g18
S'\xd2\x1c\x1f>'
p3919
tp3920
Rp3921
tp3922
a(g143
g6
(g18
S'{<\xbc<'
p3923
tp3924
Rp3925
tp3926
a(g15
g6
(g18
S'\x11\xb7=<'
p3927
tp3928
Rp3929
tp3930
a(g100
g6
(g18
S'\x89\xe2\t<'
p3931
tp3932
Rp3933
tp3934
asg73
g44
sa(dp3935
g2
S'../../../data/emanuela/activity-recognition/images/NTCIR-Lifelog-256/u2/2015-06-16/b00001334_21i7lf_20150616_071117e.jpg'
p3936
sg4
(lp3937
(g44
g6
(g18
S'L\xcfm?'
p3938
tp3939
Rp3940
tp3941
a(g68
g6
(g18
S'_?\xd6<'
p3942
tp3943
Rp3944
tp3945
a(g100
g6
(g18
S'\xe6.<<'
p3946
tp3947
Rp3948
tp3949
a(g32
g6
(g18
S'i1\x08<'
p3950
tp3951
Rp3952
tp3953
a(g112
g6
(g18
S'\x88\xc6\xd5;'
p3954
tp3955
Rp3956
tp3957
asg73
g44
sa(dp3958
g2
S'../../../data/emanuela/activity-recognition/images/NTCIR-Lifelog-256/u2/2015-06-16/b00001340_21i7lf_20150616_071449e.jpg'
p3959
sg4
(lp3960
(g44
g6
(g18
S'\x7f\xaaz?'
p3961
tp3962
Rp3963
tp3964
a(g68
g6
(g18
S'@\x9f+<'
p3965
tp3966
Rp3967
tp3968
a(g100
g6
(g18
S'\xdc\x98\xe5;'
p3969
tp3970
Rp3971
tp3972
a(g32
g6
(g18
S'E#\xa5:'
p3973
tp3974
Rp3975
tp3976
a(g479
g6
(g18
S'\xaa<\xf49'
p3977
tp3978
Rp3979
tp3980
asg73
g44
sa(dp3981
g2
S'../../../data/emanuela/activity-recognition/images/NTCIR-Lifelog-256/u2/2015-05-03/b00003787_21i7lf_20150503_144727e.jpg'
p3982
sg4
(lp3983
(g44
g6
(g18
S'\xdcDb?'
p3984
tp3985
Rp3986
tp3987
a(g88
g6
(g18
S'\xde\x0eE='
p3988
tp3989
Rp3990
tp3991
a(g68
g6
(g18
S'\xf6*\x1a='
p3992
tp3993
Rp3994
tp3995
a(g100
g6
(g18
S'\x0e\xf5\xd8;'
p3996
tp3997
Rp3998
tp3999
a(g112
g6
(g18
S'\x15\x05\xd3;'
p4000
tp4001
Rp4002
tp4003
asg73
g44
sa(dp4004
g2
S'../../../data/emanuela/activity-recognition/images/NTCIR-Lifelog-256/u2/2015-05-03/b00004052_21i7lf_20150503_173311e.jpg'
p4005
sg4
(lp4006
(g88
g6
(g18
S'\x8a;\x07?'
p4007
tp4008
Rp4009
tp4010
a(g15
g6
(g18
S'\x17\x8fT>'
p4011
tp4012
Rp4013
tp4014
a(g112
g6
(g18
S'\xd6/\xe6='
p4015
tp4016
Rp4017
tp4018
a(g201
g6
(g18
S'Rx\xac='
p4019
tp4020
Rp4021
tp4022
a(g251
g6
(g18
S'\xefr\xe4<'
p4023
tp4024
Rp4025
tp4026
asg73
g44
sa(dp4027
g2
S'../../../data/emanuela/activity-recognition/images/NTCIR-Lifelog-256/u2/2015-05-03/b00004050_21i7lf_20150503_173157e.jpg'
p4028
sg4
(lp4029
(g44
g6
(g18
S'\xc7a\xfe>'
p4030
tp4031
Rp4032
tp4033
a(g112
g6
(g18
S'b\xeb%>'
p4034
tp4035
Rp4036
tp4037
a(g251
g6
(g18
S'"F\t>'
p4038
tp4039
Rp4040
tp4041
a(g32
g6
(g18
S'>l\x92='
p4042
tp4043
Rp4044
tp4045
a(g100
g6
(g18
S'S\x0ex='
p4046
tp4047
Rp4048
tp4049
asg73
g44
sa(dp4050
g2
S'../../../data/emanuela/activity-recognition/images/NTCIR-Lifelog-256/u2/2015-04-24/b00002787_21i7lf_20150424_182609e.jpg'
p4051
sg4
(lp4052
(g44
g6
(g18
S'G\xb9v?'
p4053
tp4054
Rp4055
tp4056
a(g100
g6
(g18
S'\xb5O\xe1<'
p4057
tp4058
Rp4059
tp4060
a(g68
g6
(g18
S'ym\xf9;'
p4061
tp4062
Rp4063
tp4064
a(g112
g6
(g18
S'\x9a\xe1\xea9'
p4065
tp4066
Rp4067
tp4068
a(g143
g6
(g18
S'5\x8e@9'
p4069
tp4070
Rp4071
tp4072
asg73
g44
sa(dp4073
g2
S'../../../data/emanuela/activity-recognition/images/NTCIR-Lifelog-256/u2/2015-06-16/b00001344_21i7lf_20150616_071731e.jpg'
p4074
sg4
(lp4075
(g44
g6
(g18
S'3\x10\xf5>'
p4076
tp4077
Rp4078
tp4079
a(g267
g6
(g18
S'\xfd/\xa7>'
p4080
tp4081
Rp4082
tp4083
a(g394
g6
(g18
S'J\xd0\xe8<'
p4084
tp4085
Rp4086
tp4087
a(g112
g6
(g18
S'\x8a8\xd4<'
p4088
tp4089
Rp4090
tp4091
a(g68
g6
(g18
S'\x18w\xcc<'
p4092
tp4093
Rp4094
tp4095
asg73
g44
sa(dp4096
g2
S'../../../data/emanuela/activity-recognition/images/NTCIR-Lifelog-256/u2/2015-06-17/b00002169_21i7lf_20150617_104918e.jpg'
p4097
sg4
(lp4098
(g88
g6
(g18
S'\xb6\x8b\x1c?'
p4099
tp4100
Rp4101
tp4102
a(g112
g6
(g18
S'\xb9\n=>'
p4103
tp4104
Rp4105
tp4106
a(g44
g6
(g18
S'\xbewG='
p4107
tp4108
Rp4109
tp4110
a(g394
g6
(g18
S'\xb2rG='
p4111
tp4112
Rp4113
tp4114
a(g267
g6
(g18
S'\xb1\xab\xd7<'
p4115
tp4116
Rp4117
tp4118
asg73
g44
sa(dp4119
g2
S'../../../data/emanuela/activity-recognition/images/NTCIR-Lifelog-256/u2/2015-06-18/b00002844_21i7lf_20150618_123644e.jpg'
p4120
sg4
(lp4121
(g32
g6
(g18
S'\x04\x8a\xc1>'
p4122
tp4123
Rp4124
tp4125
a(g15
g6
(g18
S'J\x1a\x92>'
p4126
tp4127
Rp4128
tp4129
a(g44
g6
(g18
S'\x9c\xbaj>'
p4130
tp4131
Rp4132
tp4133
a(g56
g6
(g18
S'1=\xf3<'
p4134
tp4135
Rp4136
tp4137
a(g68
g6
(g18
S'\xaa\x98\x93<'
p4138
tp4139
Rp4140
tp4141
asg73
g44
sa(dp4142
g2
S'../../../data/emanuela/activity-recognition/images/NTCIR-Lifelog-256/u2/2015-06-18/b00002831_21i7lf_20150618_122700e.jpg'
p4143
sg4
(lp4144
(g15
g6
(g18
S'+\xdb\x08?'
p4145
tp4146
Rp4147
tp4148
a(g32
g6
(g18
S'\x16I">'
p4149
tp4150
Rp4151
tp4152
a(g44
g6
(g18
S'\xa4)\xdc='
p4153
tp4154
Rp4155
tp4156
a(g143
g6
(g18
S'\x84\xe01='
p4157
tp4158
Rp4159
tp4160
a(g68
g6
(g18
S'\x1c\xcd1='
p4161
tp4162
Rp4163
tp4164
asg73
g44
sa(dp4165
g2
S'../../../data/emanuela/activity-recognition/images/NTCIR-Lifelog-256/u2/2015-06-19/b00002955_21i7lf_20150619_064452e.jpg'
p4166
sg4
(lp4167
(g32
g6
(g18
S'\xa5 \x1e?'
p4168
tp4169
Rp4170
tp4171
a(g15
g6
(g18
S'&L7>'
p4172
tp4173
Rp4174
tp4175
a(g143
g6
(g18
S'\xc6\x12\xc9='
p4176
tp4177
Rp4178
tp4179
a(g201
g6
(g18
S'\x92\xc9\xf3<'
p4180
tp4181
Rp4182
tp4183
a(g68
g6
(g18
S'\x92\xd1\x9b<'
p4184
tp4185
Rp4186
tp4187
asg73
g44
sa(dp4188
g2
S'../../../data/emanuela/activity-recognition/images/NTCIR-Lifelog-256/u2/2015-04-21/b00000850_21i7lf_20150421_183445e.jpg'
p4189
sg4
(lp4190
(g32
g6
(g18
S'um-?'
p4191
tp4192
Rp4193
tp4194
a(g100
g6
(g18
S'n\xe8\r>'
p4195
tp4196
Rp4197
tp4198
a(g44
g6
(g18
S'\x14\x9b\r>'
p4199
tp4200
Rp4201
tp4202
a(g15
g6
(g18
S'\x05<\x06='
p4203
tp4204
Rp4205
tp4206
a(g251
g6
(g18
S'I\xa4\x88;'
p4207
tp4208
Rp4209
tp4210
asg73
g44
sa(dp4211
g2
S'../../../data/emanuela/activity-recognition/images/NTCIR-Lifelog-256/u2/2015-06-20/b00004638_21i7lf_20150620_130940e.jpg'
p4212
sg4
(lp4213
(g32
g6
(g18
S'.\xb3\x8f>'
p4214
tp4215
Rp4216
tp4217
a(g44
g6
(g18
S'\xf0\x8b\x8b>'
p4218
tp4219
Rp4220
tp4221
a(g15
g6
(g18
S'N\xb4R>'
p4222
tp4223
Rp4224
tp4225
a(g56
g6
(g18
S'\xc0\x18\x05>'
p4226
tp4227
Rp4228
tp4229
a(g68
g6
(g18
S'D\xf4(='
p4230
tp4231
Rp4232
tp4233
asg73
g44
sa(dp4234
g2
S'../../../data/emanuela/activity-recognition/images/NTCIR-Lifelog-256/u2/2015-06-20/b00004632_21i7lf_20150620_130105e.jpg'
p4235
sg4
(lp4236
(g68
g6
(g18
S'`,\x04?'
p4237
tp4238
Rp4239
tp4240
a(g15
g6
(g18
S'|H(>'
p4241
tp4242
Rp4243
tp4244
a(g56
g6
(g18
S'\xf0\xbe\xf6='
p4245
tp4246
Rp4247
tp4248
a(g232
g6
(g18
S'\x7fA\xc8='
p4249
tp4250
Rp4251
tp4252
a(g44
g6
(g18
S'\xbba\x83='
p4253
tp4254
Rp4255
tp4256
asg73
g44
sa(dp4257
g2
S'../../../data/emanuela/activity-recognition/images/NTCIR-Lifelog-256/u2/2015-06-17/b00002414_21i7lf_20150617_135200e.jpg'
p4258
sg4
(lp4259
(g32
g6
(g18
S'\xd2j\xaf>'
p4260
tp4261
Rp4262
tp4263
a(g44
g6
(g18
S'\x93\x0e\xa3>'
p4264
tp4265
Rp4266
tp4267
a(g15
g6
(g18
S'\xd4\xa5T>'
p4268
tp4269
Rp4270
tp4271
a(g68
g6
(g18
S'\xa7\xd1F='
p4272
tp4273
Rp4274
tp4275
a(g100
g6
(g18
S'\x94\x98\xb3<'
p4276
tp4277
Rp4278
tp4279
asg73
g44
sa(dp4280
g2
S'../../../data/emanuela/activity-recognition/images/NTCIR-Lifelog-256/u2/2015-06-17/b00002409_21i7lf_20150617_134757e.jpg'
p4281
sg4
(lp4282
(g15
g6
(g18
S'\x96\xe1\x87>'
p4283
tp4284
Rp4285
tp4286
a(g44
g6
(g18
S'\xcf\xeb[>'
p4287
tp4288
Rp4289
tp4290
a(g143
g6
(g18
S'\x19\x17I>'
p4291
tp4292
Rp4293
tp4294
a(g32
g6
(g18
S'\xech\xdb='
p4295
tp4296
Rp4297
tp4298
a(g68
g6
(g18
S'\xbc\xec\xd5='
p4299
tp4300
Rp4301
tp4302
asg73
g44
sa(dp4303
g2
S'../../../data/emanuela/activity-recognition/images/NTCIR-Lifelog-256/u2/2015-06-16/b00001327_21i7lf_20150616_070722e.jpg'
p4304
sg4
(lp4305
(g112
g6
(g18
S'HH ?'
p4306
tp4307
Rp4308
tp4309
a(g44
g6
(g18
S'F\t\xba>'
p4310
tp4311
Rp4312
tp4313
a(g594
g6
(g18
S'@NX;'
p4314
tp4315
Rp4316
tp4317
a(g394
g6
(g18
S'\x16\xba\x1f;'
p4318
tp4319
Rp4320
tp4321
a(g88
g6
(g18
S'\xd7\x9f\xa3:'
p4322
tp4323
Rp4324
tp4325
asg73
g44
sa(dp4326
g2
S'../../../data/emanuela/activity-recognition/images/NTCIR-Lifelog-256/u2/2015-05-03/b00004054_21i7lf_20150503_173427e.jpg'
p4327
sg4
(lp4328
(g251
g6
(g18
S'-\xfa\xc0>'
p4329
tp4330
Rp4331
tp4332
a(g112
g6
(g18
S'8\xac\x12>'
p4333
tp4334
Rp4335
tp4336
a(g44
g6
(g18
S'6V\xf6='
p4337
tp4338
Rp4339
tp4340
a(g267
g6
(g18
S'9\xb4\xe0='
p4341
tp4342
Rp4343
tp4344
a(g394
g6
(g18
S'\x982\xa2='
p4345
tp4346
Rp4347
tp4348
asg73
g44
sa(dp4349
g2
S'../../../data/emanuela/activity-recognition/images/NTCIR-Lifelog-256/u2/2015-06-19/b00002953_21i7lf_20150619_064332e.jpg'
p4350
sg4
(lp4351
(g44
g6
(g18
S'S\xed\xb0>'
p4352
tp4353
Rp4354
tp4355
a(g143
g6
(g18
S'`\xc5\x93>'
p4356
tp4357
Rp4358
tp4359
a(g68
g6
(g18
S'\xc0\x0ck>'
p4360
tp4361
Rp4362
tp4363
a(g15
g6
(g18
S'\x15\xfd,='
p4364
tp4365
Rp4366
tp4367
a(g32
g6
(g18
S'\x8e\xa1\x15='
p4368
tp4369
Rp4370
tp4371
asg73
g44
sa(dp4372
g2
S'../../../data/emanuela/activity-recognition/images/NTCIR-Lifelog-256/u2/2015-06-16/b00001336_21i7lf_20150616_071225e.jpg'
p4373
sg4
(lp4374
(g44
g6
(g18
S'&d>?'
p4375
tp4376
Rp4377
tp4378
a(g68
g6
(g18
S'k\x805>'
p4379
tp4380
Rp4381
tp4382
a(g100
g6
(g18
S'm\x87\xe1<'
p4383
tp4384
Rp4385
tp4386
a(g32
g6
(g18
S'\xc4>2<'
p4387
tp4388
Rp4389
tp4390
a(g479
g6
(g18
S'\xc5\xcc#<'
p4391
tp4392
Rp4393
tp4394
asg73
g44
sa(dp4395
g2
S'../../../data/emanuela/activity-recognition/images/NTCIR-Lifelog-256/u2/2015-06-16/b00001335_21i7lf_20150616_071150e.jpg'
p4396
sg4
(lp4397
(g44
g6
(g18
S'#\x00,?'
p4398
tp4399
Rp4400
tp4401
a(g68
g6
(g18
S'\xa8\x9dm>'
p4402
tp4403
Rp4404
tp4405
a(g479
g6
(g18
S'1U\xa2<'
p4406
tp4407
Rp4408
tp4409
a(g32
g6
(g18
S'\xc2\xbcG<'
p4410
tp4411
Rp4412
tp4413
a(g267
g6
(g18
S'\xa2qF<'
p4414
tp4415
Rp4416
tp4417
asg73
g44
sa(dp4418
g2
S'../../../data/emanuela/activity-recognition/images/NTCIR-Lifelog-256/u2/2015-06-20/b00004633_21i7lf_20150620_130234e.jpg'
p4419
sg4
(lp4420
(g15
g6
(g18
S'\xfc\\\xbc>'
p4421
tp4422
Rp4423
tp4424
a(g32
g6
(g18
S'\xd7<j>'
p4425
tp4426
Rp4427
tp4428
a(g44
g6
(g18
S'\xee\xb2\x1b>'
p4429
tp4430
Rp4431
tp4432
a(g56
g6
(g18
S'o\x8d\x11>'
p4433
tp4434
Rp4435
tp4436
a(g68
g6
(g18
S'|O\x83='
p4437
tp4438
Rp4439
tp4440
asg73
g44
sa(dp4441
g2
S'../../../data/emanuela/activity-recognition/images/NTCIR-Lifelog-256/u2/2015-06-18/b00002829_21i7lf_20150618_122550e.jpg'
p4442
sg4
(lp4443
(g32
g6
(g18
S'\x8dj\xf8>'
p4444
tp4445
Rp4446
tp4447
a(g15
g6
(g18
S'\x80\x86\xbb>'
p4448
tp4449
Rp4450
tp4451
a(g201
g6
(g18
S'L\xb0~='
p4452
tp4453
Rp4454
tp4455
a(g68
g6
(g18
S'o_\xa4<'
p4456
tp4457
Rp4458
tp4459
a(g44
g6
(g18
S"\xd4'\x9a<"
p4460
tp4461
Rp4462
tp4463
asg73
g44
sa(dp4464
g2
S'../../../data/emanuela/activity-recognition/images/NTCIR-Lifelog-256/u2/2015-06-20/b00004221_21i7lf_20150620_085744e.jpg'
p4465
sg4
(lp4466
(g68
g6
(g18
S'A7|?'
p4467
tp4468
Rp4469
tp4470
a(g143
g6
(g18
S',\x98\xba;'
p4471
tp4472
Rp4473
tp4474
a(g100
g6
(g18
S'\x9e\xde\x88;'
p4475
tp4476
Rp4477
tp4478
a(g88
g6
(g18
S's2\x8f:'
p4479
tp4480
Rp4481
tp4482
a(g15
g6
(g18
S'>\xdek:'
p4483
tp4484
Rp4485
tp4486
asg73
g44
sa(dp4487
g2
S'../../../data/emanuela/activity-recognition/images/NTCIR-Lifelog-256/u2/2015-06-16/b00001322_21i7lf_20150616_070429e.jpg'
p4488
sg4
(lp4489
(g44
g6
(g18
S'\x16\x0cM?'
p4490
tp4491
Rp4492
tp4493
a(g112
g6
(g18
S'\xba\xa75>'
p4494
tp4495
Rp4496
tp4497
a(g68
g6
(g18
S'\xd3\xdf\xd3;'
p4498
tp4499
Rp4500
tp4501
a(g267
g6
(g18
S"'t\xbe;"
p4502
tp4503
Rp4504
tp4505
a(g394
g6
(g18
S'\xb0F\x85;'
p4506
tp4507
Rp4508
tp4509
asg73
g44
sa(dp4510
g2
S'../../../data/emanuela/activity-recognition/images/NTCIR-Lifelog-256/u2/2015-04-21/b00000846_21i7lf_20150421_183228e.jpg'
p4511
sg4
(lp4512
(g32
g6
(g18
S'\x80\x93\x0e?'
p4513
tp4514
Rp4515
tp4516
a(g44
g6
(g18
S'\x8c\r\xa6>'
p4517
tp4518
Rp4519
tp4520
a(g15
g6
(g18
S'\x9ez\x9c='
p4521
tp4522
Rp4523
tp4524
a(g68
g6
(g18
S"'\xe4\xa4<"
p4525
tp4526
Rp4527
tp4528
a(g56
g6
(g18
S'.\xfe\xc4;'
p4529
tp4530
Rp4531
tp4532
asg73
g44
sa(dp4533
g2
S'../../../data/emanuela/activity-recognition/images/NTCIR-Lifelog-256/u2/2015-06-20/b00004232_21i7lf_20150620_091111e.jpg'
p4534
sg4
(lp4535
(g68
g6
(g18
S'\xa9uA?'
p4536
tp4537
Rp4538
tp4539
a(g232
g6
(g18
S'{v\x05>'
p4540
tp4541
Rp4542
tp4543
a(g56
g6
(g18
S'LZ\xac='
p4544
tp4545
Rp4546
tp4547
a(g143
g6
(g18
S'%\x88\x1f<'
p4548
tp4549
Rp4550
tp4551
a(g267
g6
(g18
S'3\x9a\xc2;'
p4552
tp4553
Rp4554
tp4555
asg73
g44
sa(dp4556
g2
S'../../../data/emanuela/activity-recognition/images/NTCIR-Lifelog-256/u2/2015-04-21/b00000841_21i7lf_20150421_182924e.jpg'
p4557
sg4
(lp4558
(g32
g6
(g18
S'\x0f/\xf2>'
p4559
tp4560
Rp4561
tp4562
a(g44
g6
(g18
S'\xfau\xa7>'
p4563
tp4564
Rp4565
tp4566
a(g68
g6
(g18
S'\x1c\xfb\xa6='
p4567
tp4568
Rp4569
tp4570
a(g15
g6
(g18
S'\xe1:v='
p4571
tp4572
Rp4573
tp4574
a(g56
g6
(g18
S'\xec\xcf\x9c<'
p4575
tp4576
Rp4577
tp4578
asg73
g44
sa(dp4579
g2
S'../../../data/emanuela/activity-recognition/images/NTCIR-Lifelog-256/u2/2015-06-17/b00002158_21i7lf_20150617_104142e.jpg'
p4580
sg4
(lp4581
(g68
g6
(g18
S'P\xb5\x18?'
p4582
tp4583
Rp4584
tp4585
a(g143
g6
(g18
S'\xe4?\xa9>'
p4586
tp4587
Rp4588
tp4589
a(g15
g6
(g18
S'\x12B\x05='
p4590
tp4591
Rp4592
tp4593
a(g112
g6
(g18
S'\xb9\x1bN<'
p4594
tp4595
Rp4596
tp4597
a(g32
g6
(g18
S'kT\xcf;'
p4598
tp4599
Rp4600
tp4601
asg73
g44
sa(dp4602
g2
S'../../../data/emanuela/activity-recognition/images/NTCIR-Lifelog-256/u2/2015-06-20/b00004641_21i7lf_20150620_131356e.jpg'
p4603
sg4
(lp4604
(g32
g6
(g18
S'\xe5Y\xc0>'
p4605
tp4606
Rp4607
tp4608
a(g68
g6
(g18
S'6)x>'
p4609
tp4610
Rp4611
tp4612
a(g44
g6
(g18
S'H0\x07>'
p4613
tp4614
Rp4615
tp4616
a(g15
g6
(g18
S'\x1d<\xf3='
p4617
tp4618
Rp4619
tp4620
a(g56
g6
(g18
S'D\x9dS='
p4621
tp4622
Rp4623
tp4624
asg73
g44
sa(dp4625
g2
S'../../../data/emanuela/activity-recognition/images/NTCIR-Lifelog-256/u2/2015-06-20/b00004242_21i7lf_20150620_092433e.jpg'
p4626
sg4
(lp4627
(g88
g6
(g18
S'\x0c\x13?>'
p4628
tp4629
Rp4630
tp4631
a(g394
g6
(g18
S'\x82\xea$>'
p4632
tp4633
Rp4634
tp4635
a(g15
g6
(g18
S'\xc0p\x08>'
p4636
tp4637
Rp4638
tp4639
a(g56
g6
(g18
S'\xaeE\xab='
p4640
tp4641
Rp4642
tp4643
a(g2086
g6
(g18
S"\xd9'\x9c="
p4644
tp4645
Rp4646
tp4647
asg73
g44
sa(dp4648
g2
S'../../../data/emanuela/activity-recognition/images/NTCIR-Lifelog-256/u2/2015-06-20/b00004620_21i7lf_20150620_125231e.jpg'
p4649
sg4
(lp4650
(g68
g6
(g18
S'\x1d\x8a`?'
p4651
tp4652
Rp4653
tp4654
a(g232
g6
(g18
S'\xd6i\x87='
p4655
tp4656
Rp4657
tp4658
a(g143
g6
(g18
S"\x1f'b<"
p4659
tp4660
Rp4661
tp4662
a(g15
g6
(g18
S'g\x8bU<'
p4663
tp4664
Rp4665
tp4666
a(g32
g6
(g18
S'\xaf\x1fC<'
p4667
tp4668
Rp4669
tp4670
asg73
g44
sa(dp4671
g2
S'../../../data/emanuela/activity-recognition/images/NTCIR-Lifelog-256/u2/2015-06-18/b00002845_21i7lf_20150618_123725e.jpg'
p4672
sg4
(lp4673
(g15
g6
(g18
S'\x93\xd2\xd5>'
p4674
tp4675
Rp4676
tp4677
a(g32
g6
(g18
S'\x1c\xe36>'
p4678
tp4679
Rp4680
tp4681
a(g201
g6
(g18
S'-w\xf7='
p4682
tp4683
Rp4684
tp4685
a(g143
g6
(g18
S'\xca\xf1\xb1='
p4686
tp4687
Rp4688
tp4689
a(g44
g6
(g18
S'\x1b\xb5\xa1='
p4690
tp4691
Rp4692
tp4693
asg73
g44
sa(dp4694
g2
S'../../../data/emanuela/activity-recognition/images/NTCIR-Lifelog-256/u2/2015-06-16/b00001319_21i7lf_20150616_070242e.jpg'
p4695
sg4
(lp4696
(g112
g6
(g18
S'?I_?'
p4697
tp4698
Rp4699
tp4700
a(g44
g6
(g18
S'\x13\x02\xe9='
p4701
tp4702
Rp4703
tp4704
a(g394
g6
(g18
S'\x08\x97\x0f<'
p4705
tp4706
Rp4707
tp4708
a(g594
g6
(g18
S'\xed9\x0c;'
p4709
tp4710
Rp4711
tp4712
a(g100
g6
(g18
S'"/k:'
p4713
tp4714
Rp4715
tp4716
asg73
g44
sa(dp4717
g2
S'../../../data/emanuela/activity-recognition/images/NTCIR-Lifelog-256/u2/2015-05-03/b00004037_21i7lf_20150503_172349e.jpg'
p4718
sg4
(lp4719
(g112
g6
(g18
S'\xf1\xcf$?'
p4720
tp4721
Rp4722
tp4723
a(g44
g6
(g18
S';\x08{>'
p4724
tp4725
Rp4726
tp4727
a(g251
g6
(g18
S'~\x01"='
p4728
tp4729
Rp4730
tp4731
a(g267
g6
(g18
S'\xf9o\x8a<'
p4732
tp4733
Rp4734
tp4735
a(g100
g6
(g18
S'V,\x85<'
p4736
tp4737
Rp4738
tp4739
asg73
g44
sa(dp4740
g2
S'../../../data/emanuela/activity-recognition/images/NTCIR-Lifelog-256/u2/2015-06-19/b00002951_21i7lf_20150619_064219e.jpg'
p4741
sg4
(lp4742
(g44
g6
(g18
S'\xee\xb2\xf7>'
p4743
tp4744
Rp4745
tp4746
a(g68
g6
(g18
S'\x0f0\xbc>'
p4747
tp4748
Rp4749
tp4750
a(g143
g6
(g18
S'\r\x9b\xb8='
p4751
tp4752
Rp4753
tp4754
a(g100
g6
(g18
S'\x01\x08\x9c<'
p4755
tp4756
Rp4757
tp4758
a(g267
g6
(g18
S'\x18Ja<'
p4759
tp4760
Rp4761
tp4762
asg73
g44
sa(dp4763
g2
S'../../../data/emanuela/activity-recognition/images/NTCIR-Lifelog-256/u2/2015-05-03/b00004039_21i7lf_20150503_172505e.jpg'
p4764
sg4
(lp4765
(g44
g6
(g18
S'\xd7T;?'
p4766
tp4767
Rp4768
tp4769
a(g112
g6
(g18
S'9~&>'
p4770
tp4771
Rp4772
tp4773
a(g394
g6
(g18
S'%G\x1e='
p4774
tp4775
Rp4776
tp4777
a(g251
g6
(g18
S'\xe8]\xe7<'
p4778
tp4779
Rp4780
tp4781
a(g100
g6
(g18
S'\x8e\xf3\x9e<'
p4782
tp4783
Rp4784
tp4785
asg73
g44
sa(dp4786
g2
S'../../../data/emanuela/activity-recognition/images/NTCIR-Lifelog-256/u2/2015-06-17/b00002405_21i7lf_20150617_134512e.jpg'
p4787
sg4
(lp4788
(g44
g6
(g18
S'\xb3\xa6\x16?'
p4789
tp4790
Rp4791
tp4792
a(g15
g6
(g18
S'I\x8f\x0b>'
p4793
tp4794
Rp4795
tp4796
a(g32
g6
(g18
S'cv\xd0='
p4797
tp4798
Rp4799
tp4800
a(g68
g6
(g18
S'o\xaa\x82='
p4801
tp4802
Rp4803
tp4804
a(g88
g6
(g18
S'\xa4\x7f\xcb<'
p4805
tp4806
Rp4807
tp4808
asg73
g44
sa(dp4809
g2
S'../../../data/emanuela/activity-recognition/images/NTCIR-Lifelog-256/u2/2015-06-17/b00002161_21i7lf_20150617_104335e.jpg'
p4810
sg4
(lp4811
(g112
g6
(g18
S'sp\x17?'
p4812
tp4813
Rp4814
tp4815
a(g44
g6
(g18
S'\xfe\xa7\x9f>'
p4816
tp4817
Rp4818
tp4819
a(g68
g6
(g18
S'\x9eP>='
p4820
tp4821
Rp4822
tp4823
a(g88
g6
(g18
S'\xe8\x03\xda<'
p4824
tp4825
Rp4826
tp4827
a(g15
g6
(g18
S'\xbfL\x16<'
p4828
tp4829
Rp4830
tp4831
asg73
g44
sa(dp4832
g2
S'../../../data/emanuela/activity-recognition/images/NTCIR-Lifelog-256/u2/2015-06-18/b00002839_21i7lf_20150618_123327e.jpg'
p4833
sg4
(lp4834
(g68
g6
(g18
S'\xd0\xae2?'
p4835
tp4836
Rp4837
tp4838
a(g394
g6
(g18
S'\x8b!\xca='
p4839
tp4840
Rp4841
tp4842
a(g100
g6
(g18
S'\x91\xba\x8f='
p4843
tp4844
Rp4845
tp4846
a(g143
g6
(g18
S'Ipk='
p4847
tp4848
Rp4849
tp4850
a(g232
g6
(g18
S'\xa5C4='
p4851
tp4852
Rp4853
tp4854
asg73
g44
sa(dp4855
g2
S'../../../data/emanuela/activity-recognition/images/NTCIR-Lifelog-256/u2/2015-06-17/b00002408_21i7lf_20150617_134714e.jpg'
p4856
sg4
(lp4857
(g15
g6
(g18
S'\t\xfe\xd2>'
p4858
tp4859
Rp4860
tp4861
a(g68
g6
(g18
S'\xcc:8>'
p4862
tp4863
Rp4864
tp4865
a(g44
g6
(g18
S'\xdb9.>'
p4866
tp4867
Rp4868
tp4869
a(g143
g6
(g18
S'\x95\xbc\x0f>'
p4870
tp4871
Rp4872
tp4873
a(g32
g6
(g18
S'-\xb7\x12='
p4874
tp4875
Rp4876
tp4877
asg73
g44
sa(dp4878
g2
S'../../../data/emanuela/activity-recognition/images/NTCIR-Lifelog-256/u2/2015-06-16/b00001339_21i7lf_20150616_071411e.jpg'
p4879
sg4
(lp4880
(g44
g6
(g18
S';\x1c[?'
p4881
tp4882
Rp4883
tp4884
a(g112
g6
(g18
S'z\x1b\xf5='
p4885
tp4886
Rp4887
tp4888
a(g479
g6
(g18
S'-\x98\xb8;'
p4889
tp4890
Rp4891
tp4892
a(g267
g6
(g18
S'\xe1/~;'
p4893
tp4894
Rp4895
tp4896
a(g68
g6
(g18
S'Bcm;'
p4897
tp4898
Rp4899
tp4900
asg73
g44
sa(dp4901
g2
S'../../../data/emanuela/activity-recognition/images/NTCIR-Lifelog-256/u2/2015-06-18/b00002848_21i7lf_20150618_123921e.jpg'
p4902
sg4
(lp4903
(g68
g6
(g18
S'<\x19\xf6>'
p4904
tp4905
Rp4906
tp4907
a(g15
g6
(g18
S'OW\xa2>'
p4908
tp4909
Rp4910
tp4911
a(g143
g6
(g18
S'\x99 5='
p4912
tp4913
Rp4914
tp4915
a(g32
g6
(g18
S'\xb11\x1f='
p4916
tp4917
Rp4918
tp4919
a(g56
g6
(g18
S'\xf0O\xc8<'
p4920
tp4921
Rp4922
tp4923
asg73
g44
sa(dp4924
g2
S'../../../data/emanuela/activity-recognition/images/NTCIR-Lifelog-256/u2/2015-05-03/b00003771_21i7lf_20150503_143742e.jpg'
p4925
sg4
(lp4926
(g44
g6
(g18
S'\x9aX\x7f?'
p4927
tp4928
Rp4929
tp4930
a(g88
g6
(g18
S'\xc8\xb2]:'
p4931
tp4932
Rp4933
tp4934
a(g100
g6
(g18
S'8\x081:'
p4935
tp4936
Rp4937
tp4938
a(g267
g6
(g18
S'9\x1d\xb29'
p4939
tp4940
Rp4941
tp4942
a(g68
g6
(g18
S'\xe0b\x949'
p4943
tp4944
Rp4945
tp4946
asg73
g44
sa(dp4947
g2
S'../../../data/emanuela/activity-recognition/images/NTCIR-Lifelog-256/u2/2015-06-20/b00004250_21i7lf_20150620_093611e.jpg'
p4948
sg4
(lp4949
(g15
g6
(g18
S'8\x80\x88>'
p4950
tp4951
Rp4952
tp4953
a(g68
g6
(g18
S'\xbb\xa8\x80>'
p4954
tp4955
Rp4956
tp4957
a(g267
g6
(g18
S'*\xc4<>'
p4958
tp4959
Rp4960
tp4961
a(g44
g6
(g18
S'\xe1\xda\xc6='
p4962
tp4963
Rp4964
tp4965
a(g100
g6
(g18
S'\x10J\x83='
p4966
tp4967
Rp4968
tp4969
asg73
g44
sa(dp4970
g2
S'../../../data/emanuela/activity-recognition/images/NTCIR-Lifelog-256/u2/2015-06-20/b00004616_21i7lf_20150620_125005e.jpg'
p4971
sg4
(lp4972
(g394
g6
(g18
S'x\x0c ?'
p4973
tp4974
Rp4975
tp4976
a(g594
g6
(g18
S'\x19!b>'
p4977
tp4978
Rp4979
tp4980
a(g267
g6
(g18
S'\xdd\xb1\xea='
p4981
tp4982
Rp4983
tp4984
a(g88
g6
(g18
S'\x86\xf4\x1e<'
p4985
tp4986
Rp4987
tp4988
a(g251
g6
(g18
S'\xc7\x0f\x17<'
p4989
tp4990
Rp4991
tp4992
asg73
g44
sa(dp4993
g2
S'../../../data/emanuela/activity-recognition/images/NTCIR-Lifelog-256/u2/2015-05-03/b00004034_21i7lf_20150503_172152e.jpg'
p4994
sg4
(lp4995
(g44
g6
(g18
S'\x18\xa3\x93>'
p4996
tp4997
Rp4998
tp4999
a(g251
g6
(g18
S'k\x99s>'
p5000
tp5001
Rp5002
tp5003
a(g112
g6
(g18
S'\x82\x0ej>'
p5004
tp5005
Rp5006
tp5007
a(g479
g6
(g18
S'0\xe66='
p5008
tp5009
Rp5010
tp5011
a(g267
g6
(g18
S'\xd6,1='
p5012
tp5013
Rp5014
tp5015
asg73
g44
sa(dp5016
g2
S'../../../data/emanuela/activity-recognition/images/NTCIR-Lifelog-256/u2/2015-05-03/b00003783_21i7lf_20150503_144501e.jpg'
p5017
sg4
(lp5018
(g44
g6
(g18
S'}8v?'
p5019
tp5020
Rp5021
tp5022
a(g68
g6
(g18
S'g\x9bG<'
p5023
tp5024
Rp5025
tp5026
a(g88
g6
(g18
S'\xd9\xd0\xc1;'
p5027
tp5028
Rp5029
tp5030
a(g15
g6
(g18
S'R\x0c\x87;'
p5031
tp5032
Rp5033
tp5034
a(g100
g6
(g18
S'\x07\xfb\x80;'
p5035
tp5036
Rp5037
tp5038
asg73
g44
sa(dp5039
g2
S'../../../data/emanuela/activity-recognition/images/NTCIR-Lifelog-256/u2/2015-06-18/b00002834_21i7lf_20150618_122848e.jpg'
p5040
sg4
(lp5041
(g15
g6
(g18
S'\x94\x9a\xfb>'
p5042
tp5043
Rp5044
tp5045
a(g44
g6
(g18
S'\xd2\x85\xfe='
p5046
tp5047
Rp5048
tp5049
a(g112
g6
(g18
S'\x1f\x1e\xd3='
p5050
tp5051
Rp5052
tp5053
a(g32
g6
(g18
S'\x8a\xdb\xbf='
p5054
tp5055
Rp5056
tp5057
a(g143
g6
(g18
S'\x00\xe5\x8b='
p5058
tp5059
Rp5060
tp5061
asg73
g44
sa(dp5062
g2
S'../../../data/emanuela/activity-recognition/images/NTCIR-Lifelog-256/u2/2015-05-03/b00003775_21i7lf_20150503_144012e.jpg'
p5063
sg4
(lp5064
(g44
g6
(g18
S'D\xa7z?'
p5065
tp5066
Rp5067
tp5068
a(g88
g6
(g18
S'\xa6\x9bA<'
p5069
tp5070
Rp5071
tp5072
a(g394
g6
(g18
S')\x18\x08;'
p5073
tp5074
Rp5075
tp5076
a(g68
g6
(g18
S'E\xef\xce:'
p5077
tp5078
Rp5079
tp5080
a(g425
g6
(g18
S';\x02\x92:'
p5081
tp5082
Rp5083
tp5084
asg73
g44
sa(dp5085
g2
S'../../../data/emanuela/activity-recognition/images/NTCIR-Lifelog-256/u2/2015-05-03/b00003763_21i7lf_20150503_143248e.jpg'
p5086
sg4
(lp5087
(g44
g6
(g18
S'+\xf7u?'
p5088
tp5089
Rp5090
tp5091
a(g68
g6
(g18
S'N"\xa2<'
p5092
tp5093
Rp5094
tp5095
a(g15
g6
(g18
S'\xf9\xe1L<'
p5096
tp5097
Rp5098
tp5099
a(g32
g6
(g18
S'bZ1;'
p5100
tp5101
Rp5102
tp5103
a(g143
g6
(g18
S'h\x92\x18;'
p5104
tp5105
Rp5106
tp5107
asg73
g44
sa(dp5108
g2
S'../../../data/emanuela/activity-recognition/images/NTCIR-Lifelog-256/u2/2015-06-20/b00004224_21i7lf_20150620_090015e.jpg'
p5109
sg4
(lp5110
(g68
g6
(g18
S'\xc9\x04=?'
p5111
tp5112
Rp5113
tp5114
a(g143
g6
(g18
S'9\xe0\xa3='
p5115
tp5116
Rp5117
tp5118
a(g267
g6
(g18
S'\x97W\x12='
p5119
tp5120
Rp5121
tp5122
a(g88
g6
(g18
S'\xa0\xd2\x11='
p5123
tp5124
Rp5125
tp5126
a(g100
g6
(g18
S'<\xf1\xff<'
p5127
tp5128
Rp5129
tp5130
asg73
g44
sa(dp5131
g2
S'../../../data/emanuela/activity-recognition/images/NTCIR-Lifelog-256/u2/2015-06-16/b00001314_21i7lf_20150616_065942e.jpg'
p5132
sg4
(lp5133
(g44
g6
(g18
S'*\x92E?'
p5134
tp5135
Rp5136
tp5137
a(g100
g6
(g18
S'iHK>'
p5138
tp5139
Rp5140
tp5141
a(g68
g6
(g18
S't?|<'
p5142
tp5143
Rp5144
tp5145
a(g88
g6
(g18
S'&\x96\xda;'
p5146
tp5147
Rp5148
tp5149
a(g267
g6
(g18
S'C\xd9\xf2:'
p5150
tp5151
Rp5152
tp5153
asg73
g44
sa(dp5154
g2
S'../../../data/emanuela/activity-recognition/images/NTCIR-Lifelog-256/u2/2015-06-16/b00001320_21i7lf_20150616_070314e.jpg'
p5155
sg4
(lp5156
(g44
g6
(g18
S'\xf1\x87I?'
p5157
tp5158
Rp5159
tp5160
a(g68
g6
(g18
S'\x1dg\xb5='
p5161
tp5162
Rp5163
tp5164
a(g100
g6
(g18
S'\xcct9='
p5165
tp5166
Rp5167
tp5168
a(g394
g6
(g18
S'.C\xbd<'
p5169
tp5170
Rp5171
tp5172
a(g112
g6
(g18
S'\x06\x93\xb8<'
p5173
tp5174
Rp5175
tp5176
asg73
g44
sa(dp5177
g2
S'../../../data/emanuela/activity-recognition/images/NTCIR-Lifelog-256/u2/2015-06-16/b00001337_21i7lf_20150616_071258e.jpg'
p5178
sg4
(lp5179
(g44
g6
(g18
S'QJC?'
p5180
tp5181
Rp5182
tp5183
a(g68
g6
(g18
S'\xd9m\x0e>'
p5184
tp5185
Rp5186
tp5187
a(g112
g6
(g18
S'{Kp='
p5188
tp5189
Rp5190
tp5191
a(g267
g6
(g18
S'\xba\xd9\x13<'
p5192
tp5193
Rp5194
tp5195
a(g100
g6
(g18
S'\xb0Z\xf2;'
p5196
tp5197
Rp5198
tp5199
asg73
g44
sa(dp5200
g2
S'../../../data/emanuela/activity-recognition/images/NTCIR-Lifelog-256/u2/2015-04-21/b00000847_21i7lf_20150421_183302e.jpg'
p5201
sg4
(lp5202
(g44
g6
(g18
S'\xdf\xa0\xbf>'
p5203
tp5204
Rp5205
tp5206
a(g15
g6
(g18
S'Ln\x8d>'
p5207
tp5208
Rp5209
tp5210
a(g32
g6
(g18
S'[\xdba>'
p5211
tp5212
Rp5213
tp5214
a(g68
g6
(g18
S't\x9e8='
p5215
tp5216
Rp5217
tp5218
a(g56
g6
(g18
S'~\xa8\xac<'
p5219
tp5220
Rp5221
tp5222
asg73
g44
sa(dp5223
g2
S'../../../data/emanuela/activity-recognition/images/NTCIR-Lifelog-256/u2/2015-05-03/b00003776_21i7lf_20150503_144045e.jpg'
p5224
sg4
(lp5225
(g44
g6
(g18
S'\x9d\x8ca?'
p5226
tp5227
Rp5228
tp5229
a(g88
g6
(g18
S'\xe2\xf7\xc1<'
p5230
tp5231
Rp5232
tp5233
a(g394
g6
(g18
S'\xb5\x89\x9b<'
p5234
tp5235
Rp5236
tp5237
a(g267
g6
(g18
S'\x9b*\x97<'
p5238
tp5239
Rp5240
tp5241
a(g112
g6
(g18
S'c\xb8\x86<'
p5242
tp5243
Rp5244
tp5245
asg73
g44
sa(dp5246
g2
S'../../../data/emanuela/activity-recognition/images/NTCIR-Lifelog-256/u2/2015-04-21/b00000844_21i7lf_20150421_183116e.jpg'
p5247
sg4
(lp5248
(g32
g6
(g18
S'\x03\x10\x19?'
p5249
tp5250
Rp5251
tp5252
a(g15
g6
(g18
S'\xcb\xa9S>'
p5253
tp5254
Rp5255
tp5256
a(g44
g6
(g18
S'O7\x81='
p5257
tp5258
Rp5259
tp5260
a(g143
g6
(g18
S'\xe2\xdaM='
p5261
tp5262
Rp5263
tp5264
a(g68
g6
(g18
S'\xf9\x16J='
p5265
tp5266
Rp5267
tp5268
asg73
g44
sa(dp5269
g2
S'../../../data/emanuela/activity-recognition/images/NTCIR-Lifelog-256/u2/2015-06-16/b00001324_21i7lf_20150616_070533e.jpg'
p5270
sg4
(lp5271
(g44
g6
(g18
S'\xad2\x03?'
p5272
tp5273
Rp5274
tp5275
a(g112
g6
(g18
S'\xfbY\x85>'
p5276
tp5277
Rp5278
tp5279
a(g68
g6
(g18
S'\xa2\xa4\x8b='
p5280
tp5281
Rp5282
tp5283
a(g394
g6
(g18
S'\x01\xa8\x87='
p5284
tp5285
Rp5286
tp5287
a(g100
g6
(g18
S'\x90\x10X='
p5288
tp5289
Rp5290
tp5291
asg73
g44
sa(dp5292
g2
S'../../../data/emanuela/activity-recognition/images/NTCIR-Lifelog-256/u2/2015-05-03/b00004044_21i7lf_20150503_172816e.jpg'
p5293
sg4
(lp5294
(g112
g6
(g18
S'\xbc\x98\x19?'
p5295
tp5296
Rp5297
tp5298
a(g88
g6
(g18
S'b\xe5\xa4>'
p5299
tp5300
Rp5301
tp5302
a(g44
g6
(g18
S'\xd3\xee\xe0<'
p5303
tp5304
Rp5305
tp5306
a(g251
g6
(g18
S'2\xaf\r<'
p5307
tp5308
Rp5309
tp5310
a(g15
g6
(g18
S'\xf9\x8f\xcf;'
p5311
tp5312
Rp5313
tp5314
asg73
g44
sa(dp5315
g2
S'../../../data/emanuela/activity-recognition/images/NTCIR-Lifelog-256/u2/2015-04-21/b00000843_21i7lf_20150421_183040e.jpg'
p5316
sg4
(lp5317
(g32
g6
(g18
S'\xfc\xaa\xe2>'
p5318
tp5319
Rp5320
tp5321
a(g15
g6
(g18
S'\xbfla>'
p5322
tp5323
Rp5324
tp5325
a(g44
g6
(g18
S'\xdc\x17\x18>'
p5326
tp5327
Rp5328
tp5329
a(g56
g6
(g18
S'\xbf\xbf\xe1='
p5330
tp5331
Rp5332
tp5333
a(g68
g6
(g18
S'\xdaN9='
p5334
tp5335
Rp5336
tp5337
asg73
g44
sa(dp5338
g2
S'../../../data/emanuela/activity-recognition/images/NTCIR-Lifelog-256/u2/2015-06-17/b00002167_21i7lf_20150617_104738e.jpg'
p5339
sg4
(lp5340
(g44
g6
(g18
S'\xc9|\x16?'
p5341
tp5342
Rp5343
tp5344
a(g15
g6
(g18
S'G\x1c(>'
p5345
tp5346
Rp5347
tp5348
a(g68
g6
(g18
S'\x03\xd1\x87='
p5349
tp5350
Rp5351
tp5352
a(g112
g6
(g18
S'\x00$|='
p5353
tp5354
Rp5355
tp5356
a(g56
g6
(g18
S'\xd7\xfa\xd8<'
p5357
tp5358
Rp5359
tp5360
asg73
g44
sa(dp5361
g2
S'../../../data/emanuela/activity-recognition/images/NTCIR-Lifelog-256/u2/2015-06-20/b00004623_21i7lf_20150620_125419e.jpg'
p5362
sg4
(lp5363
(g68
g6
(g18
S'\xee\xe7d?'
p5364
tp5365
Rp5366
tp5367
a(g56
g6
(g18
S'\xc0Q\xcf<'
p5368
tp5369
Rp5370
tp5371
a(g232
g6
(g18
S'\xe2\xa0\xb1<'
p5372
tp5373
Rp5374
tp5375
a(g100
g6
(g18
S'\xb6\x08N<'
p5376
tp5377
Rp5378
tp5379
a(g15
g6
(g18
S'\x12\xd43<'
p5380
tp5381
Rp5382
tp5383
asg73
g44
sa(dp5384
g2
S'../../../data/emanuela/activity-recognition/images/NTCIR-Lifelog-256/u2/2015-05-03/b00004033_21i7lf_20150503_172117e.jpg'
p5385
sg4
(lp5386
(g112
g6
(g18
S'c\x8fY?'
p5387
tp5388
Rp5389
tp5390
a(g44
g6
(g18
S'Bb,='
p5391
tp5392
Rp5393
tp5394
a(g251
g6
(g18
S'\x074\xf6<'
p5395
tp5396
Rp5397
tp5398
a(g88
g6
(g18
S'\x12\xd2\xaa<'
p5399
tp5400
Rp5401
tp5402
a(g594
g6
(g18
S'\x91\xc4L<'
p5403
tp5404
Rp5405
tp5406
asg73
g44
sa(dp5407
g2
S'../../../data/emanuela/activity-recognition/images/NTCIR-Lifelog-256/u2/2015-05-03/b00003765_21i7lf_20150503_143404e.jpg'
p5408
sg4
(lp5409
(g44
g6
(g18
S'\x1c\xee}?'
p5410
tp5411
Rp5412
tp5413
a(g112
g6
(g18
S'\x97\xc2C;'
p5414
tp5415
Rp5416
tp5417
a(g68
g6
(g18
S'\x17t\x0b;'
p5418
tp5419
Rp5420
tp5421
a(g100
g6
(g18
S'\\\\\xb9:'
p5422
tp5423
Rp5424
tp5425
a(g267
g6
(g18
S'\x14r\xff9'
p5426
tp5427
Rp5428
tp5429
asg73
g44
sa(dp5430
g2
S'../../../data/emanuela/activity-recognition/images/NTCIR-Lifelog-256/u2/2015-06-17/b00002165_21i7lf_20150617_104604e.jpg'
p5431
sg4
(lp5432
(g44
g6
(g18
S'o\xc3\xc2>'
p5433
tp5434
Rp5435
tp5436
a(g15
g6
(g18
S'yy\xb6>'
p5437
tp5438
Rp5439
tp5440
a(g32
g6
(g18
S'&6\xc7='
p5441
tp5442
Rp5443
tp5444
a(g68
g6
(g18
S'\x95\xdb\x1f='
p5445
tp5446
Rp5447
tp5448
a(g100
g6
(g18
S'M\xbf\xe6<'
p5449
tp5450
Rp5451
tp5452
asg73
g44
sa(dp5453
g2
S'../../../data/emanuela/activity-recognition/images/NTCIR-Lifelog-256/u2/2015-05-03/b00004046_21i7lf_20150503_172939e.jpg'
p5454
sg4
(lp5455
(g251
g6
(g18
S'\xd1\xdf\x0b?'
p5456
tp5457
Rp5458
tp5459
a(g112
g6
(g18
S'\xbf*&>'
p5460
tp5461
Rp5462
tp5463
a(g32
g6
(g18
S'\n\xed\xac='
p5464
tp5465
Rp5466
tp5467
a(g44
g6
(g18
S'\xc7\xb1]='
p5468
tp5469
Rp5470
tp5471
a(g267
g6
(g18
S'-\xc2&='
p5472
tp5473
Rp5474
tp5475
asg73
g44
sa(dp5476
g2
S'../../../data/emanuela/activity-recognition/images/NTCIR-Lifelog-256/u2/2015-06-20/b00004636_21i7lf_20150620_130643e.jpg'
p5477
sg4
(lp5478
(g68
g6
(g18
S'n\x07\xd8>'
p5479
tp5480
Rp5481
tp5482
a(g44
g6
(g18
S'p\x1a#>'
p5483
tp5484
Rp5485
tp5486
a(g56
g6
(g18
S'\xbf\xaa\x04>'
p5487
tp5488
Rp5489
tp5490
a(g232
g6
(g18
S'\xe9!\xe3='
p5491
tp5492
Rp5493
tp5494
a(g15
g6
(g18
S'\xb4\xb3\xc6='
p5495
tp5496
Rp5497
tp5498
asg73
g44
sa(dp5499
g2
S'../../../data/emanuela/activity-recognition/images/NTCIR-Lifelog-256/u2/2015-06-19/b00002947_21i7lf_20150619_063936e.jpg'
p5500
sg4
(lp5501
(g68
g6
(g18
S'\xc6`\xdd>'
p5502
tp5503
Rp5504
tp5505
a(g44
g6
(g18
S'\xbbu$>'
p5506
tp5507
Rp5508
tp5509
a(g100
g6
(g18
S'\xd8\xdc\xa3='
p5510
tp5511
Rp5512
tp5513
a(g143
g6
(g18
S'\xad\xd1\x90='
p5514
tp5515
Rp5516
tp5517
a(g56
g6
(g18
S'XZu='
p5518
tp5519
Rp5520
tp5521
asg73
g44
sa(dp5522
g2
S'../../../data/emanuela/activity-recognition/images/NTCIR-Lifelog-256/u2/2015-06-18/b00002838_21i7lf_20150618_123242e.jpg'
p5523
sg4
(lp5524
(g68
g6
(g18
S'\xf0x\xf2>'
p5525
tp5526
Rp5527
tp5528
a(g394
g6
(g18
S'\x12\x1f\x1c>'
p5529
tp5530
Rp5531
tp5532
a(g143
g6
(g18
S'\xb3"\t>'
p5533
tp5534
Rp5535
tp5536
a(g267
g6
(g18
S'Qu\xf0='
p5537
tp5538
Rp5539
tp5540
a(g100
g6
(g18
S'\x84\xdf\x89='
p5541
tp5542
Rp5543
tp5544
asg73
g44
sa(dp5545
g2
S'../../../data/emanuela/activity-recognition/images/NTCIR-Lifelog-256/u2/2015-05-03/b00003781_21i7lf_20150503_144348e.jpg'
p5546
sg4
(lp5547
(g44
g6
(g18
S'9\x02~?'
p5548
tp5549
Rp5550
tp5551
a(g88
g6
(g18
S'\x05\x7fw;'
p5552
tp5553
Rp5554
tp5555
a(g394
g6
(g18
S'\xf0d\x8b:'
p5556
tp5557
Rp5558
tp5559
a(g425
g6
(g18
S'\xc5\xafD:'
p5560
tp5561
Rp5562
tp5563
a(g267
g6
(g18
S'\x0br7:'
p5564
tp5565
Rp5566
tp5567
asg73
g44
sa(dp5568
g2
S'../../../data/emanuela/activity-recognition/images/NTCIR-Lifelog-256/u2/2015-06-20/b00004640_21i7lf_20150620_131234e.jpg'
p5569
sg4
(lp5570
(g15
g6
(g18
S'\xfe\xea\x0c?'
p5571
tp5572
Rp5573
tp5574
a(g44
g6
(g18
S'\xb7\x19b>'
p5575
tp5576
Rp5577
tp5578
a(g68
g6
(g18
S'k\xa4\x87='
p5579
tp5580
Rp5581
tp5582
a(g100
g6
(g18
S'z\xf9m='
p5583
tp5584
Rp5585
tp5586
a(g32
g6
(g18
S'5\x81Z='
p5587
tp5588
Rp5589
tp5590
asg73
g44
sa(dp5591
g2
S'../../../data/emanuela/activity-recognition/images/NTCIR-Lifelog-256/u2/2015-06-18/b00002824_21i7lf_20150618_122235e.jpg'
p5592
sg4
(lp5593
(g232
g6
(g18
S'|\xe5\x16?'
p5594
tp5595
Rp5596
tp5597
a(g68
g6
(g18
S'\xa2\xed\x13>'
p5598
tp5599
Rp5600
tp5601
a(g15
g6
(g18
S'\x82e\xc6='
p5602
tp5603
Rp5604
tp5605
a(g88
g6
(g18
S'\xcb\xac\xc0='
p5606
tp5607
Rp5608
tp5609
a(g479
g6
(g18
S'MM\xb4<'
p5610
tp5611
Rp5612
tp5613
asg73
g44
sa.