(lp0
(dp1
S'image'
p2
S'../../../data/emanuela/activity-recognition/images/NTCIR-Lifelog-256/u2/2015-04-27/b00005507_21i7lf_20150427_144055e.jpg'
p3
sS'result'
p4
(lp5
(cnumpy.core.multiarray
scalar
p6
(cnumpy
dtype
p7
(S'S7'
p8
I0
I1
tp9
Rp10
(I3
S'|'
p11
NNNI7
I1
I0
tp12
bS'reading'
p13
tp14
Rp15
g6
(g7
(S'f4'
p16
I0
I1
tp17
Rp18
(I3
S'<'
p19
NNNI-1
I-1
I0
tp20
bS'\xabg#?'
p21
tp22
Rp23
tp24
a(g6
(g7
(S'S7'
p25
I0
I1
tp26
Rp27
(I3
S'|'
p28
NNNI7
I1
I0
tp29
bS'working'
p30
tp31
Rp32
g6
(g18
S'K\xb9\x8e>'
p33
tp34
Rp35
tp36
a(g6
(g7
(S'S19'
p37
I0
I1
tp38
Rp39
(I3
S'|'
p40
NNNI19
I1
I0
tp41
bS'cleaning and chores'
p42
tp43
Rp44
g6
(g18
S'9u\xe9<'
p45
tp46
Rp47
tp48
a(g6
(g7
(S'S24'
p49
I0
I1
tp50
Rp51
(I3
S'|'
p52
NNNI24
I1
I0
tp53
bS'having drinks/meal alone'
p54
tp55
Rp56
g6
(g18
S'\x8e@\xb2<'
p57
tp58
Rp59
tp60
a(g6
(g7
(S'S25'
p61
I0
I1
tp62
Rp63
(I3
S'|'
p64
NNNI25
I1
I0
tp65
bS'having meal with somebody'
p66
tp67
Rp68
g6
(g18
S'\xd6\x13\xa3;'
p69
tp70
Rp71
tp72
asS'label'
p73
g15
sa(dp74
g2
S'../../../data/emanuela/activity-recognition/images/NTCIR-Lifelog-256/u2/2015-04-20/b00000693_21i7lf_20150420_165300e.jpg'
p75
sg4
(lp76
(g32
g6
(g18
S'L\xc6\xf4>'
p77
tp78
Rp79
tp80
a(g15
g6
(g18
S'|!\xce>'
p81
tp82
Rp83
tp84
a(g6
(g7
(S'S7'
p85
I0
I1
tp86
Rp87
(I3
S'|'
p88
NNNI7
I1
I0
tp89
bS'meeting'
p90
tp91
Rp92
g6
(g18
S'flS='
p93
tp94
Rp95
tp96
a(g6
(g7
(S'S7'
p97
I0
I1
tp98
Rp99
(I3
S'|'
p100
NNNI7
I1
I0
tp101
bS'talking'
p102
tp103
Rp104
g6
(g18
S'\x10+\xe8<'
p105
tp106
Rp107
tp108
a(g6
(g7
(S'S6'
p109
I0
I1
tp110
Rp111
(I3
S'|'
p112
NNNI6
I1
I0
tp113
bS'mobile'
p114
tp115
Rp116
g6
(g18
S'\x9a`\xa7<'
p117
tp118
Rp119
tp120
asg73
g15
sa(dp121
g2
S'../../../data/emanuela/activity-recognition/images/NTCIR-Lifelog-256/u2/2015-04-20/b00000521_21i7lf_20150420_150600e.jpg'
p122
sg4
(lp123
(g15
g6
(g18
S'3\xf3\x7f?'
p124
tp125
Rp126
tp127
a(g116
g6
(g18
S'\x93\xebG8'
p128
tp129
Rp130
tp131
a(g6
(g7
(S'S15'
p132
I0
I1
tp133
Rp134
(I3
S'|'
p135
NNNI15
I1
I0
tp136
bS'walking outdoor'
p137
tp138
Rp139
g6
(g18
S'{_\n8'
p140
tp141
Rp142
tp143
a(g6
(g7
(S'S14'
p144
I0
I1
tp145
Rp146
(I3
S'|'
p147
NNNI14
I1
I0
tp148
bS'walking indoor'
p149
tp150
Rp151
g6
(g18
S'\xb7\x02\x048'
p152
tp153
Rp154
tp155
a(g6
(g7
(S'S7'
p156
I0
I1
tp157
Rp158
(I3
S'|'
p159
NNNI7
I1
I0
tp160
bS'resting'
p161
tp162
Rp163
g6
(g18
S'\x0e5\xd07'
p164
tp165
Rp166
tp167
asg73
g15
sa(dp168
g2
S'../../../data/emanuela/activity-recognition/images/NTCIR-Lifelog-256/u2/2015-04-27/b00005450_21i7lf_20150427_140411e.jpg'
p169
sg4
(lp170
(g32
g6
(g18
S'\\\xd11?'
p171
tp172
Rp173
tp174
a(g116
g6
(g18
S'\x95\xf2:>'
p175
tp176
Rp177
tp178
a(g56
g6
(g18
S'\xf4\r1='
p179
tp180
Rp181
tp182
a(g6
(g7
(S'S27'
p183
I0
I1
tp184
Rp185
(I3
S'|'
p186
NNNI27
I1
I0
tp187
bS'having drinks with somebody'
p188
tp189
Rp190
g6
(g18
S',\x1a\xdc<'
p191
tp192
Rp193
tp194
a(g92
g6
(g18
S'\x06q6<'
p195
tp196
Rp197
tp198
asg73
g15
sa(dp199
g2
S'../../../data/emanuela/activity-recognition/images/NTCIR-Lifelog-256/u2/2015-04-27/b00005439_21i7lf_20150427_135709e.jpg'
p200
sg4
(lp201
(g32
g6
(g18
S'+\xc4N?'
p202
tp203
Rp204
tp205
a(g56
g6
(g18
S'\x14\xfc\x84='
p206
tp207
Rp208
tp209
a(g15
g6
(g18
S'\xde\x15\xf5<'
p210
tp211
Rp212
tp213
a(g44
g6
(g18
S'\xcb\xa5\xab<'
p214
tp215
Rp216
tp217
a(g92
g6
(g18
S'\xd5\x88\x8c<'
p218
tp219
Rp220
tp221
asg73
g15
sa(dp222
g2
S'../../../data/emanuela/activity-recognition/images/NTCIR-Lifelog-256/u2/2015-04-27/b00005542_21i7lf_20150427_150205e.jpg'
p223
sg4
(lp224
(g32
g6
(g18
S'm.x?'
p225
tp226
Rp227
tp228
a(g116
g6
(g18
S'\x15&@<'
p229
tp230
Rp231
tp232
a(g56
g6
(g18
S'\xb1\x92\xa6;'
p233
tp234
Rp235
tp236
a(g15
g6
(g18
S'\x0f\xac\xa4;'
p237
tp238
Rp239
tp240
a(g151
g6
(g18
S'3\x1f\xeb:'
p241
tp242
Rp243
tp244
asg73
g15
sa(dp245
g2
S'../../../data/emanuela/activity-recognition/images/NTCIR-Lifelog-256/u2/2015-04-27/b00005467_21i7lf_20150427_141550e.jpg'
p246
sg4
(lp247
(g32
g6
(g18
S'\x15\xb7\x11?'
p248
tp249
Rp250
tp251
a(g15
g6
(g18
S'\x17\x90\xd4>'
p252
tp253
Rp254
tp255
a(g44
g6
(g18
S'/mQ;'
p256
tp257
Rp258
tp259
a(g6
(g7
(S'S5'
p260
I0
I1
tp261
Rp262
(I3
S'|'
p263
NNNI5
I1
I0
tp264
bS'plane'
p265
tp266
Rp267
g6
(g18
S'\xf0\xab?;'
p268
tp269
Rp270
tp271
a(g92
g6
(g18
S'\xf2\x8f5;'
p272
tp273
Rp274
tp275
asg73
g15
sa(dp276
g2
S'../../../data/emanuela/activity-recognition/images/NTCIR-Lifelog-256/u2/2015-04-20/b00000691_21i7lf_20150420_165146e.jpg'
p277
sg4
(lp278
(g15
g6
(g18
S'y\xc0z?'
p279
tp280
Rp281
tp282
a(g32
g6
(g18
S'Dp\xdd;'
p283
tp284
Rp285
tp286
a(g56
g6
(g18
S'\x1e\xcd\xda;'
p287
tp288
Rp289
tp290
a(g116
g6
(g18
S'\x97\x9c,;'
p291
tp292
Rp293
tp294
a(g44
g6
(g18
S'%\x8d\xeb:'
p295
tp296
Rp297
tp298
asg73
g15
sa(dp299
g2
S'../../../data/emanuela/activity-recognition/images/NTCIR-Lifelog-256/u2/2015-04-27/b00005555_21i7lf_20150427_151004e.jpg'
p300
sg4
(lp301
(g32
g6
(g18
S'\xd4\x17\x18?'
p302
tp303
Rp304
tp305
a(g15
g6
(g18
S'\x9ar\xc6>'
p306
tp307
Rp308
tp309
a(g92
g6
(g18
S'\x87\xd8\xe2;'
p310
tp311
Rp312
tp313
a(g44
g6
(g18
S'\x01\xbf\x90;'
p314
tp315
Rp316
tp317
a(g56
g6
(g18
S'\xaa\xde(;'
p318
tp319
Rp320
tp321
asg73
g15
sa(dp322
g2
S'../../../data/emanuela/activity-recognition/images/NTCIR-Lifelog-256/u2/2015-04-20/b00000673_21i7lf_20150420_164040e.jpg'
p323
sg4
(lp324
(g15
g6
(g18
S'\xc7\x15{?'
p325
tp326
Rp327
tp328
a(g116
g6
(g18
S'6\x05\x10<'
p329
tp330
Rp331
tp332
a(g32
g6
(g18
S'?j\xe5;'
p333
tp334
Rp335
tp336
a(g56
g6
(g18
S'\x96\t\xa6:'
p337
tp338
Rp339
tp340
a(g92
g6
(g18
S'\xbd=I:'
p341
tp342
Rp343
tp344
asg73
g15
sa(dp345
g2
S'../../../data/emanuela/activity-recognition/images/NTCIR-Lifelog-256/u2/2015-04-20/b00000694_21i7lf_20150420_165333e.jpg'
p346
sg4
(lp347
(g32
g6
(g18
S'#(\xa8>'
p348
tp349
Rp350
tp351
a(g116
g6
(g18
S'\x11\xedB>'
p352
tp353
Rp354
tp355
a(g15
g6
(g18
S'\x9eF,>'
p356
tp357
Rp358
tp359
a(g92
g6
(g18
S'\xcfL&>'
p360
tp361
Rp362
tp363
a(g104
g6
(g18
S'\xa5\xc9\x8a='
p364
tp365
Rp366
tp367
asg73
g15
sa(dp368
g2
S'../../../data/emanuela/activity-recognition/images/NTCIR-Lifelog-256/u2/2015-04-20/b00000643_21i7lf_20150420_162214e.jpg'
p369
sg4
(lp370
(g15
g6
(g18
S'/\xd0\x7f?'
p371
tp372
Rp373
tp374
a(g116
g6
(g18
S'R\xae\x979'
p375
tp376
Rp377
tp378
a(g163
g6
(g18
S'\x97\xcc;9'
p379
tp380
Rp381
tp382
a(g151
g6
(g18
S'\xc8\xe3\x828'
p383
tp384
Rp385
tp386
a(g44
g6
(g18
S'\xc9M88'
p387
tp388
Rp389
tp390
asg73
g15
sa(dp391
g2
S'../../../data/emanuela/activity-recognition/images/NTCIR-Lifelog-256/u2/2015-04-20/b00000546_21i7lf_20150420_152103e.jpg'
p392
sg4
(lp393
(g15
g6
(g18
S'\x1cNu?'
p394
tp395
Rp396
tp397
a(g139
g6
(g18
S'\xacy\xc5<'
p398
tp399
Rp400
tp401
a(g163
g6
(g18
S'O[\xb7;'
p402
tp403
Rp404
tp405
a(g6
(g7
(S'S11'
p406
I0
I1
tp407
Rp408
(I3
S'|'
p409
NNNI11
I1
I0
tp410
bS'socializing'
p411
tp412
Rp413
g6
(g18
S'^\xfd?;'
p414
tp415
Rp416
tp417
a(g116
g6
(g18
S'M\xf0\x19;'
p418
tp419
Rp420
tp421
asg73
g15
sa(dp422
g2
S'../../../data/emanuela/activity-recognition/images/NTCIR-Lifelog-256/u2/2015-04-20/b00000698_21i7lf_20150420_165607e.jpg'
p423
sg4
(lp424
(g116
g6
(g18
S'\x95\xe7\xa7>'
p425
tp426
Rp427
tp428
a(g32
g6
(g18
S'\xe8\x9a\x9a>'
p429
tp430
Rp431
tp432
a(g15
g6
(g18
S'\x96-9>'
p433
tp434
Rp435
tp436
a(g56
g6
(g18
S'c\xa1\x15>'
p437
tp438
Rp439
tp440
a(g6
(g7
(S'S16'
p441
I0
I1
tp442
Rp443
(I3
S'|'
p444
NNNI16
I1
I0
tp445
bS'public transport'
p446
tp447
Rp448
g6
(g18
S'\xe9\xe1\x12<'
p449
tp450
Rp451
tp452
asg73
g15
sa(dp453
g2
S'../../../data/emanuela/activity-recognition/images/NTCIR-Lifelog-256/u2/2015-04-20/b00000563_21i7lf_20150420_153158e.jpg'
p454
sg4
(lp455
(g15
g6
(g18
S'\x01\xc2\x7f?'
p456
tp457
Rp458
tp459
a(g116
g6
(g18
S'H3\xd39'
p460
tp461
Rp462
tp463
a(g139
g6
(g18
S'\x97P\xd88'
p464
tp465
Rp466
tp467
a(g151
g6
(g18
S'\xc8\x10\xd48'
p468
tp469
Rp470
tp471
a(g163
g6
(g18
S'O\x08z8'
p472
tp473
Rp474
tp475
asg73
g15
sa(dp476
g2
S'../../../data/emanuela/activity-recognition/images/NTCIR-Lifelog-256/u2/2015-04-27/b00005443_21i7lf_20150427_135939e.jpg'
p477
sg4
(lp478
(g15
g6
(g18
S'O\xa9l?'
p479
tp480
Rp481
tp482
a(g32
g6
(g18
S'\xc7\xefZ='
p483
tp484
Rp485
tp486
a(g56
g6
(g18
S'\xfb\xf2\x1e<'
p487
tp488
Rp489
tp490
a(g413
g6
(g18
S'N\x98>;'
p491
tp492
Rp493
tp494
a(g68
g6
(g18
S'\x9bh2;'
p495
tp496
Rp497
tp498
asg73
g15
sa(dp499
g2
S'../../../data/emanuela/activity-recognition/images/NTCIR-Lifelog-256/u2/2015-06-16/b00001596_21i7lf_20150616_100352e.jpg'
p500
sg4
(lp501
(g15
g6
(g18
S'\x1fY??'
p502
tp503
Rp504
tp505
a(g267
g6
(g18
S'\r-K>'
p506
tp507
Rp508
tp509
a(g116
g6
(g18
S'\xb5?\xdb<'
p510
tp511
Rp512
tp513
a(g6
(g7
(S'S7'
p514
I0
I1
tp515
Rp516
(I3
S'|'
p517
NNNI7
I1
I0
tp518
bS'driving'
p519
tp520
Rp521
g6
(g18
S'\x8as\xb3;'
p522
tp523
Rp524
tp525
a(g44
g6
(g18
S'\x84\xd3\x81;'
p526
tp527
Rp528
tp529
asg73
g15
sa(dp530
g2
S'../../../data/emanuela/activity-recognition/images/NTCIR-Lifelog-256/u2/2015-04-27/b00005552_21i7lf_20150427_150813e.jpg'
p531
sg4
(lp532
(g32
g6
(g18
S'/\x0bs?'
p533
tp534
Rp535
tp536
a(g56
g6
(g18
S'\xf1t\x06='
p537
tp538
Rp539
tp540
a(g44
g6
(g18
S'\x9d\x81z;'
p541
tp542
Rp543
tp544
a(g6
(g7
(S'S2'
p545
I0
I1
tp546
Rp547
(I3
S'|'
p548
NNNI2
I1
I0
tp549
bS'tv'
p550
tp551
Rp552
g6
(g18
S'.\xeeA;'
p553
tp554
Rp555
tp556
a(g92
g6
(g18
S'U\xa8\x14;'
p557
tp558
Rp559
tp560
asg73
g15
sa(dp561
g2
S'../../../data/emanuela/activity-recognition/images/NTCIR-Lifelog-256/u2/2015-04-27/b00005551_21i7lf_20150427_150738e.jpg'
p562
sg4
(lp563
(g32
g6
(g18
S'\xaa\xd5\xd0>'
p564
tp565
Rp566
tp567
a(g116
g6
(g18
S'\xea\xa2\x86>'
p568
tp569
Rp570
tp571
a(g56
g6
(g18
S'\xfb\xe9\xd8='
p572
tp573
Rp574
tp575
a(g190
g6
(g18
S'}&\xb1='
p576
tp577
Rp578
tp579
a(g413
g6
(g18
S'\xf3u\r='
p580
tp581
Rp582
tp583
asg73
g15
sa(dp584
g2
S'../../../data/emanuela/activity-recognition/images/NTCIR-Lifelog-256/u2/2015-05-07/b00007696_21i7lf_20150507_150556e.jpg'
p585
sg4
(lp586
(g15
g6
(g18
S's7^?'
p587
tp588
Rp589
tp590
a(g32
g6
(g18
S'-\xe7@='
p591
tp592
Rp593
tp594
a(g116
g6
(g18
S'\xfd(\xf9<'
p595
tp596
Rp597
tp598
a(g190
g6
(g18
S'=k\xa5<'
p599
tp600
Rp601
tp602
a(g92
g6
(g18
S'\xddD\x10<'
p603
tp604
Rp605
tp606
asg73
g15
sa(dp607
g2
S'../../../data/emanuela/activity-recognition/images/NTCIR-Lifelog-256/u2/2015-04-20/b00000568_21i7lf_20150420_153511e.jpg'
p608
sg4
(lp609
(g15
g6
(g18
S'p\x0b\xc9>'
p610
tp611
Rp612
tp613
a(g163
g6
(g18
S' @L>'
p614
tp615
Rp616
tp617
a(g116
g6
(g18
S'\xb7\xab\x02>'
p618
tp619
Rp620
tp621
a(g44
g6
(g18
S']\xac\xe5='
p622
tp623
Rp624
tp625
a(g56
g6
(g18
S'J\xf9\xde='
p626
tp627
Rp628
tp629
asg73
g15
sa(dp630
g2
S'../../../data/emanuela/activity-recognition/images/NTCIR-Lifelog-256/u2/2015-04-27/b00005440_21i7lf_20150427_135748e.jpg'
p631
sg4
(lp632
(g15
g6
(g18
S'\xa4cX?'
p633
tp634
Rp635
tp636
a(g32
g6
(g18
S'F\x9c\xd8='
p637
tp638
Rp639
tp640
a(g116
g6
(g18
S'av;<'
p641
tp642
Rp643
tp644
a(g190
g6
(g18
S'{\x80\xc7;'
p645
tp646
Rp647
tp648
a(g139
g6
(g18
S'<r\xb5;'
p649
tp650
Rp651
tp652
asg73
g15
sa(dp653
g2
S'../../../data/emanuela/activity-recognition/images/NTCIR-Lifelog-256/u2/2015-04-20/b00000573_21i7lf_20150420_153817e.jpg'
p654
sg4
(lp655
(g15
g6
(g18
S'\xb0\xf4\x7f?'
p656
tp657
Rp658
tp659
a(g116
g6
(g18
S'\xa2l\x9b8'
p660
tp661
Rp662
tp663
a(g163
g6
(g18
S'yP\xd47'
p664
tp665
Rp666
tp667
a(g56
g6
(g18
S'\x1b\x0c+7'
p668
tp669
Rp670
tp671
a(g92
g6
(g18
S'\xc0\x9a\x137'
p672
tp673
Rp674
tp675
asg73
g15
sa(dp676
g2
S'../../../data/emanuela/activity-recognition/images/NTCIR-Lifelog-256/u2/2015-04-27/b00005479_21i7lf_20150427_142403e.jpg'
p677
sg4
(lp678
(g15
g6
(g18
S'lT\n?'
p679
tp680
Rp681
tp682
a(g32
g6
(g18
S'\xf0\x05\x9b>'
p683
tp684
Rp685
tp686
a(g56
g6
(g18
S'?\x07\xfe<'
p687
tp688
Rp689
tp690
a(g139
g6
(g18
S'V\xce\xec<'
p691
tp692
Rp693
tp694
a(g44
g6
(g18
S'\xcf\x85\xbe<'
p695
tp696
Rp697
tp698
asg73
g15
sa(dp699
g2
S'../../../data/emanuela/activity-recognition/images/NTCIR-Lifelog-256/u2/2015-04-20/b00000529_21i7lf_20150420_151058e.jpg'
p700
sg4
(lp701
(g15
g6
(g18
S'\n\xfe\x7f?'
p702
tp703
Rp704
tp705
a(g139
g6
(g18
S'OO\xff6'
p706
tp707
Rp708
tp709
a(g92
g6
(g18
S')\xd4\xf16'
p710
tp711
Rp712
tp713
a(g116
g6
(g18
S'8\xcb\xd66'
p714
tp715
Rp716
tp717
a(g6
(g7
(S'S19'
p718
I0
I1
tp719
Rp720
(I3
S'|'
p721
NNNI19
I1
I0
tp722
bS'attending a seminar'
p723
tp724
Rp725
g6
(g18
S'\x81\x99(6'
p726
tp727
Rp728
tp729
asg73
g15
sa(dp730
g2
S'../../../data/emanuela/activity-recognition/images/NTCIR-Lifelog-256/u2/2015-04-20/b00000536_21i7lf_20150420_151513e.jpg'
p731
sg4
(lp732
(g15
g6
(g18
S'\x87\xa5~?'
p733
tp734
Rp735
tp736
a(g139
g6
(g18
S'\xcd\x84\x10;'
p737
tp738
Rp739
tp740
a(g413
g6
(g18
S'\xc1\xde0:'
p741
tp742
Rp743
tp744
a(g448
g6
(g18
S'\x8c\xc0\xcb9'
p745
tp746
Rp747
tp748
a(g44
g6
(g18
S'U\xa6\xc49'
p749
tp750
Rp751
tp752
asg73
g15
sa(dp753
g2
S'../../../data/emanuela/activity-recognition/images/NTCIR-Lifelog-256/u2/2015-05-07/b00007720_21i7lf_20150507_152031e.jpg'
p754
sg4
(lp755
(g32
g6
(g18
S'-\x1bZ?'
p756
tp757
Rp758
tp759
a(g15
g6
(g18
S'\x8b\x85@='
p760
tp761
Rp762
tp763
a(g92
g6
(g18
S"\x90y'="
p764
tp765
Rp766
tp767
a(g56
g6
(g18
S'\xd5\x1d\x8f<'
p768
tp769
Rp770
tp771
a(g725
g6
(g18
S'\xb4\xb0"<'
p772
tp773
Rp774
tp775
asg73
g15
sa(dp776
g2
S'../../../data/emanuela/activity-recognition/images/NTCIR-Lifelog-256/u2/2015-04-20/b00000526_21i7lf_20150420_150907e.jpg'
p777
sg4
(lp778
(g15
g6
(g18
S'~\xde\x7f?'
p779
tp780
Rp781
tp782
a(g151
g6
(g18
S't\xf7\xf88'
p783
tp784
Rp785
tp786
a(g116
g6
(g18
S'\x14\xfd\xec8'
p787
tp788
Rp789
tp790
a(g139
g6
(g18
S'\xdf\xa5\xa08'
p791
tp792
Rp793
tp794
a(g163
g6
(g18
S'\x1a\x03s8'
p795
tp796
Rp797
tp798
asg73
g15
sa(dp799
g2
S'../../../data/emanuela/activity-recognition/images/NTCIR-Lifelog-256/u2/2015-04-20/b00000551_21i7lf_20150420_152414e.jpg'
p800
sg4
(lp801
(g15
g6
(g18
S'\xb4\xf8\x7f?'
p802
tp803
Rp804
tp805
a(g116
g6
(g18
S'\xbc\x9e\xf37'
p806
tp807
Rp808
tp809
a(g139
g6
(g18
S'\x81\x82\xa87'
p810
tp811
Rp812
tp813
a(g163
g6
(g18
S'\xc55\x807'
p814
tp815
Rp816
tp817
a(g151
g6
(g18
S'\xff\x8667'
p818
tp819
Rp820
tp821
asg73
g15
sa(dp822
g2
S'../../../data/emanuela/activity-recognition/images/NTCIR-Lifelog-256/u2/2015-05-07/b00007724_21i7lf_20150507_152253e.jpg'
p823
sg4
(lp824
(g32
g6
(g18
S'\xd1\xf3D?'
p825
tp826
Rp827
tp828
a(g116
g6
(g18
S'@\xa7\xf0='
p829
tp830
Rp831
tp832
a(g56
g6
(g18
S'\x14\xd7\x07='
p833
tp834
Rp835
tp836
a(g552
g6
(g18
S'U\xa8\xce<'
p837
tp838
Rp839
tp840
a(g92
g6
(g18
S'r,}<'
p841
tp842
Rp843
tp844
asg73
g15
sa(dp845
g2
S'../../../data/emanuela/activity-recognition/images/NTCIR-Lifelog-256/u2/2015-06-16/b00001593_21i7lf_20150616_100203e.jpg'
p846
sg4
(lp847
(g267
g6
(g18
S'\x0c\x0eg?'
p848
tp849
Rp850
tp851
a(g15
g6
(g18
S'"\x9a\xae='
p852
tp853
Rp854
tp855
a(g116
g6
(g18
S'L\x93\x93;'
p856
tp857
Rp858
tp859
a(g521
g6
(g18
S'\xfa\x84\xfd:'
p860
tp861
Rp862
tp863
a(g44
g6
(g18
S'!\x9d\xf3:'
p864
tp865
Rp866
tp867
asg73
g15
sa(dp868
g2
S'../../../data/emanuela/activity-recognition/images/NTCIR-Lifelog-256/u2/2015-04-20/b00000541_21i7lf_20150420_151808e.jpg'
p869
sg4
(lp870
(g116
g6
(g18
S'\xef\xac\x7f?'
p871
tp872
Rp873
tp874
a(g163
g6
(g18
S'\xfb\xed\x1f:'
p875
tp876
Rp877
tp878
a(g56
g6
(g18
S'\x7fi$9'
p879
tp880
Rp881
tp882
a(g15
g6
(g18
S'\xb1k\x1a9'
p883
tp884
Rp885
tp886
a(g448
g6
(g18
S'93\xa38'
p887
tp888
Rp889
tp890
asg73
g15
sa(dp891
g2
S'../../../data/emanuela/activity-recognition/images/NTCIR-Lifelog-256/u2/2015-04-27/b00005474_21i7lf_20150427_142040e.jpg'
p892
sg4
(lp893
(g32
g6
(g18
S'\xd5\x9fa?'
p894
tp895
Rp896
tp897
a(g104
g6
(g18
S'\x83t\x19='
p898
tp899
Rp900
tp901
a(g92
g6
(g18
S'\xa7\xf9\x07='
p902
tp903
Rp904
tp905
a(g44
g6
(g18
S'\x87\xe7\x87<'
p906
tp907
Rp908
tp909
a(g15
g6
(g18
S'\xcf\xc0y<'
p910
tp911
Rp912
tp913
asg73
g15
sa(dp914
g2
S'../../../data/emanuela/activity-recognition/images/NTCIR-Lifelog-256/u2/2015-04-20/b00000759_21i7lf_20150420_173324e.jpg'
p915
sg4
(lp916
(g15
g6
(g18
S'\x9f]\x7f?'
p917
tp918
Rp919
tp920
a(g116
g6
(g18
S'25>:'
p921
tp922
Rp923
tp924
a(g32
g6
(g18
S"\x12@':"
p925
tp926
Rp927
tp928
a(g56
g6
(g18
S'\xab\xf0\x9b9'
p929
tp930
Rp931
tp932
a(g44
g6
(g18
S'\xfdj\xf98'
p933
tp934
Rp935
tp936
asg73
g15
sa(dp937
g2
S'../../../data/emanuela/activity-recognition/images/NTCIR-Lifelog-256/u2/2015-06-16/b00001617_21i7lf_20150616_101633e.jpg'
p938
sg4
(lp939
(g15
g6
(g18
S']b\x7f?'
p940
tp941
Rp942
tp943
a(g267
g6
(g18
S'Jg\x18;'
p944
tp945
Rp946
tp947
a(g32
g6
(g18
S'\xb1\xd8\x8e7'
p948
tp949
Rp950
tp951
a(g6
(g7
(S'S7'
p952
I0
I1
tp953
Rp954
(I3
S'|'
p955
NNNI7
I1
I0
tp956
bS'cooking'
p957
tp958
Rp959
g6
(g18
S'u\xcf}7'
p960
tp961
Rp962
tp963
a(g44
g6
(g18
S'mqP7'
p964
tp965
Rp966
tp967
asg73
g15
sa(dp968
g2
S'../../../data/emanuela/activity-recognition/images/NTCIR-Lifelog-256/u2/2015-04-20/b00000672_21i7lf_20150420_164003e.jpg'
p969
sg4
(lp970
(g15
g6
(g18
S'L\xdc^?'
p971
tp972
Rp973
tp974
a(g32
g6
(g18
S'\x9c\xb3\x81='
p975
tp976
Rp977
tp978
a(g116
g6
(g18
S'\x87\xbe%='
p979
tp980
Rp981
tp982
a(g56
g6
(g18
S'\xa9Ym<'
p983
tp984
Rp985
tp986
a(g44
g6
(g18
S':Lb;'
p987
tp988
Rp989
tp990
asg73
g15
sa(dp991
g2
S'../../../data/emanuela/activity-recognition/images/NTCIR-Lifelog-256/u2/2015-04-27/b00005560_21i7lf_20150427_151302e.jpg'
p992
sg4
(lp993
(g32
g6
(g18
S'\x86\x07q?'
p994
tp995
Rp996
tp997
a(g15
g6
(g18
S'>0\xcb<'
p998
tp999
Rp1000
tp1001
a(g92
g6
(g18
S'\xe8\x9f\xc3<'
p1002
tp1003
Rp1004
tp1005
a(g104
g6
(g18
S'h\x9f\xfe;'
p1006
tp1007
Rp1008
tp1009
a(g44
g6
(g18
S'+\xcan:'
p1010
tp1011
Rp1012
tp1013
asg73
g15
sa(dp1014
g2
S'../../../data/emanuela/activity-recognition/images/NTCIR-Lifelog-256/u2/2015-04-27/b00005535_21i7lf_20150427_145758e.jpg'
p1015
sg4
(lp1016
(g32
g6
(g18
S'\x04`y?'
p1017
tp1018
Rp1019
tp1020
a(g15
g6
(g18
S'\xa6\x1b\xa7<'
p1021
tp1022
Rp1023
tp1024
a(g116
g6
(g18
S"3\x84';"
p1025
tp1026
Rp1027
tp1028
a(g92
g6
(g18
S'\x8a\x05\x1b:'
p1029
tp1030
Rp1031
tp1032
a(g725
g6
(g18
S'z\xb2\xf79'
p1033
tp1034
Rp1035
tp1036
asg73
g15
sa(dp1037
g2
S'../../../data/emanuela/activity-recognition/images/NTCIR-Lifelog-256/u2/2015-04-27/b00005547_21i7lf_20150427_150514e.jpg'
p1038
sg4
(lp1039
(g32
g6
(g18
S'D\x81~?'
p1040
tp1041
Rp1042
tp1043
a(g92
g6
(g18
S'\x00Ic;'
p1044
tp1045
Rp1046
tp1047
a(g104
g6
(g18
S'\xe5\xb3W:'
p1048
tp1049
Rp1050
tp1051
a(g15
g6
(g18
S':\x040:'
p1052
tp1053
Rp1054
tp1055
a(g725
g6
(g18
S'\t\x8a\xcf9'
p1056
tp1057
Rp1058
tp1059
asg73
g15
sa(dp1060
g2
S'../../../data/emanuela/activity-recognition/images/NTCIR-Lifelog-256/u2/2015-04-20/b00000677_21i7lf_20150420_164304e.jpg'
p1061
sg4
(lp1062
(g15
g6
(g18
S'\x0f\x97|?'
p1063
tp1064
Rp1065
tp1066
a(g163
g6
(g18
S'o\x02\r<'
p1067
tp1068
Rp1069
tp1070
a(g151
g6
(g18
S'\xe2:\x1a;'
p1071
tp1072
Rp1073
tp1074
a(g44
g6
(g18
S'\x82\xb9$:'
p1075
tp1076
Rp1077
tp1078
a(g116
g6
(g18
S'\xd3\x90\x16:'
p1079
tp1080
Rp1081
tp1082
asg73
g15
sa(dp1083
g2
S'../../../data/emanuela/activity-recognition/images/NTCIR-Lifelog-256/u2/2015-06-16/b00001614_21i7lf_20150616_101452e.jpg'
p1084
sg4
(lp1085
(g15
g6
(g18
S'\x94\xd3~?'
p1086
tp1087
Rp1088
tp1089
a(g267
g6
(g18
S'\xd3\xf9};'
p1090
tp1091
Rp1092
tp1093
a(g44
g6
(g18
S'\x04z:9'
p1094
tp1095
Rp1096
tp1097
a(g116
g6
(g18
S'\xb6V,9'
p1098
tp1099
Rp1100
tp1101
a(g959
g6
(g18
S'\xed!\x039'
p1102
tp1103
Rp1104
tp1105
asg73
g15
sa(dp1106
g2
S'../../../data/emanuela/activity-recognition/images/NTCIR-Lifelog-256/u2/2015-04-20/b00000539_21i7lf_20150420_151658e.jpg'
p1107
sg4
(lp1108
(g15
g6
(g18
S'\x18Yw?'
p1109
tp1110
Rp1111
tp1112
a(g163
g6
(g18
S'v\x959<'
p1113
tp1114
Rp1115
tp1116
a(g116
g6
(g18
S'\x0e\x1a\xaf;'
p1117
tp1118
Rp1119
tp1120
a(g139
g6
(g18
S'\xc7z\x96;'
p1121
tp1122
Rp1123
tp1124
a(g151
g6
(g18
S'B\xe0@;'
p1125
tp1126
Rp1127
tp1128
asg73
g15
sa(dp1129
g2
S'../../../data/emanuela/activity-recognition/images/NTCIR-Lifelog-256/u2/2015-06-16/b00001625_21i7lf_20150616_102131e.jpg'
p1130
sg4
(lp1131
(g15
g6
(g18
S'\xf7Vs?'
p1132
tp1133
Rp1134
tp1135
a(g267
g6
(g18
S'&\x0c!='
p1136
tp1137
Rp1138
tp1139
a(g116
g6
(g18
S'\xbf\x12\xec;'
p1140
tp1141
Rp1142
tp1143
a(g44
g6
(g18
S'q\x0c1:'
p1144
tp1145
Rp1146
tp1147
a(g32
g6
(g18
S'\xfb\x11 :'
p1148
tp1149
Rp1150
tp1151
asg73
g15
sa(dp1152
g2
S'../../../data/emanuela/activity-recognition/images/NTCIR-Lifelog-256/u2/2015-04-27/b00005549_21i7lf_20150427_150626e.jpg'
p1153
sg4
(lp1154
(g32
g6
(g18
S'P\x1dc?'
p1155
tp1156
Rp1157
tp1158
a(g56
g6
(g18
S'\x99\xe9#='
p1159
tp1160
Rp1161
tp1162
a(g413
g6
(g18
S'\x99\xe6s<'
p1163
tp1164
Rp1165
tp1166
a(g44
g6
(g18
S'~kS<'
p1167
tp1168
Rp1169
tp1170
a(g116
g6
(g18
S'yn,<'
p1171
tp1172
Rp1173
tp1174
asg73
g15
sa(dp1175
g2
S'../../../data/emanuela/activity-recognition/images/NTCIR-Lifelog-256/u2/2015-04-20/b00000571_21i7lf_20150420_153704e.jpg'
p1176
sg4
(lp1177
(g15
g6
(g18
S'b\x92v?'
p1178
tp1179
Rp1180
tp1181
a(g116
g6
(g18
S'\xc0\xa3\x95<'
p1182
tp1183
Rp1184
tp1185
a(g163
g6
(g18
S'\xbbJ\x14<'
p1186
tp1187
Rp1188
tp1189
a(g56
g6
(g18
S'|^\xf6:'
p1190
tp1191
Rp1192
tp1193
a(g139
g6
(g18
S'\x12\xce\xda:'
p1194
tp1195
Rp1196
tp1197
asg73
g15
sa(dp1198
g2
S'../../../data/emanuela/activity-recognition/images/NTCIR-Lifelog-256/u2/2015-04-20/b00000535_21i7lf_20150420_151434e.jpg'
p1199
sg4
(lp1200
(g15
g6
(g18
S'[\xca\x7f?'
p1201
tp1202
Rp1203
tp1204
a(g139
g6
(g18
S'\x0e<\xc19'
p1205
tp1206
Rp1207
tp1208
a(g448
g6
(g18
S'\xcd\xcf\xb28'
p1209
tp1210
Rp1211
tp1212
a(g151
g6
(g18
S'\xbcL\xa28'
p1213
tp1214
Rp1215
tp1216
a(g413
g6
(g18
S'\x04\xd2G8'
p1217
tp1218
Rp1219
tp1220
asg73
g15
sa(dp1221
g2
S'../../../data/emanuela/activity-recognition/images/NTCIR-Lifelog-256/u2/2015-05-01/b00002378_21i7lf_20150501_151527e.jpg'
p1222
sg4
(lp1223
(g32
g6
(g18
S'\x02\x89\xb9>'
p1224
tp1225
Rp1226
tp1227
a(g56
g6
(g18
S'\xc2\xd8D>'
p1228
tp1229
Rp1230
tp1231
a(g15
g6
(g18
S':\xde\x17>'
p1232
tp1233
Rp1234
tp1235
a(g116
g6
(g18
S'a\xeaR='
p1236
tp1237
Rp1238
tp1239
a(g190
g6
(g18
S'\xf0\x1dR='
p1240
tp1241
Rp1242
tp1243
asg73
g15
sa(dp1244
g2
S'../../../data/emanuela/activity-recognition/images/NTCIR-Lifelog-256/u2/2015-05-07/b00007717_21i7lf_20150507_151842e.jpg'
p1245
sg4
(lp1246
(g32
g6
(g18
S'\x08f%?'
p1247
tp1248
Rp1249
tp1250
a(g92
g6
(g18
S'\x95\xb0">'
p1251
tp1252
Rp1253
tp1254
a(g151
g6
(g18
S'\x13\xbf\x88='
p1255
tp1256
Rp1257
tp1258
a(g104
g6
(g18
S'^\xc1\x11='
p1259
tp1260
Rp1261
tp1262
a(g56
g6
(g18
S'\xdb7\xa3<'
p1263
tp1264
Rp1265
tp1266
asg73
g15
sa(dp1267
g2
S'../../../data/emanuela/activity-recognition/images/NTCIR-Lifelog-256/u2/2015-04-29/b00000554_21i7lf_20150429_131158e.jpg'
p1268
sg4
(lp1269
(g32
g6
(g18
S'\xc9`=?'
p1270
tp1271
Rp1272
tp1273
a(g15
g6
(g18
S'n\xbb{>'
p1274
tp1275
Rp1276
tp1277
a(g92
g6
(g18
S'\xc6?0<'
p1278
tp1279
Rp1280
tp1281
a(g725
g6
(g18
S'Q\x80\xb9:'
p1282
tp1283
Rp1284
tp1285
a(g116
g6
(g18
S'Hg\x17:'
p1286
tp1287
Rp1288
tp1289
asg73
g15
sa(dp1290
g2
S'../../../data/emanuela/activity-recognition/images/NTCIR-Lifelog-256/u2/2015-04-20/b00000600_21i7lf_20150420_155455e.jpg'
p1291
sg4
(lp1292
(g56
g6
(g18
S'\xc2\x95g?'
p1293
tp1294
Rp1295
tp1296
a(g15
g6
(g18
S'E\xdc\xd3<'
p1297
tp1298
Rp1299
tp1300
a(g32
g6
(g18
S'\xc1`\xad<'
p1301
tp1302
Rp1303
tp1304
a(g44
g6
(g18
S'\xf4)C<'
p1305
tp1306
Rp1307
tp1308
a(g116
g6
(g18
S'\xf4\xf2%<'
p1309
tp1310
Rp1311
tp1312
asg73
g15
sa(dp1313
g2
S'../../../data/emanuela/activity-recognition/images/NTCIR-Lifelog-256/u2/2015-04-27/b00005478_21i7lf_20150427_142324e.jpg'
p1314
sg4
(lp1315
(g32
g6
(g18
S'#\xdaU?'
p1316
tp1317
Rp1318
tp1319
a(g15
g6
(g18
S'L\x8e\xeb='
p1320
tp1321
Rp1322
tp1323
a(g116
g6
(g18
S'\xe4\xc2Z<'
p1324
tp1325
Rp1326
tp1327
a(g92
g6
(g18
S'z\x9c\x05<'
p1328
tp1329
Rp1330
tp1331
a(g190
g6
(g18
S'\x8c\x18\xe3;'
p1332
tp1333
Rp1334
tp1335
asg73
g15
sa(dp1336
g2
S'../../../data/emanuela/activity-recognition/images/NTCIR-Lifelog-256/u2/2015-05-07/b00007705_21i7lf_20150507_151126e.jpg'
p1337
sg4
(lp1338
(g32
g6
(g18
S'\xe1AC?'
p1339
tp1340
Rp1341
tp1342
a(g15
g6
(g18
S'I\xf4\xfd='
p1343
tp1344
Rp1345
tp1346
a(g151
g6
(g18
S':f\xaa<'
p1347
tp1348
Rp1349
tp1350
a(g116
g6
(g18
S'\x14\xb9\x97<'
p1351
tp1352
Rp1353
tp1354
a(g44
g6
(g18
S'\x06uw<'
p1355
tp1356
Rp1357
tp1358
asg73
g15
sa(dp1359
g2
S'../../../data/emanuela/activity-recognition/images/NTCIR-Lifelog-256/u2/2015-04-20/b00000548_21i7lf_20150420_152215e.jpg'
p1360
sg4
(lp1361
(g15
g6
(g18
S'$\xdf\x7f?'
p1362
tp1363
Rp1364
tp1365
a(g116
g6
(g18
S'cS89'
p1366
tp1367
Rp1368
tp1369
a(g448
g6
(g18
S'\x9a\xdb\xc48'
p1370
tp1371
Rp1372
tp1373
a(g151
g6
(g18
S'\xaa9Y8'
p1374
tp1375
Rp1376
tp1377
a(g92
g6
(g18
S'\x8d\xa278'
p1378
tp1379
Rp1380
tp1381
asg73
g15
sa(dp1382
g2
S'../../../data/emanuela/activity-recognition/images/NTCIR-Lifelog-256/u2/2015-06-16/b00001594_21i7lf_20150616_100240e.jpg'
p1383
sg4
(lp1384
(g15
g6
(g18
S'L\x1d-?'
p1385
tp1386
Rp1387
tp1388
a(g267
g6
(g18
S'\xe34c>'
p1389
tp1390
Rp1391
tp1392
a(g116
g6
(g18
S'\x08\xbbA='
p1393
tp1394
Rp1395
tp1396
a(g44
g6
(g18
S'<\xd3\xc8<'
p1397
tp1398
Rp1399
tp1400
a(g959
g6
(g18
S'\xd0\xa0C<'
p1401
tp1402
Rp1403
tp1404
asg73
g15
sa(dp1405
g2
S'../../../data/emanuela/activity-recognition/images/NTCIR-Lifelog-256/u2/2015-04-27/b00005545_21i7lf_20150427_150356e.jpg'
p1406
sg4
(lp1407
(g32
g6
(g18
S'\xdaqv?'
p1408
tp1409
Rp1410
tp1411
a(g92
g6
(g18
S'\xc6\x07\xa0<'
p1412
tp1413
Rp1414
tp1415
a(g104
g6
(g18
S'\x85\x185<'
p1416
tp1417
Rp1418
tp1419
a(g15
g6
(g18
S'R[\xf5:'
p1420
tp1421
Rp1422
tp1423
a(g413
g6
(g18
S'}\xe4\xe0:'
p1424
tp1425
Rp1426
tp1427
asg73
g15
sa(dp1428
g2
S'../../../data/emanuela/activity-recognition/images/NTCIR-Lifelog-256/u2/2015-04-27/b00005466_21i7lf_20150427_141513e.jpg'
p1429
sg4
(lp1430
(g32
g6
(g18
S'\x86)\x13?'
p1431
tp1432
Rp1433
tp1434
a(g15
g6
(g18
S'!\xcb\xce>'
p1435
tp1436
Rp1437
tp1438
a(g92
g6
(g18
S'\xe2\xc8\xd7;'
p1439
tp1440
Rp1441
tp1442
a(g56
g6
(g18
S'Fl\x98;'
p1443
tp1444
Rp1445
tp1446
a(g44
g6
(g18
S'=iW;'
p1447
tp1448
Rp1449
tp1450
asg73
g15
sa(dp1451
g2
S'../../../data/emanuela/activity-recognition/images/NTCIR-Lifelog-256/u2/2015-04-27/b00005523_21i7lf_20150427_145029e.jpg'
p1452
sg4
(lp1453
(g32
g6
(g18
S'5\xd6g?'
p1454
tp1455
Rp1456
tp1457
a(g92
g6
(g18
S'\xb8(J='
p1458
tp1459
Rp1460
tp1461
a(g15
g6
(g18
S'\xf7\xde\xdc<'
p1462
tp1463
Rp1464
tp1465
a(g104
g6
(g18
S'\xa4Y\x0c<'
p1466
tp1467
Rp1468
tp1469
a(g116
g6
(g18
S'\x93\x94K;'
p1470
tp1471
Rp1472
tp1473
asg73
g15
sa(dp1474
g2
S'../../../data/emanuela/activity-recognition/images/NTCIR-Lifelog-256/u2/2015-04-20/b00000519_21i7lf_20150420_150457e.jpg'
p1475
sg4
(lp1476
(g15
g6
(g18
S'7\x07r?'
p1477
tp1478
Rp1479
tp1480
a(g116
g6
(g18
S'\xaeh5='
p1481
tp1482
Rp1483
tp1484
a(g32
g6
(g18
S'Q\xc7*;'
p1485
tp1486
Rp1487
tp1488
a(g56
g6
(g18
S'\x08\xd8\x02;'
p1489
tp1490
Rp1491
tp1492
a(g92
g6
(g18
S'\xdb\xc3\xb1:'
p1493
tp1494
Rp1495
tp1496
asg73
g15
sa(dp1497
g2
S'../../../data/emanuela/activity-recognition/images/NTCIR-Lifelog-256/u2/2015-04-30/b00000947_21i7lf_20150430_122649e.jpg'
p1498
sg4
(lp1499
(g32
g6
(g18
S'\xecIm?'
p1500
tp1501
Rp1502
tp1503
a(g92
g6
(g18
S'\xb7\xebf='
p1504
tp1505
Rp1506
tp1507
a(g15
g6
(g18
S'\xd1\xb48<'
p1508
tp1509
Rp1510
tp1511
a(g104
g6
(g18
S'S%*;'
p1512
tp1513
Rp1514
tp1515
a(g116
g6
(g18
S'\xf6D6:'
p1516
tp1517
Rp1518
tp1519
asg73
g15
sa(dp1520
g2
S'../../../data/emanuela/activity-recognition/images/NTCIR-Lifelog-256/u2/2015-04-27/b00005557_21i7lf_20150427_151110e.jpg'
p1521
sg4
(lp1522
(g32
g6
(g18
S'\x85\xac{?'
p1523
tp1524
Rp1525
tp1526
a(g15
g6
(g18
S'\xfbT\x02<'
p1527
tp1528
Rp1529
tp1530
a(g56
g6
(g18
S'\xe4\xcf6;'
p1531
tp1532
Rp1533
tp1534
a(g44
g6
(g18
S'\xf6\xb5\x07;'
p1535
tp1536
Rp1537
tp1538
a(g116
g6
(g18
S'\x97\x06\x00;'
p1539
tp1540
Rp1541
tp1542
asg73
g15
sa(dp1543
g2
S'../../../data/emanuela/activity-recognition/images/NTCIR-Lifelog-256/u2/2015-04-20/b00000527_21i7lf_20150420_150944e.jpg'
p1544
sg4
(lp1545
(g15
g6
(g18
S'a\xba\x7f?'
p1546
tp1547
Rp1548
tp1549
a(g116
g6
(g18
S"'$::"
p1550
tp1551
Rp1552
tp1553
a(g163
g6
(g18
S'\x15\x95\xb88'
p1554
tp1555
Rp1556
tp1557
a(g151
g6
(g18
S"'\xbct8"
p1558
tp1559
Rp1560
tp1561
a(g139
g6
(g18
S'l):8'
p1562
tp1563
Rp1564
tp1565
asg73
g15
sa(dp1566
g2
S'../../../data/emanuela/activity-recognition/images/NTCIR-Lifelog-256/u2/2015-06-16/b00001610_21i7lf_20150616_101238e.jpg'
p1567
sg4
(lp1568
(g15
g6
(g18
S'\xef\xe1}?'
p1569
tp1570
Rp1571
tp1572
a(g267
g6
(g18
S'\xdel\x03<'
p1573
tp1574
Rp1575
tp1576
a(g44
g6
(g18
S'v>&8'
p1577
tp1578
Rp1579
tp1580
a(g521
g6
(g18
S'\xaaS\x0e8'
p1581
tp1582
Rp1583
tp1584
a(g116
g6
(g18
S'\xa0\xc8\r8'
p1585
tp1586
Rp1587
tp1588
asg73
g15
sa(dp1589
g2
S'../../../data/emanuela/activity-recognition/images/NTCIR-Lifelog-256/u2/2015-04-27/b00005449_21i7lf_20150427_140335e.jpg'
p1590
sg4
(lp1591
(g56
g6
(g18
S'@\x7f8?'
p1592
tp1593
Rp1594
tp1595
a(g32
g6
(g18
S'\x19\x90\x1f>'
p1596
tp1597
Rp1598
tp1599
a(g116
g6
(g18
S'\x1bfM='
p1600
tp1601
Rp1602
tp1603
a(g190
g6
(g18
S'\xda\xa9\x08='
p1604
tp1605
Rp1606
tp1607
a(g68
g6
(g18
S'\x8c\xdd\x1e<'
p1608
tp1609
Rp1610
tp1611
asg73
g15
sa(dp1612
g2
S'../../../data/emanuela/activity-recognition/images/NTCIR-Lifelog-256/u2/2015-06-16/b00001592_21i7lf_20150616_100125e.jpg'
p1613
sg4
(lp1614
(g15
g6
(g18
S'\x02\x9fZ?'
p1615
tp1616
Rp1617
tp1618
a(g959
g6
(g18
S'\r\x86x='
p1619
tp1620
Rp1621
tp1622
a(g267
g6
(g18
S'\xfd\xe1\xc5<'
p1623
tp1624
Rp1625
tp1626
a(g116
g6
(g18
S'3\xb7\x8a<'
p1627
tp1628
Rp1629
tp1630
a(g56
g6
(g18
S'\x98\x88t<'
p1631
tp1632
Rp1633
tp1634
asg73
g15
sa(dp1635
g2
S'../../../data/emanuela/activity-recognition/images/NTCIR-Lifelog-256/u2/2015-04-20/b00000577_21i7lf_20150420_154052e.jpg'
p1636
sg4
(lp1637
(g116
g6
(g18
S'\xb8\xd6\xac>'
p1638
tp1639
Rp1640
tp1641
a(g15
g6
(g18
S'\xebo\xa5>'
p1642
tp1643
Rp1644
tp1645
a(g163
g6
(g18
S'\x0cu->'
p1646
tp1647
Rp1648
tp1649
a(g44
g6
(g18
S'Q\x9b\xc5='
p1650
tp1651
Rp1652
tp1653
a(g56
g6
(g18
S'\xf5k\xcf<'
p1654
tp1655
Rp1656
tp1657
asg73
g15
sa(dp1658
g2
S'../../../data/emanuela/activity-recognition/images/NTCIR-Lifelog-256/u2/2015-04-27/b00005515_21i7lf_20150427_144544e.jpg'
p1659
sg4
(lp1660
(g32
g6
(g18
S'\xec\x06w?'
p1661
tp1662
Rp1663
tp1664
a(g56
g6
(g18
S'U\xaa><'
p1665
tp1666
Rp1667
tp1668
a(g116
g6
(g18
S'\x194\x15<'
p1669
tp1670
Rp1671
tp1672
a(g15
g6
(g18
S'AU\xcb;'
p1673
tp1674
Rp1675
tp1676
a(g92
g6
(g18
S'\xb0\xa9\x84;'
p1677
tp1678
Rp1679
tp1680
asg73
g15
sa(dp1681
g2
S'../../../data/emanuela/activity-recognition/images/NTCIR-Lifelog-256/u2/2015-05-07/b00007706_21i7lf_20150507_151201e.jpg'
p1682
sg4
(lp1683
(g32
g6
(g18
S'5\xd5g?'
p1684
tp1685
Rp1686
tp1687
a(g15
g6
(g18
S'^6\xd6<'
p1688
tp1689
Rp1690
tp1691
a(g116
g6
(g18
S'\x179\x91<'
p1692
tp1693
Rp1694
tp1695
a(g56
g6
(g18
S'P]a<'
p1696
tp1697
Rp1698
tp1699
a(g92
g6
(g18
S'\xfb\xb4\x16<'
p1700
tp1701
Rp1702
tp1703
asg73
g15
sa(dp1704
g2
S'../../../data/emanuela/activity-recognition/images/NTCIR-Lifelog-256/u2/2015-04-20/b00000848_21i7lf_20150420_182608e.jpg'
p1705
sg4
(lp1706
(g15
g6
(g18
S'\xac\xf9\x7f?'
p1707
tp1708
Rp1709
tp1710
a(g92
g6
(g18
S'/O%8'
p1711
tp1712
Rp1713
tp1714
a(g725
g6
(g18
S'?N_7'
p1715
tp1716
Rp1717
tp1718
a(g151
g6
(g18
S'!\x13\x057'
p1719
tp1720
Rp1721
tp1722
a(g104
g6
(g18
S'\x8dz\xf86'
p1723
tp1724
Rp1725
tp1726
asg73
g15
sa(dp1727
g2
S'../../../data/emanuela/activity-recognition/images/NTCIR-Lifelog-256/u2/2015-05-07/b00007707_21i7lf_20150507_151234e.jpg'
p1728
sg4
(lp1729
(g32
g6
(g18
S'k\xe8>?'
p1730
tp1731
Rp1732
tp1733
a(g56
g6
(g18
S'@y\x0f>'
p1734
tp1735
Rp1736
tp1737
a(g116
g6
(g18
S'j\x9c!='
p1738
tp1739
Rp1740
tp1741
a(g15
g6
(g18
S'\xca\xb4\xbf<'
p1742
tp1743
Rp1744
tp1745
a(g44
g6
(g18
S'~$\x85<'
p1746
tp1747
Rp1748
tp1749
asg73
g15
sa(dp1750
g2
S'../../../data/emanuela/activity-recognition/images/NTCIR-Lifelog-256/u2/2015-06-16/b00001607_21i7lf_20150616_101046e.jpg'
p1751
sg4
(lp1752
(g15
g6
(g18
S'\xc4\xc2y?'
p1753
tp1754
Rp1755
tp1756
a(g267
g6
(g18
S'\x87\xa6\xaa<'
p1757
tp1758
Rp1759
tp1760
a(g44
g6
(g18
S']\xc6\x90:'
p1761
tp1762
Rp1763
tp1764
a(g116
g6
(g18
S'#\x12s:'
p1765
tp1766
Rp1767
tp1768
a(g32
g6
(g18
S'N\xfb\n:'
p1769
tp1770
Rp1771
tp1772
asg73
g15
sa(dp1773
g2
S'../../../data/emanuela/activity-recognition/images/NTCIR-Lifelog-256/u2/2015-04-20/b00000531_21i7lf_20150420_151210e.jpg'
p1774
sg4
(lp1775
(g15
g6
(g18
S'-\xe0}?'
p1776
tp1777
Rp1778
tp1779
a(g163
g6
(g18
S'\x06\x03\x83;'
p1780
tp1781
Rp1782
tp1783
a(g139
g6
(g18
S'\x81\x18\xa1:'
p1784
tp1785
Rp1786
tp1787
a(g56
g6
(g18
S'\xef\x07\x8a:'
p1788
tp1789
Rp1790
tp1791
a(g521
g6
(g18
S'\x99*\xcc9'
p1792
tp1793
Rp1794
tp1795
asg73
g15
sa(dp1796
g2
S'../../../data/emanuela/activity-recognition/images/NTCIR-Lifelog-256/u2/2015-04-20/b00000525_21i7lf_20150420_150828e.jpg'
p1797
sg4
(lp1798
(g116
g6
(g18
S'\xe9\x83\x02?'
p1799
tp1800
Rp1801
tp1802
a(g15
g6
(g18
S'\xb5\x9b}>'
p1803
tp1804
Rp1805
tp1806
a(g163
g6
(g18
S'=\xd7\xbf='
p1807
tp1808
Rp1809
tp1810
a(g56
g6
(g18
S'\x9ay\x87='
p1811
tp1812
Rp1813
tp1814
a(g44
g6
(g18
S'\xa9y\xbb<'
p1815
tp1816
Rp1817
tp1818
asg73
g15
sa(dp1819
g2
S'../../../data/emanuela/activity-recognition/images/NTCIR-Lifelog-256/u2/2015-04-20/b00000684_21i7lf_20150420_164713e.jpg'
p1820
sg4
(lp1821
(g15
g6
(g18
S'D\xe6o?'
p1822
tp1823
Rp1824
tp1825
a(g104
g6
(g18
S'\xec\xea\xac<'
p1826
tp1827
Rp1828
tp1829
a(g163
g6
(g18
S'\x86Aj<'
p1830
tp1831
Rp1832
tp1833
a(g151
g6
(g18
S'!\xe46<'
p1834
tp1835
Rp1836
tp1837
a(g413
g6
(g18
S'\xf7<\xa7;'
p1838
tp1839
Rp1840
tp1841
asg73
g15
sa(dp1842
g2
S'../../../data/emanuela/activity-recognition/images/NTCIR-Lifelog-256/u2/2015-04-22/b00000385_21i7lf_20150422_164300e.jpg'
p1843
sg4
(lp1844
(g15
g6
(g18
S'\x10dq?'
p1845
tp1846
Rp1847
tp1848
a(g104
g6
(g18
S'\x18\xa6\xd9<'
p1849
tp1850
Rp1851
tp1852
a(g32
g6
(g18
S'C>b<'
p1853
tp1854
Rp1855
tp1856
a(g44
g6
(g18
S'^\x90\xe3;'
p1857
tp1858
Rp1859
tp1860
a(g959
g6
(g18
S'i@};'
p1861
tp1862
Rp1863
tp1864
asg73
g15
sa(dp1865
g2
S'../../../data/emanuela/activity-recognition/images/NTCIR-Lifelog-256/u2/2015-04-20/b00000696_21i7lf_20150420_165453e.jpg'
p1866
sg4
(lp1867
(g32
g6
(g18
S'\xaa\x04$?'
p1868
tp1869
Rp1870
tp1871
a(g15
g6
(g18
S'\x96\nr>'
p1872
tp1873
Rp1874
tp1875
a(g56
g6
(g18
S'\x97\xa3f='
p1876
tp1877
Rp1878
tp1879
a(g116
g6
(g18
S's\xd1\x0c='
p1880
tp1881
Rp1882
tp1883
a(g190
g6
(g18
S'_t\xbf;'
p1884
tp1885
Rp1886
tp1887
asg73
g15
sa(dp1888
g2
S'../../../data/emanuela/activity-recognition/images/NTCIR-Lifelog-256/u2/2015-04-20/b00000701_21i7lf_20150420_165756e.jpg'
p1889
sg4
(lp1890
(g32
g6
(g18
S'[\xb2X?'
p1891
tp1892
Rp1893
tp1894
a(g56
g6
(g18
S'\x0e\xb7\xe0<'
p1895
tp1896
Rp1897
tp1898
a(g104
g6
(g18
S'\xd2\x9c\xdd<'
p1899
tp1900
Rp1901
tp1902
a(g15
g6
(g18
S'\xc7R\xd6<'
p1903
tp1904
Rp1905
tp1906
a(g92
g6
(g18
S'\x91m\xba<'
p1907
tp1908
Rp1909
tp1910
asg73
g15
sa(dp1911
g2
S'../../../data/emanuela/activity-recognition/images/NTCIR-Lifelog-256/u2/2015-04-27/b00005566_21i7lf_20150427_151647e.jpg'
p1912
sg4
(lp1913
(g32
g6
(g18
S'\xaa\xea@?'
p1914
tp1915
Rp1916
tp1917
a(g56
g6
(g18
S'\xf7\xda\xc5='
p1918
tp1919
Rp1920
tp1921
a(g116
g6
(g18
S'r\x85\x01='
p1922
tp1923
Rp1924
tp1925
a(g190
g6
(g18
S'\xd8\xe0\xea<'
p1926
tp1927
Rp1928
tp1929
a(g68
g6
(g18
S'\x80\x9b\xbd<'
p1930
tp1931
Rp1932
tp1933
asg73
g15
sa(dp1934
g2
S'../../../data/emanuela/activity-recognition/images/NTCIR-Lifelog-256/u2/2015-04-27/b00005553_21i7lf_20150427_150854e.jpg'
p1935
sg4
(lp1936
(g32
g6
(g18
S'\xc5\x95z?'
p1937
tp1938
Rp1939
tp1940
a(g15
g6
(g18
S'8\x15\xca;'
p1941
tp1942
Rp1943
tp1944
a(g56
g6
(g18
S'\r\x0b\x8d;'
p1945
tp1946
Rp1947
tp1948
a(g44
g6
(g18
S'\x8dC0;'
p1949
tp1950
Rp1951
tp1952
a(g116
g6
(g18
S'k\xf0\x0e;'
p1953
tp1954
Rp1955
tp1956
asg73
g15
sa(dp1957
g2
S'../../../data/emanuela/activity-recognition/images/NTCIR-Lifelog-256/u2/2015-04-20/b00000561_21i7lf_20150420_153040e.jpg'
p1958
sg4
(lp1959
(g15
g6
(g18
S'\xa4^o?'
p1960
tp1961
Rp1962
tp1963
a(g139
g6
(g18
S'\xaf\xd1O='
p1964
tp1965
Rp1966
tp1967
a(g413
g6
(g18
S'\x82\xb8\xd5;'
p1968
tp1969
Rp1970
tp1971
a(g163
g6
(g18
S'\xe6,8;'
p1972
tp1973
Rp1974
tp1975
a(g151
g6
(g18
S'eB\xce:'
p1976
tp1977
Rp1978
tp1979
asg73
g15
sa(dp1980
g2
S'../../../data/emanuela/activity-recognition/images/NTCIR-Lifelog-256/u2/2015-04-20/b00000635_21i7lf_20150420_161718e.jpg'
p1981
sg4
(lp1982
(g15
g6
(g18
S'\x16\xf5\x7f?'
p1983
tp1984
Rp1985
tp1986
a(g151
g6
(g18
S'J\x91\x078'
p1987
tp1988
Rp1989
tp1990
a(g139
g6
(g18
S'\x1d\xb0\xfd7'
p1991
tp1992
Rp1993
tp1994
a(g116
g6
(g18
S'\xce>\xbc7'
p1995
tp1996
Rp1997
tp1998
a(g92
g6
(g18
S'\xaa\xa8\x807'
p1999
tp2000
Rp2001
tp2002
asg73
g15
sa(dp2003
g2
S'../../../data/emanuela/activity-recognition/images/NTCIR-Lifelog-256/u2/2015-04-20/b00000753_21i7lf_20150420_172937e.jpg'
p2004
sg4
(lp2005
(g15
g6
(g18
S'\x98>~?'
p2006
tp2007
Rp2008
tp2009
a(g32
g6
(g18
S'P\x13\x87;'
p2010
tp2011
Rp2012
tp2013
a(g552
g6
(g18
S'\xc11F:'
p2014
tp2015
Rp2016
tp2017
a(g163
g6
(g18
S'kP1:'
p2018
tp2019
Rp2020
tp2021
a(g92
g6
(g18
S'L\x7f*:'
p2022
tp2023
Rp2024
tp2025
asg73
g15
sa(dp2026
g2
S'../../../data/emanuela/activity-recognition/images/NTCIR-Lifelog-256/u2/2015-04-20/b00000700_21i7lf_20150420_165723e.jpg'
p2027
sg4
(lp2028
(g15
g6
(g18
S'\x03\xd7\x7f?'
p2029
tp2030
Rp2031
tp2032
a(g116
g6
(g18
S'c\x97\x1f9'
p2033
tp2034
Rp2035
tp2036
a(g92
g6
(g18
S'\x86_\xe08'
p2037
tp2038
Rp2039
tp2040
a(g104
g6
(g18
S'{\xb6\x8d8'
p2041
tp2042
Rp2043
tp2044
a(g448
g6
(g18
S'\x9b\x9a\\8'
p2045
tp2046
Rp2047
tp2048
asg73
g15
sa(dp2049
g2
S'../../../data/emanuela/activity-recognition/images/NTCIR-Lifelog-256/u2/2015-04-27/b00005541_21i7lf_20150427_150132e.jpg'
p2050
sg4
(lp2051
(g32
g6
(g18
S'\xa7\xf03?'
p2052
tp2053
Rp2054
tp2055
a(g116
g6
(g18
S'\x90\x08b>'
p2056
tp2057
Rp2058
tp2059
a(g104
g6
(g18
S'\x94\x1d\xde<'
p2060
tp2061
Rp2062
tp2063
a(g190
g6
(g18
S'I\x9b8<'
p2064
tp2065
Rp2066
tp2067
a(g92
g6
(g18
S'\xf8\x8c\xdf;'
p2068
tp2069
Rp2070
tp2071
asg73
g15
sa(dp2072
g2
S'../../../data/emanuela/activity-recognition/images/NTCIR-Lifelog-256/u2/2015-04-29/b00000555_21i7lf_20150429_131239e.jpg'
p2073
sg4
(lp2074
(g15
g6
(g18
S'\xee\xdb\x1d?'
p2075
tp2076
Rp2077
tp2078
a(g32
g6
(g18
S'\x08\x9f\xb7>'
p2079
tp2080
Rp2081
tp2082
a(g92
g6
(g18
S'\xe6\x18\x96<'
p2083
tp2084
Rp2085
tp2086
a(g104
g6
(g18
S'\xaeA\x0b;'
p2087
tp2088
Rp2089
tp2090
a(g116
g6
(g18
S'\xdd\x86\x9d:'
p2091
tp2092
Rp2093
tp2094
asg73
g15
sa(dp2095
g2
S'../../../data/emanuela/activity-recognition/images/NTCIR-Lifelog-256/u2/2015-04-20/b00000662_21i7lf_20150420_163345e.jpg'
p2096
sg4
(lp2097
(g15
g6
(g18
S'\xfe\x91~?'
p2098
tp2099
Rp2100
tp2101
a(g163
g6
(g18
S'\xedcO;'
p2102
tp2103
Rp2104
tp2105
a(g151
g6
(g18
S'\x9a=\x80:'
p2106
tp2107
Rp2108
tp2109
a(g116
g6
(g18
S'\xf0\xe7":'
p2110
tp2111
Rp2112
tp2113
a(g104
g6
(g18
S'X\xae\x869'
p2114
tp2115
Rp2116
tp2117
asg73
g15
sa(dp2118
g2
S'../../../data/emanuela/activity-recognition/images/NTCIR-Lifelog-256/u2/2015-04-27/b00005684_21i7lf_20150427_162810e.jpg'
p2119
sg4
(lp2120
(g32
g6
(g18
S'\x98\x7f\t?'
p2121
tp2122
Rp2123
tp2124
a(g15
g6
(g18
S'\x85O\xa1>'
p2125
tp2126
Rp2127
tp2128
a(g92
g6
(g18
S'\x948U='
p2129
tp2130
Rp2131
tp2132
a(g116
g6
(g18
S'(m.='
p2133
tp2134
Rp2135
tp2136
a(g104
g6
(g18
S'$\xe6\xd7<'
p2137
tp2138
Rp2139
tp2140
asg73
g15
sa(dp2141
g2
S'../../../data/emanuela/activity-recognition/images/NTCIR-Lifelog-256/u2/2015-04-20/b00000510_21i7lf_20150420_145949e.jpg'
p2142
sg4
(lp2143
(g32
g6
(g18
S'XBa?'
p2144
tp2145
Rp2146
tp2147
a(g15
g6
(g18
S'\x86\xb8\x8e='
p2148
tp2149
Rp2150
tp2151
a(g92
g6
(g18
S'\xb0\xa4\x8c<'
p2152
tp2153
Rp2154
tp2155
a(g725
g6
(g18
S'\x0cUs<'
p2156
tp2157
Rp2158
tp2159
a(g56
g6
(g18
S'\xd5\xe4\xab;'
p2160
tp2161
Rp2162
tp2163
asg73
g15
sa(dp2164
g2
S'../../../data/emanuela/activity-recognition/images/NTCIR-Lifelog-256/u2/2015-04-27/b00005472_21i7lf_20150427_141859e.jpg'
p2165
sg4
(lp2166
(g32
g6
(g18
S'\xc9Hc?'
p2167
tp2168
Rp2169
tp2170
a(g116
g6
(g18
S'F\xe8$='
p2171
tp2172
Rp2173
tp2174
a(g15
g6
(g18
S'@\xfa\x04='
p2175
tp2176
Rp2177
tp2178
a(g56
g6
(g18
S'\xef\xfb^<'
p2179
tp2180
Rp2181
tp2182
a(g92
g6
(g18
S'\x12\x82<<'
p2183
tp2184
Rp2185
tp2186
asg73
g15
sa(dp2187
g2
S'../../../data/emanuela/activity-recognition/images/NTCIR-Lifelog-256/u2/2015-06-16/b00001620_21i7lf_20150616_101824e.jpg'
p2188
sg4
(lp2189
(g15
g6
(g18
S'VX~?'
p2190
tp2191
Rp2192
tp2193
a(g267
g6
(g18
S'\xdf\xe6\xc2;'
p2194
tp2195
Rp2196
tp2197
a(g521
g6
(g18
S'\xd5\x12%9'
p2198
tp2199
Rp2200
tp2201
a(g116
g6
(g18
S'8\x7f!9'
p2202
tp2203
Rp2204
tp2205
a(g32
g6
(g18
S'\xca\xdcg8'
p2206
tp2207
Rp2208
tp2209
asg73
g15
sa(dp2210
g2
S'../../../data/emanuela/activity-recognition/images/NTCIR-Lifelog-256/u2/2015-04-20/b00000553_21i7lf_20150420_152536e.jpg'
p2211
sg4
(lp2212
(g15
g6
(g18
S'\xcf\xd4j?'
p2213
tp2214
Rp2215
tp2216
a(g116
g6
(g18
S'\xfa\xc0\x08='
p2217
tp2218
Rp2219
tp2220
a(g163
g6
(g18
S'y\x00C<'
p2221
tp2222
Rp2223
tp2224
a(g56
g6
(g18
S'{\x0c!<'
p2225
tp2226
Rp2227
tp2228
a(g32
g6
(g18
S'yr\xf3;'
p2229
tp2230
Rp2231
tp2232
asg73
g15
sa(dp2233
g2
S'../../../data/emanuela/activity-recognition/images/NTCIR-Lifelog-256/u2/2015-05-07/b00007715_21i7lf_20150507_151728e.jpg'
p2234
sg4
(lp2235
(g151
g6
(g18
S'~\x95\xc8>'
p2236
tp2237
Rp2238
tp2239
a(g15
g6
(g18
S'\xda\xf7\xb9>'
p2240
tp2241
Rp2242
tp2243
a(g32
g6
(g18
S'\xf7\xf6>>'
p2244
tp2245
Rp2246
tp2247
a(g139
g6
(g18
S'\x19\xac\xd5<'
p2248
tp2249
Rp2250
tp2251
a(g92
g6
(g18
S'\xc6\x91<<'
p2252
tp2253
Rp2254
tp2255
asg73
g15
sa(dp2256
g2
S'../../../data/emanuela/activity-recognition/images/NTCIR-Lifelog-256/u2/2015-04-27/b00005559_21i7lf_20150427_151226e.jpg'
p2257
sg4
(lp2258
(g32
g6
(g18
S'\xf3*V?'
p2259
tp2260
Rp2261
tp2262
a(g92
g6
(g18
S'\xab:\xc6='
p2263
tp2264
Rp2265
tp2266
a(g15
g6
(g18
S'\xb1v\xda<'
p2267
tp2268
Rp2269
tp2270
a(g104
g6
(g18
S'p\x91\xbd<'
p2271
tp2272
Rp2273
tp2274
a(g116
g6
(g18
S'XLg<'
p2275
tp2276
Rp2277
tp2278
asg73
g15
sa(dp2279
g2
S'../../../data/emanuela/activity-recognition/images/NTCIR-Lifelog-256/u2/2015-04-20/b00000678_21i7lf_20150420_164343e.jpg'
p2280
sg4
(lp2281
(g15
g6
(g18
S'?w\x11?'
p2282
tp2283
Rp2284
tp2285
a(g116
g6
(g18
S'#\xbd\x88>'
p2286
tp2287
Rp2288
tp2289
a(g32
g6
(g18
S'X\x8a\x06='
p2290
tp2291
Rp2292
tp2293
a(g104
g6
(g18
S'4!\x04='
p2294
tp2295
Rp2296
tp2297
a(g448
g6
(g18
S'\x7f\x80p<'
p2298
tp2299
Rp2300
tp2301
asg73
g15
sa(dp2302
g2
S'../../../data/emanuela/activity-recognition/images/NTCIR-Lifelog-256/u2/2015-05-07/b00007714_21i7lf_20150507_151655e.jpg'
p2303
sg4
(lp2304
(g32
g6
(g18
S' a\xd3>'
p2305
tp2306
Rp2307
tp2308
a(g15
g6
(g18
S'iW\x94>'
p2309
tp2310
Rp2311
tp2312
a(g151
g6
(g18
S'>Z\\>'
p2313
tp2314
Rp2315
tp2316
a(g92
g6
(g18
S'\x14\xfd\x16='
p2317
tp2318
Rp2319
tp2320
a(g139
g6
(g18
S'\x12\xd5\x8d<'
p2321
tp2322
Rp2323
tp2324
asg73
g15
sa(dp2325
g2
S'../../../data/emanuela/activity-recognition/images/NTCIR-Lifelog-256/u2/2015-04-20/b00000552_21i7lf_20150420_152455e.jpg'
p2326
sg4
(lp2327
(g15
g6
(g18
S'\xbf\x96\x7f?'
p2328
tp2329
Rp2330
tp2331
a(g116
g6
(g18
S'\xb5\xed\x83:'
p2332
tp2333
Rp2334
tp2335
a(g92
g6
(g18
S'\xd0O\xed8'
p2336
tp2337
Rp2338
tp2339
a(g725
g6
(g18
S'\x0f\x11\xb48'
p2340
tp2341
Rp2342
tp2343
a(g104
g6
(g18
S'\xcdO\xa58'
p2344
tp2345
Rp2346
tp2347
asg73
g15
sa(dp2348
g2
S'../../../data/emanuela/activity-recognition/images/NTCIR-Lifelog-256/u2/2015-06-16/b00001616_21i7lf_20150616_101556e.jpg'
p2349
sg4
(lp2350
(g15
g6
(g18
S'\x01\xdd\x7f?'
p2351
tp2352
Rp2353
tp2354
a(g267
g6
(g18
S'r\xa2\x03:'
p2355
tp2356
Rp2357
tp2358
a(g521
g6
(g18
S'\xea\xda$7'
p2359
tp2360
Rp2361
tp2362
a(g32
g6
(g18
S'"\xa8\xc76'
p2363
tp2364
Rp2365
tp2366
a(g44
g6
(g18
S'\x91\x80\xac6'
p2367
tp2368
Rp2369
tp2370
asg73
g15
sa(dp2371
g2
S'../../../data/emanuela/activity-recognition/images/NTCIR-Lifelog-256/u2/2015-04-27/b00005513_21i7lf_20150427_144431e.jpg'
p2372
sg4
(lp2373
(g32
g6
(g18
S'\xe5jg?'
p2374
tp2375
Rp2376
tp2377
a(g92
g6
(g18
S'\xd1\x9d\x86='
p2378
tp2379
Rp2380
tp2381
a(g104
g6
(g18
S'E\r\x82<'
p2382
tp2383
Rp2384
tp2385
a(g15
g6
(g18
S'\xe7\xa3\xd4;'
p2386
tp2387
Rp2388
tp2389
a(g725
g6
(g18
S'U\xc1\x8c;'
p2390
tp2391
Rp2392
tp2393
asg73
g15
sa(dp2394
g2
S'../../../data/emanuela/activity-recognition/images/NTCIR-Lifelog-256/u2/2015-04-27/b00005536_21i7lf_20150427_145835e.jpg'
p2395
sg4
(lp2396
(g32
g6
(g18
S'\xaf\xb3u?'
p2397
tp2398
Rp2399
tp2400
a(g15
g6
(g18
S'_\x00\x10='
p2401
tp2402
Rp2403
tp2404
a(g44
g6
(g18
S'Z> ;'
p2405
tp2406
Rp2407
tp2408
a(g151
g6
(g18
S'\x81S\x13:'
p2409
tp2410
Rp2411
tp2412
a(g116
g6
(g18
S'\r:\xe89'
p2413
tp2414
Rp2415
tp2416
asg73
g15
sa(dp2417
g2
S'../../../data/emanuela/activity-recognition/images/NTCIR-Lifelog-256/u2/2015-04-27/b00005464_21i7lf_20150427_141401e.jpg'
p2418
sg4
(lp2419
(g15
g6
(g18
S'\xc8\xd4j?'
p2420
tp2421
Rp2422
tp2423
a(g32
g6
(g18
S'\xc6\xef.='
p2424
tp2425
Rp2426
tp2427
a(g56
g6
(g18
S'\xbd\xbd"<'
p2428
tp2429
Rp2430
tp2431
a(g139
g6
(g18
S'\xbc\xaf\xee;'
p2432
tp2433
Rp2434
tp2435
a(g68
g6
(g18
S'\xa1\xc6\xa8;'
p2436
tp2437
Rp2438
tp2439
asg73
g15
sa(dp2440
g2
S'../../../data/emanuela/activity-recognition/images/NTCIR-Lifelog-256/u2/2015-06-16/b00001595_21i7lf_20150616_100315e.jpg'
p2441
sg4
(lp2442
(g15
g6
(g18
S'wm{?'
p2443
tp2444
Rp2445
tp2446
a(g32
g6
(g18
S'\x9f\x84\x01<'
p2447
tp2448
Rp2449
tp2450
a(g44
g6
(g18
S'\xd6U\x81;'
p2451
tp2452
Rp2453
tp2454
a(g267
g6
(g18
S'\xab\xacR;'
p2455
tp2456
Rp2457
tp2458
a(g116
g6
(g18
S'\xd1\xa1\x9f:'
p2459
tp2460
Rp2461
tp2462
asg73
g15
sa(dp2463
g2
S'../../../data/emanuela/activity-recognition/images/NTCIR-Lifelog-256/u2/2015-04-20/b00000676_21i7lf_20150420_164231e.jpg'
p2464
sg4
(lp2465
(g15
g6
(g18
S'\xda\xd4}?'
p2466
tp2467
Rp2468
tp2469
a(g163
g6
(g18
S'U\xc5*;'
p2470
tp2471
Rp2472
tp2473
a(g151
g6
(g18
S'\xb0\x1f\x04;'
p2474
tp2475
Rp2476
tp2477
a(g104
g6
(g18
S'\xa6\xe5\xc0:'
p2478
tp2479
Rp2480
tp2481
a(g44
g6
(g18
S'X.\x0e:'
p2482
tp2483
Rp2484
tp2485
asg73
g15
sa(dp2486
g2
S'../../../data/emanuela/activity-recognition/images/NTCIR-Lifelog-256/u2/2015-04-27/b00005533_21i7lf_20150427_145645e.jpg'
p2487
sg4
(lp2488
(g32
g6
(g18
S'\x94\x9bi?'
p2489
tp2490
Rp2491
tp2492
a(g44
g6
(g18
S'z\xe3\xe8<'
p2493
tp2494
Rp2495
tp2496
a(g104
g6
(g18
S'\xb49\x8b<'
p2497
tp2498
Rp2499
tp2500
a(g56
g6
(g18
S'\xd36\x07<'
p2501
tp2502
Rp2503
tp2504
a(g413
g6
(g18
S'\x151\x06<'
p2505
tp2506
Rp2507
tp2508
asg73
g15
sa(dp2509
g2
S'../../../data/emanuela/activity-recognition/images/NTCIR-Lifelog-256/u2/2015-04-20/b00000682_21i7lf_20150420_164601e.jpg'
p2510
sg4
(lp2511
(g15
g6
(g18
S'\xf0\xaag?'
p2512
tp2513
Rp2514
tp2515
a(g163
g6
(g18
S'{\xfd\x83='
p2516
tp2517
Rp2518
tp2519
a(g151
g6
(g18
S'\x8b\xe5\x0f<'
p2520
tp2521
Rp2522
tp2523
a(g104
g6
(g18
S'J\xaa\xc9;'
p2524
tp2525
Rp2526
tp2527
a(g413
g6
(g18
S'I\xde\xc7;'
p2528
tp2529
Rp2530
tp2531
asg73
g15
sa(dp2532
g2
S'../../../data/emanuela/activity-recognition/images/NTCIR-Lifelog-256/u2/2015-04-27/b00005463_21i7lf_20150427_141320e.jpg'
p2533
sg4
(lp2534
(g15
g6
(g18
S'\xfb\xb9\x1c?'
p2535
tp2536
Rp2537
tp2538
a(g267
g6
(g18
S'*x\xba='
p2539
tp2540
Rp2541
tp2542
a(g190
g6
(g18
S'fj*='
p2543
tp2544
Rp2545
tp2546
a(g32
g6
(g18
S'\x0e\xfc\x1c='
p2547
tp2548
Rp2549
tp2550
a(g6
(g7
(S'S8'
p2551
I0
I1
tp2552
Rp2553
(I3
S'|'
p2554
NNNI8
I1
I0
tp2555
bS'shopping'
p2556
tp2557
Rp2558
g6
(g18
S'\x87\xcd\x02='
p2559
tp2560
Rp2561
tp2562
asg73
g15
sa(dp2563
g2
S'../../../data/emanuela/activity-recognition/images/NTCIR-Lifelog-256/u2/2015-04-20/b00000640_21i7lf_20150420_162027e.jpg'
p2564
sg4
(lp2565
(g15
g6
(g18
S'\xc2\xd8\x7f?'
p2566
tp2567
Rp2568
tp2569
a(g116
g6
(g18
S'\xe1\xd8F9'
p2570
tp2571
Rp2572
tp2573
a(g151
g6
(g18
S'\xf3h\xda8'
p2574
tp2575
Rp2576
tp2577
a(g163
g6
(g18
S'\xfcU\x858'
p2578
tp2579
Rp2580
tp2581
a(g92
g6
(g18
S'\xa4\x1b\x1d8'
p2582
tp2583
Rp2584
tp2585
asg73
g15
sa(dp2586
g2
S'../../../data/emanuela/activity-recognition/images/NTCIR-Lifelog-256/u2/2015-04-20/b00000654_21i7lf_20150420_162841e.jpg'
p2587
sg4
(lp2588
(g15
g6
(g18
S'\x0b\xcfh?'
p2589
tp2590
Rp2591
tp2592
a(g163
g6
(g18
S'\x88\xf0j='
p2593
tp2594
Rp2595
tp2596
a(g44
g6
(g18
S'\x08\nY<'
p2597
tp2598
Rp2599
tp2600
a(g151
g6
(g18
S'g\xf7\xe6;'
p2601
tp2602
Rp2603
tp2604
a(g116
g6
(g18
S'\xd7\xf2\xa8;'
p2605
tp2606
Rp2607
tp2608
asg73
g15
sa(dp2609
g2
S'../../../data/emanuela/activity-recognition/images/NTCIR-Lifelog-256/u2/2015-04-20/b00000523_21i7lf_20150420_150714e.jpg'
p2610
sg4
(lp2611
(g15
g6
(g18
S'\xd1\xb6~?'
p2612
tp2613
Rp2614
tp2615
a(g116
g6
(g18
S'\xc9\xa1\x84;'
p2616
tp2617
Rp2618
tp2619
a(g139
g6
(g18
S'\x91\x9dv9'
p2620
tp2621
Rp2622
tp2623
a(g151
g6
(g18
S'\x15\xf9J9'
p2624
tp2625
Rp2626
tp2627
a(g104
g6
(g18
S'\xea!\xc68'
p2628
tp2629
Rp2630
tp2631
asg73
g15
sa(dp2632
g2
S'../../../data/emanuela/activity-recognition/images/NTCIR-Lifelog-256/u2/2015-04-27/b00005530_21i7lf_20150427_145505e.jpg'
p2633
sg4
(lp2634
(g15
g6
(g18
S'F\xd7Z?'
p2635
tp2636
Rp2637
tp2638
a(g32
g6
(g18
S'\xf6#\x12>'
p2639
tp2640
Rp2641
tp2642
a(g92
g6
(g18
S'\x08\x9e\x11:'
p2643
tp2644
Rp2645
tp2646
a(g139
g6
(g18
S'\x90\xa7\xd19'
p2647
tp2648
Rp2649
tp2650
a(g725
g6
(g18
S'|\x07\x989'
p2651
tp2652
Rp2653
tp2654
asg73
g15
sa(dp2655
g2
S'../../../data/emanuela/activity-recognition/images/NTCIR-Lifelog-256/u2/2015-04-20/b00000692_21i7lf_20150420_165227e.jpg'
p2656
sg4
(lp2657
(g15
g6
(g18
S':\x99|?'
p2658
tp2659
Rp2660
tp2661
a(g32
g6
(g18
S'\x07\x83\xcb;'
p2662
tp2663
Rp2664
tp2665
a(g116
g6
(g18
S'\xa5\x8fY;'
p2666
tp2667
Rp2668
tp2669
a(g92
g6
(g18
S'm\xe6\x94:'
p2670
tp2671
Rp2672
tp2673
a(g104
g6
(g18
S'\x04c\x0b:'
p2674
tp2675
Rp2676
tp2677
asg73
g15
sa(dp2678
g2
S'../../../data/emanuela/activity-recognition/images/NTCIR-Lifelog-256/u2/2015-04-20/b00000570_21i7lf_20150420_153627e.jpg'
p2679
sg4
(lp2680
(g15
g6
(g18
S'\xbe?y?'
p2681
tp2682
Rp2683
tp2684
a(g163
g6
(g18
S'5\x19B<'
p2685
tp2686
Rp2687
tp2688
a(g116
g6
(g18
S'F4*<'
p2689
tp2690
Rp2691
tp2692
a(g44
g6
(g18
S'pn\x91:'
p2693
tp2694
Rp2695
tp2696
a(g56
g6
(g18
S'm`?:'
p2697
tp2698
Rp2699
tp2700
asg73
g15
sa(dp2701
g2
S'../../../data/emanuela/activity-recognition/images/NTCIR-Lifelog-256/u2/2015-06-16/b00001621_21i7lf_20150616_101901e.jpg'
p2702
sg4
(lp2703
(g15
g6
(g18
S'\xa8\x95\x7f?'
p2704
tp2705
Rp2706
tp2707
a(g267
g6
(g18
S'\x9a\x9b\xc3:'
p2708
tp2709
Rp2710
tp2711
a(g116
g6
(g18
S'\xb8@j8'
p2712
tp2713
Rp2714
tp2715
a(g32
g6
(g18
S'\xff6\xab7'
p2716
tp2717
Rp2718
tp2719
a(g521
g6
(g18
S'\xef]\x867'
p2720
tp2721
Rp2722
tp2723
asg73
g15
sa(dp2724
g2
S'../../../data/emanuela/activity-recognition/images/NTCIR-Lifelog-256/u2/2015-04-20/b00000544_21i7lf_20150420_151955e.jpg'
p2725
sg4
(lp2726
(g15
g6
(g18
S'\xcblq?'
p2727
tp2728
Rp2729
tp2730
a(g448
g6
(g18
S'g\x94\x1b<'
p2731
tp2732
Rp2733
tp2734
a(g116
g6
(g18
S'N]\xe6;'
p2735
tp2736
Rp2737
tp2738
a(g32
g6
(g18
S'\xee\x19\xe1;'
p2739
tp2740
Rp2741
tp2742
a(g56
g6
(g18
S'\x84R\xd1;'
p2743
tp2744
Rp2745
tp2746
asg73
g15
sa(dp2747
g2
S'../../../data/emanuela/activity-recognition/images/NTCIR-Lifelog-256/u2/2015-04-27/b00005544_21i7lf_20150427_150318e.jpg'
p2748
sg4
(lp2749
(g15
g6
(g18
S'f\xa5\xfc>'
p2750
tp2751
Rp2752
tp2753
a(g32
g6
(g18
S'\xe6\xdd\xf4>'
p2754
tp2755
Rp2756
tp2757
a(g92
g6
(g18
S'\x05\x1d\n<'
p2758
tp2759
Rp2760
tp2761
a(g44
g6
(g18
S'\xca\xc7\xe0;'
p2762
tp2763
Rp2764
tp2765
a(g151
g6
(g18
S'\x9f}=;'
p2766
tp2767
Rp2768
tp2769
asg73
g15
sa(dp2770
g2
S'../../../data/emanuela/activity-recognition/images/NTCIR-Lifelog-256/u2/2015-04-27/b00005561_21i7lf_20150427_151343e.jpg'
p2771
sg4
(lp2772
(g32
g6
(g18
S'\xad \r?'
p2773
tp2774
Rp2775
tp2776
a(g15
g6
(g18
S'\xee\x02\xe6='
p2777
tp2778
Rp2779
tp2780
a(g44
g6
(g18
S'G/\x8e='
p2781
tp2782
Rp2783
tp2784
a(g56
g6
(g18
S'^\xd2V='
p2785
tp2786
Rp2787
tp2788
a(g104
g6
(g18
S'\xb1B/='
p2789
tp2790
Rp2791
tp2792
asg73
g15
sa(dp2793
g2
S'../../../data/emanuela/activity-recognition/images/NTCIR-Lifelog-256/u2/2015-04-24/b00002039_21i7lf_20150424_101417e.jpg'
p2794
sg4
(lp2795
(g15
g6
(g18
S'/;~?'
p2796
tp2797
Rp2798
tp2799
a(g32
g6
(g18
S'\x1a\x1aW;'
p2800
tp2801
Rp2802
tp2803
a(g116
g6
(g18
S'\xbb\xfd\xfd:'
p2804
tp2805
Rp2806
tp2807
a(g92
g6
(g18
S"\x01\x81':"
p2808
tp2809
Rp2810
tp2811
a(g104
g6
(g18
S'KB\r:'
p2812
tp2813
Rp2814
tp2815
asg73
g15
sa(dp2816
g2
S'../../../data/emanuela/activity-recognition/images/NTCIR-Lifelog-256/u2/2015-04-20/b00000534_21i7lf_20150420_151355e.jpg'
p2817
sg4
(lp2818
(g15
g6
(g18
S'\xf7\xdb\x7f?'
p2819
tp2820
Rp2821
tp2822
a(g139
g6
(g18
S'\xab(\x9a9'
p2823
tp2824
Rp2825
tp2826
a(g151
g6
(g18
S'\xe5\x08p8'
p2827
tp2828
Rp2829
tp2830
a(g448
g6
(g18
S'\x8c\xe9\x198'
p2831
tp2832
Rp2833
tp2834
a(g92
g6
(g18
S'@]\x158'
p2835
tp2836
Rp2837
tp2838
asg73
g15
sa(dp2839
g2
S'../../../data/emanuela/activity-recognition/images/NTCIR-Lifelog-256/u2/2015-04-27/b00005556_21i7lf_20150427_151039e.jpg'
p2840
sg4
(lp2841
(g32
g6
(g18
S'rk.?'
p2842
tp2843
Rp2844
tp2845
a(g56
g6
(g18
S'\n;\xdd='
p2846
tp2847
Rp2848
tp2849
a(g15
g6
(g18
S'g_\x9d='
p2850
tp2851
Rp2852
tp2853
a(g552
g6
(g18
S'*\xb4f='
p2854
tp2855
Rp2856
tp2857
a(g190
g6
(g18
S',\x91\xc1<'
p2858
tp2859
Rp2860
tp2861
asg73
g15
sa(dp2862
g2
S'../../../data/emanuela/activity-recognition/images/NTCIR-Lifelog-256/u2/2015-04-27/b00005520_21i7lf_20150427_144837e.jpg'
p2863
sg4
(lp2864
(g32
g6
(g18
S'\x93\xd2\x02?'
p2865
tp2866
Rp2867
tp2868
a(g116
g6
(g18
S'v\x9a\x9c>'
p2869
tp2870
Rp2871
tp2872
a(g190
g6
(g18
S'\x81.1='
p2873
tp2874
Rp2875
tp2876
a(g15
g6
(g18
S'\xe0\xdc%='
p2877
tp2878
Rp2879
tp2880
a(g413
g6
(g18
S'\xfad\x03='
p2881
tp2882
Rp2883
tp2884
asg73
g15
sa(dp2885
g2
S'../../../data/emanuela/activity-recognition/images/NTCIR-Lifelog-256/u2/2015-04-20/b00000690_21i7lf_20150420_165111e.jpg'
p2886
sg4
(lp2887
(g15
g6
(g18
S'@Cv?'
p2888
tp2889
Rp2890
tp2891
a(g56
g6
(g18
S'O;\x15<'
p2892
tp2893
Rp2894
tp2895
a(g32
g6
(g18
S'\x161\xff;'
p2896
tp2897
Rp2898
tp2899
a(g116
g6
(g18
S'y\x03\xe0;'
p2900
tp2901
Rp2902
tp2903
a(g44
g6
(g18
S'\x0f\x9aL;'
p2904
tp2905
Rp2906
tp2907
asg73
g15
sa(dp2908
g2
S'../../../data/emanuela/activity-recognition/images/NTCIR-Lifelog-256/u2/2015-04-20/b00000578_21i7lf_20150420_154123e.jpg'
p2909
sg4
(lp2910
(g163
g6
(g18
S'@&\xf5>'
p2911
tp2912
Rp2913
tp2914
a(g116
g6
(g18
S'\x16\xfdC>'
p2915
tp2916
Rp2917
tp2918
a(g15
g6
(g18
S'\x82Z!>'
p2919
tp2920
Rp2921
tp2922
a(g44
g6
(g18
S'\xb3 i='
p2923
tp2924
Rp2925
tp2926
a(g104
g6
(g18
S"'G7="
p2927
tp2928
Rp2929
tp2930
asg73
g15
sa(dp2931
g2
S'../../../data/emanuela/activity-recognition/images/NTCIR-Lifelog-256/u2/2015-04-20/b00000518_21i7lf_20150420_150425e.jpg'
p2932
sg4
(lp2933
(g15
g6
(g18
S'\x13\xe8}?'
p2934
tp2935
Rp2936
tp2937
a(g32
g6
(g18
S'\xe93&;'
p2938
tp2939
Rp2940
tp2941
a(g116
g6
(g18
S'M\xdd\xea:'
p2942
tp2943
Rp2944
tp2945
a(g56
g6
(g18
S'\xf6q\x8f:'
p2946
tp2947
Rp2948
tp2949
a(g92
g6
(g18
S'*:\xe79'
p2950
tp2951
Rp2952
tp2953
asg73
g15
sa(dp2954
g2
S'../../../data/emanuela/activity-recognition/images/NTCIR-Lifelog-256/u2/2015-04-27/b00005511_21i7lf_20150427_144321e.jpg'
p2955
sg4
(lp2956
(g15
g6
(g18
S'v\xbeI?'
p2957
tp2958
Rp2959
tp2960
a(g32
g6
(g18
S'\x9d_A>'
p2961
tp2962
Rp2963
tp2964
a(g116
g6
(g18
S'J\xa1\xd2;'
p2965
tp2966
Rp2967
tp2968
a(g139
g6
(g18
S'\xc0X\xbd;'
p2969
tp2970
Rp2971
tp2972
a(g151
g6
(g18
S'\xe1\xe9S;'
p2973
tp2974
Rp2975
tp2976
asg73
g15
sa(dp2977
g2
S'../../../data/emanuela/activity-recognition/images/NTCIR-Lifelog-256/u2/2015-06-16/b00001624_21i7lf_20150616_102056e.jpg'
p2978
sg4
(lp2979
(g15
g6
(g18
S'G\xe0|?'
p2980
tp2981
Rp2982
tp2983
a(g267
g6
(g18
S'k{?<'
p2984
tp2985
Rp2986
tp2987
a(g116
g6
(g18
S'\xfa}\x199'
p2988
tp2989
Rp2990
tp2991
a(g32
g6
(g18
S'T\xfc\x159'
p2992
tp2993
Rp2994
tp2995
a(g44
g6
(g18
S'\xae}\x958'
p2996
tp2997
Rp2998
tp2999
asg73
g15
sa(dp3000
g2
S'../../../data/emanuela/activity-recognition/images/NTCIR-Lifelog-256/u2/2015-04-20/b00000567_21i7lf_20150420_153430e.jpg'
p3001
sg4
(lp3002
(g15
g6
(g18
S'\xfb\xf4}?'
p3003
tp3004
Rp3005
tp3006
a(g116
g6
(g18
S'\x97\xce\xba;'
p3007
tp3008
Rp3009
tp3010
a(g163
g6
(g18
S'9P\xbe:'
p3011
tp3012
Rp3013
tp3014
a(g44
g6
(g18
S'\xe2g=9'
p3015
tp3016
Rp3017
tp3018
a(g56
g6
(g18
S'\xec\x92\x129'
p3019
tp3020
Rp3021
tp3022
asg73
g15
sa(dp3023
g2
S'../../../data/emanuela/activity-recognition/images/NTCIR-Lifelog-256/u2/2015-06-16/b00001613_21i7lf_20150616_101417e.jpg'
p3024
sg4
(lp3025
(g15
g6
(g18
S'\x13\x90\x7f?'
p3026
tp3027
Rp3028
tp3029
a(g267
g6
(g18
S'X?\xb2:'
p3030
tp3031
Rp3032
tp3033
a(g959
g6
(g18
S'~\xca\x019'
p3034
tp3035
Rp3036
tp3037
a(g44
g6
(g18
S'\xd70]8'
p3038
tp3039
Rp3040
tp3041
a(g521
g6
(g18
S'\xb3y28'
p3042
tp3043
Rp3044
tp3045
asg73
g15
sa(dp3046
g2
S'../../../data/emanuela/activity-recognition/images/NTCIR-Lifelog-256/u2/2015-04-20/b00000683_21i7lf_20150420_164638e.jpg'
p3047
sg4
(lp3048
(g15
g6
(g18
S'\xf5;h?'
p3049
tp3050
Rp3051
tp3052
a(g163
g6
(g18
S'\x06\x8a\xc0<'
p3053
tp3054
Rp3055
tp3056
a(g413
g6
(g18
S'\xac\xbe\x9b<'
p3057
tp3058
Rp3059
tp3060
a(g104
g6
(g18
S'\xf5\x1fw<'
p3061
tp3062
Rp3063
tp3064
a(g44
g6
(g18
S'\xf5\xe9j<'
p3065
tp3066
Rp3067
tp3068
asg73
g15
sa(dp3069
g2
S'../../../data/emanuela/activity-recognition/images/NTCIR-Lifelog-256/u2/2015-04-20/b00000603_21i7lf_20150420_155640e.jpg'
p3070
sg4
(lp3071
(g15
g6
(g18
S'\xf8\xb3\x87>'
p3072
tp3073
Rp3074
tp3075
a(g56
g6
(g18
S'\xfc\xb3\x85>'
p3076
tp3077
Rp3078
tp3079
a(g32
g6
(g18
S'\xe1M\x13>'
p3080
tp3081
Rp3082
tp3083
a(g552
g6
(g18
S'\xf1Q\xc7='
p3084
tp3085
Rp3086
tp3087
a(g104
g6
(g18
S'\x97\xc4\x80='
p3088
tp3089
Rp3090
tp3091
asg73
g15
sa(dp3092
g2
S'../../../data/emanuela/activity-recognition/images/NTCIR-Lifelog-256/u2/2015-04-27/b00005524_21i7lf_20150427_145105e.jpg'
p3093
sg4
(lp3094
(g32
g6
(g18
S'\xdb\nx?'
p3095
tp3096
Rp3097
tp3098
a(g15
g6
(g18
S'R\x9eA<'
p3099
tp3100
Rp3101
tp3102
a(g116
g6
(g18
S'.\xde\x10<'
p3103
tp3104
Rp3105
tp3106
a(g92
g6
(g18
S'8_\xc4;'
p3107
tp3108
Rp3109
tp3110
a(g56
g6
(g18
S'\xcc\x9f\xe3:'
p3111
tp3112
Rp3113
tp3114
asg73
g15
sa(dp3115
g2
S'../../../data/emanuela/activity-recognition/images/NTCIR-Lifelog-256/u2/2015-04-20/b00000540_21i7lf_20150420_151733e.jpg'
p3116
sg4
(lp3117
(g15
g6
(g18
S'\xe6L{?'
p3118
tp3119
Rp3120
tp3121
a(g163
g6
(g18
S'\x1a\xf0\xda;'
p3122
tp3123
Rp3124
tp3125
a(g139
g6
(g18
S'\xb6\r\xad;'
p3126
tp3127
Rp3128
tp3129
a(g116
g6
(g18
S'\x0e\xa3\xd7:'
p3130
tp3131
Rp3132
tp3133
a(g151
g6
(g18
S'N\xd2\xab:'
p3134
tp3135
Rp3136
tp3137
asg73
g15
sa(dp3138
g2
S'../../../data/emanuela/activity-recognition/images/NTCIR-Lifelog-256/u2/2015-06-16/b00001597_21i7lf_20150616_100429e.jpg'
p3139
sg4
(lp3140
(g15
g6
(g18
S'\xedi|?'
p3141
tp3142
Rp3143
tp3144
a(g267
g6
(g18
S'\xec,\x14<'
p3145
tp3146
Rp3147
tp3148
a(g44
g6
(g18
S'[\xc1\x02;'
p3149
tp3150
Rp3151
tp3152
a(g116
g6
(g18
S'\xbb\xe6\x9d:'
p3153
tp3154
Rp3155
tp3156
a(g32
g6
(g18
S'n\x10\x17:'
p3157
tp3158
Rp3159
tp3160
asg73
g15
sa(dp3161
g2
S'../../../data/emanuela/activity-recognition/images/NTCIR-Lifelog-256/u2/2015-04-20/b00000601_21i7lf_20150420_155530e.jpg'
p3162
sg4
(lp3163
(g552
g6
(g18
S'li\xb3>'
p3164
tp3165
Rp3166
tp3167
a(g56
g6
(g18
S'\x1d {>'
p3168
tp3169
Rp3170
tp3171
a(g104
g6
(g18
S'c\x01\xe8='
p3172
tp3173
Rp3174
tp3175
a(g32
g6
(g18
S'\x1d\xdf\xa8='
p3176
tp3177
Rp3178
tp3179
a(g116
g6
(g18
S'&\xf0\xa3='
p3180
tp3181
Rp3182
tp3183
asg73
g15
sa(dp3184
g2
S'../../../data/emanuela/activity-recognition/images/NTCIR-Lifelog-256/u2/2015-05-03/b00003651_21i7lf_20150503_132506e.jpg'
p3185
sg4
(lp3186
(g15
g6
(g18
S'\x9e\xa7\x13?'
p3187
tp3188
Rp3189
tp3190
a(g32
g6
(g18
S'$/\xc2>'
p3191
tp3192
Rp3193
tp3194
a(g116
g6
(g18
S'm\xe1\xb8<'
p3195
tp3196
Rp3197
tp3198
a(g104
g6
(g18
S'\xf8\x15\xdd;'
p3199
tp3200
Rp3201
tp3202
a(g92
g6
(g18
S"\xed'\xc4;"
p3203
tp3204
Rp3205
tp3206
asg73
g15
sa(dp3207
g2
S'../../../data/emanuela/activity-recognition/images/NTCIR-Lifelog-256/u2/2015-04-21/b00000452_21i7lf_20150421_143035e.jpg'
p3208
sg4
(lp3209
(g32
g6
(g18
S'|Ov?'
p3210
tp3211
Rp3212
tp3213
a(g92
g6
(g18
S'\xbb@\x06<'
p3214
tp3215
Rp3216
tp3217
a(g104
g6
(g18
S'\xbe\x91\xc6;'
p3218
tp3219
Rp3220
tp3221
a(g2558
g6
(g18
S'\x86`\xc2;'
p3222
tp3223
Rp3224
tp3225
a(g15
g6
(g18
S'\xbb\x02\xba;'
p3226
tp3227
Rp3228
tp3229
asg73
g15
sa(dp3230
g2
S'../../../data/emanuela/activity-recognition/images/NTCIR-Lifelog-256/u2/2015-05-03/b00003575_21i7lf_20150503_123055e.jpg'
p3231
sg4
(lp3232
(g15
g6
(g18
S'f\xf8M?'
p3233
tp3234
Rp3235
tp3236
a(g413
g6
(g18
S'\xc6\xf5b='
p3237
tp3238
Rp3239
tp3240
a(g104
g6
(g18
S'd\x9e?='
p3241
tp3242
Rp3243
tp3244
a(g116
g6
(g18
S'\xfa9\xef<'
p3245
tp3246
Rp3247
tp3248
a(g68
g6
(g18
S'r\xd3\x9e<'
p3249
tp3250
Rp3251
tp3252
asg73
g15
sa(dp3253
g2
S'../../../data/emanuela/activity-recognition/images/NTCIR-Lifelog-256/u2/2015-04-29/b00000554_21i7lf_20150429_131158e (1).jpg'
p3254
sg4
(lp3255
(g32
g6
(g18
S'\xc9`=?'
p3256
tp3257
Rp3258
tp3259
a(g15
g6
(g18
S'n\xbb{>'
p3260
tp3261
Rp3262
tp3263
a(g92
g6
(g18
S'\xc6?0<'
p3264
tp3265
Rp3266
tp3267
a(g725
g6
(g18
S'Q\x80\xb9:'
p3268
tp3269
Rp3270
tp3271
a(g116
g6
(g18
S'Hg\x17:'
p3272
tp3273
Rp3274
tp3275
asg73
g15
sa(dp3276
g2
S'../../../data/emanuela/activity-recognition/images/NTCIR-Lifelog-256/u2/2015-04-26/b00004318_21i7lf_20150426_173659e.jpg'
p3277
sg4
(lp3278
(g116
g6
(g18
S'\x16\xa7\xd0>'
p3279
tp3280
Rp3281
tp3282
a(g15
g6
(g18
S'K<\xc6>'
p3283
tp3284
Rp3285
tp3286
a(g56
g6
(g18
S'\xf1\xfb\xe0='
p3287
tp3288
Rp3289
tp3290
a(g163
g6
(g18
S'\x15\x00\xf2<'
p3291
tp3292
Rp3293
tp3294
a(g413
g6
(g18
S'\x18\xd2{<'
p3295
tp3296
Rp3297
tp3298
asg73
g15
sa(dp3299
g2
S'../../../data/emanuela/activity-recognition/images/NTCIR-Lifelog-256/u2/2015-05-07/b00007723_21i7lf_20150507_152216e.jpg'
p3300
sg4
(lp3301
(g32
g6
(g18
S'\xf7\xf9\xe9>'
p3302
tp3303
Rp3304
tp3305
a(g15
g6
(g18
S'9\x92\x87>'
p3306
tp3307
Rp3308
tp3309
a(g92
g6
(g18
S'K\xea7>'
p3310
tp3311
Rp3312
tp3313
a(g116
g6
(g18
S'X\xaf4='
p3314
tp3315
Rp3316
tp3317
a(g104
g6
(g18
S'\xef\x81\xec<'
p3318
tp3319
Rp3320
tp3321
asg73
g15
sa(dp3322
g2
S'../../../data/emanuela/activity-recognition/images/NTCIR-Lifelog-256/u2/2015-04-27/b00005455_21i7lf_20150427_140727e.jpg'
p3323
sg4
(lp3324
(g32
g6
(g18
S'\xdb\xee\\?'
p3325
tp3326
Rp3327
tp3328
a(g15
g6
(g18
S'*L\xc5='
p3329
tp3330
Rp3331
tp3332
a(g116
g6
(g18
S'\n\x89\xe5<'
p3333
tp3334
Rp3335
tp3336
a(g92
g6
(g18
S'N\x01\xd1;'
p3337
tp3338
Rp3339
tp3340
a(g56
g6
(g18
S'@\x84\xab:'
p3341
tp3342
Rp3343
tp3344
asg73
g15
sa(dp3345
g2
S'../../../data/emanuela/activity-recognition/images/NTCIR-Lifelog-256/u2/2015-05-07/b00007726_21i7lf_20150507_152405e.jpg'
p3346
sg4
(lp3347
(g15
g6
(g18
S'\xf8\r\\?'
p3348
tp3349
Rp3350
tp3351
a(g32
g6
(g18
S'\x99\xfb\x9a='
p3352
tp3353
Rp3354
tp3355
a(g151
g6
(g18
S'\x0b\xb4\x9c<'
p3356
tp3357
Rp3358
tp3359
a(g92
g6
(g18
S'mPV<'
p3360
tp3361
Rp3362
tp3363
a(g139
g6
(g18
S'\xeb\x06J<'
p3364
tp3365
Rp3366
tp3367
asg73
g15
sa(dp3368
g2
S'../../../data/emanuela/activity-recognition/images/NTCIR-Lifelog-256/u2/2015-04-20/b00000660_21i7lf_20150420_163233e.jpg'
p3369
sg4
(lp3370
(g15
g6
(g18
S'\xab\x8f\x7f?'
p3371
tp3372
Rp3373
tp3374
a(g163
g6
(g18
S'{\xc4\xca9'
p3375
tp3376
Rp3377
tp3378
a(g116
g6
(g18
S'U&\xbd9'
p3379
tp3380
Rp3381
tp3382
a(g56
g6
(g18
S'\xd4\x0co9'
p3383
tp3384
Rp3385
tp3386
a(g151
g6
(g18
S'\xb5\xf0\x1d9'
p3387
tp3388
Rp3389
tp3390
asg73
g15
sa(dp3391
g2
S'../../../data/emanuela/activity-recognition/images/NTCIR-Lifelog-256/u2/2015-04-27/b00005460_21i7lf_20150427_141129e.jpg'
p3392
sg4
(lp3393
(g15
g6
(g18
S'\\O ?'
p3394
tp3395
Rp3396
tp3397
a(g56
g6
(g18
S'T\xfb\xbb='
p3398
tp3399
Rp3400
tp3401
a(g32
g6
(g18
S'\xd6\xec\xb3='
p3402
tp3403
Rp3404
tp3405
a(g116
g6
(g18
S'p2\x9b='
p3406
tp3407
Rp3408
tp3409
a(g190
g6
(g18
S',\x04\xe5<'
p3410
tp3411
Rp3412
tp3413
asg73
g15
sa(dp3414
g2
S'../../../data/emanuela/activity-recognition/images/NTCIR-Lifelog-256/u2/2015-04-21/b00000460_21i7lf_20150421_143527e.jpg'
p3415
sg4
(lp3416
(g15
g6
(g18
S'=\x8e\x1d?'
p3417
tp3418
Rp3419
tp3420
a(g32
g6
(g18
S'A\xbb|>'
p3421
tp3422
Rp3423
tp3424
a(g92
g6
(g18
S'\xff1\x85='
p3425
tp3426
Rp3427
tp3428
a(g104
g6
(g18
S'\x86\xda=='
p3429
tp3430
Rp3431
tp3432
a(g116
g6
(g18
S'\\\x90,<'
p3433
tp3434
Rp3435
tp3436
asg73
g15
sa(dp3437
g2
S'../../../data/emanuela/activity-recognition/images/NTCIR-Lifelog-256/u2/2015-04-20/b00000542_21i7lf_20150420_151845e.jpg'
p3438
sg4
(lp3439
(g15
g6
(g18
S'\x9e\xd8z?'
p3440
tp3441
Rp3442
tp3443
a(g151
g6
(g18
S'\x8d_E;'
p3444
tp3445
Rp3446
tp3447
a(g116
g6
(g18
S's\xdbD;'
p3448
tp3449
Rp3450
tp3451
a(g163
g6
(g18
S'\x00M-;'
p3452
tp3453
Rp3454
tp3455
a(g56
g6
(g18
S'\xcd\xc1\x06;'
p3456
tp3457
Rp3458
tp3459
asg73
g15
sa(dp3460
g2
S'../../../data/emanuela/activity-recognition/images/NTCIR-Lifelog-256/u2/2015-04-27/b00005471_21i7lf_20150427_141822e.jpg'
p3461
sg4
(lp3462
(g32
g6
(g18
S',\\k?'
p3463
tp3464
Rp3465
tp3466
a(g15
g6
(g18
S'\xee\xd6\x08='
p3467
tp3468
Rp3469
tp3470
a(g56
g6
(g18
S'"Q\xe4<'
p3471
tp3472
Rp3473
tp3474
a(g92
g6
(g18
S'\xca\x06\x9c;'
p3475
tp3476
Rp3477
tp3478
a(g68
g6
(g18
S'\xa2\xbe\x16;'
p3479
tp3480
Rp3481
tp3482
asg73
g15
sa(dp3483
g2
S'../../../data/emanuela/activity-recognition/images/NTCIR-Lifelog-256/u2/2015-04-20/b00000647_21i7lf_20150420_162438e.jpg'
p3484
sg4
(lp3485
(g32
g6
(g18
S'\xa8\x8e\xd9>'
p3486
tp3487
Rp3488
tp3489
a(g15
g6
(g18
S'\x94\xae\xa6>'
p3490
tp3491
Rp3492
tp3493
a(g92
g6
(g18
S'X\x97\x11>'
p3494
tp3495
Rp3496
tp3497
a(g116
g6
(g18
S'\xf3\xb8W='
p3498
tp3499
Rp3500
tp3501
a(g56
g6
(g18
S'\xce-\xd0<'
p3502
tp3503
Rp3504
tp3505
asg73
g15
sa(dp3506
g2
S'../../../data/emanuela/activity-recognition/images/NTCIR-Lifelog-256/u2/2015-04-27/b00005512_21i7lf_20150427_144356e.jpg'
p3507
sg4
(lp3508
(g32
g6
(g18
S'\xeb[p?'
p3509
tp3510
Rp3511
tp3512
a(g116
g6
(g18
S'\xf2\xe7\xa5<'
p3513
tp3514
Rp3515
tp3516
a(g15
g6
(g18
S'\x97O\x05<'
p3517
tp3518
Rp3519
tp3520
a(g104
g6
(g18
S'\x01l\xc0;'
p3521
tp3522
Rp3523
tp3524
a(g2558
g6
(g18
S'n\xa0\x8d;'
p3525
tp3526
Rp3527
tp3528
asg73
g15
sa(dp3529
g2
S'../../../data/emanuela/activity-recognition/images/NTCIR-Lifelog-256/u2/2015-04-27/b00005444_21i7lf_20150427_140014e.jpg'
p3530
sg4
(lp3531
(g15
g6
(g18
S'\x1a\xd5;?'
p3532
tp3533
Rp3534
tp3535
a(g32
g6
(g18
S'\xa1\xa5\x0f>'
p3536
tp3537
Rp3538
tp3539
a(g116
g6
(g18
S'l\x9e\xd9='
p3540
tp3541
Rp3542
tp3543
a(g190
g6
(g18
S'\xf7\xdb\xa6;'
p3544
tp3545
Rp3546
tp3547
a(g139
g6
(g18
S']\x0b=;'
p3548
tp3549
Rp3550
tp3551
asg73
g15
sa(dp3552
g2
S'../../../data/emanuela/activity-recognition/images/NTCIR-Lifelog-256/u2/2015-04-20/b00000602_21i7lf_20150420_155605e.jpg'
p3553
sg4
(lp3554
(g15
g6
(g18
S'\xb6\x1f\xd9>'
p3555
tp3556
Rp3557
tp3558
a(g56
g6
(g18
S'1\xd1G>'
p3559
tp3560
Rp3561
tp3562
a(g32
g6
(g18
S'\x8e\x85\t>'
p3563
tp3564
Rp3565
tp3566
a(g552
g6
(g18
S'\xcdD\x86='
p3567
tp3568
Rp3569
tp3570
a(g104
g6
(g18
S'\x96iE='
p3571
tp3572
Rp3573
tp3574
asg73
g15
sa(dp3575
g2
S'../../../data/emanuela/activity-recognition/images/NTCIR-Lifelog-256/u2/2015-06-16/b00001619_21i7lf_20150616_101747e.jpg'
p3576
sg4
(lp3577
(g15
g6
(g18
S'\xd0\x92~?'
p3578
tp3579
Rp3580
tp3581
a(g267
g6
(g18
S'\x99=\xae;'
p3582
tp3583
Rp3584
tp3585
a(g32
g6
(g18
S'\xd7Zp8'
p3586
tp3587
Rp3588
tp3589
a(g521
g6
(g18
S'\xdaNQ8'
p3590
tp3591
Rp3592
tp3593
a(g116
g6
(g18
S'\xfa|A8'
p3594
tp3595
Rp3596
tp3597
asg73
g15
sa(dp3598
g2
S'../../../data/emanuela/activity-recognition/images/NTCIR-Lifelog-256/u2/2015-04-20/b00000599_21i7lf_20150420_155422e.jpg'
p3599
sg4
(lp3600
(g56
g6
(g18
S'\xfd\xf5\x96>'
p3601
tp3602
Rp3603
tp3604
a(g116
g6
(g18
S'h\xbfa>'
p3605
tp3606
Rp3607
tp3608
a(g552
g6
(g18
S'\xceW!>'
p3609
tp3610
Rp3611
tp3612
a(g32
g6
(g18
S'\x19\x0f\xcf='
p3613
tp3614
Rp3615
tp3616
a(g104
g6
(g18
S'\x82\x13\xbf='
p3617
tp3618
Rp3619
tp3620
asg73
g15
sa(dp3621
g2
S'../../../data/emanuela/activity-recognition/images/NTCIR-Lifelog-256/u2/2015-04-20/b00000657_21i7lf_20150420_163039e.jpg'
p3622
sg4
(lp3623
(g15
g6
(g18
S'f\x1e\x7f?'
p3624
tp3625
Rp3626
tp3627
a(g163
g6
(g18
S'h\x8d\xab:'
p3628
tp3629
Rp3630
tp3631
a(g104
g6
(g18
S'\xb7Hc:'
p3632
tp3633
Rp3634
tp3635
a(g44
g6
(g18
S' \xa8\x839'
p3636
tp3637
Rp3638
tp3639
a(g116
g6
(g18
S'\x11\x12\x839'
p3640
tp3641
Rp3642
tp3643
asg73
g15
sa(dp3644
g2
S'../../../data/emanuela/activity-recognition/images/NTCIR-Lifelog-256/u2/2015-04-30/b00000948_21i7lf_20150430_122730e.jpg'
p3645
sg4
(lp3646
(g15
g6
(g18
S'\x11\xb2R?'
p3647
tp3648
Rp3649
tp3650
a(g32
g6
(g18
S'\xa8\x19\x1f>'
p3651
tp3652
Rp3653
tp3654
a(g92
g6
(g18
S'\x13+\xa6<'
p3655
tp3656
Rp3657
tp3658
a(g104
g6
(g18
S'\xa3\xcd?:'
p3659
tp3660
Rp3661
tp3662
a(g116
g6
(g18
S'\x1d\xef\x169'
p3663
tp3664
Rp3665
tp3666
asg73
g15
sa(dp3667
g2
S'../../../data/emanuela/activity-recognition/images/NTCIR-Lifelog-256/u2/2015-05-01/b00002379_21i7lf_20150501_151607e.jpg'
p3668
sg4
(lp3669
(g32
g6
(g18
S'\x9c\xc6p?'
p3670
tp3671
Rp3672
tp3673
a(g116
g6
(g18
S'[\r\xc7<'
p3674
tp3675
Rp3676
tp3677
a(g56
g6
(g18
S'\x93\xd3~<'
p3678
tp3679
Rp3680
tp3681
a(g15
g6
(g18
S'S\xe0\x8a;'
p3682
tp3683
Rp3684
tp3685
a(g92
g6
(g18
S'"QC;'
p3686
tp3687
Rp3688
tp3689
asg73
g15
sa(dp3690
g2
S'../../../data/emanuela/activity-recognition/images/NTCIR-Lifelog-256/u2/2015-04-27/b00005571_21i7lf_20150427_151948e.jpg'
p3691
sg4
(lp3692
(g32
g6
(g18
S'\x1f\x91\xf5>'
p3693
tp3694
Rp3695
tp3696
a(g15
g6
(g18
S'\x0f\x1f\xc5>'
p3697
tp3698
Rp3699
tp3700
a(g104
g6
(g18
S'{\x13\x91='
p3701
tp3702
Rp3703
tp3704
a(g116
g6
(g18
S'"\xea~<'
p3705
tp3706
Rp3707
tp3708
a(g413
g6
(g18
S'\x9c\x8f\x04<'
p3709
tp3710
Rp3711
tp3712
asg73
g15
sa(dp3713
g2
S'../../../data/emanuela/activity-recognition/images/NTCIR-Lifelog-256/u2/2015-04-20/b00000656_21i7lf_20150420_162959e.jpg'
p3714
sg4
(lp3715
(g15
g6
(g18
S'g\xde~?'
p3716
tp3717
Rp3718
tp3719
a(g163
g6
(g18
S'\x9ba\x02;'
p3720
tp3721
Rp3722
tp3723
a(g151
g6
(g18
S'\x07\x00\xa0:'
p3724
tp3725
Rp3726
tp3727
a(g104
g6
(g18
S'\xb06\xbd9'
p3728
tp3729
Rp3730
tp3731
a(g116
g6
(g18
S'\xff\xd8\xbc9'
p3732
tp3733
Rp3734
tp3735
asg73
g15
sa(dp3736
g2
S'../../../data/emanuela/activity-recognition/images/NTCIR-Lifelog-256/u2/2015-04-20/b00000574_21i7lf_20150420_153855e.jpg'
p3737
sg4
(lp3738
(g163
g6
(g18
S'#\x96!?'
p3739
tp3740
Rp3741
tp3742
a(g116
g6
(g18
S'XPA>'
p3743
tp3744
Rp3745
tp3746
a(g44
g6
(g18
S'\xa5Bg='
p3747
tp3748
Rp3749
tp3750
a(g15
g6
(g18
S'-^M='
p3751
tp3752
Rp3753
tp3754
a(g56
g6
(g18
S'g1\x1d='
p3755
tp3756
Rp3757
tp3758
asg73
g15
sa(dp3759
g2
S'../../../data/emanuela/activity-recognition/images/NTCIR-Lifelog-256/u2/2015-04-27/b00005442_21i7lf_20150427_135904e.jpg'
p3760
sg4
(lp3761
(g15
g6
(g18
S'Rl{?'
p3762
tp3763
Rp3764
tp3765
a(g56
g6
(g18
S'U\x82Y<'
p3766
tp3767
Rp3768
tp3769
a(g68
g6
(g18
S'\xe6\xb9\x90:'
p3770
tp3771
Rp3772
tp3773
a(g32
g6
(g18
S'\x1c\xcd+:'
p3774
tp3775
Rp3776
tp3777
a(g413
g6
(g18
S"%'\x0f:"
p3778
tp3779
Rp3780
tp3781
asg73
g15
sa(dp3782
g2
S'../../../data/emanuela/activity-recognition/images/NTCIR-Lifelog-256/u2/2015-05-07/b00007722_21i7lf_20150507_152141e.jpg'
p3783
sg4
(lp3784
(g15
g6
(g18
S'!57?'
p3785
tp3786
Rp3787
tp3788
a(g92
g6
(g18
S'\x1bi\xa2='
p3789
tp3790
Rp3791
tp3792
a(g32
g6
(g18
S'\x16\x87\x8c='
p3793
tp3794
Rp3795
tp3796
a(g190
g6
(g18
S'.\xe8\xf4<'
p3797
tp3798
Rp3799
tp3800
a(g151
g6
(g18
S'\x9dX\xe3<'
p3801
tp3802
Rp3803
tp3804
asg73
g15
sa(dp3805
g2
S'../../../data/emanuela/activity-recognition/images/NTCIR-Lifelog-256/u2/2015-04-27/b00005569_21i7lf_20150427_151840e.jpg'
p3806
sg4
(lp3807
(g15
g6
(g18
S'\xc0h(?'
p3808
tp3809
Rp3810
tp3811
a(g32
g6
(g18
S'\xa3\xcf\x93>'
p3812
tp3813
Rp3814
tp3815
a(g92
g6
(g18
S'\xf8[\x03='
p3816
tp3817
Rp3818
tp3819
a(g104
g6
(g18
S'\x06"\xc8;'
p3820
tp3821
Rp3822
tp3823
a(g725
g6
(g18
S'\x11\x93\xbf;'
p3824
tp3825
Rp3826
tp3827
asg73
g15
sa(dp3828
g2
S'../../../data/emanuela/activity-recognition/images/NTCIR-Lifelog-256/u2/2015-05-07/b00007704_21i7lf_20150507_151047e.jpg'
p3829
sg4
(lp3830
(g32
g6
(g18
S'(\xbai?'
p3831
tp3832
Rp3833
tp3834
a(g56
g6
(g18
S'C\xb6\x81<'
p3835
tp3836
Rp3837
tp3838
a(g151
g6
(g18
S'-ck<'
p3839
tp3840
Rp3841
tp3842
a(g104
g6
(g18
S'\xa9\xe1><'
p3843
tp3844
Rp3845
tp3846
a(g116
g6
(g18
S'5\xa27<'
p3847
tp3848
Rp3849
tp3850
asg73
g15
sa(dp3851
g2
S'../../../data/emanuela/activity-recognition/images/NTCIR-Lifelog-256/u2/2015-04-20/b00000524_21i7lf_20150420_150753e.jpg'
p3852
sg4
(lp3853
(g15
g6
(g18
S't\xdf\x7f?'
p3854
tp3855
Rp3856
tp3857
a(g116
g6
(g18
S'\xcf\xd1[9'
p3858
tp3859
Rp3860
tp3861
a(g139
g6
(g18
S'\rv\x9e8'
p3862
tp3863
Rp3864
tp3865
a(g163
g6
(g18
S'\xb5"\x908'
p3866
tp3867
Rp3868
tp3869
a(g151
g6
(g18
S'LF@8'
p3870
tp3871
Rp3872
tp3873
asg73
g15
sa(dp3874
g2
S'../../../data/emanuela/activity-recognition/images/NTCIR-Lifelog-256/u2/2015-05-07/b00007709_21i7lf_20150507_151344e.jpg'
p3875
sg4
(lp3876
(g151
g6
(g18
S'\x02\xbci?'
p3877
tp3878
Rp3879
tp3880
a(g32
g6
(g18
S'\x04\xb3!='
p3881
tp3882
Rp3883
tp3884
a(g92
g6
(g18
S'\xdb\xa2]<'
p3885
tp3886
Rp3887
tp3888
a(g15
g6
(g18
S'S=\x11<'
p3889
tp3890
Rp3891
tp3892
a(g104
g6
(g18
S'\xfd\x06\x05<'
p3893
tp3894
Rp3895
tp3896
asg73
g15
sa(dp3897
g2
S'../../../data/emanuela/activity-recognition/images/NTCIR-Lifelog-256/u2/2015-04-27/b00005550_21i7lf_20150427_150659e.jpg'
p3898
sg4
(lp3899
(g32
g6
(g18
S'x|n?'
p3900
tp3901
Rp3902
tp3903
a(g44
g6
(g18
S'=\xdc\xb7<'
p3904
tp3905
Rp3906
tp3907
a(g56
g6
(g18
S'\xd8\xeeW<'
p3908
tp3909
Rp3910
tp3911
a(g15
g6
(g18
S'\xb1\xf9\xe5;'
p3912
tp3913
Rp3914
tp3915
a(g92
g6
(g18
S'\x04U\xd4;'
p3916
tp3917
Rp3918
tp3919
asg73
g15
sa(dp3920
g2
S'../../../data/emanuela/activity-recognition/images/NTCIR-Lifelog-256/u2/2015-05-03/b00003697_21i7lf_20150503_135030e.jpg'
p3921
sg4
(lp3922
(g15
g6
(g18
S'\x07\x9d~?'
p3923
tp3924
Rp3925
tp3926
a(g116
g6
(g18
S'q\x10\x03;'
p3927
tp3928
Rp3929
tp3930
a(g56
g6
(g18
S',\x14L:'
p3931
tp3932
Rp3933
tp3934
a(g44
g6
(g18
S'6\x95\xec9'
p3935
tp3936
Rp3937
tp3938
a(g151
g6
(g18
S'\xc2\xf7\xe69'
p3939
tp3940
Rp3941
tp3942
asg73
g15
sa(dp3943
g2
S'../../../data/emanuela/activity-recognition/images/NTCIR-Lifelog-256/u2/2015-05-01/b00002380_21i7lf_20150501_151645e.jpg'
p3944
sg4
(lp3945
(g15
g6
(g18
S'>\xb9\xce>'
p3946
tp3947
Rp3948
tp3949
a(g32
g6
(g18
S'\xbe\xb0g>'
p3950
tp3951
Rp3952
tp3953
a(g56
g6
(g18
S'\xf7\xbc\x08>'
p3954
tp3955
Rp3956
tp3957
a(g116
g6
(g18
S'\x83RP='
p3958
tp3959
Rp3960
tp3961
a(g190
g6
(g18
S'\xe5\xf48='
p3962
tp3963
Rp3964
tp3965
asg73
g15
sa(dp3966
g2
S'../../../data/emanuela/activity-recognition/images/NTCIR-Lifelog-256/u2/2015-04-20/b00000528_21i7lf_20150420_151025e.jpg'
p3967
sg4
(lp3968
(g15
g6
(g18
S'\xfb\xa6\x7f?'
p3969
tp3970
Rp3971
tp3972
a(g116
g6
(g18
S'\xf2\xb1\x1d:'
p3973
tp3974
Rp3975
tp3976
a(g151
g6
(g18
S'\xd9{L9'
p3977
tp3978
Rp3979
tp3980
a(g104
g6
(g18
S'\xe8\x0b\xea8'
p3981
tp3982
Rp3983
tp3984
a(g139
g6
(g18
S'\xc1l\xe98'
p3985
tp3986
Rp3987
tp3988
asg73
g15
sa(dp3989
g2
S'../../../data/emanuela/activity-recognition/images/NTCIR-Lifelog-256/u2/2015-04-27/b00005570_21i7lf_20150427_151913e.jpg'
p3990
sg4
(lp3991
(g32
g6
(g18
S'\xa3\xf6%?'
p3992
tp3993
Rp3994
tp3995
a(g15
g6
(g18
S'h\x03\xa4>'
p3996
tp3997
Rp3998
tp3999
a(g92
g6
(g18
S'\xbdRj<'
p4000
tp4001
Rp4002
tp4003
a(g104
g6
(g18
S'\xbdQ\x94;'
p4004
tp4005
Rp4006
tp4007
a(g725
g6
(g18
S'\x17\x1b;;'
p4008
tp4009
Rp4010
tp4011
asg73
g15
sa(dp4012
g2
S'../../../data/emanuela/activity-recognition/images/NTCIR-Lifelog-256/u2/2015-04-20/b00000671_21i7lf_20150420_163922e.jpg'
p4013
sg4
(lp4014
(g15
g6
(g18
S'\xfd\xb3l?'
p4015
tp4016
Rp4017
tp4018
a(g32
g6
(g18
S'A\xc9u='
p4019
tp4020
Rp4021
tp4022
a(g116
g6
(g18
S'\xc8\x8e\x16<'
p4023
tp4024
Rp4025
tp4026
a(g92
g6
(g18
S'\xe8\x150;'
p4027
tp4028
Rp4029
tp4030
a(g56
g6
(g18
S'^\xf4\x8f:'
p4031
tp4032
Rp4033
tp4034
asg73
g15
sa(dp4035
g2
S'../../../data/emanuela/activity-recognition/images/NTCIR-Lifelog-256/u2/2015-06-16/b00001598_21i7lf_20150616_100503e.jpg'
p4036
sg4
(lp4037
(g15
g6
(g18
S'[\x11\x7f?'
p4038
tp4039
Rp4040
tp4041
a(g116
g6
(g18
S'\r\xbd\xaf:'
p4042
tp4043
Rp4044
tp4045
a(g44
g6
(g18
S'E\xfdK:'
p4046
tp4047
Rp4048
tp4049
a(g267
g6
(g18
S'\x1365:'
p4050
tp4051
Rp4052
tp4053
a(g32
g6
(g18
S'[{\x06:'
p4054
tp4055
Rp4056
tp4057
asg73
g15
sa(dp4058
g2
S'../../../data/emanuela/activity-recognition/images/NTCIR-Lifelog-256/u2/2015-04-20/b00000644_21i7lf_20150420_162247e.jpg'
p4059
sg4
(lp4060
(g15
g6
(g18
S'\xfd\x87~?'
p4061
tp4062
Rp4063
tp4064
a(g116
g6
(g18
S'\x00\x04\x95:'
p4065
tp4066
Rp4067
tp4068
a(g163
g6
(g18
S'\xa6\x9c~:'
p4069
tp4070
Rp4071
tp4072
a(g44
g6
(g18
S'\xb03Y:'
p4073
tp4074
Rp4075
tp4076
a(g959
g6
(g18
S'#\xe7H:'
p4077
tp4078
Rp4079
tp4080
asg73
g15
sa(dp4081
g2
S'../../../data/emanuela/activity-recognition/images/NTCIR-Lifelog-256/u2/2015-05-07/b00007712_21i7lf_20150507_151535e.jpg'
p4082
sg4
(lp4083
(g15
g6
(g18
S'\xbe\xeeE?'
p4084
tp4085
Rp4086
tp4087
a(g151
g6
(g18
S'\xa8\x12\x19>'
p4088
tp4089
Rp4090
tp4091
a(g32
g6
(g18
S'\x0cfO='
p4092
tp4093
Rp4094
tp4095
a(g139
g6
(g18
S'\x98f8<'
p4096
tp4097
Rp4098
tp4099
a(g92
g6
(g18
S'P\xf0\xe8;'
p4100
tp4101
Rp4102
tp4103
asg73
g15
sa(dp4104
g2
S'../../../data/emanuela/activity-recognition/images/NTCIR-Lifelog-256/u2/2015-04-20/b00000699_21i7lf_20150420_165642e.jpg'
p4105
sg4
(lp4106
(g32
g6
(g18
S'd\xe0<?'
p4107
tp4108
Rp4109
tp4110
a(g15
g6
(g18
S'\xbe\xa8\xf0='
p4111
tp4112
Rp4113
tp4114
a(g92
g6
(g18
S'\x08Y\x90='
p4115
tp4116
Rp4117
tp4118
a(g725
g6
(g18
S'\xb9\x93\x15='
p4119
tp4120
Rp4121
tp4122
a(g104
g6
(g18
S'\x9a}E<'
p4123
tp4124
Rp4125
tp4126
asg73
g15
sa(dp4127
g2
S'../../../data/emanuela/activity-recognition/images/NTCIR-Lifelog-256/u2/2015-04-21/b00000464_21i7lf_20150421_143755e.jpg'
p4128
sg4
(lp4129
(g32
g6
(g18
S'\xe1"\x04?'
p4130
tp4131
Rp4132
tp4133
a(g15
g6
(g18
S'\xdd&L>'
p4134
tp4135
Rp4136
tp4137
a(g104
g6
(g18
S'\xce\xed\xf0='
p4138
tp4139
Rp4140
tp4141
a(g92
g6
(g18
S'O}e='
p4142
tp4143
Rp4144
tp4145
a(g116
g6
(g18
S'OA\x0b='
p4146
tp4147
Rp4148
tp4149
asg73
g15
sa(dp4150
g2
S'../../../data/emanuela/activity-recognition/images/NTCIR-Lifelog-256/u2/2015-05-01/b00002383_21i7lf_20150501_151836e.jpg'
p4151
sg4
(lp4152
(g32
g6
(g18
S'o\x810?'
p4153
tp4154
Rp4155
tp4156
a(g56
g6
(g18
S'\xe9Ig>'
p4157
tp4158
Rp4159
tp4160
a(g44
g6
(g18
S'\x18\x86\xe0<'
p4161
tp4162
Rp4163
tp4164
a(g68
g6
(g18
S'o\xdfe<'
p4165
tp4166
Rp4167
tp4168
a(g15
g6
(g18
S'\xebfL<'
p4169
tp4170
Rp4171
tp4172
asg73
g15
sa(dp4173
g2
S'../../../data/emanuela/activity-recognition/images/NTCIR-Lifelog-256/u2/2015-04-20/b00000638_21i7lf_20150420_161911e.jpg'
p4174
sg4
(lp4175
(g15
g6
(g18
S'\xba\xdf\x7f?'
p4176
tp4177
Rp4178
tp4179
a(g116
g6
(g18
S'\xa1A\xa79'
p4180
tp4181
Rp4182
tp4183
a(g163
g6
(g18
S'\xf9\x94\x048'
p4184
tp4185
Rp4186
tp4187
a(g56
g6
(g18
S'+\x8e\xcb7'
p4188
tp4189
Rp4190
tp4191
a(g139
g6
(g18
S'T\xaa\x957'
p4192
tp4193
Rp4194
tp4195
asg73
g15
sa(dp4196
g2
S'../../../data/emanuela/activity-recognition/images/NTCIR-Lifelog-256/u2/2015-05-07/b00007711_21i7lf_20150507_151500e.jpg'
p4197
sg4
(lp4198
(g32
g6
(g18
S'\x8a\x90\xd9>'
p4199
tp4200
Rp4201
tp4202
a(g15
g6
(g18
S'3a\x9e>'
p4203
tp4204
Rp4205
tp4206
a(g151
g6
(g18
S'\x81\xabR>'
p4207
tp4208
Rp4209
tp4210
a(g92
g6
(g18
S'\x089\xca<'
p4211
tp4212
Rp4213
tp4214
a(g139
g6
(g18
S'n\xccF<'
p4215
tp4216
Rp4217
tp4218
asg73
g15
sa(dp4219
g2
S'../../../data/emanuela/activity-recognition/images/NTCIR-Lifelog-256/u2/2015-04-27/b00005470_21i7lf_20150427_141742e.jpg'
p4220
sg4
(lp4221
(g32
g6
(g18
S'X\x8bs?'
p4222
tp4223
Rp4224
tp4225
a(g15
g6
(g18
S'\xbd\xe7\xc4<'
p4226
tp4227
Rp4228
tp4229
a(g56
g6
(g18
S'\xa7?i<'
p4230
tp4231
Rp4232
tp4233
a(g92
g6
(g18
S'\x1d\xe3\x14;'
p4234
tp4235
Rp4236
tp4237
a(g116
g6
(g18
S')r\xdd:'
p4238
tp4239
Rp4240
tp4241
asg73
g15
sa(dp4242
g2
S'../../../data/emanuela/activity-recognition/images/NTCIR-Lifelog-256/u2/2015-04-20/b00000549_21i7lf_20150420_152252e.jpg'
p4243
sg4
(lp4244
(g15
g6
(g18
S'D)v?'
p4245
tp4246
Rp4247
tp4248
a(g116
g6
(g18
S'H\xb7\xd7<'
p4249
tp4250
Rp4251
tp4252
a(g56
g6
(g18
S'\xb0N%;'
p4253
tp4254
Rp4255
tp4256
a(g32
g6
(g18
S'\xcb\xfb\xd8:'
p4257
tp4258
Rp4259
tp4260
a(g521
g6
(g18
S'\x86\x11\xd2:'
p4261
tp4262
Rp4263
tp4264
asg73
g15
sa(dp4265
g2
S'../../../data/emanuela/activity-recognition/images/NTCIR-Lifelog-256/u2/2015-04-20/b00000517_21i7lf_20150420_150351e.jpg'
p4266
sg4
(lp4267
(g15
g6
(g18
S'\x87\xc2\x7f?'
p4268
tp4269
Rp4270
tp4271
a(g116
g6
(g18
S'\xb3\xe0t9'
p4272
tp4273
Rp4274
tp4275
a(g32
g6
(g18
S'\x17\x8ba9'
p4276
tp4277
Rp4278
tp4279
a(g92
g6
(g18
S'\x85e\n9'
p4280
tp4281
Rp4282
tp4283
a(g56
g6
(g18
S'\x85\xa7\x9d8'
p4284
tp4285
Rp4286
tp4287
asg73
g15
sa(dp4288
g2
S'../../../data/emanuela/activity-recognition/images/NTCIR-Lifelog-256/u2/2015-04-20/b00000530_21i7lf_20150420_151131e.jpg'
p4289
sg4
(lp4290
(g15
g6
(g18
S'r\xfa\x7f?'
p4291
tp4292
Rp4293
tp4294
a(g139
g6
(g18
S'_\xd8\xec7'
p4295
tp4296
Rp4297
tp4298
a(g116
g6
(g18
S'\xfbFo7'
p4299
tp4300
Rp4301
tp4302
a(g92
g6
(g18
S'/~F7'
p4303
tp4304
Rp4305
tp4306
a(g725
g6
(g18
S'\x03\xd0\x1b7'
p4307
tp4308
Rp4309
tp4310
asg73
g15
sa(dp4311
g2
S'../../../data/emanuela/activity-recognition/images/NTCIR-Lifelog-256/u2/2015-04-27/b00005516_21i7lf_20150427_144625e.jpg'
p4312
sg4
(lp4313
(g15
g6
(g18
S'\xb8.p?'
p4314
tp4315
Rp4316
tp4317
a(g32
g6
(g18
S'\x1f\xf1\xf3<'
p4318
tp4319
Rp4320
tp4321
a(g56
g6
(g18
S'D\x1es<'
p4322
tp4323
Rp4324
tp4325
a(g116
g6
(g18
S'\xec1\x13<'
p4326
tp4327
Rp4328
tp4329
a(g68
g6
(g18
S'\xd0\x1b/;'
p4330
tp4331
Rp4332
tp4333
asg73
g15
sa(dp4334
g2
S'../../../data/emanuela/activity-recognition/images/NTCIR-Lifelog-256/u2/2015-05-07/b00007728_21i7lf_20150507_152523e.jpg'
p4335
sg4
(lp4336
(g15
g6
(g18
S'\xc8\xae\x05?'
p4337
tp4338
Rp4339
tp4340
a(g32
g6
(g18
S'Z\x05\x9d>'
p4341
tp4342
Rp4343
tp4344
a(g151
g6
(g18
S'x\x93m='
p4345
tp4346
Rp4347
tp4348
a(g92
g6
(g18
S'\x9e\xa2\x14='
p4349
tp4350
Rp4351
tp4352
a(g2558
g6
(g18
S'\x9b\xee\\<'
p4353
tp4354
Rp4355
tp4356
asg73
g15
sa(dp4357
g2
S'../../../data/emanuela/activity-recognition/images/NTCIR-Lifelog-256/u2/2015-06-16/b00001623_21i7lf_20150616_102015e.jpg'
p4358
sg4
(lp4359
(g15
g6
(g18
S'R8\x7f?'
p4360
tp4361
Rp4362
tp4363
a(g267
g6
(g18
S'\x1718;'
p4364
tp4365
Rp4366
tp4367
a(g116
g6
(g18
S'\x91D\x1f9'
p4368
tp4369
Rp4370
tp4371
a(g32
g6
(g18
S'\xef,\xfd7'
p4372
tp4373
Rp4374
tp4375
a(g521
g6
(g18
S'm\xde\xc77'
p4376
tp4377
Rp4378
tp4379
asg73
g15
sa(dp4380
g2
S'../../../data/emanuela/activity-recognition/images/NTCIR-Lifelog-256/u2/2015-04-20/b00000576_21i7lf_20150420_154013e.jpg'
p4381
sg4
(lp4382
(g15
g6
(g18
S'-\x95\x0f?'
p4383
tp4384
Rp4385
tp4386
a(g116
g6
(g18
S'\x0c\xc0Z>'
p4387
tp4388
Rp4389
tp4390
a(g163
g6
(g18
S'3\x83\x05>'
p4391
tp4392
Rp4393
tp4394
a(g44
g6
(g18
S'A\x8fH='
p4395
tp4396
Rp4397
tp4398
a(g56
g6
(g18
S'\x145\x83<'
p4399
tp4400
Rp4401
tp4402
asg73
g15
sa(dp4403
g2
S'../../../data/emanuela/activity-recognition/images/NTCIR-Lifelog-256/u2/2015-04-27/b00005539_21i7lf_20150427_150026e.jpg'
p4404
sg4
(lp4405
(g32
g6
(g18
S'\xfbvA?'
p4406
tp4407
Rp4408
tp4409
a(g15
g6
(g18
S'\xc5G`>'
p4410
tp4411
Rp4412
tp4413
a(g139
g6
(g18
S'\xc8\xcd\xee;'
p4414
tp4415
Rp4416
tp4417
a(g151
g6
(g18
S'\x802\xa8;'
p4418
tp4419
Rp4420
tp4421
a(g92
g6
(g18
S'\xaa\xf7I;'
p4422
tp4423
Rp4424
tp4425
asg73
g15
sa(dp4426
g2
S'../../../data/emanuela/activity-recognition/images/NTCIR-Lifelog-256/u2/2015-04-20/b00000642_21i7lf_20150420_162138e.jpg'
p4427
sg4
(lp4428
(g15
g6
(g18
S'\xe7~~?'
p4429
tp4430
Rp4431
tp4432
a(g116
g6
(g18
S'\x94h\xe3:'
p4433
tp4434
Rp4435
tp4436
a(g44
g6
(g18
S'\xc1\x86\x88:'
p4437
tp4438
Rp4439
tp4440
a(g139
g6
(g18
S'b\xdf\xe29'
p4441
tp4442
Rp4443
tp4444
a(g56
g6
(g18
S'\x88\x04\xdf9'
p4445
tp4446
Rp4447
tp4448
asg73
g15
sa(dp4449
g2
S'../../../data/emanuela/activity-recognition/images/NTCIR-Lifelog-256/u2/2015-04-27/b00005482_21i7lf_20150427_142546e.jpg'
p4450
sg4
(lp4451
(g32
g6
(g18
S'\xa6\xd13?'
p4452
tp4453
Rp4454
tp4455
a(g15
g6
(g18
S'l\xf4+>'
p4456
tp4457
Rp4458
tp4459
a(g44
g6
(g18
S'\xce\xe3,='
p4460
tp4461
Rp4462
tp4463
a(g56
g6
(g18
S'\x93\x1f\x10='
p4464
tp4465
Rp4466
tp4467
a(g151
g6
(g18
S'\xeb\x985<'
p4468
tp4469
Rp4470
tp4471
asg73
g15
sa(dp4472
g2
S'../../../data/emanuela/activity-recognition/images/NTCIR-Lifelog-256/u2/2015-04-20/b00000681_21i7lf_20150420_164528e.jpg'
p4473
sg4
(lp4474
(g15
g6
(g18
S'.\x86y?'
p4475
tp4476
Rp4477
tp4478
a(g163
g6
(g18
S'\xea\xddV<'
p4479
tp4480
Rp4481
tp4482
a(g151
g6
(g18
S'V\x0f\x95;'
p4483
tp4484
Rp4485
tp4486
a(g44
g6
(g18
S'\xe6\x8az;'
p4487
tp4488
Rp4489
tp4490
a(g104
g6
(g18
S'\xe9\xfe\x8f:'
p4491
tp4492
Rp4493
tp4494
asg73
g15
sa(dp4495
g2
S'../../../data/emanuela/activity-recognition/images/NTCIR-Lifelog-256/u2/2015-04-27/b00005477_21i7lf_20150427_142245e.jpg'
p4496
sg4
(lp4497
(g32
g6
(g18
S'#\xd76?'
p4498
tp4499
Rp4500
tp4501
a(g15
g6
(g18
S'1\x9c{>'
p4502
tp4503
Rp4504
tp4505
a(g92
g6
(g18
S'\xf0\xf9\xfd;'
p4506
tp4507
Rp4508
tp4509
a(g116
g6
(g18
S'\xddx\xef;'
p4510
tp4511
Rp4512
tp4513
a(g139
g6
(g18
S'\x9f,\xa6;'
p4514
tp4515
Rp4516
tp4517
asg73
g15
sa(dp4518
g2
S'../../../data/emanuela/activity-recognition/images/NTCIR-Lifelog-256/u2/2015-04-20/b00000562_21i7lf_20150420_153119e.jpg'
p4519
sg4
(lp4520
(g15
g6
(g18
S'\xcdO|?'
p4521
tp4522
Rp4523
tp4524
a(g116
g6
(g18
S'\x11X\xf2;'
p4525
tp4526
Rp4527
tp4528
a(g163
g6
(g18
S'\xa2a=;'
p4529
tp4530
Rp4531
tp4532
a(g44
g6
(g18
S'\xf8\xe4X:'
p4533
tp4534
Rp4535
tp4536
a(g56
g6
(g18
S'\xf6\xa2):'
p4537
tp4538
Rp4539
tp4540
asg73
g15
sa(dp4541
g2
S'../../../data/emanuela/activity-recognition/images/NTCIR-Lifelog-256/u2/2015-04-27/b00005441_21i7lf_20150427_135821e.jpg'
p4542
sg4
(lp4543
(g32
g6
(g18
S'\xeb\x0eM?'
p4544
tp4545
Rp4546
tp4547
a(g56
g6
(g18
S'\x98\x9e\x18>'
p4548
tp4549
Rp4550
tp4551
a(g15
g6
(g18
S'\xc4\xdc\x8c<'
p4552
tp4553
Rp4554
tp4555
a(g116
g6
(g18
S'X\xc6*<'
p4556
tp4557
Rp4558
tp4559
a(g44
g6
(g18
S'\x9d\x03\xa3;'
p4560
tp4561
Rp4562
tp4563
asg73
g15
sa(dp4564
g2
S'../../../data/emanuela/activity-recognition/images/NTCIR-Lifelog-256/u2/2015-04-20/b00000639_21i7lf_20150420_161952e.jpg'
p4565
sg4
(lp4566
(g15
g6
(g18
S'PU|?'
p4567
tp4568
Rp4569
tp4570
a(g139
g6
(g18
S'\x95\xb8\xc3;'
p4571
tp4572
Rp4573
tp4574
a(g190
g6
(g18
S'\xed\x89\xea:'
p4575
tp4576
Rp4577
tp4578
a(g56
g6
(g18
S'\x88\xaa\xcc:'
p4579
tp4580
Rp4581
tp4582
a(g413
g6
(g18
S'\xb0\x97\xac:'
p4583
tp4584
Rp4585
tp4586
asg73
g15
sa(dp4587
g2
S'../../../data/emanuela/activity-recognition/images/NTCIR-Lifelog-256/u2/2015-04-27/b00005568_21i7lf_20150427_151803e.jpg'
p4588
sg4
(lp4589
(g32
g6
(g18
S'\xe1\xa71?'
p4590
tp4591
Rp4592
tp4593
a(g15
g6
(g18
S'\xb4\x98c>'
p4594
tp4595
Rp4596
tp4597
a(g116
g6
(g18
S'8\xe58='
p4598
tp4599
Rp4600
tp4601
a(g92
g6
(g18
S'\xb7\xfc\xb1<'
p4602
tp4603
Rp4604
tp4605
a(g104
g6
(g18
S'\xffq\x95;'
p4606
tp4607
Rp4608
tp4609
asg73
g15
sa(dp4610
g2
S'../../../data/emanuela/activity-recognition/images/NTCIR-Lifelog-256/u2/2015-04-27/b00005446_21i7lf_20150427_140132e.jpg'
p4611
sg4
(lp4612
(g15
g6
(g18
S'\xb1\x85\x05?'
p4613
tp4614
Rp4615
tp4616
a(g32
g6
(g18
S'\xb5\xd7\xd2>'
p4617
tp4618
Rp4619
tp4620
a(g116
g6
(g18
S'\xe9\x0c\xb4<'
p4621
tp4622
Rp4623
tp4624
a(g92
g6
(g18
S'r\xc08<'
p4625
tp4626
Rp4627
tp4628
a(g56
g6
(g18
S'\xd4F\xd6;'
p4629
tp4630
Rp4631
tp4632
asg73
g15
sa(dp4633
g2
S'../../../data/emanuela/activity-recognition/images/NTCIR-Lifelog-256/u2/2015-04-27/b00005508_21i7lf_20150427_144134e.jpg'
p4634
sg4
(lp4635
(g32
g6
(g18
S'\xa4\x04\x8f>'
p4636
tp4637
Rp4638
tp4639
a(g552
g6
(g18
S'\x1c\xd9q>'
p4640
tp4641
Rp4642
tp4643
a(g56
g6
(g18
S'qp_>'
p4644
tp4645
Rp4646
tp4647
a(g190
g6
(g18
S'\xef\x8b\xe1='
p4648
tp4649
Rp4650
tp4651
a(g413
g6
(g18
S'\x82~J='
p4652
tp4653
Rp4654
tp4655
asg73
g15
sa(dp4656
g2
S'../../../data/emanuela/activity-recognition/images/NTCIR-Lifelog-256/u2/2015-04-20/b00000641_21i7lf_20150420_162102e.jpg'
p4657
sg4
(lp4658
(g15
g6
(g18
S'\xfb\xdc\x7f?'
p4659
tp4660
Rp4661
tp4662
a(g116
g6
(g18
S'\xc1\xce\xc09'
p4663
tp4664
Rp4665
tp4666
a(g32
g6
(g18
S'3\x04!8'
p4667
tp4668
Rp4669
tp4670
a(g725
g6
(g18
S'>\x7f\xe57'
p4671
tp4672
Rp4673
tp4674
a(g139
g6
(g18
S'\xb7]\xcc7'
p4675
tp4676
Rp4677
tp4678
asg73
g15
sa(dp4679
g2
S'../../../data/emanuela/activity-recognition/images/NTCIR-Lifelog-256/u2/2015-04-27/b00005558_21i7lf_20150427_151145e.jpg'
p4680
sg4
(lp4681
(g32
g6
(g18
S'\x8c\xaa~?'
p4682
tp4683
Rp4684
tp4685
a(g92
g6
(g18
S'v\xed\r;'
p4686
tp4687
Rp4688
tp4689
a(g15
g6
(g18
S'\xec\x94\x03;'
p4690
tp4691
Rp4692
tp4693
a(g116
g6
(g18
S'{\xdb\x18:'
p4694
tp4695
Rp4696
tp4697
a(g56
g6
(g18
S'p-89'
p4698
tp4699
Rp4700
tp4701
asg73
g15
sa(dp4702
g2
S'../../../data/emanuela/activity-recognition/images/NTCIR-Lifelog-256/u2/2015-05-07/b00007713_21i7lf_20150507_151614e.jpg'
p4703
sg4
(lp4704
(g15
g6
(g18
S'\xdf9\x19?'
p4705
tp4706
Rp4707
tp4708
a(g32
g6
(g18
S'{Rc>'
p4709
tp4710
Rp4711
tp4712
a(g151
g6
(g18
S'l\x83\x15>'
p4713
tp4714
Rp4715
tp4716
a(g92
g6
(g18
S'L\xc8~<'
p4717
tp4718
Rp4719
tp4720
a(g44
g6
(g18
S'{\xd4f;'
p4721
tp4722
Rp4723
tp4724
asg73
g15
sa(dp4725
g2
S'../../../data/emanuela/activity-recognition/images/NTCIR-Lifelog-256/u2/2015-05-01/b00002382_21i7lf_20150501_151755e.jpg'
p4726
sg4
(lp4727
(g413
g6
(g18
S'\xb1\xa2\x9f>'
p4728
tp4729
Rp4730
tp4731
a(g32
g6
(g18
S'\xda\xcd[>'
p4732
tp4733
Rp4734
tp4735
a(g190
g6
(g18
S'K\xb0\x1f>'
p4736
tp4737
Rp4738
tp4739
a(g56
g6
(g18
S'\xee\xbd\xed='
p4740
tp4741
Rp4742
tp4743
a(g116
g6
(g18
S'e\xa8\x9a='
p4744
tp4745
Rp4746
tp4747
asg73
g15
sa(dp4748
g2
S'../../../data/emanuela/activity-recognition/images/NTCIR-Lifelog-256/u2/2015-06-16/b00001615_21i7lf_20150616_101525e.jpg'
p4749
sg4
(lp4750
(g15
g6
(g18
S'A\x1a\x7f?'
p4751
tp4752
Rp4753
tp4754
a(g267
g6
(g18
S'4\xec?;'
p4755
tp4756
Rp4757
tp4758
a(g116
g6
(g18
S'|\x84e9'
p4759
tp4760
Rp4761
tp4762
a(g32
g6
(g18
S'\x1d\xb0\x049'
p4763
tp4764
Rp4765
tp4766
a(g959
g6
(g18
S'\xf0\x12\x9a8'
p4767
tp4768
Rp4769
tp4770
asg73
g15
sa(dp4771
g2
S'../../../data/emanuela/activity-recognition/images/NTCIR-Lifelog-256/u2/2015-04-27/b00005537_21i7lf_20150427_145910e.jpg'
p4772
sg4
(lp4773
(g32
g6
(g18
S'\xb3r|?'
p4774
tp4775
Rp4776
tp4777
a(g92
g6
(g18
S'\xaf%G;'
p4778
tp4779
Rp4780
tp4781
a(g116
g6
(g18
S'M\xad2;'
p4782
tp4783
Rp4784
tp4785
a(g56
g6
(g18
S'\xe1o1;'
p4786
tp4787
Rp4788
tp4789
a(g15
g6
(g18
S'2\xf4\xa4:'
p4790
tp4791
Rp4792
tp4793
asg73
g15
sa(dp4794
g2
S'../../../data/emanuela/activity-recognition/images/NTCIR-Lifelog-256/u2/2015-04-20/b00000538_21i7lf_20150420_151625e.jpg'
p4795
sg4
(lp4796
(g15
g6
(g18
S'\xbd\x89{?'
p4797
tp4798
Rp4799
tp4800
a(g139
g6
(g18
S'\x01\\\x15<'
p4801
tp4802
Rp4803
tp4804
a(g413
g6
(g18
S'\xdc}\xef:'
p4805
tp4806
Rp4807
tp4808
a(g151
g6
(g18
S'cj\xd2:'
p4809
tp4810
Rp4811
tp4812
a(g448
g6
(g18
S'\xf7\xeb\x85:'
p4813
tp4814
Rp4815
tp4816
asg73
g15
sa(dp4817
g2
S'../../../data/emanuela/activity-recognition/images/NTCIR-Lifelog-256/u2/2015-05-07/b00007729_21i7lf_20150507_152600e.jpg'
p4818
sg4
(lp4819
(g32
g6
(g18
S'\x17^g?'
p4820
tp4821
Rp4822
tp4823
a(g116
g6
(g18
S'\x1ec\x9a='
p4824
tp4825
Rp4826
tp4827
a(g104
g6
(g18
S'h\xde\x95;'
p4828
tp4829
Rp4830
tp4831
a(g56
g6
(g18
S'\xe0\xd8g;'
p4832
tp4833
Rp4834
tp4835
a(g190
g6
(g18
S'e\x1dI;'
p4836
tp4837
Rp4838
tp4839
asg73
g15
sa(dp4840
g2
S'../../../data/emanuela/activity-recognition/images/NTCIR-Lifelog-256/u2/2015-06-16/b00001626_21i7lf_20150616_102204e.jpg'
p4841
sg4
(lp4842
(g15
g6
(g18
S'\xa6\x91\x7f?'
p4843
tp4844
Rp4845
tp4846
a(g267
g6
(g18
S'\x0b\xcf\xcc:'
p4847
tp4848
Rp4849
tp4850
a(g116
g6
(g18
S'\xcc\x1d\xe57'
p4851
tp4852
Rp4853
tp4854
a(g521
g6
(g18
S'\x93\xc1\xde7'
p4855
tp4856
Rp4857
tp4858
a(g959
g6
(g18
S'\x13\x13\xac7'
p4859
tp4860
Rp4861
tp4862
asg73
g15
sa(dp4863
g2
S'../../../data/emanuela/activity-recognition/images/NTCIR-Lifelog-256/u2/2015-04-20/b00000565_21i7lf_20150420_153312e.jpg'
p4864
sg4
(lp4865
(g15
g6
(g18
S' Kt?'
p4866
tp4867
Rp4868
tp4869
a(g448
g6
(g18
S'\xd9m\x8c<'
p4870
tp4871
Rp4872
tp4873
a(g56
g6
(g18
S'\x8e\x9c\xe0;'
p4874
tp4875
Rp4876
tp4877
a(g116
g6
(g18
S'\xfc\xda\xcb;'
p4878
tp4879
Rp4880
tp4881
a(g104
g6
(g18
S'\x7f\xbdD;'
p4882
tp4883
Rp4884
tp4885
asg73
g15
sa(dp4886
g2
S'../../../data/emanuela/activity-recognition/images/NTCIR-Lifelog-256/u2/2015-04-27/b00005475_21i7lf_20150427_142126e.jpg'
p4887
sg4
(lp4888
(g32
g6
(g18
S'Bg}?'
p4889
tp4890
Rp4891
tp4892
a(g92
g6
(g18
S'\x9b\x96\xb1;'
p4893
tp4894
Rp4895
tp4896
a(g104
g6
(g18
S'ID\x0b;'
p4897
tp4898
Rp4899
tp4900
a(g725
g6
(g18
S'\xf9dP:'
p4901
tp4902
Rp4903
tp4904
a(g15
g6
(g18
S'\x94\x1c\xf99'
p4905
tp4906
Rp4907
tp4908
asg73
g15
sa(dp4909
g2
S'../../../data/emanuela/activity-recognition/images/NTCIR-Lifelog-256/u2/2015-04-20/b00000569_21i7lf_20150420_153552e.jpg'
p4910
sg4
(lp4911
(g56
g6
(g18
S"L\x8b'?"
p4912
tp4913
Rp4914
tp4915
a(g116
g6
(g18
S'\x92\x1f\xb5='
p4916
tp4917
Rp4918
tp4919
a(g68
g6
(g18
S'\xcc\x07\x80='
p4920
tp4921
Rp4922
tp4923
a(g44
g6
(g18
S'\x1d\\\x1e='
p4924
tp4925
Rp4926
tp4927
a(g190
g6
(g18
S'\xa5j\xa7<'
p4928
tp4929
Rp4930
tp4931
asg73
g15
sa(dp4932
g2
S'../../../data/emanuela/activity-recognition/images/NTCIR-Lifelog-256/u2/2015-04-20/b00000583_21i7lf_20150420_154431e.jpg'
p4933
sg4
(lp4934
(g15
g6
(g18
S'\xb5\xcfm?'
p4935
tp4936
Rp4937
tp4938
a(g116
g6
(g18
S'\x9e6-='
p4939
tp4940
Rp4941
tp4942
a(g163
g6
(g18
S'`J\x85<'
p4943
tp4944
Rp4945
tp4946
a(g44
g6
(g18
S'+\x8d#;'
p4947
tp4948
Rp4949
tp4950
a(g151
g6
(g18
S'\xbcr\x0e;'
p4951
tp4952
Rp4953
tp4954
asg73
g15
sa(dp4955
g2
S'../../../data/emanuela/activity-recognition/images/NTCIR-Lifelog-256/u2/2015-04-27/b00005538_21i7lf_20150427_145945e.jpg'
p4956
sg4
(lp4957
(g15
g6
(g18
S'\xa6\x90+?'
p4958
tp4959
Rp4960
tp4961
a(g32
g6
(g18
S'\\V\x8d>'
p4962
tp4963
Rp4964
tp4965
a(g92
g6
(g18
S'\x19\xf9\xc3<'
p4966
tp4967
Rp4968
tp4969
a(g190
g6
(g18
S'\xf2\xce\x06<'
p4970
tp4971
Rp4972
tp4973
a(g413
g6
(g18
S'\xf7\x1c\xa5;'
p4974
tp4975
Rp4976
tp4977
asg73
g15
sa(dp4978
g2
S'../../../data/emanuela/activity-recognition/images/NTCIR-Lifelog-256/u2/2015-04-20/b00000575_21i7lf_20150420_153936e.jpg'
p4979
sg4
(lp4980
(g163
g6
(g18
S'n-$?'
p4981
tp4982
Rp4983
tp4984
a(g15
g6
(g18
S'\xb5,\xee='
p4985
tp4986
Rp4987
tp4988
a(g116
g6
(g18
S'\x9bz\xb1='
p4989
tp4990
Rp4991
tp4992
a(g44
g6
(g18
S']\xcf\x81='
p4993
tp4994
Rp4995
tp4996
a(g56
g6
(g18
S'"=[='
p4997
tp4998
Rp4999
tp5000
asg73
g15
sa(dp5001
g2
S'../../../data/emanuela/activity-recognition/images/NTCIR-Lifelog-256/u2/2015-04-27/b00005543_21i7lf_20150427_150244e.jpg'
p5002
sg4
(lp5003
(g32
g6
(g18
S'\xac\xe8>?'
p5004
tp5005
Rp5006
tp5007
a(g15
g6
(g18
S'\xdc\xc9c>'
p5008
tp5009
Rp5010
tp5011
a(g116
g6
(g18
S'\r<8<'
p5012
tp5013
Rp5014
tp5015
a(g92
g6
(g18
S'\x04\xcd\xc6;'
p5016
tp5017
Rp5018
tp5019
a(g139
g6
(g18
S'u\x87\x81;'
p5020
tp5021
Rp5022
tp5023
asg73
g15
sa(dp5024
g2
S'../../../data/emanuela/activity-recognition/images/NTCIR-Lifelog-256/u2/2015-04-27/b00005468_21i7lf_20150427_141627e.jpg'
p5025
sg4
(lp5026
(g15
g6
(g18
S'r\xb5\x1e?'
p5027
tp5028
Rp5029
tp5030
a(g32
g6
(g18
S'\xea\x1c\xb9>'
p5031
tp5032
Rp5033
tp5034
a(g92
g6
(g18
S'\x06\xa8\xdd;'
p5035
tp5036
Rp5037
tp5038
a(g44
g6
(g18
S':*A;'
p5039
tp5040
Rp5041
tp5042
a(g56
g6
(g18
S')\x1c!;'
p5043
tp5044
Rp5045
tp5046
asg73
g15
sa(dp5047
g2
S'../../../data/emanuela/activity-recognition/images/NTCIR-Lifelog-256/u2/2015-04-20/b00000533_21i7lf_20150420_151319e.jpg'
p5048
sg4
(lp5049
(g15
g6
(g18
S'\xc3\x94\x7f?'
p5050
tp5051
Rp5052
tp5053
a(g139
g6
(g18
S'S)\x06:'
p5054
tp5055
Rp5056
tp5057
a(g151
g6
(g18
S'\xe6\xf6{9'
p5058
tp5059
Rp5060
tp5061
a(g116
g6
(g18
S'\x9d\x1f\x089'
p5062
tp5063
Rp5064
tp5065
a(g92
g6
(g18
S'\x87w\xe98'
p5066
tp5067
Rp5068
tp5069
asg73
g15
sa(dp5070
g2
S'../../../data/emanuela/activity-recognition/images/NTCIR-Lifelog-256/u2/2015-04-20/b00000522_21i7lf_20150420_150639e.jpg'
p5071
sg4
(lp5072
(g15
g6
(g18
S'u\xef\x7f?'
p5073
tp5074
Rp5075
tp5076
a(g116
g6
(g18
S'\xc3,\xa08'
p5077
tp5078
Rp5079
tp5080
a(g139
g6
(g18
S'D\x16\x878'
p5081
tp5082
Rp5083
tp5084
a(g151
g6
(g18
S'\x95\xf1(8'
p5085
tp5086
Rp5087
tp5088
a(g92
g6
(g18
S'\x82\nr7'
p5089
tp5090
Rp5091
tp5092
asg73
g15
sa(dp5093
g2
S'../../../data/emanuela/activity-recognition/images/NTCIR-Lifelog-256/u2/2015-04-27/b00005517_21i7lf_20150427_144659e.jpg'
p5094
sg4
(lp5095
(g32
g6
(g18
S'}7+?'
p5096
tp5097
Rp5098
tp5099
a(g15
g6
(g18
S'\x04$A>'
p5100
tp5101
Rp5102
tp5103
a(g116
g6
(g18
S'\xb7Q\xd9='
p5104
tp5105
Rp5106
tp5107
a(g56
g6
(g18
S'\xccP\x13<'
p5108
tp5109
Rp5110
tp5111
a(g92
g6
(g18
S'7\x0b\xc9;'
p5112
tp5113
Rp5114
tp5115
asg73
g15
sa(dp5116
g2
S'../../../data/emanuela/activity-recognition/images/NTCIR-Lifelog-256/u2/2015-05-07/b00007719_21i7lf_20150507_151954e.jpg'
p5117
sg4
(lp5118
(g15
g6
(g18
S'\x90\x03\x1b?'
p5119
tp5120
Rp5121
tp5122
a(g32
g6
(g18
S'V\x81\xbb>'
p5123
tp5124
Rp5125
tp5126
a(g151
g6
(g18
S'\xc5E\x19<'
p5127
tp5128
Rp5129
tp5130
a(g116
g6
(g18
S'\xee\xa3\x02<'
p5131
tp5132
Rp5133
tp5134
a(g92
g6
(g18
S'\xd6[\xa9;'
p5135
tp5136
Rp5137
tp5138
asg73
g15
sa(dp5139
g2
S'../../../data/emanuela/activity-recognition/images/NTCIR-Lifelog-256/u2/2015-04-20/b00000547_21i7lf_20150420_152142e.jpg'
p5140
sg4
(lp5141
(g15
g6
(g18
S'\x1d\xffl?'
p5142
tp5143
Rp5144
tp5145
a(g56
g6
(g18
S'\xe2\xf0\x88<'
p5146
tp5147
Rp5148
tp5149
a(g448
g6
(g18
S'\xbd\xb8_<'
p5150
tp5151
Rp5152
tp5153
a(g163
g6
(g18
S'W\xcc\x15<'
p5154
tp5155
Rp5156
tp5157
a(g139
g6
(g18
S'CJ\x11<'
p5158
tp5159
Rp5160
tp5161
asg73
g15
sa(dp5162
g2
S'../../../data/emanuela/activity-recognition/images/NTCIR-Lifelog-256/u2/2015-04-27/b00005476_21i7lf_20150427_142208e.jpg'
p5163
sg4
(lp5164
(g32
g6
(g18
S'\x1d\x86k?'
p5165
tp5166
Rp5167
tp5168
a(g15
g6
(g18
S'\xd2"\x96='
p5169
tp5170
Rp5171
tp5172
a(g139
g6
(g18
S'\xefC\x06;'
p5173
tp5174
Rp5175
tp5176
a(g92
g6
(g18
S'$\x94\x00;'
p5177
tp5178
Rp5179
tp5180
a(g104
g6
(g18
S'Z\xb9\x06:'
p5181
tp5182
Rp5183
tp5184
asg73
g15
sa(dp5185
g2
S'../../../data/emanuela/activity-recognition/images/NTCIR-Lifelog-256/u2/2015-06-16/b00001611_21i7lf_20150616_101311e.jpg'
p5186
sg4
(lp5187
(g15
g6
(g18
S'\xfb\xac~?'
p5188
tp5189
Rp5190
tp5191
a(g267
g6
(g18
S'\x84v\x91;'
p5192
tp5193
Rp5194
tp5195
a(g959
g6
(g18
S'\xea\xfd\x819'
p5196
tp5197
Rp5198
tp5199
a(g44
g6
(g18
S'\x8c6\xfe8'
p5200
tp5201
Rp5202
tp5203
a(g116
g6
(g18
S'\xfc\x94\xde8'
p5204
tp5205
Rp5206
tp5207
asg73
g15
sa(dp5208
g2
S'../../../data/emanuela/activity-recognition/images/NTCIR-Lifelog-256/u2/2015-04-20/b00000674_21i7lf_20150420_164117e.jpg'
p5209
sg4
(lp5210
(g15
g6
(g18
S'\x93\xc5z?'
p5211
tp5212
Rp5213
tp5214
a(g32
g6
(g18
S'G\xda\xab;'
p5215
tp5216
Rp5217
tp5218
a(g116
g6
(g18
S'Z.\x8d;'
p5219
tp5220
Rp5221
tp5222
a(g56
g6
(g18
S'\x81x\x88;'
p5223
tp5224
Rp5225
tp5226
a(g104
g6
(g18
S'T$\xb8:'
p5227
tp5228
Rp5229
tp5230
asg73
g15
sa(dp5231
g2
S'../../../data/emanuela/activity-recognition/images/NTCIR-Lifelog-256/u2/2015-04-20/b00000636_21i7lf_20150420_161755e.jpg'
p5232
sg4
(lp5233
(g15
g6
(g18
S'&\xab\x7f?'
p5234
tp5235
Rp5236
tp5237
a(g151
g6
(g18
S'wl\xd39'
p5238
tp5239
Rp5240
tp5241
a(g163
g6
(g18
S'@\xca\x829'
p5242
tp5243
Rp5244
tp5245
a(g139
g6
(g18
S'\xc9\xa409'
p5246
tp5247
Rp5248
tp5249
a(g92
g6
(g18
S'\xc24\xfb8'
p5250
tp5251
Rp5252
tp5253
asg73
g15
sa(dp5254
g2
S'../../../data/emanuela/activity-recognition/images/NTCIR-Lifelog-256/u2/2015-04-27/b00005532_21i7lf_20150427_145611e.jpg'
p5255
sg4
(lp5256
(g32
g6
(g18
S'\xe9\x8e\\?'
p5257
tp5258
Rp5259
tp5260
a(g15
g6
(g18
S"'\xe2\xf2="
p5261
tp5262
Rp5263
tp5264
a(g92
g6
(g18
S'\xb0D\x9f;'
p5265
tp5266
Rp5267
tp5268
a(g116
g6
(g18
S'\xeaXm;'
p5269
tp5270
Rp5271
tp5272
a(g104
g6
(g18
S'\xf3n\xd8:'
p5273
tp5274
Rp5275
tp5276
asg73
g15
sa(dp5277
g2
S'../../../data/emanuela/activity-recognition/images/NTCIR-Lifelog-256/u2/2015-04-27/b00005457_21i7lf_20150427_140914e.jpg'
p5278
sg4
(lp5279
(g56
g6
(g18
S'\x13C\xf9>'
p5280
tp5281
Rp5282
tp5283
a(g116
g6
(g18
S"\x1a'+>"
p5284
tp5285
Rp5286
tp5287
a(g32
g6
(g18
S'W9\x17>'
p5288
tp5289
Rp5290
tp5291
a(g15
g6
(g18
S'n\xc4\xb9='
p5292
tp5293
Rp5294
tp5295
a(g68
g6
(g18
S'\xf4\xe5\xce<'
p5296
tp5297
Rp5298
tp5299
asg73
g15
sa(dp5300
g2
S'../../../data/emanuela/activity-recognition/images/NTCIR-Lifelog-256/u2/2015-04-27/b00005563_21i7lf_20150427_151456e.jpg'
p5301
sg4
(lp5302
(g15
g6
(g18
S'^\xe24?'
p5303
tp5304
Rp5305
tp5306
a(g32
g6
(g18
S'N\x04`>'
p5307
tp5308
Rp5309
tp5310
a(g92
g6
(g18
S"\x07'\x07="
p5311
tp5312
Rp5313
tp5314
a(g104
g6
(g18
S'\x80xH<'
p5315
tp5316
Rp5317
tp5318
a(g2558
g6
(g18
S'v\\\xe5;'
p5319
tp5320
Rp5321
tp5322
asg73
g15
sa(dp5323
g2
S'../../../data/emanuela/activity-recognition/images/NTCIR-Lifelog-256/u2/2015-04-20/b00000680_21i7lf_20150420_164456e.jpg'
p5324
sg4
(lp5325
(g15
g6
(g18
S'\x9eJ[?'
p5326
tp5327
Rp5328
tp5329
a(g44
g6
(g18
S'\x13\xbbd='
p5330
tp5331
Rp5332
tp5333
a(g151
g6
(g18
S'\xee\xf2\xb2<'
p5334
tp5335
Rp5336
tp5337
a(g104
g6
(g18
S'\xa9\xeb\x9a<'
p5338
tp5339
Rp5340
tp5341
a(g413
g6
(g18
S'-\xa9r<'
p5342
tp5343
Rp5344
tp5345
asg73
g15
sa(dp5346
g2
S'../../../data/emanuela/activity-recognition/images/NTCIR-Lifelog-256/u2/2015-04-27/b00005527_21i7lf_20150427_145324e.jpg'
p5347
sg4
(lp5348
(g32
g6
(g18
S'bMz?'
p5349
tp5350
Rp5351
tp5352
a(g15
g6
(g18
S'\x9c~c<'
p5353
tp5354
Rp5355
tp5356
a(g92
g6
(g18
S'\xbf;\xa2;'
p5357
tp5358
Rp5359
tp5360
a(g104
g6
(g18
S'\xcb\xe6\xf0:'
p5361
tp5362
Rp5363
tp5364
a(g725
g6
(g18
S'\xcfJN:'
p5365
tp5366
Rp5367
tp5368
asg73
g15
sa(dp5369
g2
S'../../../data/emanuela/activity-recognition/images/NTCIR-Lifelog-256/u2/2015-04-27/b00005561_21i7lf_20150427_151343e (1).jpg'
p5370
sg4
(lp5371
(g32
g6
(g18
S'\xad \r?'
p5372
tp5373
Rp5374
tp5375
a(g15
g6
(g18
S'\xee\x02\xe6='
p5376
tp5377
Rp5378
tp5379
a(g44
g6
(g18
S'G/\x8e='
p5380
tp5381
Rp5382
tp5383
a(g56
g6
(g18
S'^\xd2V='
p5384
tp5385
Rp5386
tp5387
a(g104
g6
(g18
S'\xb1B/='
p5388
tp5389
Rp5390
tp5391
asg73
g15
sa(dp5392
g2
S'../../../data/emanuela/activity-recognition/images/NTCIR-Lifelog-256/u2/2015-04-20/b00000695_21i7lf_20150420_165412e.jpg'
p5393
sg4
(lp5394
(g15
g6
(g18
S'S\xa1o?'
p5395
tp5396
Rp5397
tp5398
a(g32
g6
(g18
S'3j\x1a='
p5399
tp5400
Rp5401
tp5402
a(g116
g6
(g18
S'Rq\x85<'
p5403
tp5404
Rp5405
tp5406
a(g104
g6
(g18
S'\xbfL\n;'
p5407
tp5408
Rp5409
tp5410
a(g56
g6
(g18
S'~\x1d\xf2:'
p5411
tp5412
Rp5413
tp5414
asg73
g15
sa(dp5415
g2
S'../../../data/emanuela/activity-recognition/images/NTCIR-Lifelog-256/u2/2015-06-16/b00001599_21i7lf_20150616_100539e.jpg'
p5416
sg4
(lp5417
(g15
g6
(g18
S'\xf8i~?'
p5418
tp5419
Rp5420
tp5421
a(g267
g6
(g18
S'\xbc(,;'
p5422
tp5423
Rp5424
tp5425
a(g116
g6
(g18
S'e\xed\x0c;'
p5426
tp5427
Rp5428
tp5429
a(g32
g6
(g18
S'\xecZ":'
p5430
tp5431
Rp5432
tp5433
a(g44
g6
(g18
S'\xb5\xf5\xae9'
p5434
tp5435
Rp5436
tp5437
asg73
g15
sa(dp5438
g2
S'../../../data/emanuela/activity-recognition/images/NTCIR-Lifelog-256/u2/2015-04-20/b00000560_21i7lf_20150420_153007e.jpg'
p5439
sg4
(lp5440
(g15
g6
(g18
S'\x92\x9c~?'
p5441
tp5442
Rp5443
tp5444
a(g413
g6
(g18
S'\xfc\xe9o:'
p5445
tp5446
Rp5447
tp5448
a(g521
g6
(g18
S'm\xfc3:'
p5449
tp5450
Rp5451
tp5452
a(g56
g6
(g18
S'W\xc3\x1e:'
p5453
tp5454
Rp5455
tp5456
a(g448
g6
(g18
S'\xe9\x96\x14:'
p5457
tp5458
Rp5459
tp5460
asg73
g15
sa(dp5461
g2
S'../../../data/emanuela/activity-recognition/images/NTCIR-Lifelog-256/u2/2015-04-20/b00000658_21i7lf_20150420_163115e.jpg'
p5462
sg4
(lp5463
(g15
g6
(g18
S'\x86\xf2|?'
p5464
tp5465
Rp5466
tp5467
a(g56
g6
(g18
S'[t-;'
p5468
tp5469
Rp5470
tp5471
a(g448
g6
(g18
S'\xc2\xff\x1a;'
p5472
tp5473
Rp5474
tp5475
a(g151
g6
(g18
S'S\x9f\xf5:'
p5476
tp5477
Rp5478
tp5479
a(g139
g6
(g18
S',\xf7\xd2:'
p5480
tp5481
Rp5482
tp5483
asg73
g15
sa(dp5484
g2
S'../../../data/emanuela/activity-recognition/images/NTCIR-Lifelog-256/u2/2015-06-16/b00001608_21i7lf_20150616_101120e.jpg'
p5485
sg4
(lp5486
(g15
g6
(g18
S'\xea\xf5v?'
p5487
tp5488
Rp5489
tp5490
a(g267
g6
(g18
S'a\xa3\xa1<'
p5491
tp5492
Rp5493
tp5494
a(g959
g6
(g18
S'\xa3\xf1\xee;'
p5495
tp5496
Rp5497
tp5498
a(g44
g6
(g18
S'\xb6\xe9\xc9;'
p5499
tp5500
Rp5501
tp5502
a(g32
g6
(g18
S'6\x0e\x17:'
p5503
tp5504
Rp5505
tp5506
asg73
g15
sa(dp5507
g2
S'../../../data/emanuela/activity-recognition/images/NTCIR-Lifelog-256/u2/2015-06-16/b00001618_21i7lf_20150616_101706e.jpg'
p5508
sg4
(lp5509
(g15
g6
(g18
S'o\xfb{?'
p5510
tp5511
Rp5512
tp5513
a(g267
g6
(g18
S'\x0f\xa58<'
p5514
tp5515
Rp5516
tp5517
a(g116
g6
(g18
S'\x06jv:'
p5518
tp5519
Rp5520
tp5521
a(g959
g6
(g18
S'\xbeGt:'
p5522
tp5523
Rp5524
tp5525
a(g44
g6
(g18
S'9fd:'
p5526
tp5527
Rp5528
tp5529
asg73
g15
sa(dp5530
g2
S'../../../data/emanuela/activity-recognition/images/NTCIR-Lifelog-256/u2/2015-04-27/b00005567_21i7lf_20150427_151722e.jpg'
p5531
sg4
(lp5532
(g32
g6
(g18
S'\xef\x919?'
p5533
tp5534
Rp5535
tp5536
a(g116
g6
(g18
S'\xa7CM>'
p5537
tp5538
Rp5539
tp5540
a(g15
g6
(g18
S'\x92S\xfb<'
p5541
tp5542
Rp5543
tp5544
a(g56
g6
(g18
S'\x87\xa2b<'
p5545
tp5546
Rp5547
tp5548
a(g190
g6
(g18
S')\x98\x1e<'
p5549
tp5550
Rp5551
tp5552
asg73
g15
sa(dp5553
g2
S'../../../data/emanuela/activity-recognition/images/NTCIR-Lifelog-256/u2/2015-04-27/b00005481_21i7lf_20150427_142513e.jpg'
p5554
sg4
(lp5555
(g32
g6
(g18
S'{\xc0j?'
p5556
tp5557
Rp5558
tp5559
a(g15
g6
(g18
S'\xba^w='
p5560
tp5561
Rp5562
tp5563
a(g92
g6
(g18
S'o\xb2\xee;'
p5564
tp5565
Rp5566
tp5567
a(g56
g6
(g18
S'~\xe6";'
p5568
tp5569
Rp5570
tp5571
a(g725
g6
(g18
S'\x1b\xdf\n;'
p5572
tp5573
Rp5574
tp5575
asg73
g15
sa(dp5576
g2
S'../../../data/emanuela/activity-recognition/images/NTCIR-Lifelog-256/u2/2015-04-27/b00005531_21i7lf_20150427_145538e.jpg'
p5577
sg4
(lp5578
(g32
g6
(g18
S'\xc7\xdbi?'
p5579
tp5580
Rp5581
tp5582
a(g15
g6
(g18
S'R\xbd\xac='
p5583
tp5584
Rp5585
tp5586
a(g92
g6
(g18
S'prM:'
p5587
tp5588
Rp5589
tp5590
a(g725
g6
(g18
S's\xcd\xbc9'
p5591
tp5592
Rp5593
tp5594
a(g104
g6
(g18
S'\xa5\xc4y9'
p5595
tp5596
Rp5597
tp5598
asg73
g15
sa(dp5599
g2
S'../../../data/emanuela/activity-recognition/images/NTCIR-Lifelog-256/u2/2015-04-20/b00000566_21i7lf_20150420_153351e.jpg'
p5600
sg4
(lp5601
(g163
g6
(g18
S'\x82*\x1e?'
p5602
tp5603
Rp5604
tp5605
a(g116
g6
(g18
S'\xdfy\xf1='
p5606
tp5607
Rp5608
tp5609
a(g15
g6
(g18
S'\\\xfe\xaa='
p5610
tp5611
Rp5612
tp5613
a(g44
g6
(g18
S'\xfa\xe6k='
p5614
tp5615
Rp5616
tp5617
a(g56
g6
(g18
S'\x81\xdb7='
p5618
tp5619
Rp5620
tp5621
asg73
g15
sa(dp5622
g2
S'../../../data/emanuela/activity-recognition/images/NTCIR-Lifelog-256/u2/2015-04-20/b00000598_21i7lf_20150420_155345e.jpg'
p5623
sg4
(lp5624
(g15
g6
(g18
S'\xcdX/?'
p5625
tp5626
Rp5627
tp5628
a(g163
g6
(g18
S'17\xa9='
p5629
tp5630
Rp5631
tp5632
a(g32
g6
(g18
S'Q\xb3n='
p5633
tp5634
Rp5635
tp5636
a(g552
g6
(g18
S'\xfc\xf2m='
p5637
tp5638
Rp5639
tp5640
a(g44
g6
(g18
S'Z\xb4\x18='
p5641
tp5642
Rp5643
tp5644
asg73
g15
sa(dp5645
g2
S'../../../data/emanuela/activity-recognition/images/NTCIR-Lifelog-256/u2/2015-04-20/b00000697_21i7lf_20150420_165534e.jpg'
p5646
sg4
(lp5647
(g32
g6
(g18
S'RH\xf3>'
p5648
tp5649
Rp5650
tp5651
a(g15
g6
(g18
S'\xc68\x80>'
p5652
tp5653
Rp5654
tp5655
a(g92
g6
(g18
S'\x8cw\xae='
p5656
tp5657
Rp5658
tp5659
a(g104
g6
(g18
S"'\x89\xa8="
p5660
tp5661
Rp5662
tp5663
a(g116
g6
(g18
S'P~\x83='
p5664
tp5665
Rp5666
tp5667
asg73
g15
sa(dp5668
g2
S'../../../data/emanuela/activity-recognition/images/NTCIR-Lifelog-256/u2/2015-04-27/b00005445_21i7lf_20150427_140054e.jpg'
p5669
sg4
(lp5670
(g32
g6
(g18
S'\xef\xde\x10?'
p5671
tp5672
Rp5673
tp5674
a(g15
g6
(g18
S'\xc3\x06\xbb>'
p5675
tp5676
Rp5677
tp5678
a(g56
g6
(g18
S'\tQ\xd2<'
p5679
tp5680
Rp5681
tp5682
a(g139
g6
(g18
S'\xacyB<'
p5683
tp5684
Rp5685
tp5686
a(g92
g6
(g18
S'\x17\xac\xff;'
p5687
tp5688
Rp5689
tp5690
asg73
g15
sa(dp5691
g2
S'../../../data/emanuela/activity-recognition/images/NTCIR-Lifelog-256/u2/2015-05-01/b00002381_21i7lf_20150501_151721e.jpg'
p5692
sg4
(lp5693
(g32
g6
(g18
S'j\xe3i?'
p5694
tp5695
Rp5696
tp5697
a(g15
g6
(g18
S'o\x81\x1e='
p5698
tp5699
Rp5700
tp5701
a(g116
g6
(g18
S'\x08\xf4\x92<'
p5702
tp5703
Rp5704
tp5705
a(g92
g6
(g18
S'G\xcc"<'
p5706
tp5707
Rp5708
tp5709
a(g56
g6
(g18
S'Y\xf2\xf9;'
p5710
tp5711
Rp5712
tp5713
asg73
g15
sa(dp5714
g2
S'../../../data/emanuela/activity-recognition/images/NTCIR-Lifelog-256/u2/2015-04-20/b00000584_21i7lf_20150420_154511e.jpg'
p5715
sg4
(lp5716
(g15
g6
(g18
S'\xc1\x8f\x98>'
p5717
tp5718
Rp5719
tp5720
a(g56
g6
(g18
S'\x06\x02_>'
p5721
tp5722
Rp5723
tp5724
a(g44
g6
(g18
S'+2\x1c>'
p5725
tp5726
Rp5727
tp5728
a(g448
g6
(g18
S'\x95\x0e\xa8='
p5729
tp5730
Rp5731
tp5732
a(g116
g6
(g18
S'V1^='
p5733
tp5734
Rp5735
tp5736
asg73
g15
sa(dp5737
g2
S'../../../data/emanuela/activity-recognition/images/NTCIR-Lifelog-256/u2/2015-04-20/b00000537_21i7lf_20150420_151550e.jpg'
p5738
sg4
(lp5739
(g15
g6
(g18
S'\x88!`?'
p5740
tp5741
Rp5742
tp5743
a(g56
g6
(g18
S'\x86\xb4\x89<'
p5744
tp5745
Rp5746
tp5747
a(g139
g6
(g18
S'\x15o|<'
p5748
tp5749
Rp5750
tp5751
a(g413
g6
(g18
S'\xfd\rX<'
p5752
tp5753
Rp5754
tp5755
a(g32
g6
(g18
S'\x9a\x0f6<'
p5756
tp5757
Rp5758
tp5759
asg73
g15
sa(dp5760
g2
S'../../../data/emanuela/activity-recognition/images/NTCIR-Lifelog-256/u2/2015-04-20/b00000545_21i7lf_20150420_152028e.jpg'
p5761
sg4
(lp5762
(g15
g6
(g18
S'\xd7\x84\x7f?'
p5763
tp5764
Rp5765
tp5766
a(g139
g6
(g18
S'e\x0e\x92:'
p5767
tp5768
Rp5769
tp5770
a(g448
g6
(g18
S'\xf3%.9'
p5771
tp5772
Rp5773
tp5774
a(g151
g6
(g18
S'\x8a7\xe28'
p5775
tp5776
Rp5777
tp5778
a(g413
g6
(g18
S'l\\\xb18'
p5779
tp5780
Rp5781
tp5782
asg73
g15
sa(dp5783
g2
S'../../../data/emanuela/activity-recognition/images/NTCIR-Lifelog-256/u2/2015-04-27/b00005465_21i7lf_20150427_141440e.jpg'
p5784
sg4
(lp5785
(g32
g6
(g18
S'G\xcb:?'
p5786
tp5787
Rp5788
tp5789
a(g15
g6
(g18
S'i\xa2o>'
p5790
tp5791
Rp5792
tp5793
a(g139
g6
(g18
S'\xd6\x11R<'
p5794
tp5795
Rp5796
tp5797
a(g44
g6
(g18
S'\xf4\xd1\xd6;'
p5798
tp5799
Rp5800
tp5801
a(g92
g6
(g18
S'\x1fr};'
p5802
tp5803
Rp5804
tp5805
asg73
g15
sa(dp5806
g2
S'../../../data/emanuela/activity-recognition/images/NTCIR-Lifelog-256/u2/2015-05-07/b00007716_21i7lf_20150507_151807e.jpg'
p5807
sg4
(lp5808
(g32
g6
(g18
S'.\xc01?'
p5809
tp5810
Rp5811
tp5812
a(g15
g6
(g18
S'\xbb\xd6\x08>'
p5813
tp5814
Rp5815
tp5816
a(g151
g6
(g18
S'\xd2-\x00>'
p5817
tp5818
Rp5819
tp5820
a(g139
g6
(g18
S'\xce\xc2\xbe<'
p5821
tp5822
Rp5823
tp5824
a(g116
g6
(g18
S'?\x9c\xc5;'
p5825
tp5826
Rp5827
tp5828
asg73
g15
sa(dp5829
g2
S'../../../data/emanuela/activity-recognition/images/NTCIR-Lifelog-256/u2/2015-04-20/b00000532_21i7lf_20150420_151245e.jpg'
p5830
sg4
(lp5831
(g15
g6
(g18
S'&\xeb\x7f?'
p5832
tp5833
Rp5834
tp5835
a(g139
g6
(g18
S"\x00'\xb68"
p5836
tp5837
Rp5838
tp5839
a(g151
g6
(g18
S'%ia8'
p5840
tp5841
Rp5842
tp5843
a(g448
g6
(g18
S'\xec\x9e$8'
p5844
tp5845
Rp5846
tp5847
a(g116
g6
(g18
S'\xd3h\xb57'
p5848
tp5849
Rp5850
tp5851
asg73
g15
sa(dp5852
g2
S'../../../data/emanuela/activity-recognition/images/NTCIR-Lifelog-256/u2/2015-06-16/b00001612_21i7lf_20150616_101346e.jpg'
p5853
sg4
(lp5854
(g15
g6
(g18
S'd\x05\x7f?'
p5855
tp5856
Rp5857
tp5858
a(g267
g6
(g18
S'CX*;'
p5859
tp5860
Rp5861
tp5862
a(g959
g6
(g18
S'\r\xee\x0e:'
p5863
tp5864
Rp5865
tp5866
a(g44
g6
(g18
S'\t\x9a\x9d9'
p5867
tp5868
Rp5869
tp5870
a(g116
g6
(g18
S'\x1f]\xc58'
p5871
tp5872
Rp5873
tp5874
asg73
g15
sa(dp5875
g2
S'../../../data/emanuela/activity-recognition/images/NTCIR-Lifelog-256/u2/2015-04-20/b00000675_21i7lf_20150420_164152e.jpg'
p5876
sg4
(lp5877
(g15
g6
(g18
S'\xeci~?'
p5878
tp5879
Rp5880
tp5881
a(g151
g6
(g18
S'\x0cx\x18;'
p5882
tp5883
Rp5884
tp5885
a(g163
g6
(g18
S'\x08\xfc\xec:'
p5886
tp5887
Rp5888
tp5889
a(g104
g6
(g18
S'\xa5M\x1c:'
p5890
tp5891
Rp5892
tp5893
a(g44
g6
(g18
S'\xd0o\xda9'
p5894
tp5895
Rp5896
tp5897
asg73
g15
sa(dp5898
g2
S'../../../data/emanuela/activity-recognition/images/NTCIR-Lifelog-256/u2/2015-04-20/b00000604_21i7lf_20150420_155717e.jpg'
p5899
sg4
(lp5900
(g15
g6
(g18
S'\xaf".?'
p5901
tp5902
Rp5903
tp5904
a(g552
g6
(g18
S'\xd2\xfc<>'
p5905
tp5906
Rp5907
tp5908
a(g163
g6
(g18
S'\xb8)\x9e='
p5909
tp5910
Rp5911
tp5912
a(g56
g6
(g18
S'b\xc3B<'
p5913
tp5914
Rp5915
tp5916
a(g44
g6
(g18
S'\x05\x1b7<'
p5917
tp5918
Rp5919
tp5920
asg73
g15
sa(dp5921
g2
S'../../../data/emanuela/activity-recognition/images/NTCIR-Lifelog-256/u2/2015-04-27/b00005518_21i7lf_20150427_144732e.jpg'
p5922
sg4
(lp5923
(g32
g6
(g18
S'Q\x8by?'
p5924
tp5925
Rp5926
tp5927
a(g92
g6
(g18
S'\xdf\x95Z<'
p5928
tp5929
Rp5930
tp5931
a(g15
g6
(g18
S'U3\x0e<'
p5932
tp5933
Rp5934
tp5935
a(g725
g6
(g18
S'\x1e\xff\x93:'
p5936
tp5937
Rp5938
tp5939
a(g104
g6
(g18
S'\xa3r/:'
p5940
tp5941
Rp5942
tp5943
asg73
g15
sa(dp5944
g2
S'../../../data/emanuela/activity-recognition/images/NTCIR-Lifelog-256/u2/2015-06-16/b00001609_21i7lf_20150616_101159e.jpg'
p5945
sg4
(lp5946
(g15
g6
(g18
S'\x00l\x7f?'
p5947
tp5948
Rp5949
tp5950
a(g959
g6
(g18
S'\x16\x92\x95:'
p5951
tp5952
Rp5953
tp5954
a(g44
g6
(g18
S'j\xa6\x03:'
p5955
tp5956
Rp5957
tp5958
a(g267
g6
(g18
S'8\xb5\xae9'
p5959
tp5960
Rp5961
tp5962
a(g32
g6
(g18
S'9\x98\x149'
p5963
tp5964
Rp5965
tp5966
asg73
g15
sa(dp5967
g2
S'../../../data/emanuela/activity-recognition/images/NTCIR-Lifelog-256/u2/2015-05-07/b00007718_21i7lf_20150507_151921e.jpg'
p5968
sg4
(lp5969
(g15
g6
(g18
S'\xe6\x08\xfb>'
p5970
tp5971
Rp5972
tp5973
a(g32
g6
(g18
S'B\xd4\xd6>'
p5974
tp5975
Rp5976
tp5977
a(g151
g6
(g18
S'\x0cqB='
p5978
tp5979
Rp5980
tp5981
a(g92
g6
(g18
S'\xc1!\xdf<'
p5982
tp5983
Rp5984
tp5985
a(g104
g6
(g18
S'1R\x96;'
p5986
tp5987
Rp5988
tp5989
asg73
g15
sa(dp5990
g2
S'../../../data/emanuela/activity-recognition/images/NTCIR-Lifelog-256/u2/2015-04-20/b00000550_21i7lf_20150420_152333e.jpg'
p5991
sg4
(lp5992
(g413
g6
(g18
S'\xc5\xed\xa5>'
p5993
tp5994
Rp5995
tp5996
a(g116
g6
(g18
S'\xfc\x94\x9b>'
p5997
tp5998
Rp5999
tp6000
a(g15
g6
(g18
S'SP\xd8='
p6001
tp6002
Rp6003
tp6004
a(g104
g6
(g18
S'\x98\x84\x86='
p6005
tp6006
Rp6007
tp6008
a(g163
g6
(g18
S'\x0f\x8b\xff<'
p6009
tp6010
Rp6011
tp6012
asg73
g15
sa(dp6013
g2
S'../../../data/emanuela/activity-recognition/images/NTCIR-Lifelog-256/u2/2015-04-27/b00005459_21i7lf_20150427_141049e.jpg'
p6014
sg4
(lp6015
(g32
g6
(g18
S'\x8b<\xf1>'
p6016
tp6017
Rp6018
tp6019
a(g116
g6
(g18
S'CwL>'
p6020
tp6021
Rp6022
tp6023
a(g15
g6
(g18
S'te\xfc='
p6024
tp6025
Rp6026
tp6027
a(g56
g6
(g18
S'\xa1k\x8f='
p6028
tp6029
Rp6030
tp6031
a(g92
g6
(g18
S'8\xd36='
p6032
tp6033
Rp6034
tp6035
asg73
g15
sa(dp6036
g2
S'../../../data/emanuela/activity-recognition/images/NTCIR-Lifelog-256/u2/2015-04-27/b00005519_21i7lf_20150427_144804e.jpg'
p6037
sg4
(lp6038
(g32
g6
(g18
S'@\xe4g?'
p6039
tp6040
Rp6041
tp6042
a(g56
g6
(g18
S'\xa2\xfa<='
p6043
tp6044
Rp6045
tp6046
a(g116
g6
(g18
S'\x9a\x01\x92<'
p6047
tp6048
Rp6049
tp6050
a(g92
g6
(g18
S'S\xa6\xbd;'
p6051
tp6052
Rp6053
tp6054
a(g190
g6
(g18
S'\xb8\x13\x9a;'
p6055
tp6056
Rp6057
tp6058
asg73
g15
sa(dp6059
g2
S'../../../data/emanuela/activity-recognition/images/NTCIR-Lifelog-256/u2/2015-05-07/b00007708_21i7lf_20150507_151309e.jpg'
p6060
sg4
(lp6061
(g32
g6
(g18
S'c\xa3m?'
p6062
tp6063
Rp6064
tp6065
a(g56
g6
(g18
S'\xea\xda\xe5<'
p6066
tp6067
Rp6068
tp6069
a(g15
g6
(g18
S'#\xbe\x9c<'
p6070
tp6071
Rp6072
tp6073
a(g116
g6
(g18
S'I\xaa\x08<'
p6074
tp6075
Rp6076
tp6077
a(g92
g6
(g18
S'\xa8\xa5\xb6;'
p6078
tp6079
Rp6080
tp6081
asg73
g15
sa(dp6082
g2
S'../../../data/emanuela/activity-recognition/images/NTCIR-Lifelog-256/u2/2015-04-20/b00000572_21i7lf_20150420_153737e.jpg'
p6083
sg4
(lp6084
(g15
g6
(g18
S'y\xc9\xc1>'
p6085
tp6086
Rp6087
tp6088
a(g163
g6
(g18
S'y\xcc\x97>'
p6089
tp6090
Rp6091
tp6092
a(g116
g6
(g18
S'\x99h">'
p6093
tp6094
Rp6095
tp6096
a(g56
g6
(g18
S'\xf5\x04g='
p6097
tp6098
Rp6099
tp6100
a(g44
g6
(g18
S'|;\xde<'
p6101
tp6102
Rp6103
tp6104
asg73
g15
sa(dp6105
g2
S'../../../data/emanuela/activity-recognition/images/NTCIR-Lifelog-256/u2/2015-04-27/b00005456_21i7lf_20150427_140819e.jpg'
p6106
sg4
(lp6107
(g32
g6
(g18
S'Y\xf0e?'
p6108
tp6109
Rp6110
tp6111
a(g116
g6
(g18
S'W\xcc\x8b='
p6112
tp6113
Rp6114
tp6115
a(g92
g6
(g18
S'\xe3l!<'
p6116
tp6117
Rp6118
tp6119
a(g15
g6
(g18
S'lm\x12<'
p6120
tp6121
Rp6122
tp6123
a(g56
g6
(g18
S'i\xc8\xa5;'
p6124
tp6125
Rp6126
tp6127
asg73
g15
sa(dp6128
g2
S'../../../data/emanuela/activity-recognition/images/NTCIR-Lifelog-256/u2/2015-04-20/b00000543_21i7lf_20150420_151922e.jpg'
p6129
sg4
(lp6130
(g15
g6
(g18
S'u\xed\x7f?'
p6131
tp6132
Rp6133
tp6134
a(g139
g6
(g18
S'm\x83\x039'
p6135
tp6136
Rp6137
tp6138
a(g151
g6
(g18
S'\xfdH\x1a8'
p6139
tp6140
Rp6141
tp6142
a(g116
g6
(g18
S'\xb9\xb3\xa37'
p6143
tp6144
Rp6145
tp6146
a(g104
g6
(g18
S'\x8b\xf8\x987'
p6147
tp6148
Rp6149
tp6150
asg73
g15
sa(dp6151
g2
S'../../../data/emanuela/activity-recognition/images/NTCIR-Lifelog-256/u2/2015-04-20/b00000661_21i7lf_20150420_163311e.jpg'
p6152
sg4
(lp6153
(g15
g6
(g18
S'\xf6\xcbw?'
p6154
tp6155
Rp6156
tp6157
a(g116
g6
(g18
S'\x13\x936<'
p6158
tp6159
Rp6160
tp6161
a(g163
g6
(g18
S'O\xa1\xe0;'
p6162
tp6163
Rp6164
tp6165
a(g44
g6
(g18
S'o\x98\x91;'
p6166
tp6167
Rp6168
tp6169
a(g56
g6
(g18
S')\xacM;'
p6170
tp6171
Rp6172
tp6173
asg73
g15
sa(dp6174
g2
S'../../../data/emanuela/activity-recognition/images/NTCIR-Lifelog-256/u2/2015-04-20/b00000637_21i7lf_20150420_161834e.jpg'
p6175
sg4
(lp6176
(g15
g6
(g18
S'\x95\xee\x7f?'
p6177
tp6178
Rp6179
tp6180
a(g139
g6
(g18
S'\xfbA\xd28'
p6181
tp6182
Rp6183
tp6184
a(g725
g6
(g18
S'%t\x1a8'
p6185
tp6186
Rp6187
tp6188
a(g116
g6
(g18
S'\x1dm\x048'
p6189
tp6190
Rp6191
tp6192
a(g92
g6
(g18
S'\xf8W\xcc7'
p6193
tp6194
Rp6195
tp6196
asg73
g15
sa(dp6197
g2
S'../../../data/emanuela/activity-recognition/images/NTCIR-Lifelog-256/u2/2015-04-20/b00000520_21i7lf_20150420_150527e.jpg'
p6198
sg4
(lp6199
(g15
g6
(g18
S'\xe9\xda\x7f?'
p6200
tp6201
Rp6202
tp6203
a(g139
g6
(g18
S'\x0c\xb3\xec8'
p6204
tp6205
Rp6206
tp6207
a(g116
g6
(g18
S'\xda\xa5\xbe8'
p6208
tp6209
Rp6210
tp6211
a(g151
g6
(g18
S'\x88\xd4\xad8'
p6212
tp6213
Rp6214
tp6215
a(g163
g6
(g18
S'\x19_\x928'
p6216
tp6217
Rp6218
tp6219
asg73
g15
sa(dp6220
g2
S'../../../data/emanuela/activity-recognition/images/NTCIR-Lifelog-256/u2/2015-04-27/b00005562_21i7lf_20150427_151423e.jpg'
p6221
sg4
(lp6222
(g15
g6
(g18
S',tf?'
p6223
tp6224
Rp6225
tp6226
a(g32
g6
(g18
S'\xec\x19\xb5='
p6227
tp6228
Rp6229
tp6230
a(g116
g6
(g18
S'\x8d\xe9\x82;'
p6231
tp6232
Rp6233
tp6234
a(g92
g6
(g18
S')3x;'
p6235
tp6236
Rp6237
tp6238
a(g190
g6
(g18
S'b\x9c\xc2:'
p6239
tp6240
Rp6241
tp6242
asg73
g15
sa(dp6243
g2
S'../../../data/emanuela/activity-recognition/images/NTCIR-Lifelog-256/u2/2015-06-16/b00001622_21i7lf_20150616_101940e.jpg'
p6244
sg4
(lp6245
(g15
g6
(g18
S'\x88~|?'
p6246
tp6247
Rp6248
tp6249
a(g267
g6
(g18
S'u\xbaX<'
p6250
tp6251
Rp6252
tp6253
a(g521
g6
(g18
S'\x9e/\x089'
p6254
tp6255
Rp6256
tp6257
a(g116
g6
(g18
S'QD\xff8'
p6258
tp6259
Rp6260
tp6261
a(g32
g6
(g18
S'b\xb1\x818'
p6262
tp6263
Rp6264
tp6265
asg73
g15
sa(dp6266
g2
S'../../../data/emanuela/activity-recognition/images/NTCIR-Lifelog-256/u2/2015-04-27/b00005480_21i7lf_20150427_142440e.jpg'
p6267
sg4
(lp6268
(g15
g6
(g18
S'\xc9\xe5F?'
p6269
tp6270
Rp6271
tp6272
a(g32
g6
(g18
S'Q\xe8P>'
p6273
tp6274
Rp6275
tp6276
a(g139
g6
(g18
S'\xbf:\x00<'
p6277
tp6278
Rp6279
tp6280
a(g116
g6
(g18
S'U\x1d-;'
p6281
tp6282
Rp6283
tp6284
a(g92
g6
(g18
S'\xd8\xd4\x0f;'
p6285
tp6286
Rp6287
tp6288
asg73
g15
sa(dp6289
g2
S'../../../data/emanuela/activity-recognition/images/NTCIR-Lifelog-256/u2/2015-04-20/b00000582_21i7lf_20150420_154351e.jpg'
p6290
sg4
(lp6291
(g163
g6
(g18
S'\xb3\xbb\xcb>'
p6292
tp6293
Rp6294
tp6295
a(g116
g6
(g18
S'\x0c\x10\x8e>'
p6296
tp6297
Rp6298
tp6299
a(g15
g6
(g18
S'he\x1f>'
p6300
tp6301
Rp6302
tp6303
a(g44
g6
(g18
S'O\xc7\x84='
p6304
tp6305
Rp6306
tp6307
a(g56
g6
(g18
S'@\x08 ='
p6308
tp6309
Rp6310
tp6311
asg73
g15
sa(dp6312
g2
S'../../../data/emanuela/activity-recognition/images/NTCIR-Lifelog-256/u2/2015-05-07/b00007710_21i7lf_20150507_151419e.jpg'
p6313
sg4
(lp6314
(g32
g6
(g18
S'f\x95\x0b?'
p6315
tp6316
Rp6317
tp6318
a(g151
g6
(g18
S'\x16k5>'
p6319
tp6320
Rp6321
tp6322
a(g15
g6
(g18
S'SY\x19>'
p6323
tp6324
Rp6325
tp6326
a(g92
g6
(g18
S'm\xe0T='
p6327
tp6328
Rp6329
tp6330
a(g104
g6
(g18
S'\xe8\xc2\x86<'
p6331
tp6332
Rp6333
tp6334
asg73
g15
sa(dp6335
g2
S'../../../data/emanuela/activity-recognition/images/NTCIR-Lifelog-256/u2/2015-04-20/b00000659_21i7lf_20150420_163152e.jpg'
p6336
sg4
(lp6337
(g15
g6
(g18
S'\x9d\xe9}?'
p6338
tp6339
Rp6340
tp6341
a(g163
g6
(g18
S'\x9e\xba\x82;'
p6342
tp6343
Rp6344
tp6345
a(g151
g6
(g18
S'\x18\x1b\xc9:'
p6346
tp6347
Rp6348
tp6349
a(g104
g6
(g18
S'{\r\x86:'
p6350
tp6351
Rp6352
tp6353
a(g116
g6
(g18
S'N\xe3\xb49'
p6354
tp6355
Rp6356
tp6357
asg73
g15
sa(dp6358
g2
S'../../../data/emanuela/activity-recognition/images/NTCIR-Lifelog-256/u2/2015-05-07/b00007721_21i7lf_20150507_152104e.jpg'
p6359
sg4
(lp6360
(g32
g6
(g18
S'\xee\xed\xfb>'
p6361
tp6362
Rp6363
tp6364
a(g15
g6
(g18
S'\xbc\xfd\xa7>'
p6365
tp6366
Rp6367
tp6368
a(g92
g6
(g18
S'z\x82\x04>'
p6369
tp6370
Rp6371
tp6372
a(g56
g6
(g18
S"\x0c'J<"
p6373
tp6374
Rp6375
tp6376
a(g725
g6
(g18
S'\x1d]:<'
p6377
tp6378
Rp6379
tp6380
asg73
g15
sa(dp6381
g2
S'../../../data/emanuela/activity-recognition/images/NTCIR-Lifelog-256/u2/2015-04-27/b00005534_21i7lf_20150427_145723e.jpg'
p6382
sg4
(lp6383
(g32
g6
(g18
S'f\xbct?'
p6384
tp6385
Rp6386
tp6387
a(g15
g6
(g18
S'Q=\x12='
p6388
tp6389
Rp6390
tp6391
a(g92
g6
(g18
S'A\x04,;'
p6392
tp6393
Rp6394
tp6395
a(g44
g6
(g18
S'\xd1J\xe9:'
p6396
tp6397
Rp6398
tp6399
a(g56
g6
(g18
S'o\xed\x1f:'
p6400
tp6401
Rp6402
tp6403
asg73
g15
sa(dp6404
g2
S'../../../data/emanuela/activity-recognition/images/NTCIR-Lifelog-256/u2/2015-04-27/b00005629_21i7lf_20150427_155428e.jpg'
p6405
sg4
(lp6406
(g116
g6
(g18
S'\xdf@\x81>'
p6407
tp6408
Rp6409
tp6410
a(g15
g6
(g18
S'z\x19i>'
p6411
tp6412
Rp6413
tp6414
a(g32
g6
(g18
S'=Y3>'
p6415
tp6416
Rp6417
tp6418
a(g413
g6
(g18
S'\xddd\x9a='
p6419
tp6420
Rp6421
tp6422
a(g190
g6
(g18
S'\x9e\x91\x8d='
p6423
tp6424
Rp6425
tp6426
asg73
g15
sa(dp6427
g2
S'../../../data/emanuela/activity-recognition/images/NTCIR-Lifelog-256/u2/2015-04-27/b00005554_21i7lf_20150427_150929e.jpg'
p6428
sg4
(lp6429
(g32
g6
(g18
S'\x9f\xe8C?'
p6430
tp6431
Rp6432
tp6433
a(g15
g6
(g18
S'l\rI>'
p6434
tp6435
Rp6436
tp6437
a(g92
g6
(g18
S'C-\xb7<'
p6438
tp6439
Rp6440
tp6441
a(g44
g6
(g18
S'\x821\xb7;'
p6442
tp6443
Rp6444
tp6445
a(g151
g6
(g18
S'\xba\xbd\xa7;'
p6446
tp6447
Rp6448
tp6449
asg73
g15
sa(dp6450
g2
S'../../../data/emanuela/activity-recognition/images/NTCIR-Lifelog-256/u2/2015-04-20/b00000689_21i7lf_20150420_165030e.jpg'
p6451
sg4
(lp6452
(g32
g6
(g18
S'\xe1\xb7\xb8>'
p6453
tp6454
Rp6455
tp6456
a(g15
g6
(g18
S'\x1e\xcb\x87>'
p6457
tp6458
Rp6459
tp6460
a(g92
g6
(g18
S'YO\x1b>'
p6461
tp6462
Rp6463
tp6464
a(g116
g6
(g18
S'D\xff\x8d='
p6465
tp6466
Rp6467
tp6468
a(g56
g6
(g18
S'=\xfar='
p6469
tp6470
Rp6471
tp6472
asg73
g15
sa(dp6473
g2
S'../../../data/emanuela/activity-recognition/images/NTCIR-Lifelog-256/u2/2015-04-27/b00005540_21i7lf_20150427_150101e.jpg'
p6474
sg4
(lp6475
(g15
g6
(g18
S"\x94@'?"
p6476
tp6477
Rp6478
tp6479
a(g32
g6
(g18
S'.\x18\xa6>'
p6480
tp6481
Rp6482
tp6483
a(g151
g6
(g18
S'\xc6\x90\xb7;'
p6484
tp6485
Rp6486
tp6487
a(g92
g6
(g18
S'\tKW;'
p6488
tp6489
Rp6490
tp6491
a(g139
g6
(g18
S'Q\xab2;'
p6492
tp6493
Rp6494
tp6495
asg73
g15
sa(dp6496
g2
S'../../../data/emanuela/activity-recognition/images/NTCIR-Lifelog-256/u2/2015-04-20/b00000679_21i7lf_20150420_164422e.jpg'
p6497
sg4
(lp6498
(g163
g6
(g18
S'\x98\x17D?'
p6499
tp6500
Rp6501
tp6502
a(g116
g6
(g18
S'\xb3hG='
p6503
tp6504
Rp6505
tp6506
a(g56
g6
(g18
S'Gv?='
p6507
tp6508
Rp6509
tp6510
a(g44
g6
(g18
S'(\xe1\x18='
p6511
tp6512
Rp6513
tp6514
a(g15
g6
(g18
S'\x13\x1b\xf6<'
p6515
tp6516
Rp6517
tp6518
asg73
g15
sa.