(lp0
(dp1
S'image'
p2
S'../../../data/emanuela/activity-recognition/images/NTCIR-Lifelog-256/u2/2015-05-04/b00004674_21i7lf_20150504_120010e.jpg'
p3
sS'result'
p4
(lp5
(cnumpy.core.multiarray
scalar
p6
(cnumpy
dtype
p7
(S'S24'
p8
I0
I1
tp9
Rp10
(I3
S'|'
p11
NNNI24
I1
I0
tp12
bS'having drinks/meal alone'
p13
tp14
Rp15
g6
(g7
(S'f4'
p16
I0
I1
tp17
Rp18
(I3
S'<'
p19
NNNI-1
I-1
I0
tp20
bS'\xf6Co?'
p21
tp22
Rp23
tp24
a(g6
(g7
(S'S19'
p25
I0
I1
tp26
Rp27
(I3
S'|'
p28
NNNI19
I1
I0
tp29
bS'cleaning and chores'
p30
tp31
Rp32
g6
(g18
S'\xdc$\xac<'
p33
tp34
Rp35
tp36
a(g6
(g7
(S'S7'
p37
I0
I1
tp38
Rp39
(I3
S'|'
p40
NNNI7
I1
I0
tp41
bS'cooking'
p42
tp43
Rp44
g6
(g18
S'5\x8dX<'
p45
tp46
Rp47
tp48
a(g6
(g7
(S'S25'
p49
I0
I1
tp50
Rp51
(I3
S'|'
p52
NNNI25
I1
I0
tp53
bS'having meal with somebody'
p54
tp55
Rp56
g6
(g18
S'\x96\x818<'
p57
tp58
Rp59
tp60
a(g6
(g7
(S'S27'
p61
I0
I1
tp62
Rp63
(I3
S'|'
p64
NNNI27
I1
I0
tp65
bS'having drinks with somebody'
p66
tp67
Rp68
g6
(g18
S'\xff:\x0c<'
p69
tp70
Rp71
tp72
asS'label'
p73
g32
sa(dp74
g2
S'../../../data/emanuela/activity-recognition/images/NTCIR-Lifelog-256/u2/2015-04-22/b00000967_21i7lf_20150422_081833e.jpg'
p75
sg4
(lp76
(g32
g6
(g18
S'\xc0\x02\xc3>'
p77
tp78
Rp79
tp80
a(g15
g6
(g18
S'h$O>'
p81
tp82
Rp83
tp84
a(g6
(g7
(S'S11'
p85
I0
I1
tp86
Rp87
(I3
S'|'
p88
NNNI11
I1
I0
tp89
bS'socializing'
p90
tp91
Rp92
g6
(g18
S'\xce3\x0b>'
p93
tp94
Rp95
tp96
a(g56
g6
(g18
S'\xc1\x05\xc7='
p97
tp98
Rp99
tp100
a(g68
g6
(g18
S'\x0c\x13\xad='
p101
tp102
Rp103
tp104
asg73
g32
sa(dp105
g2
S'../../../data/emanuela/activity-recognition/images/NTCIR-Lifelog-256/u2/2015-05-01/b00001704_21i7lf_20150501_081926e.jpg'
p106
sg4
(lp107
(g6
(g7
(S'S8'
p108
I0
I1
tp109
Rp110
(I3
S'|'
p111
NNNI8
I1
I0
tp112
bS'shopping'
p113
tp114
Rp115
g6
(g18
S'\x14\x82\xde>'
p116
tp117
Rp118
tp119
a(g44
g6
(g18
S'\xc7h\x01>'
p120
tp121
Rp122
tp123
a(g68
g6
(g18
S'+\xcd\xf6='
p124
tp125
Rp126
tp127
a(g56
g6
(g18
S'M\xe2\xee='
p128
tp129
Rp130
tp131
a(g32
g6
(g18
S'\x02\xa2\xbc='
p132
tp133
Rp134
tp135
asg73
g32
sa(dp136
g2
S'../../../data/emanuela/activity-recognition/images/NTCIR-Lifelog-256/u2/2015-04-29/b00000149_21i7lf_20150429_183206e.jpg'
p137
sg4
(lp138
(g115
g6
(g18
S'\xb7\xa1\x18?'
p139
tp140
Rp141
tp142
a(g6
(g7
(S'S14'
p143
I0
I1
tp144
Rp145
(I3
S'|'
p146
NNNI14
I1
I0
tp147
bS'walking indoor'
p148
tp149
Rp150
g6
(g18
S'\xc3\xe6v>'
p151
tp152
Rp153
tp154
a(g92
g6
(g18
S'cCl='
p155
tp156
Rp157
tp158
a(g6
(g7
(S'S7'
p159
I0
I1
tp160
Rp161
(I3
S'|'
p162
NNNI7
I1
I0
tp163
bS'talking'
p164
tp165
Rp166
g6
(g18
S'\xaa\xd6\r='
p167
tp168
Rp169
tp170
a(g6
(g7
(S'S7'
p171
I0
I1
tp172
Rp173
(I3
S'|'
p174
NNNI7
I1
I0
tp175
bS'meeting'
p176
tp177
Rp178
g6
(g18
S'\xf3\xf2\x8b<'
p179
tp180
Rp181
tp182
asg73
g32
sa(dp183
g2
S'../../../data/emanuela/activity-recognition/images/NTCIR-Lifelog-256/u2/2015-05-04/b00004708_21i7lf_20150504_122106e.jpg'
p184
sg4
(lp185
(g32
g6
(g18
S'\t\xca\x81>'
p186
tp187
Rp188
tp189
a(g6
(g7
(S'S6'
p190
I0
I1
tp191
Rp192
(I3
S'|'
p193
NNNI6
I1
I0
tp194
bS'mobile'
p195
tp196
Rp197
g6
(g18
S'\x9a!3>'
p198
tp199
Rp200
tp201
a(g6
(g7
(S'S7'
p202
I0
I1
tp203
Rp204
(I3
S'|'
p205
NNNI7
I1
I0
tp206
bS'reading'
p207
tp208
Rp209
g6
(g18
S'?g\x1a>'
p210
tp211
Rp212
tp213
a(g6
(g7
(S'S7'
p214
I0
I1
tp215
Rp216
(I3
S'|'
p217
NNNI7
I1
I0
tp218
bS'resting'
p219
tp220
Rp221
g6
(g18
S';\xfa\xfe='
p222
tp223
Rp224
tp225
a(g6
(g7
(S'S16'
p226
I0
I1
tp227
Rp228
(I3
S'|'
p229
NNNI16
I1
I0
tp230
bS'public transport'
p231
tp232
Rp233
g6
(g18
S'\x9f\xa5\xf9='
p234
tp235
Rp236
tp237
asg73
g32
sa(dp238
g2
S'../../../data/emanuela/activity-recognition/images/NTCIR-Lifelog-256/u2/2015-04-25/b00003103_21i7lf_20150425_123117e.jpg'
p239
sg4
(lp240
(g15
g6
(g18
S'\xd6h+?'
p241
tp242
Rp243
tp244
a(g56
g6
(g18
S'dmh>'
p245
tp246
Rp247
tp248
a(g32
g6
(g18
S'\xbf\xef!='
p249
tp250
Rp251
tp252
a(g44
g6
(g18
S'\x19\xf3\xb1<'
p253
tp254
Rp255
tp256
a(g68
g6
(g18
S'\xd61g<'
p257
tp258
Rp259
tp260
asg73
g32
sa(dp261
g2
S'../../../data/emanuela/activity-recognition/images/NTCIR-Lifelog-256/u2/2015-05-04/b00004672_21i7lf_20150504_115854e.jpg'
p262
sg4
(lp263
(g15
g6
(g18
S'\xae[_?'
p264
tp265
Rp266
tp267
a(g56
g6
(g18
S'f\xc6\xc6='
p268
tp269
Rp270
tp271
a(g44
g6
(g18
S'\x19\xa2A<'
p272
tp273
Rp274
tp275
a(g115
g6
(g18
S'\x88e\xc6;'
p276
tp277
Rp278
tp279
a(g32
g6
(g18
S'\xc1\xba\xae;'
p280
tp281
Rp282
tp283
asg73
g32
sa(dp284
g2
S'../../../data/emanuela/activity-recognition/images/NTCIR-Lifelog-256/u2/2015-05-08/b00008651_21i7lf_20150508_085941e.jpg'
p285
sg4
(lp286
(g32
g6
(g18
S'\x80\xb3\x99>'
p287
tp288
Rp289
tp290
a(g44
g6
(g18
S'\x02a\x98>'
p291
tp292
Rp293
tp294
a(g221
g6
(g18
S'\x1a\xa3\xfe='
p295
tp296
Rp297
tp298
a(g150
g6
(g18
S'7/\xe6='
p299
tp300
Rp301
tp302
a(g197
g6
(g18
S'\xc6\xbd\\='
p303
tp304
Rp305
tp306
asg73
g32
sa(dp307
g2
S'../../../data/emanuela/activity-recognition/images/NTCIR-Lifelog-256/u2/2015-04-25/b00003384_21i7lf_20150425_165630e.jpg'
p308
sg4
(lp309
(g32
g6
(g18
S'\xd0\x0e\x1b?'
p310
tp311
Rp312
tp313
a(g15
g6
(g18
S'\xb4\xa2\x18>'
p314
tp315
Rp316
tp317
a(g44
g6
(g18
S'\xac\xee\xfc='
p318
tp319
Rp320
tp321
a(g56
g6
(g18
S'\x93\x1cg='
p322
tp323
Rp324
tp325
a(g92
g6
(g18
S'\x7f$\xab<'
p326
tp327
Rp328
tp329
asg73
g32
sa(dp330
g2
S'../../../data/emanuela/activity-recognition/images/NTCIR-Lifelog-256/u2/2015-04-25/b00003062_21i7lf_20150425_114705e.jpg'
p331
sg4
(lp332
(g44
g6
(g18
S'\xcc\x8b\x10?'
p333
tp334
Rp335
tp336
a(g32
g6
(g18
S'\xdd\x97\xda>'
p337
tp338
Rp339
tp340
a(g150
g6
(g18
S's::;'
p341
tp342
Rp343
tp344
a(g6
(g7
(S'S7'
p345
I0
I1
tp346
Rp347
(I3
S'|'
p348
NNNI7
I1
I0
tp349
bS'working'
p350
tp351
Rp352
g6
(g18
S'\xb1\xdb\x16;'
p353
tp354
Rp355
tp356
a(g115
g6
(g18
S'^7\x82:'
p357
tp358
Rp359
tp360
asg73
g32
sa(dp361
g2
S'../../../data/emanuela/activity-recognition/images/NTCIR-Lifelog-256/u2/2015-04-26/b00004417_21i7lf_20150426_183637e.jpg'
p362
sg4
(lp363
(g209
g6
(g18
S'\xd15\x03?'
p364
tp365
Rp366
tp367
a(g6
(g7
(S'S7'
p368
I0
I1
tp369
Rp370
(I3
S'|'
p371
NNNI7
I1
I0
tp372
bS'driving'
p373
tp374
Rp375
g6
(g18
S'\x8f\xbc\x10>'
p376
tp377
Rp378
tp379
a(g6
(g7
(S'S5'
p380
I0
I1
tp381
Rp382
(I3
S'|'
p383
NNNI5
I1
I0
tp384
bS'plane'
p385
tp386
Rp387
g6
(g18
S'\xdaL\x06>'
p388
tp389
Rp390
tp391
a(g32
g6
(g18
S'j\x0e\x94='
p392
tp393
Rp394
tp395
a(g352
g6
(g18
S'\x83L]='
p396
tp397
Rp398
tp399
asg73
g32
sa(dp400
g2
S'../../../data/emanuela/activity-recognition/images/NTCIR-Lifelog-256/u2/2015-05-04/b00004644_21i7lf_20150504_114141e.jpg'
p401
sg4
(lp402
(g92
g6
(g18
S'PM\xc9>'
p403
tp404
Rp405
tp406
a(g166
g6
(g18
S'Q%\x83>'
p407
tp408
Rp409
tp410
a(g68
g6
(g18
S'w\x1c\n>'
p411
tp412
Rp413
tp414
a(g233
g6
(g18
S'\xd4\xe7\xd6='
p415
tp416
Rp417
tp418
a(g150
g6
(g18
S'\x8c%\x86='
p419
tp420
Rp421
tp422
asg73
g32
sa(dp423
g2
S'../../../data/emanuela/activity-recognition/images/NTCIR-Lifelog-256/u2/2015-05-04/b00004742_21i7lf_20150504_125841e.jpg'
p424
sg4
(lp425
(g44
g6
(g18
S'|\x056?'
p426
tp427
Rp428
tp429
a(g32
g6
(g18
S'\xb6j\x90>'
p430
tp431
Rp432
tp433
a(g115
g6
(g18
S'\xbf\xb1\x03;'
p434
tp435
Rp436
tp437
a(g150
g6
(g18
S'Z\x7f\xa7:'
p438
tp439
Rp440
tp441
a(g15
g6
(g18
S'v\xcfr:'
p442
tp443
Rp444
tp445
asg73
g32
sa(dp446
g2
S'../../../data/emanuela/activity-recognition/images/NTCIR-Lifelog-256/u2/2015-05-04/b00004730_21i7lf_20150504_123428e.jpg'
p447
sg4
(lp448
(g150
g6
(g18
S' \x08\x14?'
p449
tp450
Rp451
tp452
a(g32
g6
(g18
S'\x10]H>'
p453
tp454
Rp455
tp456
a(g166
g6
(g18
S'YX\xbc='
p457
tp458
Rp459
tp460
a(g221
g6
(g18
S'\xf1\xbb~='
p461
tp462
Rp463
tp464
a(g44
g6
(g18
S'&+\xb9<'
p465
tp466
Rp467
tp468
asg73
g32
sa(dp469
g2
S'../../../data/emanuela/activity-recognition/images/NTCIR-Lifelog-256/u2/2015-04-26/b00004331_21i7lf_20150426_174555e.jpg'
p470
sg4
(lp471
(g92
g6
(g18
S'\xc3\xf1\x0e?'
p472
tp473
Rp474
tp475
a(g233
g6
(g18
S'\xdfP\x07>'
p476
tp477
Rp478
tp479
a(g68
g6
(g18
S'\xd6\x11\xdb='
p480
tp481
Rp482
tp483
a(g150
g6
(g18
S'bJ\x88='
p484
tp485
Rp486
tp487
a(g15
g6
(g18
S'\x98\x9f\x1c='
p488
tp489
Rp490
tp491
asg73
g32
sa(dp492
g2
S'../../../data/emanuela/activity-recognition/images/NTCIR-Lifelog-256/u2/2015-05-04/b00004924_21i7lf_20150504_183604e.jpg'
p493
sg4
(lp494
(g32
g6
(g18
S'\xbbT\xc3>'
p495
tp496
Rp497
tp498
a(g233
g6
(g18
S"'7X>"
p499
tp500
Rp501
tp502
a(g15
g6
(g18
S'\x17L\xe0='
p503
tp504
Rp505
tp506
a(g68
g6
(g18
S'\x9a\x95\xd1='
p507
tp508
Rp509
tp510
a(g92
g6
(g18
S'\xa4\x8e\x81='
p511
tp512
Rp513
tp514
asg73
g32
sa(dp515
g2
S'../../../data/emanuela/activity-recognition/images/NTCIR-Lifelog-256/u2/2015-05-02/b00003315_21i7lf_20150502_150210e.jpg'
p516
sg4
(lp517
(g32
g6
(g18
S'\xedv\x07?'
p518
tp519
Rp520
tp521
a(g44
g6
(g18
S'Mz\x9e>'
p522
tp523
Rp524
tp525
a(g15
g6
(g18
S'\x0e\xe2\xee<'
p526
tp527
Rp528
tp529
a(g150
g6
(g18
S'\x13W\xe8<'
p530
tp531
Rp532
tp533
a(g92
g6
(g18
S'r`\xb9<'
p534
tp535
Rp536
tp537
asg73
g32
sa(dp538
g2
S'../../../data/emanuela/activity-recognition/images/NTCIR-Lifelog-256/u2/2015-05-02/b00003330_21i7lf_20150502_151125e.jpg'
p539
sg4
(lp540
(g92
g6
(g18
S'\xf5\x84\xc0>'
p541
tp542
Rp543
tp544
a(g15
g6
(g18
S'\xaa\xd6\xbd>'
p545
tp546
Rp547
tp548
a(g32
g6
(g18
S',\xe5\xb9='
p549
tp550
Rp551
tp552
a(g56
g6
(g18
S'\xfaI\xa1='
p553
tp554
Rp555
tp556
a(g68
g6
(g18
S'\xfc\x11\x07='
p557
tp558
Rp559
tp560
asg73
g32
sa(dp561
g2
S'../../../data/emanuela/activity-recognition/images/NTCIR-Lifelog-256/u2/2015-05-04/b00004629_21i7lf_20150504_113226e.jpg'
p562
sg4
(lp563
(g221
g6
(g18
S'W\x8a8?'
p564
tp565
Rp566
tp567
a(g92
g6
(g18
S'\x0fi\x84='
p568
tp569
Rp570
tp571
a(g150
g6
(g18
S'[\xd3!='
p572
tp573
Rp574
tp575
a(g197
g6
(g18
S'\xbd\xc7\xf3<'
p576
tp577
Rp578
tp579
a(g209
g6
(g18
S'\x85\xf9\xd3<'
p580
tp581
Rp582
tp583
asg73
g32
sa(dp584
g2
S'../../../data/emanuela/activity-recognition/images/NTCIR-Lifelog-256/u2/2015-05-06/b00006262_21i7lf_20150506_073432e.jpg'
p585
sg4
(lp586
(g221
g6
(g18
S'\xcdz\xc4>'
p587
tp588
Rp589
tp590
a(g150
g6
(g18
S'\x85i\x89>'
p591
tp592
Rp593
tp594
a(g209
g6
(g18
S'\xbe\t\xb1='
p595
tp596
Rp597
tp598
a(g166
g6
(g18
S'\x85\x07b='
p599
tp600
Rp601
tp602
a(g15
g6
(g18
S',9C='
p603
tp604
Rp605
tp606
asg73
g32
sa(dp607
g2
S'../../../data/emanuela/activity-recognition/images/NTCIR-Lifelog-256/u2/2015-04-25/b00003067_21i7lf_20150425_115004e.jpg'
p608
sg4
(lp609
(g32
g6
(g18
S'$\xa5\x99>'
p610
tp611
Rp612
tp613
a(g197
g6
(g18
S'\x80$+>'
p614
tp615
Rp616
tp617
a(g15
g6
(g18
S'\x1e\xae\x1a>'
p618
tp619
Rp620
tp621
a(g44
g6
(g18
S'\xbf\xcb\xce='
p622
tp623
Rp624
tp625
a(g209
g6
(g18
S'\xe5\xf3\xaf='
p626
tp627
Rp628
tp629
asg73
g32
sa(dp630
g2
S'../../../data/emanuela/activity-recognition/images/NTCIR-Lifelog-256/u2/2015-04-26/b00004328_21i7lf_20150426_174313e.jpg'
p631
sg4
(lp632
(g150
g6
(g18
S'P\xb2\x02?'
p633
tp634
Rp635
tp636
a(g92
g6
(g18
S'\x9a!\n>'
p637
tp638
Rp639
tp640
a(g32
g6
(g18
S'\xc5t\xe1='
p641
tp642
Rp643
tp644
a(g166
g6
(g18
S'\xbd\xb0\xd5='
p645
tp646
Rp647
tp648
a(g15
g6
(g18
S'\xe8\x90\x9d<'
p649
tp650
Rp651
tp652
asg73
g32
sa(dp653
g2
S'../../../data/emanuela/activity-recognition/images/NTCIR-Lifelog-256/u2/2015-05-02/b00003230_21i7lf_20150502_140932e.jpg'
p654
sg4
(lp655
(g32
g6
(g18
S'w[\xc9>'
p656
tp657
Rp658
tp659
a(g44
g6
(g18
S'b{2>'
p660
tp661
Rp662
tp663
a(g92
g6
(g18
S'\x07H\x07>'
p664
tp665
Rp666
tp667
a(g233
g6
(g18
S'\xa7\x82\xc4='
p668
tp669
Rp670
tp671
a(g68
g6
(g18
S'\xb2\xd8\x93='
p672
tp673
Rp674
tp675
asg73
g32
sa(dp676
g2
S'../../../data/emanuela/activity-recognition/images/NTCIR-Lifelog-256/u2/2015-04-25/b00003041_21i7lf_20150425_113337e.jpg'
p677
sg4
(lp678
(g44
g6
(g18
S'\x08\xfe\xc8>'
p679
tp680
Rp681
tp682
a(g32
g6
(g18
S'\x8dQq>'
p683
tp684
Rp685
tp686
a(g209
g6
(g18
S'\xe3\x95I>'
p687
tp688
Rp689
tp690
a(g150
g6
(g18
S'\x82\x99P='
p691
tp692
Rp693
tp694
a(g221
g6
(g18
S'\xe9\x841='
p695
tp696
Rp697
tp698
asg73
g32
sa(dp699
g2
S'../../../data/emanuela/activity-recognition/images/NTCIR-Lifelog-256/u2/2015-05-02/b00003340_21i7lf_20150502_151739e.jpg'
p700
sg4
(lp701
(g15
g6
(g18
S'\xbc\x01\x8d>'
p702
tp703
Rp704
tp705
a(g68
g6
(g18
S'\xaa\xc1g>'
p706
tp707
Rp708
tp709
a(g32
g6
(g18
S'\xe4C\xee='
p710
tp711
Rp712
tp713
a(g56
g6
(g18
S'/\xac\xe7='
p714
tp715
Rp716
tp717
a(g92
g6
(g18
S'\xf4\x1f\x9e='
p718
tp719
Rp720
tp721
asg73
g32
sa(dp722
g2
S'../../../data/emanuela/activity-recognition/images/NTCIR-Lifelog-256/u2/2015-04-29/b00000141_21i7lf_20150429_182713e.jpg'
p723
sg4
(lp724
(g92
g6
(g18
S'\xab\x910?'
p725
tp726
Rp727
tp728
a(g166
g6
(g18
S',\x05m>'
p729
tp730
Rp731
tp732
a(g56
g6
(g18
S'%J\xbe<'
p733
tp734
Rp735
tp736
a(g150
g6
(g18
S'\x03\xab\xad<'
p737
tp738
Rp739
tp740
a(g178
g6
(g18
S'F\xe4\x07<'
p741
tp742
Rp743
tp744
asg73
g32
sa(dp745
g2
S'../../../data/emanuela/activity-recognition/images/NTCIR-Lifelog-256/u2/2015-05-02/b00003324_21i7lf_20150502_150739e.jpg'
p746
sg4
(lp747
(g15
g6
(g18
S'\xcco\xda>'
p748
tp749
Rp750
tp751
a(g32
g6
(g18
S'\xcc\n\xa1>'
p752
tp753
Rp754
tp755
a(g44
g6
(g18
S'+\xca\xc9='
p756
tp757
Rp758
tp759
a(g352
g6
(g18
S'P\x143='
p760
tp761
Rp762
tp763
a(g56
g6
(g18
S'\x80d\x07='
p764
tp765
Rp766
tp767
asg73
g32
sa(dp768
g2
S'../../../data/emanuela/activity-recognition/images/NTCIR-Lifelog-256/u2/2015-04-25/b00003030_21i7lf_20150425_112709e.jpg'
p769
sg4
(lp770
(g56
g6
(g18
S'\xbd;\xbf>'
p771
tp772
Rp773
tp774
a(g15
g6
(g18
S'\xf4b\x80>'
p775
tp776
Rp777
tp778
a(g44
g6
(g18
S'\xf4\xdej>'
p779
tp780
Rp781
tp782
a(g115
g6
(g18
S'\xb0\xeb\xbe='
p783
tp784
Rp785
tp786
a(g32
g6
(g18
S'nl\xfe<'
p787
tp788
Rp789
tp790
asg73
g32
sa(dp791
g2
S'../../../data/emanuela/activity-recognition/images/NTCIR-Lifelog-256/u2/2015-05-04/b00004631_21i7lf_20150504_113337e.jpg'
p792
sg4
(lp793
(g197
g6
(g18
S'}\xa8\x90>'
p794
tp795
Rp796
tp797
a(g150
g6
(g18
S"\xf8\x8a'>"
p798
tp799
Rp800
tp801
a(g209
g6
(g18
S's\xc9\x15>'
p802
tp803
Rp804
tp805
a(g233
g6
(g18
S'\x89\x90\x10>'
p806
tp807
Rp808
tp809
a(g32
g6
(g18
S'\xd1\xea_='
p810
tp811
Rp812
tp813
asg73
g32
sa(dp814
g2
S'../../../data/emanuela/activity-recognition/images/NTCIR-Lifelog-256/u2/2015-04-25/b00003048_21i7lf_20150425_113745e.jpg'
p815
sg4
(lp816
(g44
g6
(g18
S'9\x1c.?'
p817
tp818
Rp819
tp820
a(g32
g6
(g18
S'\xa4|`>'
p821
tp822
Rp823
tp824
a(g56
g6
(g18
S'\xa7Kj='
p825
tp826
Rp827
tp828
a(g15
g6
(g18
S'\xd2\x04\xee<'
p829
tp830
Rp831
tp832
a(g209
g6
(g18
S'\xc5$O;'
p833
tp834
Rp835
tp836
asg73
g32
sa(dp837
g2
S'../../../data/emanuela/activity-recognition/images/NTCIR-Lifelog-256/u2/2015-05-04/b00004816_21i7lf_20150504_134910e.jpg'
p838
sg4
(lp839
(g150
g6
(g18
S'\xb3S\x10?'
p840
tp841
Rp842
tp843
a(g6
(g7
(S'S15'
p844
I0
I1
tp845
Rp846
(I3
S'|'
p847
NNNI15
I1
I0
tp848
bS'walking outdoor'
p849
tp850
Rp851
g6
(g18
S'\x04d\x0c>'
p852
tp853
Rp854
tp855
a(g32
g6
(g18
S'\xbf0\x00>'
p856
tp857
Rp858
tp859
a(g92
g6
(g18
S'HWv='
p860
tp861
Rp862
tp863
a(g221
g6
(g18
S'\xfd\xeb$='
p864
tp865
Rp866
tp867
asg73
g32
sa(dp868
g2
S'../../../data/emanuela/activity-recognition/images/NTCIR-Lifelog-256/u2/2015-06-18/b00002462_21i7lf_20150618_082114e.jpg'
p869
sg4
(lp870
(g15
g6
(g18
S'|\t\xf6>'
p871
tp872
Rp873
tp874
a(g44
g6
(g18
S'l-\x91>'
p875
tp876
Rp877
tp878
a(g32
g6
(g18
S'\xc8+\r>'
p879
tp880
Rp881
tp882
a(g56
g6
(g18
S'\x1a\xc39='
p883
tp884
Rp885
tp886
a(g197
g6
(g18
S'$\xa6c<'
p887
tp888
Rp889
tp890
asg73
g32
sa(dp891
g2
S'../../../data/emanuela/activity-recognition/images/NTCIR-Lifelog-256/u2/2015-05-06/b00006241_21i7lf_20150506_071949e.jpg'
p892
sg4
(lp893
(g115
g6
(g18
S'!\x8d\xc8>'
p894
tp895
Rp896
tp897
a(g15
g6
(g18
S'\x82\x95%>'
p898
tp899
Rp900
tp901
a(g56
g6
(g18
S'\x1fY\x03>'
p902
tp903
Rp904
tp905
a(g68
g6
(g18
S'5L\xb7='
p906
tp907
Rp908
tp909
a(g44
g6
(g18
S'\xb0y*='
p910
tp911
Rp912
tp913
asg73
g32
sa(dp914
g2
S'../../../data/emanuela/activity-recognition/images/NTCIR-Lifelog-256/u2/2015-05-01/b00001718_21i7lf_20150501_082807e.jpg'
p915
sg4
(lp916
(g115
g6
(g18
S'\x9c{\n?'
p917
tp918
Rp919
tp920
a(g68
g6
(g18
S'\x7f\xda[>'
p921
tp922
Rp923
tp924
a(g56
g6
(g18
S'\x0c\x93\xc7='
p925
tp926
Rp927
tp928
a(g44
g6
(g18
S'\xd6a\xa6='
p929
tp930
Rp931
tp932
a(g15
g6
(g18
S'42\xca<'
p933
tp934
Rp935
tp936
asg73
g32
sa(dp937
g2
S'../../../data/emanuela/activity-recognition/images/NTCIR-Lifelog-256/u2/2015-04-25/b00003034_21i7lf_20150425_112928e.jpg'
p938
sg4
(lp939
(g44
g6
(g18
S'\xcfY\x0c?'
p940
tp941
Rp942
tp943
a(g32
g6
(g18
S"'\x85\x08>"
p944
tp945
Rp946
tp947
a(g166
g6
(g18
S'\n\x92\xc6='
p948
tp949
Rp950
tp951
a(g150
g6
(g18
S'.i}='
p952
tp953
Rp954
tp955
a(g209
g6
(g18
S'\xa7\x06$='
p956
tp957
Rp958
tp959
asg73
g32
sa(dp960
g2
S'../../../data/emanuela/activity-recognition/images/NTCIR-Lifelog-256/u2/2015-05-06/b00007244_21i7lf_20150506_192558e.jpg'
p961
sg4
(lp962
(g32
g6
(g18
S'%zx?'
p963
tp964
Rp965
tp966
a(g44
g6
(g18
S'\xbc\xb9\xd0;'
p967
tp968
Rp969
tp970
a(g15
g6
(g18
S'\x93\xf0\xca;'
p971
tp972
Rp973
tp974
a(g150
g6
(g18
S'e8\x87;'
p975
tp976
Rp977
tp978
a(g56
g6
(g18
S'w\xc5e;'
p979
tp980
Rp981
tp982
asg73
g32
sa(dp983
g2
S'../../../data/emanuela/activity-recognition/images/NTCIR-Lifelog-256/u2/2015-05-06/b00006248_21i7lf_20150506_072402e.jpg'
p984
sg4
(lp985
(g32
g6
(g18
S'\x85\xd2)?'
p986
tp987
Rp988
tp989
a(g44
g6
(g18
S'&%\x00>'
p990
tp991
Rp992
tp993
a(g92
g6
(g18
S'7Q\x98='
p994
tp995
Rp996
tp997
a(g15
g6
(g18
S'4d4='
p998
tp999
Rp1000
tp1001
a(g56
g6
(g18
S'(\xda\xc7<'
p1002
tp1003
Rp1004
tp1005
asg73
g32
sa(dp1006
g2
S'../../../data/emanuela/activity-recognition/images/NTCIR-Lifelog-256/u2/2015-05-04/b00004921_21i7lf_20150504_183410e.jpg'
p1007
sg4
(lp1008
(g44
g6
(g18
S'\x84E\x0e?'
p1009
tp1010
Rp1011
tp1012
a(g15
g6
(g18
S'\xbe\xd1;>'
p1013
tp1014
Rp1015
tp1016
a(g32
g6
(g18
S'9\x1b5>'
p1017
tp1018
Rp1019
tp1020
a(g56
g6
(g18
S'\xd5\x11N='
p1021
tp1022
Rp1023
tp1024
a(g115
g6
(g18
S'\xb5\xbf\xb9<'
p1025
tp1026
Rp1027
tp1028
asg73
g32
sa(dp1029
g2
S'../../../data/emanuela/activity-recognition/images/NTCIR-Lifelog-256/u2/2015-05-02/b00003316_21i7lf_20150502_150245e.jpg'
p1030
sg4
(lp1031
(g32
g6
(g18
S'\xa6\x8a\xd9>'
p1032
tp1033
Rp1034
tp1035
a(g44
g6
(g18
S'\xc9\xf8#>'
p1036
tp1037
Rp1038
tp1039
a(g150
g6
(g18
S'\xd0\xc8\x1d>'
p1040
tp1041
Rp1042
tp1043
a(g92
g6
(g18
S'\xd4B\x8b='
p1044
tp1045
Rp1046
tp1047
a(g851
g6
(g18
S'\x14\xd9y='
p1048
tp1049
Rp1050
tp1051
asg73
g32
sa(dp1052
g2
S'../../../data/emanuela/activity-recognition/images/NTCIR-Lifelog-256/u2/2015-04-26/b00004323_21i7lf_20150426_173957e.jpg'
p1053
sg4
(lp1054
(g233
g6
(g18
S'\xd9\xd8D?'
p1055
tp1056
Rp1057
tp1058
a(g150
g6
(g18
S'\x81f\x84='
p1059
tp1060
Rp1061
tp1062
a(g387
g6
(g18
S'\xf2\x04V='
p1063
tp1064
Rp1065
tp1066
a(g166
g6
(g18
S'\x0cq\x08='
p1067
tp1068
Rp1069
tp1070
a(g115
g6
(g18
S'\x08S\xc2<'
p1071
tp1072
Rp1073
tp1074
asg73
g32
sa(dp1075
g2
S'../../../data/emanuela/activity-recognition/images/NTCIR-Lifelog-256/u2/2015-05-06/b00007250_21i7lf_20150506_192940e.jpg'
p1076
sg4
(lp1077
(g68
g6
(g18
S'\xf8\x90\x16?'
p1078
tp1079
Rp1080
tp1081
a(g92
g6
(g18
S'\r\xac\x15>'
p1082
tp1083
Rp1084
tp1085
a(g15
g6
(g18
S'\x18\xaf\xc6='
p1086
tp1087
Rp1088
tp1089
a(g233
g6
(g18
S'\xef\x16Y='
p1090
tp1091
Rp1092
tp1093
a(g56
g6
(g18
S'a\x8e\xf0<'
p1094
tp1095
Rp1096
tp1097
asg73
g32
sa(dp1098
g2
S'../../../data/emanuela/activity-recognition/images/NTCIR-Lifelog-256/u2/2015-04-28/b00006268_21i7lf_20150428_083529e.jpg'
p1099
sg4
(lp1100
(g15
g6
(g18
S'g\x04\x98>'
p1101
tp1102
Rp1103
tp1104
a(g197
g6
(g18
S'\x9d\xa7P>'
p1105
tp1106
Rp1107
tp1108
a(g209
g6
(g18
S'\xc4o\xe5='
p1109
tp1110
Rp1111
tp1112
a(g221
g6
(g18
S'\x19\x8c\xa8='
p1113
tp1114
Rp1115
tp1116
a(g92
g6
(g18
S'ck\xa7='
p1117
tp1118
Rp1119
tp1120
asg73
g32
sa(dp1121
g2
S'../../../data/emanuela/activity-recognition/images/NTCIR-Lifelog-256/u2/2015-05-01/b00002625_21i7lf_20150501_184212e.jpg'
p1122
sg4
(lp1123
(g15
g6
(g18
S'\x89\xc1\x01?'
p1124
tp1125
Rp1126
tp1127
a(g68
g6
(g18
S'\x9b\x93\xdb='
p1128
tp1129
Rp1130
tp1131
a(g56
g6
(g18
S'\xb6\xb9\xd0='
p1132
tp1133
Rp1134
tp1135
a(g115
g6
(g18
S';Z\x82='
p1136
tp1137
Rp1138
tp1139
a(g32
g6
(g18
S'\xf9xP='
p1140
tp1141
Rp1142
tp1143
asg73
g32
sa(dp1144
g2
S'../../../data/emanuela/activity-recognition/images/NTCIR-Lifelog-256/u2/2015-05-04/b00004737_21i7lf_20150504_125532e.jpg'
p1145
sg4
(lp1146
(g32
g6
(g18
S'n#\xa1>'
p1147
tp1148
Rp1149
tp1150
a(g221
g6
(g18
S'\xc6\x97S>'
p1151
tp1152
Rp1153
tp1154
a(g197
g6
(g18
S'X\xf4\xfd='
p1155
tp1156
Rp1157
tp1158
a(g44
g6
(g18
S'\xc0\xbf\xf4='
p1159
tp1160
Rp1161
tp1162
a(g209
g6
(g18
S'\xe4A\xe3='
p1163
tp1164
Rp1165
tp1166
asg73
g32
sa(dp1167
g2
S'../../../data/emanuela/activity-recognition/images/NTCIR-Lifelog-256/u2/2015-04-25/b00003013_21i7lf_20150425_111606e.jpg'
p1168
sg4
(lp1169
(g150
g6
(g18
S'\xa4r\xd4>'
p1170
tp1171
Rp1172
tp1173
a(g68
g6
(g18
S'%\x88\xee='
p1174
tp1175
Rp1176
tp1177
a(g233
g6
(g18
S'\xd5\xf2\xb7='
p1178
tp1179
Rp1180
tp1181
a(g851
g6
(g18
S'\xab\xc1T='
p1182
tp1183
Rp1184
tp1185
a(g15
g6
(g18
S'\xa9\xfd<='
p1186
tp1187
Rp1188
tp1189
asg73
g32
sa(dp1190
g2
S'../../../data/emanuela/activity-recognition/images/NTCIR-Lifelog-256/u2/2015-04-29/b00000136_21i7lf_20150429_182335e.jpg'
p1191
sg4
(lp1192
(g92
g6
(g18
S'[;\xce>'
p1193
tp1194
Rp1195
tp1196
a(g56
g6
(g18
S'!re>'
p1197
tp1198
Rp1199
tp1200
a(g166
g6
(g18
S'\xbaT\xb9='
p1201
tp1202
Rp1203
tp1204
a(g150
g6
(g18
S'\t\xd1t='
p1205
tp1206
Rp1207
tp1208
a(g115
g6
(g18
S'\xbam;='
p1209
tp1210
Rp1211
tp1212
asg73
g32
sa(dp1213
g2
S'../../../data/emanuela/activity-recognition/images/NTCIR-Lifelog-256/u2/2015-05-06/b00006254_21i7lf_20150506_072740e.jpg'
p1214
sg4
(lp1215
(g32
g6
(g18
S'\xe0\xe5\x8a>'
p1216
tp1217
Rp1218
tp1219
a(g150
g6
(g18
S'\xb5T;>'
p1220
tp1221
Rp1222
tp1223
a(g166
g6
(g18
S'\x80\xa66>'
p1224
tp1225
Rp1226
tp1227
a(g92
g6
(g18
S'\x13\x8c\x08>'
p1228
tp1229
Rp1230
tp1231
a(g221
g6
(g18
S'\x11\x11)='
p1232
tp1233
Rp1234
tp1235
asg73
g32
sa(dp1236
g2
S'../../../data/emanuela/activity-recognition/images/NTCIR-Lifelog-256/u2/2015-04-25/b00003072_21i7lf_20150425_115347e.jpg'
p1237
sg4
(lp1238
(g15
g6
(g18
S'B\x8aK>'
p1239
tp1240
Rp1241
tp1242
a(g197
g6
(g18
S'L\xa9E>'
p1243
tp1244
Rp1245
tp1246
a(g221
g6
(g18
S"'\x84D>"
p1247
tp1248
Rp1249
tp1250
a(g209
g6
(g18
S'\x0f\x855>'
p1251
tp1252
Rp1253
tp1254
a(g32
g6
(g18
S'eV\x8c='
p1255
tp1256
Rp1257
tp1258
asg73
g32
sa(dp1259
g2
S'../../../data/emanuela/activity-recognition/images/NTCIR-Lifelog-256/u2/2015-05-04/b00004925_21i7lf_20150504_183642e.jpg'
p1260
sg4
(lp1261
(g32
g6
(g18
S'x\x13\x16?'
p1262
tp1263
Rp1264
tp1265
a(g197
g6
(g18
S'c\xacb>'
p1266
tp1267
Rp1268
tp1269
a(g15
g6
(g18
S'\x0f\xc7\x8b='
p1270
tp1271
Rp1272
tp1273
a(g44
g6
(g18
S'\xfe\xb7Z='
p1274
tp1275
Rp1276
tp1277
a(g233
g6
(g18
S'P\xd8T<'
p1278
tp1279
Rp1280
tp1281
asg73
g32
sa(dp1282
g2
S'../../../data/emanuela/activity-recognition/images/NTCIR-Lifelog-256/u2/2015-04-25/b00002960_21i7lf_20150425_103958e.jpg'
p1283
sg4
(lp1284
(g44
g6
(g18
S'\xb1\x9b\x1a?'
p1285
tp1286
Rp1287
tp1288
a(g92
g6
(g18
S'm.<>'
p1289
tp1290
Rp1291
tp1292
a(g32
g6
(g18
S'\xe2\xbb\x07>'
p1293
tp1294
Rp1295
tp1296
a(g68
g6
(g18
S'(\x95x<'
p1297
tp1298
Rp1299
tp1300
a(g115
g6
(g18
S'.\x7fp<'
p1301
tp1302
Rp1303
tp1304
asg73
g32
sa(dp1305
g2
S'../../../data/emanuela/activity-recognition/images/NTCIR-Lifelog-256/u2/2015-05-04/b00004739_21i7lf_20150504_125650e.jpg'
p1306
sg4
(lp1307
(g221
g6
(g18
S'\x819\xdb>'
p1308
tp1309
Rp1310
tp1311
a(g209
g6
(g18
S'\xdf5\xa7>'
p1312
tp1313
Rp1314
tp1315
a(g15
g6
(g18
S'\xe6\xe3\x97='
p1316
tp1317
Rp1318
tp1319
a(g92
g6
(g18
S'\xda\xd1\x14='
p1320
tp1321
Rp1322
tp1323
a(g32
g6
(g18
S'7\x93\xbd<'
p1324
tp1325
Rp1326
tp1327
asg73
g32
sa(dp1328
g2
S'../../../data/emanuela/activity-recognition/images/NTCIR-Lifelog-256/u2/2015-05-04/b00004696_21i7lf_20150504_121341e.jpg'
p1329
sg4
(lp1330
(g32
g6
(g18
S'\xdc\x81\x13?'
p1331
tp1332
Rp1333
tp1334
a(g150
g6
(g18
S'\xab\x04\xd5='
p1335
tp1336
Rp1337
tp1338
a(g15
g6
(g18
S'_\xc0\x8b='
p1339
tp1340
Rp1341
tp1342
a(g221
g6
(g18
S'\xce>d='
p1343
tp1344
Rp1345
tp1346
a(g44
g6
(g18
S'\x90\xdbD='
p1347
tp1348
Rp1349
tp1350
asg73
g32
sa(dp1351
g2
S'../../../data/emanuela/activity-recognition/images/NTCIR-Lifelog-256/u2/2015-04-29/b00000138_21i7lf_20150429_182522e.jpg'
p1352
sg4
(lp1353
(g92
g6
(g18
S'/Y9?'
p1354
tp1355
Rp1356
tp1357
a(g32
g6
(g18
S'\xee\x15\x90='
p1358
tp1359
Rp1360
tp1361
a(g6
(g7
(S'S2'
p1362
I0
I1
tp1363
Rp1364
(I3
S'|'
p1365
NNNI2
I1
I0
tp1366
bS'tv'
p1367
tp1368
Rp1369
g6
(g18
S'\xe3;b='
p1370
tp1371
Rp1372
tp1373
a(g221
g6
(g18
S'\xeaYC='
p1374
tp1375
Rp1376
tp1377
a(g15
g6
(g18
S'\x7fC\xff<'
p1378
tp1379
Rp1380
tp1381
asg73
g32
sa(dp1382
g2
S'../../../data/emanuela/activity-recognition/images/NTCIR-Lifelog-256/u2/2015-04-27/b00004910_21i7lf_20150427_083214e.jpg'
p1383
sg4
(lp1384
(g68
g6
(g18
S'\xcb\x95\xc5>'
p1385
tp1386
Rp1387
tp1388
a(g56
g6
(g18
S'\xa9N|>'
p1389
tp1390
Rp1391
tp1392
a(g15
g6
(g18
S'\t\xa6g>'
p1393
tp1394
Rp1395
tp1396
a(g92
g6
(g18
S'\xd2\x96S='
p1397
tp1398
Rp1399
tp1400
a(g197
g6
(g18
S'"p\xf2<'
p1401
tp1402
Rp1403
tp1404
asg73
g32
sa(dp1405
g2
S'../../../data/emanuela/activity-recognition/images/NTCIR-Lifelog-256/u2/2015-04-29/b00000858_21i7lf_20150429_162401e.jpg'
p1406
sg4
(lp1407
(g92
g6
(g18
S'\xf0\x02\xc4>'
p1408
tp1409
Rp1410
tp1411
a(g166
g6
(g18
S'\xee\x98\x87>'
p1412
tp1413
Rp1414
tp1415
a(g150
g6
(g18
S'\xee\n\xad='
p1416
tp1417
Rp1418
tp1419
a(g32
g6
(g18
S'\x92\xb7_='
p1420
tp1421
Rp1422
tp1423
a(g1369
g6
(g18
S'\x00)<='
p1424
tp1425
Rp1426
tp1427
asg73
g32
sa(dp1428
g2
S'../../../data/emanuela/activity-recognition/images/NTCIR-Lifelog-256/u2/2015-05-04/b00004785_21i7lf_20150504_132946e.jpg'
p1429
sg4
(lp1430
(g32
g6
(g18
S'\xbc\x8f\x92>'
p1431
tp1432
Rp1433
tp1434
a(g221
g6
(g18
S'\xa06\x80>'
p1435
tp1436
Rp1437
tp1438
a(g44
g6
(g18
S'\x10\xb8\xbc='
p1439
tp1440
Rp1441
tp1442
a(g92
g6
(g18
S'\xb9N\xa8='
p1443
tp1444
Rp1445
tp1446
a(g15
g6
(g18
S'\xe0\xed\xa3='
p1447
tp1448
Rp1449
tp1450
asg73
g32
sa(dp1451
g2
S'../../../data/emanuela/activity-recognition/images/NTCIR-Lifelog-256/u2/2015-05-05/b00005966_21i7lf_20150505_184014e.jpg'
p1452
sg4
(lp1453
(g68
g6
(g18
S'\xe7\x91\xaf>'
p1454
tp1455
Rp1456
tp1457
a(g115
g6
(g18
S'\xa3q\x8c>'
p1458
tp1459
Rp1460
tp1461
a(g56
g6
(g18
S'\xa1L\x17>'
p1462
tp1463
Rp1464
tp1465
a(g15
g6
(g18
S'\xbc\xf2\xe3='
p1466
tp1467
Rp1468
tp1469
a(g92
g6
(g18
S'\x86~\x00='
p1470
tp1471
Rp1472
tp1473
asg73
g32
sa(dp1474
g2
S'../../../data/emanuela/activity-recognition/images/NTCIR-Lifelog-256/u2/2015-04-25/b00003076_21i7lf_20150425_115610e.jpg'
p1475
sg4
(lp1476
(g44
g6
(g18
S';\x01%?'
p1477
tp1478
Rp1479
tp1480
a(g32
g6
(g18
S'\xa3;\xad>'
p1481
tp1482
Rp1483
tp1484
a(g56
g6
(g18
S'R\xbaD<'
p1485
tp1486
Rp1487
tp1488
a(g15
g6
(g18
S'%\xe3^;'
p1489
tp1490
Rp1491
tp1492
a(g352
g6
(g18
S'\x94K\x11:'
p1493
tp1494
Rp1495
tp1496
asg73
g32
sa(dp1497
g2
S'../../../data/emanuela/activity-recognition/images/NTCIR-Lifelog-256/u2/2015-04-22/b00000958_21i7lf_20150422_081259e.jpg'
p1498
sg4
(lp1499
(g15
g6
(g18
S'\xfa\x82\x83>'
p1500
tp1501
Rp1502
tp1503
a(g233
g6
(g18
S'\xd6ms>'
p1504
tp1505
Rp1506
tp1507
a(g92
g6
(g18
S'\x84YW>'
p1508
tp1509
Rp1510
tp1511
a(g32
g6
(g18
S'?<5>'
p1512
tp1513
Rp1514
tp1515
a(g68
g6
(g18
S'\x84\x16\x95='
p1516
tp1517
Rp1518
tp1519
asg73
g32
sa(dp1520
g2
S'../../../data/emanuela/activity-recognition/images/NTCIR-Lifelog-256/u2/2015-05-04/b00004758_21i7lf_20150504_130841e.jpg'
p1521
sg4
(lp1522
(g32
g6
(g18
S',:\xea>'
p1523
tp1524
Rp1525
tp1526
a(g44
g6
(g18
S'\xb3\x07\xc3>'
p1527
tp1528
Rp1529
tp1530
a(g150
g6
(g18
S'\xf6\xb5\x1e='
p1531
tp1532
Rp1533
tp1534
a(g15
g6
(g18
S'\xba\x10\xb4<'
p1535
tp1536
Rp1537
tp1538
a(g209
g6
(g18
S'\xa9\x17\x84<'
p1539
tp1540
Rp1541
tp1542
asg73
g32
sa(dp1543
g2
S'../../../data/emanuela/activity-recognition/images/NTCIR-Lifelog-256/u2/2015-05-02/b00003010_21i7lf_20150502_115431e.jpg'
p1544
sg4
(lp1545
(g32
g6
(g18
S'\x08\x86\xf9>'
p1546
tp1547
Rp1548
tp1549
a(g15
g6
(g18
S'\xc8\xd7b>'
p1550
tp1551
Rp1552
tp1553
a(g44
g6
(g18
S'3\xb5\xbb='
p1554
tp1555
Rp1556
tp1557
a(g150
g6
(g18
S'\r\xef\xa8='
p1558
tp1559
Rp1560
tp1561
a(g56
g6
(g18
S'\xfdM~='
p1562
tp1563
Rp1564
tp1565
asg73
g32
sa(dp1566
g2
S'../../../data/emanuela/activity-recognition/images/NTCIR-Lifelog-256/u2/2015-04-25/b00003065_21i7lf_20150425_114852e.jpg'
p1567
sg4
(lp1568
(g32
g6
(g18
S'\xacp\x1b?'
p1569
tp1570
Rp1571
tp1572
a(g44
g6
(g18
S'\xdc\xf5\xf6='
p1573
tp1574
Rp1575
tp1576
a(g15
g6
(g18
S'\xef\xc6\x8b='
p1577
tp1578
Rp1579
tp1580
a(g197
g6
(g18
S'\xfa\xb6\x18='
p1581
tp1582
Rp1583
tp1584
a(g209
g6
(g18
S'\x17\xc9\xed<'
p1585
tp1586
Rp1587
tp1588
asg73
g32
sa(dp1589
g2
S'../../../data/emanuela/activity-recognition/images/NTCIR-Lifelog-256/u2/2015-05-04/b00004687_21i7lf_20150504_120801e.jpg'
p1590
sg4
(lp1591
(g15
g6
(g18
S'zn\x8e>'
p1592
tp1593
Rp1594
tp1595
a(g32
g6
(g18
S'\xab\x18\x85>'
p1596
tp1597
Rp1598
tp1599
a(g56
g6
(g18
S'5O0>'
p1600
tp1601
Rp1602
tp1603
a(g92
g6
(g18
S'\xb7\xff\xd6='
p1604
tp1605
Rp1606
tp1607
a(g68
g6
(g18
S'\xf9\x89W='
p1608
tp1609
Rp1610
tp1611
asg73
g32
sa(dp1612
g2
S'../../../data/emanuela/activity-recognition/images/NTCIR-Lifelog-256/u2/2015-04-25/b00003100_21i7lf_20150425_122926e.jpg'
p1613
sg4
(lp1614
(g32
g6
(g18
S'\xb7\xd7!?'
p1615
tp1616
Rp1617
tp1618
a(g44
g6
(g18
S'\xb6\x0c,>'
p1619
tp1620
Rp1621
tp1622
a(g197
g6
(g18
S'mB\xce='
p1623
tp1624
Rp1625
tp1626
a(g221
g6
(g18
S'~;7='
p1627
tp1628
Rp1629
tp1630
a(g150
g6
(g18
S'FD\x99<'
p1631
tp1632
Rp1633
tp1634
asg73
g32
sa(dp1635
g2
S'../../../data/emanuela/activity-recognition/images/NTCIR-Lifelog-256/u2/2015-05-06/b00006251_21i7lf_20150506_072557e.jpg'
p1636
sg4
(lp1637
(g68
g6
(g18
S'\xf2\x00\x9a>'
p1638
tp1639
Rp1640
tp1641
a(g15
g6
(g18
S'\xe8\x8bh>'
p1642
tp1643
Rp1644
tp1645
a(g115
g6
(g18
S'\xf0`->'
p1646
tp1647
Rp1648
tp1649
a(g92
g6
(g18
S'8\xb7\xb1='
p1650
tp1651
Rp1652
tp1653
a(g851
g6
(g18
S'!\x95D='
p1654
tp1655
Rp1656
tp1657
asg73
g32
sa(dp1658
g2
S'../../../data/emanuela/activity-recognition/images/NTCIR-Lifelog-256/u2/2015-04-26/b00004652_21i7lf_20150426_210556e.jpg'
p1659
sg4
(lp1660
(g44
g6
(g18
S'jua?'
p1661
tp1662
Rp1663
tp1664
a(g32
g6
(g18
S'|w\xdb='
p1665
tp1666
Rp1667
tp1668
a(g92
g6
(g18
S'\xf6\xa19;'
p1669
tp1670
Rp1671
tp1672
a(g150
g6
(g18
S'Qa5;'
p1673
tp1674
Rp1675
tp1676
a(g115
g6
(g18
S'|S$;'
p1677
tp1678
Rp1679
tp1680
asg73
g32
sa(dp1681
g2
S'../../../data/emanuela/activity-recognition/images/NTCIR-Lifelog-256/u2/2015-05-01/b00001711_21i7lf_20150501_082342e.jpg'
p1682
sg4
(lp1683
(g115
g6
(g18
S'\xe9\x8dK?'
p1684
tp1685
Rp1686
tp1687
a(g68
g6
(g18
S'{\xe8\x8a='
p1688
tp1689
Rp1690
tp1691
a(g56
g6
(g18
S'\x02)y='
p1692
tp1693
Rp1694
tp1695
a(g15
g6
(g18
S'R\xdb\xe1<'
p1696
tp1697
Rp1698
tp1699
a(g44
g6
(g18
S'\x99\xbe\xaf<'
p1700
tp1701
Rp1702
tp1703
asg73
g32
sa(dp1704
g2
S'../../../data/emanuela/activity-recognition/images/NTCIR-Lifelog-256/u2/2015-05-02/b00003334_21i7lf_20150502_151354e.jpg'
p1705
sg4
(lp1706
(g15
g6
(g18
S'`\x93\x01?'
p1707
tp1708
Rp1709
tp1710
a(g851
g6
(g18
S'\xeb\xbbK>'
p1711
tp1712
Rp1713
tp1714
a(g233
g6
(g18
S'b=\xe7='
p1715
tp1716
Rp1717
tp1718
a(g68
g6
(g18
S'\xc5nh='
p1719
tp1720
Rp1721
tp1722
a(g32
g6
(g18
S'~\xaf\x1f='
p1723
tp1724
Rp1725
tp1726
asg73
g32
sa(dp1727
g2
S'../../../data/emanuela/activity-recognition/images/NTCIR-Lifelog-256/u2/2015-05-04/b00004628_21i7lf_20150504_113147e.jpg'
p1728
sg4
(lp1729
(g221
g6
(g18
S'\xfa,Z?'
p1730
tp1731
Rp1732
tp1733
a(g209
g6
(g18
S'\x82\xd1\x8b='
p1734
tp1735
Rp1736
tp1737
a(g197
g6
(g18
S'\xa8\xb0k='
p1738
tp1739
Rp1740
tp1741
a(g166
g6
(g18
S'\xc5]\xc5;'
p1742
tp1743
Rp1744
tp1745
a(g150
g6
(g18
S'\xa2\x0b\xc5;'
p1746
tp1747
Rp1748
tp1749
asg73
g32
sa(dp1750
g2
S'../../../data/emanuela/activity-recognition/images/NTCIR-Lifelog-256/u2/2015-05-04/b00004820_21i7lf_20150504_135133e.jpg'
p1751
sg4
(lp1752
(g15
g6
(g18
S',\xe7\xa0>'
p1753
tp1754
Rp1755
tp1756
a(g115
g6
(g18
S'F\xc7\x17>'
p1757
tp1758
Rp1759
tp1760
a(g209
g6
(g18
S'\xbd\xbc\xd6='
p1761
tp1762
Rp1763
tp1764
a(g221
g6
(g18
S'\xefd\x83='
p1765
tp1766
Rp1767
tp1768
a(g56
g6
(g18
S't"u='
p1769
tp1770
Rp1771
tp1772
asg73
g32
sa(dp1773
g2
S'../../../data/emanuela/activity-recognition/images/NTCIR-Lifelog-256/u2/2015-04-25/b00003051_21i7lf_20150425_113942e.jpg'
p1774
sg4
(lp1775
(g44
g6
(g18
S'\x8d&\xf4>'
p1776
tp1777
Rp1778
tp1779
a(g32
g6
(g18
S'\xf3g\xed>'
p1780
tp1781
Rp1782
tp1783
a(g15
g6
(g18
S'y\xd6\x03='
p1784
tp1785
Rp1786
tp1787
a(g56
g6
(g18
S'\xb9\x1e\xb7<'
p1788
tp1789
Rp1790
tp1791
a(g92
g6
(g18
S'K\x15~:'
p1792
tp1793
Rp1794
tp1795
asg73
g32
sa(dp1796
g2
S'../../../data/emanuela/activity-recognition/images/NTCIR-Lifelog-256/u2/2015-04-29/b00000146_21i7lf_20150429_183020e.jpg'
p1797
sg4
(lp1798
(g92
g6
(g18
S'\xe7\x8d\xf5>'
p1799
tp1800
Rp1801
tp1802
a(g1369
g6
(g18
S'\x8a\xb86>'
p1803
tp1804
Rp1805
tp1806
a(g166
g6
(g18
S'\xd6\xc4\xd1='
p1807
tp1808
Rp1809
tp1810
a(g15
g6
(g18
S'xK\x8c='
p1811
tp1812
Rp1813
tp1814
a(g32
g6
(g18
S'~\xa1C='
p1815
tp1816
Rp1817
tp1818
asg73
g32
sa(dp1819
g2
S'../../../data/emanuela/activity-recognition/images/NTCIR-Lifelog-256/u2/2015-05-08/b00008653_21i7lf_20150508_090057e.jpg'
p1820
sg4
(lp1821
(g32
g6
(g18
S'\xfeZ\x96>'
p1822
tp1823
Rp1824
tp1825
a(g150
g6
(g18
S'"\xb9O>'
p1826
tp1827
Rp1828
tp1829
a(g44
g6
(g18
S'\xe2\x8b\x1c>'
p1830
tp1831
Rp1832
tp1833
a(g209
g6
(g18
S'P=\xb7='
p1834
tp1835
Rp1836
tp1837
a(g221
g6
(g18
S'\x03\n\x91='
p1838
tp1839
Rp1840
tp1841
asg73
g32
sa(dp1842
g2
S'../../../data/emanuela/activity-recognition/images/NTCIR-Lifelog-256/u2/2015-04-26/b00004654_21i7lf_20150426_210704e.jpg'
p1843
sg4
(lp1844
(g32
g6
(g18
S'8\xa3\xff>'
p1845
tp1846
Rp1847
tp1848
a(g44
g6
(g18
S'\x96\x99[>'
p1849
tp1850
Rp1851
tp1852
a(g56
g6
(g18
S'\x89\x1e\xd6='
p1853
tp1854
Rp1855
tp1856
a(g92
g6
(g18
S'\xc8*\x83='
p1857
tp1858
Rp1859
tp1860
a(g15
g6
(g18
S'8\xf3f='
p1861
tp1862
Rp1863
tp1864
asg73
g32
sa(dp1865
g2
S'../../../data/emanuela/activity-recognition/images/NTCIR-Lifelog-256/u2/2015-04-25/b00003052_21i7lf_20150425_114017e.jpg'
p1866
sg4
(lp1867
(g44
g6
(g18
S'\xf8P\x05?'
p1868
tp1869
Rp1870
tp1871
a(g32
g6
(g18
S'-|\xb0>'
p1872
tp1873
Rp1874
tp1875
a(g15
g6
(g18
S'\x9c+\xc0='
p1876
tp1877
Rp1878
tp1879
a(g56
g6
(g18
S'1\x04\x94<'
p1880
tp1881
Rp1882
tp1883
a(g197
g6
(g18
S'\x13\x00e<'
p1884
tp1885
Rp1886
tp1887
asg73
g32
sa(dp1888
g2
S'../../../data/emanuela/activity-recognition/images/NTCIR-Lifelog-256/u2/2015-04-29/b00000088_21i7lf_20150429_175206e.jpg'
p1889
sg4
(lp1890
(g44
g6
(g18
S'+\x90U?'
p1891
tp1892
Rp1893
tp1894
a(g32
g6
(g18
S'\x0bJ\x13>'
p1895
tp1896
Rp1897
tp1898
a(g15
g6
(g18
S'\xbf*\xaa;'
p1899
tp1900
Rp1901
tp1902
a(g352
g6
(g18
S'T\x97\x82;'
p1903
tp1904
Rp1905
tp1906
a(g115
g6
(g18
S'\xda\x97r;'
p1907
tp1908
Rp1909
tp1910
asg73
g32
sa(dp1911
g2
S'../../../data/emanuela/activity-recognition/images/NTCIR-Lifelog-256/u2/2015-04-22/b00000949_21i7lf_20150422_080807e.jpg'
p1912
sg4
(lp1913
(g44
g6
(g18
S'(\x8f5?'
p1914
tp1915
Rp1916
tp1917
a(g32
g6
(g18
S'\xd9\xc2\x89>'
p1918
tp1919
Rp1920
tp1921
a(g15
g6
(g18
S'\x1e\xbf\x82<'
p1922
tp1923
Rp1924
tp1925
a(g150
g6
(g18
S'\xe2\x93\xbc:'
p1926
tp1927
Rp1928
tp1929
a(g56
g6
(g18
S'\xce-\xa6:'
p1930
tp1931
Rp1932
tp1933
asg73
g32
sa(dp1934
g2
S'../../../data/emanuela/activity-recognition/images/NTCIR-Lifelog-256/u2/2015-05-06/b00007252_21i7lf_20150506_193051e.jpg'
p1935
sg4
(lp1936
(g32
g6
(g18
S'\x99\xdb\xa1>'
p1937
tp1938
Rp1939
tp1940
a(g92
g6
(g18
S'\x9d\xf6H>'
p1941
tp1942
Rp1943
tp1944
a(g68
g6
(g18
S'5\r\x10>'
p1945
tp1946
Rp1947
tp1948
a(g851
g6
(g18
S'4?\x08>'
p1949
tp1950
Rp1951
tp1952
a(g15
g6
(g18
S'\xf6\x85\xd8='
p1953
tp1954
Rp1955
tp1956
asg73
g32
sa(dp1957
g2
S'../../../data/emanuela/activity-recognition/images/NTCIR-Lifelog-256/u2/2015-05-02/b00003323_21i7lf_20150502_150700e.jpg'
p1958
sg4
(lp1959
(g44
g6
(g18
S'\xd1)\xfa>'
p1960
tp1961
Rp1962
tp1963
a(g32
g6
(g18
S'\xc3\x8a\xd0>'
p1964
tp1965
Rp1966
tp1967
a(g56
g6
(g18
S'\xfc\xf3\x88<'
p1968
tp1969
Rp1970
tp1971
a(g150
g6
(g18
S'v\xbdX<'
p1972
tp1973
Rp1974
tp1975
a(g92
g6
(g18
S'S\x91S<'
p1976
tp1977
Rp1978
tp1979
asg73
g32
sa(dp1980
g2
S'../../../data/emanuela/activity-recognition/images/NTCIR-Lifelog-256/u2/2015-04-28/b00006269_21i7lf_20150428_083605e.jpg'
p1981
sg4
(lp1982
(g92
g6
(g18
S'\\a\x92>'
p1983
tp1984
Rp1985
tp1986
a(g32
g6
(g18
S'Z\x7fB>'
p1987
tp1988
Rp1989
tp1990
a(g166
g6
(g18
S'\x06\x18\x15>'
p1991
tp1992
Rp1993
tp1994
a(g44
g6
(g18
S'\x9e\xbe\xea='
p1995
tp1996
Rp1997
tp1998
a(g221
g6
(g18
S'\x89\x80\xa5='
p1999
tp2000
Rp2001
tp2002
asg73
g32
sa(dp2003
g2
S'../../../data/emanuela/activity-recognition/images/NTCIR-Lifelog-256/u2/2015-06-18/b00002463_21i7lf_20150618_082155e.jpg'
p2004
sg4
(lp2005
(g92
g6
(g18
S'*\xe1I?'
p2006
tp2007
Rp2008
tp2009
a(g32
g6
(g18
S'9<\x0f='
p2010
tp2011
Rp2012
tp2013
a(g197
g6
(g18
S'\xc1\xe4\x05='
p2014
tp2015
Rp2016
tp2017
a(g68
g6
(g18
S'%\r\xfd<'
p2018
tp2019
Rp2020
tp2021
a(g851
g6
(g18
S'B\x0b\x8f<'
p2022
tp2023
Rp2024
tp2025
asg73
g32
sa(dp2026
g2
S'../../../data/emanuela/activity-recognition/images/NTCIR-Lifelog-256/u2/2015-04-25/b00003003_21i7lf_20150425_110842e.jpg'
p2027
sg4
(lp2028
(g150
g6
(g18
S'\x80v\xbd>'
p2029
tp2030
Rp2031
tp2032
a(g197
g6
(g18
S'\xc8V2>'
p2033
tp2034
Rp2035
tp2036
a(g32
g6
(g18
S'\xdd\xf9\xfe='
p2037
tp2038
Rp2039
tp2040
a(g221
g6
(g18
S'a.\xd9='
p2041
tp2042
Rp2043
tp2044
a(g15
g6
(g18
S'\xef=N='
p2045
tp2046
Rp2047
tp2048
asg73
g32
sa(dp2049
g2
S'../../../data/emanuela/activity-recognition/images/NTCIR-Lifelog-256/u2/2015-05-01/b00002629_21i7lf_20150501_184442e.jpg'
p2050
sg4
(lp2051
(g32
g6
(g18
S'\xf2\x1a\xff>'
p2052
tp2053
Rp2054
tp2055
a(g15
g6
(g18
S'4\xcb\x12>'
p2056
tp2057
Rp2058
tp2059
a(g44
g6
(g18
S'\xae\xa6\x0c>'
p2060
tp2061
Rp2062
tp2063
a(g115
g6
(g18
S'\xb4\x18\xbe='
p2064
tp2065
Rp2066
tp2067
a(g68
g6
(g18
S'\x0e\x0c\x0b='
p2068
tp2069
Rp2070
tp2071
asg73
g32
sa(dp2072
g2
S'../../../data/emanuela/activity-recognition/images/NTCIR-Lifelog-256/u2/2015-05-01/b00002622_21i7lf_20150501_184025e.jpg'
p2073
sg4
(lp2074
(g115
g6
(g18
S'O\xcd7?'
p2075
tp2076
Rp2077
tp2078
a(g68
g6
(g18
S'\x9f\x81\x19>'
p2079
tp2080
Rp2081
tp2082
a(g32
g6
(g18
S'je\xcd<'
p2083
tp2084
Rp2085
tp2086
a(g56
g6
(g18
S'jU\xc3<'
p2087
tp2088
Rp2089
tp2090
a(g150
g6
(g18
S'c\xdc\xbe<'
p2091
tp2092
Rp2093
tp2094
asg73
g32
sa(dp2095
g2
S'../../../data/emanuela/activity-recognition/images/NTCIR-Lifelog-256/u2/2015-05-04/b00004709_21i7lf_20150504_122141e.jpg'
p2096
sg4
(lp2097
(g166
g6
(g18
S'I6\x00?'
p2098
tp2099
Rp2100
tp2101
a(g150
g6
(g18
S'\xbaW\xba>'
p2102
tp2103
Rp2104
tp2105
a(g233
g6
(g18
S'\xcf\x1c ='
p2106
tp2107
Rp2108
tp2109
a(g68
g6
(g18
S'E\x97\xbb<'
p2110
tp2111
Rp2112
tp2113
a(g178
g6
(g18
S'\x1b#p<'
p2114
tp2115
Rp2116
tp2117
asg73
g32
sa(dp2118
g2
S'../../../data/emanuela/activity-recognition/images/NTCIR-Lifelog-256/u2/2015-05-01/b00001719_21i7lf_20150501_082848e.jpg'
p2119
sg4
(lp2120
(g15
g6
(g18
S'\x12*\xb7>'
p2121
tp2122
Rp2123
tp2124
a(g32
g6
(g18
S"\xf61'>"
p2125
tp2126
Rp2127
tp2128
a(g56
g6
(g18
S'\x1a\xcc\x1d>'
p2129
tp2130
Rp2131
tp2132
a(g44
g6
(g18
S'\x05)\x1d>'
p2133
tp2134
Rp2135
tp2136
a(g115
g6
(g18
S'\xb5g\xeb='
p2137
tp2138
Rp2139
tp2140
asg73
g32
sa(dp2141
g2
S'../../../data/emanuela/activity-recognition/images/NTCIR-Lifelog-256/u2/2015-04-24/b00001871_21i7lf_20150424_083023e.jpg'
p2142
sg4
(lp2143
(g150
g6
(g18
S'\xf2{\x87>'
p2144
tp2145
Rp2146
tp2147
a(g233
g6
(g18
S'\xa1\xdfM>'
p2148
tp2149
Rp2150
tp2151
a(g32
g6
(g18
S' v)>'
p2152
tp2153
Rp2154
tp2155
a(g851
g6
(g18
S'\xcf5 >'
p2156
tp2157
Rp2158
tp2159
a(g92
g6
(g18
S'!\x05^='
p2160
tp2161
Rp2162
tp2163
asg73
g32
sa(dp2164
g2
S'../../../data/emanuela/activity-recognition/images/NTCIR-Lifelog-256/u2/2015-05-04/b00004700_21i7lf_20150504_121608e.jpg'
p2165
sg4
(lp2166
(g221
g6
(g18
S'D\x06Y>'
p2167
tp2168
Rp2169
tp2170
a(g44
g6
(g18
S'\x9d\xb4X>'
p2171
tp2172
Rp2173
tp2174
a(g32
g6
(g18
S'J\xb4\x0c>'
p2175
tp2176
Rp2177
tp2178
a(g150
g6
(g18
S'\x19\xbd\xfc='
p2179
tp2180
Rp2181
tp2182
a(g197
g6
(g18
S'E\xd9\xb3='
p2183
tp2184
Rp2185
tp2186
asg73
g32
sa(dp2187
g2
S'../../../data/emanuela/activity-recognition/images/NTCIR-Lifelog-256/u2/2015-05-06/b00007249_21i7lf_20150506_192859e.jpg'
p2188
sg4
(lp2189
(g15
g6
(g18
S'\x00~\x0b?'
p2190
tp2191
Rp2192
tp2193
a(g375
g6
(g18
S'\x88\xec\x06>'
p2194
tp2195
Rp2196
tp2197
a(g32
g6
(g18
S'\xa5W\xf2='
p2198
tp2199
Rp2200
tp2201
a(g150
g6
(g18
S'b\xe6\x80='
p2202
tp2203
Rp2204
tp2205
a(g851
g6
(g18
S'\x8c\xf5S='
p2206
tp2207
Rp2208
tp2209
asg73
g32
sa(dp2210
g2
S'../../../data/emanuela/activity-recognition/images/NTCIR-Lifelog-256/u2/2015-06-18/b00002461_21i7lf_20150618_081834e.jpg'
p2211
sg4
(lp2212
(g15
g6
(g18
S'!c<>'
p2213
tp2214
Rp2215
tp2216
a(g233
g6
(g18
S'\xd1\x18\x17>'
p2217
tp2218
Rp2219
tp2220
a(g851
g6
(g18
S'\x14 \xd7='
p2221
tp2222
Rp2223
tp2224
a(g32
g6
(g18
S'?8\xd6='
p2225
tp2226
Rp2227
tp2228
a(g150
g6
(g18
S'\x15\n\xb7='
p2229
tp2230
Rp2231
tp2232
asg73
g32
sa(dp2233
g2
S'../../../data/emanuela/activity-recognition/images/NTCIR-Lifelog-256/u2/2015-05-05/b00005965_21i7lf_20150505_183935e.jpg'
p2234
sg4
(lp2235
(g68
g6
(g18
S'\xbe\xfb\xcb>'
p2236
tp2237
Rp2238
tp2239
a(g56
g6
(g18
S'mo\x89>'
p2240
tp2241
Rp2242
tp2243
a(g115
g6
(g18
S'P\xcc\x1e>'
p2244
tp2245
Rp2246
tp2247
a(g15
g6
(g18
S'\xec\xf8\xf4='
p2248
tp2249
Rp2250
tp2251
a(g92
g6
(g18
S'\x1eO\x0f='
p2252
tp2253
Rp2254
tp2255
asg73
g32
sa(dp2256
g2
S'../../../data/emanuela/activity-recognition/images/NTCIR-Lifelog-256/u2/2015-05-06/b00007251_21i7lf_20150506_193014e.jpg'
p2257
sg4
(lp2258
(g15
g6
(g18
S'\x9cl9?'
p2259
tp2260
Rp2261
tp2262
a(g68
g6
(g18
S'\x17^\x98='
p2263
tp2264
Rp2265
tp2266
a(g197
g6
(g18
S'S^Z='
p2267
tp2268
Rp2269
tp2270
a(g32
g6
(g18
S'\xb4\xfe\x11='
p2271
tp2272
Rp2273
tp2274
a(g56
g6
(g18
S'\x1a\x17\xed<'
p2275
tp2276
Rp2277
tp2278
asg73
g32
sa(dp2279
g2
S'../../../data/emanuela/activity-recognition/images/NTCIR-Lifelog-256/u2/2015-04-27/b00004917_21i7lf_20150427_083628e.jpg'
p2280
sg4
(lp2281
(g68
g6
(g18
S'f\x94\xec>'
p2282
tp2283
Rp2284
tp2285
a(g15
g6
(g18
S'\x137\x17>'
p2286
tp2287
Rp2288
tp2289
a(g115
g6
(g18
S'L\xb3\x0b>'
p2290
tp2291
Rp2292
tp2293
a(g56
g6
(g18
S'\xfb\xb0\xe1='
p2294
tp2295
Rp2296
tp2297
a(g197
g6
(g18
S'\xf4\x86\x9f='
p2298
tp2299
Rp2300
tp2301
asg73
g32
sa(dp2302
g2
S'../../../data/emanuela/activity-recognition/images/NTCIR-Lifelog-256/u2/2015-05-04/b00004679_21i7lf_20150504_120305e.jpg'
p2303
sg4
(lp2304
(g32
g6
(g18
S"'\xdc:?"
p2305
tp2306
Rp2307
tp2308
a(g44
g6
(g18
S'\xbe\x1c\x9c='
p2309
tp2310
Rp2311
tp2312
a(g92
g6
(g18
S'\x14gP='
p2313
tp2314
Rp2315
tp2316
a(g56
g6
(g18
S'\xff`.='
p2317
tp2318
Rp2319
tp2320
a(g15
g6
(g18
S'QR)='
p2321
tp2322
Rp2323
tp2324
asg73
g32
sa(dp2325
g2
S'../../../data/emanuela/activity-recognition/images/NTCIR-Lifelog-256/u2/2015-04-29/b00000299_21i7lf_20150429_200614e.jpg'
p2326
sg4
(lp2327
(g15
g6
(g18
S'\x1eM\x81>'
p2328
tp2329
Rp2330
tp2331
a(g92
g6
(g18
S'\x82"v>'
p2332
tp2333
Rp2334
tp2335
a(g32
g6
(g18
S'\xf7\x01\x1b>'
p2336
tp2337
Rp2338
tp2339
a(g56
g6
(g18
S'\xc7\x01\xce='
p2340
tp2341
Rp2342
tp2343
a(g115
g6
(g18
S'\x84M\x9b='
p2344
tp2345
Rp2346
tp2347
asg73
g32
sa(dp2348
g2
S'../../../data/emanuela/activity-recognition/images/NTCIR-Lifelog-256/u2/2015-04-30/b00000733_21i7lf_20150430_101058e.jpg'
p2349
sg4
(lp2350
(g1369
g6
(g18
S'<g\x96>'
p2351
tp2352
Rp2353
tp2354
a(g352
g6
(g18
S'\xfa\x82a>'
p2355
tp2356
Rp2357
tp2358
a(g197
g6
(g18
S'\xa8\x186>'
p2359
tp2360
Rp2361
tp2362
a(g221
g6
(g18
S'\xa9\x9c\x0c>'
p2363
tp2364
Rp2365
tp2366
a(g15
g6
(g18
S'\xa7\x9a\xa3='
p2367
tp2368
Rp2369
tp2370
asg73
g32
sa(dp2371
g2
S'../../../data/emanuela/activity-recognition/images/NTCIR-Lifelog-256/u2/2015-04-25/b00003011_21i7lf_20150425_111416e.jpg'
p2372
sg4
(lp2373
(g150
g6
(g18
S'\xea\x07@?'
p2374
tp2375
Rp2376
tp2377
a(g166
g6
(g18
S'\xcf\x80)='
p2378
tp2379
Rp2380
tp2381
a(g233
g6
(g18
S'\xfb\xfc\x0b='
p2382
tp2383
Rp2384
tp2385
a(g32
g6
(g18
S'\xb2\x02\xdf<'
p2386
tp2387
Rp2388
tp2389
a(g44
g6
(g18
S'\xcc0\xc3<'
p2390
tp2391
Rp2392
tp2393
asg73
g32
sa(dp2394
g2
S'../../../data/emanuela/activity-recognition/images/NTCIR-Lifelog-256/u2/2015-04-30/b00000632_21i7lf_20150430_085010e.jpg'
p2395
sg4
(lp2396
(g68
g6
(g18
S'\xc8\xb0-?'
p2397
tp2398
Rp2399
tp2400
a(g92
g6
(g18
S'R\x99,>'
p2401
tp2402
Rp2403
tp2404
a(g56
g6
(g18
S'\xea\xd9\x95='
p2405
tp2406
Rp2407
tp2408
a(g15
g6
(g18
S'b\xd5\xe9<'
p2409
tp2410
Rp2411
tp2412
a(g115
g6
(g18
S'\x07\xab\xbe<'
p2413
tp2414
Rp2415
tp2416
asg73
g32
sa(dp2417
g2
S'../../../data/emanuela/activity-recognition/images/NTCIR-Lifelog-256/u2/2015-05-04/b00004715_21i7lf_20150504_122517e.jpg'
p2418
sg4
(lp2419
(g32
g6
(g18
S'\xdf\xee&?'
p2420
tp2421
Rp2422
tp2423
a(g44
g6
(g18
S'\xb0\x05\x99>'
p2424
tp2425
Rp2426
tp2427
a(g56
g6
(g18
S'b\xbe\x89<'
p2428
tp2429
Rp2430
tp2431
a(g15
g6
(g18
S'^\xfdZ<'
p2432
tp2433
Rp2434
tp2435
a(g197
g6
(g18
S'\xeb@x;'
p2436
tp2437
Rp2438
tp2439
asg73
g32
sa(dp2440
g2
S'../../../data/emanuela/activity-recognition/images/NTCIR-Lifelog-256/u2/2015-06-18/b00002459_21i7lf_20150618_081707e.jpg'
p2441
sg4
(lp2442
(g44
g6
(g18
S'\x87\x1e\xb9>'
p2443
tp2444
Rp2445
tp2446
a(g15
g6
(g18
S'T\xe3\x1b>'
p2447
tp2448
Rp2449
tp2450
a(g115
g6
(g18
S'\x1e\x11\x12>'
p2451
tp2452
Rp2453
tp2454
a(g56
g6
(g18
S'9\r\xe0='
p2455
tp2456
Rp2457
tp2458
a(g68
g6
(g18
S'\x0e,\xc7='
p2459
tp2460
Rp2461
tp2462
asg73
g32
sa(dp2463
g2
S'../../../data/emanuela/activity-recognition/images/NTCIR-Lifelog-256/u2/2015-05-04/b00004752_21i7lf_20150504_130458e.jpg'
p2464
sg4
(lp2465
(g44
g6
(g18
S'\x03\xc7!?'
p2466
tp2467
Rp2468
tp2469
a(g32
g6
(g18
S'\x0e\xeb\xba>'
p2470
tp2471
Rp2472
tp2473
a(g15
g6
(g18
S'\xcbz\xa1:'
p2474
tp2475
Rp2476
tp2477
a(g56
g6
(g18
S'\x97 ":'
p2478
tp2479
Rp2480
tp2481
a(g115
g6
(g18
S'\xf7\x88\xbf9'
p2482
tp2483
Rp2484
tp2485
asg73
g32
sa(dp2486
g2
S'../../../data/emanuela/activity-recognition/images/NTCIR-Lifelog-256/u2/2015-04-27/b00004923_21i7lf_20150427_084009e.jpg'
p2487
sg4
(lp2488
(g32
g6
(g18
S'z\x15\x1b?'
p2489
tp2490
Rp2491
tp2492
a(g44
g6
(g18
S'D\xda\xa9='
p2493
tp2494
Rp2495
tp2496
a(g68
g6
(g18
S'\xb6q\x7f='
p2497
tp2498
Rp2499
tp2500
a(g15
g6
(g18
S'\x82\xa6r='
p2501
tp2502
Rp2503
tp2504
a(g56
g6
(g18
S'\xb4\rG='
p2505
tp2506
Rp2507
tp2508
asg73
g32
sa(dp2509
g2
S'../../../data/emanuela/activity-recognition/images/NTCIR-Lifelog-256/u2/2015-05-04/b00004819_21i7lf_20150504_135052e.jpg'
p2510
sg4
(lp2511
(g92
g6
(g18
S'\xc1\xd2\xeb>'
p2512
tp2513
Rp2514
tp2515
a(g233
g6
(g18
S'\xf8\xe8\xc3='
p2516
tp2517
Rp2518
tp2519
a(g32
g6
(g18
S'\xebb\xb2='
p2520
tp2521
Rp2522
tp2523
a(g15
g6
(g18
S'\xd1\xa3\xa0='
p2524
tp2525
Rp2526
tp2527
a(g851
g6
(g18
S'=\xb5>='
p2528
tp2529
Rp2530
tp2531
asg73
g32
sa(dp2532
g2
S'../../../data/emanuela/activity-recognition/images/NTCIR-Lifelog-256/u2/2015-05-03/b00004314_21i7lf_20150503_202607e.jpg'
p2533
sg4
(lp2534
(g115
g6
(g18
S'\xd8Z\x0e?'
p2535
tp2536
Rp2537
tp2538
a(g44
g6
(g18
S'IC\x81>'
p2539
tp2540
Rp2541
tp2542
a(g68
g6
(g18
S'\x83\xb8\xa0='
p2543
tp2544
Rp2545
tp2546
a(g32
g6
(g18
S'\xe3\xcb]='
p2547
tp2548
Rp2549
tp2550
a(g56
g6
(g18
S'\xc0U\xf0<'
p2551
tp2552
Rp2553
tp2554
asg73
g32
sa(dp2555
g2
S'../../../data/emanuela/activity-recognition/images/NTCIR-Lifelog-256/u2/2015-05-04/b00004784_21i7lf_20150504_132905e.jpg'
p2556
sg4
(lp2557
(g32
g6
(g18
S'\x15\x19Y>'
p2558
tp2559
Rp2560
tp2561
a(g44
g6
(g18
S'\xe0\x99)>'
p2562
tp2563
Rp2564
tp2565
a(g209
g6
(g18
S'_\xa2\x0e>'
p2566
tp2567
Rp2568
tp2569
a(g221
g6
(g18
S'H%\x02>'
p2570
tp2571
Rp2572
tp2573
a(g150
g6
(g18
S'Y\xd7\xe4='
p2574
tp2575
Rp2576
tp2577
asg73
g32
sa(dp2578
g2
S'../../../data/emanuela/activity-recognition/images/NTCIR-Lifelog-256/u2/2015-05-04/b00004813_21i7lf_20150504_134718e.jpg'
p2579
sg4
(lp2580
(g115
g6
(g18
S'\x87/\xe8>'
p2581
tp2582
Rp2583
tp2584
a(g150
g6
(g18
S'8\xfd\x12>'
p2585
tp2586
Rp2587
tp2588
a(g166
g6
(g18
S'\xed\x10\xad='
p2589
tp2590
Rp2591
tp2592
a(g15
g6
(g18
S'\x7feD='
p2593
tp2594
Rp2595
tp2596
a(g197
g6
(g18
S'"\x07\x1c='
p2597
tp2598
Rp2599
tp2600
asg73
g32
sa(dp2601
g2
S'../../../data/emanuela/activity-recognition/images/NTCIR-Lifelog-256/u2/2015-05-02/b00003343_21i7lf_20150502_151928e.jpg'
p2602
sg4
(lp2603
(g68
g6
(g18
S'\xfd\xc4\xe4>'
p2604
tp2605
Rp2606
tp2607
a(g92
g6
(g18
S'\x01/v>'
p2608
tp2609
Rp2610
tp2611
a(g32
g6
(g18
S'6\xfd:>'
p2612
tp2613
Rp2614
tp2615
a(g15
g6
(g18
S'\xfe\xd2y='
p2616
tp2617
Rp2618
tp2619
a(g56
g6
(g18
S'\xe6\xda\xc8<'
p2620
tp2621
Rp2622
tp2623
asg73
g32
sa(dp2624
g2
S'../../../data/emanuela/activity-recognition/images/NTCIR-Lifelog-256/u2/2015-04-26/b00004118_21i7lf_20150426_152440e.jpg'
p2625
sg4
(lp2626
(g56
g6
(g18
S'\x9e\xad\x81>'
p2627
tp2628
Rp2629
tp2630
a(g15
g6
(g18
S'\xd4\xf3W>'
p2631
tp2632
Rp2633
tp2634
a(g92
g6
(g18
S'0F=>'
p2635
tp2636
Rp2637
tp2638
a(g32
g6
(g18
S'\x9fX0>'
p2639
tp2640
Rp2641
tp2642
a(g44
g6
(g18
S']x\x88='
p2643
tp2644
Rp2645
tp2646
asg73
g32
sa(dp2647
g2
S'../../../data/emanuela/activity-recognition/images/NTCIR-Lifelog-256/u2/2015-05-04/b00004747_21i7lf_20150504_130155e.jpg'
p2648
sg4
(lp2649
(g44
g6
(g18
S'\xf0\xabB?'
p2650
tp2651
Rp2652
tp2653
a(g32
g6
(g18
S'\xe1\xe7\xb0='
p2654
tp2655
Rp2656
tp2657
a(g209
g6
(g18
S'\x03\x14b='
p2658
tp2659
Rp2660
tp2661
a(g197
g6
(g18
S'\x8bM\x08='
p2662
tp2663
Rp2664
tp2665
a(g15
g6
(g18
S'\xa9\xc5\x84<'
p2666
tp2667
Rp2668
tp2669
asg73
g32
sa(dp2670
g2
S'../../../data/emanuela/activity-recognition/images/NTCIR-Lifelog-256/u2/2015-04-29/b00000296_21i7lf_20150429_200429e.jpg'
p2671
sg4
(lp2672
(g32
g6
(g18
S'H\xac\xb9>'
p2673
tp2674
Rp2675
tp2676
a(g68
g6
(g18
S'T\x10\xcc='
p2677
tp2678
Rp2679
tp2680
a(g56
g6
(g18
S'\xdb\xda\xc3='
p2681
tp2682
Rp2683
tp2684
a(g15
g6
(g18
S'b\x1f\xac='
p2685
tp2686
Rp2687
tp2688
a(g851
g6
(g18
S'\xa1{\x93='
p2689
tp2690
Rp2691
tp2692
asg73
g32
sa(dp2693
g2
S'../../../data/emanuela/activity-recognition/images/NTCIR-Lifelog-256/u2/2015-04-22/b00000982_21i7lf_20150422_082729e.jpg'
p2694
sg4
(lp2695
(g44
g6
(g18
S'\x96.l?'
p2696
tp2697
Rp2698
tp2699
a(g32
g6
(g18
S'\x9b\x8b1='
p2700
tp2701
Rp2702
tp2703
a(g115
g6
(g18
S'\xa8n\xe4<'
p2704
tp2705
Rp2706
tp2707
a(g56
g6
(g18
S'~U?;'
p2708
tp2709
Rp2710
tp2711
a(g150
g6
(g18
S'\x16\x82\xbd:'
p2712
tp2713
Rp2714
tp2715
asg73
g32
sa(dp2716
g2
S'../../../data/emanuela/activity-recognition/images/NTCIR-Lifelog-256/u2/2015-05-01/b00002619_21i7lf_20150501_183842e.jpg'
p2717
sg4
(lp2718
(g32
g6
(g18
S'\x9dU\xaf>'
p2719
tp2720
Rp2721
tp2722
a(g44
g6
(g18
S'\xcc\x96\x84>'
p2723
tp2724
Rp2725
tp2726
a(g115
g6
(g18
S'\xe0\xfeJ>'
p2727
tp2728
Rp2729
tp2730
a(g56
g6
(g18
S'\x0e\xd3V='
p2731
tp2732
Rp2733
tp2734
a(g15
g6
(g18
S'\x89\x98"='
p2735
tp2736
Rp2737
tp2738
asg73
g32
sa(dp2739
g2
S'../../../data/emanuela/activity-recognition/images/NTCIR-Lifelog-256/u2/2015-04-29/b00000140_21i7lf_20150429_182635e.jpg'
p2740
sg4
(lp2741
(g92
g6
(g18
S'\xe3\xddW?'
p2742
tp2743
Rp2744
tp2745
a(g166
g6
(g18
S'MKY='
p2746
tp2747
Rp2748
tp2749
a(g56
g6
(g18
S'\xcbO\xfb<'
p2750
tp2751
Rp2752
tp2753
a(g115
g6
(g18
S'\xf9X\x8d<'
p2754
tp2755
Rp2756
tp2757
a(g150
g6
(g18
S'\xf5Gx<'
p2758
tp2759
Rp2760
tp2761
asg73
g32
sa(dp2762
g2
S'../../../data/emanuela/activity-recognition/images/NTCIR-Lifelog-256/u2/2015-05-02/b00003339_21i7lf_20150502_151702e.jpg'
p2763
sg4
(lp2764
(g15
g6
(g18
S'\xb1x\x0e?'
p2765
tp2766
Rp2767
tp2768
a(g56
g6
(g18
S'8\xc7\x0e>'
p2769
tp2770
Rp2771
tp2772
a(g68
g6
(g18
S'"\xfd\xeb='
p2773
tp2774
Rp2775
tp2776
a(g44
g6
(g18
S'\x07\xe8E='
p2777
tp2778
Rp2779
tp2780
a(g32
g6
(g18
S'\x85\x92:='
p2781
tp2782
Rp2783
tp2784
asg73
g32
sa(dp2785
g2
S'../../../data/emanuela/activity-recognition/images/NTCIR-Lifelog-256/u2/2015-06-18/b00002455_21i7lf_20150618_081444e.jpg'
p2786
sg4
(lp2787
(g15
g6
(g18
S'\xc7\xe4m?'
p2788
tp2789
Rp2790
tp2791
a(g56
g6
(g18
S':\xd8[='
p2792
tp2793
Rp2794
tp2795
a(g1369
g6
(g18
S'\xa8\xbb\xe6;'
p2796
tp2797
Rp2798
tp2799
a(g32
g6
(g18
S'\xac\xb1\x94;'
p2800
tp2801
Rp2802
tp2803
a(g115
g6
(g18
S'\x8f8\xc8:'
p2804
tp2805
Rp2806
tp2807
asg73
g32
sa(dp2808
g2
S'../../../data/emanuela/activity-recognition/images/NTCIR-Lifelog-256/u2/2015-04-25/b00003077_21i7lf_20150425_115646e.jpg'
p2809
sg4
(lp2810
(g221
g6
(g18
S'\x9ct\x03?'
p2811
tp2812
Rp2813
tp2814
a(g197
g6
(g18
S'_\xbf\x9b>'
p2815
tp2816
Rp2817
tp2818
a(g209
g6
(g18
S'\xbfHx='
p2819
tp2820
Rp2821
tp2822
a(g44
g6
(g18
S'ui:='
p2823
tp2824
Rp2825
tp2826
a(g150
g6
(g18
S'\x1f\xb1\xe9<'
p2827
tp2828
Rp2829
tp2830
asg73
g32
sa(dp2831
g2
S'../../../data/emanuela/activity-recognition/images/NTCIR-Lifelog-256/u2/2015-06-18/b00002457_21i7lf_20150618_081552e.jpg'
p2832
sg4
(lp2833
(g56
g6
(g18
S'\x10\xd3\xe6>'
p2834
tp2835
Rp2836
tp2837
a(g92
g6
(g18
S'\xa9{x>'
p2838
tp2839
Rp2840
tp2841
a(g15
g6
(g18
S'\x18h >'
p2842
tp2843
Rp2844
tp2845
a(g68
g6
(g18
S'[\xef\xab='
p2846
tp2847
Rp2848
tp2849
a(g115
g6
(g18
S'\xfa_\xf8<'
p2850
tp2851
Rp2852
tp2853
asg73
g32
sa(dp2854
g2
S'../../../data/emanuela/activity-recognition/images/NTCIR-Lifelog-256/u2/2015-05-04/b00004678_21i7lf_20150504_120232e.jpg'
p2855
sg4
(lp2856
(g15
g6
(g18
S'\xd5\xb8>?'
p2857
tp2858
Rp2859
tp2860
a(g44
g6
(g18
S'-\xef\xc3='
p2861
tp2862
Rp2863
tp2864
a(g32
g6
(g18
S'\x13\xdf\xbf='
p2865
tp2866
Rp2867
tp2868
a(g56
g6
(g18
S'iO\xaa<'
p2869
tp2870
Rp2871
tp2872
a(g68
g6
(g18
S'q\x18\xf0;'
p2873
tp2874
Rp2875
tp2876
asg73
g32
sa(dp2877
g2
S'../../../data/emanuela/activity-recognition/images/NTCIR-Lifelog-256/u2/2015-04-30/b00000734_21i7lf_20150430_101134e.jpg'
p2878
sg4
(lp2879
(g32
g6
(g18
S')\x1a\x10?'
p2880
tp2881
Rp2882
tp2883
a(g221
g6
(g18
S'\x9a\xe7}>'
p2884
tp2885
Rp2886
tp2887
a(g1369
g6
(g18
S'\x01\x01K='
p2888
tp2889
Rp2890
tp2891
a(g150
g6
(g18
S'\x8a\xc5-='
p2892
tp2893
Rp2894
tp2895
a(g166
g6
(g18
S'\x85\x8c\xeb<'
p2896
tp2897
Rp2898
tp2899
asg73
g32
sa(dp2900
g2
S'../../../data/emanuela/activity-recognition/images/NTCIR-Lifelog-256/u2/2015-04-29/b00000297_21i7lf_20150429_200505e.jpg'
p2901
sg4
(lp2902
(g68
g6
(g18
S'sq%?'
p2903
tp2904
Rp2905
tp2906
a(g150
g6
(g18
S'\xcdp\xbe='
p2907
tp2908
Rp2909
tp2910
a(g115
g6
(g18
S'\xe9Z\x89='
p2911
tp2912
Rp2913
tp2914
a(g92
g6
(g18
S'o\xd0f='
p2915
tp2916
Rp2917
tp2918
a(g32
g6
(g18
S'\x18J\x15='
p2919
tp2920
Rp2921
tp2922
asg73
g32
sa(dp2923
g2
S'../../../data/emanuela/activity-recognition/images/NTCIR-Lifelog-256/u2/2015-05-04/b00004764_21i7lf_20150504_131312e.jpg'
p2924
sg4
(lp2925
(g32
g6
(g18
S'u\xf3\xfd>'
p2926
tp2927
Rp2928
tp2929
a(g44
g6
(g18
S'\xc2tc>'
p2930
tp2931
Rp2932
tp2933
a(g15
g6
(g18
S'\x02\xf3\xc2='
p2934
tp2935
Rp2936
tp2937
a(g56
g6
(g18
S'~\xa4\x92='
p2938
tp2939
Rp2940
tp2941
a(g197
g6
(g18
S'@\x87\x8c='
p2942
tp2943
Rp2944
tp2945
asg73
g32
sa(dp2946
g2
S'../../../data/emanuela/activity-recognition/images/NTCIR-Lifelog-256/u2/2015-04-22/b00000966_21i7lf_20150422_081753e.jpg'
p2947
sg4
(lp2948
(g32
g6
(g18
S'\xcd\xdd4?'
p2949
tp2950
Rp2951
tp2952
a(g15
g6
(g18
S'\x12\xd3\r>'
p2953
tp2954
Rp2955
tp2956
a(g44
g6
(g18
S'\xb7\x90\xb8='
p2957
tp2958
Rp2959
tp2960
a(g56
g6
(g18
S'\xf3\xab\x8e<'
p2961
tp2962
Rp2963
tp2964
a(g92
g6
(g18
S'\xd9bG<'
p2965
tp2966
Rp2967
tp2968
asg73
g32
sa(dp2969
g2
S'../../../data/emanuela/activity-recognition/images/NTCIR-Lifelog-256/u2/2015-05-06/b00006252_21i7lf_20150506_072630e.jpg'
p2970
sg4
(lp2971
(g15
g6
(g18
S'_c\xc0>'
p2972
tp2973
Rp2974
tp2975
a(g32
g6
(g18
S'j.\xa9>'
p2976
tp2977
Rp2978
tp2979
a(g92
g6
(g18
S'\x84Y\xdc='
p2980
tp2981
Rp2982
tp2983
a(g56
g6
(g18
S'2\xd83='
p2984
tp2985
Rp2986
tp2987
a(g209
g6
(g18
S'X\xba\xb7<'
p2988
tp2989
Rp2990
tp2991
asg73
g32
sa(dp2992
g2
S'../../../data/emanuela/activity-recognition/images/NTCIR-Lifelog-256/u2/2015-05-04/b00004738_21i7lf_20150504_125614e.jpg'
p2993
sg4
(lp2994
(g32
g6
(g18
S'\xc3\r\x13?'
p2995
tp2996
Rp2997
tp2998
a(g44
g6
(g18
S'\xd4(\xa9>'
p2999
tp3000
Rp3001
tp3002
a(g221
g6
(g18
S'\xfd\x03\xdc<'
p3003
tp3004
Rp3005
tp3006
a(g197
g6
(g18
S'nc\xd2<'
p3007
tp3008
Rp3009
tp3010
a(g92
g6
(g18
S'\xae\x0e\x1e<'
p3011
tp3012
Rp3013
tp3014
asg73
g32
sa(dp3015
g2
S'../../../data/emanuela/activity-recognition/images/NTCIR-Lifelog-256/u2/2015-05-08/b00008654_21i7lf_20150508_090136e.jpg'
p3016
sg4
(lp3017
(g32
g6
(g18
S'\xf5o\xcb>'
p3018
tp3019
Rp3020
tp3021
a(g44
g6
(g18
S'\xbf4G>'
p3022
tp3023
Rp3024
tp3025
a(g150
g6
(g18
S'\x9fo >'
p3026
tp3027
Rp3028
tp3029
a(g221
g6
(g18
S'"[s='
p3030
tp3031
Rp3032
tp3033
a(g209
g6
(g18
S'\xb9MT='
p3034
tp3035
Rp3036
tp3037
asg73
g32
sa(dp3038
g2
S'../../../data/emanuela/activity-recognition/images/NTCIR-Lifelog-256/u2/2015-04-25/b00003039_21i7lf_20150425_113227e.jpg'
p3039
sg4
(lp3040
(g150
g6
(g18
S'k$P?'
p3041
tp3042
Rp3043
tp3044
a(g32
g6
(g18
S'N\xe1n='
p3045
tp3046
Rp3047
tp3048
a(g221
g6
(g18
S'\x8d\xc7&='
p3049
tp3050
Rp3051
tp3052
a(g197
g6
(g18
S'\x8d\xb6\x06='
p3053
tp3054
Rp3055
tp3056
a(g233
g6
(g18
S'\x10\xbbo<'
p3057
tp3058
Rp3059
tp3060
asg73
g32
sa(dp3061
g2
S'../../../data/emanuela/activity-recognition/images/NTCIR-Lifelog-256/u2/2015-04-25/b00003020_21i7lf_20150425_112025e.jpg'
p3062
sg4
(lp3063
(g221
g6
(g18
S'r\x1c\xdc>'
p3064
tp3065
Rp3066
tp3067
a(g32
g6
(g18
S'\x8d\x04\x86>'
p3068
tp3069
Rp3070
tp3071
a(g209
g6
(g18
S'\xbc\xf9\x1e>'
p3072
tp3073
Rp3074
tp3075
a(g44
g6
(g18
S'm\xf6\xb8='
p3076
tp3077
Rp3078
tp3079
a(g150
g6
(g18
S'u\xd7i<'
p3080
tp3081
Rp3082
tp3083
asg73
g32
sa(dp3084
g2
S'../../../data/emanuela/activity-recognition/images/NTCIR-Lifelog-256/u2/2015-05-04/b00004743_21i7lf_20150504_125919e.jpg'
p3085
sg4
(lp3086
(g32
g6
(g18
S'\xe7\xad\xd0>'
p3087
tp3088
Rp3089
tp3090
a(g197
g6
(g18
S'\xb1@3>'
p3091
tp3092
Rp3093
tp3094
a(g209
g6
(g18
S'=\xb4\x07>'
p3095
tp3096
Rp3097
tp3098
a(g44
g6
(g18
S'\xf2>\x05>'
p3099
tp3100
Rp3101
tp3102
a(g150
g6
(g18
S'\xe4\x9c+='
p3103
tp3104
Rp3105
tp3106
asg73
g32
sa(dp3107
g2
S'../../../data/emanuela/activity-recognition/images/NTCIR-Lifelog-256/u2/2015-06-16/b00001298_21i7lf_20150616_062509e.jpg'
p3108
sg4
(lp3109
(g32
g6
(g18
S'\xfc\xda\x82>'
p3110
tp3111
Rp3112
tp3113
a(g221
g6
(g18
S'\xdd4K>'
p3114
tp3115
Rp3116
tp3117
a(g1369
g6
(g18
S'O\xca7>'
p3118
tp3119
Rp3120
tp3121
a(g15
g6
(g18
S'Q[\xb2='
p3122
tp3123
Rp3124
tp3125
a(g209
g6
(g18
S'0\x8f\x94='
p3126
tp3127
Rp3128
tp3129
asg73
g32
sa(dp3130
g2
S'../../../data/emanuela/activity-recognition/images/NTCIR-Lifelog-256/u2/2015-05-04/b00004734_21i7lf_20150504_125342e.jpg'
p3131
sg4
(lp3132
(g387
g6
(g18
S'\xbd/\xc6>'
p3133
tp3134
Rp3135
tp3136
a(g233
g6
(g18
S':\xb6\x0f>'
p3137
tp3138
Rp3139
tp3140
a(g209
g6
(g18
S'#4\xdf='
p3141
tp3142
Rp3143
tp3144
a(g197
g6
(g18
S'\x955\xd6='
p3145
tp3146
Rp3147
tp3148
a(g32
g6
(g18
S'\x136\xa1='
p3149
tp3150
Rp3151
tp3152
asg73
g32
sa(dp3153
g2
S'../../../data/emanuela/activity-recognition/images/NTCIR-Lifelog-256/u2/2015-04-22/b00000607_21i7lf_20150422_190021e.jpg'
p3154
sg4
(lp3155
(g115
g6
(g18
S'\xb6\x92\xfd>'
p3156
tp3157
Rp3158
tp3159
a(g44
g6
(g18
S'\x1f\x01\xe7='
p3160
tp3161
Rp3162
tp3163
a(g68
g6
(g18
S'\x9f\xde\xdf='
p3164
tp3165
Rp3166
tp3167
a(g32
g6
(g18
S'H\xa8\xd7='
p3168
tp3169
Rp3170
tp3171
a(g56
g6
(g18
S'\xb6,\xd0='
p3172
tp3173
Rp3174
tp3175
asg73
g32
sa(dp3176
g2
S'../../../data/emanuela/activity-recognition/images/NTCIR-Lifelog-256/u2/2015-04-25/b00002963_21i7lf_20150425_104144e.jpg'
p3177
sg4
(lp3178
(g32
g6
(g18
S'\x05\xff\x1c?'
p3179
tp3180
Rp3181
tp3182
a(g44
g6
(g18
S'\xc7\x12\n>'
p3183
tp3184
Rp3185
tp3186
a(g115
g6
(g18
S'\xe7\xa1\xda='
p3187
tp3188
Rp3189
tp3190
a(g68
g6
(g18
S'\xa2\x97,='
p3191
tp3192
Rp3193
tp3194
a(g92
g6
(g18
S'\xe4\xbb\t='
p3195
tp3196
Rp3197
tp3198
asg73
g32
sa(dp3199
g2
S'../../../data/emanuela/activity-recognition/images/NTCIR-Lifelog-256/u2/2015-05-04/b00004699_21i7lf_20150504_121531e.jpg'
p3200
sg4
(lp3201
(g166
g6
(g18
S'j\x91\xfe>'
p3202
tp3203
Rp3204
tp3205
a(g150
g6
(g18
S'\xdbb\x1a>'
p3206
tp3207
Rp3208
tp3209
a(g233
g6
(g18
S'(\xaaX='
p3210
tp3211
Rp3212
tp3213
a(g32
g6
(g18
S'\x92\xe9J='
p3214
tp3215
Rp3216
tp3217
a(g197
g6
(g18
S'\xa5\x8d/='
p3218
tp3219
Rp3220
tp3221
asg73
g32
sa(dp3222
g2
S'../../../data/emanuela/activity-recognition/images/NTCIR-Lifelog-256/u2/2015-04-25/b00003079_21i7lf_20150425_115759e.jpg'
p3223
sg4
(lp3224
(g209
g6
(g18
S'\xda\xa2\x13?'
p3225
tp3226
Rp3227
tp3228
a(g233
g6
(g18
S'^\xbb\xce='
p3229
tp3230
Rp3231
tp3232
a(g221
g6
(g18
S'Y[\xaf='
p3233
tp3234
Rp3235
tp3236
a(g851
g6
(g18
S"'gJ="
p3237
tp3238
Rp3239
tp3240
a(g92
g6
(g18
S'\xacS\x06='
p3241
tp3242
Rp3243
tp3244
asg73
g32
sa(dp3245
g2
S'../../../data/emanuela/activity-recognition/images/NTCIR-Lifelog-256/u2/2015-04-27/b00004919_21i7lf_20150427_083740e.jpg'
p3246
sg4
(lp3247
(g115
g6
(g18
S'\xf7\x00\xa9>'
p3248
tp3249
Rp3250
tp3251
a(g68
g6
(g18
S'\xb1.\x90>'
p3252
tp3253
Rp3254
tp3255
a(g15
g6
(g18
S"\xff\x87'>"
p3256
tp3257
Rp3258
tp3259
a(g197
g6
(g18
S'\xfd}\xb2='
p3260
tp3261
Rp3262
tp3263
a(g56
g6
(g18
S'\x801{='
p3264
tp3265
Rp3266
tp3267
asg73
g32
sa(dp3268
g2
S'../../../data/emanuela/activity-recognition/images/NTCIR-Lifelog-256/u2/2015-05-06/b00006242_21i7lf_20150506_072026e.jpg'
p3269
sg4
(lp3270
(g68
g6
(g18
S'}5\xbd>'
p3271
tp3272
Rp3273
tp3274
a(g150
g6
(g18
S'\xa1O5>'
p3275
tp3276
Rp3277
tp3278
a(g115
g6
(g18
S'\xb4\xb8\xf5='
p3279
tp3280
Rp3281
tp3282
a(g32
g6
(g18
S'\xb0m\x99='
p3283
tp3284
Rp3285
tp3286
a(g92
g6
(g18
S'\x97\xc2E='
p3287
tp3288
Rp3289
tp3290
asg73
g32
sa(dp3291
g2
S'../../../data/emanuela/activity-recognition/images/NTCIR-Lifelog-256/u2/2015-05-06/b00006250_21i7lf_20150506_072524e.jpg'
p3292
sg4
(lp3293
(g15
g6
(g18
S'\xbf\x10=?'
p3294
tp3295
Rp3296
tp3297
a(g56
g6
(g18
S'O\x1d\xef='
p3298
tp3299
Rp3300
tp3301
a(g68
g6
(g18
S'9\xa0\xb0='
p3302
tp3303
Rp3304
tp3305
a(g32
g6
(g18
S'l\x8a\xb1<'
p3306
tp3307
Rp3308
tp3309
a(g197
g6
(g18
S'\x04a\x0f<'
p3310
tp3311
Rp3312
tp3313
asg73
g32
sa(dp3314
g2
S'../../../data/emanuela/activity-recognition/images/NTCIR-Lifelog-256/u2/2015-04-25/b00003063_21i7lf_20150425_114744e (1).jpg'
p3315
sg4
(lp3316
(g32
g6
(g18
S'\x1e=\x13?'
p3317
tp3318
Rp3319
tp3320
a(g44
g6
(g18
S'\xff9\xd5='
p3321
tp3322
Rp3323
tp3324
a(g209
g6
(g18
S'\x89\xa6\x97='
p3325
tp3326
Rp3327
tp3328
a(g150
g6
(g18
S'w\x87m='
p3329
tp3330
Rp3331
tp3332
a(g15
g6
(g18
S'\x15\xec1='
p3333
tp3334
Rp3335
tp3336
asg73
g32
sa(dp3337
g2
S'../../../data/emanuela/activity-recognition/images/NTCIR-Lifelog-256/u2/2015-04-27/b00004918_21i7lf_20150427_083703e.jpg'
p3338
sg4
(lp3339
(g115
g6
(g18
S'a\xff\xa8>'
p3340
tp3341
Rp3342
tp3343
a(g68
g6
(g18
S'\xb0\x1d\x94>'
p3344
tp3345
Rp3346
tp3347
a(g15
g6
(g18
S'{\xf5U>'
p3348
tp3349
Rp3350
tp3351
a(g197
g6
(g18
S'\xe6\x02C='
p3352
tp3353
Rp3354
tp3355
a(g56
g6
(g18
S'(\xc5)='
p3356
tp3357
Rp3358
tp3359
asg73
g32
sa(dp3360
g2
S'../../../data/emanuela/activity-recognition/images/NTCIR-Lifelog-256/u2/2015-05-01/b00001713_21i7lf_20150501_082458e.jpg'
p3361
sg4
(lp3362
(g115
g6
(g18
S'\xc5JO?'
p3363
tp3364
Rp3365
tp3366
a(g68
g6
(g18
S'\xed\x0f\x85='
p3367
tp3368
Rp3369
tp3370
a(g56
g6
(g18
S'aVc='
p3371
tp3372
Rp3373
tp3374
a(g44
g6
(g18
S'\xe3\x00\xa5<'
p3375
tp3376
Rp3377
tp3378
a(g15
g6
(g18
S'^\xb7h<'
p3379
tp3380
Rp3381
tp3382
asg73
g32
sa(dp3383
g2
S'../../../data/emanuela/activity-recognition/images/NTCIR-Lifelog-256/u2/2015-06-16/b00001294_21i7lf_20150616_062306e.jpg'
p3384
sg4
(lp3385
(g44
g6
(g18
S'\xf3\x06\xbd>'
p3386
tp3387
Rp3388
tp3389
a(g15
g6
(g18
S'\xc5L\x99>'
p3390
tp3391
Rp3392
tp3393
a(g32
g6
(g18
S')\xbe9>'
p3394
tp3395
Rp3396
tp3397
a(g56
g6
(g18
S'\x07\xa6\x83='
p3398
tp3399
Rp3400
tp3401
a(g197
g6
(g18
S'e\x1c\xed<'
p3402
tp3403
Rp3404
tp3405
asg73
g32
sa(dp3406
g2
S'../../../data/emanuela/activity-recognition/images/NTCIR-Lifelog-256/u2/2015-05-04/b00004830_21i7lf_20150504_135828e.jpg'
p3407
sg4
(lp3408
(g15
g6
(g18
S'\x88\xf9\xda>'
p3409
tp3410
Rp3411
tp3412
a(g32
g6
(g18
S'y3\x8f>'
p3413
tp3414
Rp3415
tp3416
a(g56
g6
(g18
S'ih\xa2='
p3417
tp3418
Rp3419
tp3420
a(g197
g6
(g18
S'\xab\xae\x8a='
p3421
tp3422
Rp3423
tp3424
a(g209
g6
(g18
S'v\xa4?='
p3425
tp3426
Rp3427
tp3428
asg73
g32
sa(dp3429
g2
S'../../../data/emanuela/activity-recognition/images/NTCIR-Lifelog-256/u2/2015-04-22/b00000973_21i7lf_20150422_082212e.jpg'
p3430
sg4
(lp3431
(g92
g6
(g18
S'-\xbf\xd7>'
p3432
tp3433
Rp3434
tp3435
a(g68
g6
(g18
S"\xf1'\xb4>"
p3436
tp3437
Rp3438
tp3439
a(g32
g6
(g18
S'\xd0\xdf\x9f='
p3440
tp3441
Rp3442
tp3443
a(g15
g6
(g18
S'\x8b\x06\x99='
p3444
tp3445
Rp3446
tp3447
a(g851
g6
(g18
S'\xf6\xd7\x9f<'
p3448
tp3449
Rp3450
tp3451
asg73
g32
sa(dp3452
g2
S'../../../data/emanuela/activity-recognition/images/NTCIR-Lifelog-256/u2/2015-05-01/b00001724_21i7lf_20150501_083151e.jpg'
p3453
sg4
(lp3454
(g68
g6
(g18
S'\x90\xe6\x00?'
p3455
tp3456
Rp3457
tp3458
a(g115
g6
(g18
S'\xc7\xbe\x7f>'
p3459
tp3460
Rp3461
tp3462
a(g56
g6
(g18
S'J\xbf\xd6='
p3463
tp3464
Rp3465
tp3466
a(g15
g6
(g18
S'\xa77>='
p3467
tp3468
Rp3469
tp3470
a(g92
g6
(g18
S'\x0cB\x1f='
p3471
tp3472
Rp3473
tp3474
asg73
g32
sa(dp3475
g2
S'../../../data/emanuela/activity-recognition/images/NTCIR-Lifelog-256/u2/2015-05-04/b00004794_21i7lf_20150504_133511e.jpg'
p3476
sg4
(lp3477
(g197
g6
(g18
S'\xb5\x81\xf5>'
p3478
tp3479
Rp3480
tp3481
a(g32
g6
(g18
S'\xeb\xf31>'
p3482
tp3483
Rp3484
tp3485
a(g233
g6
(g18
S'\xda\x17\xa9='
p3486
tp3487
Rp3488
tp3489
a(g15
g6
(g18
S'Jl\x94='
p3490
tp3491
Rp3492
tp3493
a(g68
g6
(g18
S'\xcf\x0c{='
p3494
tp3495
Rp3496
tp3497
asg73
g32
sa(dp3498
g2
S'../../../data/emanuela/activity-recognition/images/NTCIR-Lifelog-256/u2/2015-04-23/b00001863_21i7lf_20150423_223844e.jpg'
p3499
sg4
(lp3500
(g115
g6
(g18
S'\xe3\xdde>'
p3501
tp3502
Rp3503
tp3504
a(g32
g6
(g18
S'\x1aD@>'
p3505
tp3506
Rp3507
tp3508
a(g56
g6
(g18
S'\xb3[!>'
p3509
tp3510
Rp3511
tp3512
a(g6
(g7
(S'S19'
p3513
I0
I1
tp3514
Rp3515
(I3
S'|'
p3516
NNNI19
I1
I0
tp3517
bS'attending a seminar'
p3518
tp3519
Rp3520
g6
(g18
S'\xc9m\xe3='
p3521
tp3522
Rp3523
tp3524
a(g150
g6
(g18
S'C\xef\xc3='
p3525
tp3526
Rp3527
tp3528
asg73
g32
sa(dp3529
g2
S'../../../data/emanuela/activity-recognition/images/NTCIR-Lifelog-256/u2/2015-06-16/b00001297_21i7lf_20150616_062434e.jpg'
p3530
sg4
(lp3531
(g15
g6
(g18
S'\x91\x0b\xbe>'
p3532
tp3533
Rp3534
tp3535
a(g32
g6
(g18
S'\x02\xc1Q>'
p3536
tp3537
Rp3538
tp3539
a(g44
g6
(g18
S'\x12\xf3\n>'
p3540
tp3541
Rp3542
tp3543
a(g56
g6
(g18
S'\xbe5\xba='
p3544
tp3545
Rp3546
tp3547
a(g92
g6
(g18
S'tq@='
p3548
tp3549
Rp3550
tp3551
asg73
g32
sa(dp3552
g2
S'../../../data/emanuela/activity-recognition/images/NTCIR-Lifelog-256/u2/2015-04-27/b00004916_21i7lf_20150427_083549e.jpg'
p3553
sg4
(lp3554
(g15
g6
(g18
S'5\xaa\x01?'
p3555
tp3556
Rp3557
tp3558
a(g56
g6
(g18
S"'\xd2\xe5="
p3559
tp3560
Rp3561
tp3562
a(g32
g6
(g18
S"'\x9a\xd9="
p3563
tp3564
Rp3565
tp3566
a(g44
g6
(g18
S'}\xc3[='
p3567
tp3568
Rp3569
tp3570
a(g197
g6
(g18
S'\xd8\xdcJ='
p3571
tp3572
Rp3573
tp3574
asg73
g32
sa(dp3575
g2
S'../../../data/emanuela/activity-recognition/images/NTCIR-Lifelog-256/u2/2015-04-25/b00003074_21i7lf_20150425_115458e.jpg'
p3576
sg4
(lp3577
(g32
g6
(g18
S'`<\x03?'
p3578
tp3579
Rp3580
tp3581
a(g44
g6
(g18
S'\xf4\x1a\x16>'
p3582
tp3583
Rp3584
tp3585
a(g150
g6
(g18
S'\x18\x82\x12>'
p3586
tp3587
Rp3588
tp3589
a(g221
g6
(g18
S'\tP,='
p3590
tp3591
Rp3592
tp3593
a(g197
g6
(g18
S'iY\x1e='
p3594
tp3595
Rp3596
tp3597
asg73
g32
sa(dp3598
g2
S'../../../data/emanuela/activity-recognition/images/NTCIR-Lifelog-256/u2/2015-05-01/b00002631_21i7lf_20150501_184550e.jpg'
p3599
sg4
(lp3600
(g32
g6
(g18
S'\x84t\xe7>'
p3601
tp3602
Rp3603
tp3604
a(g44
g6
(g18
S'0\xb8\x8d>'
p3605
tp3606
Rp3607
tp3608
a(g15
g6
(g18
S'\xc7U\x81='
p3609
tp3610
Rp3611
tp3612
a(g68
g6
(g18
S'mRK='
p3613
tp3614
Rp3615
tp3616
a(g115
g6
(g18
S'\xbf\xa5?='
p3617
tp3618
Rp3619
tp3620
asg73
g32
sa(dp3621
g2
S'../../../data/emanuela/activity-recognition/images/NTCIR-Lifelog-256/u2/2015-05-04/b00004788_21i7lf_20150504_133132e.jpg'
p3622
sg4
(lp3623
(g197
g6
(g18
S'\xecH\r?'
p3624
tp3625
Rp3626
tp3627
a(g32
g6
(g18
S'0\xffW>'
p3628
tp3629
Rp3630
tp3631
a(g209
g6
(g18
S'\x95l\xad='
p3632
tp3633
Rp3634
tp3635
a(g44
g6
(g18
S'9\x8c/='
p3636
tp3637
Rp3638
tp3639
a(g150
g6
(g18
S'\x10L\xf8<'
p3640
tp3641
Rp3642
tp3643
asg73
g32
sa(dp3644
g2
S'../../../data/emanuela/activity-recognition/images/NTCIR-Lifelog-256/u2/2015-05-04/b00004681_21i7lf_20150504_120419e.jpg'
p3645
sg4
(lp3646
(g15
g6
(g18
S'5\xe6\xa6>'
p3647
tp3648
Rp3649
tp3650
a(g92
g6
(g18
S'\xf1\xa7\xa5>'
p3651
tp3652
Rp3653
tp3654
a(g32
g6
(g18
S'F8\xac='
p3655
tp3656
Rp3657
tp3658
a(g851
g6
(g18
S'\xfc\xb7\xa4='
p3659
tp3660
Rp3661
tp3662
a(g197
g6
(g18
S'\xb4\x8f\x88='
p3663
tp3664
Rp3665
tp3666
asg73
g32
sa(dp3667
g2
S'../../../data/emanuela/activity-recognition/images/NTCIR-Lifelog-256/u2/2015-05-04/b00004750_21i7lf_20150504_130349e.jpg'
p3668
sg4
(lp3669
(g209
g6
(g18
S'\xd0vI?'
p3670
tp3671
Rp3672
tp3673
a(g851
g6
(g18
S'*\xe7Q='
p3674
tp3675
Rp3676
tp3677
a(g197
g6
(g18
S'M\x83F='
p3678
tp3679
Rp3680
tp3681
a(g375
g6
(g18
S'\x90\xa8#='
p3682
tp3683
Rp3684
tp3685
a(g92
g6
(g18
S'\xc7\xee\xa1<'
p3686
tp3687
Rp3688
tp3689
asg73
g32
sa(dp3690
g2
S'../../../data/emanuela/activity-recognition/images/NTCIR-Lifelog-256/u2/2015-05-02/b00003329_21i7lf_20150502_151050e.jpg'
p3691
sg4
(lp3692
(g32
g6
(g18
S'\x93Z\xc2>'
p3693
tp3694
Rp3695
tp3696
a(g92
g6
(g18
S'\xbf\x12w>'
p3697
tp3698
Rp3699
tp3700
a(g15
g6
(g18
S'\xdf\xc3)>'
p3701
tp3702
Rp3703
tp3704
a(g56
g6
(g18
S'\xf2\x06\xa8='
p3705
tp3706
Rp3707
tp3708
a(g44
g6
(g18
S'T\xae ='
p3709
tp3710
Rp3711
tp3712
asg73
g32
sa(dp3713
g2
S'../../../data/emanuela/activity-recognition/images/NTCIR-Lifelog-256/u2/2015-05-04/b00004686_21i7lf_20150504_120724e.jpg'
p3714
sg4
(lp3715
(g15
g6
(g18
S'\xf2>\x90>'
p3716
tp3717
Rp3718
tp3719
a(g32
g6
(g18
S'\x8d\xdf\x88>'
p3720
tp3721
Rp3722
tp3723
a(g44
g6
(g18
S'0\x0f\xff='
p3724
tp3725
Rp3726
tp3727
a(g387
g6
(g18
S'D\xe1\xbb='
p3728
tp3729
Rp3730
tp3731
a(g197
g6
(g18
S'\x08\xbd$='
p3732
tp3733
Rp3734
tp3735
asg73
g32
sa(dp3736
g2
S'../../../data/emanuela/activity-recognition/images/NTCIR-Lifelog-256/u2/2015-05-04/b00004744_21i7lf_20150504_125957e.jpg'
p3737
sg4
(lp3738
(g32
g6
(g18
S'L\x83\xb0>'
p3739
tp3740
Rp3741
tp3742
a(g15
g6
(g18
S'\x8a\x82;>'
p3743
tp3744
Rp3745
tp3746
a(g56
g6
(g18
S'\x83F.>'
p3747
tp3748
Rp3749
tp3750
a(g68
g6
(g18
S'c\xf7\xc0='
p3751
tp3752
Rp3753
tp3754
a(g44
g6
(g18
S')\xf1\x8e='
p3755
tp3756
Rp3757
tp3758
asg73
g32
sa(dp3759
g2
S'../../../data/emanuela/activity-recognition/images/NTCIR-Lifelog-256/u2/2015-05-01/b00002627_21i7lf_20150501_184329e.jpg'
p3760
sg4
(lp3761
(g15
g6
(g18
S'\xe9\xc8\xf4>'
p3762
tp3763
Rp3764
tp3765
a(g115
g6
(g18
S'\r~\x1e>'
p3766
tp3767
Rp3768
tp3769
a(g68
g6
(g18
S'\x0c\xfd\x95='
p3770
tp3771
Rp3772
tp3773
a(g56
g6
(g18
S'\xccz\x87='
p3774
tp3775
Rp3776
tp3777
a(g44
g6
(g18
S'3\x0c\x81='
p3778
tp3779
Rp3780
tp3781
asg73
g32
sa(dp3782
g2
S'../../../data/emanuela/activity-recognition/images/NTCIR-Lifelog-256/u2/2015-05-04/b00004759_21i7lf_20150504_130922e.jpg'
p3783
sg4
(lp3784
(g32
g6
(g18
S'\xe1\xa6y>'
p3785
tp3786
Rp3787
tp3788
a(g150
g6
(g18
S'\xb5\xf2\x0f>'
p3789
tp3790
Rp3791
tp3792
a(g387
g6
(g18
S'Y\x85\xec='
p3793
tp3794
Rp3795
tp3796
a(g209
g6
(g18
S'\xad\x18\xa5='
p3797
tp3798
Rp3799
tp3800
a(g44
g6
(g18
S'B\xcb\x98='
p3801
tp3802
Rp3803
tp3804
asg73
g32
sa(dp3805
g2
S'../../../data/emanuela/activity-recognition/images/NTCIR-Lifelog-256/u2/2015-04-30/b00000620_21i7lf_20150430_080442e.jpg'
p3806
sg4
(lp3807
(g115
g6
(g18
S'\x95\x89\x81>'
p3808
tp3809
Rp3810
tp3811
a(g56
g6
(g18
S'oEg>'
p3812
tp3813
Rp3814
tp3815
a(g44
g6
(g18
S'BmW>'
p3816
tp3817
Rp3818
tp3819
a(g15
g6
(g18
S'e\xad\x11>'
p3820
tp3821
Rp3822
tp3823
a(g68
g6
(g18
S'\xfd\x82\x9c='
p3824
tp3825
Rp3826
tp3827
asg73
g32
sa(dp3828
g2
S'../../../data/emanuela/activity-recognition/images/NTCIR-Lifelog-256/u2/2015-05-04/b00004645_21i7lf_20150504_114218e.jpg'
p3829
sg4
(lp3830
(g150
g6
(g18
S'n\x93\x06?'
p3831
tp3832
Rp3833
tp3834
a(g32
g6
(g18
S'0q\xd1='
p3835
tp3836
Rp3837
tp3838
a(g166
g6
(g18
S'D\x91\xbc='
p3839
tp3840
Rp3841
tp3842
a(g44
g6
(g18
S'\x98\x10\xba='
p3843
tp3844
Rp3845
tp3846
a(g197
g6
(g18
S'\xcb\xddn='
p3847
tp3848
Rp3849
tp3850
asg73
g32
sa(dp3851
g2
S'../../../data/emanuela/activity-recognition/images/NTCIR-Lifelog-256/u2/2015-04-25/b00003037_21i7lf_20150425_113115e.jpg'
p3852
sg4
(lp3853
(g32
g6
(g18
S'c`\x95>'
p3854
tp3855
Rp3856
tp3857
a(g44
g6
(g18
S'.\xa33>'
p3858
tp3859
Rp3860
tp3861
a(g15
g6
(g18
S'r\xae\x15>'
p3862
tp3863
Rp3864
tp3865
a(g150
g6
(g18
S'9\x1f\xfd='
p3866
tp3867
Rp3868
tp3869
a(g1369
g6
(g18
S'\xbeV\xb1='
p3870
tp3871
Rp3872
tp3873
asg73
g32
sa(dp3874
g2
S'../../../data/emanuela/activity-recognition/images/NTCIR-Lifelog-256/u2/2015-05-06/b00007256_21i7lf_20150506_193315e.jpg'
p3875
sg4
(lp3876
(g92
g6
(g18
S'g\xce\xa1>'
p3877
tp3878
Rp3879
tp3880
a(g15
g6
(g18
S'O\x94\x15>'
p3881
tp3882
Rp3883
tp3884
a(g68
g6
(g18
S'\xd8\xaa\xff='
p3885
tp3886
Rp3887
tp3888
a(g32
g6
(g18
S'\x15\n\xd8='
p3889
tp3890
Rp3891
tp3892
a(g851
g6
(g18
S'\xd7i\xc7='
p3893
tp3894
Rp3895
tp3896
asg73
g32
sa(dp3897
g2
S'../../../data/emanuela/activity-recognition/images/NTCIR-Lifelog-256/u2/2015-05-04/b00004815_21i7lf_20150504_134831e.jpg'
p3898
sg4
(lp3899
(g32
g6
(g18
S'\xee\xe3\t?'
p3900
tp3901
Rp3902
tp3903
a(g221
g6
(g18
S'\xadA\x1a>'
p3904
tp3905
Rp3906
tp3907
a(g44
g6
(g18
S'\xa17\x81='
p3908
tp3909
Rp3910
tp3911
a(g92
g6
(g18
S'9P~='
p3912
tp3913
Rp3914
tp3915
a(g15
g6
(g18
S'\xf1\x01=='
p3916
tp3917
Rp3918
tp3919
asg73
g32
sa(dp3920
g2
S'../../../data/emanuela/activity-recognition/images/NTCIR-Lifelog-256/u2/2015-04-27/b00006001_21i7lf_20150427_194430e.jpg'
p3921
sg4
(lp3922
(g150
g6
(g18
S'\xb0\xfa=?'
p3923
tp3924
Rp3925
tp3926
a(g32
g6
(g18
S'F\x97\x99='
p3927
tp3928
Rp3929
tp3930
a(g221
g6
(g18
S'8EY='
p3931
tp3932
Rp3933
tp3934
a(g166
g6
(g18
S'\xd1+?='
p3935
tp3936
Rp3937
tp3938
a(g115
g6
(g18
S'\xcf\xc7\xbe<'
p3939
tp3940
Rp3941
tp3942
asg73
g32
sa(dp3943
g2
S'../../../data/emanuela/activity-recognition/images/NTCIR-Lifelog-256/u2/2015-05-06/b00006236_21i7lf_20150506_071613e.jpg'
p3944
sg4
(lp3945
(g68
g6
(g18
S'\xa8`b>'
p3946
tp3947
Rp3948
tp3949
a(g32
g6
(g18
S'h\x07^>'
p3950
tp3951
Rp3952
tp3953
a(g56
g6
(g18
S'\x84@\x13>'
p3954
tp3955
Rp3956
tp3957
a(g115
g6
(g18
S'\x00\xdb\xd5='
p3958
tp3959
Rp3960
tp3961
a(g92
g6
(g18
S'\xa5H\xc1='
p3962
tp3963
Rp3964
tp3965
asg73
g32
sa(dp3966
g2
S'../../../data/emanuela/activity-recognition/images/NTCIR-Lifelog-256/u2/2015-05-04/b00004656_21i7lf_20150504_114853e.jpg'
p3967
sg4
(lp3968
(g44
g6
(g18
S'\xa8\x14B?'
p3969
tp3970
Rp3971
tp3972
a(g32
g6
(g18
S'F\xe7\x01>'
p3973
tp3974
Rp3975
tp3976
a(g68
g6
(g18
S'.\x86\x0b='
p3977
tp3978
Rp3979
tp3980
a(g15
g6
(g18
S'\xc8\xb3\x9d<'
p3981
tp3982
Rp3983
tp3984
a(g115
g6
(g18
S'(\xa87<'
p3985
tp3986
Rp3987
tp3988
asg73
g32
sa(dp3989
g2
S'../../../data/emanuela/activity-recognition/images/NTCIR-Lifelog-256/u2/2015-04-24/b00001874_21i7lf_20150424_083218e.jpg'
p3990
sg4
(lp3991
(g15
g6
(g18
S'\xfa\xcb\xaf>'
p3992
tp3993
Rp3994
tp3995
a(g32
g6
(g18
S'~\x07\x8f>'
p3996
tp3997
Rp3998
tp3999
a(g68
g6
(g18
S'\xbd\xd0\x90='
p4000
tp4001
Rp4002
tp4003
a(g352
g6
(g18
S'\xe7\xdb\x83='
p4004
tp4005
Rp4006
tp4007
a(g44
g6
(g18
S'&\xf6f='
p4008
tp4009
Rp4010
tp4011
asg73
g32
sa(dp4012
g2
S'../../../data/emanuela/activity-recognition/images/NTCIR-Lifelog-256/u2/2015-04-25/b00003078_21i7lf_20150425_115726e.jpg'
p4013
sg4
(lp4014
(g32
g6
(g18
S'[\xc8\xfa>'
p4015
tp4016
Rp4017
tp4018
a(g44
g6
(g18
S'\x8b!\xf5>'
p4019
tp4020
Rp4021
tp4022
a(g56
g6
(g18
S'\xa6\x0e~<'
p4023
tp4024
Rp4025
tp4026
a(g15
g6
(g18
S'\x13\xea0<'
p4027
tp4028
Rp4029
tp4030
a(g115
g6
(g18
S'y\xe6\x9c:'
p4031
tp4032
Rp4033
tp4034
asg73
g32
sa(dp4035
g2
S'../../../data/emanuela/activity-recognition/images/NTCIR-Lifelog-256/u2/2015-04-25/b00003033_21i7lf_20150425_112855e.jpg'
p4036
sg4
(lp4037
(g56
g6
(g18
S'\x95N\xa2>'
p4038
tp4039
Rp4040
tp4041
a(g15
g6
(g18
S'\xca\xf7T>'
p4042
tp4043
Rp4044
tp4045
a(g209
g6
(g18
S'\xb3\xb6/>'
p4046
tp4047
Rp4048
tp4049
a(g32
g6
(g18
S'\xa2\t\xd7='
p4050
tp4051
Rp4052
tp4053
a(g92
g6
(g18
S'\xbc\x88\x99='
p4054
tp4055
Rp4056
tp4057
asg73
g32
sa(dp4058
g2
S'../../../data/emanuela/activity-recognition/images/NTCIR-Lifelog-256/u2/2015-04-29/b00000147_21i7lf_20150429_183057e.jpg'
p4059
sg4
(lp4060
(g92
g6
(g18
S'\xfe\xb2B?'
p4061
tp4062
Rp4063
tp4064
a(g1369
g6
(g18
S'0\xd5\xa9='
p4065
tp4066
Rp4067
tp4068
a(g166
g6
(g18
S'\x15\xb3\x8c='
p4069
tp4070
Rp4071
tp4072
a(g150
g6
(g18
S'\xa8S\xdd<'
p4073
tp4074
Rp4075
tp4076
a(g15
g6
(g18
S'\xe1\xac\x84<'
p4077
tp4078
Rp4079
tp4080
asg73
g32
sa(dp4081
g2
S'../../../data/emanuela/activity-recognition/images/NTCIR-Lifelog-256/u2/2015-04-25/b00003070_21i7lf_20150425_115236e.jpg'
p4082
sg4
(lp4083
(g32
g6
(g18
S'S\xe1\x1b>'
p4084
tp4085
Rp4086
tp4087
a(g197
g6
(g18
S'\x10\xda\x1a>'
p4088
tp4089
Rp4090
tp4091
a(g375
g6
(g18
S'\xc6\xb7\r>'
p4092
tp4093
Rp4094
tp4095
a(g209
g6
(g18
S'\xc1\x14\xdd='
p4096
tp4097
Rp4098
tp4099
a(g15
g6
(g18
S'\xee\xc3\xd9='
p4100
tp4101
Rp4102
tp4103
asg73
g32
sa(dp4104
g2
S'../../../data/emanuela/activity-recognition/images/NTCIR-Lifelog-256/u2/2015-05-04/b00004803_21i7lf_20150504_134037e.jpg'
p4105
sg4
(lp4106
(g150
g6
(g18
S'\x15\xb7\xdf>'
p4107
tp4108
Rp4109
tp4110
a(g221
g6
(g18
S']\x93\x16>'
p4111
tp4112
Rp4113
tp4114
a(g1369
g6
(g18
S'\x9d\xa7\x06>'
p4115
tp4116
Rp4117
tp4118
a(g166
g6
(g18
S'w\xea\xa7='
p4119
tp4120
Rp4121
tp4122
a(g92
g6
(g18
S'\xaf(\xa0='
p4123
tp4124
Rp4125
tp4126
asg73
g32
sa(dp4127
g2
S'../../../data/emanuela/activity-recognition/images/NTCIR-Lifelog-256/u2/2015-05-06/b00006240_21i7lf_20150506_071914e.jpg'
p4128
sg4
(lp4129
(g115
g6
(g18
S'\xcbt\x0b?'
p4130
tp4131
Rp4132
tp4133
a(g68
g6
(g18
S'\xa0Pk>'
p4134
tp4135
Rp4136
tp4137
a(g56
g6
(g18
S'\x82\x04\x80='
p4138
tp4139
Rp4140
tp4141
a(g15
g6
(g18
S'Z\x8fQ='
p4142
tp4143
Rp4144
tp4145
a(g150
g6
(g18
S'\xd1G\x17='
p4146
tp4147
Rp4148
tp4149
asg73
g32
sa(dp4150
g2
S'../../../data/emanuela/activity-recognition/images/NTCIR-Lifelog-256/u2/2015-04-26/b00004656_21i7lf_20150426_210815e.jpg'
p4151
sg4
(lp4152
(g32
g6
(g18
S'Av\x14?'
p4153
tp4154
Rp4155
tp4156
a(g44
g6
(g18
S'\x1a\xe0\x9f>'
p4157
tp4158
Rp4159
tp4160
a(g15
g6
(g18
S'\x0f\x9c\x10='
p4161
tp4162
Rp4163
tp4164
a(g56
g6
(g18
S'\x1fC\xed<'
p4165
tp4166
Rp4167
tp4168
a(g92
g6
(g18
S'\xdeK\x9e<'
p4169
tp4170
Rp4171
tp4172
asg73
g32
sa(dp4173
g2
S'../../../data/emanuela/activity-recognition/images/NTCIR-Lifelog-256/u2/2015-05-04/b00004673_21i7lf_20150504_115933e.jpg'
p4174
sg4
(lp4175
(g15
g6
(g18
S'\xfe\x9b ?'
p4176
tp4177
Rp4178
tp4179
a(g32
g6
(g18
S'|7\xc7='
p4180
tp4181
Rp4182
tp4183
a(g68
g6
(g18
S'\xaf\\\x9c='
p4184
tp4185
Rp4186
tp4187
a(g851
g6
(g18
S'\xe6\xe08='
p4188
tp4189
Rp4190
tp4191
a(g44
g6
(g18
S'*\xd3\x0e='
p4192
tp4193
Rp4194
tp4195
asg73
g32
sa(dp4196
g2
S'../../../data/emanuela/activity-recognition/images/NTCIR-Lifelog-256/u2/2015-04-23/b00001661_21i7lf_20150423_200635e.jpg'
p4197
sg4
(lp4198
(g15
g6
(g18
S'f\x9f\xdd>'
p4199
tp4200
Rp4201
tp4202
a(g32
g6
(g18
S'\x80\xad\x08>'
p4203
tp4204
Rp4205
tp4206
a(g44
g6
(g18
S'\xb9\x1c\xd1='
p4207
tp4208
Rp4209
tp4210
a(g56
g6
(g18
S'\xcf\xd8\xbc='
p4211
tp4212
Rp4213
tp4214
a(g115
g6
(g18
S'\x82Y\xa0='
p4215
tp4216
Rp4217
tp4218
asg73
g32
sa(dp4219
g2
S'../../../data/emanuela/activity-recognition/images/NTCIR-Lifelog-256/u2/2015-04-25/b00003035_21i7lf_20150425_113005e.jpg'
p4220
sg4
(lp4221
(g150
g6
(g18
S'C!X>'
p4222
tp4223
Rp4224
tp4225
a(g233
g6
(g18
S'\xa4\xed\x1a>'
p4226
tp4227
Rp4228
tp4229
a(g68
g6
(g18
S'\xdd\xf6\xab='
p4230
tp4231
Rp4232
tp4233
a(g32
g6
(g18
S'\xb6\xd4\xa2='
p4234
tp4235
Rp4236
tp4237
a(g92
g6
(g18
S'\xc9\x03\x90='
p4238
tp4239
Rp4240
tp4241
asg73
g32
sa(dp4242
g2
S'../../../data/emanuela/activity-recognition/images/NTCIR-Lifelog-256/u2/2015-04-29/b00000086_21i7lf_20150429_175058e.jpg'
p4243
sg4
(lp4244
(g32
g6
(g18
S'I\x02.?'
p4245
tp4246
Rp4247
tp4248
a(g44
g6
(g18
S'A\x16\x14>'
p4249
tp4250
Rp4251
tp4252
a(g150
g6
(g18
S'\xbd\xac\x81='
p4253
tp4254
Rp4255
tp4256
a(g197
g6
(g18
S'Y\x9b\x16='
p4257
tp4258
Rp4259
tp4260
a(g166
g6
(g18
S'\xf4t\xbc<'
p4261
tp4262
Rp4263
tp4264
asg73
g32
sa(dp4265
g2
S'../../../data/emanuela/activity-recognition/images/NTCIR-Lifelog-256/u2/2015-04-30/b00000738_21i7lf_20150430_101444e.jpg'
p4266
sg4
(lp4267
(g209
g6
(g18
S'\xdd\x07l>'
p4268
tp4269
Rp4270
tp4271
a(g197
g6
(g18
S'\x9d0\xe1='
p4272
tp4273
Rp4274
tp4275
a(g166
g6
(g18
S'\x91U\xda='
p4276
tp4277
Rp4278
tp4279
a(g32
g6
(g18
S'\x94\x12\xa8='
p4280
tp4281
Rp4282
tp4283
a(g150
g6
(g18
S'\x85H\x94='
p4284
tp4285
Rp4286
tp4287
asg73
g32
sa(dp4288
g2
S'../../../data/emanuela/activity-recognition/images/NTCIR-Lifelog-256/u2/2015-05-01/b00001722_21i7lf_20150501_083041e.jpg'
p4289
sg4
(lp4290
(g115
g6
(g18
S'\xa1\x04\x0c?'
p4291
tp4292
Rp4293
tp4294
a(g15
g6
(g18
S'a,\x84>'
p4295
tp4296
Rp4297
tp4298
a(g68
g6
(g18
S"'1\xf8="
p4299
tp4300
Rp4301
tp4302
a(g56
g6
(g18
S'\x1f\xc5l='
p4303
tp4304
Rp4305
tp4306
a(g44
g6
(g18
S'\xee\t\x8b;'
p4307
tp4308
Rp4309
tp4310
asg73
g32
sa(dp4311
g2
S'../../../data/emanuela/activity-recognition/images/NTCIR-Lifelog-256/u2/2015-04-27/b00005920_21i7lf_20150427_185453e.jpg'
p4312
sg4
(lp4313
(g44
g6
(g18
S'+/\r?'
p4314
tp4315
Rp4316
tp4317
a(g32
g6
(g18
S'3"\xde>'
p4318
tp4319
Rp4320
tp4321
a(g15
g6
(g18
S'\x90\x13\x90;'
p4322
tp4323
Rp4324
tp4325
a(g352
g6
(g18
S'\xe41V;'
p4326
tp4327
Rp4328
tp4329
a(g56
g6
(g18
S'\xf7\x80\xc0:'
p4330
tp4331
Rp4332
tp4333
asg73
g32
sa(dp4334
g2
S'../../../data/emanuela/activity-recognition/images/NTCIR-Lifelog-256/u2/2015-05-04/b00004618_21i7lf_20150504_112424e.jpg'
p4335
sg4
(lp4336
(g44
g6
(g18
S'\xe6\x0c\xc6>'
p4337
tp4338
Rp4339
tp4340
a(g32
g6
(g18
S'\xca,\xbe>'
p4341
tp4342
Rp4343
tp4344
a(g150
g6
(g18
S'\xe5\xee\xd0='
p4345
tp4346
Rp4347
tp4348
a(g221
g6
(g18
S'nT}='
p4349
tp4350
Rp4351
tp4352
a(g166
g6
(g18
S'\xbb\xa8\x8f<'
p4353
tp4354
Rp4355
tp4356
asg73
g32
sa(dp4357
g2
S'../../../data/emanuela/activity-recognition/images/NTCIR-Lifelog-256/u2/2015-05-01/b00002623_21i7lf_20150501_184100e.jpg'
p4358
sg4
(lp4359
(g32
g6
(g18
S'u!\xa8>'
p4360
tp4361
Rp4362
tp4363
a(g68
g6
(g18
S'Z\xae\x94>'
p4364
tp4365
Rp4366
tp4367
a(g15
g6
(g18
S'\x99|!>'
p4368
tp4369
Rp4370
tp4371
a(g115
g6
(g18
S'\x8b\x8eF='
p4372
tp4373
Rp4374
tp4375
a(g56
g6
(g18
S' \xcfB='
p4376
tp4377
Rp4378
tp4379
asg73
g32
sa(dp4380
g2
S'../../../data/emanuela/activity-recognition/images/NTCIR-Lifelog-256/u2/2015-04-29/b00000295_21i7lf_20150429_200352e.jpg'
p4381
sg4
(lp4382
(g15
g6
(g18
S'b\x93\x11?'
p4383
tp4384
Rp4385
tp4386
a(g68
g6
(g18
S'\xbe\xeb1>'
p4387
tp4388
Rp4389
tp4390
a(g56
g6
(g18
S'\xa1\xf4*>'
p4391
tp4392
Rp4393
tp4394
a(g32
g6
(g18
S'Sh\x02='
p4395
tp4396
Rp4397
tp4398
a(g92
g6
(g18
S'\xb1\xdd\x8e<'
p4399
tp4400
Rp4401
tp4402
asg73
g32
sa(dp4403
g2
S'../../../data/emanuela/activity-recognition/images/NTCIR-Lifelog-256/u2/2015-04-29/b00000150_21i7lf_20150429_183238e.jpg'
p4404
sg4
(lp4405
(g92
g6
(g18
S'\x81SQ?'
p4406
tp4407
Rp4408
tp4409
a(g166
g6
(g18
S'\x8eJ\xae='
p4410
tp4411
Rp4412
tp4413
a(g32
g6
(g18
S'\xaa\x8f\xbb<'
p4414
tp4415
Rp4416
tp4417
a(g150
g6
(g18
S'\xe3\xa2\x98<'
p4418
tp4419
Rp4420
tp4421
a(g56
g6
(g18
S't\x8d*<'
p4422
tp4423
Rp4424
tp4425
asg73
g32
sa(dp4426
g2
S'../../../data/emanuela/activity-recognition/images/NTCIR-Lifelog-256/u2/2015-04-22/b00000981_21i7lf_20150422_082701e.jpg'
p4427
sg4
(lp4428
(g115
g6
(g18
S'_\xd6:>'
p4429
tp4430
Rp4431
tp4432
a(g56
g6
(g18
S'\x91{\x1f>'
p4433
tp4434
Rp4435
tp4436
a(g15
g6
(g18
S'\xaa%\xce='
p4437
tp4438
Rp4439
tp4440
a(g166
g6
(g18
S'\xb6\xd9\xcc='
p4441
tp4442
Rp4443
tp4444
a(g3520
g6
(g18
S' \xd4\xc6='
p4445
tp4446
Rp4447
tp4448
asg73
g32
sa(dp4449
g2
S'../../../data/emanuela/activity-recognition/images/NTCIR-Lifelog-256/u2/2015-05-01/b00002633_21i7lf_20150501_184656e.jpg'
p4450
sg4
(lp4451
(g32
g6
(g18
S'\xed\xaf\xb7>'
p4452
tp4453
Rp4454
tp4455
a(g44
g6
(g18
S'B:\x0e>'
p4456
tp4457
Rp4458
tp4459
a(g115
g6
(g18
S'\x04i\x00>'
p4460
tp4461
Rp4462
tp4463
a(g15
g6
(g18
S'\x9cd\xc3='
p4464
tp4465
Rp4466
tp4467
a(g68
g6
(g18
S'\x0cw\xa0='
p4468
tp4469
Rp4470
tp4471
asg73
g32
sa(dp4472
g2
S'../../../data/emanuela/activity-recognition/images/NTCIR-Lifelog-256/u2/2015-04-22/b00000954_21i7lf_20150422_081029e.jpg'
p4473
sg4
(lp4474
(g209
g6
(g18
S'\nZ\xcf>'
p4475
tp4476
Rp4477
tp4478
a(g197
g6
(g18
S'l\x00\x84>'
p4479
tp4480
Rp4481
tp4482
a(g32
g6
(g18
S'xz4>'
p4483
tp4484
Rp4485
tp4486
a(g44
g6
(g18
S'\xdb\x9bt='
p4487
tp4488
Rp4489
tp4490
a(g15
g6
(g18
S'\x94\xaf\x14='
p4491
tp4492
Rp4493
tp4494
asg73
g32
sa(dp4495
g2
S'../../../data/emanuela/activity-recognition/images/NTCIR-Lifelog-256/u2/2015-05-01/b00001730_21i7lf_20150501_083522e.jpg'
p4496
sg4
(lp4497
(g115
g6
(g18
S'\xa6*1?'
p4498
tp4499
Rp4500
tp4501
a(g56
g6
(g18
S'P$\xc5='
p4502
tp4503
Rp4504
tp4505
a(g44
g6
(g18
S',\xd5\x9f='
p4506
tp4507
Rp4508
tp4509
a(g68
g6
(g18
S'4\x8at='
p4510
tp4511
Rp4512
tp4513
a(g15
g6
(g18
S'r,\xeb<'
p4514
tp4515
Rp4516
tp4517
asg73
g32
sa(dp4518
g2
S'../../../data/emanuela/activity-recognition/images/NTCIR-Lifelog-256/u2/2015-05-02/b00003332_21i7lf_20150502_151239e.jpg'
p4519
sg4
(lp4520
(g15
g6
(g18
S'xq\xbf>'
p4521
tp4522
Rp4523
tp4524
a(g92
g6
(g18
S'\x8bT\x8d>'
p4525
tp4526
Rp4527
tp4528
a(g56
g6
(g18
S'\xe2\x98\x19>'
p4529
tp4530
Rp4531
tp4532
a(g851
g6
(g18
S'\xfc*\x96='
p4533
tp4534
Rp4535
tp4536
a(g32
g6
(g18
S'A0\x89='
p4537
tp4538
Rp4539
tp4540
asg73
g32
sa(dp4541
g2
S'../../../data/emanuela/activity-recognition/images/NTCIR-Lifelog-256/u2/2015-05-02/b00003229_21i7lf_20150502_140857e.jpg'
p4542
sg4
(lp4543
(g32
g6
(g18
S'\xd7\xc5\xea>'
p4544
tp4545
Rp4546
tp4547
a(g92
g6
(g18
S'\xbfe0>'
p4548
tp4549
Rp4550
tp4551
a(g56
g6
(g18
S"\xb5\xa3'>"
p4552
tp4553
Rp4554
tp4555
a(g15
g6
(g18
S'\x1fq\xb3='
p4556
tp4557
Rp4558
tp4559
a(g68
g6
(g18
S'T\xd1\x13='
p4560
tp4561
Rp4562
tp4563
asg73
g32
sa(dp4564
g2
S'../../../data/emanuela/activity-recognition/images/NTCIR-Lifelog-256/u2/2015-04-26/b00004119_21i7lf_20150426_152522e.jpg'
p4565
sg4
(lp4566
(g32
g6
(g18
S'SW\x08?'
p4567
tp4568
Rp4569
tp4570
a(g44
g6
(g18
S'\xae\xb1\xc7>'
p4571
tp4572
Rp4573
tp4574
a(g197
g6
(g18
S'S\x9a\xe7<'
p4575
tp4576
Rp4577
tp4578
a(g150
g6
(g18
S'9\x84\xae<'
p4579
tp4580
Rp4581
tp4582
a(g209
g6
(g18
S'\xb4\x88O<'
p4583
tp4584
Rp4585
tp4586
asg73
g32
sa(dp4587
g2
S'../../../data/emanuela/activity-recognition/images/NTCIR-Lifelog-256/u2/2015-04-25/b00003081_21i7lf_20150425_115913e.jpg'
p4588
sg4
(lp4589
(g32
g6
(g18
S'\x0b\x80*?'
p4590
tp4591
Rp4592
tp4593
a(g44
g6
(g18
S'4\xe5\xa6>'
p4594
tp4595
Rp4596
tp4597
a(g221
g6
(g18
S'1\x8f\n;'
p4598
tp4599
Rp4600
tp4601
a(g150
g6
(g18
S'\xb9\xb2\xbc:'
p4602
tp4603
Rp4604
tp4605
a(g15
g6
(g18
S'O`\xa1:'
p4606
tp4607
Rp4608
tp4609
asg73
g32
sa(dp4610
g2
S'../../../data/emanuela/activity-recognition/images/NTCIR-Lifelog-256/u2/2015-05-04/b00004676_21i7lf_20150504_120125e.jpg'
p4611
sg4
(lp4612
(g15
g6
(g18
S'\xa0\xd0\x19?'
p4613
tp4614
Rp4615
tp4616
a(g851
g6
(g18
S'\xea\x86\x08>'
p4617
tp4618
Rp4619
tp4620
a(g32
g6
(g18
S'\xb5\xe6z='
p4621
tp4622
Rp4623
tp4624
a(g68
g6
(g18
S'\xa6l_='
p4625
tp4626
Rp4627
tp4628
a(g233
g6
(g18
S'=rP='
p4629
tp4630
Rp4631
tp4632
asg73
g32
sa(dp4633
g2
S'../../../data/emanuela/activity-recognition/images/NTCIR-Lifelog-256/u2/2015-04-25/b00003058_21i7lf_20150425_114351e.jpg'
p4634
sg4
(lp4635
(g44
g6
(g18
S'\n\xd7\x05?'
p4636
tp4637
Rp4638
tp4639
a(g32
g6
(g18
S'Xu\xb5>'
p4640
tp4641
Rp4642
tp4643
a(g15
g6
(g18
S'w\x9cP='
p4644
tp4645
Rp4646
tp4647
a(g56
g6
(g18
S'\xb2^G='
p4648
tp4649
Rp4650
tp4651
a(g352
g6
(g18
S'\x18"\xa0;'
p4652
tp4653
Rp4654
tp4655
asg73
g32
sa(dp4656
g2
S'../../../data/emanuela/activity-recognition/images/NTCIR-Lifelog-256/u2/2015-05-04/b00004693_21i7lf_20150504_121150e.jpg'
p4657
sg4
(lp4658
(g32
g6
(g18
S'u1\x04?'
p4659
tp4660
Rp4661
tp4662
a(g44
g6
(g18
S'^\xcd9>'
p4663
tp4664
Rp4665
tp4666
a(g221
g6
(g18
S'|L\xf7='
p4667
tp4668
Rp4669
tp4670
a(g197
g6
(g18
S'\xff\xf5\x89='
p4671
tp4672
Rp4673
tp4674
a(g150
g6
(g18
S'\xa2\x1c\xf1<'
p4675
tp4676
Rp4677
tp4678
asg73
g32
sa(dp4679
g2
S'../../../data/emanuela/activity-recognition/images/NTCIR-Lifelog-256/u2/2015-05-04/b00004669_21i7lf_20150504_115705e.jpg'
p4680
sg4
(lp4681
(g15
g6
(g18
S'U\x05j?'
p4682
tp4683
Rp4684
tp4685
a(g32
g6
(g18
S'\xf3\xc2\xe8<'
p4686
tp4687
Rp4688
tp4689
a(g197
g6
(g18
S'V\xd1\xa0<'
p4690
tp4691
Rp4692
tp4693
a(g44
g6
(g18
S'\xe9\xc7U<'
p4694
tp4695
Rp4696
tp4697
a(g56
g6
(g18
S'\x96X\r<'
p4698
tp4699
Rp4700
tp4701
asg73
g32
sa(dp4702
g2
S'../../../data/emanuela/activity-recognition/images/NTCIR-Lifelog-256/u2/2015-04-25/b00003046_21i7lf_20150425_113633e.jpg'
p4703
sg4
(lp4704
(g15
g6
(g18
S'\x86\xc8\x9b>'
p4705
tp4706
Rp4707
tp4708
a(g32
g6
(g18
S'[\xb0\x8d>'
p4709
tp4710
Rp4711
tp4712
a(g197
g6
(g18
S'\xcfo\xa5='
p4713
tp4714
Rp4715
tp4716
a(g375
g6
(g18
S'\xfb\x08\x97='
p4717
tp4718
Rp4719
tp4720
a(g44
g6
(g18
S'\x12\xeb\x83='
p4721
tp4722
Rp4723
tp4724
asg73
g32
sa(dp4725
g2
S'../../../data/emanuela/activity-recognition/images/NTCIR-Lifelog-256/u2/2015-04-29/b00000137_21i7lf_20150429_182448e.jpg'
p4726
sg4
(lp4727
(g92
g6
(g18
S'\xf5\x8c\\?'
p4728
tp4729
Rp4730
tp4731
a(g150
g6
(g18
S'&9S='
p4732
tp4733
Rp4734
tp4735
a(g115
g6
(g18
S'\x8d\xaf\x89<'
p4736
tp4737
Rp4738
tp4739
a(g851
g6
(g18
S'j\x14Y<'
p4740
tp4741
Rp4742
tp4743
a(g56
g6
(g18
S'/\xbc+<'
p4744
tp4745
Rp4746
tp4747
asg73
g32
sa(dp4748
g2
S'../../../data/emanuela/activity-recognition/images/NTCIR-Lifelog-256/u2/2015-04-22/b00000948_21i7lf_20150422_080731e.jpg'
p4749
sg4
(lp4750
(g44
g6
(g18
S'\xc4\x1a%?'
p4751
tp4752
Rp4753
tp4754
a(g32
g6
(g18
S'\xec\xaa\x0f>'
p4755
tp4756
Rp4757
tp4758
a(g15
g6
(g18
S'\xc6\x8a\xcc='
p4759
tp4760
Rp4761
tp4762
a(g92
g6
(g18
S'\xb2\xb7\x0b='
p4763
tp4764
Rp4765
tp4766
a(g56
g6
(g18
S'\r\xc6\xc3<'
p4767
tp4768
Rp4769
tp4770
asg73
g32
sa(dp4771
g2
S'../../../data/emanuela/activity-recognition/images/NTCIR-Lifelog-256/u2/2015-05-06/b00007223_21i7lf_20150506_191033e.jpg'
p4772
sg4
(lp4773
(g68
g6
(g18
S'Wp8?'
p4774
tp4775
Rp4776
tp4777
a(g56
g6
(g18
S'\x8b\x86\xf8='
p4778
tp4779
Rp4780
tp4781
a(g115
g6
(g18
S'\t/\x85='
p4782
tp4783
Rp4784
tp4785
a(g15
g6
(g18
S'\xca\x9cr='
p4786
tp4787
Rp4788
tp4789
a(g92
g6
(g18
S'\xf9\x8a0<'
p4790
tp4791
Rp4792
tp4793
asg73
g32
sa(dp4794
g2
S'../../../data/emanuela/activity-recognition/images/NTCIR-Lifelog-256/u2/2015-04-29/b00000084_21i7lf_20150429_174944e.jpg'
p4795
sg4
(lp4796
(g44
g6
(g18
S'-\xdd&?'
p4797
tp4798
Rp4799
tp4800
a(g32
g6
(g18
S'\x8c\xfaw>'
p4801
tp4802
Rp4803
tp4804
a(g92
g6
(g18
S'\x06\x98"='
p4805
tp4806
Rp4807
tp4808
a(g166
g6
(g18
S':\x0c\xa0<'
p4809
tp4810
Rp4811
tp4812
a(g150
g6
(g18
S'\x0f:F<'
p4813
tp4814
Rp4815
tp4816
asg73
g32
sa(dp4817
g2
S'../../../data/emanuela/activity-recognition/images/NTCIR-Lifelog-256/u2/2015-05-01/b00002632_21i7lf_20150501_184623e.jpg'
p4818
sg4
(lp4819
(g32
g6
(g18
S'\xa1\xf3\x02?'
p4820
tp4821
Rp4822
tp4823
a(g150
g6
(g18
S'\xfc$\xe9='
p4824
tp4825
Rp4826
tp4827
a(g44
g6
(g18
S't\x03\xb4='
p4828
tp4829
Rp4830
tp4831
a(g197
g6
(g18
S'\xe9\x9b8='
p4832
tp4833
Rp4834
tp4835
a(g375
g6
(g18
S'\x16\x100='
p4836
tp4837
Rp4838
tp4839
asg73
g32
sa(dp4840
g2
S'../../../data/emanuela/activity-recognition/images/NTCIR-Lifelog-256/u2/2015-05-04/b00004657_21i7lf_20150504_114934e.jpg'
p4841
sg4
(lp4842
(g44
g6
(g18
S"\xcf\xb3'?"
p4843
tp4844
Rp4845
tp4846
a(g15
g6
(g18
S'r\x02\x08>'
p4847
tp4848
Rp4849
tp4850
a(g32
g6
(g18
S'\xd1*\xd5='
p4851
tp4852
Rp4853
tp4854
a(g68
g6
(g18
S'\rb&='
p4855
tp4856
Rp4857
tp4858
a(g56
g6
(g18
S'\xff\xb8\x97<'
p4859
tp4860
Rp4861
tp4862
asg73
g32
sa(dp4863
g2
S'../../../data/emanuela/activity-recognition/images/NTCIR-Lifelog-256/u2/2015-05-02/b00003235_21i7lf_20150502_141236e.jpg'
p4864
sg4
(lp4865
(g32
g6
(g18
S'\xf0\xa2\x8d>'
p4866
tp4867
Rp4868
tp4869
a(g44
g6
(g18
S'\x11U$>'
p4870
tp4871
Rp4872
tp4873
a(g56
g6
(g18
S'\xd2\x13\x03>'
p4874
tp4875
Rp4876
tp4877
a(g68
g6
(g18
S'|P\xf7='
p4878
tp4879
Rp4880
tp4881
a(g15
g6
(g18
S'\x176\xd0='
p4882
tp4883
Rp4884
tp4885
asg73
g32
sa(dp4886
g2
S'../../../data/emanuela/activity-recognition/images/NTCIR-Lifelog-256/u2/2015-05-04/b00004584_21i7lf_20150504_110305e.jpg'
p4887
sg4
(lp4888
(g44
g6
(g18
S'\xb7\xda\xa3>'
p4889
tp4890
Rp4891
tp4892
a(g32
g6
(g18
S'\x1fS\xa3>'
p4893
tp4894
Rp4895
tp4896
a(g15
g6
(g18
S'-\xb5\x9e>'
p4897
tp4898
Rp4899
tp4900
a(g56
g6
(g18
S'}\xda0='
p4901
tp4902
Rp4903
tp4904
a(g115
g6
(g18
S'tz$;'
p4905
tp4906
Rp4907
tp4908
asg73
g32
sa(dp4909
g2
S'../../../data/emanuela/activity-recognition/images/NTCIR-Lifelog-256/u2/2015-04-25/b00003099_21i7lf_20150425_122845e.jpg'
p4910
sg4
(lp4911
(g32
g6
(g18
S'\xd5\xac*?'
p4912
tp4913
Rp4914
tp4915
a(g44
g6
(g18
S'\xbbF\x8d>'
p4916
tp4917
Rp4918
tp4919
a(g150
g6
(g18
S'\xec\x86\xc2<'
p4920
tp4921
Rp4922
tp4923
a(g56
g6
(g18
S'\xcd\x8b\x05<'
p4924
tp4925
Rp4926
tp4927
a(g15
g6
(g18
S'%S\xd9;'
p4928
tp4929
Rp4930
tp4931
asg73
g32
sa(dp4932
g2
S'../../../data/emanuela/activity-recognition/images/NTCIR-Lifelog-256/u2/2015-05-04/b00004781_21i7lf_20150504_132627e.jpg'
p4933
sg4
(lp4934
(g32
g6
(g18
S'\xf3q\xef>'
p4935
tp4936
Rp4937
tp4938
a(g150
g6
(g18
S'\xbcg\xb4>'
p4939
tp4940
Rp4941
tp4942
a(g221
g6
(g18
S'\xc3\x1c\x03>'
p4943
tp4944
Rp4945
tp4946
a(g1369
g6
(g18
S'w\xc9\x87<'
p4947
tp4948
Rp4949
tp4950
a(g15
g6
(g18
S'}\xba\x1c<'
p4951
tp4952
Rp4953
tp4954
asg73
g32
sa(dp4955
g2
S'../../../data/emanuela/activity-recognition/images/NTCIR-Lifelog-256/u2/2015-05-08/b00008655_21i7lf_20150508_090217e.jpg'
p4956
sg4
(lp4957
(g44
g6
(g18
S'vT\xed>'
p4958
tp4959
Rp4960
tp4961
a(g32
g6
(g18
S'\x02\x96\xac>'
p4962
tp4963
Rp4964
tp4965
a(g150
g6
(g18
S'\xeak\xf6='
p4966
tp4967
Rp4968
tp4969
a(g197
g6
(g18
S'"\xf9\xce<'
p4970
tp4971
Rp4972
tp4973
a(g221
g6
(g18
S'\xbeJ\x8d<'
p4974
tp4975
Rp4976
tp4977
asg73
g32
sa(dp4978
g2
S'../../../data/emanuela/activity-recognition/images/NTCIR-Lifelog-256/u2/2015-04-29/b00000293_21i7lf_20150429_200244e.jpg'
p4979
sg4
(lp4980
(g15
g6
(g18
S'\xd7n\xa3>'
p4981
tp4982
Rp4983
tp4984
a(g32
g6
(g18
S'\x80\xd9\x98>'
p4985
tp4986
Rp4987
tp4988
a(g56
g6
(g18
S'\xe3\x80\xf0='
p4989
tp4990
Rp4991
tp4992
a(g44
g6
(g18
S'\x04\x06H='
p4993
tp4994
Rp4995
tp4996
a(g115
g6
(g18
S'\x82\xbd9='
p4997
tp4998
Rp4999
tp5000
asg73
g32
sa(dp5001
g2
S'../../../data/emanuela/activity-recognition/images/NTCIR-Lifelog-256/u2/2015-04-25/b00003064_21i7lf_20150425_114819e.jpg'
p5002
sg4
(lp5003
(g15
g6
(g18
S'\xda\xfb\xdd>'
p5004
tp5005
Rp5006
tp5007
a(g32
g6
(g18
S'\xee\x16e>'
p5008
tp5009
Rp5010
tp5011
a(g209
g6
(g18
S'\x8f\x11\x05>'
p5012
tp5013
Rp5014
tp5015
a(g56
g6
(g18
S'\xfa\x04\x8d='
p5016
tp5017
Rp5018
tp5019
a(g44
g6
(g18
S'\xe0\xfa%='
p5020
tp5021
Rp5022
tp5023
asg73
g32
sa(dp5024
g2
S'../../../data/emanuela/activity-recognition/images/NTCIR-Lifelog-256/u2/2015-05-04/b00004811_21i7lf_20150504_134558e.jpg'
p5025
sg4
(lp5026
(g209
g6
(g18
S'\xa2k0>'
p5027
tp5028
Rp5029
tp5030
a(g44
g6
(g18
S'\xd9v\x1d>'
p5031
tp5032
Rp5033
tp5034
a(g32
g6
(g18
S'\xfd\x04\x05>'
p5035
tp5036
Rp5037
tp5038
a(g115
g6
(g18
S'&M\xbe='
p5039
tp5040
Rp5041
tp5042
a(g150
g6
(g18
S'\x89\xa9\xa8='
p5043
tp5044
Rp5045
tp5046
asg73
g32
sa(dp5047
g2
S'../../../data/emanuela/activity-recognition/images/NTCIR-Lifelog-256/u2/2015-06-18/b00002458_21i7lf_20150618_081630e.jpg'
p5048
sg4
(lp5049
(g56
g6
(g18
S'\xcdu\x93>'
p5050
tp5051
Rp5052
tp5053
a(g15
g6
(g18
S'\x08\xffD>'
p5054
tp5055
Rp5056
tp5057
a(g92
g6
(g18
S'\xe0\x07\x1f>'
p5058
tp5059
Rp5060
tp5061
a(g197
g6
(g18
S'\x83\x90\x04>'
p5062
tp5063
Rp5064
tp5065
a(g44
g6
(g18
S"\xef\xb8'="
p5066
tp5067
Rp5068
tp5069
asg73
g32
sa(dp5070
g2
S'../../../data/emanuela/activity-recognition/images/NTCIR-Lifelog-256/u2/2015-05-04/b00004671_21i7lf_20150504_115821e.jpg'
p5071
sg4
(lp5072
(g15
g6
(g18
S'\xa8\xf8K?'
p5073
tp5074
Rp5075
tp5076
a(g44
g6
(g18
S'\x1e\xc7\x99='
p5077
tp5078
Rp5079
tp5080
a(g56
g6
(g18
S"'.m="
p5081
tp5082
Rp5083
tp5084
a(g32
g6
(g18
S'!. ='
p5085
tp5086
Rp5087
tp5088
a(g68
g6
(g18
S'y\x08n<'
p5089
tp5090
Rp5091
tp5092
asg73
g32
sa(dp5093
g2
S'../../../data/emanuela/activity-recognition/images/NTCIR-Lifelog-256/u2/2015-05-01/b00002620_21i7lf_20150501_183918e.jpg'
p5094
sg4
(lp5095
(g115
g6
(g18
S'\xda\xa4\xf7>'
p5096
tp5097
Rp5098
tp5099
a(g44
g6
(g18
S'8,l>'
p5100
tp5101
Rp5102
tp5103
a(g32
g6
(g18
S'0\xa24>'
p5104
tp5105
Rp5106
tp5107
a(g68
g6
(g18
S'\x9a(H='
p5108
tp5109
Rp5110
tp5111
a(g56
g6
(g18
S'\\\x8d\x07='
p5112
tp5113
Rp5114
tp5115
asg73
g32
sa(dp5116
g2
S'../../../data/emanuela/activity-recognition/images/NTCIR-Lifelog-256/u2/2015-05-04/b00004705_21i7lf_20150504_121912e.jpg'
p5117
sg4
(lp5118
(g15
g6
(g18
S'\xaa\xac\x8e>'
p5119
tp5120
Rp5121
tp5122
a(g92
g6
(g18
S'CEV>'
p5123
tp5124
Rp5125
tp5126
a(g32
g6
(g18
S'Q\xb1\x02>'
p5127
tp5128
Rp5129
tp5130
a(g56
g6
(g18
S'0(\xd4='
p5131
tp5132
Rp5133
tp5134
a(g197
g6
(g18
S'\xf1!\xb8='
p5135
tp5136
Rp5137
tp5138
asg73
g32
sa(dp5139
g2
S'../../../data/emanuela/activity-recognition/images/NTCIR-Lifelog-256/u2/2015-04-25/b00003063_21i7lf_20150425_114744e.jpg'
p5140
sg4
(lp5141
(g32
g6
(g18
S'\x1e=\x13?'
p5142
tp5143
Rp5144
tp5145
a(g44
g6
(g18
S'\xff9\xd5='
p5146
tp5147
Rp5148
tp5149
a(g209
g6
(g18
S'\x89\xa6\x97='
p5150
tp5151
Rp5152
tp5153
a(g150
g6
(g18
S'w\x87m='
p5154
tp5155
Rp5156
tp5157
a(g15
g6
(g18
S'\x15\xec1='
p5158
tp5159
Rp5160
tp5161
asg73
g32
sa(dp5162
g2
S'../../../data/emanuela/activity-recognition/images/NTCIR-Lifelog-256/u2/2015-05-01/b00001732_21i7lf_20150501_083632e.jpg'
p5163
sg4
(lp5164
(g68
g6
(g18
S'\xf5\x15<?'
p5165
tp5166
Rp5167
tp5168
a(g115
g6
(g18
S'3\xca\xea='
p5169
tp5170
Rp5171
tp5172
a(g15
g6
(g18
S'W\x0c\x16='
p5173
tp5174
Rp5175
tp5176
a(g197
g6
(g18
S'\x0e\x8a\x05='
p5177
tp5178
Rp5179
tp5180
a(g56
g6
(g18
S'\xd0A\x02='
p5181
tp5182
Rp5183
tp5184
asg73
g32
sa(dp5185
g2
S'../../../data/emanuela/activity-recognition/images/NTCIR-Lifelog-256/u2/2015-05-01/b00001728_21i7lf_20150501_083418e.jpg'
p5186
sg4
(lp5187
(g15
g6
(g18
S'Q\x81\x8f>'
p5188
tp5189
Rp5190
tp5191
a(g32
g6
(g18
S'wW\x8d>'
p5192
tp5193
Rp5194
tp5195
a(g56
g6
(g18
S's\xc4\x11>'
p5196
tp5197
Rp5198
tp5199
a(g44
g6
(g18
S'#\x87\xb9='
p5200
tp5201
Rp5202
tp5203
a(g115
g6
(g18
S'\xb13\xb4='
p5204
tp5205
Rp5206
tp5207
asg73
g32
sa(dp5208
g2
S'../../../data/emanuela/activity-recognition/images/NTCIR-Lifelog-256/u2/2015-05-01/b00002626_21i7lf_20150501_184251e.jpg'
p5209
sg4
(lp5210
(g15
g6
(g18
S'l\xa7\x92>'
p5211
tp5212
Rp5213
tp5214
a(g68
g6
(g18
S'\xc8\xe7F>'
p5215
tp5216
Rp5217
tp5218
a(g115
g6
(g18
S'w\xf4\x1f>'
p5219
tp5220
Rp5221
tp5222
a(g32
g6
(g18
S'\x1b\xec\xe6='
p5223
tp5224
Rp5225
tp5226
a(g56
g6
(g18
S'a\xce\x83='
p5227
tp5228
Rp5229
tp5230
asg73
g32
sa(dp5231
g2
S'../../../data/emanuela/activity-recognition/images/NTCIR-Lifelog-256/u2/2015-04-25/b00003038_21i7lf_20150425_113150e.jpg'
p5232
sg4
(lp5233
(g44
g6
(g18
S'\r\x02\r?'
p5234
tp5235
Rp5236
tp5237
a(g32
g6
(g18
S'\x02\xa5p>'
p5238
tp5239
Rp5240
tp5241
a(g221
g6
(g18
S'\x96x\x97='
p5242
tp5243
Rp5244
tp5245
a(g15
g6
(g18
S'P<\x14='
p5246
tp5247
Rp5248
tp5249
a(g209
g6
(g18
S'\xf8\x9d\xe7<'
p5250
tp5251
Rp5252
tp5253
asg73
g32
sa(dp5254
g2
S'../../../data/emanuela/activity-recognition/images/NTCIR-Lifelog-256/u2/2015-05-01/b00001721_21i7lf_20150501_083004e.jpg'
p5255
sg4
(lp5256
(g68
g6
(g18
S'MiB?'
p5257
tp5258
Rp5259
tp5260
a(g115
g6
(g18
S'j\xb0\xec='
p5261
tp5262
Rp5263
tp5264
a(g56
g6
(g18
S';\xd2g='
p5265
tp5266
Rp5267
tp5268
a(g15
g6
(g18
S'\xc1\x8d\xe8<'
p5269
tp5270
Rp5271
tp5272
a(g92
g6
(g18
S'f\xb5\x90<'
p5273
tp5274
Rp5275
tp5276
asg73
g32
sa(dp5277
g2
S'../../../data/emanuela/activity-recognition/images/NTCIR-Lifelog-256/u2/2015-04-27/b00005996_21i7lf_20150427_194111e.jpg'
p5278
sg4
(lp5279
(g44
g6
(g18
S'\x8f\xe3\xa7>'
p5280
tp5281
Rp5282
tp5283
a(g32
g6
(g18
S'\xe0\xb3Z>'
p5284
tp5285
Rp5286
tp5287
a(g92
g6
(g18
S'\x17?\x10>'
p5288
tp5289
Rp5290
tp5291
a(g56
g6
(g18
S'\xb6y\x06>'
p5292
tp5293
Rp5294
tp5295
a(g166
g6
(g18
S'\xd8\x07\x9a='
p5296
tp5297
Rp5298
tp5299
asg73
g32
sa(dp5300
g2
S'../../../data/emanuela/activity-recognition/images/NTCIR-Lifelog-256/u2/2015-04-22/b00000951_21i7lf_20150422_080905e.jpg'
p5301
sg4
(lp5302
(g197
g6
(g18
S'j\xce\x8a>'
p5303
tp5304
Rp5305
tp5306
a(g150
g6
(g18
S'\x08\xff7>'
p5307
tp5308
Rp5309
tp5310
a(g209
g6
(g18
S'-8\x17>'
p5311
tp5312
Rp5313
tp5314
a(g221
g6
(g18
S'\x80j\xc1='
p5315
tp5316
Rp5317
tp5318
a(g32
g6
(g18
S'\xeb\x10\x84='
p5319
tp5320
Rp5321
tp5322
asg73
g32
sa(dp5323
g2
S'../../../data/emanuela/activity-recognition/images/NTCIR-Lifelog-256/u2/2015-04-25/b00003047_21i7lf_20150425_113709e.jpg'
p5324
sg4
(lp5325
(g44
g6
(g18
S'\x1e\xec1?'
p5326
tp5327
Rp5328
tp5329
a(g32
g6
(g18
S'\xf2q\x96>'
p5330
tp5331
Rp5332
tp5333
a(g150
g6
(g18
S';,\xd3;'
p5334
tp5335
Rp5336
tp5337
a(g197
g6
(g18
S'\x8c\xc1\xe8:'
p5338
tp5339
Rp5340
tp5341
a(g221
g6
(g18
S'/\x1e\xab:'
p5342
tp5343
Rp5344
tp5345
asg73
g32
sa(dp5346
g2
S'../../../data/emanuela/activity-recognition/images/NTCIR-Lifelog-256/u2/2015-05-04/b00004791_21i7lf_20150504_133321e.jpg'
p5347
sg4
(lp5348
(g32
g6
(g18
S'\xa3\xc9b?'
p5349
tp5350
Rp5351
tp5352
a(g150
g6
(g18
S'\x9e\x89\xf8<'
p5353
tp5354
Rp5355
tp5356
a(g221
g6
(g18
S'\x8f\x1b\xeb<'
p5357
tp5358
Rp5359
tp5360
a(g44
g6
(g18
S'\x00\x04\x94<'
p5361
tp5362
Rp5363
tp5364
a(g15
g6
(g18
S'\xe9\xbf\x90<'
p5365
tp5366
Rp5367
tp5368
asg73
g32
sa(dp5369
g2
S'../../../data/emanuela/activity-recognition/images/NTCIR-Lifelog-256/u2/2015-04-22/b00000946_21i7lf_20150422_080613e.jpg'
p5370
sg4
(lp5371
(g115
g6
(g18
S'\xbf\t\xc7>'
p5372
tp5373
Rp5374
tp5375
a(g44
g6
(g18
S'\xc1\xfcv>'
p5376
tp5377
Rp5378
tp5379
a(g32
g6
(g18
S'\xb2w\r>'
p5380
tp5381
Rp5382
tp5383
a(g68
g6
(g18
S'\x1a\x18\xc0='
p5384
tp5385
Rp5386
tp5387
a(g56
g6
(g18
S'\xd0\xe7\xba='
p5388
tp5389
Rp5390
tp5391
asg73
g32
sa(dp5392
g2
S'../../../data/emanuela/activity-recognition/images/NTCIR-Lifelog-256/u2/2015-05-04/b00004695_21i7lf_20150504_121303e.jpg'
p5393
sg4
(lp5394
(g209
g6
(g18
S'b%n>'
p5395
tp5396
Rp5397
tp5398
a(g197
g6
(g18
S'\xf3],>'
p5399
tp5400
Rp5401
tp5402
a(g221
g6
(g18
S'\xa5\xde&>'
p5403
tp5404
Rp5405
tp5406
a(g150
g6
(g18
S'\xed"\xed='
p5407
tp5408
Rp5409
tp5410
a(g233
g6
(g18
S'\xa1\x89\xae='
p5411
tp5412
Rp5413
tp5414
asg73
g32
sa(dp5415
g2
S'../../../data/emanuela/activity-recognition/images/NTCIR-Lifelog-256/u2/2015-05-01/b00002621_21i7lf_20150501_183950e.jpg'
p5416
sg4
(lp5417
(g115
g6
(g18
S'\x1f\x92\xe2>'
p5418
tp5419
Rp5420
tp5421
a(g68
g6
(g18
S'`\x1a\xcb>'
p5422
tp5423
Rp5424
tp5425
a(g92
g6
(g18
S'U4Q='
p5426
tp5427
Rp5428
tp5429
a(g56
g6
(g18
S'\x0f\x19"='
p5430
tp5431
Rp5432
tp5433
a(g32
g6
(g18
S'ky\x82<'
p5434
tp5435
Rp5436
tp5437
asg73
g32
sa(dp5438
g2
S'../../../data/emanuela/activity-recognition/images/NTCIR-Lifelog-256/u2/2015-05-04/b00004923_21i7lf_20150504_183528e.jpg'
p5439
sg4
(lp5440
(g32
g6
(g18
S'1}\x12?'
p5441
tp5442
Rp5443
tp5444
a(g150
g6
(g18
S'\xfa\xc4\x86='
p5445
tp5446
Rp5447
tp5448
a(g68
g6
(g18
S'\x89f\x86='
p5449
tp5450
Rp5451
tp5452
a(g233
g6
(g18
S'E\xfb\x80='
p5453
tp5454
Rp5455
tp5456
a(g56
g6
(g18
S'\xa9,F='
p5457
tp5458
Rp5459
tp5460
asg73
g32
sa(dp5461
g2
S'../../../data/emanuela/activity-recognition/images/NTCIR-Lifelog-256/u2/2015-04-25/b00003066_21i7lf_20150425_114926e.jpg'
p5462
sg4
(lp5463
(g209
g6
(g18
S'\x1e\\\x84>'
p5464
tp5465
Rp5466
tp5467
a(g197
g6
(g18
S'\xf7\x90\x11>'
p5468
tp5469
Rp5470
tp5471
a(g32
g6
(g18
S'\x9e`\xf3='
p5472
tp5473
Rp5474
tp5475
a(g375
g6
(g18
S'\xffm\xf0='
p5476
tp5477
Rp5478
tp5479
a(g44
g6
(g18
S'\x14\xc5u='
p5480
tp5481
Rp5482
tp5483
asg73
g32
sa(dp5484
g2
S'../../../data/emanuela/activity-recognition/images/NTCIR-Lifelog-256/u2/2015-05-04/b00004818_21i7lf_20150504_135019e.jpg'
p5485
sg4
(lp5486
(g68
g6
(g18
S'\x86\xfe\xa2>'
p5487
tp5488
Rp5489
tp5490
a(g233
g6
(g18
S'{\xdc~>'
p5491
tp5492
Rp5493
tp5494
a(g197
g6
(g18
S'\xae\xd4i='
p5495
tp5496
Rp5497
tp5498
a(g92
g6
(g18
S'\xe4,X='
p5499
tp5500
Rp5501
tp5502
a(g15
g6
(g18
S'=\xabO='
p5503
tp5504
Rp5505
tp5506
asg73
g32
sa(dp5507
g2
S'../../../data/emanuela/activity-recognition/images/NTCIR-Lifelog-256/u2/2015-04-27/b00004911_21i7lf_20150427_083249e.jpg'
p5508
sg4
(lp5509
(g32
g6
(g18
S']\x8e\x89>'
p5510
tp5511
Rp5512
tp5513
a(g44
g6
(g18
S'\xb1\x1dP>'
p5514
tp5515
Rp5516
tp5517
a(g68
g6
(g18
S'\xf3z6>'
p5518
tp5519
Rp5520
tp5521
a(g115
g6
(g18
S'\x10\xac\x02>'
p5522
tp5523
Rp5524
tp5525
a(g15
g6
(g18
S'd\xdd\x7f='
p5526
tp5527
Rp5528
tp5529
asg73
g32
sa(dp5530
g2
S'../../../data/emanuela/activity-recognition/images/NTCIR-Lifelog-256/u2/2015-05-01/b00002624_21i7lf_20150501_184135e.jpg'
p5531
sg4
(lp5532
(g44
g6
(g18
S'\xa77\xa1>'
p5533
tp5534
Rp5535
tp5536
a(g32
g6
(g18
S'e1\x8c>'
p5537
tp5538
Rp5539
tp5540
a(g115
g6
(g18
S'>L,>'
p5541
tp5542
Rp5543
tp5544
a(g68
g6
(g18
S'\xca\xa1\r>'
p5545
tp5546
Rp5547
tp5548
a(g56
g6
(g18
S'\xe8I\xd6<'
p5549
tp5550
Rp5551
tp5552
asg73
g32
sa(dp5553
g2
S'../../../data/emanuela/activity-recognition/images/NTCIR-Lifelog-256/u2/2015-04-29/b00000145_21i7lf_20150429_182945e.jpg'
p5554
sg4
(lp5555
(g92
g6
(g18
S'j\xe8M?'
p5556
tp5557
Rp5558
tp5559
a(g166
g6
(g18
S'\xa5\x93\xa2='
p5560
tp5561
Rp5562
tp5563
a(g1369
g6
(g18
S'\xaf\xedn='
p5564
tp5565
Rp5566
tp5567
a(g56
g6
(g18
S'\x10\r\x83<'
p5568
tp5569
Rp5570
tp5571
a(g15
g6
(g18
S'\x11\xbd\x1d<'
p5572
tp5573
Rp5574
tp5575
asg73
g32
sa(dp5576
g2
S'../../../data/emanuela/activity-recognition/images/NTCIR-Lifelog-256/u2/2015-05-04/b00004619_21i7lf_20150504_112536e.jpg'
p5577
sg4
(lp5578
(g15
g6
(g18
S'\x8c\xf9\xec>'
p5579
tp5580
Rp5581
tp5582
a(g32
g6
(g18
S'\xbc\xf5f>'
p5583
tp5584
Rp5585
tp5586
a(g44
g6
(g18
S'\xaa%\xfd='
p5587
tp5588
Rp5589
tp5590
a(g92
g6
(g18
S'\xe7\x00\x81='
p5591
tp5592
Rp5593
tp5594
a(g68
g6
(g18
S'05\x0b='
p5595
tp5596
Rp5597
tp5598
asg73
g32
sa(dp5599
g2
S'../../../data/emanuela/activity-recognition/images/NTCIR-Lifelog-256/u2/2015-05-02/b00003331_21i7lf_20150502_151202e.jpg'
p5600
sg4
(lp5601
(g15
g6
(g18
S'c\\\xf8>'
p5602
tp5603
Rp5604
tp5605
a(g32
g6
(g18
S'=\n[>'
p5606
tp5607
Rp5608
tp5609
a(g92
g6
(g18
S'\x1f\x1a\x03>'
p5610
tp5611
Rp5612
tp5613
a(g56
g6
(g18
S'\xa08\xb7='
p5614
tp5615
Rp5616
tp5617
a(g851
g6
(g18
S'\xae\x14C='
p5618
tp5619
Rp5620
tp5621
asg73
g32
sa(dp5622
g2
S'../../../data/emanuela/activity-recognition/images/NTCIR-Lifelog-256/u2/2015-04-27/b00005990_21i7lf_20150427_193723e.jpg'
p5623
sg4
(lp5624
(g15
g6
(g18
S'kQ\xb3>'
p5625
tp5626
Rp5627
tp5628
a(g197
g6
(g18
S'\xf6\xf6\xee='
p5629
tp5630
Rp5631
tp5632
a(g352
g6
(g18
S'\x9f\xb6\xed='
p5633
tp5634
Rp5635
tp5636
a(g56
g6
(g18
S'/z\xe6='
p5637
tp5638
Rp5639
tp5640
a(g166
g6
(g18
S'LW\xce='
p5641
tp5642
Rp5643
tp5644
asg73
g32
sa(dp5645
g2
S'../../../data/emanuela/activity-recognition/images/NTCIR-Lifelog-256/u2/2015-04-29/b00000291_21i7lf_20150429_200125e.jpg'
p5646
sg4
(lp5647
(g851
g6
(g18
S'\x8c\xec\x1f?'
p5648
tp5649
Rp5650
tp5651
a(g15
g6
(g18
S'\x94\x8d+>'
p5652
tp5653
Rp5654
tp5655
a(g92
g6
(g18
S'\xa2\x14\x89='
p5656
tp5657
Rp5658
tp5659
a(g32
g6
(g18
S'\xf6/T='
p5660
tp5661
Rp5662
tp5663
a(g56
g6
(g18
S'\xd1\xc8\x02='
p5664
tp5665
Rp5666
tp5667
asg73
g32
sa(dp5668
g2
S'../../../data/emanuela/activity-recognition/images/NTCIR-Lifelog-256/u2/2015-05-04/b00004770_21i7lf_20150504_131902e.jpg'
p5669
sg4
(lp5670
(g150
g6
(g18
S'9e\x04?'
p5671
tp5672
Rp5673
tp5674
a(g32
g6
(g18
S'\x82:]>'
p5675
tp5676
Rp5677
tp5678
a(g44
g6
(g18
S'\xb2~\xa3='
p5679
tp5680
Rp5681
tp5682
a(g166
g6
(g18
S':xR='
p5683
tp5684
Rp5685
tp5686
a(g197
g6
(g18
S'\x9dN\xe9<'
p5687
tp5688
Rp5689
tp5690
asg73
g32
sa(dp5691
g2
S'../../../data/emanuela/activity-recognition/images/NTCIR-Lifelog-256/u2/2015-05-01/b00001729_21i7lf_20150501_083449e.jpg'
p5692
sg4
(lp5693
(g32
g6
(g18
S'\xdeY\xfc>'
p5694
tp5695
Rp5696
tp5697
a(g15
g6
(g18
S'\x0b\xc1O>'
p5698
tp5699
Rp5700
tp5701
a(g56
g6
(g18
S'\xb5\x8f\xa7='
p5702
tp5703
Rp5704
tp5705
a(g92
g6
(g18
S'\x9c25='
p5706
tp5707
Rp5708
tp5709
a(g68
g6
(g18
S'\xe5c4='
p5710
tp5711
Rp5712
tp5713
asg73
g32
sa(dp5714
g2
S'../../../data/emanuela/activity-recognition/images/NTCIR-Lifelog-256/u2/2015-05-04/b00004804_21i7lf_20150504_134110e.jpg'
p5715
sg4
(lp5716
(g44
g6
(g18
S'q\xdf\x07?'
p5717
tp5718
Rp5719
tp5720
a(g32
g6
(g18
S'\x00IW>'
p5721
tp5722
Rp5723
tp5724
a(g15
g6
(g18
S'\xb1\xf5\x01>'
p5725
tp5726
Rp5727
tp5728
a(g56
g6
(g18
S'\xc5\x13\xbf='
p5729
tp5730
Rp5731
tp5732
a(g92
g6
(g18
S'{\xe2J<'
p5733
tp5734
Rp5735
tp5736
asg73
g32
sa(dp5737
g2
S'../../../data/emanuela/activity-recognition/images/NTCIR-Lifelog-256/u2/2015-05-06/b00006237_21i7lf_20150506_071719e.jpg'
p5738
sg4
(lp5739
(g56
g6
(g18
S'\xa7\xfe\x82>'
p5740
tp5741
Rp5742
tp5743
a(g115
g6
(g18
S'\x15,\x80>'
p5744
tp5745
Rp5746
tp5747
a(g68
g6
(g18
S'\xc3(_>'
p5748
tp5749
Rp5750
tp5751
a(g15
g6
(g18
S'\xb7\xb9\x1a>'
p5752
tp5753
Rp5754
tp5755
a(g92
g6
(g18
S'j,\xf6<'
p5756
tp5757
Rp5758
tp5759
asg73
g32
sa(dp5760
g2
S'../../../data/emanuela/activity-recognition/images/NTCIR-Lifelog-256/u2/2015-04-29/b00000151_21i7lf_20150429_183316e.jpg'
p5761
sg4
(lp5762
(g92
g6
(g18
S'F72?'
p5763
tp5764
Rp5765
tp5766
a(g166
g6
(g18
S"@_'>"
p5767
tp5768
Rp5769
tp5770
a(g56
g6
(g18
S'\xbb\xca\x12='
p5771
tp5772
Rp5773
tp5774
a(g1369
g6
(g18
S'\xf9Q\xb3<'
p5775
tp5776
Rp5777
tp5778
a(g32
g6
(g18
S'/\x0b\xa0<'
p5779
tp5780
Rp5781
tp5782
asg73
g32
sa(dp5783
g2
S'../../../data/emanuela/activity-recognition/images/NTCIR-Lifelog-256/u2/2015-05-02/b00003335_21i7lf_20150502_151432e.jpg'
p5784
sg4
(lp5785
(g15
g6
(g18
S'\xda\xf8e?'
p5786
tp5787
Rp5788
tp5789
a(g56
g6
(g18
S'\xc8BS='
p5790
tp5791
Rp5792
tp5793
a(g68
g6
(g18
S'+\x005<'
p5794
tp5795
Rp5796
tp5797
a(g32
g6
(g18
S'\x18[!<'
p5798
tp5799
Rp5800
tp5801
a(g851
g6
(g18
S'\x1a\xc6\xcf;'
p5802
tp5803
Rp5804
tp5805
asg73
g32
sa(dp5806
g2
S'../../../data/emanuela/activity-recognition/images/NTCIR-Lifelog-256/u2/2015-04-25/b00003031_21i7lf_20150425_112741e.jpg'
p5807
sg4
(lp5808
(g56
g6
(g18
S'\x107\xe6>'
p5809
tp5810
Rp5811
tp5812
a(g15
g6
(g18
S'\x1b\x9c\x96>'
p5813
tp5814
Rp5815
tp5816
a(g32
g6
(g18
S'/\xc0\xda='
p5817
tp5818
Rp5819
tp5820
a(g44
g6
(g18
S'\xcb\x88\x9a='
p5821
tp5822
Rp5823
tp5824
a(g92
g6
(g18
S'\x06\xe4]='
p5825
tp5826
Rp5827
tp5828
asg73
g32
sa(dp5829
g2
S'../../../data/emanuela/activity-recognition/images/NTCIR-Lifelog-256/u2/2015-04-29/b00000139_21i7lf_20150429_182559e.jpg'
p5830
sg4
(lp5831
(g92
g6
(g18
S'+\xe8b?'
p5832
tp5833
Rp5834
tp5835
a(g166
g6
(g18
S'\x9f\x1c\x90='
p5836
tp5837
Rp5838
tp5839
a(g56
g6
(g18
S'e\xd4\x87<'
p5840
tp5841
Rp5842
tp5843
a(g1369
g6
(g18
S'\x95\xee\x04<'
p5844
tp5845
Rp5846
tp5847
a(g221
g6
(g18
S'\xabL\xf5;'
p5848
tp5849
Rp5850
tp5851
asg73
g32
sa(dp5852
g2
S'../../../data/emanuela/activity-recognition/images/NTCIR-Lifelog-256/u2/2015-05-04/b00004653_21i7lf_20150504_114701e.jpg'
p5853
sg4
(lp5854
(g197
g6
(g18
S'\x8ew\xd8>'
p5855
tp5856
Rp5857
tp5858
a(g15
g6
(g18
S'\xb2\xadM>'
p5859
tp5860
Rp5861
tp5862
a(g233
g6
(g18
S'\x04\xbe\xe2='
p5863
tp5864
Rp5865
tp5866
a(g221
g6
(g18
S'\x103\xde='
p5867
tp5868
Rp5869
tp5870
a(g32
g6
(g18
S'+]\x93='
p5871
tp5872
Rp5873
tp5874
asg73
g32
sa(dp5875
g2
S'../../../data/emanuela/activity-recognition/images/NTCIR-Lifelog-256/u2/2015-05-04/b00004598_21i7lf_20150504_111147e.jpg'
p5876
sg4
(lp5877
(g209
g6
(g18
S'\xfd\xaf\x0e?'
p5878
tp5879
Rp5880
tp5881
a(g851
g6
(g18
S'|\x89\x8b>'
p5882
tp5883
Rp5884
tp5885
a(g221
g6
(g18
S'\xd6\xdd\xbc='
p5886
tp5887
Rp5888
tp5889
a(g15
g6
(g18
S'\xad\xc8\xc1<'
p5890
tp5891
Rp5892
tp5893
a(g92
g6
(g18
S'S\xac4<'
p5894
tp5895
Rp5896
tp5897
asg73
g32
sa(dp5898
g2
S'../../../data/emanuela/activity-recognition/images/NTCIR-Lifelog-256/u2/2015-05-04/b00004600_21i7lf_20150504_111255e.jpg'
p5899
sg4
(lp5900
(g92
g6
(g18
S'\xa54\xa7>'
p5901
tp5902
Rp5903
tp5904
a(g851
g6
(g18
S'\xcc%\x0c>'
p5905
tp5906
Rp5907
tp5908
a(g209
g6
(g18
S'\x96c\x01>'
p5909
tp5910
Rp5911
tp5912
a(g233
g6
(g18
S'Ru\xe5='
p5913
tp5914
Rp5915
tp5916
a(g375
g6
(g18
S'8\xdf\xae='
p5917
tp5918
Rp5919
tp5920
asg73
g32
sa(dp5921
g2
S'../../../data/emanuela/activity-recognition/images/NTCIR-Lifelog-256/u2/2015-05-08/b00008656_21i7lf_20150508_090252e.jpg'
p5922
sg4
(lp5923
(g44
g6
(g18
S'\xea1\xb3>'
p5924
tp5925
Rp5926
tp5927
a(g32
g6
(g18
S'+\xeb\x91>'
p5928
tp5929
Rp5930
tp5931
a(g150
g6
(g18
S'.\x14]>'
p5932
tp5933
Rp5934
tp5935
a(g387
g6
(g18
S'\x1dYM='
p5936
tp5937
Rp5938
tp5939
a(g197
g6
(g18
S'5\xda\xe8<'
p5940
tp5941
Rp5942
tp5943
asg73
g32
sa(dp5944
g2
S'../../../data/emanuela/activity-recognition/images/NTCIR-Lifelog-256/u2/2015-05-04/b00004797_21i7lf_20150504_133701e.jpg'
p5945
sg4
(lp5946
(g150
g6
(g18
S'a\x16f?'
p5947
tp5948
Rp5949
tp5950
a(g851
g6
(g18
S'\xfay\xdb<'
p5951
tp5952
Rp5953
tp5954
a(g32
g6
(g18
S'M\xad\xba<'
p5955
tp5956
Rp5957
tp5958
a(g115
g6
(g18
S'\\~\x83<'
p5959
tp5960
Rp5961
tp5962
a(g166
g6
(g18
S'\xc77^<'
p5963
tp5964
Rp5965
tp5966
asg73
g32
sa(dp5967
g2
S'../../../data/emanuela/activity-recognition/images/NTCIR-Lifelog-256/u2/2015-04-29/b00000089_21i7lf_20150429_175243e.jpg'
p5968
sg4
(lp5969
(g44
g6
(g18
S'\r\x89T?'
p5970
tp5971
Rp5972
tp5973
a(g32
g6
(g18
S'{\xf9 >'
p5974
tp5975
Rp5976
tp5977
a(g115
g6
(g18
S'\x91\x9eh;'
p5978
tp5979
Rp5980
tp5981
a(g352
g6
(g18
S'JId;'
p5982
tp5983
Rp5984
tp5985
a(g15
g6
(g18
S'\xa3Q\xef:'
p5986
tp5987
Rp5988
tp5989
asg73
g32
sa(dp5990
g2
S'../../../data/emanuela/activity-recognition/images/NTCIR-Lifelog-256/u2/2015-04-29/b00000857_21i7lf_20150429_162322e.jpg'
p5991
sg4
(lp5992
(g92
g6
(g18
S'\x82\xbe\n?'
p5993
tp5994
Rp5995
tp5996
a(g68
g6
(g18
S'\x88\xd0\x84>'
p5997
tp5998
Rp5999
tp6000
a(g56
g6
(g18
S'\x07l\xb7='
p6001
tp6002
Rp6003
tp6004
a(g115
g6
(g18
S'\xae6\x83='
p6005
tp6006
Rp6007
tp6008
a(g32
g6
(g18
S'&\x98\x8f<'
p6009
tp6010
Rp6011
tp6012
asg73
g32
sa(dp6013
g2
S'../../../data/emanuela/activity-recognition/images/NTCIR-Lifelog-256/u2/2015-05-04/b00004677_21i7lf_20150504_120157e.jpg'
p6014
sg4
(lp6015
(g15
g6
(g18
S'\x85\xe7:?'
p6016
tp6017
Rp6018
tp6019
a(g32
g6
(g18
S'\xfe\xdf\x1d>'
p6020
tp6021
Rp6022
tp6023
a(g44
g6
(g18
S'\x0ex*='
p6024
tp6025
Rp6026
tp6027
a(g56
g6
(g18
S'\xe6"\xb6<'
p6028
tp6029
Rp6030
tp6031
a(g221
g6
(g18
S'\x8d\x82w<'
p6032
tp6033
Rp6034
tp6035
asg73
g32
sa(dp6036
g2
S'../../../data/emanuela/activity-recognition/images/NTCIR-Lifelog-256/u2/2015-05-01/b00001731_21i7lf_20150501_083557e.jpg'
p6037
sg4
(lp6038
(g115
g6
(g18
S'\xef)\x9a>'
p6039
tp6040
Rp6041
tp6042
a(g15
g6
(g18
S'\x073\x8f>'
p6043
tp6044
Rp6045
tp6046
a(g68
g6
(g18
S'\x19\xe4B>'
p6047
tp6048
Rp6049
tp6050
a(g56
g6
(g18
S'\x82.\x1a>'
p6051
tp6052
Rp6053
tp6054
a(g92
g6
(g18
S'\x88\x0e\xb0<'
p6055
tp6056
Rp6057
tp6058
asg73
g32
sa(dp6059
g2
S'../../../data/emanuela/activity-recognition/images/NTCIR-Lifelog-256/u2/2015-04-27/b00004912_21i7lf_20150427_083324e.jpg'
p6060
sg4
(lp6061
(g68
g6
(g18
S'\xcd\xa5\x02?'
p6062
tp6063
Rp6064
tp6065
a(g15
g6
(g18
S'\r\x82\x87>'
p6066
tp6067
Rp6068
tp6069
a(g56
g6
(g18
S'F\xd1y='
p6070
tp6071
Rp6072
tp6073
a(g197
g6
(g18
S'\xdbV/='
p6074
tp6075
Rp6076
tp6077
a(g115
g6
(g18
S'r\xdc\x1d='
p6078
tp6079
Rp6080
tp6081
asg73
g32
sa(dp6082
g2
S'../../../data/emanuela/activity-recognition/images/NTCIR-Lifelog-256/u2/2015-04-29/b00000087_21i7lf_20150429_175135e.jpg'
p6083
sg4
(lp6084
(g166
g6
(g18
S'.\x82\xd5>'
p6085
tp6086
Rp6087
tp6088
a(g32
g6
(g18
S'\xd3r\xe3='
p6089
tp6090
Rp6091
tp6092
a(g1369
g6
(g18
S'4C\xe1='
p6093
tp6094
Rp6095
tp6096
a(g92
g6
(g18
S'#\xcf\xde='
p6097
tp6098
Rp6099
tp6100
a(g44
g6
(g18
S'\xb5\x8di='
p6101
tp6102
Rp6103
tp6104
asg73
g32
sa(dp6105
g2
S'../../../data/emanuela/activity-recognition/images/NTCIR-Lifelog-256/u2/2015-04-25/b00003263_21i7lf_20150425_154053e.jpg'
p6106
sg4
(lp6107
(g68
g6
(g18
S'\xab\xf5\x94>'
p6108
tp6109
Rp6110
tp6111
a(g92
g6
(g18
S'&lW>'
p6112
tp6113
Rp6114
tp6115
a(g32
g6
(g18
S'*\x93\x0c>'
p6116
tp6117
Rp6118
tp6119
a(g44
g6
(g18
S'i\xf8\xc9='
p6120
tp6121
Rp6122
tp6123
a(g115
g6
(g18
S'\x94*\x90='
p6124
tp6125
Rp6126
tp6127
asg73
g32
sa(dp6128
g2
S'../../../data/emanuela/activity-recognition/images/NTCIR-Lifelog-256/u2/2015-05-04/b00004741_21i7lf_20150504_125803e.jpg'
p6129
sg4
(lp6130
(g32
g6
(g18
S'\x91]*?'
p6131
tp6132
Rp6133
tp6134
a(g44
g6
(g18
S'\x9a\xb0\xfc='
p6135
tp6136
Rp6137
tp6138
a(g197
g6
(g18
S'\xe9z;='
p6139
tp6140
Rp6141
tp6142
a(g221
g6
(g18
S'\xf1\xdf\n='
p6143
tp6144
Rp6145
tp6146
a(g15
g6
(g18
S'\xf4\xe5\x03='
p6147
tp6148
Rp6149
tp6150
asg73
g32
sa(dp6151
g2
S'../../../data/emanuela/activity-recognition/images/NTCIR-Lifelog-256/u2/2015-05-02/b00003337_21i7lf_20150502_151543e.jpg'
p6152
sg4
(lp6153
(g15
g6
(g18
S'\xb8\x88\xd4>'
p6154
tp6155
Rp6156
tp6157
a(g68
g6
(g18
S'\xe1Y\x10>'
p6158
tp6159
Rp6160
tp6161
a(g233
g6
(g18
S'W*\xf2='
p6162
tp6163
Rp6164
tp6165
a(g56
g6
(g18
S'\xa5g\xe3='
p6166
tp6167
Rp6168
tp6169
a(g92
g6
(g18
S'\x9e\xf3\xcf='
p6170
tp6171
Rp6172
tp6173
asg73
g32
sa(dp6174
g2
S'../../../data/emanuela/activity-recognition/images/NTCIR-Lifelog-256/u2/2015-05-05/b00005951_21i7lf_20150505_183054e.jpg'
p6175
sg4
(lp6176
(g115
g6
(g18
S'\xb8~\xdc>'
p6177
tp6178
Rp6179
tp6180
a(g68
g6
(g18
S'\x03\t\xa7>'
p6181
tp6182
Rp6183
tp6184
a(g56
g6
(g18
S'\xf6d\xab='
p6185
tp6186
Rp6187
tp6188
a(g92
g6
(g18
S'\xc9F\x98='
p6189
tp6190
Rp6191
tp6192
a(g15
g6
(g18
S'\xa8\x87\n='
p6193
tp6194
Rp6195
tp6196
asg73
g32
sa(dp6197
g2
S'../../../data/emanuela/activity-recognition/images/NTCIR-Lifelog-256/u2/2015-05-01/b00001714_21i7lf_20150501_082535e.jpg'
p6198
sg4
(lp6199
(g68
g6
(g18
S'F\x87\xab>'
p6200
tp6201
Rp6202
tp6203
a(g115
g6
(g18
S'\xb9\xfe\x8c>'
p6204
tp6205
Rp6206
tp6207
a(g56
g6
(g18
S'#\xea\x83>'
p6208
tp6209
Rp6210
tp6211
a(g15
g6
(g18
S"\xbeA'="
p6212
tp6213
Rp6214
tp6215
a(g44
g6
(g18
S'j\xf0\x11='
p6216
tp6217
Rp6218
tp6219
asg73
g32
sa(dp6220
g2
S'../../../data/emanuela/activity-recognition/images/NTCIR-Lifelog-256/u2/2015-05-04/b00004755_21i7lf_20150504_130648e.jpg'
p6221
sg4
(lp6222
(g44
g6
(g18
S'\x98\x89+?'
p6223
tp6224
Rp6225
tp6226
a(g32
g6
(g18
S'oL\xa3>'
p6227
tp6228
Rp6229
tp6230
a(g56
g6
(g18
S'\xd2\x82];'
p6231
tp6232
Rp6233
tp6234
a(g197
g6
(g18
S'\x9f\x02\x18;'
p6235
tp6236
Rp6237
tp6238
a(g15
g6
(g18
S'\\\x10\xd8:'
p6239
tp6240
Rp6241
tp6242
asg73
g32
sa(dp6243
g2
S'../../../data/emanuela/activity-recognition/images/NTCIR-Lifelog-256/u2/2015-05-06/b00006249_21i7lf_20150506_072444e.jpg'
p6244
sg4
(lp6245
(g68
g6
(g18
S'%\xee>?'
p6246
tp6247
Rp6248
tp6249
a(g92
g6
(g18
S'\t\xba\x01>'
p6250
tp6251
Rp6252
tp6253
a(g56
g6
(g18
S'\xb1\xbb3='
p6254
tp6255
Rp6256
tp6257
a(g15
g6
(g18
S'[\x11\xce<'
p6258
tp6259
Rp6260
tp6261
a(g115
g6
(g18
S'\xc2\xa5\xb4<'
p6262
tp6263
Rp6264
tp6265
asg73
g32
sa(dp6266
g2
S'../../../data/emanuela/activity-recognition/images/NTCIR-Lifelog-256/u2/2015-05-01/b00001725_21i7lf_20150501_083224e.jpg'
p6267
sg4
(lp6268
(g115
g6
(g18
S'$\x89\x13?'
p6269
tp6270
Rp6271
tp6272
a(g68
g6
(g18
S'\x9f\xe0V>'
p6273
tp6274
Rp6275
tp6276
a(g56
g6
(g18
S'3\xae\xbb='
p6277
tp6278
Rp6279
tp6280
a(g15
g6
(g18
S'd{X='
p6281
tp6282
Rp6283
tp6284
a(g92
g6
(g18
S'\xedz\x8f<'
p6285
tp6286
Rp6287
tp6288
asg73
g32
sa(dp6289
g2
S'../../../data/emanuela/activity-recognition/images/NTCIR-Lifelog-256/u2/2015-05-04/b00004761_21i7lf_20150504_131113e.jpg'
p6290
sg4
(lp6291
(g150
g6
(g18
S'0\x8b\xbb>'
p6292
tp6293
Rp6294
tp6295
a(g166
g6
(g18
S'\xa30\x8f>'
p6296
tp6297
Rp6298
tp6299
a(g32
g6
(g18
S'IF\x19>'
p6300
tp6301
Rp6302
tp6303
a(g44
g6
(g18
S'\x01z\xe5='
p6304
tp6305
Rp6306
tp6307
a(g221
g6
(g18
S'\xd0\x04\xc0<'
p6308
tp6309
Rp6310
tp6311
asg73
g32
sa(dp6312
g2
S'../../../data/emanuela/activity-recognition/images/NTCIR-Lifelog-256/u2/2015-05-04/b00004733_21i7lf_20150504_125309e.jpg'
p6313
sg4
(lp6314
(g32
g6
(g18
S'\xaem\xd9>'
p6315
tp6316
Rp6317
tp6318
a(g44
g6
(g18
S'\xff\xf0W>'
p6319
tp6320
Rp6321
tp6322
a(g150
g6
(g18
S'\xbfyJ>'
p6323
tp6324
Rp6325
tp6326
a(g387
g6
(g18
S'\x9c\x98i='
p6327
tp6328
Rp6329
tp6330
a(g221
g6
(g18
S'9\x8a\xd0<'
p6331
tp6332
Rp6333
tp6334
asg73
g32
sa(dp6335
g2
S'../../../data/emanuela/activity-recognition/images/NTCIR-Lifelog-256/u2/2015-04-30/b00001580_21i7lf_20150430_192100e.jpg'
p6336
sg4
(lp6337
(g115
g6
(g18
S'\x17\xbd\x18?'
p6338
tp6339
Rp6340
tp6341
a(g15
g6
(g18
S'K\nQ>'
p6342
tp6343
Rp6344
tp6345
a(g56
g6
(g18
S'i\xbb\t>'
p6346
tp6347
Rp6348
tp6349
a(g44
g6
(g18
S'\x11-\xe7<'
p6350
tp6351
Rp6352
tp6353
a(g68
g6
(g18
S'\x06\x06/<'
p6354
tp6355
Rp6356
tp6357
asg73
g32
sa(dp6358
g2
S'../../../data/emanuela/activity-recognition/images/NTCIR-Lifelog-256/u2/2015-05-04/b00004713_21i7lf_20150504_122407e.jpg'
p6359
sg4
(lp6360
(g150
g6
(g18
S'\xa8c\x03?'
p6361
tp6362
Rp6363
tp6364
a(g32
g6
(g18
S'\xa3\xc4\x90>'
p6365
tp6366
Rp6367
tp6368
a(g221
g6
(g18
S' O\x8f='
p6369
tp6370
Rp6371
tp6372
a(g44
g6
(g18
S'\xbb\xe6\x8c='
p6373
tp6374
Rp6375
tp6376
a(g166
g6
(g18
S'a6\t='
p6377
tp6378
Rp6379
tp6380
asg73
g32
sa(dp6381
g2
S'../../../data/emanuela/activity-recognition/images/NTCIR-Lifelog-256/u2/2015-05-04/b00004754_21i7lf_20150504_130608e.jpg'
p6382
sg4
(lp6383
(g44
g6
(g18
S'\x9e\x043?'
p6384
tp6385
Rp6386
tp6387
a(g32
g6
(g18
S'\x16\x1e\x90>'
p6388
tp6389
Rp6390
tp6391
a(g56
g6
(g18
S'\xda4\x15<'
p6392
tp6393
Rp6394
tp6395
a(g166
g6
(g18
S':\xa3o;'
p6396
tp6397
Rp6398
tp6399
a(g150
g6
(g18
S'\xcb\x82Z;'
p6400
tp6401
Rp6402
tp6403
asg73
g32
sa(dp6404
g2
S'../../../data/emanuela/activity-recognition/images/NTCIR-Lifelog-256/u2/2015-06-18/b00002460_21i7lf_20150618_081750e.jpg'
p6405
sg4
(lp6406
(g56
g6
(g18
S'N\xb3\xbf>'
p6407
tp6408
Rp6409
tp6410
a(g68
g6
(g18
S'a\xe4_>'
p6411
tp6412
Rp6413
tp6414
a(g15
g6
(g18
S'zdX>'
p6415
tp6416
Rp6417
tp6418
a(g44
g6
(g18
S'\xd8\xe0\x8f='
p6419
tp6420
Rp6421
tp6422
a(g92
g6
(g18
S'\x92cG='
p6423
tp6424
Rp6425
tp6426
asg73
g32
sa(dp6427
g2
S'../../../data/emanuela/activity-recognition/images/NTCIR-Lifelog-256/u2/2015-05-04/b00004763_21i7lf_20150504_131231e.jpg'
p6428
sg4
(lp6429
(g32
g6
(g18
S'\x0e\x13\xfc>'
p6430
tp6431
Rp6432
tp6433
a(g44
g6
(g18
S'\xb2\xf7e>'
p6434
tp6435
Rp6436
tp6437
a(g56
g6
(g18
S'f6\x8b='
p6438
tp6439
Rp6440
tp6441
a(g15
g6
(g18
S'N"=='
p6442
tp6443
Rp6444
tp6445
a(g197
g6
(g18
S'\x06\x96\x07='
p6446
tp6447
Rp6448
tp6449
asg73
g32
sa(dp6450
g2
S'../../../data/emanuela/activity-recognition/images/NTCIR-Lifelog-256/u2/2015-05-04/b00004748_21i7lf_20150504_130234e.jpg'
p6451
sg4
(lp6452
(g32
g6
(g18
S'\xff\x99\xdc>'
p6453
tp6454
Rp6455
tp6456
a(g15
g6
(g18
S'\xc42\x9d>'
p6457
tp6458
Rp6459
tp6460
a(g44
g6
(g18
S':.`>'
p6461
tp6462
Rp6463
tp6464
a(g150
g6
(g18
S'C3\xfb;'
p6465
tp6466
Rp6467
tp6468
a(g56
g6
(g18
S'S\xdc\xf3;'
p6469
tp6470
Rp6471
tp6472
asg73
g32
sa(dp6473
g2
S'../../../data/emanuela/activity-recognition/images/NTCIR-Lifelog-256/u2/2015-06-18/b00002456_21i7lf_20150618_081523e.jpg'
p6474
sg4
(lp6475
(g15
g6
(g18
S'J\xec\x95>'
p6476
tp6477
Rp6478
tp6479
a(g150
g6
(g18
S',\x8fI>'
p6480
tp6481
Rp6482
tp6483
a(g1369
g6
(g18
S'O\xad\x13>'
p6484
tp6485
Rp6486
tp6487
a(g32
g6
(g18
S')4\xaa='
p6488
tp6489
Rp6490
tp6491
a(g851
g6
(g18
S'\xc9\x95\x92='
p6492
tp6493
Rp6494
tp6495
asg73
g32
sa(dp6496
g2
S'../../../data/emanuela/activity-recognition/images/NTCIR-Lifelog-256/u2/2015-04-24/b00001870_21i7lf_20150424_082942e.jpg'
p6497
sg4
(lp6498
(g233
g6
(g18
S'\xc3\xc0\xe9>'
p6499
tp6500
Rp6501
tp6502
a(g15
g6
(g18
S'\xe5\xde\xf2='
p6503
tp6504
Rp6505
tp6506
a(g851
g6
(g18
S'\x86\xee\xcc='
p6507
tp6508
Rp6509
tp6510
a(g32
g6
(g18
S'W\x0c\xac='
p6511
tp6512
Rp6513
tp6514
a(g150
g6
(g18
S'-\x89\xa1='
p6515
tp6516
Rp6517
tp6518
asg73
g32
sa(dp6519
g2
S'../../../data/emanuela/activity-recognition/images/NTCIR-Lifelog-256/u2/2015-04-30/b00001558_21i7lf_20150430_190758e.jpg'
p6520
sg4
(lp6521
(g115
g6
(g18
S'\xf2w\xc1>'
p6522
tp6523
Rp6524
tp6525
a(g68
g6
(g18
S"'V\x8b>"
p6526
tp6527
Rp6528
tp6529
a(g92
g6
(g18
S'\xcc\xbf\x07>'
p6530
tp6531
Rp6532
tp6533
a(g56
g6
(g18
S'(\xb3\x9e='
p6534
tp6535
Rp6536
tp6537
a(g15
g6
(g18
S'\xc3\x95]='
p6538
tp6539
Rp6540
tp6541
asg73
g32
sa(dp6542
g2
S'../../../data/emanuela/activity-recognition/images/NTCIR-Lifelog-256/u2/2015-04-26/b00004653_21i7lf_20150426_210632e.jpg'
p6543
sg4
(lp6544
(g115
g6
(g18
S'\n?\xa8>'
p6545
tp6546
Rp6547
tp6548
a(g150
g6
(g18
S'\xd0\xc1\x84>'
p6549
tp6550
Rp6551
tp6552
a(g32
g6
(g18
S'43\xbc='
p6553
tp6554
Rp6555
tp6556
a(g44
g6
(g18
S'\x02a\x9b='
p6557
tp6558
Rp6559
tp6560
a(g15
g6
(g18
S'\x13.s='
p6561
tp6562
Rp6563
tp6564
asg73
g32
sa(dp6565
g2
S'../../../data/emanuela/activity-recognition/images/NTCIR-Lifelog-256/u2/2015-05-01/b00001720_21i7lf_20150501_082926e.jpg'
p6566
sg4
(lp6567
(g115
g6
(g18
S'>\xc5B?'
p6568
tp6569
Rp6570
tp6571
a(g68
g6
(g18
S'\x8eK\xdf='
p6572
tp6573
Rp6574
tp6575
a(g56
g6
(g18
S'@\x9a\x9f='
p6576
tp6577
Rp6578
tp6579
a(g15
g6
(g18
S'\r\x1e\xc4<'
p6580
tp6581
Rp6582
tp6583
a(g44
g6
(g18
S'\x9a\x80!<'
p6584
tp6585
Rp6586
tp6587
asg73
g32
sa(dp6588
g2
S'../../../data/emanuela/activity-recognition/images/NTCIR-Lifelog-256/u2/2015-04-25/b00003017_21i7lf_20150425_111840e.jpg'
p6589
sg4
(lp6590
(g32
g6
(g18
S'\x03sG>'
p6591
tp6592
Rp6593
tp6594
a(g15
g6
(g18
S'\xeb\x9f3>'
p6595
tp6596
Rp6597
tp6598
a(g44
g6
(g18
S'\xde\xba)>'
p6599
tp6600
Rp6601
tp6602
a(g209
g6
(g18
S'(\x86&>'
p6603
tp6604
Rp6605
tp6606
a(g1369
g6
(g18
S'\xe0\x82\x8c='
p6607
tp6608
Rp6609
tp6610
asg73
g32
sa(dp6611
g2
S'../../../data/emanuela/activity-recognition/images/NTCIR-Lifelog-256/u2/2015-05-04/b00004821_21i7lf_20150504_135252e.jpg'
p6612
sg4
(lp6613
(g32
g6
(g18
S'\x17_;?'
p6614
tp6615
Rp6616
tp6617
a(g150
g6
(g18
S'P\x90\xdf='
p6618
tp6619
Rp6620
tp6621
a(g44
g6
(g18
S'\xd1\x05\xa9='
p6622
tp6623
Rp6624
tp6625
a(g15
g6
(g18
S'Or\x8e<'
p6626
tp6627
Rp6628
tp6629
a(g197
g6
(g18
S'\xb7\xb1\x86<'
p6630
tp6631
Rp6632
tp6633
asg73
g32
sa(dp6634
g2
S'../../../data/emanuela/activity-recognition/images/NTCIR-Lifelog-256/u2/2015-05-02/b00003228_21i7lf_20150502_140824e.jpg'
p6635
sg4
(lp6636
(g32
g6
(g18
S'\xba\x1f\x8f>'
p6637
tp6638
Rp6639
tp6640
a(g92
g6
(g18
S'T\xf2W>'
p6641
tp6642
Rp6643
tp6644
a(g851
g6
(g18
S'\x90j\xea='
p6645
tp6646
Rp6647
tp6648
a(g233
g6
(g18
S'\xf9\xf2\xe2='
p6649
tp6650
Rp6651
tp6652
a(g68
g6
(g18
S'I\xbd\xa9='
p6653
tp6654
Rp6655
tp6656
asg73
g32
sa(dp6657
g2
S'../../../data/emanuela/activity-recognition/images/NTCIR-Lifelog-256/u2/2015-04-27/b00004907_21i7lf_20150427_083021e.jpg'
p6658
sg4
(lp6659
(g68
g6
(g18
S'\xe7\xbc\xbd>'
p6660
tp6661
Rp6662
tp6663
a(g15
g6
(g18
S'\x1e\x16K>'
p6664
tp6665
Rp6666
tp6667
a(g115
g6
(g18
S'\xe5\xd2\xf5='
p6668
tp6669
Rp6670
tp6671
a(g92
g6
(g18
S'Nf\x96='
p6672
tp6673
Rp6674
tp6675
a(g197
g6
(g18
S'\x17\xe5\x92='
p6676
tp6677
Rp6678
tp6679
asg73
g32
sa(dp6680
g2
S'../../../data/emanuela/activity-recognition/images/NTCIR-Lifelog-256/u2/2015-05-02/b00003328_21i7lf_20150502_151014e.jpg'
p6681
sg4
(lp6682
(g15
g6
(g18
S'B\xec\xa5>'
p6683
tp6684
Rp6685
tp6686
a(g92
g6
(g18
S'\x10\x00\xa2>'
p6687
tp6688
Rp6689
tp6690
a(g32
g6
(g18
S'Z\x8f\xab='
p6691
tp6692
Rp6693
tp6694
a(g851
g6
(g18
S'\x13]\xa3='
p6695
tp6696
Rp6697
tp6698
a(g56
g6
(g18
S'\xef\xbe\x95='
p6699
tp6700
Rp6701
tp6702
asg73
g32
sa(dp6703
g2
S'../../../data/emanuela/activity-recognition/images/NTCIR-Lifelog-256/u2/2015-05-02/b00003333_21i7lf_20150502_151314e.jpg'
p6704
sg4
(lp6705
(g32
g6
(g18
S'\xc7\xe9\xe7>'
p6706
tp6707
Rp6708
tp6709
a(g92
g6
(g18
S'\xaek\x80>'
p6710
tp6711
Rp6712
tp6713
a(g15
g6
(g18
S'qJ\xa9='
p6714
tp6715
Rp6716
tp6717
a(g851
g6
(g18
S'\xc0\x8a\xa0='
p6718
tp6719
Rp6720
tp6721
a(g56
g6
(g18
S'\\\x80\xf0<'
p6722
tp6723
Rp6724
tp6725
asg73
g32
sa(dp6726
g2
S'../../../data/emanuela/activity-recognition/images/NTCIR-Lifelog-256/u2/2015-04-24/b00001875_21i7lf_20150424_083255e.jpg'
p6727
sg4
(lp6728
(g15
g6
(g18
S'\xdc\xb5\x98>'
p6729
tp6730
Rp6731
tp6732
a(g32
g6
(g18
S'\x9e\xa1\xf8='
p6733
tp6734
Rp6735
tp6736
a(g68
g6
(g18
S'R\x19\xcd='
p6737
tp6738
Rp6739
tp6740
a(g115
g6
(g18
S'\xff]\x9a='
p6741
tp6742
Rp6743
tp6744
a(g56
g6
(g18
S'\x00\x83\x8c='
p6745
tp6746
Rp6747
tp6748
asg73
g32
sa(dp6749
g2
S'../../../data/emanuela/activity-recognition/images/NTCIR-Lifelog-256/u2/2015-04-30/b00000624_21i7lf_20150430_080643e.jpg'
p6750
sg4
(lp6751
(g115
g6
(g18
S'6+\x89>'
p6752
tp6753
Rp6754
tp6755
a(g68
g6
(g18
S'\xc4\x06k>'
p6756
tp6757
Rp6758
tp6759
a(g56
g6
(g18
S'|B\xdb='
p6760
tp6761
Rp6762
tp6763
a(g15
g6
(g18
S'p\t\xab='
p6764
tp6765
Rp6766
tp6767
a(g150
g6
(g18
S'o\xa7\xa0='
p6768
tp6769
Rp6770
tp6771
asg73
g32
sa(dp6772
g2
S'../../../data/emanuela/activity-recognition/images/NTCIR-Lifelog-256/u2/2015-04-22/b00000952_21i7lf_20150422_080940e.jpg'
p6773
sg4
(lp6774
(g197
g6
(g18
S'G_\x81>'
p6775
tp6776
Rp6777
tp6778
a(g150
g6
(g18
S'( C>'
p6779
tp6780
Rp6781
tp6782
a(g209
g6
(g18
S'\x04\xa9\x1d>'
p6783
tp6784
Rp6785
tp6786
a(g221
g6
(g18
S'l\xf6\xba='
p6787
tp6788
Rp6789
tp6790
a(g32
g6
(g18
S'\x05\xab\x8b='
p6791
tp6792
Rp6793
tp6794
asg73
g32
sa(dp6795
g2
S'../../../data/emanuela/activity-recognition/images/NTCIR-Lifelog-256/u2/2015-05-06/b00006239_21i7lf_20150506_071835e.jpg'
p6796
sg4
(lp6797
(g115
g6
(g18
S'\xe2B\xef>'
p6798
tp6799
Rp6800
tp6801
a(g44
g6
(g18
S'\xa5fg>'
p6802
tp6803
Rp6804
tp6805
a(g32
g6
(g18
S')\xca\xac='
p6806
tp6807
Rp6808
tp6809
a(g197
g6
(g18
S'\n\xbe_='
p6810
tp6811
Rp6812
tp6813
a(g375
g6
(g18
S'P\xd0\xe5<'
p6814
tp6815
Rp6816
tp6817
asg73
g32
sa(dp6818
g2
S'../../../data/emanuela/activity-recognition/images/NTCIR-Lifelog-256/u2/2015-04-30/b00001559_21i7lf_20150430_190831e.jpg'
p6819
sg4
(lp6820
(g68
g6
(g18
S'\xea\xf0\xe5>'
p6821
tp6822
Rp6823
tp6824
a(g56
g6
(g18
S'\x10@5>'
p6825
tp6826
Rp6827
tp6828
a(g15
g6
(g18
S'\xca+3>'
p6829
tp6830
Rp6831
tp6832
a(g92
g6
(g18
S'\xc0K\xc6='
p6833
tp6834
Rp6835
tp6836
a(g115
g6
(g18
S'\xf9\xa8X='
p6837
tp6838
Rp6839
tp6840
asg73
g32
sa(dp6841
g2
S'../../../data/emanuela/activity-recognition/images/NTCIR-Lifelog-256/u2/2015-05-04/b00004637_21i7lf_20150504_113718e.jpg'
p6842
sg4
(lp6843
(g197
g6
(g18
S'\xa1\xfb\xcf>'
p6844
tp6845
Rp6846
tp6847
a(g32
g6
(g18
S'\xc7\xaa\x16>'
p6848
tp6849
Rp6850
tp6851
a(g209
g6
(g18
S'\xe3\x05\xe3='
p6852
tp6853
Rp6854
tp6855
a(g15
g6
(g18
S'P\xd6u='
p6856
tp6857
Rp6858
tp6859
a(g44
g6
(g18
S'\xe2hH='
p6860
tp6861
Rp6862
tp6863
asg73
g32
sa(dp6864
g2
S'../../../data/emanuela/activity-recognition/images/NTCIR-Lifelog-256/u2/2015-04-29/b00000292_21i7lf_20150429_200211e.jpg'
p6865
sg4
(lp6866
(g32
g6
(g18
S'\x8e\xd4\x06?'
p6867
tp6868
Rp6869
tp6870
a(g44
g6
(g18
S'\xe3-\x03>'
p6871
tp6872
Rp6873
tp6874
a(g92
g6
(g18
S'>\r\xe1='
p6875
tp6876
Rp6877
tp6878
a(g15
g6
(g18
S'\xfc\x12~='
p6879
tp6880
Rp6881
tp6882
a(g115
g6
(g18
S'\x19\xe1)='
p6883
tp6884
Rp6885
tp6886
asg73
g32
sa(dp6887
g2
S'../../../data/emanuela/activity-recognition/images/NTCIR-Lifelog-256/u2/2015-04-25/b00002982_21i7lf_20150425_105513e.jpg'
p6888
sg4
(lp6889
(g32
g6
(g18
S'\x1b\x112?'
p6890
tp6891
Rp6892
tp6893
a(g44
g6
(g18
S'\xe8L^>'
p6894
tp6895
Rp6896
tp6897
a(g56
g6
(g18
S'\x938\xee<'
p6898
tp6899
Rp6900
tp6901
a(g15
g6
(g18
S'o\xcd\xca<'
p6902
tp6903
Rp6904
tp6905
a(g92
g6
(g18
S'm%:<'
p6906
tp6907
Rp6908
tp6909
asg73
g32
sa(dp6910
g2
S'../../../data/emanuela/activity-recognition/images/NTCIR-Lifelog-256/u2/2015-04-25/b00003080_21i7lf_20150425_115840e.jpg'
p6911
sg4
(lp6912
(g44
g6
(g18
S'\xc6n\x18?'
p6913
tp6914
Rp6915
tp6916
a(g32
g6
(g18
S'\xf3L\xc0>'
p6917
tp6918
Rp6919
tp6920
a(g150
g6
(g18
S'\x1d5\xf1;'
p6921
tp6922
Rp6923
tp6924
a(g166
g6
(g18
S'B\xfe\xaf;'
p6925
tp6926
Rp6927
tp6928
a(g209
g6
(g18
S'"\xf0H;'
p6929
tp6930
Rp6931
tp6932
asg73
g32
sa(dp6933
g2
S'../../../data/emanuela/activity-recognition/images/NTCIR-Lifelog-256/u2/2015-05-04/b00004751_21i7lf_20150504_130425e.jpg'
p6934
sg4
(lp6935
(g32
g6
(g18
S'm}\x17?'
p6936
tp6937
Rp6938
tp6939
a(g44
g6
(g18
S'\x84"\xcd>'
p6940
tp6941
Rp6942
tp6943
a(g56
g6
(g18
S'\xef\xe8l;'
p6944
tp6945
Rp6946
tp6947
a(g15
g6
(g18
S'\xef"\x9d:'
p6948
tp6949
Rp6950
tp6951
a(g115
g6
(g18
S'\x8b\x93t:'
p6952
tp6953
Rp6954
tp6955
asg73
g32
sa(dp6956
g2
S'../../../data/emanuela/activity-recognition/images/NTCIR-Lifelog-256/u2/2015-04-29/b00000298_21i7lf_20150429_200539e.jpg'
p6957
sg4
(lp6958
(g92
g6
(g18
S'=\x1b\x7f>'
p6959
tp6960
Rp6961
tp6962
a(g68
g6
(g18
S'\xa5Eo>'
p6963
tp6964
Rp6965
tp6966
a(g15
g6
(g18
S'n\x9f\t>'
p6967
tp6968
Rp6969
tp6970
a(g233
g6
(g18
S'{\x9a\x03>'
p6971
tp6972
Rp6973
tp6974
a(g150
g6
(g18
S't\xafS='
p6975
tp6976
Rp6977
tp6978
asg73
g32
sa(dp6979
g2
S'../../../data/emanuela/activity-recognition/images/NTCIR-Lifelog-256/u2/2015-05-08/b00008652_21i7lf_20150508_090018e.jpg'
p6980
sg4
(lp6981
(g32
g6
(g18
S'\x8f\xbc\xec>'
p6982
tp6983
Rp6984
tp6985
a(g56
g6
(g18
S'\x1eN\x16>'
p6986
tp6987
Rp6988
tp6989
a(g44
g6
(g18
S'\xb2y\xd9='
p6990
tp6991
Rp6992
tp6993
a(g15
g6
(g18
S'08\xc0='
p6994
tp6995
Rp6996
tp6997
a(g209
g6
(g18
S'\xc0^\x15='
p6998
tp6999
Rp7000
tp7001
asg73
g32
sa(dp7002
g2
S'../../../data/emanuela/activity-recognition/images/NTCIR-Lifelog-256/u2/2015-05-01/b00002628_21i7lf_20150501_184405e.jpg'
p7003
sg4
(lp7004
(g68
g6
(g18
S'\x01sK>'
p7005
tp7006
Rp7007
tp7008
a(g15
g6
(g18
S'\x96\xd4J>'
p7009
tp7010
Rp7011
tp7012
a(g115
g6
(g18
S'\xdc\x87I>'
p7013
tp7014
Rp7015
tp7016
a(g375
g6
(g18
S'\xe7\x86\xda='
p7017
tp7018
Rp7019
tp7020
a(g32
g6
(g18
S'>\xd2\x87='
p7021
tp7022
Rp7023
tp7024
asg73
g32
sa(dp7025
g2
S'../../../data/emanuela/activity-recognition/images/NTCIR-Lifelog-256/u2/2015-04-27/b00004909_21i7lf_20150427_083135e.jpg'
p7026
sg4
(lp7027
(g68
g6
(g18
S'eT3?'
p7028
tp7029
Rp7030
tp7031
a(g15
g6
(g18
S'\x9f\x04\x8e='
p7032
tp7033
Rp7034
tp7035
a(g197
g6
(g18
S'\x1c\xeb\x86='
p7036
tp7037
Rp7038
tp7039
a(g92
g6
(g18
S'j\xb6z='
p7040
tp7041
Rp7042
tp7043
a(g56
g6
(g18
S'\xcc|J='
p7044
tp7045
Rp7046
tp7047
asg73
g32
sa(dp7048
g2
S'../../../data/emanuela/activity-recognition/images/NTCIR-Lifelog-256/u2/2015-04-29/b00000148_21i7lf_20150429_183131e.jpg'
p7049
sg4
(lp7050
(g209
g6
(g18
S'\x81\x9d\xae>'
p7051
tp7052
Rp7053
tp7054
a(g150
g6
(g18
S'{\xc3S>'
p7055
tp7056
Rp7057
tp7058
a(g352
g6
(g18
S"'\xf7\xaf="
p7059
tp7060
Rp7061
tp7062
a(g166
g6
(g18
S'\x11\xb3\xa5='
p7063
tp7064
Rp7065
tp7066
a(g221
g6
(g18
S'\xb0\xebk='
p7067
tp7068
Rp7069
tp7070
asg73
g32
sa(dp7071
g2
S'../../../data/emanuela/activity-recognition/images/NTCIR-Lifelog-256/u2/2015-05-04/b00004926_21i7lf_20150504_183723e.jpg'
p7072
sg4
(lp7073
(g15
g6
(g18
S'\x80\x8a\x9a>'
p7074
tp7075
Rp7076
tp7077
a(g68
g6
(g18
S'%\xbfv>'
p7078
tp7079
Rp7080
tp7081
a(g56
g6
(g18
S'f\xea\x1a>'
p7082
tp7083
Rp7084
tp7085
a(g92
g6
(g18
S'\xdc\xb0\xc6='
p7086
tp7087
Rp7088
tp7089
a(g44
g6
(g18
S'm\xcb\xc5='
p7090
tp7091
Rp7092
tp7093
asg73
g32
sa(dp7094
g2
S'../../../data/emanuela/activity-recognition/images/NTCIR-Lifelog-256/u2/2015-05-05/b00005938_21i7lf_20150505_182242e.jpg'
p7095
sg4
(lp7096
(g221
g6
(g18
S'\x01V\xde>'
p7097
tp7098
Rp7099
tp7100
a(g32
g6
(g18
S'\xf9!\x05>'
p7101
tp7102
Rp7103
tp7104
a(g44
g6
(g18
S'\xc1G\xdd='
p7105
tp7106
Rp7107
tp7108
a(g197
g6
(g18
S'\x85[\x82='
p7109
tp7110
Rp7111
tp7112
a(g15
g6
(g18
S'\x1f\xfb|='
p7113
tp7114
Rp7115
tp7116
asg73
g32
sa(dp7117
g2
S'../../../data/emanuela/activity-recognition/images/NTCIR-Lifelog-256/u2/2015-04-25/b00003075_21i7lf_20150425_115535e.jpg'
p7118
sg4
(lp7119
(g44
g6
(g18
S'\xe7\xc9&?'
p7120
tp7121
Rp7122
tp7123
a(g32
g6
(g18
S'\x9e8\xb0>'
p7124
tp7125
Rp7126
tp7127
a(g56
g6
(g18
S'Z\xd9+;'
p7128
tp7129
Rp7130
tp7131
a(g15
g6
(g18
S'\xe1\x84!:'
p7132
tp7133
Rp7134
tp7135
a(g352
g6
(g18
S'5W\xd29'
p7136
tp7137
Rp7138
tp7139
asg73
g32
sa(dp7140
g2
S'../../../data/emanuela/activity-recognition/images/NTCIR-Lifelog-256/u2/2015-05-04/b00004599_21i7lf_20150504_111223e.jpg'
p7141
sg4
(lp7142
(g150
g6
(g18
S'3\x82\xc3>'
p7143
tp7144
Rp7145
tp7146
a(g233
g6
(g18
S'\xa8jo>'
p7147
tp7148
Rp7149
tp7150
a(g851
g6
(g18
S'\xc7\xd3\xad='
p7151
tp7152
Rp7153
tp7154
a(g92
g6
(g18
S'\x95\x91^='
p7155
tp7156
Rp7157
tp7158
a(g68
g6
(g18
S'\xba)E='
p7159
tp7160
Rp7161
tp7162
asg73
g32
sa(dp7163
g2
S'../../../data/emanuela/activity-recognition/images/NTCIR-Lifelog-256/u2/2015-05-04/b00004639_21i7lf_20150504_113837e.jpg'
p7164
sg4
(lp7165
(g32
g6
(g18
S'\xbf\x1d\x15?'
p7166
tp7167
Rp7168
tp7169
a(g150
g6
(g18
S'\xd5\xf93>'
p7170
tp7171
Rp7172
tp7173
a(g44
g6
(g18
S'\x86@\xb5='
p7174
tp7175
Rp7176
tp7177
a(g197
g6
(g18
S'WkT='
p7178
tp7179
Rp7180
tp7181
a(g387
g6
(g18
S'\xf0\x81\x03='
p7182
tp7183
Rp7184
tp7185
asg73
g32
sa(dp7186
g2
S'../../../data/emanuela/activity-recognition/images/NTCIR-Lifelog-256/u2/2015-06-16/b00001296_21i7lf_20150616_062402e.jpg'
p7187
sg4
(lp7188
(g221
g6
(g18
S'\xfe\xfc\xce>'
p7189
tp7190
Rp7191
tp7192
a(g92
g6
(g18
S'\xf0\x88)>'
p7193
tp7194
Rp7195
tp7196
a(g32
g6
(g18
S'\xf2\x92\xc0='
p7197
tp7198
Rp7199
tp7200
a(g15
g6
(g18
S'\xfa]\xb4='
p7201
tp7202
Rp7203
tp7204
a(g166
g6
(g18
S'3O5='
p7205
tp7206
Rp7207
tp7208
asg73
g32
sa(dp7209
g2
S'../../../data/emanuela/activity-recognition/images/NTCIR-Lifelog-256/u2/2015-05-04/b00004749_21i7lf_20150504_130308e.jpg'
p7210
sg4
(lp7211
(g32
g6
(g18
S'\xa7\xd3\x1d?'
p7212
tp7213
Rp7214
tp7215
a(g44
g6
(g18
S'\xaa\x8e\x81>'
p7216
tp7217
Rp7218
tp7219
a(g15
g6
(g18
S'9\xb2\xb6='
p7220
tp7221
Rp7222
tp7223
a(g209
g6
(g18
S'@\x18\x98<'
p7224
tp7225
Rp7226
tp7227
a(g197
g6
(g18
S'Ez\xb8;'
p7228
tp7229
Rp7230
tp7231
asg73
g32
sa(dp7232
g2
S'../../../data/emanuela/activity-recognition/images/NTCIR-Lifelog-256/u2/2015-05-04/b00004698_21i7lf_20150504_121455e.jpg'
p7233
sg4
(lp7234
(g92
g6
(g18
S'\xa5s\x9e>'
p7235
tp7236
Rp7237
tp7238
a(g233
g6
(g18
S'\xe3\x96\x8a>'
p7239
tp7240
Rp7241
tp7242
a(g197
g6
(g18
S'\xe6\xf1H>'
p7243
tp7244
Rp7245
tp7246
a(g166
g6
(g18
S'\xa4N\xa0='
p7247
tp7248
Rp7249
tp7250
a(g150
g6
(g18
S"'e\x9a="
p7251
tp7252
Rp7253
tp7254
asg73
g32
sa(dp7255
g2
S'../../../data/emanuela/activity-recognition/images/NTCIR-Lifelog-256/u2/2015-05-04/b00004756_21i7lf_20150504_130726e.jpg'
p7256
sg4
(lp7257
(g32
g6
(g18
S'6:\xf8='
p7258
tp7259
Rp7260
tp7261
a(g209
g6
(g18
S'\xd5M\xf4='
p7262
tp7263
Rp7264
tp7265
a(g15
g6
(g18
S'O\x03\xdf='
p7266
tp7267
Rp7268
tp7269
a(g68
g6
(g18
S'jn\xd0='
p7270
tp7271
Rp7272
tp7273
a(g197
g6
(g18
S'\x17`\xbb='
p7274
tp7275
Rp7276
tp7277
asg73
g32
sa(dp7278
g2
S'../../../data/emanuela/activity-recognition/images/NTCIR-Lifelog-256/u2/2015-05-05/b00005977_21i7lf_20150505_184726e.jpg'
p7279
sg4
(lp7280
(g115
g6
(g18
S'\xdew>?'
p7281
tp7282
Rp7283
tp7284
a(g56
g6
(g18
S'\xdf\xa9;='
p7285
tp7286
Rp7287
tp7288
a(g68
g6
(g18
S'vP;='
p7289
tp7290
Rp7291
tp7292
a(g44
g6
(g18
S'\xc4L\x1d='
p7293
tp7294
Rp7295
tp7296
a(g150
g6
(g18
S'\xfd"\n='
p7297
tp7298
Rp7299
tp7300
asg73
g32
sa(dp7301
g2
S'../../../data/emanuela/activity-recognition/images/NTCIR-Lifelog-256/u2/2015-05-04/b00004727_21i7lf_20150504_123237e.jpg'
p7302
sg4
(lp7303
(g68
g6
(g18
S'(\xa1\x80>'
p7304
tp7305
Rp7306
tp7307
a(g15
g6
(g18
S'\x94\xef_>'
p7308
tp7309
Rp7310
tp7311
a(g851
g6
(g18
S'\xe1C\x00>'
p7312
tp7313
Rp7314
tp7315
a(g92
g6
(g18
S'\xbd\xc6\xd4='
p7316
tp7317
Rp7318
tp7319
a(g56
g6
(g18
S'\xce<\xa0='
p7320
tp7321
Rp7322
tp7323
asg73
g32
sa(dp7324
g2
S'../../../data/emanuela/activity-recognition/images/NTCIR-Lifelog-256/u2/2015-04-25/b00003068_21i7lf_20150425_115039e.jpg'
p7325
sg4
(lp7326
(g68
g6
(g18
S'\x1co,>'
p7327
tp7328
Rp7329
tp7330
a(g197
g6
(g18
S'\xef\xa7\t>'
p7331
tp7332
Rp7333
tp7334
a(g15
g6
(g18
S'&B\xe9='
p7335
tp7336
Rp7337
tp7338
a(g32
g6
(g18
S'\xa6\x98\xda='
p7339
tp7340
Rp7341
tp7342
a(g233
g6
(g18
S'\xd3\x0f\xc3='
p7343
tp7344
Rp7345
tp7346
asg73
g32
sa(dp7347
g2
S'../../../data/emanuela/activity-recognition/images/NTCIR-Lifelog-256/u2/2015-05-02/b00003336_21i7lf_20150502_151505e.jpg'
p7348
sg4
(lp7349
(g15
g6
(g18
S'\xa0L_?'
p7350
tp7351
Rp7352
tp7353
a(g197
g6
(g18
S'\xb0f\xfb<'
p7354
tp7355
Rp7356
tp7357
a(g851
g6
(g18
S'\xe2\xbc\xec<'
p7358
tp7359
Rp7360
tp7361
a(g56
g6
(g18
S'\xe0\xe3\xb6<'
p7362
tp7363
Rp7364
tp7365
a(g68
g6
(g18
S'T\x15\x8d<'
p7366
tp7367
Rp7368
tp7369
asg73
g32
sa(dp7370
g2
S'../../../data/emanuela/activity-recognition/images/NTCIR-Lifelog-256/u2/2015-05-04/b00004746_21i7lf_20150504_130113e.jpg'
p7371
sg4
(lp7372
(g15
g6
(g18
S'\xd8\xbaj?'
p7373
tp7374
Rp7375
tp7376
a(g32
g6
(g18
S'\xa8a[='
p7377
tp7378
Rp7379
tp7380
a(g44
g6
(g18
S'=\xa2(<'
p7381
tp7382
Rp7383
tp7384
a(g56
g6
(g18
S'vR\x16<'
p7385
tp7386
Rp7387
tp7388
a(g197
g6
(g18
S'\x8aw\x1a;'
p7389
tp7390
Rp7391
tp7392
asg73
g32
sa(dp7393
g2
S'../../../data/emanuela/activity-recognition/images/NTCIR-Lifelog-256/u2/2015-04-25/b00003071_21i7lf_20150425_115310e.jpg'
p7394
sg4
(lp7395
(g197
g6
(g18
S'\xea"\xc0>'
p7396
tp7397
Rp7398
tp7399
a(g32
g6
(g18
S'LE\xe3='
p7400
tp7401
Rp7402
tp7403
a(g233
g6
(g18
S' Y\xd5='
p7404
tp7405
Rp7406
tp7407
a(g15
g6
(g18
S'\x16\xd0\x9e='
p7408
tp7409
Rp7410
tp7411
a(g209
g6
(g18
S'\xc0\x8d\x9d='
p7412
tp7413
Rp7414
tp7415
asg73
g32
sa(dp7416
g2
S'../../../data/emanuela/activity-recognition/images/NTCIR-Lifelog-256/u2/2015-04-25/b00003069_21i7lf_20150425_115200e.jpg'
p7417
sg4
(lp7418
(g32
g6
(g18
S'\xfd\xdf\xce>'
p7419
tp7420
Rp7421
tp7422
a(g44
g6
(g18
S'\xdb9\x84>'
p7423
tp7424
Rp7425
tp7426
a(g209
g6
(g18
S'\x8cK\x8c='
p7427
tp7428
Rp7429
tp7430
a(g150
g6
(g18
S'\xb3\xb3s='
p7431
tp7432
Rp7433
tp7434
a(g221
g6
(g18
S'B\xf7Z='
p7435
tp7436
Rp7437
tp7438
asg73
g32
sa(dp7439
g2
S'../../../data/emanuela/activity-recognition/images/NTCIR-Lifelog-256/u2/2015-05-01/b00001709_21i7lf_20150501_082231e.jpg'
p7440
sg4
(lp7441
(g115
g6
(g18
S'\xd1\xc7,?'
p7442
tp7443
Rp7444
tp7445
a(g56
g6
(g18
S'\x1fOa>'
p7446
tp7447
Rp7448
tp7449
a(g68
g6
(g18
S'\x95.1='
p7450
tp7451
Rp7452
tp7453
a(g44
g6
(g18
S'\xfc;\x17='
p7454
tp7455
Rp7456
tp7457
a(g15
g6
(g18
S'\xa4\xa6<<'
p7458
tp7459
Rp7460
tp7461
asg73
g32
sa(dp7462
g2
S'../../../data/emanuela/activity-recognition/images/NTCIR-Lifelog-256/u2/2015-06-16/b00001303_21i7lf_20150616_063040e.jpg'
p7463
sg4
(lp7464
(g209
g6
(g18
S'\xcc\xbc\x8f>'
p7465
tp7466
Rp7467
tp7468
a(g197
g6
(g18
S'\x90mK>'
p7469
tp7470
Rp7471
tp7472
a(g15
g6
(g18
S'T\xde\xdc='
p7473
tp7474
Rp7475
tp7476
a(g92
g6
(g18
S'\x95\x9e\xb9='
p7477
tp7478
Rp7479
tp7480
a(g68
g6
(g18
S'\x96\x88\xa8='
p7481
tp7482
Rp7483
tp7484
asg73
g32
sa(dp7485
g2
S'../../../data/emanuela/activity-recognition/images/NTCIR-Lifelog-256/u2/2015-04-25/b00003056_21i7lf_20150425_114241e.jpg'
p7486
sg4
(lp7487
(g15
g6
(g18
S'\x91\x1b\x8f>'
p7488
tp7489
Rp7490
tp7491
a(g209
g6
(g18
S'EP<>'
p7492
tp7493
Rp7494
tp7495
a(g221
g6
(g18
S'0\xdc\xd2='
p7496
tp7497
Rp7498
tp7499
a(g32
g6
(g18
S'\x14^\xb3='
p7500
tp7501
Rp7502
tp7503
a(g44
g6
(g18
S'\x8auh='
p7504
tp7505
Rp7506
tp7507
asg73
g32
sa(dp7508
g2
S'../../../data/emanuela/activity-recognition/images/NTCIR-Lifelog-256/u2/2015-04-29/b00000143_21i7lf_20150429_182831e.jpg'
p7509
sg4
(lp7510
(g92
g6
(g18
S'\x82\x80\x1b?'
p7511
tp7512
Rp7513
tp7514
a(g1369
g6
(g18
S'\xa6u\xdf='
p7515
tp7516
Rp7517
tp7518
a(g166
g6
(g18
S'g\xf9\x8f='
p7519
tp7520
Rp7521
tp7522
a(g15
g6
(g18
S'\xc1\x9dy='
p7523
tp7524
Rp7525
tp7526
a(g56
g6
(g18
S'W\xb2\xe4<'
p7527
tp7528
Rp7529
tp7530
asg73
g32
sa(dp7531
g2
S'../../../data/emanuela/activity-recognition/images/NTCIR-Lifelog-256/u2/2015-05-04/b00004780_21i7lf_20150504_132547e.jpg'
p7532
sg4
(lp7533
(g209
g6
(g18
S'cX-?'
p7534
tp7535
Rp7536
tp7537
a(g197
g6
(g18
S'\xc0\x89\x06>'
p7538
tp7539
Rp7540
tp7541
a(g375
g6
(g18
S'\x8d\x197='
p7542
tp7543
Rp7544
tp7545
a(g221
g6
(g18
S'\x0e\xb0\x07='
p7546
tp7547
Rp7548
tp7549
a(g352
g6
(g18
S'\x98\xea\xff<'
p7550
tp7551
Rp7552
tp7553
asg73
g32
sa(dp7554
g2
S'../../../data/emanuela/activity-recognition/images/NTCIR-Lifelog-256/u2/2015-04-23/b00001866_21i7lf_20150423_224034e.jpg'
p7555
sg4
(lp7556
(g221
g6
(g18
S'\x87\xbbe>'
p7557
tp7558
Rp7559
tp7560
a(g209
g6
(g18
S'3\xd71>'
p7561
tp7562
Rp7563
tp7564
a(g1369
g6
(g18
S'D\xcd\xdc='
p7565
tp7566
Rp7567
tp7568
a(g115
g6
(g18
S'N\x91\xc0='
p7569
tp7570
Rp7571
tp7572
a(g92
g6
(g18
S'\xdb2\x8e='
p7573
tp7574
Rp7575
tp7576
asg73
g32
sa(dp7577
g2
S'../../../data/emanuela/activity-recognition/images/NTCIR-Lifelog-256/u2/2015-04-22/b00000983_21i7lf_20150422_082810e.jpg'
p7578
sg4
(lp7579
(g32
g6
(g18
S'I\xc5\t?'
p7580
tp7581
Rp7582
tp7583
a(g56
g6
(g18
S'\x8ej\xbf='
p7584
tp7585
Rp7586
tp7587
a(g150
g6
(g18
S'\x8b\x8e\x8d='
p7588
tp7589
Rp7590
tp7591
a(g92
g6
(g18
S'&Rk='
p7592
tp7593
Rp7594
tp7595
a(g44
g6
(g18
S'}?T='
p7596
tp7597
Rp7598
tp7599
asg73
g32
sa(dp7600
g2
S'../../../data/emanuela/activity-recognition/images/NTCIR-Lifelog-256/u2/2015-04-26/b00004334_21i7lf_20150426_174755e.jpg'
p7601
sg4
(lp7602
(g15
g6
(g18
S'\x8c!\xdd>'
p7603
tp7604
Rp7605
tp7606
a(g352
g6
(g18
S'\xacX\x0e>'
p7607
tp7608
Rp7609
tp7610
a(g209
g6
(g18
S'\xf8\xb4\xf6='
p7611
tp7612
Rp7613
tp7614
a(g197
g6
(g18
S'\xe1\xd8\xd7='
p7615
tp7616
Rp7617
tp7618
a(g44
g6
(g18
S'\x9d\x1e9='
p7619
tp7620
Rp7621
tp7622
asg73
g32
sa(dp7623
g2
S'../../../data/emanuela/activity-recognition/images/NTCIR-Lifelog-256/u2/2015-05-04/b00004765_21i7lf_20150504_131344e.jpg'
p7624
sg4
(lp7625
(g32
g6
(g18
S'\x17\x1c\xe3>'
p7626
tp7627
Rp7628
tp7629
a(g150
g6
(g18
S'\nE\xc6='
p7630
tp7631
Rp7632
tp7633
a(g44
g6
(g18
S'\x1fG\xa7='
p7634
tp7635
Rp7636
tp7637
a(g56
g6
(g18
S'\xb8\xf2\xa6='
p7638
tp7639
Rp7640
tp7641
a(g221
g6
(g18
S'\xbb\xc3\x9e='
p7642
tp7643
Rp7644
tp7645
asg73
g32
sa(dp7646
g2
S'../../../data/emanuela/activity-recognition/images/NTCIR-Lifelog-256/u2/2015-05-04/b00004779_21i7lf_20150504_132510e.jpg'
p7647
sg4
(lp7648
(g15
g6
(g18
S'\xda\x0c}>'
p7649
tp7650
Rp7651
tp7652
a(g209
g6
(g18
S'J%\x08>'
p7653
tp7654
Rp7655
tp7656
a(g68
g6
(g18
S'\x91\x82\xc1='
p7657
tp7658
Rp7659
tp7660
a(g32
g6
(g18
S'\n\x13\x8f='
p7661
tp7662
Rp7663
tp7664
a(g387
g6
(g18
S'\x0b\r\x8e='
p7665
tp7666
Rp7667
tp7668
asg73
g32
sa(dp7669
g2
S'../../../data/emanuela/activity-recognition/images/NTCIR-Lifelog-256/u2/2015-04-25/b00003015_21i7lf_20150425_111718e.jpg'
p7670
sg4
(lp7671
(g44
g6
(g18
S'^K\x9f>'
p7672
tp7673
Rp7674
tp7675
a(g32
g6
(g18
S'\xe0&)>'
p7676
tp7677
Rp7678
tp7679
a(g115
g6
(g18
S'\xbe\xac\xc3='
p7680
tp7681
Rp7682
tp7683
a(g15
g6
(g18
S'X>\xa5='
p7684
tp7685
Rp7686
tp7687
a(g56
g6
(g18
S'%\xc7\xa4='
p7688
tp7689
Rp7690
tp7691
asg73
g32
sa(dp7692
g2
S'../../../data/emanuela/activity-recognition/images/NTCIR-Lifelog-256/u2/2015-04-27/b00004915_21i7lf_20150427_083518e.jpg'
p7693
sg4
(lp7694
(g115
g6
(g18
S'\xa8Q\xee>'
p7695
tp7696
Rp7697
tp7698
a(g68
g6
(g18
S'\xc7\x19->'
p7699
tp7700
Rp7701
tp7702
a(g15
g6
(g18
S'\x8bL\r>'
p7703
tp7704
Rp7705
tp7706
a(g56
g6
(g18
S'\x1cH\xd5='
p7707
tp7708
Rp7709
tp7710
a(g44
g6
(g18
S'j\x14g='
p7711
tp7712
Rp7713
tp7714
asg73
g32
sa(dp7715
g2
S'../../../data/emanuela/activity-recognition/images/NTCIR-Lifelog-256/u2/2015-05-04/b00004929_21i7lf_20150504_183919e.jpg'
p7716
sg4
(lp7717
(g15
g6
(g18
S'\x1dA\x97>'
p7718
tp7719
Rp7720
tp7721
a(g197
g6
(g18
S'=C:>'
p7722
tp7723
Rp7724
tp7725
a(g32
g6
(g18
S'\xbf=6>'
p7726
tp7727
Rp7728
tp7729
a(g375
g6
(g18
S'.q\x8e='
p7730
tp7731
Rp7732
tp7733
a(g233
g6
(g18
S'\xe4\x87A='
p7734
tp7735
Rp7736
tp7737
asg73
g32
sa(dp7738
g2
S'../../../data/emanuela/activity-recognition/images/NTCIR-Lifelog-256/u2/2015-05-02/b00003234_21i7lf_20150502_141202e.jpg'
p7739
sg4
(lp7740
(g32
g6
(g18
S'\xc8\xbf\xaa>'
p7741
tp7742
Rp7743
tp7744
a(g68
g6
(g18
S'_\x02\x07>'
p7745
tp7746
Rp7747
tp7748
a(g15
g6
(g18
S'Lf\xcb='
p7749
tp7750
Rp7751
tp7752
a(g44
g6
(g18
S'\xf1k\xa9='
p7753
tp7754
Rp7755
tp7756
a(g851
g6
(g18
S'\xf9\xee\x8a='
p7757
tp7758
Rp7759
tp7760
asg73
g32
sa(dp7761
g2
S'../../../data/emanuela/activity-recognition/images/NTCIR-Lifelog-256/u2/2015-05-04/b00004775_21i7lf_20150504_132243e.jpg'
p7762
sg4
(lp7763
(g150
g6
(g18
S'Ao\xfa>'
p7764
tp7765
Rp7766
tp7767
a(g32
g6
(g18
S'!\n\xc4>'
p7768
tp7769
Rp7770
tp7771
a(g221
g6
(g18
S'\x8b\xa2n='
p7772
tp7773
Rp7774
tp7775
a(g92
g6
(g18
S'\x86\xd87<'
p7776
tp7777
Rp7778
tp7779
a(g44
g6
(g18
S'\x05u)<'
p7780
tp7781
Rp7782
tp7783
asg73
g32
sa(dp7784
g2
S'../../../data/emanuela/activity-recognition/images/NTCIR-Lifelog-256/u2/2015-04-25/b00003016_21i7lf_20150425_111759e.jpg'
p7785
sg4
(lp7786
(g221
g6
(g18
S'\xf8\xcc4?'
p7787
tp7788
Rp7789
tp7790
a(g150
g6
(g18
S'[S\xf7='
p7791
tp7792
Rp7793
tp7794
a(g44
g6
(g18
S'\xed\xe1/='
p7795
tp7796
Rp7797
tp7798
a(g32
g6
(g18
S'\x03\xcb\x06='
p7799
tp7800
Rp7801
tp7802
a(g92
g6
(g18
S'L\xa6\xfd<'
p7803
tp7804
Rp7805
tp7806
asg73
g32
sa(dp7807
g2
S'../../../data/emanuela/activity-recognition/images/NTCIR-Lifelog-256/u2/2015-05-04/b00004697_21i7lf_20150504_121419e.jpg'
p7808
sg4
(lp7809
(g209
g6
(g18
S'eBP>'
p7810
tp7811
Rp7812
tp7813
a(g56
g6
(g18
S'\x9e\x1a">'
p7814
tp7815
Rp7816
tp7817
a(g68
g6
(g18
S'\xf6\xb7\xf5='
p7818
tp7819
Rp7820
tp7821
a(g15
g6
(g18
S'\xc9N\xdc='
p7822
tp7823
Rp7824
tp7825
a(g44
g6
(g18
S'7\x94h='
p7826
tp7827
Rp7828
tp7829
asg73
g32
sa(dp7830
g2
S'../../../data/emanuela/activity-recognition/images/NTCIR-Lifelog-256/u2/2015-04-27/b00004913_21i7lf_20150427_083405e.jpg'
p7831
sg4
(lp7832
(g15
g6
(g18
S'\xc2<\x14?'
p7833
tp7834
Rp7835
tp7836
a(g197
g6
(g18
S'\x1bM\xb8='
p7837
tp7838
Rp7839
tp7840
a(g68
g6
(g18
S'\xc7\x18\xaa='
p7841
tp7842
Rp7843
tp7844
a(g115
g6
(g18
S'\x8e\xb0\x97='
p7845
tp7846
Rp7847
tp7848
a(g56
g6
(g18
S'\xa7\x91$='
p7849
tp7850
Rp7851
tp7852
asg73
g32
sa(dp7853
g2
S'../../../data/emanuela/activity-recognition/images/NTCIR-Lifelog-256/u2/2015-05-04/b00004745_21i7lf_20150504_130034e.jpg'
p7854
sg4
(lp7855
(g15
g6
(g18
S'\xe4\xa6\xbc>'
p7856
tp7857
Rp7858
tp7859
a(g44
g6
(g18
S'L\x80S>'
p7860
tp7861
Rp7862
tp7863
a(g32
g6
(g18
S'\xb8B\xe7='
p7864
tp7865
Rp7866
tp7867
a(g221
g6
(g18
S'T\xe3\xb0='
p7868
tp7869
Rp7870
tp7871
a(g197
g6
(g18
S'}P\xab='
p7872
tp7873
Rp7874
tp7875
asg73
g32
sa(dp7876
g2
S'../../../data/emanuela/activity-recognition/images/NTCIR-Lifelog-256/u2/2015-04-27/b00004908_21i7lf_20150427_083103e.jpg'
p7877
sg4
(lp7878
(g15
g6
(g18
S'x\xb5\xf8>'
p7879
tp7880
Rp7881
tp7882
a(g32
g6
(g18
S'u\x08)>'
p7883
tp7884
Rp7885
tp7886
a(g68
g6
(g18
S'^!\xdb='
p7887
tp7888
Rp7889
tp7890
a(g115
g6
(g18
S' \xebO='
p7891
tp7892
Rp7893
tp7894
a(g150
g6
(g18
S'\x85\x9fA='
p7895
tp7896
Rp7897
tp7898
asg73
g32
sa(dp7899
g2
S'../../../data/emanuela/activity-recognition/images/NTCIR-Lifelog-256/u2/2015-04-25/b00003025_21i7lf_20150425_112321e.jpg'
p7900
sg4
(lp7901
(g68
g6
(g18
S'\x18*\xef>'
p7902
tp7903
Rp7904
tp7905
a(g92
g6
(g18
S'\xeb\x8b\xdd>'
p7906
tp7907
Rp7908
tp7909
a(g15
g6
(g18
S'\xc4Q3='
p7910
tp7911
Rp7912
tp7913
a(g56
g6
(g18
S'M+\xfb<'
p7914
tp7915
Rp7916
tp7917
a(g32
g6
(g18
S'\x0c\xca&<'
p7918
tp7919
Rp7920
tp7921
asg73
g32
sa(dp7922
g2
S'../../../data/emanuela/activity-recognition/images/NTCIR-Lifelog-256/u2/2015-05-04/b00004608_21i7lf_20150504_111752e.jpg'
p7923
sg4
(lp7924
(g352
g6
(g18
S'2\rl>'
p7925
tp7926
Rp7927
tp7928
a(g15
g6
(g18
S'\xcb\x886>'
p7929
tp7930
Rp7931
tp7932
a(g44
g6
(g18
S'\xde\xe5\x0c>'
p7933
tp7934
Rp7935
tp7936
a(g209
g6
(g18
S'\xd4\xc5\xdb='
p7937
tp7938
Rp7939
tp7940
a(g32
g6
(g18
S'\x94B\xb6='
p7941
tp7942
Rp7943
tp7944
asg73
g32
sa(dp7945
g2
S'../../../data/emanuela/activity-recognition/images/NTCIR-Lifelog-256/u2/2015-04-27/b00005995_21i7lf_20150427_194034e.jpg'
p7946
sg4
(lp7947
(g32
g6
(g18
S'\x0cw\xd3>'
p7948
tp7949
Rp7950
tp7951
a(g44
g6
(g18
S'\xddr\xa7>'
p7952
tp7953
Rp7954
tp7955
a(g15
g6
(g18
S'1{\x9b='
p7956
tp7957
Rp7958
tp7959
a(g56
g6
(g18
S'GmY='
p7960
tp7961
Rp7962
tp7963
a(g115
g6
(g18
S'\x1e\xd9\xf5<'
p7964
tp7965
Rp7966
tp7967
asg73
g32
sa(dp7968
g2
S'../../../data/emanuela/activity-recognition/images/NTCIR-Lifelog-256/u2/2015-04-25/b00003089_21i7lf_20150425_122148e.jpg'
p7969
sg4
(lp7970
(g44
g6
(g18
S'\xd6\xf9\xb8>'
p7971
tp7972
Rp7973
tp7974
a(g32
g6
(g18
S'Y\x1e\x9c>'
p7975
tp7976
Rp7977
tp7978
a(g150
g6
(g18
S'ct6>'
p7979
tp7980
Rp7981
tp7982
a(g166
g6
(g18
S'\xd9rh='
p7983
tp7984
Rp7985
tp7986
a(g233
g6
(g18
S'\xdcv\xb1<'
p7987
tp7988
Rp7989
tp7990
asg73
g32
sa(dp7991
g2
S'../../../data/emanuela/activity-recognition/images/NTCIR-Lifelog-256/u2/2015-05-04/b00004796_21i7lf_20150504_133626e.jpg'
p7992
sg4
(lp7993
(g44
g6
(g18
S'_\x9c\x0f?'
p7994
tp7995
Rp7996
tp7997
a(g32
g6
(g18
S'[\xdd\x84>'
p7998
tp7999
Rp8000
tp8001
a(g221
g6
(g18
S'?SC='
p8002
tp8003
Rp8004
tp8005
a(g15
g6
(g18
S'G\xd3\x19='
p8006
tp8007
Rp8008
tp8009
a(g150
g6
(g18
S'Y\xaf\xea<'
p8010
tp8011
Rp8012
tp8013
asg73
g32
sa(dp8014
g2
S'../../../data/emanuela/activity-recognition/images/NTCIR-Lifelog-256/u2/2015-04-22/b00000947_21i7lf_20150422_080652e.jpg'
p8015
sg4
(lp8016
(g44
g6
(g18
S'\xa1F\t?'
p8017
tp8018
Rp8019
tp8020
a(g15
g6
(g18
S'\xe3\x82\x94>'
p8021
tp8022
Rp8023
tp8024
a(g32
g6
(g18
S'K\x13\xc6='
p8025
tp8026
Rp8027
tp8028
a(g56
g6
(g18
S'\x81DW='
p8029
tp8030
Rp8031
tp8032
a(g115
g6
(g18
S';J\xa8;'
p8033
tp8034
Rp8035
tp8036
asg73
g32
sa(dp8037
g2
S'../../../data/emanuela/activity-recognition/images/NTCIR-Lifelog-256/u2/2015-05-04/b00004690_21i7lf_20150504_120957e.jpg'
p8038
sg4
(lp8039
(g44
g6
(g18
S'\r^J?'
p8040
tp8041
Rp8042
tp8043
a(g32
g6
(g18
S'\xd4\x90L>'
p8044
tp8045
Rp8046
tp8047
a(g115
g6
(g18
S'\xf2M\x1c;'
p8048
tp8049
Rp8050
tp8051
a(g166
g6
(g18
S'v\x0f\xae:'
p8052
tp8053
Rp8054
tp8055
a(g56
g6
(g18
S'd\xb2\xa3:'
p8056
tp8057
Rp8058
tp8059
asg73
g32
sa(dp8060
g2
S'../../../data/emanuela/activity-recognition/images/NTCIR-Lifelog-256/u2/2015-05-02/b00003327_21i7lf_20150502_150941e.jpg'
p8061
sg4
(lp8062
(g32
g6
(g18
S'`e\xff>'
p8063
tp8064
Rp8065
tp8066
a(g92
g6
(g18
S'\x10w\x91>'
p8067
tp8068
Rp8069
tp8070
a(g44
g6
(g18
S'\xfd}\x83='
p8071
tp8072
Rp8073
tp8074
a(g56
g6
(g18
S'\xfe\x12\x1b='
p8075
tp8076
Rp8077
tp8078
a(g15
g6
(g18
S'\xb5\x12\x17='
p8079
tp8080
Rp8081
tp8082
asg73
g32
sa(dp8083
g2
S'../../../data/emanuela/activity-recognition/images/NTCIR-Lifelog-256/u2/2015-05-04/b00004684_21i7lf_20150504_120606e.jpg'
p8084
sg4
(lp8085
(g197
g6
(g18
S'\x8fP\x9e>'
p8086
tp8087
Rp8088
tp8089
a(g15
g6
(g18
S'\xc4\x95n>'
p8090
tp8091
Rp8092
tp8093
a(g233
g6
(g18
S'\x9d@4>'
p8094
tp8095
Rp8096
tp8097
a(g68
g6
(g18
S'\xf0\x94)>'
p8098
tp8099
Rp8100
tp8101
a(g851
g6
(g18
S'\xc8\xbe\xee<'
p8102
tp8103
Rp8104
tp8105
asg73
g32
sa(dp8106
g2
S'../../../data/emanuela/activity-recognition/images/NTCIR-Lifelog-256/u2/2015-04-27/b00005999_21i7lf_20150427_194313e.jpg'
p8107
sg4
(lp8108
(g44
g6
(g18
S'm\x7f\x9d>'
p8109
tp8110
Rp8111
tp8112
a(g32
g6
(g18
S'\xc8~\x96>'
p8113
tp8114
Rp8115
tp8116
a(g92
g6
(g18
S'\xb5\x80\t>'
p8117
tp8118
Rp8119
tp8120
a(g56
g6
(g18
S'S\x1a\x94='
p8121
tp8122
Rp8123
tp8124
a(g15
g6
(g18
S'0\x94E='
p8125
tp8126
Rp8127
tp8128
asg73
g32
sa(dp8129
g2
S'../../../data/emanuela/activity-recognition/images/NTCIR-Lifelog-256/u2/2015-05-01/b00002630_21i7lf_20150501_184517e.jpg'
p8130
sg4
(lp8131
(g32
g6
(g18
S'\x07\xe9~>'
p8132
tp8133
Rp8134
tp8135
a(g115
g6
(g18
S"\x1c\x94'>"
p8136
tp8137
Rp8138
tp8139
a(g44
g6
(g18
S'\xc1%\x13>'
p8140
tp8141
Rp8142
tp8143
a(g68
g6
(g18
S'\x13\xaf\xa8='
p8144
tp8145
Rp8146
tp8147
a(g197
g6
(g18
S'\x15k\xa2='
p8148
tp8149
Rp8150
tp8151
asg73
g32
sa(dp8152
g2
S'../../../data/emanuela/activity-recognition/images/NTCIR-Lifelog-256/u2/2015-04-27/b00004914_21i7lf_20150427_083439e.jpg'
p8153
sg4
(lp8154
(g115
g6
(g18
S'\xfb\xbc}>'
p8155
tp8156
Rp8157
tp8158
a(g68
g6
(g18
S'\xe2\xa6i>'
p8159
tp8160
Rp8161
tp8162
a(g197
g6
(g18
S'\xf4\xf0\x12>'
p8163
tp8164
Rp8165
tp8166
a(g15
g6
(g18
S'\xac\xb2\xc1='
p8167
tp8168
Rp8169
tp8170
a(g150
g6
(g18
S'\xffi\xaa='
p8171
tp8172
Rp8173
tp8174
asg73
g32
sa(dp8175
g2
S'../../../data/emanuela/activity-recognition/images/NTCIR-Lifelog-256/u2/2015-05-06/b00007242_21i7lf_20150506_192445e.jpg'
p8176
sg4
(lp8177
(g15
g6
(g18
S'\xb1\x10\xcc>'
p8178
tp8179
Rp8180
tp8181
a(g68
g6
(g18
S']\x8a\x12>'
p8182
tp8183
Rp8184
tp8185
a(g32
g6
(g18
S'$\x01\xf1='
p8186
tp8187
Rp8188
tp8189
a(g56
g6
(g18
S'UT\xd7='
p8190
tp8191
Rp8192
tp8193
a(g197
g6
(g18
S'\x82U\x98='
p8194
tp8195
Rp8196
tp8197
asg73
g32
sa(dp8198
g2
S'../../../data/emanuela/activity-recognition/images/NTCIR-Lifelog-256/u2/2015-04-30/b00000736_21i7lf_20150430_101251e.jpg'
p8199
sg4
(lp8200
(g15
g6
(g18
S'!y\xfd>'
p8201
tp8202
Rp8203
tp8204
a(g32
g6
(g18
S'\xcc\xa6\x8a>'
p8205
tp8206
Rp8207
tp8208
a(g221
g6
(g18
S'Zh\x89='
p8209
tp8210
Rp8211
tp8212
a(g150
g6
(g18
S'4)2='
p8213
tp8214
Rp8215
tp8216
a(g68
g6
(g18
S'\x917\x1e='
p8217
tp8218
Rp8219
tp8220
asg73
g32
sa(dp8221
g2
S'../../../data/emanuela/activity-recognition/images/NTCIR-Lifelog-256/u2/2015-04-30/b00000735_21i7lf_20150430_101212e.jpg'
p8222
sg4
(lp8223
(g851
g6
(g18
S'6\x89\x9a>'
p8224
tp8225
Rp8226
tp8227
a(g209
g6
(g18
S'\xab\x01+>'
p8228
tp8229
Rp8230
tp8231
a(g221
g6
(g18
S'_\xb6 >'
p8232
tp8233
Rp8234
tp8235
a(g150
g6
(g18
S'BB\xb8='
p8236
tp8237
Rp8238
tp8239
a(g166
g6
(g18
S'\xc3c\x9b='
p8240
tp8241
Rp8242
tp8243
asg73
g32
sa(dp8244
g2
S'../../../data/emanuela/activity-recognition/images/NTCIR-Lifelog-256/u2/2015-04-29/b00000473_21i7lf_20150429_220452e.jpg'
p8245
sg4
(lp8246
(g68
g6
(g18
S'\xb7\x11I>'
p8247
tp8248
Rp8249
tp8250
a(g115
g6
(g18
S'zJ!>'
p8251
tp8252
Rp8253
tp8254
a(g56
g6
(g18
S'`o\x07>'
p8255
tp8256
Rp8257
tp8258
a(g32
g6
(g18
S'Q\xde\xff='
p8259
tp8260
Rp8261
tp8262
a(g15
g6
(g18
S'\xef\x8b\xf0='
p8263
tp8264
Rp8265
tp8266
asg73
g32
sa(dp8267
g2
S'../../../data/emanuela/activity-recognition/images/NTCIR-Lifelog-256/u2/2015-05-04/b00004675_21i7lf_20150504_120048e.jpg'
p8268
sg4
(lp8269
(g15
g6
(g18
S'\xc2\xef9?'
p8270
tp8271
Rp8272
tp8273
a(g851
g6
(g18
S'\xb3"\x83='
p8274
tp8275
Rp8276
tp8277
a(g68
g6
(g18
S'CyV='
p8278
tp8279
Rp8280
tp8281
a(g56
g6
(g18
S'U\xf1\xf9<'
p8282
tp8283
Rp8284
tp8285
a(g233
g6
(g18
S'Y\x81\xe9<'
p8286
tp8287
Rp8288
tp8289
asg73
g32
sa(dp8290
g2
S'../../../data/emanuela/activity-recognition/images/NTCIR-Lifelog-256/u2/2015-04-29/b00000154_21i7lf_20150429_183504e.jpg'
p8291
sg4
(lp8292
(g56
g6
(g18
S'\x89\xbc\x05?'
p8293
tp8294
Rp8295
tp8296
a(g92
g6
(g18
S'\x1a\xba\xe3>'
p8297
tp8298
Rp8299
tp8300
a(g166
g6
(g18
S'\xfb\xfc\x8a<'
p8301
tp8302
Rp8303
tp8304
a(g3520
g6
(g18
S's/\xb0;'
p8305
tp8306
Rp8307
tp8308
a(g15
g6
(g18
S'\x172\xa0;'
p8309
tp8310
Rp8311
tp8312
asg73
g32
sa(dp8313
g2
S'../../../data/emanuela/activity-recognition/images/NTCIR-Lifelog-256/u2/2015-04-27/b00004920_21i7lf_20150427_083818e.jpg'
p8314
sg4
(lp8315
(g115
g6
(g18
S'\x04<\xd5>'
p8316
tp8317
Rp8318
tp8319
a(g44
g6
(g18
S'\x8d;\xb8>'
p8320
tp8321
Rp8322
tp8323
a(g32
g6
(g18
S'X\n\x8f='
p8324
tp8325
Rp8326
tp8327
a(g197
g6
(g18
S'\xdbD}='
p8328
tp8329
Rp8330
tp8331
a(g15
g6
(g18
S'\xd1B?='
p8332
tp8333
Rp8334
tp8335
asg73
g32
sa(dp8336
g2
S'../../../data/emanuela/activity-recognition/images/NTCIR-Lifelog-256/u2/2015-05-01/b00002429_21i7lf_20150501_164313e.jpg'
p8337
sg4
(lp8338
(g150
g6
(g18
S'\xb9,\x81>'
p8339
tp8340
Rp8341
tp8342
a(g32
g6
(g18
S'\x10\x9aM>'
p8343
tp8344
Rp8345
tp8346
a(g166
g6
(g18
S'\xdf\xdc\x97='
p8347
tp8348
Rp8349
tp8350
a(g15
g6
(g18
S'\xda6z='
p8351
tp8352
Rp8353
tp8354
a(g209
g6
(g18
S'\x87\xa3j='
p8355
tp8356
Rp8357
tp8358
asg73
g32
sa(dp8359
g2
S'../../../data/emanuela/activity-recognition/images/NTCIR-Lifelog-256/u2/2015-05-06/b00006238_21i7lf_20150506_071801e.jpg'
p8360
sg4
(lp8361
(g115
g6
(g18
S'\x0e\xa6\x0e?'
p8362
tp8363
Rp8364
tp8365
a(g56
g6
(g18
S'\xeb\x8aF>'
p8366
tp8367
Rp8368
tp8369
a(g68
g6
(g18
S'\xcf\xa7\xee='
p8370
tp8371
Rp8372
tp8373
a(g15
g6
(g18
S'Yu\xa9='
p8374
tp8375
Rp8376
tp8377
a(g197
g6
(g18
S'k\x99[<'
p8378
tp8379
Rp8380
tp8381
asg73
g32
sa(dp8382
g2
S'../../../data/emanuela/activity-recognition/images/NTCIR-Lifelog-256/u2/2015-05-04/b00004922_21i7lf_20150504_183452e.jpg'
p8383
sg4
(lp8384
(g150
g6
(g18
S'3\t\x87>'
p8385
tp8386
Rp8387
tp8388
a(g115
g6
(g18
S'\xf8+^>'
p8389
tp8390
Rp8391
tp8392
a(g32
g6
(g18
S'\x08\x01,>'
p8393
tp8394
Rp8395
tp8396
a(g15
g6
(g18
S'Jw\xf8='
p8397
tp8398
Rp8399
tp8400
a(g851
g6
(g18
S'X\xb3@='
p8401
tp8402
Rp8403
tp8404
asg73
g32
sa(dp8405
g2
S'../../../data/emanuela/activity-recognition/images/NTCIR-Lifelog-256/u2/2015-05-04/b00004630_21i7lf_20150504_113301e.jpg'
p8406
sg4
(lp8407
(g209
g6
(g18
S'G\xde\xb5>'
p8408
tp8409
Rp8410
tp8411
a(g221
g6
(g18
S'\xf4\x11B>'
p8412
tp8413
Rp8414
tp8415
a(g197
g6
(g18
S'4s\x16>'
p8416
tp8417
Rp8418
tp8419
a(g233
g6
(g18
S'\xde1\xd3='
p8420
tp8421
Rp8422
tp8423
a(g150
g6
(g18
S'B\xd7\x16='
p8424
tp8425
Rp8426
tp8427
asg73
g32
sa(dp8428
g2
S'../../../data/emanuela/activity-recognition/images/NTCIR-Lifelog-256/u2/2015-05-04/b00004836_21i7lf_20150504_141436e.jpg'
p8429
sg4
(lp8430
(g15
g6
(g18
S'd\x9fs>'
p8431
tp8432
Rp8433
tp8434
a(g32
g6
(g18
S'\xc3\xa7Q>'
p8435
tp8436
Rp8437
tp8438
a(g150
g6
(g18
S'\xb8l\xd4='
p8439
tp8440
Rp8441
tp8442
a(g68
g6
(g18
S"\r'\xa0="
p8443
tp8444
Rp8445
tp8446
a(g92
g6
(g18
S'qD\x9c='
p8447
tp8448
Rp8449
tp8450
asg73
g32
sa(dp8451
g2
S'../../../data/emanuela/activity-recognition/images/NTCIR-Lifelog-256/u2/2015-05-04/b00004927_21i7lf_20150504_183758e.jpg'
p8452
sg4
(lp8453
(g851
g6
(g18
S'\xdc\xca.?'
p8454
tp8455
Rp8456
tp8457
a(g32
g6
(g18
S'T\xa1\x04>'
p8458
tp8459
Rp8460
tp8461
a(g92
g6
(g18
S'#\x0b\xf5='
p8462
tp8463
Rp8464
tp8465
a(g150
g6
(g18
S'#\xfe\xd8<'
p8466
tp8467
Rp8468
tp8469
a(g15
g6
(g18
S'\x82\xb44<'
p8470
tp8471
Rp8472
tp8473
asg73
g32
sa(dp8474
g2
S'../../../data/emanuela/activity-recognition/images/NTCIR-Lifelog-256/u2/2015-05-04/b00004809_21i7lf_20150504_134446e.jpg'
p8475
sg4
(lp8476
(g44
g6
(g18
S'\xaf\xb1\xac>'
p8477
tp8478
Rp8479
tp8480
a(g32
g6
(g18
S'cn\x9c>'
p8481
tp8482
Rp8483
tp8484
a(g209
g6
(g18
S'4y\xe8='
p8485
tp8486
Rp8487
tp8488
a(g15
g6
(g18
S'n \x90='
p8489
tp8490
Rp8491
tp8492
a(g150
g6
(g18
S'\x1d\xaeM='
p8493
tp8494
Rp8495
tp8496
asg73
g32
sa(dp8497
g2
S'../../../data/emanuela/activity-recognition/images/NTCIR-Lifelog-256/u2/2015-04-25/b00003040_21i7lf_20150425_113304e.jpg'
p8498
sg4
(lp8499
(g1369
g6
(g18
S'/Z}>'
p8500
tp8501
Rp8502
tp8503
a(g221
g6
(g18
S'>\xe8.>'
p8504
tp8505
Rp8506
tp8507
a(g197
g6
(g18
S'B/\x1b>'
p8508
tp8509
Rp8510
tp8511
a(g150
g6
(g18
S'p\xc0\x04>'
p8512
tp8513
Rp8514
tp8515
a(g32
g6
(g18
S'c\xa6\x02>'
p8516
tp8517
Rp8518
tp8519
asg73
g32
sa(dp8520
g2
S'../../../data/emanuela/activity-recognition/images/NTCIR-Lifelog-256/u2/2015-04-25/b00003024_21i7lf_20150425_112240e.jpg'
p8521
sg4
(lp8522
(g15
g6
(g18
S'C"`>'
p8523
tp8524
Rp8525
tp8526
a(g32
g6
(g18
S'\xee\x9e\x1e>'
p8527
tp8528
Rp8529
tp8530
a(g115
g6
(g18
S'\x0e\xca\x1b>'
p8531
tp8532
Rp8533
tp8534
a(g92
g6
(g18
S'\x1e\x1d\x11>'
p8535
tp8536
Rp8537
tp8538
a(g68
g6
(g18
S'jL\t>'
p8539
tp8540
Rp8541
tp8542
asg73
g32
sa(dp8543
g2
S'../../../data/emanuela/activity-recognition/images/NTCIR-Lifelog-256/u2/2015-04-27/b00004922_21i7lf_20150427_083934e.jpg'
p8544
sg4
(lp8545
(g209
g6
(g18
S'%\xc9\x08?'
p8546
tp8547
Rp8548
tp8549
a(g15
g6
(g18
S'&Y2>'
p8550
tp8551
Rp8552
tp8553
a(g92
g6
(g18
S'\xff`}='
p8554
tp8555
Rp8556
tp8557
a(g197
g6
(g18
S't\xb5K='
p8558
tp8559
Rp8560
tp8561
a(g56
g6
(g18
S')\x10\xf7<'
p8562
tp8563
Rp8564
tp8565
asg73
g32
sa(dp8566
g2
S'../../../data/emanuela/activity-recognition/images/NTCIR-Lifelog-256/u2/2015-04-25/b00003057_21i7lf_20150425_114318e.jpg'
p8567
sg4
(lp8568
(g32
g6
(g18
S'\x14\xfd8?'
p8569
tp8570
Rp8571
tp8572
a(g44
g6
(g18
S'\xef\xe58>'
p8573
tp8574
Rp8575
tp8576
a(g15
g6
(g18
S'B\x9aq='
p8577
tp8578
Rp8579
tp8580
a(g56
g6
(g18
S'\x8a[\x94<'
p8581
tp8582
Rp8583
tp8584
a(g150
g6
(g18
S'p\x0b\x96;'
p8585
tp8586
Rp8587
tp8588
asg73
g32
sa(dp8589
g2
S'../../../data/emanuela/activity-recognition/images/NTCIR-Lifelog-256/u2/2015-04-27/b00004921_21i7lf_20150427_083859e.jpg'
p8590
sg4
(lp8591
(g44
g6
(g18
S'Iu\xe4>'
p8592
tp8593
Rp8594
tp8595
a(g32
g6
(g18
S'p\x02\xe3>'
p8596
tp8597
Rp8598
tp8599
a(g15
g6
(g18
S'\xb1+\xce<'
p8600
tp8601
Rp8602
tp8603
a(g56
g6
(g18
S'\xf8\xbf\xaf<'
p8604
tp8605
Rp8606
tp8607
a(g68
g6
(g18
S'X\x9bP<'
p8608
tp8609
Rp8610
tp8611
asg73
g32
sa(dp8612
g2
S'../../../data/emanuela/activity-recognition/images/NTCIR-Lifelog-256/u2/2015-04-26/b00003914_21i7lf_20150426_122734e.jpg'
p8613
sg4
(lp8614
(g44
g6
(g18
S'\xa1\x95\xa7>'
p8615
tp8616
Rp8617
tp8618
a(g15
g6
(g18
S'\xc3(\x9c>'
p8619
tp8620
Rp8621
tp8622
a(g32
g6
(g18
S'\xab,\x81>'
p8623
tp8624
Rp8625
tp8626
a(g56
g6
(g18
S'\x9f\xe8\x92='
p8627
tp8628
Rp8629
tp8630
a(g68
g6
(g18
S'=$\xa0<'
p8631
tp8632
Rp8633
tp8634
asg73
g32
sa(dp8635
g2
S'../../../data/emanuela/activity-recognition/images/NTCIR-Lifelog-256/u2/2015-04-25/b00003050_21i7lf_20150425_113903e.jpg'
p8636
sg4
(lp8637
(g15
g6
(g18
S'\x16\xef\x00?'
p8638
tp8639
Rp8640
tp8641
a(g32
g6
(g18
S'n\xb4v>'
p8642
tp8643
Rp8644
tp8645
a(g44
g6
(g18
S'K}\x13>'
p8646
tp8647
Rp8648
tp8649
a(g197
g6
(g18
S'\x11.\xee<'
p8650
tp8651
Rp8652
tp8653
a(g375
g6
(g18
S'5\x9c\xb1<'
p8654
tp8655
Rp8656
tp8657
asg73
g32
sa(dp8658
g2
S'../../../data/emanuela/activity-recognition/images/NTCIR-Lifelog-256/u2/2015-04-29/b00000083_21i7lf_20150429_174906e.jpg'
p8659
sg4
(lp8660
(g32
g6
(g18
S'I\xe9\xaf>'
p8661
tp8662
Rp8663
tp8664
a(g92
g6
(g18
S'z\xad\xa8>'
p8665
tp8666
Rp8667
tp8668
a(g44
g6
(g18
S'\xbb%\x85>'
p8669
tp8670
Rp8671
tp8672
a(g15
g6
(g18
S'\xd4>g<'
p8673
tp8674
Rp8675
tp8676
a(g115
g6
(g18
S'\xfe\xd9M<'
p8677
tp8678
Rp8679
tp8680
asg73
g32
sa(dp8681
g2
S'../../../data/emanuela/activity-recognition/images/NTCIR-Lifelog-256/u2/2015-05-04/b00004682_21i7lf_20150504_120452e.jpg'
p8682
sg4
(lp8683
(g15
g6
(g18
S"\xa7\xa6'?"
p8684
tp8685
Rp8686
tp8687
a(g32
g6
(g18
S'G\x8c\x14>'
p8688
tp8689
Rp8690
tp8691
a(g56
g6
(g18
S'#|\x8f='
p8692
tp8693
Rp8694
tp8695
a(g68
g6
(g18
S'\x99\xfa@='
p8696
tp8697
Rp8698
tp8699
a(g92
g6
(g18
S'\x8c\xce@='
p8700
tp8701
Rp8702
tp8703
asg73
g32
sa(dp8704
g2
S'../../../data/emanuela/activity-recognition/images/NTCIR-Lifelog-256/u2/2015-05-04/b00004583_21i7lf_20150504_110229e.jpg'
p8705
sg4
(lp8706
(g32
g6
(g18
S'\x88\x1f\xe3>'
p8707
tp8708
Rp8709
tp8710
a(g15
g6
(g18
S'M$\xc0>'
p8711
tp8712
Rp8713
tp8714
a(g44
g6
(g18
S'\xfb\xce\x81='
p8715
tp8716
Rp8717
tp8718
a(g56
g6
(g18
S'\x10\xcan='
p8719
tp8720
Rp8721
tp8722
a(g851
g6
(g18
S'\xbc\x0e\xd4<'
p8723
tp8724
Rp8725
tp8726
asg73
g32
sa(dp8727
g2
S'../../../data/emanuela/activity-recognition/images/NTCIR-Lifelog-256/u2/2015-05-04/b00004740_21i7lf_20150504_125725e.jpg'
p8728
sg4
(lp8729
(g221
g6
(g18
S'\xf4^\xd3>'
p8730
tp8731
Rp8732
tp8733
a(g197
g6
(g18
S'\x11\xe45>'
p8734
tp8735
Rp8736
tp8737
a(g150
g6
(g18
S'\xecB\r>'
p8738
tp8739
Rp8740
tp8741
a(g209
g6
(g18
S'\xe5\x1f\xca='
p8742
tp8743
Rp8744
tp8745
a(g44
g6
(g18
S'\xbb\xd6\xf4<'
p8746
tp8747
Rp8748
tp8749
asg73
g32
sa(dp8750
g2
S'../../../data/emanuela/activity-recognition/images/NTCIR-Lifelog-256/u2/2015-04-23/b00001662_21i7lf_20150423_200714e.jpg'
p8751
sg4
(lp8752
(g56
g6
(g18
S'\x15\x02\xa1>'
p8753
tp8754
Rp8755
tp8756
a(g92
g6
(g18
S'\x15\x1f\x0f>'
p8757
tp8758
Rp8759
tp8760
a(g15
g6
(g18
S'N|\x08>'
p8761
tp8762
Rp8763
tp8764
a(g68
g6
(g18
S'\xf3\x94\xfd='
p8765
tp8766
Rp8767
tp8768
a(g115
g6
(g18
S'\xad\x1b\xea='
p8769
tp8770
Rp8771
tp8772
asg73
g32
sa(dp8773
g2
S'../../../data/emanuela/activity-recognition/images/NTCIR-Lifelog-256/u2/2015-05-01/b00001712_21i7lf_20150501_082423e.jpg'
p8774
sg4
(lp8775
(g115
g6
(g18
S'%\xbc$?'
p8776
tp8777
Rp8778
tp8779
a(g68
g6
(g18
S'\xb7\xf8->'
p8780
tp8781
Rp8782
tp8783
a(g56
g6
(g18
S'*\xb0\xce='
p8784
tp8785
Rp8786
tp8787
a(g15
g6
(g18
S'2\xec\xed<'
p8788
tp8789
Rp8790
tp8791
a(g44
g6
(g18
S'\xf8?\x80<'
p8792
tp8793
Rp8794
tp8795
asg73
g32
sa(dp8796
g2
S'../../../data/emanuela/activity-recognition/images/NTCIR-Lifelog-256/u2/2015-04-30/b00000630_21i7lf_20150430_084848e.jpg'
p8797
sg4
(lp8798
(g32
g6
(g18
S'\xea\xf8*?'
p8799
tp8800
Rp8801
tp8802
a(g92
g6
(g18
S'Y\xe8\xd1='
p8803
tp8804
Rp8805
tp8806
a(g44
g6
(g18
S'E\xb7g='
p8807
tp8808
Rp8809
tp8810
a(g150
g6
(g18
S'CVD='
p8811
tp8812
Rp8813
tp8814
a(g68
g6
(g18
S'[\xa0\x07='
p8815
tp8816
Rp8817
tp8818
asg73
g32
sa(dp8819
g2
S'../../../data/emanuela/activity-recognition/images/NTCIR-Lifelog-256/u2/2015-05-04/b00004683_21i7lf_20150504_120526e.jpg'
p8820
sg4
(lp8821
(g44
g6
(g18
S"\xe7\xe8'?"
p8822
tp8823
Rp8824
tp8825
a(g32
g6
(g18
S'f5\xa7>'
p8826
tp8827
Rp8828
tp8829
a(g150
g6
(g18
S'\x8a8\x1a<'
p8830
tp8831
Rp8832
tp8833
a(g387
g6
(g18
S';\x1f\x02;'
p8834
tp8835
Rp8836
tp8837
a(g352
g6
(g18
S'\x96\x16\xfb:'
p8838
tp8839
Rp8840
tp8841
asg73
g32
sa(dp8842
g2
S'../../../data/emanuela/activity-recognition/images/NTCIR-Lifelog-256/u2/2015-05-02/b00003236_21i7lf_20150502_141317e.jpg'
p8843
sg4
(lp8844
(g92
g6
(g18
S'\xd8E\xdc>'
p8845
tp8846
Rp8847
tp8848
a(g56
g6
(g18
S'\x91PO>'
p8849
tp8850
Rp8851
tp8852
a(g32
g6
(g18
S'{\xf1:>'
p8853
tp8854
Rp8855
tp8856
a(g15
g6
(g18
S'\xd5\x0c\xa4='
p8857
tp8858
Rp8859
tp8860
a(g68
g6
(g18
S'\xc5\xebm='
p8861
tp8862
Rp8863
tp8864
asg73
g32
sa(dp8865
g2
S'../../../data/emanuela/activity-recognition/images/NTCIR-Lifelog-256/u2/2015-04-29/b00000144_21i7lf_20150429_182904e.jpg'
p8866
sg4
(lp8867
(g92
g6
(g18
S'8)B?'
p8868
tp8869
Rp8870
tp8871
a(g166
g6
(g18
S'\xa5t\x9c='
p8872
tp8873
Rp8874
tp8875
a(g1369
g6
(g18
S'p\xc4J='
p8876
tp8877
Rp8878
tp8879
a(g56
g6
(g18
S'b!\xf2<'
p8880
tp8881
Rp8882
tp8883
a(g150
g6
(g18
S'R\xea\xb9<'
p8884
tp8885
Rp8886
tp8887
asg73
g32
sa(dp8888
g2
S'../../../data/emanuela/activity-recognition/images/NTCIR-Lifelog-256/u2/2015-05-04/b00004588_21i7lf_20150504_110539e.jpg'
p8889
sg4
(lp8890
(g32
g6
(g18
S'\xdea&?'
p8891
tp8892
Rp8893
tp8894
a(g44
g6
(g18
S'!#\x96>'
p8895
tp8896
Rp8897
tp8898
a(g197
g6
(g18
S'K\xfe!<'
p8899
tp8900
Rp8901
tp8902
a(g221
g6
(g18
S'\xc14\r<'
p8903
tp8904
Rp8905
tp8906
a(g115
g6
(g18
S'\x7f\x18\xfe;'
p8907
tp8908
Rp8909
tp8910
asg73
g32
sa(dp8911
g2
S'../../../data/emanuela/activity-recognition/images/NTCIR-Lifelog-256/u2/2015-04-25/b00003026_21i7lf_20150425_112354e.jpg'
p8912
sg4
(lp8913
(g15
g6
(g18
S'mT\xb7>'
p8914
tp8915
Rp8916
tp8917
a(g32
g6
(g18
S'BXE>'
p8918
tp8919
Rp8920
tp8921
a(g56
g6
(g18
S'0k\n>'
p8922
tp8923
Rp8924
tp8925
a(g44
g6
(g18
S'\xf8\x9a\xb6='
p8926
tp8927
Rp8928
tp8929
a(g92
g6
(g18
S'\x83\n\x9e='
p8930
tp8931
Rp8932
tp8933
asg73
g32
sa(dp8934
g2
S'../../../data/emanuela/activity-recognition/images/NTCIR-Lifelog-256/u2/2015-05-04/b00004757_21i7lf_20150504_130806e.jpg'
p8935
sg4
(lp8936
(g32
g6
(g18
S'U\x11\xcf>'
p8937
tp8938
Rp8939
tp8940
a(g44
g6
(g18
S'\x168\x1b>'
p8941
tp8942
Rp8943
tp8944
a(g197
g6
(g18
S'"\xd6\x13>'
p8945
tp8946
Rp8947
tp8948
a(g209
g6
(g18
S'S9\xc5='
p8949
tp8950
Rp8951
tp8952
a(g15
g6
(g18
S'\x84V\xa1='
p8953
tp8954
Rp8955
tp8956
asg73
g32
sa(dp8957
g2
S'../../../data/emanuela/activity-recognition/images/NTCIR-Lifelog-256/u2/2015-05-04/b00004670_21i7lf_20150504_115744e.jpg'
p8958
sg4
(lp8959
(g15
g6
(g18
S'\x11\xd7Y?'
p8960
tp8961
Rp8962
tp8963
a(g68
g6
(g18
S':\xac\x95='
p8964
tp8965
Rp8966
tp8967
a(g56
g6
(g18
S'\r\x03l='
p8968
tp8969
Rp8970
tp8971
a(g44
g6
(g18
S'\x816\xd6;'
p8972
tp8973
Rp8974
tp8975
a(g32
g6
(g18
S' \x90\x92;'
p8976
tp8977
Rp8978
tp8979
asg73
g32
sa(dp8980
g2
S'../../../data/emanuela/activity-recognition/images/NTCIR-Lifelog-256/u2/2015-05-01/b00001723_21i7lf_20150501_083118e.jpg'
p8981
sg4
(lp8982
(g115
g6
(g18
S'\xab\x8f\xe8>'
p8983
tp8984
Rp8985
tp8986
a(g68
g6
(g18
S'\xdb\x82\xa9>'
p8987
tp8988
Rp8989
tp8990
a(g56
g6
(g18
S'\xeb\x80)>'
p8991
tp8992
Rp8993
tp8994
a(g15
g6
(g18
S'\xa9f\xc6<'
p8995
tp8996
Rp8997
tp8998
a(g92
g6
(g18
S'B\xcf\x17<'
p8999
tp9000
Rp9001
tp9002
asg73
g32
sa(dp9003
g2
S'../../../data/emanuela/activity-recognition/images/NTCIR-Lifelog-256/u2/2015-05-02/b00003338_21i7lf_20150502_151621e.jpg'
p9004
sg4
(lp9005
(g15
g6
(g18
S'O\xa0\x99>'
p9006
tp9007
Rp9008
tp9009
a(g197
g6
(g18
S'\xb5\xbd%>'
p9010
tp9011
Rp9012
tp9013
a(g851
g6
(g18
S'\x97\x18\x19>'
p9014
tp9015
Rp9016
tp9017
a(g56
g6
(g18
S'\xd9\xe0\xe4='
p9018
tp9019
Rp9020
tp9021
a(g68
g6
(g18
S"\xd3'\x81="
p9022
tp9023
Rp9024
tp9025
asg73
g32
sa(dp9026
g2
S'../../../data/emanuela/activity-recognition/images/NTCIR-Lifelog-256/u2/2015-04-22/b00000957_21i7lf_20150422_081220e.jpg'
p9027
sg4
(lp9028
(g15
g6
(g18
S'7\xf1\x17?'
p9029
tp9030
Rp9031
tp9032
a(g92
g6
(g18
S'\xa7\x11 >'
p9033
tp9034
Rp9035
tp9036
a(g32
g6
(g18
S'\xc2\xb8\xdc='
p9037
tp9038
Rp9039
tp9040
a(g68
g6
(g18
S'\xc5\xcfG='
p9041
tp9042
Rp9043
tp9044
a(g56
g6
(g18
S'\x03\x16\xf0<'
p9045
tp9046
Rp9047
tp9048
asg73
g32
sa(dp9049
g2
S'../../../data/emanuela/activity-recognition/images/NTCIR-Lifelog-256/u2/2015-05-04/b00004735_21i7lf_20150504_125421e.jpg'
p9050
sg4
(lp9051
(g32
g6
(g18
S'\x10{\x04?'
p9052
tp9053
Rp9054
tp9055
a(g44
g6
(g18
S'f\xfd\x80>'
p9056
tp9057
Rp9058
tp9059
a(g150
g6
(g18
S'n\x12\x87='
p9060
tp9061
Rp9062
tp9063
a(g221
g6
(g18
S'\xd6ol='
p9064
tp9065
Rp9066
tp9067
a(g197
g6
(g18
S'\xba\xafZ='
p9068
tp9069
Rp9070
tp9071
asg73
g32
sa(dp9072
g2
S'../../../data/emanuela/activity-recognition/images/NTCIR-Lifelog-256/u2/2015-04-22/b00000953_21i7lf_20150422_081011e.jpg'
p9073
sg4
(lp9074
(g150
g6
(g18
S'\x9c\xc8x>'
p9075
tp9076
Rp9077
tp9078
a(g197
g6
(g18
S'\xceOQ>'
p9079
tp9080
Rp9081
tp9082
a(g166
g6
(g18
S'F\x947>'
p9083
tp9084
Rp9085
tp9086
a(g209
g6
(g18
S'@\xe6Z='
p9087
tp9088
Rp9089
tp9090
a(g15
g6
(g18
S'\xa8\xb26='
p9091
tp9092
Rp9093
tp9094
asg73
g32
sa.