(lp0
(dp1
S'image'
p2
S'../../../data/emanuela/activity-recognition/images/NTCIR-Lifelog-256/u2/2015-05-07/b00008284_21i7lf_20150507_211418e.jpg'
p3
sS'result'
p4
(lp5
(cnumpy.core.multiarray
scalar
p6
(cnumpy
dtype
p7
(S'S6'
p8
I0
I1
tp9
Rp10
(I3
S'|'
p11
NNNI6
I1
I0
tp12
bS'mobile'
p13
tp14
Rp15
g6
(g7
(S'f4'
p16
I0
I1
tp17
Rp18
(I3
S'<'
p19
NNNI-1
I-1
I0
tp20
bS'T\n\x81>'
p21
tp22
Rp23
tp24
a(g6
(g7
(S'S7'
p25
I0
I1
tp26
Rp27
(I3
S'|'
p28
NNNI7
I1
I0
tp29
bS'cooking'
p30
tp31
Rp32
g6
(g18
S'\x10\x86h>'
p33
tp34
Rp35
tp36
a(g6
(g7
(S'S7'
p37
I0
I1
tp38
Rp39
(I3
S'|'
p40
NNNI7
I1
I0
tp41
bS'reading'
p42
tp43
Rp44
g6
(g18
S'J\xcb\x11>'
p45
tp46
Rp47
tp48
a(g6
(g7
(S'S24'
p49
I0
I1
tp50
Rp51
(I3
S'|'
p52
NNNI24
I1
I0
tp53
bS'having drinks/meal alone'
p54
tp55
Rp56
g6
(g18
S'\x86h\xbc='
p57
tp58
Rp59
tp60
a(g6
(g7
(S'S19'
p61
I0
I1
tp62
Rp63
(I3
S'|'
p64
NNNI19
I1
I0
tp65
bS'cleaning and chores'
p66
tp67
Rp68
g6
(g18
S'\xe69\x9b='
p69
tp70
Rp71
tp72
asS'label'
p73
g32
sa(dp74
g2
S'../../../data/emanuela/activity-recognition/images/NTCIR-Lifelog-256/u2/2015-04-29/b00000270_21i7lf_20150429_194627e.jpg'
p75
sg4
(lp76
(g32
g6
(g18
S'\x95\x95_?'
p77
tp78
Rp79
tp80
a(g68
g6
(g18
S'\x9d\xf0\xa5='
p81
tp82
Rp83
tp84
a(g6
(g7
(S'S8'
p85
I0
I1
tp86
Rp87
(I3
S'|'
p88
NNNI8
I1
I0
tp89
bS'shopping'
p90
tp91
Rp92
g6
(g18
S'\xa0W\t='
p93
tp94
Rp95
tp96
a(g6
(g7
(S'S14'
p97
I0
I1
tp98
Rp99
(I3
S'|'
p100
NNNI14
I1
I0
tp101
bS'walking indoor'
p102
tp103
Rp104
g6
(g18
S'6\xeb\xea;'
p105
tp106
Rp107
tp108
a(g6
(g7
(S'S16'
p109
I0
I1
tp110
Rp111
(I3
S'|'
p112
NNNI16
I1
I0
tp113
bS'public transport'
p114
tp115
Rp116
g6
(g18
S'~ \xa0:'
p117
tp118
Rp119
tp120
asg73
g32
sa(dp121
g2
S'../../../data/emanuela/activity-recognition/images/NTCIR-Lifelog-256/u2/2015-04-30/b00001546_21i7lf_20150430_190044e.jpg'
p122
sg4
(lp123
(g32
g6
(g18
S'S\r\x1e?'
p124
tp125
Rp126
tp127
a(g68
g6
(g18
S'\xd4\r\xa7>'
p128
tp129
Rp130
tp131
a(g56
g6
(g18
S'\xdd\n\xc0<'
p132
tp133
Rp134
tp135
a(g6
(g7
(S'S7'
p136
I0
I1
tp137
Rp138
(I3
S'|'
p139
NNNI7
I1
I0
tp140
bS'working'
p141
tp142
Rp143
g6
(g18
S"\x0c\x93'<"
p144
tp145
Rp146
tp147
a(g6
(g7
(S'S25'
p148
I0
I1
tp149
Rp150
(I3
S'|'
p151
NNNI25
I1
I0
tp152
bS'having meal with somebody'
p153
tp154
Rp155
g6
(g18
S'\xe1k\x11<'
p156
tp157
Rp158
tp159
asg73
g32
sa(dp160
g2
S'../../../data/emanuela/activity-recognition/images/NTCIR-Lifelog-256/u2/2015-04-23/b00001655_21i7lf_20150423_195825e.jpg'
p161
sg4
(lp162
(g68
g6
(g18
S'C\xb7\r?'
p163
tp164
Rp165
tp166
a(g32
g6
(g18
S'\x85\xb1\x85>'
p167
tp168
Rp169
tp170
a(g56
g6
(g18
S'\xae\xc3\xde='
p171
tp172
Rp173
tp174
a(g155
g6
(g18
S'\x852\xda<'
p175
tp176
Rp177
tp178
a(g104
g6
(g18
S'\xba\x04\xa6<'
p179
tp180
Rp181
tp182
asg73
g32
sa(dp183
g2
S'../../../data/emanuela/activity-recognition/images/NTCIR-Lifelog-256/u2/2015-04-20/b00000713_21i7lf_20150420_170508e.jpg'
p184
sg4
(lp185
(g56
g6
(g18
S')\xc3\x10?'
p186
tp187
Rp188
tp189
a(g155
g6
(g18
S'\xa6\xe1\x87>'
p190
tp191
Rp192
tp193
a(g32
g6
(g18
S'5\r\xa1='
p194
tp195
Rp196
tp197
a(g68
g6
(g18
S'\x16)\x00='
p198
tp199
Rp200
tp201
a(g6
(g7
(S'S11'
p202
I0
I1
tp203
Rp204
(I3
S'|'
p205
NNNI11
I1
I0
tp206
bS'socializing'
p207
tp208
Rp209
g6
(g18
S'\x97O\xa9<'
p210
tp211
Rp212
tp213
asg73
g32
sa(dp214
g2
S'../../../data/emanuela/activity-recognition/images/NTCIR-Lifelog-256/u2/2015-04-22/b00000604_21i7lf_20150422_185826e.jpg'
p215
sg4
(lp216
(g56
g6
(g18
S'\x1a\xf1_>'
p217
tp218
Rp219
tp220
a(g6
(g7
(S'S7'
p221
I0
I1
tp222
Rp223
(I3
S'|'
p224
NNNI7
I1
I0
tp225
bS'driving'
p226
tp227
Rp228
g6
(g18
S'\x8d\x87\x11>'
p229
tp230
Rp231
tp232
a(g44
g6
(g18
S'&\x80\x0b>'
p233
tp234
Rp235
tp236
a(g32
g6
(g18
S'\t\xb6\x07>'
p237
tp238
Rp239
tp240
a(g68
g6
(g18
S'L\xe5\x02>'
p241
tp242
Rp243
tp244
asg73
g32
sa(dp245
g2
S'../../../data/emanuela/activity-recognition/images/NTCIR-Lifelog-256/u2/2015-04-20/b00000710_21i7lf_20150420_170321e.jpg'
p246
sg4
(lp247
(g56
g6
(g18
S'\xccl\x1c?'
p248
tp249
Rp250
tp251
a(g32
g6
(g18
S'\xeb+5>'
p252
tp253
Rp254
tp255
a(g155
g6
(g18
S'\xac#\x9d='
p256
tp257
Rp258
tp259
a(g68
g6
(g18
S'\xdc\xaf:='
p260
tp261
Rp262
tp263
a(g92
g6
(g18
S'$\xc5\x1a='
p264
tp265
Rp266
tp267
asg73
g32
sa(dp268
g2
S'../../../data/emanuela/activity-recognition/images/NTCIR-Lifelog-256/u2/2015-04-20/b00000707_21i7lf_20150420_170134e.jpg'
p269
sg4
(lp270
(g32
g6
(g18
S'\xdd\xc1\x13?'
p271
tp272
Rp273
tp274
a(g68
g6
(g18
S'-\xe2">'
p275
tp276
Rp277
tp278
a(g104
g6
(g18
S'\xed\xf4J='
p279
tp280
Rp281
tp282
a(g209
g6
(g18
S'+t6='
p283
tp284
Rp285
tp286
a(g6
(g7
(S'S7'
p287
I0
I1
tp288
Rp289
(I3
S'|'
p290
NNNI7
I1
I0
tp291
bS'talking'
p292
tp293
Rp294
g6
(g18
S'n\xb5\x1f='
p295
tp296
Rp297
tp298
asg73
g32
sa(dp299
g2
S'../../../data/emanuela/activity-recognition/images/NTCIR-Lifelog-256/u2/2015-05-03/b00004461_21i7lf_20150503_222314e.jpg'
p300
sg4
(lp301
(g32
g6
(g18
S'\xddr\x13?'
p302
tp303
Rp304
tp305
a(g56
g6
(g18
S'\xacX]>'
p306
tp307
Rp308
tp309
a(g155
g6
(g18
S'\x93\x93\x0e>'
p310
tp311
Rp312
tp313
a(g68
g6
(g18
S'|oU='
p314
tp315
Rp316
tp317
a(g92
g6
(g18
S'\x9d}\x08<'
p318
tp319
Rp320
tp321
asg73
g32
sa(dp322
g2
S'../../../data/emanuela/activity-recognition/images/NTCIR-Lifelog-256/u2/2015-04-22/b00000593_21i7lf_20150422_185048e.jpg'
p323
sg4
(lp324
(g32
g6
(g18
S'\x0fcl?'
p325
tp326
Rp327
tp328
a(g68
g6
(g18
S'\x95P\x98='
p329
tp330
Rp331
tp332
a(g155
g6
(g18
S'\n\x06L:'
p333
tp334
Rp335
tp336
a(g92
g6
(g18
S'\xffj5:'
p337
tp338
Rp339
tp340
a(g209
g6
(g18
S'\x15\xe3\x9b9'
p341
tp342
Rp343
tp344
asg73
g32
sa(dp345
g2
S'../../../data/emanuela/activity-recognition/images/NTCIR-Lifelog-256/u2/2015-05-03/b00004460_21i7lf_20150503_222237e.jpg'
p346
sg4
(lp347
(g32
g6
(g18
S'\xbd\xfa\xd5>'
p348
tp349
Rp350
tp351
a(g68
g6
(g18
S'\xd0j\xd3='
p352
tp353
Rp354
tp355
a(g15
g6
(g18
S'\x13\xdf\xc3='
p356
tp357
Rp358
tp359
a(g6
(g7
(S'S27'
p360
I0
I1
tp361
Rp362
(I3
S'|'
p363
NNNI27
I1
I0
tp364
bS'having drinks with somebody'
p365
tp366
Rp367
g6
(g18
S'\x82\xdb\x9d='
p368
tp369
Rp370
tp371
a(g56
g6
(g18
S'\x99\xe0r='
p372
tp373
Rp374
tp375
asg73
g32
sa(dp376
g2
S'../../../data/emanuela/activity-recognition/images/NTCIR-Lifelog-256/u2/2015-05-06/b00007231_21i7lf_20150506_191647e.jpg'
p377
sg4
(lp378
(g32
g6
(g18
S'\x9f\xf98?'
p379
tp380
Rp381
tp382
a(g68
g6
(g18
S'\xf2\r\xdd='
p383
tp384
Rp385
tp386
a(g56
g6
(g18
S'\x84\xc5\xb2='
p387
tp388
Rp389
tp390
a(g44
g6
(g18
S'4a\t='
p391
tp392
Rp393
tp394
a(g92
g6
(g18
S'\xca\x8a\x06<'
p395
tp396
Rp397
tp398
asg73
g32
sa(dp399
g2
S'../../../data/emanuela/activity-recognition/images/NTCIR-Lifelog-256/u2/2015-04-26/b00004420_21i7lf_20150426_183839e.jpg'
p400
sg4
(lp401
(g32
g6
(g18
S'\x0f\xb8S?'
p402
tp403
Rp404
tp405
a(g68
g6
(g18
S'\xb0F\x16>'
p406
tp407
Rp408
tp409
a(g56
g6
(g18
S'\xb5o}<'
p410
tp411
Rp412
tp413
a(g155
g6
(g18
S'\xbcF\xae;'
p414
tp415
Rp416
tp417
a(g92
g6
(g18
S'WO\xc2:'
p418
tp419
Rp420
tp421
asg73
g32
sa(dp422
g2
S'../../../data/emanuela/activity-recognition/images/NTCIR-Lifelog-256/u2/2015-05-03/b00004476_21i7lf_20150503_223319e.jpg'
p423
sg4
(lp424
(g56
g6
(g18
S'\x8c\xa2d?'
p425
tp426
Rp427
tp428
a(g155
g6
(g18
S'.n\x9e='
p429
tp430
Rp431
tp432
a(g32
g6
(g18
S'DV9<'
p433
tp434
Rp435
tp436
a(g68
g6
(g18
S'Z\xe5\xad;'
p437
tp438
Rp439
tp440
a(g367
g6
(g18
S'w\xb1\x9a;'
p441
tp442
Rp443
tp444
asg73
g32
sa(dp445
g2
S'../../../data/emanuela/activity-recognition/images/NTCIR-Lifelog-256/u2/2015-04-25/b00003267_21i7lf_20150425_154325e.jpg'
p446
sg4
(lp447
(g56
g6
(g18
S'\xda\xdb<?'
p448
tp449
Rp450
tp451
a(g155
g6
(g18
S'`7\x01>'
p452
tp453
Rp454
tp455
a(g32
g6
(g18
S'\x83R\xc8='
p456
tp457
Rp458
tp459
a(g68
g6
(g18
S'\xf5\xed\xa1<'
p460
tp461
Rp462
tp463
a(g92
g6
(g18
S'\x8d\x9b]<'
p464
tp465
Rp466
tp467
asg73
g32
sa(dp468
g2
S'../../../data/emanuela/activity-recognition/images/NTCIR-Lifelog-256/u2/2015-05-02/b00003011_21i7lf_20150502_115510e.jpg'
p469
sg4
(lp470
(g68
g6
(g18
S'\xfa\x15!?'
p471
tp472
Rp473
tp474
a(g32
g6
(g18
S'\xd5\x1bZ>'
p475
tp476
Rp477
tp478
a(g56
g6
(g18
S'g\x84\x8e='
p479
tp480
Rp481
tp482
a(g155
g6
(g18
S'\x90Hp='
p483
tp484
Rp485
tp486
a(g209
g6
(g18
S'\xe6\xd3T<'
p487
tp488
Rp489
tp490
asg73
g32
sa(dp491
g2
S'../../../data/emanuela/activity-recognition/images/NTCIR-Lifelog-256/u2/2015-04-29/b00000275_21i7lf_20150429_195049e.jpg'
p492
sg4
(lp493
(g32
g6
(g18
S' \x86\x8c>'
p494
tp495
Rp496
tp497
a(g92
g6
(g18
S'\x9a>+>'
p498
tp499
Rp500
tp501
a(g68
g6
(g18
S'\x01\x06\t>'
p502
tp503
Rp504
tp505
a(g155
g6
(g18
S'\x16\xac\xf9='
p506
tp507
Rp508
tp509
a(g6
(g7
(S'S19'
p510
I0
I1
tp511
Rp512
(I3
S'|'
p513
NNNI19
I1
I0
tp514
bS'attending a seminar'
p515
tp516
Rp517
g6
(g18
S'\xbb\xbe\x86='
p518
tp519
Rp520
tp521
asg73
g32
sa(dp522
g2
S'../../../data/emanuela/activity-recognition/images/NTCIR-Lifelog-256/u2/2015-05-04/b00004842_21i7lf_20150504_141818e.jpg'
p523
sg4
(lp524
(g32
g6
(g18
S'e\xb1l?'
p525
tp526
Rp527
tp528
a(g68
g6
(g18
S'i\xbe\x87='
p529
tp530
Rp531
tp532
a(g92
g6
(g18
S'\xbc\x98\\;'
p533
tp534
Rp535
tp536
a(g56
g6
(g18
S'\xcc\x94:;'
p537
tp538
Rp539
tp540
a(g155
g6
(g18
S'iV\x08;'
p541
tp542
Rp543
tp544
asg73
g32
sa(dp545
g2
S'../../../data/emanuela/activity-recognition/images/NTCIR-Lifelog-256/u2/2015-05-06/b00007227_21i7lf_20150506_191423e.jpg'
p546
sg4
(lp547
(g155
g6
(g18
S'gD\xa2>'
p548
tp549
Rp550
tp551
a(g56
g6
(g18
S'\xbc\x12\x99>'
p552
tp553
Rp554
tp555
a(g32
g6
(g18
S'V\xb6:>'
p556
tp557
Rp558
tp559
a(g92
g6
(g18
S'\x93R\xc8='
p560
tp561
Rp562
tp563
a(g367
g6
(g18
S'!\x04\xfe<'
p564
tp565
Rp566
tp567
asg73
g32
sa(dp568
g2
S'../../../data/emanuela/activity-recognition/images/NTCIR-Lifelog-256/u2/2015-05-05/b00005957_21i7lf_20150505_183442e.jpg'
p569
sg4
(lp570
(g32
g6
(g18
S'\x13L\x05?'
p571
tp572
Rp573
tp574
a(g68
g6
(g18
S'\xe3\xba\\>'
p575
tp576
Rp577
tp578
a(g44
g6
(g18
S'^0\t>'
p579
tp580
Rp581
tp582
a(g104
g6
(g18
S'\x91+\xf0<'
p583
tp584
Rp585
tp586
a(g6
(g7
(S'S7'
p587
I0
I1
tp588
Rp589
(I3
S'|'
p590
NNNI7
I1
I0
tp591
bS'resting'
p592
tp593
Rp594
g6
(g18
S'{\xba\x9c<'
p595
tp596
Rp597
tp598
asg73
g32
sa(dp599
g2
S'../../../data/emanuela/activity-recognition/images/NTCIR-Lifelog-256/u2/2015-05-06/b00006244_21i7lf_20150506_072140e.jpg'
p600
sg4
(lp601
(g32
g6
(g18
S'0f\x04?'
p602
tp603
Rp604
tp605
a(g68
g6
(g18
S'\x88\x10\xf3>'
p606
tp607
Rp608
tp609
a(g104
g6
(g18
S'Q\xe2>;'
p610
tp611
Rp612
tp613
a(g56
g6
(g18
S'(\xd6\xf3:'
p614
tp615
Rp616
tp617
a(g209
g6
(g18
S'z\x19::'
p618
tp619
Rp620
tp621
asg73
g32
sa(dp622
g2
S'../../../data/emanuela/activity-recognition/images/NTCIR-Lifelog-256/u2/2015-05-06/b00007224_21i7lf_20150506_191113e.jpg'
p623
sg4
(lp624
(g32
g6
(g18
S'z\x80\x97>'
p625
tp626
Rp627
tp628
a(g68
g6
(g18
S'\xa5\xedg>'
p629
tp630
Rp631
tp632
a(g155
g6
(g18
S'\xd3\x0e.>'
p633
tp634
Rp635
tp636
a(g56
g6
(g18
S'~(\xbb='
p637
tp638
Rp639
tp640
a(g367
g6
(g18
S')\x81<='
p641
tp642
Rp643
tp644
asg73
g32
sa(dp645
g2
S'../../../data/emanuela/activity-recognition/images/NTCIR-Lifelog-256/u2/2015-05-01/b00001705_21i7lf_20150501_081954e.jpg'
p646
sg4
(lp647
(g32
g6
(g18
S'\x95AS?'
p648
tp649
Rp650
tp651
a(g68
g6
(g18
S'@\x8e/>'
p652
tp653
Rp654
tp655
a(g155
g6
(g18
S'{oW:'
p656
tp657
Rp658
tp659
a(g92
g6
(g18
S'\x0bO\x1e:'
p660
tp661
Rp662
tp663
a(g104
g6
(g18
S'\xc0\x02\x07:'
p664
tp665
Rp666
tp667
asg73
g32
sa(dp668
g2
S'../../../data/emanuela/activity-recognition/images/NTCIR-Lifelog-256/u2/2015-04-27/b00004906_21i7lf_20150427_082942e.jpg'
p669
sg4
(lp670
(g32
g6
(g18
S'\x07X\xd7>'
p671
tp672
Rp673
tp674
a(g68
g6
(g18
S'\xb8\xb9r>'
p675
tp676
Rp677
tp678
a(g155
g6
(g18
S'4o.>'
p679
tp680
Rp681
tp682
a(g92
g6
(g18
S'\rh\x86='
p683
tp684
Rp685
tp686
a(g56
g6
(g18
S'\x8a8!='
p687
tp688
Rp689
tp690
asg73
g32
sa(dp691
g2
S'../../../data/emanuela/activity-recognition/images/NTCIR-Lifelog-256/u2/2015-05-07/b00008289_21i7lf_20150507_211723e.jpg'
p692
sg4
(lp693
(g32
g6
(g18
S'6f3?'
p694
tp695
Rp696
tp697
a(g68
g6
(g18
S'\xe1\xd5?>'
p698
tp699
Rp700
tp701
a(g143
g6
(g18
S'\x8e\x95%='
p702
tp703
Rp704
tp705
a(g56
g6
(g18
S'\x8d\xd7\xd5<'
p706
tp707
Rp708
tp709
a(g44
g6
(g18
S"\xce'\xb7<"
p710
tp711
Rp712
tp713
asg73
g32
sa(dp714
g2
S'../../../data/emanuela/activity-recognition/images/NTCIR-Lifelog-256/u2/2015-04-23/b00000785_21i7lf_20150423_084617e.jpg'
p715
sg4
(lp716
(g32
g6
(g18
S'b\xfc\x18?'
p717
tp718
Rp719
tp720
a(g68
g6
(g18
S'g\xa8\x81>'
p721
tp722
Rp723
tp724
a(g209
g6
(g18
S'\xa9\xaa\x91='
p725
tp726
Rp727
tp728
a(g155
g6
(g18
S'\xbf\x85&='
p729
tp730
Rp731
tp732
a(g294
g6
(g18
S'\xce\x17%<'
p733
tp734
Rp735
tp736
asg73
g32
sa(dp737
g2
S'../../../data/emanuela/activity-recognition/images/NTCIR-Lifelog-256/u2/2015-04-28/b00006281_21i7lf_20150428_084400e.jpg'
p738
sg4
(lp739
(g32
g6
(g18
S'\xf2\x9f+?'
p740
tp741
Rp742
tp743
a(g68
g6
(g18
S'\n\x8ap>'
p744
tp745
Rp746
tp747
a(g56
g6
(g18
S'\x90\x1cm='
p748
tp749
Rp750
tp751
a(g155
g6
(g18
S'\x83\xce\xd1<'
p752
tp753
Rp754
tp755
a(g92
g6
(g18
S'\nvq;'
p756
tp757
Rp758
tp759
asg73
g32
sa(dp760
g2
S'../../../data/emanuela/activity-recognition/images/NTCIR-Lifelog-256/u2/2015-04-25/b00002876_21i7lf_20150425_094736e.jpg'
p761
sg4
(lp762
(g68
g6
(g18
S'!\xfa\x89>'
p763
tp764
Rp765
tp766
a(g104
g6
(g18
S'\xf9Sj>'
p767
tp768
Rp769
tp770
a(g32
g6
(g18
S'%sM>'
p771
tp772
Rp773
tp774
a(g92
g6
(g18
S'\x84T<>'
p775
tp776
Rp777
tp778
a(g209
g6
(g18
S'\x15\xa6F='
p779
tp780
Rp781
tp782
asg73
g32
sa(dp783
g2
S'../../../data/emanuela/activity-recognition/images/NTCIR-Lifelog-256/u2/2015-04-23/b00000793_21i7lf_20150423_085114e.jpg'
p784
sg4
(lp785
(g32
g6
(g18
S'\x8f\xd4\x1d?'
p786
tp787
Rp788
tp789
a(g68
g6
(g18
S')\xcf\xa6>'
p790
tp791
Rp792
tp793
a(g143
g6
(g18
S'\x92\xbc\xc7<'
p794
tp795
Rp796
tp797
a(g104
g6
(g18
S'\xa8\x90R<'
p798
tp799
Rp800
tp801
a(g44
g6
(g18
S'h\x00\xde;'
p802
tp803
Rp804
tp805
asg73
g32
sa(dp806
g2
S'../../../data/emanuela/activity-recognition/images/NTCIR-Lifelog-256/u2/2015-04-25/b00003157_21i7lf_20150425_130650e.jpg'
p807
sg4
(lp808
(g56
g6
(g18
S'\n\x8b\xaf>'
p809
tp810
Rp811
tp812
a(g32
g6
(g18
S'\x97\xb8Q>'
p813
tp814
Rp815
tp816
a(g209
g6
(g18
S'A\x86\x0b>'
p817
tp818
Rp819
tp820
a(g155
g6
(g18
S'\xf7N\x00>'
p821
tp822
Rp823
tp824
a(g68
g6
(g18
S')\x1c\x92='
p825
tp826
Rp827
tp828
asg73
g32
sa(dp829
g2
S'../../../data/emanuela/activity-recognition/images/NTCIR-Lifelog-256/u2/2015-04-25/b00002875_21i7lf_20150425_094650e.jpg'
p830
sg4
(lp831
(g92
g6
(g18
S'\x88\xc7\xaa>'
p832
tp833
Rp834
tp835
a(g155
g6
(g18
S'\xe9\xdc\x97>'
p836
tp837
Rp838
tp839
a(g32
g6
(g18
S'yU,>'
p840
tp841
Rp842
tp843
a(g68
g6
(g18
S'u+\xbd='
p844
tp845
Rp846
tp847
a(g367
g6
(g18
S'-M#='
p848
tp849
Rp850
tp851
asg73
g32
sa(dp852
g2
S'../../../data/emanuela/activity-recognition/images/NTCIR-Lifelog-256/u2/2015-04-23/b00000798_21i7lf_20150423_085423e.jpg'
p853
sg4
(lp854
(g32
g6
(g18
S'\n\xefI?'
p855
tp856
Rp857
tp858
a(g68
g6
(g18
S'\x10?G>'
p859
tp860
Rp861
tp862
a(g56
g6
(g18
S'-~-<'
p863
tp864
Rp865
tp866
a(g143
g6
(g18
S'\x90\x8c\x06;'
p867
tp868
Rp869
tp870
a(g44
g6
(g18
S'\xbfZ\xcd:'
p871
tp872
Rp873
tp874
asg73
g32
sa(dp875
g2
S'../../../data/emanuela/activity-recognition/images/NTCIR-Lifelog-256/u2/2015-04-28/b00006272_21i7lf_20150428_083826e.jpg'
p876
sg4
(lp877
(g32
g6
(g18
S'\x0f^e?'
p878
tp879
Rp880
tp881
a(g68
g6
(g18
S'\rv\x96='
p882
tp883
Rp884
tp885
a(g56
g6
(g18
S';\xf4\xe2<'
p886
tp887
Rp888
tp889
a(g155
g6
(g18
S'\xe5y\xce:'
p890
tp891
Rp892
tp893
a(g92
g6
(g18
S'\x9f\xab\t:'
p894
tp895
Rp896
tp897
asg73
g32
sa(dp898
g2
S'../../../data/emanuela/activity-recognition/images/NTCIR-Lifelog-256/u2/2015-04-27/b00004902_21i7lf_20150427_082722e.jpg'
p899
sg4
(lp900
(g68
g6
(g18
S'd\x06\x91>'
p901
tp902
Rp903
tp904
a(g56
g6
(g18
S'\x8c\x01\x91>'
p905
tp906
Rp907
tp908
a(g32
g6
(g18
S':\xe0^>'
p909
tp910
Rp911
tp912
a(g155
g6
(g18
S'\x82\xd5\x9e='
p913
tp914
Rp915
tp916
a(g143
g6
(g18
S'\x91\xa1I='
p917
tp918
Rp919
tp920
asg73
g32
sa(dp921
g2
S'../../../data/emanuela/activity-recognition/images/NTCIR-Lifelog-256/u2/2015-04-28/b00006273_21i7lf_20150428_083859e.jpg'
p922
sg4
(lp923
(g32
g6
(g18
S'\x87,7?'
p924
tp925
Rp926
tp927
a(g56
g6
(g18
S'U/Y>'
p928
tp929
Rp930
tp931
a(g68
g6
(g18
S'\xe6N\x85='
p932
tp933
Rp934
tp935
a(g155
g6
(g18
S'\x01;\xaf;'
p936
tp937
Rp938
tp939
a(g92
g6
(g18
S'wSN:'
p940
tp941
Rp942
tp943
asg73
g32
sa(dp944
g2
S'../../../data/emanuela/activity-recognition/images/NTCIR-Lifelog-256/u2/2015-04-26/b00003866_21i7lf_20150426_115830e.jpg'
p945
sg4
(lp946
(g32
g6
(g18
S'\xc2\xdad?'
p947
tp948
Rp949
tp950
a(g68
g6
(g18
S'\x8b\x18^='
p951
tp952
Rp953
tp954
a(g155
g6
(g18
S'*"\xc3<'
p955
tp956
Rp957
tp958
a(g56
g6
(g18
S'\xcbI\x7f<'
p959
tp960
Rp961
tp962
a(g92
g6
(g18
S'\xc7t\xda;'
p963
tp964
Rp965
tp966
asg73
g32
sa(dp967
g2
S'../../../data/emanuela/activity-recognition/images/NTCIR-Lifelog-256/u2/2015-05-05/b00005972_21i7lf_20150505_184420e.jpg'
p968
sg4
(lp969
(g32
g6
(g18
S'\xf3\xf3"?'
p970
tp971
Rp972
tp973
a(g56
g6
(g18
S'\x00eP>'
p974
tp975
Rp976
tp977
a(g68
g6
(g18
S'{\x08\xf3='
p978
tp979
Rp980
tp981
a(g155
g6
(g18
S'\xf0>n<'
p982
tp983
Rp984
tp985
a(g44
g6
(g18
S'\x86)l<'
p986
tp987
Rp988
tp989
asg73
g32
sa(dp990
g2
S'../../../data/emanuela/activity-recognition/images/NTCIR-Lifelog-256/u2/2015-04-29/b00000274_21i7lf_20150429_195017e.jpg'
p991
sg4
(lp992
(g32
g6
(g18
S'>\xcc\xc2>'
p993
tp994
Rp995
tp996
a(g68
g6
(g18
S'\x92\xd4W>'
p997
tp998
Rp999
tp1000
a(g209
g6
(g18
S'\xb2\xf0&>'
p1001
tp1002
Rp1003
tp1004
a(g155
g6
(g18
S'#\x15\xb5='
p1005
tp1006
Rp1007
tp1008
a(g56
g6
(g18
S'\xccV\x14='
p1009
tp1010
Rp1011
tp1012
asg73
g32
sa(dp1013
g2
S'../../../data/emanuela/activity-recognition/images/NTCIR-Lifelog-256/u2/2015-05-05/b00005978_21i7lf_20150505_184800e.jpg'
p1014
sg4
(lp1015
(g104
g6
(g18
S'\xd6\xe8\x87>'
p1016
tp1017
Rp1018
tp1019
a(g92
g6
(g18
S'gFA>'
p1020
tp1021
Rp1022
tp1023
a(g32
g6
(g18
S't\xd5\t>'
p1024
tp1025
Rp1026
tp1027
a(g68
g6
(g18
S'\xd6)\xcb='
p1028
tp1029
Rp1030
tp1031
a(g56
g6
(g18
S'_\xccV='
p1032
tp1033
Rp1034
tp1035
asg73
g32
sa(dp1036
g2
S'../../../data/emanuela/activity-recognition/images/NTCIR-Lifelog-256/u2/2015-05-05/b00005976_21i7lf_20150505_184650e.jpg'
p1037
sg4
(lp1038
(g32
g6
(g18
S'\x96_C?'
p1039
tp1040
Rp1041
tp1042
a(g68
g6
(g18
S'\xea\xcc\xce='
p1043
tp1044
Rp1045
tp1046
a(g56
g6
(g18
S'\x03\xd6\x8d='
p1047
tp1048
Rp1049
tp1050
a(g143
g6
(g18
S'\xa0T\xa4<'
p1051
tp1052
Rp1053
tp1054
a(g44
g6
(g18
S'1\x1eW<'
p1055
tp1056
Rp1057
tp1058
asg73
g32
sa(dp1059
g2
S'../../../data/emanuela/activity-recognition/images/NTCIR-Lifelog-256/u2/2015-05-06/b00007241_21i7lf_20150506_192408e.jpg'
p1060
sg4
(lp1061
(g32
g6
(g18
S'\x90\xdc\x1d?'
p1062
tp1063
Rp1064
tp1065
a(g68
g6
(g18
S'\x0es\x9f>'
p1066
tp1067
Rp1068
tp1069
a(g6
(g7
(S'S5'
p1070
I0
I1
tp1071
Rp1072
(I3
S'|'
p1073
NNNI5
I1
I0
tp1074
bS'plane'
p1075
tp1076
Rp1077
g6
(g18
S'\xc1\xad~<'
p1078
tp1079
Rp1080
tp1081
a(g56
g6
(g18
S'\xb0\xcdR<'
p1082
tp1083
Rp1084
tp1085
a(g92
g6
(g18
S'DN\x1f<'
p1086
tp1087
Rp1088
tp1089
asg73
g32
sa(dp1090
g2
S'../../../data/emanuela/activity-recognition/images/NTCIR-Lifelog-256/u2/2015-05-06/b00007247_21i7lf_20150506_192750e.jpg'
p1091
sg4
(lp1092
(g56
g6
(g18
S'\xca\xd2$?'
p1093
tp1094
Rp1095
tp1096
a(g32
g6
(g18
S"Q\xe9'>"
p1097
tp1098
Rp1099
tp1100
a(g68
g6
(g18
S'\xa1\xca\x11>'
p1101
tp1102
Rp1103
tp1104
a(g155
g6
(g18
S'0\xe1\x0f='
p1105
tp1106
Rp1107
tp1108
a(g228
g6
(g18
S'\x12\x81P;'
p1109
tp1110
Rp1111
tp1112
asg73
g32
sa(dp1113
g2
S'../../../data/emanuela/activity-recognition/images/NTCIR-Lifelog-256/u2/2015-04-26/b00003865_21i7lf_20150426_115750e.jpg'
p1114
sg4
(lp1115
(g32
g6
(g18
S'38\r?'
p1116
tp1117
Rp1118
tp1119
a(g92
g6
(g18
S'O\x81\x9b>'
p1120
tp1121
Rp1122
tp1123
a(g56
g6
(g18
S'CQ\x12='
p1124
tp1125
Rp1126
tp1127
a(g68
g6
(g18
S'\x88\xa0\x0f='
p1128
tp1129
Rp1130
tp1131
a(g104
g6
(g18
S'\xc0c\xac<'
p1132
tp1133
Rp1134
tp1135
asg73
g32
sa(dp1136
g2
S'../../../data/emanuela/activity-recognition/images/NTCIR-Lifelog-256/u2/2015-04-28/b00006258_21i7lf_20150428_082914e.jpg'
p1137
sg4
(lp1138
(g32
g6
(g18
S'g/F?'
p1139
tp1140
Rp1141
tp1142
a(g68
g6
(g18
S'[I">'
p1143
tp1144
Rp1145
tp1146
a(g56
g6
(g18
S'"\xa3\x7f<'
p1147
tp1148
Rp1149
tp1150
a(g44
g6
(g18
S'-\xc8o<'
p1151
tp1152
Rp1153
tp1154
a(g143
g6
(g18
S'\xd9\r\r<'
p1155
tp1156
Rp1157
tp1158
asg73
g32
sa(dp1159
g2
S'../../../data/emanuela/activity-recognition/images/NTCIR-Lifelog-256/u2/2015-04-27/b00004901_21i7lf_20150427_082642e.jpg'
p1160
sg4
(lp1161
(g32
g6
(g18
S'\xf8\xb2J?'
p1162
tp1163
Rp1164
tp1165
a(g68
g6
(g18
S't{E>'
p1166
tp1167
Rp1168
tp1169
a(g56
g6
(g18
S'6\xda\xe5;'
p1170
tp1171
Rp1172
tp1173
a(g155
g6
(g18
S'\xc3\xbe\xc1;'
p1174
tp1175
Rp1176
tp1177
a(g92
g6
(g18
S'\xff1\x85:'
p1178
tp1179
Rp1180
tp1181
asg73
g32
sa(dp1182
g2
S'../../../data/emanuela/activity-recognition/images/NTCIR-Lifelog-256/u2/2015-04-25/b00003147_21i7lf_20150425_130009e.jpg'
p1183
sg4
(lp1184
(g32
g6
(g18
S'\xaf\x8c,?'
p1185
tp1186
Rp1187
tp1188
a(g68
g6
(g18
S'\xdb\xf5\xfb='
p1189
tp1190
Rp1191
tp1192
a(g92
g6
(g18
S'\x14Z\xed='
p1193
tp1194
Rp1195
tp1196
a(g104
g6
(g18
S'\xf9\xda\xe4<'
p1197
tp1198
Rp1199
tp1200
a(g15
g6
(g18
S'\xef\x0b\x92<'
p1201
tp1202
Rp1203
tp1204
asg73
g32
sa(dp1205
g2
S'../../../data/emanuela/activity-recognition/images/NTCIR-Lifelog-256/u2/2015-05-08/b00009626_21i7lf_20150508_194627e.jpg'
p1206
sg4
(lp1207
(g32
g6
(g18
S'rF7?'
p1208
tp1209
Rp1210
tp1211
a(g68
g6
(g18
S'c\xd8U>'
p1212
tp1213
Rp1214
tp1215
a(g56
g6
(g18
S'x\xdd{='
p1216
tp1217
Rp1218
tp1219
a(g155
g6
(g18
S'\xb1^\x98;'
p1220
tp1221
Rp1222
tp1223
a(g92
g6
(g18
S'm\xcf\x13;'
p1224
tp1225
Rp1226
tp1227
asg73
g32
sa(dp1228
g2
S'../../../data/emanuela/activity-recognition/images/NTCIR-Lifelog-256/u2/2015-05-04/b00004863_21i7lf_20150504_143123e.jpg'
p1229
sg4
(lp1230
(g68
g6
(g18
S'K\xdc\xd3>'
p1231
tp1232
Rp1233
tp1234
a(g32
g6
(g18
S'D\x9b\xc2>'
p1235
tp1236
Rp1237
tp1238
a(g155
g6
(g18
S'\xdb5\n>'
p1239
tp1240
Rp1241
tp1242
a(g56
g6
(g18
S"?'\x1b="
p1243
tp1244
Rp1245
tp1246
a(g209
g6
(g18
S'(\x1a$<'
p1247
tp1248
Rp1249
tp1250
asg73
g32
sa(dp1251
g2
S'../../../data/emanuela/activity-recognition/images/NTCIR-Lifelog-256/u2/2015-04-29/b00000294_21i7lf_20150429_200319e.jpg'
p1252
sg4
(lp1253
(g56
g6
(g18
S'\x9d\x9bW?'
p1254
tp1255
Rp1256
tp1257
a(g68
g6
(g18
S';t\x98='
p1258
tp1259
Rp1260
tp1261
a(g32
g6
(g18
S'_\x8c-='
p1262
tp1263
Rp1264
tp1265
a(g155
g6
(g18
S'-\x87\x13='
p1266
tp1267
Rp1268
tp1269
a(g143
g6
(g18
S'\x1a\x84\xfa:'
p1270
tp1271
Rp1272
tp1273
asg73
g32
sa(dp1274
g2
S'../../../data/emanuela/activity-recognition/images/NTCIR-Lifelog-256/u2/2015-05-01/b00001716_21i7lf_20150501_082651e.jpg'
p1275
sg4
(lp1276
(g32
g6
(g18
S'\xda\xbc_?'
p1277
tp1278
Rp1279
tp1280
a(g68
g6
(g18
S'?\x93\xf9='
p1281
tp1282
Rp1283
tp1284
a(g209
g6
(g18
S'\x98\xfb9:'
p1285
tp1286
Rp1287
tp1288
a(g155
g6
(g18
S'\x13n$:'
p1289
tp1290
Rp1291
tp1292
a(g92
g6
(g18
S'\'\xc9":'
p1293
tp1294
Rp1295
tp1296
asg73
g32
sa(dp1297
g2
S'../../../data/emanuela/activity-recognition/images/NTCIR-Lifelog-256/u2/2015-04-30/b00000621_21i7lf_20150430_080519e.jpg'
p1298
sg4
(lp1299
(g32
g6
(g18
S'\xb0nd?'
p1300
tp1301
Rp1302
tp1303
a(g68
g6
(g18
S'\xadY\xce='
p1304
tp1305
Rp1306
tp1307
a(g155
g6
(g18
S'ca[;'
p1308
tp1309
Rp1310
tp1311
a(g56
g6
(g18
S'\x99u\xf7:'
p1312
tp1313
Rp1314
tp1315
a(g92
g6
(g18
S'\x8f\xf1::'
p1316
tp1317
Rp1318
tp1319
asg73
g32
sa(dp1320
g2
S'../../../data/emanuela/activity-recognition/images/NTCIR-Lifelog-256/u2/2015-05-06/b00007240_21i7lf_20150506_192328e.jpg'
p1321
sg4
(lp1322
(g32
g6
(g18
S'\xf1\xfe\x9e>'
p1323
tp1324
Rp1325
tp1326
a(g68
g6
(g18
S'\x99\xd5\x90>'
p1327
tp1328
Rp1329
tp1330
a(g56
g6
(g18
S'\xbb\xd4\x0b>'
p1331
tp1332
Rp1333
tp1334
a(g228
g6
(g18
S'\r\xcbw='
p1335
tp1336
Rp1337
tp1338
a(g155
g6
(g18
S'B\xd1R='
p1339
tp1340
Rp1341
tp1342
asg73
g32
sa(dp1343
g2
S'../../../data/emanuela/activity-recognition/images/NTCIR-Lifelog-256/u2/2015-05-01/b00002657_21i7lf_20150501_205657e.jpg'
p1344
sg4
(lp1345
(g32
g6
(g18
S'\xfbb\x19?'
p1346
tp1347
Rp1348
tp1349
a(g92
g6
(g18
S'\xfe\x9f\x94>'
p1350
tp1351
Rp1352
tp1353
a(g68
g6
(g18
S'z\xfc\x98='
p1354
tp1355
Rp1356
tp1357
a(g104
g6
(g18
S'\r=\n<'
p1358
tp1359
Rp1360
tp1361
a(g155
g6
(g18
S'\x0ey\xf0;'
p1362
tp1363
Rp1364
tp1365
asg73
g32
sa(dp1366
g2
S'../../../data/emanuela/activity-recognition/images/NTCIR-Lifelog-256/u2/2015-05-06/b00007234_21i7lf_20150506_191928e.jpg'
p1367
sg4
(lp1368
(g32
g6
(g18
S'l4S?'
p1369
tp1370
Rp1371
tp1372
a(g56
g6
(g18
S'\xe7C\xbd='
p1373
tp1374
Rp1375
tp1376
a(g68
g6
(g18
S'\x10r\x19='
p1377
tp1378
Rp1379
tp1380
a(g155
g6
(g18
S'\x90\xd0\x01='
p1381
tp1382
Rp1383
tp1384
a(g92
g6
(g18
S'z8\x89;'
p1385
tp1386
Rp1387
tp1388
asg73
g32
sa(dp1389
g2
S'../../../data/emanuela/activity-recognition/images/NTCIR-Lifelog-256/u2/2015-04-25/b00003119_21i7lf_20150425_124057e.jpg'
p1390
sg4
(lp1391
(g56
g6
(g18
S'\xab\x08$?'
p1392
tp1393
Rp1394
tp1395
a(g155
g6
(g18
S'\x06\x88\x10>'
p1396
tp1397
Rp1398
tp1399
a(g68
g6
(g18
S'\x07L\xb3='
p1400
tp1401
Rp1402
tp1403
a(g209
g6
(g18
S'\xf4\x87<='
p1404
tp1405
Rp1406
tp1407
a(g32
g6
(g18
S'd\xce\xc7<'
p1408
tp1409
Rp1410
tp1411
asg73
g32
sa(dp1412
g2
S'../../../data/emanuela/activity-recognition/images/NTCIR-Lifelog-256/u2/2015-05-03/b00004067_21i7lf_20150503_174407e.jpg'
p1413
sg4
(lp1414
(g56
g6
(g18
S'\x92)W?'
p1415
tp1416
Rp1417
tp1418
a(g32
g6
(g18
S'\x1fy\x85='
p1419
tp1420
Rp1421
tp1422
a(g155
g6
(g18
S'\x9a\x139='
p1423
tp1424
Rp1425
tp1426
a(g68
g6
(g18
S'\x116\xd1<'
p1427
tp1428
Rp1429
tp1430
a(g143
g6
(g18
S'\xe8\x17\x1a<'
p1431
tp1432
Rp1433
tp1434
asg73
g32
sa(dp1435
g2
S'../../../data/emanuela/activity-recognition/images/NTCIR-Lifelog-256/u2/2015-04-20/b00000711_21i7lf_20150420_170354e.jpg'
p1436
sg4
(lp1437
(g32
g6
(g18
S'q\xb5\xef>'
p1438
tp1439
Rp1440
tp1441
a(g68
g6
(g18
S'9w|>'
p1442
tp1443
Rp1444
tp1445
a(g56
g6
(g18
S'\xf3\xbd\xd7='
p1446
tp1447
Rp1448
tp1449
a(g155
g6
(g18
S'*\xb2\x8b='
p1450
tp1451
Rp1452
tp1453
a(g209
g6
(g18
S'\xce\xd2_='
p1454
tp1455
Rp1456
tp1457
asg73
g32
sa(dp1458
g2
S'../../../data/emanuela/activity-recognition/images/NTCIR-Lifelog-256/u2/2015-05-06/b00007233_21i7lf_20150506_191846e.jpg'
p1459
sg4
(lp1460
(g32
g6
(g18
S'v\x8b\x1f?'
p1461
tp1462
Rp1463
tp1464
a(g56
g6
(g18
S'\xc0\x85B>'
p1465
tp1466
Rp1467
tp1468
a(g68
g6
(g18
S'\xe7\x10\x12>'
p1469
tp1470
Rp1471
tp1472
a(g155
g6
(g18
S'\x81\x1b\xa7<'
p1473
tp1474
Rp1475
tp1476
a(g367
g6
(g18
S'\xff,\xbd;'
p1477
tp1478
Rp1479
tp1480
asg73
g32
sa(dp1481
g2
S'../../../data/emanuela/activity-recognition/images/NTCIR-Lifelog-256/u2/2015-04-25/b00003161_21i7lf_20150425_130923e.jpg'
p1482
sg4
(lp1483
(g32
g6
(g18
S'\xa3_ ?'
p1484
tp1485
Rp1486
tp1487
a(g92
g6
(g18
S'_\x01\x1c>'
p1488
tp1489
Rp1490
tp1491
a(g209
g6
(g18
S'\xbbp\xbd='
p1492
tp1493
Rp1494
tp1495
a(g155
g6
(g18
S'\x85 4='
p1496
tp1497
Rp1498
tp1499
a(g68
g6
(g18
S'CI\x02='
p1500
tp1501
Rp1502
tp1503
asg73
g32
sa(dp1504
g2
S'../../../data/emanuela/activity-recognition/images/NTCIR-Lifelog-256/u2/2015-05-03/b00004068_21i7lf_20150503_174442e.jpg'
p1505
sg4
(lp1506
(g56
g6
(g18
S'\xa1\xb2\xb8>'
p1507
tp1508
Rp1509
tp1510
a(g155
g6
(g18
S' \x1b\x96>'
p1511
tp1512
Rp1513
tp1514
a(g32
g6
(g18
S'\x92\xc3u>'
p1515
tp1516
Rp1517
tp1518
a(g68
g6
(g18
S'oQ=='
p1519
tp1520
Rp1521
tp1522
a(g92
g6
(g18
S'\xf6\xa3\xe6<'
p1523
tp1524
Rp1525
tp1526
asg73
g32
sa(dp1527
g2
S'../../../data/emanuela/activity-recognition/images/NTCIR-Lifelog-256/u2/2015-04-25/b00002882_21i7lf_20150425_095126e.jpg'
p1528
sg4
(lp1529
(g32
g6
(g18
S'\xce\x99\xbd>'
p1530
tp1531
Rp1532
tp1533
a(g209
g6
(g18
S'\xf9\x16>>'
p1534
tp1535
Rp1536
tp1537
a(g68
g6
(g18
S'\xfe\xd99>'
p1538
tp1539
Rp1540
tp1541
a(g92
g6
(g18
S'K?]='
p1542
tp1543
Rp1544
tp1545
a(g367
g6
(g18
S'\x9d\x81J='
p1546
tp1547
Rp1548
tp1549
asg73
g32
sa(dp1550
g2
S'../../../data/emanuela/activity-recognition/images/NTCIR-Lifelog-256/u2/2015-04-25/b00002883_21i7lf_20150425_095206e.jpg'
p1551
sg4
(lp1552
(g32
g6
(g18
S'D\x1eH?'
p1553
tp1554
Rp1555
tp1556
a(g68
g6
(g18
S'\xb7\x0f)>'
p1557
tp1558
Rp1559
tp1560
a(g56
g6
(g18
S'n\xb8\xe5<'
p1561
tp1562
Rp1563
tp1564
a(g155
g6
(g18
S'\xe2K\x17<'
p1565
tp1566
Rp1567
tp1568
a(g92
g6
(g18
S'\xf9\x80\xd1;'
p1569
tp1570
Rp1571
tp1572
asg73
g32
sa(dp1573
g2
S'../../../data/emanuela/activity-recognition/images/NTCIR-Lifelog-256/u2/2015-04-20/b00001030_21i7lf_20150420_201147e.jpg'
p1574
sg4
(lp1575
(g32
g6
(g18
S'\x96Qs?'
p1576
tp1577
Rp1578
tp1579
a(g68
g6
(g18
S'\xadbF='
p1580
tp1581
Rp1582
tp1583
a(g104
g6
(g18
S'x\x87\x889'
p1584
tp1585
Rp1586
tp1587
a(g92
g6
(g18
S'b\xefj9'
p1588
tp1589
Rp1590
tp1591
a(g56
g6
(g18
S'\x19\x91\x019'
p1592
tp1593
Rp1594
tp1595
asg73
g32
sa(dp1596
g2
S'../../../data/emanuela/activity-recognition/images/NTCIR-Lifelog-256/u2/2015-04-25/b00003266_21i7lf_20150425_154247e.jpg'
p1597
sg4
(lp1598
(g56
g6
(g18
S'\x15^\x08?'
p1599
tp1600
Rp1601
tp1602
a(g32
g6
(g18
S'7\xbe\x1c>'
p1603
tp1604
Rp1605
tp1606
a(g68
g6
(g18
S'\x10\xb1\x0b>'
p1607
tp1608
Rp1609
tp1610
a(g594
g6
(g18
S'\xdf\xff\xd7='
p1611
tp1612
Rp1613
tp1614
a(g44
g6
(g18
S'%\xe1~<'
p1615
tp1616
Rp1617
tp1618
asg73
g32
sa(dp1619
g2
S'../../../data/emanuela/activity-recognition/images/NTCIR-Lifelog-256/u2/2015-04-25/b00003150_21i7lf_20150425_130157e.jpg'
p1620
sg4
(lp1621
(g32
g6
(g18
S'\xf7\xb9u?'
p1622
tp1623
Rp1624
tp1625
a(g68
g6
(g18
S';X\x0e='
p1626
tp1627
Rp1628
tp1629
a(g143
g6
(g18
S'&\xd3\xf9:'
p1630
tp1631
Rp1632
tp1633
a(g92
g6
(g18
S'\x8bq\xc8:'
p1634
tp1635
Rp1636
tp1637
a(g15
g6
(g18
S'\xd6\xa0\xfa9'
p1638
tp1639
Rp1640
tp1641
asg73
g32
sa(dp1642
g2
S'../../../data/emanuela/activity-recognition/images/NTCIR-Lifelog-256/u2/2015-04-23/b00001654_21i7lf_20150423_195743e.jpg'
p1643
sg4
(lp1644
(g32
g6
(g18
S'\xbdH\xf0>'
p1645
tp1646
Rp1647
tp1648
a(g68
g6
(g18
S'$\xb2\xee>'
p1649
tp1650
Rp1651
tp1652
a(g209
g6
(g18
S'4\xeaI<'
p1653
tp1654
Rp1655
tp1656
a(g104
g6
(g18
S'\\\x16;<'
p1657
tp1658
Rp1659
tp1660
a(g56
g6
(g18
S'\xef\xfa\xca;'
p1661
tp1662
Rp1663
tp1664
asg73
g32
sa(dp1665
g2
S'../../../data/emanuela/activity-recognition/images/NTCIR-Lifelog-256/u2/2015-05-06/b00007253_21i7lf_20150506_193125e.jpg'
p1666
sg4
(lp1667
(g32
g6
(g18
S'\xa1\xd2\xd8>'
p1668
tp1669
Rp1670
tp1671
a(g56
g6
(g18
S'\x81\xaf\xcf>'
p1672
tp1673
Rp1674
tp1675
a(g155
g6
(g18
S'Q\xc5\x81='
p1676
tp1677
Rp1678
tp1679
a(g68
g6
(g18
S'\x1b\x05u='
p1680
tp1681
Rp1682
tp1683
a(g92
g6
(g18
S'\x1eF\x81<'
p1684
tp1685
Rp1686
tp1687
asg73
g32
sa(dp1688
g2
S'../../../data/emanuela/activity-recognition/images/NTCIR-Lifelog-256/u2/2015-05-01/b00002656_21i7lf_20150501_205616e.jpg'
p1689
sg4
(lp1690
(g32
g6
(g18
S'M\xaaN>'
p1691
tp1692
Rp1693
tp1694
a(g56
g6
(g18
S'\x8b\xb2/>'
p1695
tp1696
Rp1697
tp1698
a(g68
g6
(g18
S'\x9b\xa8\x1c>'
p1699
tp1700
Rp1701
tp1702
a(g1077
g6
(g18
S'\x96\x82\xdd='
p1703
tp1704
Rp1705
tp1706
a(g367
g6
(g18
S'\xd5\xf5\xcb='
p1707
tp1708
Rp1709
tp1710
asg73
g32
sa(dp1711
g2
S'../../../data/emanuela/activity-recognition/images/NTCIR-Lifelog-256/u2/2015-04-25/b00003162_21i7lf_20150425_131004e.jpg'
p1712
sg4
(lp1713
(g32
g6
(g18
S'\xf7\xe2M?'
p1714
tp1715
Rp1716
tp1717
a(g68
g6
(g18
S'\xebB\x03>'
p1718
tp1719
Rp1720
tp1721
a(g209
g6
(g18
S'\xc8\x0b\xaa<'
p1722
tp1723
Rp1724
tp1725
a(g56
g6
(g18
S'O(y<'
p1726
tp1727
Rp1728
tp1729
a(g155
g6
(g18
S'*\xeeZ<'
p1730
tp1731
Rp1732
tp1733
asg73
g32
sa(dp1734
g2
S'../../../data/emanuela/activity-recognition/images/NTCIR-Lifelog-256/u2/2015-04-20/b00000590_21i7lf_20150420_154855e.jpg'
p1735
sg4
(lp1736
(g32
g6
(g18
S'\xaet\x03?'
p1737
tp1738
Rp1739
tp1740
a(g56
g6
(g18
S'\xc8h\xa5>'
p1741
tp1742
Rp1743
tp1744
a(g68
g6
(g18
S'E\x9d\x9d='
p1745
tp1746
Rp1747
tp1748
a(g155
g6
(g18
S"1\xbd'="
p1749
tp1750
Rp1751
tp1752
a(g209
g6
(g18
S'}J;<'
p1753
tp1754
Rp1755
tp1756
asg73
g32
sa(dp1757
g2
S'../../../data/emanuela/activity-recognition/images/NTCIR-Lifelog-256/u2/2015-04-25/b00003158_21i7lf_20150425_130727e.jpg'
p1758
sg4
(lp1759
(g32
g6
(g18
S'9\x0eh?'
p1760
tp1761
Rp1762
tp1763
a(g68
g6
(g18
S'\x15\xa9\x81='
p1764
tp1765
Rp1766
tp1767
a(g143
g6
(g18
S'\xa1\x9d\x1f<'
p1768
tp1769
Rp1770
tp1771
a(g15
g6
(g18
S'\xb04\xfc;'
p1772
tp1773
Rp1774
tp1775
a(g104
g6
(g18
S'\xc9hM;'
p1776
tp1777
Rp1778
tp1779
asg73
g32
sa(dp1780
g2
S'../../../data/emanuela/activity-recognition/images/NTCIR-Lifelog-256/u2/2015-04-30/b00001547_21i7lf_20150430_190119e.jpg'
p1781
sg4
(lp1782
(g32
g6
(g18
S'T\x94\x04?'
p1783
tp1784
Rp1785
tp1786
a(g68
g6
(g18
S'\x87j\xd3>'
p1787
tp1788
Rp1789
tp1790
a(g56
g6
(g18
S'3\x9c\x9c<'
p1791
tp1792
Rp1793
tp1794
a(g44
g6
(g18
S'\xb6U\x9b<'
p1795
tp1796
Rp1797
tp1798
a(g143
g6
(g18
S'|\xcc\xd8;'
p1799
tp1800
Rp1801
tp1802
asg73
g32
sa(dp1803
g2
S'../../../data/emanuela/activity-recognition/images/NTCIR-Lifelog-256/u2/2015-04-25/b00003160_21i7lf_20150425_130845e.jpg'
p1804
sg4
(lp1805
(g32
g6
(g18
S'\xda\x10\xe1>'
p1806
tp1807
Rp1808
tp1809
a(g56
g6
(g18
S'\x1cZ\x96>'
p1810
tp1811
Rp1812
tp1813
a(g15
g6
(g18
S'\x93e\xa4='
p1814
tp1815
Rp1816
tp1817
a(g68
g6
(g18
S'\xec\xdc\xa0='
p1818
tp1819
Rp1820
tp1821
a(g155
g6
(g18
S'\xf1w\\='
p1822
tp1823
Rp1824
tp1825
asg73
g32
sa(dp1826
g2
S'../../../data/emanuela/activity-recognition/images/NTCIR-Lifelog-256/u2/2015-05-06/b00007243_21i7lf_20150506_192522e.jpg'
p1827
sg4
(lp1828
(g32
g6
(g18
S'\x7f!\x1b?'
p1829
tp1830
Rp1831
tp1832
a(g56
g6
(g18
S'\xe9\xeeA>'
p1833
tp1834
Rp1835
tp1836
a(g68
g6
(g18
S'\xc2\x02\x01>'
p1837
tp1838
Rp1839
tp1840
a(g155
g6
(g18
S'\x9a_,='
p1841
tp1842
Rp1843
tp1844
a(g367
g6
(g18
S'\xa0\xcd\xe7;'
p1845
tp1846
Rp1847
tp1848
asg73
g32
sa(dp1849
g2
S'../../../data/emanuela/activity-recognition/images/NTCIR-Lifelog-256/u2/2015-04-22/b00000592_21i7lf_20150422_185009e.jpg'
p1850
sg4
(lp1851
(g32
g6
(g18
S'Gc\xe8>'
p1852
tp1853
Rp1854
tp1855
a(g92
g6
(g18
S'#\xd4\x8c>'
p1856
tp1857
Rp1858
tp1859
a(g104
g6
(g18
S'P\xaa\xb4='
p1860
tp1861
Rp1862
tp1863
a(g294
g6
(g18
S'\xc8p\x1e='
p1864
tp1865
Rp1866
tp1867
a(g68
g6
(g18
S'\x17\xc8\x19='
p1868
tp1869
Rp1870
tp1871
asg73
g32
sa(dp1872
g2
S'../../../data/emanuela/activity-recognition/images/NTCIR-Lifelog-256/u2/2015-05-03/b00004475_21i7lf_20150503_223233e.jpg'
p1873
sg4
(lp1874
(g32
g6
(g18
S'\xf8\x0c\xe7>'
p1875
tp1876
Rp1877
tp1878
a(g56
g6
(g18
S'\x87Sm>'
p1879
tp1880
Rp1881
tp1882
a(g68
g6
(g18
S'p_C>'
p1883
tp1884
Rp1885
tp1886
a(g155
g6
(g18
S'\xa1\xee\x90='
p1887
tp1888
Rp1889
tp1890
a(g92
g6
(g18
S'\xdfF]<'
p1891
tp1892
Rp1893
tp1894
asg73
g32
sa(dp1895
g2
S'../../../data/emanuela/activity-recognition/images/NTCIR-Lifelog-256/u2/2015-05-06/b00007238_21i7lf_20150506_192218e.jpg'
p1896
sg4
(lp1897
(g68
g6
(g18
S'\xe6\x8a\xc8>'
p1898
tp1899
Rp1900
tp1901
a(g32
g6
(g18
S'\xcea\xad>'
p1902
tp1903
Rp1904
tp1905
a(g56
g6
(g18
S'T\x88{='
p1906
tp1907
Rp1908
tp1909
a(g367
g6
(g18
S'<\xc1f='
p1910
tp1911
Rp1912
tp1913
a(g155
g6
(g18
S'\xed\xaf\xf8<'
p1914
tp1915
Rp1916
tp1917
asg73
g32
sa(dp1918
g2
S'../../../data/emanuela/activity-recognition/images/NTCIR-Lifelog-256/u2/2015-05-06/b00007255_21i7lf_20150506_193234e.jpg'
p1919
sg4
(lp1920
(g56
g6
(g18
S'\xbeC\xde>'
p1921
tp1922
Rp1923
tp1924
a(g209
g6
(g18
S'\xd5\xd9\x80>'
p1925
tp1926
Rp1927
tp1928
a(g155
g6
(g18
S'\xe3\xf8\x00>'
p1929
tp1930
Rp1931
tp1932
a(g143
g6
(g18
S'`\xde\x9e='
p1933
tp1934
Rp1935
tp1936
a(g294
g6
(g18
S'j\x88\x05='
p1937
tp1938
Rp1939
tp1940
asg73
g32
sa(dp1941
g2
S'../../../data/emanuela/activity-recognition/images/NTCIR-Lifelog-256/u2/2015-05-06/b00007230_21i7lf_20150506_191612e.jpg'
p1942
sg4
(lp1943
(g32
g6
(g18
S'iP\xe9>'
p1944
tp1945
Rp1946
tp1947
a(g68
g6
(g18
S'<#\x93>'
p1948
tp1949
Rp1950
tp1951
a(g44
g6
(g18
S'\r\x87\x85='
p1952
tp1953
Rp1954
tp1955
a(g1077
g6
(g18
S'\xf9\xd4J='
p1956
tp1957
Rp1958
tp1959
a(g104
g6
(g18
S'\\\x89/='
p1960
tp1961
Rp1962
tp1963
asg73
g32
sa(dp1964
g2
S'../../../data/emanuela/activity-recognition/images/NTCIR-Lifelog-256/u2/2015-04-20/b00000708_21i7lf_20150420_170213e.jpg'
p1965
sg4
(lp1966
(g32
g6
(g18
S'0\x92\xcc>'
p1967
tp1968
Rp1969
tp1970
a(g56
g6
(g18
S'3\x1c\x84>'
p1971
tp1972
Rp1973
tp1974
a(g68
g6
(g18
S'6\x86A>'
p1975
tp1976
Rp1977
tp1978
a(g155
g6
(g18
S'\x15\x1f\xc1='
p1979
tp1980
Rp1981
tp1982
a(g209
g6
(g18
S'R:\xa5<'
p1983
tp1984
Rp1985
tp1986
asg73
g32
sa(dp1987
g2
S'../../../data/emanuela/activity-recognition/images/NTCIR-Lifelog-256/u2/2015-04-20/b00000716_21i7lf_20150420_170658e.jpg'
p1988
sg4
(lp1989
(g32
g6
(g18
S'6\x80!?'
p1990
tp1991
Rp1992
tp1993
a(g68
g6
(g18
S'p\xbda>'
p1994
tp1995
Rp1996
tp1997
a(g56
g6
(g18
S'\xe8\xf2\xb2='
p1998
tp1999
Rp2000
tp2001
a(g155
g6
(g18
S'\xf9\xc9\x12='
p2002
tp2003
Rp2004
tp2005
a(g92
g6
(g18
S'\x879\xbe;'
p2006
tp2007
Rp2008
tp2009
asg73
g32
sa(dp2010
g2
S'../../../data/emanuela/activity-recognition/images/NTCIR-Lifelog-256/u2/2015-05-06/b00007217_21i7lf_20150506_190649e.jpg'
p2011
sg4
(lp2012
(g155
g6
(g18
S"\xab\xe9'?"
p2013
tp2014
Rp2015
tp2016
a(g56
g6
(g18
S'\x11\xd5\x8a>'
p2017
tp2018
Rp2019
tp2020
a(g92
g6
(g18
S'&u\x00='
p2021
tp2022
Rp2023
tp2024
a(g367
g6
(g18
S'wI\xed<'
p2025
tp2026
Rp2027
tp2028
a(g209
g6
(g18
S'7\xc4\xd4;'
p2029
tp2030
Rp2031
tp2032
asg73
g32
sa(dp2033
g2
S'../../../data/emanuela/activity-recognition/images/NTCIR-Lifelog-256/u2/2015-05-01/b00001706_21i7lf_20150501_082032e.jpg'
p2034
sg4
(lp2035
(g32
g6
(g18
S'\x85\xe25?'
p2036
tp2037
Rp2038
tp2039
a(g68
g6
(g18
S'sb\x8e>'
p2040
tp2041
Rp2042
tp2043
a(g56
g6
(g18
S'g\xa5\x08;'
p2044
tp2045
Rp2046
tp2047
a(g104
g6
(g18
S'\x0e\xc8\xca:'
p2048
tp2049
Rp2050
tp2051
a(g15
g6
(g18
S'\xf5\xb4\xc2:'
p2052
tp2053
Rp2054
tp2055
asg73
g32
sa(dp2056
g2
S'../../../data/emanuela/activity-recognition/images/NTCIR-Lifelog-256/u2/2015-05-03/b00004462_21i7lf_20150503_222347e.jpg'
p2057
sg4
(lp2058
(g32
g6
(g18
S'~\xd0\xc9>'
p2059
tp2060
Rp2061
tp2062
a(g68
g6
(g18
S'\tDL>'
p2063
tp2064
Rp2065
tp2066
a(g155
g6
(g18
S'\x9f\xc3,>'
p2067
tp2068
Rp2069
tp2070
a(g209
g6
(g18
S'\xf9[\xbb='
p2071
tp2072
Rp2073
tp2074
a(g56
g6
(g18
S'\x00\x93\x94='
p2075
tp2076
Rp2077
tp2078
asg73
g32
sa(dp2079
g2
S'../../../data/emanuela/activity-recognition/images/NTCIR-Lifelog-256/u2/2015-05-06/b00007221_21i7lf_20150506_190918e.jpg'
p2080
sg4
(lp2081
(g32
g6
(g18
S'\xbb\xdb\xba>'
p2082
tp2083
Rp2084
tp2085
a(g68
g6
(g18
S'\xc2S\xa7>'
p2086
tp2087
Rp2088
tp2089
a(g56
g6
(g18
S'i\xed;>'
p2090
tp2091
Rp2092
tp2093
a(g155
g6
(g18
S'F\xf1\x8d='
p2094
tp2095
Rp2096
tp2097
a(g92
g6
(g18
S'\xa9\xb6\x8c<'
p2098
tp2099
Rp2100
tp2101
asg73
g32
sa(dp2102
g2
S'../../../data/emanuela/activity-recognition/images/NTCIR-Lifelog-256/u2/2015-05-05/b00005971_21i7lf_20150505_184347e.jpg'
p2103
sg4
(lp2104
(g32
g6
(g18
S'\xb9\xcc\x03?'
p2105
tp2106
Rp2107
tp2108
a(g56
g6
(g18
S'\xaf\xaf\x8a>'
p2109
tp2110
Rp2111
tp2112
a(g68
g6
(g18
S'"\x94\x06>'
p2113
tp2114
Rp2115
tp2116
a(g44
g6
(g18
S'\xc5\xfc\x0c='
p2117
tp2118
Rp2119
tp2120
a(g155
g6
(g18
S'~*\xbb<'
p2121
tp2122
Rp2123
tp2124
asg73
g32
sa(dp2125
g2
S'../../../data/emanuela/activity-recognition/images/NTCIR-Lifelog-256/u2/2015-05-06/b00006234_21i7lf_20150506_071416e.jpg'
p2126
sg4
(lp2127
(g32
g6
(g18
S'}j\xd3>'
p2128
tp2129
Rp2130
tp2131
a(g68
g6
(g18
S'\x1d\xf7\x91>'
p2132
tp2133
Rp2134
tp2135
a(g56
g6
(g18
S'\xc2\x1b\x86='
p2136
tp2137
Rp2138
tp2139
a(g1077
g6
(g18
S'@\x1fO='
p2140
tp2141
Rp2142
tp2143
a(g92
g6
(g18
S'\xc5\xd8-='
p2144
tp2145
Rp2146
tp2147
asg73
g32
sa(dp2148
g2
S'../../../data/emanuela/activity-recognition/images/NTCIR-Lifelog-256/u2/2015-04-22/b00000605_21i7lf_20150422_185902e.jpg'
p2149
sg4
(lp2150
(g32
g6
(g18
S'\xf0#\x06?'
p2151
tp2152
Rp2153
tp2154
a(g68
g6
(g18
S'\x81\xedd>'
p2155
tp2156
Rp2157
tp2158
a(g104
g6
(g18
S'\xf7\\\x1e>'
p2159
tp2160
Rp2161
tp2162
a(g209
g6
(g18
S'\xe5\xbb\xb6<'
p2163
tp2164
Rp2165
tp2166
a(g92
g6
(g18
S'/\x15\x95<'
p2167
tp2168
Rp2169
tp2170
asg73
g32
sa(dp2171
g2
S'../../../data/emanuela/activity-recognition/images/NTCIR-Lifelog-256/u2/2015-04-26/b00003867_21i7lf_20150426_115905e.jpg'
p2172
sg4
(lp2173
(g32
g6
(g18
S'\xf9\xd5I?'
p2174
tp2175
Rp2176
tp2177
a(g68
g6
(g18
S'_\xdf\t>'
p2178
tp2179
Rp2180
tp2181
a(g56
g6
(g18
S'\xd3\x1e]='
p2182
tp2183
Rp2184
tp2185
a(g155
g6
(g18
S'\xa3*\x0e<'
p2186
tp2187
Rp2188
tp2189
a(g44
g6
(g18
S'E_\x9d;'
p2190
tp2191
Rp2192
tp2193
asg73
g32
sa(dp2194
g2
S'../../../data/emanuela/activity-recognition/images/NTCIR-Lifelog-256/u2/2015-04-30/b00001556_21i7lf_20150430_190644e.jpg'
p2195
sg4
(lp2196
(g32
g6
(g18
S'\x9b\xd4K?'
p2197
tp2198
Rp2199
tp2200
a(g68
g6
(g18
S'\xbcW&>'
p2201
tp2202
Rp2203
tp2204
a(g56
g6
(g18
S':\xae\x83<'
p2205
tp2206
Rp2207
tp2208
a(g155
g6
(g18
S'X\x9e\x18<'
p2209
tp2210
Rp2211
tp2212
a(g209
g6
(g18
S'\xf5\xa7\x11<'
p2213
tp2214
Rp2215
tp2216
asg73
g32
sa(dp2217
g2
S'../../../data/emanuela/activity-recognition/images/NTCIR-Lifelog-256/u2/2015-04-25/b00003269_21i7lf_20150425_154438e.jpg'
p2218
sg4
(lp2219
(g155
g6
(g18
S'\xe3\xba\r?'
p2220
tp2221
Rp2222
tp2223
a(g56
g6
(g18
S'\xdf\xda\x88>'
p2224
tp2225
Rp2226
tp2227
a(g209
g6
(g18
S'\xd3k\x91='
p2228
tp2229
Rp2230
tp2231
a(g68
g6
(g18
S'\xbd\xcfa='
p2232
tp2233
Rp2234
tp2235
a(g32
g6
(g18
S'\x03)\xa3<'
p2236
tp2237
Rp2238
tp2239
asg73
g32
sa(dp2240
g2
S'../../../data/emanuela/activity-recognition/images/NTCIR-Lifelog-256/u2/2015-04-23/b00000787_21i7lf_20150423_084725e.jpg'
p2241
sg4
(lp2242
(g15
g6
(g18
S'\xdd\xaal?'
p2243
tp2244
Rp2245
tp2246
a(g68
g6
(g18
S'\xeb\xaax<'
p2247
tp2248
Rp2249
tp2250
a(g44
g6
(g18
S'Bur<'
p2251
tp2252
Rp2253
tp2254
a(g32
g6
(g18
S'/OF<'
p2255
tp2256
Rp2257
tp2258
a(g56
g6
(g18
S'\xb5\xba\x1d<'
p2259
tp2260
Rp2261
tp2262
asg73
g32
sa(dp2263
g2
S'../../../data/emanuela/activity-recognition/images/NTCIR-Lifelog-256/u2/2015-05-04/b00004847_21i7lf_20150504_142118e.jpg'
p2264
sg4
(lp2265
(g32
g6
(g18
S'W\x9a\xe6>'
p2266
tp2267
Rp2268
tp2269
a(g68
g6
(g18
S'4\xec\xcb>'
p2270
tp2271
Rp2272
tp2273
a(g56
g6
(g18
S'\x97NX='
p2274
tp2275
Rp2276
tp2277
a(g44
g6
(g18
S'c!\x01='
p2278
tp2279
Rp2280
tp2281
a(g594
g6
(g18
S'r[\xac<'
p2282
tp2283
Rp2284
tp2285
asg73
g32
sa(dp2286
g2
S'../../../data/emanuela/activity-recognition/images/NTCIR-Lifelog-256/u2/2015-04-25/b00003148_21i7lf_20150425_130049e.jpg'
p2287
sg4
(lp2288
(g92
g6
(g18
S'\x02\xfb2?'
p2289
tp2290
Rp2291
tp2292
a(g155
g6
(g18
S'\xb1\xae\xc8='
p2293
tp2294
Rp2295
tp2296
a(g367
g6
(g18
S'\xeeu\x83='
p2297
tp2298
Rp2299
tp2300
a(g56
g6
(g18
S':\x8dC='
p2301
tp2302
Rp2303
tp2304
a(g32
g6
(g18
S'\xc6\xcc/='
p2305
tp2306
Rp2307
tp2308
asg73
g32
sa(dp2309
g2
S'../../../data/emanuela/activity-recognition/images/NTCIR-Lifelog-256/u2/2015-05-03/b00004060_21i7lf_20150503_173846e.jpg'
p2310
sg4
(lp2311
(g32
g6
(g18
S'\x02;\xfc>'
p2312
tp2313
Rp2314
tp2315
a(g104
g6
(g18
S'\xd2\xbd\x85>'
p2316
tp2317
Rp2318
tp2319
a(g68
g6
(g18
S'\xc1"\xc5='
p2320
tp2321
Rp2322
tp2323
a(g92
g6
(g18
S'\x8d_\xc4='
p2324
tp2325
Rp2326
tp2327
a(g1077
g6
(g18
S'\xcd\x9a\x94<'
p2328
tp2329
Rp2330
tp2331
asg73
g32
sa(dp2332
g2
S'../../../data/emanuela/activity-recognition/images/NTCIR-Lifelog-256/u2/2015-05-03/b00004062_21i7lf_20150503_174037e.jpg'
p2333
sg4
(lp2334
(g32
g6
(g18
S'\x00\xd0\t?'
p2335
tp2336
Rp2337
tp2338
a(g68
g6
(g18
S'3?\xcf>'
p2339
tp2340
Rp2341
tp2342
a(g209
g6
(g18
S'tfX<'
p2343
tp2344
Rp2345
tp2346
a(g294
g6
(g18
S'\x14\xe6V<'
p2347
tp2348
Rp2349
tp2350
a(g143
g6
(g18
S'\xc4\x07\x04<'
p2351
tp2352
Rp2353
tp2354
asg73
g32
sa(dp2355
g2
S'../../../data/emanuela/activity-recognition/images/NTCIR-Lifelog-256/u2/2015-05-06/b00007235_21i7lf_20150506_192009e.jpg'
p2356
sg4
(lp2357
(g32
g6
(g18
S'\x84K\x08?'
p2358
tp2359
Rp2360
tp2361
a(g56
g6
(g18
S'\x83h\x8a>'
p2362
tp2363
Rp2364
tp2365
a(g155
g6
(g18
S'\xa1\x88\xbe='
p2366
tp2367
Rp2368
tp2369
a(g68
g6
(g18
S'`g\x94='
p2370
tp2371
Rp2372
tp2373
a(g92
g6
(g18
S'=\x13K<'
p2374
tp2375
Rp2376
tp2377
asg73
g32
sa(dp2378
g2
S'../../../data/emanuela/activity-recognition/images/NTCIR-Lifelog-256/u2/2015-05-02/b00003262_21i7lf_20150502_142923e.jpg'
p2379
sg4
(lp2380
(g56
g6
(g18
S'\x02$s?'
p2381
tp2382
Rp2383
tp2384
a(g155
g6
(g18
S',\x83\x05='
p2385
tp2386
Rp2387
tp2388
a(g68
g6
(g18
S'\xef\x8d\xf8;'
p2389
tp2390
Rp2391
tp2392
a(g32
g6
(g18
S'D\x1aT;'
p2393
tp2394
Rp2395
tp2396
a(g367
g6
(g18
S'?M!;'
p2397
tp2398
Rp2399
tp2400
asg73
g32
sa(dp2401
g2
S'../../../data/emanuela/activity-recognition/images/NTCIR-Lifelog-256/u2/2015-05-08/b00009627_21i7lf_20150508_194707e.jpg'
p2402
sg4
(lp2403
(g32
g6
(g18
S'\xb9\xb8X?'
p2404
tp2405
Rp2406
tp2407
a(g68
g6
(g18
S'%\xf6\x19>'
p2408
tp2409
Rp2410
tp2411
a(g56
g6
(g18
S'O#\xcb:'
p2412
tp2413
Rp2414
tp2415
a(g155
g6
(g18
S'\x81w\n:'
p2416
tp2417
Rp2418
tp2419
a(g15
g6
(g18
S'\xf6\x1e\x969'
p2420
tp2421
Rp2422
tp2423
asg73
g32
sa(dp2424
g2
S'../../../data/emanuela/activity-recognition/images/NTCIR-Lifelog-256/u2/2015-04-28/b00006271_21i7lf_20150428_083751e.jpg'
p2425
sg4
(lp2426
(g32
g6
(g18
S'\xa8\x1fk?'
p2427
tp2428
Rp2429
tp2430
a(g68
g6
(g18
S'<u\xa0='
p2431
tp2432
Rp2433
tp2434
a(g56
g6
(g18
S'\xb8K&;'
p2435
tp2436
Rp2437
tp2438
a(g143
g6
(g18
S'\xe5\x08^9'
p2439
tp2440
Rp2441
tp2442
a(g155
g6
(g18
S'W\xd8G9'
p2443
tp2444
Rp2445
tp2446
asg73
g32
sa(dp2447
g2
S'../../../data/emanuela/activity-recognition/images/NTCIR-Lifelog-256/u2/2015-04-22/b00000945_21i7lf_20150422_080539e.jpg'
p2448
sg4
(lp2449
(g32
g6
(g18
S'\xf2\xc5`?'
p2450
tp2451
Rp2452
tp2453
a(g68
g6
(g18
S'\xe1+\x9e='
p2454
tp2455
Rp2456
tp2457
a(g56
g6
(g18
S'7Q\xa7<'
p2458
tp2459
Rp2460
tp2461
a(g155
g6
(g18
S'\xc8\xc82<'
p2462
tp2463
Rp2464
tp2465
a(g209
g6
(g18
S'\xbc\x1a\xc2;'
p2466
tp2467
Rp2468
tp2469
asg73
g32
sa(dp2470
g2
S'../../../data/emanuela/activity-recognition/images/NTCIR-Lifelog-256/u2/2015-04-27/b00004903_21i7lf_20150427_082755e.jpg'
p2471
sg4
(lp2472
(g56
g6
(g18
S'\xa3\xd3\x0c?'
p2473
tp2474
Rp2475
tp2476
a(g32
g6
(g18
S'\xb6@.>'
p2477
tp2478
Rp2479
tp2480
a(g68
g6
(g18
S"5\x89'>"
p2481
tp2482
Rp2483
tp2484
a(g155
g6
(g18
S'\x07\xe0\x86='
p2485
tp2486
Rp2487
tp2488
a(g92
g6
(g18
S'\xf6\xe4d<'
p2489
tp2490
Rp2491
tp2492
asg73
g32
sa(dp2493
g2
S'../../../data/emanuela/activity-recognition/images/NTCIR-Lifelog-256/u2/2015-05-03/b00004474_21i7lf_20150503_223146e.jpg'
p2494
sg4
(lp2495
(g32
g6
(g18
S"\xfc\x0e'?"
p2496
tp2497
Rp2498
tp2499
a(g68
g6
(g18
S'@N9>'
p2500
tp2501
Rp2502
tp2503
a(g92
g6
(g18
S'\x8a\xe0\x08>'
p2504
tp2505
Rp2506
tp2507
a(g104
g6
(g18
S'|Y_<'
p2508
tp2509
Rp2510
tp2511
a(g155
g6
(g18
S'\xaf\xe3u;'
p2512
tp2513
Rp2514
tp2515
asg73
g32
sa(dp2516
g2
S'../../../data/emanuela/activity-recognition/images/NTCIR-Lifelog-256/u2/2015-04-30/b00001540_21i7lf_20150430_185624e.jpg'
p2517
sg4
(lp2518
(g32
g6
(g18
S'\x9f\xe1\n?'
p2519
tp2520
Rp2521
tp2522
a(g68
g6
(g18
S'^\xd2\xcc>'
p2523
tp2524
Rp2525
tp2526
a(g56
g6
(g18
S'\xfc\xdc\xfb<'
p2527
tp2528
Rp2529
tp2530
a(g155
g6
(g18
S'\xde\xc0\x81<'
p2531
tp2532
Rp2533
tp2534
a(g92
g6
(g18
S' \xec\x12;'
p2535
tp2536
Rp2537
tp2538
asg73
g32
sa(dp2539
g2
S'../../../data/emanuela/activity-recognition/images/NTCIR-Lifelog-256/u2/2015-04-22/b00000591_21i7lf_20150422_184938e.jpg'
p2540
sg4
(lp2541
(g32
g6
(g18
S'\xc0\x99;?'
p2542
tp2543
Rp2544
tp2545
a(g68
g6
(g18
S'\x12=\x82>'
p2546
tp2547
Rp2548
tp2549
a(g104
g6
(g18
S'\xfd\xa8\x8a;'
p2550
tp2551
Rp2552
tp2553
a(g56
g6
(g18
S'\xed\x05v;'
p2554
tp2555
Rp2556
tp2557
a(g143
g6
(g18
S's\xa0\x83:'
p2558
tp2559
Rp2560
tp2561
asg73
g32
sa(dp2562
g2
S'../../../data/emanuela/activity-recognition/images/NTCIR-Lifelog-256/u2/2015-05-06/b00007226_21i7lf_20150506_191339e.jpg'
p2563
sg4
(lp2564
(g32
g6
(g18
S'E=\xbe>'
p2565
tp2566
Rp2567
tp2568
a(g56
g6
(g18
S'\r8g>'
p2569
tp2570
Rp2571
tp2572
a(g155
g6
(g18
S'\x9di=>'
p2573
tp2574
Rp2575
tp2576
a(g68
g6
(g18
S'\xf7\xab\xa0='
p2577
tp2578
Rp2579
tp2580
a(g92
g6
(g18
S'\x96\x84\x98='
p2581
tp2582
Rp2583
tp2584
asg73
g32
sa(dp2585
g2
S'../../../data/emanuela/activity-recognition/images/NTCIR-Lifelog-256/u2/2015-04-23/b00001657_21i7lf_20150423_200210e.jpg'
p2586
sg4
(lp2587
(g32
g6
(g18
S'!\x07!?'
p2588
tp2589
Rp2590
tp2591
a(g68
g6
(g18
S'\x87k\xbc>'
p2592
tp2593
Rp2594
tp2595
a(g104
g6
(g18
S'S\xa5\xa4:'
p2596
tp2597
Rp2598
tp2599
a(g56
g6
(g18
S'\xeb+\x1a:'
p2600
tp2601
Rp2602
tp2603
a(g155
g6
(g18
S'\x8bP\xa89'
p2604
tp2605
Rp2606
tp2607
asg73
g32
sa(dp2608
g2
S'../../../data/emanuela/activity-recognition/images/NTCIR-Lifelog-256/u2/2015-05-06/b00007225_21i7lf_20150506_191251e.jpg'
p2609
sg4
(lp2610
(g68
g6
(g18
S'\xd9?\xfc>'
p2611
tp2612
Rp2613
tp2614
a(g32
g6
(g18
S'\xd7\x86\xd7>'
p2615
tp2616
Rp2617
tp2618
a(g56
g6
(g18
S' z\x18='
p2619
tp2620
Rp2621
tp2622
a(g44
g6
(g18
S'<\xf3W<'
p2623
tp2624
Rp2625
tp2626
a(g92
g6
(g18
S' \xe2\xa9;'
p2627
tp2628
Rp2629
tp2630
asg73
g32
sa(dp2631
g2
S'../../../data/emanuela/activity-recognition/images/NTCIR-Lifelog-256/u2/2015-04-27/b00004904_21i7lf_20150427_082830e.jpg'
p2632
sg4
(lp2633
(g32
g6
(g18
S'W\x97\xf8>'
p2634
tp2635
Rp2636
tp2637
a(g68
g6
(g18
S')\x0e\xde>'
p2638
tp2639
Rp2640
tp2641
a(g56
g6
(g18
S'\xfe\xb4U='
p2642
tp2643
Rp2644
tp2645
a(g155
g6
(g18
S's\xdb_<'
p2646
tp2647
Rp2648
tp2649
a(g92
g6
(g18
S'\xd3\x8c\xbd;'
p2650
tp2651
Rp2652
tp2653
asg73
g32
sa(dp2654
g2
S'../../../data/emanuela/activity-recognition/images/NTCIR-Lifelog-256/u2/2015-04-23/b00000782_21i7lf_20150423_084431e.jpg'
p2655
sg4
(lp2656
(g367
g6
(g18
S'Nw\x1d?'
p2657
tp2658
Rp2659
tp2660
a(g209
g6
(g18
S'\xd0\xe9X>'
p2661
tp2662
Rp2663
tp2664
a(g92
g6
(g18
S'\x9d>\xd9='
p2665
tp2666
Rp2667
tp2668
a(g56
g6
(g18
S'\xb0\xa4\xa7<'
p2669
tp2670
Rp2671
tp2672
a(g155
g6
(g18
S'\x929\x9d<'
p2673
tp2674
Rp2675
tp2676
asg73
g32
sa(dp2677
g2
S'../../../data/emanuela/activity-recognition/images/NTCIR-Lifelog-256/u2/2015-05-03/b00004066_21i7lf_20150503_174332e.jpg'
p2678
sg4
(lp2679
(g56
g6
(g18
S'\xdf\x7f\x17?'
p2680
tp2681
Rp2682
tp2683
a(g155
g6
(g18
S'\xfdn?>'
p2684
tp2685
Rp2686
tp2687
a(g44
g6
(g18
S'N\xf4k='
p2688
tp2689
Rp2690
tp2691
a(g92
g6
(g18
S'\xbc[U='
p2692
tp2693
Rp2694
tp2695
a(g32
g6
(g18
S'\x93\x94\xf1<'
p2696
tp2697
Rp2698
tp2699
asg73
g32
sa(dp2700
g2
S'../../../data/emanuela/activity-recognition/images/NTCIR-Lifelog-256/u2/2015-04-20/b00000709_21i7lf_20150420_170246e.jpg'
p2701
sg4
(lp2702
(g155
g6
(g18
S'\x8d\x88\xf7>'
p2703
tp2704
Rp2705
tp2706
a(g56
g6
(g18
S'\xe4\x14\x80>'
p2707
tp2708
Rp2709
tp2710
a(g209
g6
(g18
S'\xf6\xbc\xc7='
p2711
tp2712
Rp2713
tp2714
a(g32
g6
(g18
S'^\xe8\x81='
p2715
tp2716
Rp2717
tp2718
a(g92
g6
(g18
S'\x08K\x15='
p2719
tp2720
Rp2721
tp2722
asg73
g32
sa(dp2723
g2
S'../../../data/emanuela/activity-recognition/images/NTCIR-Lifelog-256/u2/2015-04-26/b00004418_21i7lf_20150426_183718e.jpg'
p2724
sg4
(lp2725
(g32
g6
(g18
S'hZ\x17?'
p2726
tp2727
Rp2728
tp2729
a(g68
g6
(g18
S' &\x99>'
p2730
tp2731
Rp2732
tp2733
a(g56
g6
(g18
S'XS\\='
p2734
tp2735
Rp2736
tp2737
a(g92
g6
(g18
S'\xbd\xd0\x9c<'
p2738
tp2739
Rp2740
tp2741
a(g155
g6
(g18
S'u\xf4"<'
p2742
tp2743
Rp2744
tp2745
asg73
g32
sa(dp2746
g2
S'../../../data/emanuela/activity-recognition/images/NTCIR-Lifelog-256/u2/2015-04-28/b00006274_21i7lf_20150428_083938e.jpg'
p2747
sg4
(lp2748
(g32
g6
(g18
S'd\xd2\x07?'
p2749
tp2750
Rp2751
tp2752
a(g56
g6
(g18
S'\xa2\x95\xbc>'
p2753
tp2754
Rp2755
tp2756
a(g68
g6
(g18
S'\xe9v\xa7='
p2757
tp2758
Rp2759
tp2760
a(g155
g6
(g18
S'\x1b\xee\x04<'
p2761
tp2762
Rp2763
tp2764
a(g44
g6
(g18
S'\xf1Zr;'
p2765
tp2766
Rp2767
tp2768
asg73
g32
sa(dp2769
g2
S'../../../data/emanuela/activity-recognition/images/NTCIR-Lifelog-256/u2/2015-04-27/b00004905_21i7lf_20150427_082909e.jpg'
p2770
sg4
(lp2771
(g32
g6
(g18
S'\xf3\x07\x19?'
p2772
tp2773
Rp2774
tp2775
a(g68
g6
(g18
S'\x9d\xdfy>'
p2776
tp2777
Rp2778
tp2779
a(g56
g6
(g18
S'{#\x00>'
p2780
tp2781
Rp2782
tp2783
a(g155
g6
(g18
S'\xa3\xd1\x07<'
p2784
tp2785
Rp2786
tp2787
a(g44
g6
(g18
S'\xa8\xc6\xda;'
p2788
tp2789
Rp2790
tp2791
asg73
g32
sa(dp2792
g2
S'../../../data/emanuela/activity-recognition/images/NTCIR-Lifelog-256/u2/2015-04-27/b00005898_21i7lf_20150427_184104e.jpg'
p2793
sg4
(lp2794
(g32
g6
(g18
S'\xbe?\xf1>'
p2795
tp2796
Rp2797
tp2798
a(g56
g6
(g18
S'\xe7B\x96>'
p2799
tp2800
Rp2801
tp2802
a(g155
g6
(g18
S'3k\xe7='
p2803
tp2804
Rp2805
tp2806
a(g68
g6
(g18
S'\xa1=\x9d='
p2807
tp2808
Rp2809
tp2810
a(g92
g6
(g18
S'\xa5\xf0\xd7<'
p2811
tp2812
Rp2813
tp2814
asg73
g32
sa(dp2815
g2
S'../../../data/emanuela/activity-recognition/images/NTCIR-Lifelog-256/u2/2015-04-25/b00003156_21i7lf_20150425_130609e.jpg'
p2816
sg4
(lp2817
(g92
g6
(g18
S'\x0c\x96\xe4>'
p2818
tp2819
Rp2820
tp2821
a(g209
g6
(g18
S'z\xac\xd7='
p2822
tp2823
Rp2824
tp2825
a(g104
g6
(g18
S'\x03\xc8\xcd='
p2826
tp2827
Rp2828
tp2829
a(g367
g6
(g18
S'\x19\xca\x97='
p2830
tp2831
Rp2832
tp2833
a(g68
g6
(g18
S'\xa3\xf4\x16='
p2834
tp2835
Rp2836
tp2837
asg73
g32
sa(dp2838
g2
S'../../../data/emanuela/activity-recognition/images/NTCIR-Lifelog-256/u2/2015-04-25/b00003151_21i7lf_20150425_130230e.jpg'
p2839
sg4
(lp2840
(g32
g6
(g18
S'~\xc5X?'
p2841
tp2842
Rp2843
tp2844
a(g68
g6
(g18
S'M\x90\xfe='
p2845
tp2846
Rp2847
tp2848
a(g104
g6
(g18
S'\xd4\xaa\x9f;'
p2849
tp2850
Rp2851
tp2852
a(g92
g6
(g18
S'l\x90\x96;'
p2853
tp2854
Rp2855
tp2856
a(g367
g6
(g18
S'\xb2\xfc\x80;'
p2857
tp2858
Rp2859
tp2860
asg73
g32
sa(dp2861
g2
S'../../../data/emanuela/activity-recognition/images/NTCIR-Lifelog-256/u2/2015-04-20/b00001045_21i7lf_20150420_202106e.jpg'
p2862
sg4
(lp2863
(g56
g6
(g18
S'3\x02\xe7>'
p2864
tp2865
Rp2866
tp2867
a(g68
g6
(g18
S'\xea\xa4\x8c>'
p2868
tp2869
Rp2870
tp2871
a(g32
g6
(g18
S'\xb2?2>'
p2872
tp2873
Rp2874
tp2875
a(g155
g6
(g18
S'\xc2dm='
p2876
tp2877
Rp2878
tp2879
a(g15
g6
(g18
S'\xa58\t<'
p2880
tp2881
Rp2882
tp2883
asg73
g32
sa(dp2884
g2
S'../../../data/emanuela/activity-recognition/images/NTCIR-Lifelog-256/u2/2015-05-05/b00005950_21i7lf_20150505_183013e.jpg'
p2885
sg4
(lp2886
(g32
g6
(g18
S'n$]?'
p2887
tp2888
Rp2889
tp2890
a(g68
g6
(g18
S'\x9ax\xa0='
p2891
tp2892
Rp2893
tp2894
a(g92
g6
(g18
S'\xca\x9co<'
p2895
tp2896
Rp2897
tp2898
a(g44
g6
(g18
S'q[7<'
p2899
tp2900
Rp2901
tp2902
a(g104
g6
(g18
S'H\xc3\x1a<'
p2903
tp2904
Rp2905
tp2906
asg73
g32
sa(dp2907
g2
S'../../../data/emanuela/activity-recognition/images/NTCIR-Lifelog-256/u2/2015-04-25/b00003152_21i7lf_20150425_130310e.jpg'
p2908
sg4
(lp2909
(g56
g6
(g18
S'y\x9a1?'
p2910
tp2911
Rp2912
tp2913
a(g155
g6
(g18
S'\xb9\xed_>'
p2914
tp2915
Rp2916
tp2917
a(g32
g6
(g18
S']\xd0\x8b='
p2918
tp2919
Rp2920
tp2921
a(g68
g6
(g18
S'\x10\x04X<'
p2922
tp2923
Rp2924
tp2925
a(g92
g6
(g18
S'\x858\x13;'
p2926
tp2927
Rp2928
tp2929
asg73
g32
sa(dp2930
g2
S'../../../data/emanuela/activity-recognition/images/NTCIR-Lifelog-256/u2/2015-04-24/b00001869_21i7lf_20150424_082905e.jpg'
p2931
sg4
(lp2932
(g32
g6
(g18
S'\x80\x87Z?'
p2933
tp2934
Rp2935
tp2936
a(g68
g6
(g18
S':\xb0\xb7='
p2937
tp2938
Rp2939
tp2940
a(g56
g6
(g18
S'\x82\xd3;='
p2941
tp2942
Rp2943
tp2944
a(g155
g6
(g18
S'@\xa7\x1a;'
p2945
tp2946
Rp2947
tp2948
a(g104
g6
(g18
S'4K\xbd:'
p2949
tp2950
Rp2951
tp2952
asg73
g32
sa(dp2953
g2
S'../../../data/emanuela/activity-recognition/images/NTCIR-Lifelog-256/u2/2015-04-20/b00000714_21i7lf_20150420_170545e.jpg'
p2954
sg4
(lp2955
(g155
g6
(g18
S'\x91~\x9f>'
p2956
tp2957
Rp2958
tp2959
a(g56
g6
(g18
S'lv\x87>'
p2960
tp2961
Rp2962
tp2963
a(g68
g6
(g18
S'\xffk<>'
p2964
tp2965
Rp2966
tp2967
a(g367
g6
(g18
S'\x90\x13\x04>'
p2968
tp2969
Rp2970
tp2971
a(g209
g6
(g18
S'X-f='
p2972
tp2973
Rp2974
tp2975
asg73
g32
sa(dp2976
g2
S'../../../data/emanuela/activity-recognition/images/NTCIR-Lifelog-256/u2/2015-04-25/b00003314_21i7lf_20150425_161340e.jpg'
p2977
sg4
(lp2978
(g32
g6
(g18
S'\xa6\tH?'
p2979
tp2980
Rp2981
tp2982
a(g209
g6
(g18
S'\xcd\xd6\xaa='
p2983
tp2984
Rp2985
tp2986
a(g68
g6
(g18
S"\x9e's="
p2987
tp2988
Rp2989
tp2990
a(g155
g6
(g18
S'\x00\x97\xb8<'
p2991
tp2992
Rp2993
tp2994
a(g44
g6
(g18
S'\xd9\xd3\x93<'
p2995
tp2996
Rp2997
tp2998
asg73
g32
sa(dp2999
g2
S'../../../data/emanuela/activity-recognition/images/NTCIR-Lifelog-256/u2/2015-04-25/b00003153_21i7lf_20150425_130344e.jpg'
p3000
sg4
(lp3001
(g32
g6
(g18
S'\xb4\x00N?'
p3002
tp3003
Rp3004
tp3005
a(g68
g6
(g18
S'C\x05\x0c>'
p3006
tp3007
Rp3008
tp3009
a(g92
g6
(g18
S'\x95\x1e{<'
p3010
tp3011
Rp3012
tp3013
a(g56
g6
(g18
S'7\x03+<'
p3014
tp3015
Rp3016
tp3017
a(g104
g6
(g18
S'(\x10\xea;'
p3018
tp3019
Rp3020
tp3021
asg73
g32
sa(dp3022
g2
S'../../../data/emanuela/activity-recognition/images/NTCIR-Lifelog-256/u2/2015-04-25/b00003165_21i7lf_20150425_131152e.jpg'
p3023
sg4
(lp3024
(g44
g6
(g18
S'Lf\xaf>'
p3025
tp3026
Rp3027
tp3028
a(g56
g6
(g18
S'\\\xa0j>'
p3029
tp3030
Rp3031
tp3032
a(g143
g6
(g18
S';\x10\x13>'
p3033
tp3034
Rp3035
tp3036
a(g32
g6
(g18
S'R#\xc7='
p3037
tp3038
Rp3039
tp3040
a(g15
g6
(g18
S'\xdc\xff3='
p3041
tp3042
Rp3043
tp3044
asg73
g32
sa(dp3045
g2
S'../../../data/emanuela/activity-recognition/images/NTCIR-Lifelog-256/u2/2015-05-01/b00001717_21i7lf_20150501_082728e.jpg'
p3046
sg4
(lp3047
(g32
g6
(g18
S'\\\xae-?'
p3048
tp3049
Rp3050
tp3051
a(g68
g6
(g18
S'4W\x91>'
p3052
tp3053
Rp3054
tp3055
a(g56
g6
(g18
S'\x8f\xb8\xed<'
p3056
tp3057
Rp3058
tp3059
a(g15
g6
(g18
S'\x86p\xfb:'
p3060
tp3061
Rp3062
tp3063
a(g143
g6
(g18
S'\x0c\xf4\xf2:'
p3064
tp3065
Rp3066
tp3067
asg73
g32
sa(dp3068
g2
S'../../../data/emanuela/activity-recognition/images/NTCIR-Lifelog-256/u2/2015-04-25/b00003159_21i7lf_20150425_130805e.jpg'
p3069
sg4
(lp3070
(g155
g6
(g18
S'RQ\xae>'
p3071
tp3072
Rp3073
tp3074
a(g56
g6
(g18
S'\xcf>Y>'
p3075
tp3076
Rp3077
tp3078
a(g32
g6
(g18
S'\xd5-\x13>'
p3079
tp3080
Rp3081
tp3082
a(g209
g6
(g18
S'6\x9e\x04>'
p3083
tp3084
Rp3085
tp3086
a(g367
g6
(g18
S'6H\xbf='
p3087
tp3088
Rp3089
tp3090
asg73
g32
sa(dp3091
g2
S'../../../data/emanuela/activity-recognition/images/NTCIR-Lifelog-256/u2/2015-05-04/b00004514_21i7lf_20150504_101813e.jpg'
p3092
sg4
(lp3093
(g32
g6
(g18
S'\xca\xd3G?'
p3094
tp3095
Rp3096
tp3097
a(g68
g6
(g18
S'4J5>'
p3098
tp3099
Rp3100
tp3101
a(g56
g6
(g18
S'\x88\xb4\xb8<'
p3102
tp3103
Rp3104
tp3105
a(g155
g6
(g18
S'\x04W\x1f<'
p3106
tp3107
Rp3108
tp3109
a(g15
g6
(g18
S'p\xce\x88;'
p3110
tp3111
Rp3112
tp3113
asg73
g32
sa(dp3114
g2
S'../../../data/emanuela/activity-recognition/images/NTCIR-Lifelog-256/u2/2015-04-25/b00003154_21i7lf_20150425_130453e.jpg'
p3115
sg4
(lp3116
(g32
g6
(g18
S'\x17\x1f\x1a?'
p3117
tp3118
Rp3119
tp3120
a(g68
g6
(g18
S'\x97\xf0\xc6>'
p3121
tp3122
Rp3123
tp3124
a(g56
g6
(g18
S'\x17\xcb\x8e;'
p3125
tp3126
Rp3127
tp3128
a(g155
g6
(g18
S'\n\x19\x94:'
p3129
tp3130
Rp3131
tp3132
a(g15
g6
(g18
S'\x0b~H:'
p3133
tp3134
Rp3135
tp3136
asg73
g32
sa(dp3137
g2
S'../../../data/emanuela/activity-recognition/images/NTCIR-Lifelog-256/u2/2015-05-07/b00008282_21i7lf_20150507_211308e.jpg'
p3138
sg4
(lp3139
(g32
g6
(g18
S'\xa0\x02\x1a?'
p3140
tp3141
Rp3142
tp3143
a(g594
g6
(g18
S'UW_>'
p3144
tp3145
Rp3146
tp3147
a(g104
g6
(g18
S'A\x97q='
p3148
tp3149
Rp3150
tp3151
a(g15
g6
(g18
S'K\x1aX='
p3152
tp3153
Rp3154
tp3155
a(g68
g6
(g18
S'\x19~\x00='
p3156
tp3157
Rp3158
tp3159
asg73
g32
sa(dp3160
g2
S'../../../data/emanuela/activity-recognition/images/NTCIR-Lifelog-256/u2/2015-05-03/b00004473_21i7lf_20150503_223104e.jpg'
p3161
sg4
(lp3162
(g32
g6
(g18
S']\xc0`?'
p3163
tp3164
Rp3165
tp3166
a(g68
g6
(g18
S'\x9a\xee\xbb='
p3167
tp3168
Rp3169
tp3170
a(g56
g6
(g18
S'\x9e\x1c\xe5<'
p3171
tp3172
Rp3173
tp3174
a(g143
g6
(g18
S'\xdap\x93:'
p3175
tp3176
Rp3177
tp3178
a(g155
g6
(g18
S'7\x0b\x0e:'
p3179
tp3180
Rp3181
tp3182
asg73
g32
sa(dp3183
g2
S'../../../data/emanuela/activity-recognition/images/NTCIR-Lifelog-256/u2/2015-05-05/b00005975_21i7lf_20150505_184613e.jpg'
p3184
sg4
(lp3185
(g228
g6
(g18
S'\x04\xe1\x99>'
p3186
tp3187
Rp3188
tp3189
a(g1077
g6
(g18
S'BY\x11>'
p3190
tp3191
Rp3192
tp3193
a(g367
g6
(g18
S'ky\x01>'
p3194
tp3195
Rp3196
tp3197
a(g44
g6
(g18
S'eo\xb8='
p3198
tp3199
Rp3200
tp3201
a(g116
g6
(g18
S'\t\xbdW='
p3202
tp3203
Rp3204
tp3205
asg73
g32
sa(dp3206
g2
S'../../../data/emanuela/activity-recognition/images/NTCIR-Lifelog-256/u2/2015-04-23/b00000794_21i7lf_20150423_085155e.jpg'
p3207
sg4
(lp3208
(g32
g6
(g18
S'_X\xdb>'
p3209
tp3210
Rp3211
tp3212
a(g68
g6
(g18
S'\xd0X\xd5>'
p3213
tp3214
Rp3215
tp3216
a(g143
g6
(g18
S'\xf0\x986='
p3217
tp3218
Rp3219
tp3220
a(g104
g6
(g18
S'\x93\x9b\xfb<'
p3221
tp3222
Rp3223
tp3224
a(g44
g6
(g18
S'\xc2Z\xef<'
p3225
tp3226
Rp3227
tp3228
asg73
g32
sa(dp3229
g2
S'../../../data/emanuela/activity-recognition/images/NTCIR-Lifelog-256/u2/2015-05-04/b00004845_21i7lf_20150504_142009e.jpg'
p3230
sg4
(lp3231
(g32
g6
(g18
S"D'=?"
p3232
tp3233
Rp3234
tp3235
a(g56
g6
(g18
S'$K\xea='
p3236
tp3237
Rp3238
tp3239
a(g68
g6
(g18
S'\x99\x95\xd1='
p3240
tp3241
Rp3242
tp3243
a(g155
g6
(g18
S'\xbf\xb2\xf5<'
p3244
tp3245
Rp3246
tp3247
a(g209
g6
(g18
S'\x9f\xf6\xc2;'
p3248
tp3249
Rp3250
tp3251
asg73
g32
sa(dp3252
g2
S'../../../data/emanuela/activity-recognition/images/NTCIR-Lifelog-256/u2/2015-05-06/b00007236_21i7lf_20150506_192056e.jpg'
p3253
sg4
(lp3254
(g56
g6
(g18
S'67\xa8>'
p3255
tp3256
Rp3257
tp3258
a(g32
g6
(g18
S'\xf6\xf0]>'
p3259
tp3260
Rp3261
tp3262
a(g68
g6
(g18
S'\x1dIV>'
p3263
tp3264
Rp3265
tp3266
a(g155
g6
(g18
S'0"\x99='
p3267
tp3268
Rp3269
tp3270
a(g367
g6
(g18
S'\x1e\x04K='
p3271
tp3272
Rp3273
tp3274
asg73
g32
sa(dp3275
g2
S'../../../data/emanuela/activity-recognition/images/NTCIR-Lifelog-256/u2/2015-04-20/b00000706_21i7lf_20150420_170101e.jpg'
p3276
sg4
(lp3277
(g32
g6
(g18
S'\xa4\xed\xf6>'
p3278
tp3279
Rp3280
tp3281
a(g68
g6
(g18
S'5-\xe4>'
p3282
tp3283
Rp3284
tp3285
a(g155
g6
(g18
S'\xfb!\xa1<'
p3286
tp3287
Rp3288
tp3289
a(g56
g6
(g18
S'R\xc4\x97<'
p3290
tp3291
Rp3292
tp3293
a(g104
g6
(g18
S'c\xea\xd0;'
p3294
tp3295
Rp3296
tp3297
asg73
g32
sa(dp3298
g2
S'../../../data/emanuela/activity-recognition/images/NTCIR-Lifelog-256/u2/2015-05-06/b00006243_21i7lf_20150506_072103e.jpg'
p3299
sg4
(lp3300
(g56
g6
(g18
S')\x9f\xa7>'
p3301
tp3302
Rp3303
tp3304
a(g517
g6
(g18
S'*\xf2\\>'
p3305
tp3306
Rp3307
tp3308
a(g1077
g6
(g18
S'\xd0`\xd4='
p3309
tp3310
Rp3311
tp3312
a(g68
g6
(g18
S'S\xb0\x92='
p3313
tp3314
Rp3315
tp3316
a(g155
g6
(g18
S'\xb8\xcfz='
p3317
tp3318
Rp3319
tp3320
asg73
g32
sa(dp3321
g2
S'../../../data/emanuela/activity-recognition/images/NTCIR-Lifelog-256/u2/2015-05-05/b00005959_21i7lf_20150505_183551e.jpg'
p3322
sg4
(lp3323
(g32
g6
(g18
S'\xf7\xcfG?'
p3324
tp3325
Rp3326
tp3327
a(g68
g6
(g18
S'{\xe5 >'
p3328
tp3329
Rp3330
tp3331
a(g56
g6
(g18
S'A\xe6\x91<'
p3332
tp3333
Rp3334
tp3335
a(g143
g6
(g18
S'\xa8$/<'
p3336
tp3337
Rp3338
tp3339
a(g294
g6
(g18
S'\x90\x0e\x19<'
p3340
tp3341
Rp3342
tp3343
asg73
g32
sa(dp3344
g2
S'../../../data/emanuela/activity-recognition/images/NTCIR-Lifelog-256/u2/2015-04-22/b00000603_21i7lf_20150422_185744e.jpg'
p3345
sg4
(lp3346
(g32
g6
(g18
S'>"\x02?'
p3347
tp3348
Rp3349
tp3350
a(g68
g6
(g18
S'`\x11\xe4='
p3351
tp3352
Rp3353
tp3354
a(g56
g6
(g18
S'\xf0\x8b\xce='
p3355
tp3356
Rp3357
tp3358
a(g209
g6
(g18
S'\xa3W\xc7='
p3359
tp3360
Rp3361
tp3362
a(g104
g6
(g18
S'*6h='
p3363
tp3364
Rp3365
tp3366
asg73
g32
sa(dp3367
g2
S'../../../data/emanuela/activity-recognition/images/NTCIR-Lifelog-256/u2/2015-04-20/b00000589_21i7lf_20150420_154818e.jpg'
p3368
sg4
(lp3369
(g32
g6
(g18
S'\x94\x0bc?'
p3370
tp3371
Rp3372
tp3373
a(g68
g6
(g18
S'9\x13\xe6='
p3374
tp3375
Rp3376
tp3377
a(g92
g6
(g18
S'+Nh9'
p3378
tp3379
Rp3380
tp3381
a(g56
g6
(g18
S'vS\xf58'
p3382
tp3383
Rp3384
tp3385
a(g155
g6
(g18
S'\x90\x18\xd38'
p3386
tp3387
Rp3388
tp3389
asg73
g32
sa(dp3390
g2
S'../../../data/emanuela/activity-recognition/images/NTCIR-Lifelog-256/u2/2015-04-29/b00000272_21i7lf_20150429_194738e.jpg'
p3391
sg4
(lp3392
(g32
g6
(g18
S'\x17x\t?'
p3393
tp3394
Rp3395
tp3396
a(g143
g6
(g18
S'\xd9K\xca='
p3397
tp3398
Rp3399
tp3400
a(g92
g6
(g18
S'x\xec\xc7='
p3401
tp3402
Rp3403
tp3404
a(g56
g6
(g18
S'c[\xab='
p3405
tp3406
Rp3407
tp3408
a(g155
g6
(g18
S'b\x8a\x94='
p3409
tp3410
Rp3411
tp3412
asg73
g32
sa(dp3413
g2
S'../../../data/emanuela/activity-recognition/images/NTCIR-Lifelog-256/u2/2015-04-20/b00000712_21i7lf_20150420_170431e.jpg'
p3414
sg4
(lp3415
(g367
g6
(g18
S'\xb0\x8d\xbc>'
p3416
tp3417
Rp3418
tp3419
a(g209
g6
(g18
S'\xde\xc9\x84>'
p3420
tp3421
Rp3422
tp3423
a(g15
g6
(g18
S'\x1d4\x00>'
p3424
tp3425
Rp3426
tp3427
a(g92
g6
(g18
S'\x86q\xb7='
p3428
tp3429
Rp3430
tp3431
a(g155
g6
(g18
S'\xf0\xe1\xa4='
p3432
tp3433
Rp3434
tp3435
asg73
g32
sa(dp3436
g2
S'../../../data/emanuela/activity-recognition/images/NTCIR-Lifelog-256/u2/2015-05-04/b00004866_21i7lf_20150504_143311e.jpg'
p3437
sg4
(lp3438
(g32
g6
(g18
S'}\x83\x16?'
p3439
tp3440
Rp3441
tp3442
a(g68
g6
(g18
S'\xde\xab\x15>'
p3443
tp3444
Rp3445
tp3446
a(g56
g6
(g18
S'\x04\r\xd1='
p3447
tp3448
Rp3449
tp3450
a(g367
g6
(g18
S'pG\x90='
p3451
tp3452
Rp3453
tp3454
a(g15
g6
(g18
S'\x08\x9f\xac<'
p3455
tp3456
Rp3457
tp3458
asg73
g32
sa(dp3459
g2
S'../../../data/emanuela/activity-recognition/images/NTCIR-Lifelog-256/u2/2015-04-29/b00000269_21i7lf_20150429_194552e.jpg'
p3460
sg4
(lp3461
(g32
g6
(g18
S'\xab\x00\xb4>'
p3462
tp3463
Rp3464
tp3465
a(g68
g6
(g18
S'I\xb4\xa0>'
p3466
tp3467
Rp3468
tp3469
a(g104
g6
(g18
S'\xe2R\x0e>'
p3470
tp3471
Rp3472
tp3473
a(g15
g6
(g18
S'3\x88\xea<'
p3474
tp3475
Rp3476
tp3477
a(g92
g6
(g18
S'\xd3\xfd\xcb<'
p3478
tp3479
Rp3480
tp3481
asg73
g32
sa(dp3482
g2
S'../../../data/emanuela/activity-recognition/images/NTCIR-Lifelog-256/u2/2015-05-05/b00005973_21i7lf_20150505_184453e.jpg'
p3483
sg4
(lp3484
(g32
g6
(g18
S'\xb2;K?'
p3485
tp3486
Rp3487
tp3488
a(g56
g6
(g18
S'h!\x05>'
p3489
tp3490
Rp3491
tp3492
a(g68
g6
(g18
S'\x08\xa8;='
p3493
tp3494
Rp3495
tp3496
a(g155
g6
(g18
S'\x96\xf8~<'
p3497
tp3498
Rp3499
tp3500
a(g92
g6
(g18
S' ;l;'
p3501
tp3502
Rp3503
tp3504
asg73
g32
sa(dp3505
g2
S'../../../data/emanuela/activity-recognition/images/NTCIR-Lifelog-256/u2/2015-05-01/b00001715_21i7lf_20150501_082610e.jpg'
p3506
sg4
(lp3507
(g32
g6
(g18
S'\xa3\x85 ?'
p3508
tp3509
Rp3510
tp3511
a(g68
g6
(g18
S'z\ns>'
p3512
tp3513
Rp3514
tp3515
a(g56
g6
(g18
S'\xab\x1d\xe7='
p3516
tp3517
Rp3518
tp3519
a(g155
g6
(g18
S'\xf6I\x8a<'
p3520
tp3521
Rp3522
tp3523
a(g143
g6
(g18
S'\\\x0c\xff:'
p3524
tp3525
Rp3526
tp3527
asg73
g32
sa(dp3528
g2
S'../../../data/emanuela/activity-recognition/images/NTCIR-Lifelog-256/u2/2015-05-05/b00005970_21i7lf_20150505_184310e.jpg'
p3529
sg4
(lp3530
(g32
g6
(g18
S'\xb0\xdd&?'
p3531
tp3532
Rp3533
tp3534
a(g56
g6
(g18
S'\x192$>'
p3535
tp3536
Rp3537
tp3538
a(g68
g6
(g18
S'\x0f^\x0b>'
p3539
tp3540
Rp3541
tp3542
a(g155
g6
(g18
S'E\x98\xa7<'
p3543
tp3544
Rp3545
tp3546
a(g44
g6
(g18
S'^=\x10<'
p3547
tp3548
Rp3549
tp3550
asg73
g32
sa(dp3551
g2
S'../../../data/emanuela/activity-recognition/images/NTCIR-Lifelog-256/u2/2015-04-22/b00000620_21i7lf_20150422_190819e.jpg'
p3552
sg4
(lp3553
(g32
g6
(g18
S'TJ0?'
p3554
tp3555
Rp3556
tp3557
a(g92
g6
(g18
S'%\x17.>'
p3558
tp3559
Rp3560
tp3561
a(g68
g6
(g18
S'\x88\xfb\xb1='
p3562
tp3563
Rp3564
tp3565
a(g155
g6
(g18
S'l/n<'
p3566
tp3567
Rp3568
tp3569
a(g104
g6
(g18
S'\x91\x87\x01<'
p3570
tp3571
Rp3572
tp3573
asg73
g32
sa(dp3574
g2
S'../../../data/emanuela/activity-recognition/images/NTCIR-Lifelog-256/u2/2015-05-06/b00006233_21i7lf_20150506_071339e.jpg'
p3575
sg4
(lp3576
(g68
g6
(g18
S'\x0f\xd9\xf8>'
p3577
tp3578
Rp3579
tp3580
a(g32
g6
(g18
S'o\xbe\xb3>'
p3581
tp3582
Rp3583
tp3584
a(g56
g6
(g18
S'\xdc(O='
p3585
tp3586
Rp3587
tp3588
a(g104
g6
(g18
S'\xb8Y\xd8<'
p3589
tp3590
Rp3591
tp3592
a(g155
g6
(g18
S'\xde\xbd\x8f<'
p3593
tp3594
Rp3595
tp3596
asg73
g32
sa(dp3597
g2
S'../../../data/emanuela/activity-recognition/images/NTCIR-Lifelog-256/u2/2015-05-01/b00001710_21i7lf_20150501_082312e.jpg'
p3598
sg4
(lp3599
(g32
g6
(g18
S'\x92\xc8\x11?'
p3600
tp3601
Rp3602
tp3603
a(g68
g6
(g18
S'tR@>'
p3604
tp3605
Rp3606
tp3607
a(g92
g6
(g18
S'\x19\xd3t='
p3608
tp3609
Rp3610
tp3611
a(g294
g6
(g18
S'~\xc9\n='
p3612
tp3613
Rp3614
tp3615
a(g104
g6
(g18
S'\xfdC\xb7<'
p3616
tp3617
Rp3618
tp3619
asg73
g32
sa(dp3620
g2
S'../../../data/emanuela/activity-recognition/images/NTCIR-Lifelog-256/u2/2015-04-25/b00003155_21i7lf_20150425_130530e.jpg'
p3621
sg4
(lp3622
(g32
g6
(g18
S'Qj8?'
p3623
tp3624
Rp3625
tp3626
a(g68
g6
(g18
S'\x01\xdd\x16>'
p3627
tp3628
Rp3629
tp3630
a(g56
g6
(g18
S'\x07\xe7\xc0='
p3631
tp3632
Rp3633
tp3634
a(g155
g6
(g18
S'\xcc\xa9\x9f<'
p3635
tp3636
Rp3637
tp3638
a(g92
g6
(g18
S'I\x08\x1a<'
p3639
tp3640
Rp3641
tp3642
asg73
g32
sa(dp3643
g2
S'../../../data/emanuela/activity-recognition/images/NTCIR-Lifelog-256/u2/2015-05-06/b00007248_21i7lf_20150506_192825e.jpg'
p3644
sg4
(lp3645
(g56
g6
(g18
S'\xf3i\x89>'
p3646
tp3647
Rp3648
tp3649
a(g209
g6
(g18
S'\x97\xe3\r>'
p3650
tp3651
Rp3652
tp3653
a(g32
g6
(g18
S'\xccV\xea='
p3654
tp3655
Rp3656
tp3657
a(g68
g6
(g18
S'\xb2\xfc\xa5='
p3658
tp3659
Rp3660
tp3661
a(g228
g6
(g18
S'\x7f\x14\x9b='
p3662
tp3663
Rp3664
tp3665
asg73
g32
sa(dp3666
g2
S'../../../data/emanuela/activity-recognition/images/NTCIR-Lifelog-256/u2/2015-04-28/b00006280_21i7lf_20150428_084322e.jpg'
p3667
sg4
(lp3668
(g32
g6
(g18
S'\x00Q\t?'
p3669
tp3670
Rp3671
tp3672
a(g56
g6
(g18
S'\xe8xC>'
p3673
tp3674
Rp3675
tp3676
a(g68
g6
(g18
S'\x84\xd1\xc7='
p3677
tp3678
Rp3679
tp3680
a(g15
g6
(g18
S'\xe8\xf4L='
p3681
tp3682
Rp3683
tp3684
a(g367
g6
(g18
S'X\xe3\xc4<'
p3685
tp3686
Rp3687
tp3688
asg73
g32
sa(dp3689
g2
S'../../../data/emanuela/activity-recognition/images/NTCIR-Lifelog-256/u2/2015-05-05/b00005939_21i7lf_20150505_182322e.jpg'
p3690
sg4
(lp3691
(g32
g6
(g18
S'p\xdaY?'
p3692
tp3693
Rp3694
tp3695
a(g68
g6
(g18
S'\x04\xc6\xa3='
p3696
tp3697
Rp3698
tp3699
a(g44
g6
(g18
S'4\xf5\xac<'
p3700
tp3701
Rp3702
tp3703
a(g143
g6
(g18
S'\xa7\x92\x8e<'
p3704
tp3705
Rp3706
tp3707
a(g104
g6
(g18
S'\xea\x13`<'
p3708
tp3709
Rp3710
tp3711
asg73
g32
sa(dp3712
g2
S'../../../data/emanuela/activity-recognition/images/NTCIR-Lifelog-256/u2/2015-05-06/b00007222_21i7lf_20150506_190951e.jpg'
p3713
sg4
(lp3714
(g32
g6
(g18
S'\x95\x9c<?'
p3715
tp3716
Rp3717
tp3718
a(g68
g6
(g18
S'\x1e\tP>'
p3719
tp3720
Rp3721
tp3722
a(g209
g6
(g18
S'\xe2\xf7A<'
p3723
tp3724
Rp3725
tp3726
a(g367
g6
(g18
S'<\xce*<'
p3727
tp3728
Rp3729
tp3730
a(g56
g6
(g18
S'\x14\x1a(<'
p3731
tp3732
Rp3733
tp3734
asg73
g32
sa(dp3735
g2
S'../../../data/emanuela/activity-recognition/images/NTCIR-Lifelog-256/u2/2015-05-06/b00007246_21i7lf_20150506_192715e.jpg'
p3736
sg4
(lp3737
(g56
g6
(g18
S'\x89\xda1?'
p3738
tp3739
Rp3740
tp3741
a(g32
g6
(g18
S'S\xd5\x07>'
p3742
tp3743
Rp3744
tp3745
a(g155
g6
(g18
S'Jb\xc4='
p3746
tp3747
Rp3748
tp3749
a(g68
g6
(g18
S':\xc3\x85='
p3750
tp3751
Rp3752
tp3753
a(g209
g6
(g18
S'\x81\x03Y;'
p3754
tp3755
Rp3756
tp3757
asg73
g32
sa(dp3758
g2
S'../../../data/emanuela/activity-recognition/images/NTCIR-Lifelog-256/u2/2015-05-04/b00004846_21i7lf_20150504_142046e.jpg'
p3759
sg4
(lp3760
(g32
g6
(g18
S'~\x82P?'
p3761
tp3762
Rp3763
tp3764
a(g68
g6
(g18
S'}\x9c\xae='
p3765
tp3766
Rp3767
tp3768
a(g15
g6
(g18
S'%\xaf\x05='
p3769
tp3770
Rp3771
tp3772
a(g56
g6
(g18
S'\x99\xda\xce<'
p3773
tp3774
Rp3775
tp3776
a(g92
g6
(g18
S'(@,<'
p3777
tp3778
Rp3779
tp3780
asg73
g32
sa(dp3781
g2
S'../../../data/emanuela/activity-recognition/images/NTCIR-Lifelog-256/u2/2015-04-20/b00000491_21i7lf_20150420_144839e.jpg'
p3782
sg4
(lp3783
(g32
g6
(g18
S'\xeb:j?'
p3784
tp3785
Rp3786
tp3787
a(g68
g6
(g18
S'y}\xa4='
p3788
tp3789
Rp3790
tp3791
a(g56
g6
(g18
S'a/\x0e;'
p3792
tp3793
Rp3794
tp3795
a(g92
g6
(g18
S'$\x143:'
p3796
tp3797
Rp3798
tp3799
a(g155
g6
(g18
S'd\xae\x00:'
p3800
tp3801
Rp3802
tp3803
asg73
g32
sa(dp3804
g2
S'../../../data/emanuela/activity-recognition/images/NTCIR-Lifelog-256/u2/2015-05-06/b00006235_21i7lf_20150506_071534e.jpg'
p3805
sg4
(lp3806
(g32
g6
(g18
S'\xbf\x8a[?'
p3807
tp3808
Rp3809
tp3810
a(g68
g6
(g18
S'\x07S\xf9='
p3811
tp3812
Rp3813
tp3814
a(g104
g6
(g18
S'6\xee\xdd;'
p3815
tp3816
Rp3817
tp3818
a(g56
g6
(g18
S"\x1f'\x80;"
p3819
tp3820
Rp3821
tp3822
a(g92
g6
(g18
S'X\x03\x1a;'
p3823
tp3824
Rp3825
tp3826
asg73
g32
sa(dp3827
g2
S'../../../data/emanuela/activity-recognition/images/NTCIR-Lifelog-256/u2/2015-04-30/b00001557_21i7lf_20150430_190722e.jpg'
p3828
sg4
(lp3829
(g56
g6
(g18
S'\xf8\x9a\xd9>'
p3830
tp3831
Rp3832
tp3833
a(g32
g6
(g18
S'lf\x9a>'
p3834
tp3835
Rp3836
tp3837
a(g68
g6
(g18
S'\x08\xd91>'
p3838
tp3839
Rp3840
tp3841
a(g155
g6
(g18
S'\x95\xa3j='
p3842
tp3843
Rp3844
tp3845
a(g143
g6
(g18
S'u\xccm<'
p3846
tp3847
Rp3848
tp3849
asg73
g32
sa(dp3850
g2
S'../../../data/emanuela/activity-recognition/images/NTCIR-Lifelog-256/u2/2015-05-06/b00007218_21i7lf_20150506_190730e.jpg'
p3851
sg4
(lp3852
(g56
g6
(g18
S'l>\x83>'
p3853
tp3854
Rp3855
tp3856
a(g32
g6
(g18
S'\xe4\xfd5>'
p3857
tp3858
Rp3859
tp3860
a(g367
g6
(g18
S"\xa2\xad'>"
p3861
tp3862
Rp3863
tp3864
a(g155
g6
(g18
S'Z\xc9\x80='
p3865
tp3866
Rp3867
tp3868
a(g209
g6
(g18
S'\xf7ac='
p3869
tp3870
Rp3871
tp3872
asg73
g32
sa(dp3873
g2
S'../../../data/emanuela/activity-recognition/images/NTCIR-Lifelog-256/u2/2015-04-22/b00000606_21i7lf_20150422_185943e.jpg'
p3874
sg4
(lp3875
(g56
g6
(g18
S'2\xe5,?'
p3876
tp3877
Rp3878
tp3879
a(g155
g6
(g18
S'\x83K\x80>'
p3880
tp3881
Rp3882
tp3883
a(g209
g6
(g18
S'\x15n\xf7<'
p3884
tp3885
Rp3886
tp3887
a(g32
g6
(g18
S'\x98l\x8d<'
p3888
tp3889
Rp3890
tp3891
a(g68
g6
(g18
S'\x9b@X<'
p3892
tp3893
Rp3894
tp3895
asg73
g32
sa(dp3896
g2
S'../../../data/emanuela/activity-recognition/images/NTCIR-Lifelog-256/u2/2015-05-02/b00003231_21i7lf_20150502_141010e.jpg'
p3897
sg4
(lp3898
(g56
g6
(g18
S'V\xf1\xd0>'
p3899
tp3900
Rp3901
tp3902
a(g32
g6
(g18
S'h\xbc\x88>'
p3903
tp3904
Rp3905
tp3906
a(g68
g6
(g18
S'v\xd9,>'
p3907
tp3908
Rp3909
tp3910
a(g155
g6
(g18
S'\\\x07\xda='
p3911
tp3912
Rp3913
tp3914
a(g367
g6
(g18
S')!{<'
p3915
tp3916
Rp3917
tp3918
asg73
g32
sa(dp3919
g2
S'../../../data/emanuela/activity-recognition/images/NTCIR-Lifelog-256/u2/2015-05-04/b00004515_21i7lf_20150504_101851e.jpg'
p3920
sg4
(lp3921
(g56
g6
(g18
S'(*\xf1>'
p3922
tp3923
Rp3924
tp3925
a(g32
g6
(g18
S'^E\x84>'
p3926
tp3927
Rp3928
tp3929
a(g15
g6
(g18
S'lR\x9d='
p3930
tp3931
Rp3932
tp3933
a(g68
g6
(g18
S'\xb8\xe9\x85='
p3934
tp3935
Rp3936
tp3937
a(g155
g6
(g18
S'\xfa\x13\x0e='
p3938
tp3939
Rp3940
tp3941
asg73
g32
sa(dp3942
g2
S'../../../data/emanuela/activity-recognition/images/NTCIR-Lifelog-256/u2/2015-04-25/b00003118_21i7lf_20150425_124018e.jpg'
p3943
sg4
(lp3944
(g56
g6
(g18
S'|y\x19?'
p3945
tp3946
Rp3947
tp3948
a(g155
g6
(g18
S'2\xae.>'
p3949
tp3950
Rp3951
tp3952
a(g68
g6
(g18
S'\xd6\x15\xb2='
p3953
tp3954
Rp3955
tp3956
a(g32
g6
(g18
S'\x020\x80='
p3957
tp3958
Rp3959
tp3960
a(g209
g6
(g18
S'w\x88a='
p3961
tp3962
Rp3963
tp3964
asg73
g32
sa(dp3965
g2
S'../../../data/emanuela/activity-recognition/images/NTCIR-Lifelog-256/u2/2015-04-23/b00000781_21i7lf_20150423_084353e.jpg'
p3966
sg4
(lp3967
(g32
g6
(g18
S'c\xd0V?'
p3968
tp3969
Rp3970
tp3971
a(g68
g6
(g18
S'\xd1i\x01>'
p3972
tp3973
Rp3974
tp3975
a(g143
g6
(g18
S'\xf1\x84/<'
p3976
tp3977
Rp3978
tp3979
a(g56
g6
(g18
S'l\xcf\xcb;'
p3980
tp3981
Rp3982
tp3983
a(g294
g6
(g18
S'\xe5\xb1\xa4;'
p3984
tp3985
Rp3986
tp3987
asg73
g32
sa(dp3988
g2
S'../../../data/emanuela/activity-recognition/images/NTCIR-Lifelog-256/u2/2015-04-30/b00000622_21i7lf_20150430_080530e.jpg'
p3989
sg4
(lp3990
(g32
g6
(g18
S'G\xd0J?'
p3991
tp3992
Rp3993
tp3994
a(g68
g6
(g18
S'\xd9mI>'
p3995
tp3996
Rp3997
tp3998
a(g143
g6
(g18
S'\x0eml;'
p3999
tp4000
Rp4001
tp4002
a(g44
g6
(g18
S'\xfbeK;'
p4003
tp4004
Rp4005
tp4006
a(g104
g6
(g18
S't\xe7R:'
p4007
tp4008
Rp4009
tp4010
asg73
g32
sa(dp4011
g2
S'../../../data/emanuela/activity-recognition/images/NTCIR-Lifelog-256/u2/2015-05-01/b00001708_21i7lf_20150501_082150e.jpg'
p4012
sg4
(lp4013
(g32
g6
(g18
S'.\xb3\\?'
p4014
tp4015
Rp4016
tp4017
a(g68
g6
(g18
S'\x05\xb9\t>'
p4018
tp4019
Rp4020
tp4021
a(g44
g6
(g18
S'\xea\x83=:'
p4022
tp4023
Rp4024
tp4025
a(g56
g6
(g18
S'\xba\xa04:'
p4026
tp4027
Rp4028
tp4029
a(g104
g6
(g18
S'\x06R\x19:'
p4030
tp4031
Rp4032
tp4033
asg73
g32
sa(dp4034
g2
S'../../../data/emanuela/activity-recognition/images/NTCIR-Lifelog-256/u2/2015-04-20/b00000492_21i7lf_20150420_144913e.jpg'
p4035
sg4
(lp4036
(g32
g6
(g18
S'\xe5o4?'
p4037
tp4038
Rp4039
tp4040
a(g68
g6
(g18
S'\xf1\xc8\x10>'
p4041
tp4042
Rp4043
tp4044
a(g56
g6
(g18
S'\x1c#A='
p4045
tp4046
Rp4047
tp4048
a(g155
g6
(g18
S'\r\x871='
p4049
tp4050
Rp4051
tp4052
a(g15
g6
(g18
S'Zb\xc7<'
p4053
tp4054
Rp4055
tp4056
asg73
g32
sa(dp4057
g2
S'../../../data/emanuela/activity-recognition/images/NTCIR-Lifelog-256/u2/2015-05-06/b00007228_21i7lf_20150506_191459e.jpg'
p4058
sg4
(lp4059
(g68
g6
(g18
S'"\xae\x07?'
p4060
tp4061
Rp4062
tp4063
a(g32
g6
(g18
S'\xff\x16\xe1>'
p4064
tp4065
Rp4066
tp4067
a(g56
g6
(g18
S'\xf5\xd1g<'
p4068
tp4069
Rp4070
tp4071
a(g155
g6
(g18
S'\x94\xf1\xae;'
p4072
tp4073
Rp4074
tp4075
a(g104
g6
(g18
S'\x08\xbav;'
p4076
tp4077
Rp4078
tp4079
asg73
g32
sa(dp4080
g2
S'../../../data/emanuela/activity-recognition/images/NTCIR-Lifelog-256/u2/2015-05-05/b00005955_21i7lf_20150505_183328e.jpg'
p4081
sg4
(lp4082
(g32
g6
(g18
S'\xa9A\r?'
p4083
tp4084
Rp4085
tp4086
a(g68
g6
(g18
S'J\xbdh>'
p4087
tp4088
Rp4089
tp4090
a(g56
g6
(g18
S'p\xe4n='
p4091
tp4092
Rp4093
tp4094
a(g143
g6
(g18
S'\x9c\x1c\xc6<'
p4095
tp4096
Rp4097
tp4098
a(g15
g6
(g18
S'\xd6\x86\xbc<'
p4099
tp4100
Rp4101
tp4102
asg73
g32
sa(dp4103
g2
S'../../../data/emanuela/activity-recognition/images/NTCIR-Lifelog-256/u2/2015-04-23/b00001663_21i7lf_20150423_200804e.jpg'
p4104
sg4
(lp4105
(g32
g6
(g18
S'W\xd3\xbf>'
p4106
tp4107
Rp4108
tp4109
a(g68
g6
(g18
S'\xf2\xaf\xbb>'
p4110
tp4111
Rp4112
tp4113
a(g209
g6
(g18
S'`U\x12>'
p4114
tp4115
Rp4116
tp4117
a(g56
g6
(g18
S'\xeb\xa4\r='
p4118
tp4119
Rp4120
tp4121
a(g155
g6
(g18
S'\x1e\x8e\t='
p4122
tp4123
Rp4124
tp4125
asg73
g32
sa(dp4126
g2
S'../../../data/emanuela/activity-recognition/images/NTCIR-Lifelog-256/u2/2015-04-25/b00003268_21i7lf_20150425_154400e.jpg'
p4127
sg4
(lp4128
(g56
g6
(g18
S'5\x89^?'
p4129
tp4130
Rp4131
tp4132
a(g155
g6
(g18
S'\xed\xf6\xb4='
p4133
tp4134
Rp4135
tp4136
a(g209
g6
(g18
S"\xd1'\xa9<"
p4137
tp4138
Rp4139
tp4140
a(g15
g6
(g18
S'\x10\xc3\xcb;'
p4141
tp4142
Rp4143
tp4144
a(g367
g6
(g18
S'\\\xe5\x96;'
p4145
tp4146
Rp4147
tp4148
asg73
g32
sa(dp4149
g2
S'../../../data/emanuela/activity-recognition/images/NTCIR-Lifelog-256/u2/2015-04-22/b00000601_21i7lf_20150422_185630e.jpg'
p4150
sg4
(lp4151
(g32
g6
(g18
S'p\xec\x08?'
p4152
tp4153
Rp4154
tp4155
a(g68
g6
(g18
S'\xb9V\xa7>'
p4156
tp4157
Rp4158
tp4159
a(g56
g6
(g18
S':\x83\xa3='
p4160
tp4161
Rp4162
tp4163
a(g44
g6
(g18
S'\x06@\x82<'
p4164
tp4165
Rp4166
tp4167
a(g155
g6
(g18
S'\\\x0c <'
p4168
tp4169
Rp4170
tp4171
asg73
g32
sa(dp4172
g2
S'../../../data/emanuela/activity-recognition/images/NTCIR-Lifelog-256/u2/2015-05-06/b00007237_21i7lf_20150506_192138e.jpg'
p4173
sg4
(lp4174
(g32
g6
(g18
S'h\xd6\xa1>'
p4175
tp4176
Rp4177
tp4178
a(g68
g6
(g18
S'\x84\xf9\x7f>'
p4179
tp4180
Rp4181
tp4182
a(g155
g6
(g18
S'D\xc15>'
p4183
tp4184
Rp4185
tp4186
a(g56
g6
(g18
S'\n,\x1b>'
p4187
tp4188
Rp4189
tp4190
a(g209
g6
(g18
S'\xdc\x8em='
p4191
tp4192
Rp4193
tp4194
asg73
g32
sa.