(lp0
(dp1
S'image'
p2
S'../../../data/emanuela/activity-recognition/images/NTCIR-Lifelog-256/u2/2015-05-03/b00003934_21i7lf_20150503_161842e.jpg'
p3
sS'result'
p4
(lp5
(cnumpy.core.multiarray
scalar
p6
(cnumpy
dtype
p7
(S'S8'
p8
I0
I1
tp9
Rp10
(I3
S'|'
p11
NNNI8
I1
I0
tp12
bS'shopping'
p13
tp14
Rp15
g6
(g7
(S'f4'
p16
I0
I1
tp17
Rp18
(I3
S'<'
p19
NNNI-1
I-1
I0
tp20
bS'i\x89\x7f?'
p21
tp22
Rp23
tp24
a(g6
(g7
(S'S24'
p25
I0
I1
tp26
Rp27
(I3
S'|'
p28
NNNI24
I1
I0
tp29
bS'having drinks/meal alone'
p30
tp31
Rp32
g6
(g18
S'\xf6\x99c:'
p33
tp34
Rp35
tp36
a(g6
(g7
(S'S25'
p37
I0
I1
tp38
Rp39
(I3
S'|'
p40
NNNI25
I1
I0
tp41
bS'having meal with somebody'
p42
tp43
Rp44
g6
(g18
S'9|*:'
p45
tp46
Rp47
tp48
a(g6
(g7
(S'S14'
p49
I0
I1
tp50
Rp51
(I3
S'|'
p52
NNNI14
I1
I0
tp53
bS'walking indoor'
p54
tp55
Rp56
g6
(g18
S'{\xaf\xd88'
p57
tp58
Rp59
tp60
a(g6
(g7
(S'S27'
p61
I0
I1
tp62
Rp63
(I3
S'|'
p64
NNNI27
I1
I0
tp65
bS'having drinks with somebody'
p66
tp67
Rp68
g6
(g18
S'\xeb\x82\xd08'
p69
tp70
Rp71
tp72
asS'label'
p73
g15
sa(dp74
g2
S'../../../data/emanuela/activity-recognition/images/NTCIR-Lifelog-256/u2/2015-06-19/b00003597_21i7lf_20150619_122528e.jpg'
p75
sg4
(lp76
(g15
g6
(g18
S'\xf59~?'
p77
tp78
Rp79
tp80
a(g56
g6
(g18
S'u\xb2\x82;'
p81
tp82
Rp83
tp84
a(g6
(g7
(S'S7'
p85
I0
I1
tp86
Rp87
(I3
S'|'
p88
NNNI7
I1
I0
tp89
bS'cooking'
p90
tp91
Rp92
g6
(g18
S'\x1ak\n;'
p93
tp94
Rp95
tp96
a(g6
(g7
(S'S15'
p97
I0
I1
tp98
Rp99
(I3
S'|'
p100
NNNI15
I1
I0
tp101
bS'walking outdoor'
p102
tp103
Rp104
g6
(g18
S'\xc5\x97]9'
p105
tp106
Rp107
tp108
a(g44
g6
(g18
S'_\xcf\x069'
p109
tp110
Rp111
tp112
asg73
g15
sa(dp113
g2
S'../../../data/emanuela/activity-recognition/images/NTCIR-Lifelog-256/u2/2015-04-24/b00002824_21i7lf_20150424_205505e.jpg'
p114
sg4
(lp115
(g15
g6
(g18
S'x\xc8\x7f?'
p116
tp117
Rp118
tp119
a(g6
(g7
(S'S11'
p120
I0
I1
tp121
Rp122
(I3
S'|'
p123
NNNI11
I1
I0
tp124
bS'socializing'
p125
tp126
Rp127
g6
(g18
S'Y\x1d\xa69'
p128
tp129
Rp130
tp131
a(g68
g6
(g18
S'\x19U\x169'
p132
tp133
Rp134
tp135
a(g44
g6
(g18
S'G}\xeb8'
p136
tp137
Rp138
tp139
a(g6
(g7
(S'S19'
p140
I0
I1
tp141
Rp142
(I3
S'|'
p143
NNNI19
I1
I0
tp144
bS'attending a seminar'
p145
tp146
Rp147
g6
(g18
S'\x88J\xb48'
p148
tp149
Rp150
tp151
asg73
g15
sa(dp152
g2
S'../../../data/emanuela/activity-recognition/images/NTCIR-Lifelog-256/u2/2015-04-24/b00002828_21i7lf_20150424_205728e.jpg'
p153
sg4
(lp154
(g15
g6
(g18
S'j\x04\x7f?'
p155
tp156
Rp157
tp158
a(g56
g6
(g18
S'\xa2Li;'
p159
tp160
Rp161
tp162
a(g44
g6
(g18
S'%\x97\xcc8'
p163
tp164
Rp165
tp166
a(g68
g6
(g18
S"'\xd6\xb38"
p167
tp168
Rp169
tp170
a(g104
g6
(g18
S'\xbeQ\xd77'
p171
tp172
Rp173
tp174
asg73
g15
sa(dp175
g2
S'../../../data/emanuela/activity-recognition/images/NTCIR-Lifelog-256/u2/2015-04-30/b00001011_21i7lf_20150430_130546e.jpg'
p176
sg4
(lp177
(g15
g6
(g18
S'\xb7\xcf=?'
p178
tp179
Rp180
tp181
a(g68
g6
(g18
S'\x83\xed\x8a='
p182
tp183
Rp184
tp185
a(g56
g6
(g18
S'\xc0\xb8k='
p186
tp187
Rp188
tp189
a(g32
g6
(g18
S'{4\x1b='
p190
tp191
Rp192
tp193
a(g147
g6
(g18
S'\xad\xe1\x12='
p194
tp195
Rp196
tp197
asg73
g15
sa(dp198
g2
S'../../../data/emanuela/activity-recognition/images/NTCIR-Lifelog-256/u2/2015-05-03/b00004023_21i7lf_20150503_171459e.jpg'
p199
sg4
(lp200
(g15
g6
(g18
S']\xcf\x98>'
p201
tp202
Rp203
tp204
a(g6
(g7
(S'S16'
p205
I0
I1
tp206
Rp207
(I3
S'|'
p208
NNNI16
I1
I0
tp209
bS'public transport'
p210
tp211
Rp212
g6
(g18
S'\xdd\x1c\x84>'
p213
tp214
Rp215
tp216
a(g6
(g7
(S'S5'
p217
I0
I1
tp218
Rp219
(I3
S'|'
p220
NNNI5
I1
I0
tp221
bS'plane'
p222
tp223
Rp224
g6
(g18
S'I\x8fY>'
p225
tp226
Rp227
tp228
a(g68
g6
(g18
S'f\xab\xa6='
p229
tp230
Rp231
tp232
a(g56
g6
(g18
S'\xb5#G='
p233
tp234
Rp235
tp236
asg73
g15
sa(dp237
g2
S'../../../data/emanuela/activity-recognition/images/NTCIR-Lifelog-256/u2/2015-05-06/b00006594_21i7lf_20150506_122248e.jpg'
p238
sg4
(lp239
(g15
g6
(g18
S'^o\x7f?'
p240
tp241
Rp242
tp243
a(g56
g6
(g18
S'\xa2\x93\xfb:'
p244
tp245
Rp246
tp247
a(g68
g6
(g18
S'\x18\xbe\x019'
p248
tp249
Rp250
tp251
a(g44
g6
(g18
S'\xeb\xe5w8'
p252
tp253
Rp254
tp255
a(g104
g6
(g18
S'\xdcn#8'
p256
tp257
Rp258
tp259
asg73
g15
sa(dp260
g2
S'../../../data/emanuela/activity-recognition/images/NTCIR-Lifelog-256/u2/2015-04-25/b00003138_21i7lf_20150425_125353e.jpg'
p261
sg4
(lp262
(g15
g6
(g18
S'\xa2K1?'
p263
tp264
Rp265
tp266
a(g56
g6
(g18
S'\xdfw\xf5='
p267
tp268
Rp269
tp270
a(g68
g6
(g18
S'\xd7\xa3\xdc='
p271
tp272
Rp273
tp274
a(g147
g6
(g18
S'\xdam\x11='
p275
tp276
Rp277
tp278
a(g44
g6
(g18
S'UV,<'
p279
tp280
Rp281
tp282
asg73
g15
sa(dp283
g2
S'../../../data/emanuela/activity-recognition/images/NTCIR-Lifelog-256/u2/2015-04-24/b00002326_21i7lf_20150424_131427e.jpg'
p284
sg4
(lp285
(g15
g6
(g18
S'\xcc\x02z?'
p286
tp287
Rp288
tp289
a(g56
g6
(g18
S'\x9b$f<'
p290
tp291
Rp292
tp293
a(g68
g6
(g18
S'~ \xa4;'
p294
tp295
Rp296
tp297
a(g127
g6
(g18
S'\xd6\xdb\xe2:'
p298
tp299
Rp300
tp301
a(g224
g6
(g18
S'\x0fVQ:'
p302
tp303
Rp304
tp305
asg73
g15
sa(dp306
g2
S'../../../data/emanuela/activity-recognition/images/NTCIR-Lifelog-256/u2/2015-06-16/b00001373_21i7lf_20150616_073524e.jpg'
p307
sg4
(lp308
(g15
g6
(g18
S'\xb3\x82\x7f?'
p309
tp310
Rp311
tp312
a(g56
g6
(g18
S'N^$:'
p313
tp314
Rp315
tp316
a(g44
g6
(g18
S'\xc1\xbf\x07:'
p317
tp318
Rp319
tp320
a(g32
g6
(g18
S'\x98\xe9\xbe9'
p321
tp322
Rp323
tp324
a(g68
g6
(g18
S'\x96\xaf\xa49'
p325
tp326
Rp327
tp328
asg73
g15
sa(dp329
g2
S'../../../data/emanuela/activity-recognition/images/NTCIR-Lifelog-256/u2/2015-04-23/b00001232_21i7lf_20150423_142811e.jpg'
p330
sg4
(lp331
(g32
g6
(g18
S'\xf6#k?'
p332
tp333
Rp334
tp335
a(g44
g6
(g18
S'\x04{.='
p336
tp337
Rp338
tp339
a(g147
g6
(g18
S'\x1c\x0e\x86<'
p340
tp341
Rp342
tp343
a(g15
g6
(g18
S'\x04\x0f\x19<'
p344
tp345
Rp346
tp347
a(g68
g6
(g18
S'\xa1\xb8\xd4;'
p348
tp349
Rp350
tp351
asg73
g15
sa(dp352
g2
S'../../../data/emanuela/activity-recognition/images/NTCIR-Lifelog-256/u2/2015-05-05/b00005328_21i7lf_20150505_120527e.jpg'
p353
sg4
(lp354
(g15
g6
(g18
S'\x18\xa1X?'
p355
tp356
Rp357
tp358
a(g56
g6
(g18
S'\xde\xc9\xbb='
p359
tp360
Rp361
tp362
a(g68
g6
(g18
S'y\xe4$='
p363
tp364
Rp365
tp366
a(g44
g6
(g18
S'\xcao7<'
p367
tp368
Rp369
tp370
a(g104
g6
(g18
S'\x08\x12A;'
p371
tp372
Rp373
tp374
asg73
g15
sa(dp375
g2
S'../../../data/emanuela/activity-recognition/images/NTCIR-Lifelog-256/u2/2015-04-21/b00000319_21i7lf_20150421_130850e.jpg'
p376
sg4
(lp377
(g15
g6
(g18
S'}ap?'
p378
tp379
Rp380
tp381
a(g44
g6
(g18
S'\xb9\xc0a='
p382
tp383
Rp384
tp385
a(g56
g6
(g18
S'\x85\xce4;'
p386
tp387
Rp388
tp389
a(g32
g6
(g18
S'\x12\x10\xbf:'
p390
tp391
Rp392
tp393
a(g68
g6
(g18
S'l\xa5\x84:'
p394
tp395
Rp396
tp397
asg73
g15
sa(dp398
g2
S'../../../data/emanuela/activity-recognition/images/NTCIR-Lifelog-256/u2/2015-06-17/b00002351_21i7lf_20150617_125521e.jpg'
p399
sg4
(lp400
(g68
g6
(g18
S'\xcd\x16\x1c?'
p401
tp402
Rp403
tp404
a(g15
g6
(g18
S'}\xdb\x1c>'
p405
tp406
Rp407
tp408
a(g44
g6
(g18
S'\x14\xa2\xc3='
p409
tp410
Rp411
tp412
a(g127
g6
(g18
S'\xd5\xa7\x91='
p413
tp414
Rp415
tp416
a(g56
g6
(g18
S'\xb2#\x86<'
p417
tp418
Rp419
tp420
asg73
g15
sa(dp421
g2
S'../../../data/emanuela/activity-recognition/images/NTCIR-Lifelog-256/u2/2015-06-17/b00002345_21i7lf_20150617_125118e.jpg'
p422
sg4
(lp423
(g15
g6
(g18
S'\x89\xbd\xab>'
p424
tp425
Rp426
tp427
a(g104
g6
(g18
S'OQO>'
p428
tp429
Rp430
tp431
a(g127
g6
(g18
S'\x194@>'
p432
tp433
Rp434
tp435
a(g68
g6
(g18
S'Q\xa5\x16>'
p436
tp437
Rp438
tp439
a(g56
g6
(g18
S'Q\xe74='
p440
tp441
Rp442
tp443
asg73
g15
sa(dp444
g2
S'../../../data/emanuela/activity-recognition/images/NTCIR-Lifelog-256/u2/2015-05-03/b00004008_21i7lf_20150503_170531e.jpg'
p445
sg4
(lp446
(g15
g6
(g18
S'\xf4\xfb\x7f?'
p447
tp448
Rp449
tp450
a(g56
g6
(g18
S'\xae\xdaC8'
p451
tp452
Rp453
tp454
a(g44
g6
(g18
S'\xcfw\xfb6'
p455
tp456
Rp457
tp458
a(g92
g6
(g18
S'\x94\x12\xb06'
p459
tp460
Rp461
tp462
a(g104
g6
(g18
S'V\xc2w5'
p463
tp464
Rp465
tp466
asg73
g15
sa(dp467
g2
S'../../../data/emanuela/activity-recognition/images/NTCIR-Lifelog-256/u2/2015-04-25/b00003135_21i7lf_20150425_125121e.jpg'
p468
sg4
(lp469
(g15
g6
(g18
S'\x10\xda\x7f?'
p470
tp471
Rp472
tp473
a(g56
g6
(g18
S'\xc2k\xf19'
p474
tp475
Rp476
tp477
a(g92
g6
(g18
S'\xd9\x14\x088'
p478
tp479
Rp480
tp481
a(g44
g6
(g18
S'(5\xf07'
p482
tp483
Rp484
tp485
a(g6
(g7
(S'S6'
p486
I0
I1
tp487
Rp488
(I3
S'|'
p489
NNNI6
I1
I0
tp490
bS'mobile'
p491
tp492
Rp493
g6
(g18
S'3#\x9b7'
p494
tp495
Rp496
tp497
asg73
g15
sa(dp498
g2
S'../../../data/emanuela/activity-recognition/images/NTCIR-Lifelog-256/u2/2015-05-05/b00005739_21i7lf_20150505_161710e.jpg'
p499
sg4
(lp500
(g15
g6
(g18
S'V\xde\x7f?'
p501
tp502
Rp503
tp504
a(g56
g6
(g18
S'\xb9\xa4\xcb9'
p505
tp506
Rp507
tp508
a(g68
g6
(g18
S'\x17\xce\x888'
p509
tp510
Rp511
tp512
a(g44
g6
(g18
S'\x0b\x99\x9e7'
p513
tp514
Rp515
tp516
a(g104
g6
(g18
S'\x1a\xd2\x837'
p517
tp518
Rp519
tp520
asg73
g15
sa(dp521
g2
S'../../../data/emanuela/activity-recognition/images/NTCIR-Lifelog-256/u2/2015-04-28/b00006649_21i7lf_20150428_123152e.jpg'
p522
sg4
(lp523
(g56
g6
(g18
S' uG?'
p524
tp525
Rp526
tp527
a(g15
g6
(g18
S'T\xb7Y>'
p528
tp529
Rp530
tp531
a(g68
g6
(g18
S'\xa1D\x82;'
p532
tp533
Rp534
tp535
a(g147
g6
(g18
S'\tN\xd0:'
p536
tp537
Rp538
tp539
a(g104
g6
(g18
S'\xa5Gw:'
p540
tp541
Rp542
tp543
asg73
g15
sa(dp544
g2
S'../../../data/emanuela/activity-recognition/images/NTCIR-Lifelog-256/u2/2015-05-01/b00002106_21i7lf_20150501_122730e.jpg'
p545
sg4
(lp546
(g68
g6
(g18
S'h\x89H?'
p547
tp548
Rp549
tp550
a(g32
g6
(g18
S'Y\xdf\x13>'
p551
tp552
Rp553
tp554
a(g56
g6
(g18
S'q\xd4\xb8<'
p555
tp556
Rp557
tp558
a(g44
g6
(g18
S'mU\xb3<'
p559
tp560
Rp561
tp562
a(g15
g6
(g18
S'\x1b\xa2\x8c<'
p563
tp564
Rp565
tp566
asg73
g15
sa(dp567
g2
S'../../../data/emanuela/activity-recognition/images/NTCIR-Lifelog-256/u2/2015-05-03/b00003997_21i7lf_20150503_165853e.jpg'
p568
sg4
(lp569
(g15
g6
(g18
S'6\xe5z?'
p570
tp571
Rp572
tp573
a(g56
g6
(g18
S'ie\x95<'
p574
tp575
Rp576
tp577
a(g212
g6
(g18
S'\xfc\xb6%:'
p578
tp579
Rp580
tp581
a(g68
g6
(g18
S'\xf4F\xda9'
p582
tp583
Rp584
tp585
a(g104
g6
(g18
S'\xbf\xees9'
p586
tp587
Rp588
tp589
asg73
g15
sa(dp590
g2
S'../../../data/emanuela/activity-recognition/images/NTCIR-Lifelog-256/u2/2015-05-08/b00008689_21i7lf_20150508_092737e.jpg'
p591
sg4
(lp592
(g56
g6
(g18
S'|\xfa\x14?'
p593
tp594
Rp595
tp596
a(g68
g6
(g18
S'\xb7\x1e3>'
p597
tp598
Rp599
tp600
a(g32
g6
(g18
S'-\xab\xc7='
p601
tp602
Rp603
tp604
a(g127
g6
(g18
S'\x05\xff$='
p605
tp606
Rp607
tp608
a(g15
g6
(g18
S'\x9e1\x12='
p609
tp610
Rp611
tp612
asg73
g15
sa(dp613
g2
S'../../../data/emanuela/activity-recognition/images/NTCIR-Lifelog-256/u2/2015-04-24/b00002327_21i7lf_20150424_131504e.jpg'
p614
sg4
(lp615
(g15
g6
(g18
S',\xdc~?'
p616
tp617
Rp618
tp619
a(g68
g6
(g18
S'\xa5\xa1\xe5:'
p620
tp621
Rp622
tp623
a(g56
g6
(g18
S'\xf2h\xb1:'
p624
tp625
Rp626
tp627
a(g147
g6
(g18
S'H\xe1&:'
p628
tp629
Rp630
tp631
a(g44
g6
(g18
S'\xbd\xbd\xd89'
p632
tp633
Rp634
tp635
asg73
g15
sa(dp636
g2
S'../../../data/emanuela/activity-recognition/images/NTCIR-Lifelog-256/u2/2015-04-21/b00000322_21i7lf_20150421_131045e.jpg'
p637
sg4
(lp638
(g15
g6
(g18
S'\xd2\xa8\x7f?'
p639
tp640
Rp641
tp642
a(g56
g6
(g18
S'\x99\xd7C:'
p643
tp644
Rp645
tp646
a(g44
g6
(g18
S'&\xa2\xe69'
p647
tp648
Rp649
tp650
a(g68
g6
(g18
S'\x8b\xc5\x998'
p651
tp652
Rp653
tp654
a(g32
g6
(g18
S'\xb6\x1cJ8'
p655
tp656
Rp657
tp658
asg73
g15
sa(dp659
g2
S'../../../data/emanuela/activity-recognition/images/NTCIR-Lifelog-256/u2/2015-05-06/b00007028_21i7lf_20150506_165814e.jpg'
p660
sg4
(lp661
(g15
g6
(g18
S'\xd0\xa1\x12?'
p662
tp663
Rp664
tp665
a(g68
g6
(g18
S'\x16\x06\x82>'
p666
tp667
Rp668
tp669
a(g127
g6
(g18
S'\x1c\xf8\x10>'
p670
tp671
Rp672
tp673
a(g104
g6
(g18
S'1\x1c\xe9;'
p674
tp675
Rp676
tp677
a(g56
g6
(g18
S'\xb1D\xca;'
p678
tp679
Rp680
tp681
asg73
g15
sa(dp682
g2
S'../../../data/emanuela/activity-recognition/images/NTCIR-Lifelog-256/u2/2015-04-24/b00002830_21i7lf_20150424_205849e.jpg'
p683
sg4
(lp684
(g56
g6
(g18
S'\xb9\\*?'
p685
tp686
Rp687
tp688
a(g15
g6
(g18
S'\xdf\x83\x96>'
p689
tp690
Rp691
tp692
a(g6
(g7
(S'S19'
p693
I0
I1
tp694
Rp695
(I3
S'|'
p696
NNNI19
I1
I0
tp697
bS'cleaning and chores'
p698
tp699
Rp700
g6
(g18
S'\xbd\xfd7<'
p701
tp702
Rp703
tp704
a(g6
(g7
(S'S7'
p705
I0
I1
tp706
Rp707
(I3
S'|'
p708
NNNI7
I1
I0
tp709
bS'talking'
p710
tp711
Rp712
g6
(g18
S'\x8b\xac\xef;'
p713
tp714
Rp715
tp716
a(g104
g6
(g18
S'\xc8\xda\x97;'
p717
tp718
Rp719
tp720
asg73
g15
sa(dp721
g2
S'../../../data/emanuela/activity-recognition/images/NTCIR-Lifelog-256/u2/2015-04-20/b00000281_21i7lf_20150420_122710e.jpg'
p722
sg4
(lp723
(g15
g6
(g18
S'\xde\x81\x7f?'
p724
tp725
Rp726
tp727
a(g56
g6
(g18
S'\xd8\xcf\xcc:'
p728
tp729
Rp730
tp731
a(g68
g6
(g18
S'\x07\xc9"9'
p732
tp733
Rp734
tp735
a(g44
g6
(g18
S'8\x8088'
p736
tp737
Rp738
tp739
a(g32
g6
(g18
S'\xa6\xd1\x1a8'
p740
tp741
Rp742
tp743
asg73
g15
sa(dp744
g2
S'../../../data/emanuela/activity-recognition/images/NTCIR-Lifelog-256/u2/2015-06-21/b00005050_21i7lf_20150621_121704e.jpg'
p745
sg4
(lp746
(g15
g6
(g18
S'?\x06~?'
p747
tp748
Rp749
tp750
a(g56
g6
(g18
S'\xa1Tz;'
p751
tp752
Rp753
tp754
a(g92
g6
(g18
S'\xea\x0e\xad:'
p755
tp756
Rp757
tp758
a(g32
g6
(g18
S';\xf8h:'
p759
tp760
Rp761
tp762
a(g700
g6
(g18
S'\xe0\xfc\x08:'
p763
tp764
Rp765
tp766
asg73
g15
sa(dp767
g2
S'../../../data/emanuela/activity-recognition/images/NTCIR-Lifelog-256/u2/2015-04-22/b00001337_21i7lf_20150422_121124e.jpg'
p768
sg4
(lp769
(g15
g6
(g18
S'\xd0\xe1\x7f?'
p770
tp771
Rp772
tp773
a(g56
g6
(g18
S'd\xf8n9'
p774
tp775
Rp776
tp777
a(g44
g6
(g18
S'j\x86\xb88'
p778
tp779
Rp780
tp781
a(g68
g6
(g18
S'L\xaf\xac8'
p782
tp783
Rp784
tp785
a(g32
g6
(g18
S'\x95\x03b7'
p786
tp787
Rp788
tp789
asg73
g15
sa(dp790
g2
S'../../../data/emanuela/activity-recognition/images/NTCIR-Lifelog-256/u2/2015-06-18/b00002810_21i7lf_20150618_121156e.jpg'
p791
sg4
(lp792
(g15
g6
(g18
S'ES\x7f?'
p793
tp794
Rp795
tp796
a(g44
g6
(g18
S'cl\xac:'
p797
tp798
Rp799
tp800
a(g56
g6
(g18
S'\r\x02\x9f:'
p801
tp802
Rp803
tp804
a(g68
g6
(g18
S'\xe4\x16\x7f8'
p805
tp806
Rp807
tp808
a(g127
g6
(g18
S' Z\x897'
p809
tp810
Rp811
tp812
asg73
g15
sa(dp813
g2
S'../../../data/emanuela/activity-recognition/images/NTCIR-Lifelog-256/u2/2015-05-05/b00005745_21i7lf_20150505_162042e.jpg'
p814
sg4
(lp815
(g15
g6
(g18
S'\x99\xf2\x7f?'
p816
tp817
Rp818
tp819
a(g56
g6
(g18
S'\xa9\x1e49'
p820
tp821
Rp822
tp823
a(g44
g6
(g18
S'\xefi\x1a7'
p824
tp825
Rp826
tp827
a(g68
g6
(g18
S'?\x8f\x9f6'
p828
tp829
Rp830
tp831
a(g92
g6
(g18
S'\xd4\xb0\x9b6'
p832
tp833
Rp834
tp835
asg73
g15
sa(dp836
g2
S'../../../data/emanuela/activity-recognition/images/NTCIR-Lifelog-256/u2/2015-06-17/b00002373_21i7lf_20150617_131028e.jpg'
p837
sg4
(lp838
(g15
g6
(g18
S'"|\x7f?'
p839
tp840
Rp841
tp842
a(g56
g6
(g18
S'1\x98\xfa:'
p843
tp844
Rp845
tp846
a(g68
g6
(g18
S'\x1b\xfc!8'
p847
tp848
Rp849
tp850
a(g147
g6
(g18
S'A1\x897'
p851
tp852
Rp853
tp854
a(g44
g6
(g18
S'\x02\xac37'
p855
tp856
Rp857
tp858
asg73
g15
sa(dp859
g2
S'../../../data/emanuela/activity-recognition/images/NTCIR-Lifelog-256/u2/2015-04-22/b00000756_21i7lf_20150422_204617e.jpg'
p860
sg4
(lp861
(g15
g6
(g18
S'e\x1c\x7f?'
p862
tp863
Rp864
tp865
a(g56
g6
(g18
S'c\xcc\x04;'
p866
tp867
Rp868
tp869
a(g68
g6
(g18
S'%\xa8\x86:'
p870
tp871
Rp872
tp873
a(g44
g6
(g18
S'\xf6S#9'
p874
tp875
Rp876
tp877
a(g92
g6
(g18
S'Pn\x838'
p878
tp879
Rp880
tp881
asg73
g15
sa(dp882
g2
S'../../../data/emanuela/activity-recognition/images/NTCIR-Lifelog-256/u2/2015-04-27/b00004973_21i7lf_20150427_090646e.jpg'
p883
sg4
(lp884
(g32
g6
(g18
S'K\xd8\xfa>'
p885
tp886
Rp887
tp888
a(g493
g6
(g18
S'\x97\xdfb>'
p889
tp890
Rp891
tp892
a(g6
(g7
(S'S7'
p893
I0
I1
tp894
Rp895
(I3
S'|'
p896
NNNI7
I1
I0
tp897
bS'reading'
p898
tp899
Rp900
g6
(g18
S'T\xfe\xd9='
p901
tp902
Rp903
tp904
a(g224
g6
(g18
S'\xa3\xdan='
p905
tp906
Rp907
tp908
a(g56
g6
(g18
S'\xe0\xfb\x04='
p909
tp910
Rp911
tp912
asg73
g15
sa(dp913
g2
S'../../../data/emanuela/activity-recognition/images/NTCIR-Lifelog-256/u2/2015-06-17/b00002275_21i7lf_20150617_120514e.jpg'
p914
sg4
(lp915
(g15
g6
(g18
S'Hc~?'
p916
tp917
Rp918
tp919
a(g44
g6
(g18
S'\xf5\x17\xa0;'
p920
tp921
Rp922
tp923
a(g56
g6
(g18
S'\xaa\xd0@:'
p924
tp925
Rp926
tp927
a(g68
g6
(g18
S'M0\x06:'
p928
tp929
Rp930
tp931
a(g32
g6
(g18
S'\xd0\xd418'
p932
tp933
Rp934
tp935
asg73
g15
sa(dp936
g2
S'../../../data/emanuela/activity-recognition/images/NTCIR-Lifelog-256/u2/2015-06-19/b00003237_21i7lf_20150619_084118e.jpg'
p937
sg4
(lp938
(g15
g6
(g18
S'\xc4\xf1R?'
p939
tp940
Rp941
tp942
a(g32
g6
(g18
S'\xe9\xc8\xa0='
p943
tp944
Rp945
tp946
a(g44
g6
(g18
S';\xc9w='
p947
tp948
Rp949
tp950
a(g68
g6
(g18
S'\xb7\xd6\x01='
p951
tp952
Rp953
tp954
a(g127
g6
(g18
S'=(3;'
p955
tp956
Rp957
tp958
asg73
g15
sa(dp959
g2
S'../../../data/emanuela/activity-recognition/images/NTCIR-Lifelog-256/u2/2015-05-03/b00004012_21i7lf_20150503_170801e.jpg'
p960
sg4
(lp961
(g15
g6
(g18
S"'\xd7\x7f?"
p962
tp963
Rp964
tp965
a(g56
g6
(g18
S'\x8a\x08\xe99'
p966
tp967
Rp968
tp969
a(g104
g6
(g18
S'p\xee\x189'
p970
tp971
Rp972
tp973
a(g68
g6
(g18
S'5\x9e\x117'
p974
tp975
Rp976
tp977
a(g32
g6
(g18
S']\xd1\xf56'
p978
tp979
Rp980
tp981
asg73
g15
sa(dp982
g2
S'../../../data/emanuela/activity-recognition/images/NTCIR-Lifelog-256/u2/2015-05-08/b00008993_21i7lf_20150508_123340e.jpg'
p983
sg4
(lp984
(g15
g6
(g18
S'\xd5<l?'
p985
tp986
Rp987
tp988
a(g44
g6
(g18
S'\xf9\xac\x96='
p989
tp990
Rp991
tp992
a(g32
g6
(g18
S'Td\x18;'
p993
tp994
Rp995
tp996
a(g68
g6
(g18
S'r\xf3.:'
p997
tp998
Rp999
tp1000
a(g92
g6
(g18
S'\xf4H\x9d9'
p1001
tp1002
Rp1003
tp1004
asg73
g15
sa(dp1005
g2
S'../../../data/emanuela/activity-recognition/images/NTCIR-Lifelog-256/u2/2015-05-06/b00006597_21i7lf_20150506_122444e.jpg'
p1006
sg4
(lp1007
(g15
g6
(g18
S'\xe3\x13_?'
p1008
tp1009
Rp1010
tp1011
a(g56
g6
(g18
S'<#\x85='
p1012
tp1013
Rp1014
tp1015
a(g68
g6
(g18
S"\xa9'6="
p1016
tp1017
Rp1018
tp1019
a(g44
g6
(g18
S'(PH<'
p1020
tp1021
Rp1022
tp1023
a(g712
g6
(g18
S'\x07\xafS;'
p1024
tp1025
Rp1026
tp1027
asg73
g15
sa(dp1028
g2
S'../../../data/emanuela/activity-recognition/images/NTCIR-Lifelog-256/u2/2015-04-20/b00000283_21i7lf_20150420_122823e.jpg'
p1029
sg4
(lp1030
(g15
g6
(g18
S'\xec\x92d?'
p1031
tp1032
Rp1033
tp1034
a(g56
g6
(g18
S'\xfa\xb1\xbd='
p1035
tp1036
Rp1037
tp1038
a(g68
g6
(g18
S'\x15R\x94;'
p1039
tp1040
Rp1041
tp1042
a(g212
g6
(g18
S'\xa9\x12S;'
p1043
tp1044
Rp1045
tp1046
a(g712
g6
(g18
S'\xffo\xc6:'
p1047
tp1048
Rp1049
tp1050
asg73
g15
sa(dp1051
g2
S'../../../data/emanuela/activity-recognition/images/NTCIR-Lifelog-256/u2/2015-06-17/b00002271_21i7lf_20150617_120231e.jpg'
p1052
sg4
(lp1053
(g15
g6
(g18
S'\xd2\x8c\x7f?'
p1054
tp1055
Rp1056
tp1057
a(g44
g6
(g18
S'\xb962:'
p1058
tp1059
Rp1060
tp1061
a(g56
g6
(g18
S'%p\xea9'
p1062
tp1063
Rp1064
tp1065
a(g32
g6
(g18
S'\x10\x04\x839'
p1066
tp1067
Rp1068
tp1069
a(g68
g6
(g18
S'O3=9'
p1070
tp1071
Rp1072
tp1073
asg73
g15
sa(dp1074
g2
S'../../../data/emanuela/activity-recognition/images/NTCIR-Lifelog-256/u2/2015-04-28/b00006323_21i7lf_20150428_091003e.jpg'
p1075
sg4
(lp1076
(g56
g6
(g18
S'&\x1fA?'
p1077
tp1078
Rp1079
tp1080
a(g15
g6
(g18
S'\xc9i\x04>'
p1081
tp1082
Rp1083
tp1084
a(g68
g6
(g18
S'zG\x81='
p1085
tp1086
Rp1087
tp1088
a(g147
g6
(g18
S'5\xb2\x89<'
p1089
tp1090
Rp1091
tp1092
a(g104
g6
(g18
S'\x0e\xc0i<'
p1093
tp1094
Rp1095
tp1096
asg73
g15
sa(dp1097
g2
S'../../../data/emanuela/activity-recognition/images/NTCIR-Lifelog-256/u2/2015-04-25/b00003136_21i7lf_20150425_125232e.jpg'
p1098
sg4
(lp1099
(g15
g6
(g18
S'\x93:|?'
p1100
tp1101
Rp1102
tp1103
a(g56
g6
(g18
S'\xa9Xv;'
p1104
tp1105
Rp1106
tp1107
a(g900
g6
(g18
S'\t\xe6_;'
p1108
tp1109
Rp1110
tp1111
a(g32
g6
(g18
S'P/\x18;'
p1112
tp1113
Rp1114
tp1115
a(g44
g6
(g18
S'\t\x1e\xb0:'
p1116
tp1117
Rp1118
tp1119
asg73
g15
sa(dp1120
g2
S'../../../data/emanuela/activity-recognition/images/NTCIR-Lifelog-256/u2/2015-06-18/b00002809_21i7lf_20150618_121113e.jpg'
p1121
sg4
(lp1122
(g15
g6
(g18
S'\x84\xa5\x7f?'
p1123
tp1124
Rp1125
tp1126
a(g56
g6
(g18
S'\xa5\x8c\xac:'
p1127
tp1128
Rp1129
tp1130
a(g44
g6
(g18
S'"\x0c\xab7'
p1131
tp1132
Rp1133
tp1134
a(g68
g6
(g18
S'\x84t\x967'
p1135
tp1136
Rp1137
tp1138
a(g104
g6
(g18
S'\x06Q\x017'
p1139
tp1140
Rp1141
tp1142
asg73
g15
sa(dp1143
g2
S'../../../data/emanuela/activity-recognition/images/NTCIR-Lifelog-256/u2/2015-06-17/b00002268_21i7lf_20150617_120027e.jpg'
p1144
sg4
(lp1145
(g15
g6
(g18
S'\xd3\x1a.?'
p1146
tp1147
Rp1148
tp1149
a(g68
g6
(g18
S'\t|\n>'
p1150
tp1151
Rp1152
tp1153
a(g212
g6
(g18
S'\xcc\xc3\x1d='
p1154
tp1155
Rp1156
tp1157
a(g56
g6
(g18
S'\xce\xfb\xd2<'
p1158
tp1159
Rp1160
tp1161
a(g127
g6
(g18
S'\x18\xfb\xc8<'
p1162
tp1163
Rp1164
tp1165
asg73
g15
sa(dp1166
g2
S'../../../data/emanuela/activity-recognition/images/NTCIR-Lifelog-256/u2/2015-05-03/b00004001_21i7lf_20150503_170123e.jpg'
p1167
sg4
(lp1168
(g15
g6
(g18
S':\x84}?'
p1169
tp1170
Rp1171
tp1172
a(g56
g6
(g18
S'\xf3y\xd8;'
p1173
tp1174
Rp1175
tp1176
a(g68
g6
(g18
S'\x0bWN:'
p1177
tp1178
Rp1179
tp1180
a(g6
(g7
(S'S2'
p1181
I0
I1
tp1182
Rp1183
(I3
S'|'
p1184
NNNI2
I1
I0
tp1185
bS'tv'
p1186
tp1187
Rp1188
g6
(g18
S'\xf5P0:'
p1189
tp1190
Rp1191
tp1192
a(g493
g6
(g18
S'\xf4\x04\xec9'
p1193
tp1194
Rp1195
tp1196
asg73
g15
sa(dp1197
g2
S'../../../data/emanuela/activity-recognition/images/NTCIR-Lifelog-256/u2/2015-04-28/b00006647_21i7lf_20150428_123035e.jpg'
p1198
sg4
(lp1199
(g15
g6
(g18
S'\xb0e~?'
p1200
tp1201
Rp1202
tp1203
a(g56
g6
(g18
S'\xdc>\xb2;'
p1204
tp1205
Rp1206
tp1207
a(g104
g6
(g18
S'\xcd6\x879'
p1208
tp1209
Rp1210
tp1211
a(g493
g6
(g18
S'Qy\x1d9'
p1212
tp1213
Rp1214
tp1215
a(g32
g6
(g18
S'\x91\x14\xcf8'
p1216
tp1217
Rp1218
tp1219
asg73
g15
sa(dp1220
g2
S'../../../data/emanuela/activity-recognition/images/NTCIR-Lifelog-256/u2/2015-05-06/b00006595_21i7lf_20150506_122329e.jpg'
p1221
sg4
(lp1222
(g15
g6
(g18
S'\xd1\xb5{?'
p1223
tp1224
Rp1225
tp1226
a(g56
g6
(g18
S'tQ\x86<'
p1227
tp1228
Rp1229
tp1230
a(g104
g6
(g18
S'\x99$\xff8'
p1231
tp1232
Rp1233
tp1234
a(g68
g6
(g18
S'\xdb\x04\xd48'
p1235
tp1236
Rp1237
tp1238
a(g44
g6
(g18
S'\xc0\x11\x0e8'
p1239
tp1240
Rp1241
tp1242
asg73
g15
sa(dp1243
g2
S'../../../data/emanuela/activity-recognition/images/NTCIR-Lifelog-256/u2/2015-06-17/b00002274_21i7lf_20150617_120436e.jpg'
p1244
sg4
(lp1245
(g15
g6
(g18
S'\xc3\x0cf?'
p1246
tp1247
Rp1248
tp1249
a(g68
g6
(g18
S'\xa5w\xb0='
p1250
tp1251
Rp1252
tp1253
a(g127
g6
(g18
S'z\xd3\xbd;'
p1254
tp1255
Rp1256
tp1257
a(g44
g6
(g18
S'\xcc\xfa\x8d;'
p1258
tp1259
Rp1260
tp1261
a(g56
g6
(g18
S'*\x0e_;'
p1262
tp1263
Rp1264
tp1265
asg73
g15
sa(dp1266
g2
S'../../../data/emanuela/activity-recognition/images/NTCIR-Lifelog-256/u2/2015-04-22/b00001342_21i7lf_20150422_121440e.jpg'
p1267
sg4
(lp1268
(g15
g6
(g18
S'\xba\xb5~?'
p1269
tp1270
Rp1271
tp1272
a(g44
g6
(g18
S'\xd7\xd8\x7f;'
p1273
tp1274
Rp1275
tp1276
a(g56
g6
(g18
S'cH\x0e:'
p1277
tp1278
Rp1279
tp1280
a(g68
g6
(g18
S'\x08\xb9[9'
p1281
tp1282
Rp1283
tp1284
a(g127
g6
(g18
S'(\xaa\n9'
p1285
tp1286
Rp1287
tp1288
asg73
g15
sa(dp1289
g2
S'../../../data/emanuela/activity-recognition/images/NTCIR-Lifelog-256/u2/2015-04-29/b00000507_21i7lf_20150429_124250e.jpg'
p1290
sg4
(lp1291
(g15
g6
(g18
S'e3n?'
p1292
tp1293
Rp1294
tp1295
a(g68
g6
(g18
S'\xe7\xad>='
p1296
tp1297
Rp1298
tp1299
a(g56
g6
(g18
S'\xa3\xb9u<'
p1300
tp1301
Rp1302
tp1303
a(g493
g6
(g18
S'DJ\x8e;'
p1304
tp1305
Rp1306
tp1307
a(g32
g6
(g18
S'\x18\xaf\x93:'
p1308
tp1309
Rp1310
tp1311
asg73
g15
sa(dp1312
g2
S'../../../data/emanuela/activity-recognition/images/NTCIR-Lifelog-256/u2/2015-06-21/b00004693_21i7lf_20150621_080803e.jpg'
p1313
sg4
(lp1314
(g68
g6
(g18
S'\x07@\xc7>'
p1315
tp1316
Rp1317
tp1318
a(g127
g6
(g18
S'2\xbar>'
p1319
tp1320
Rp1321
tp1322
a(g44
g6
(g18
S'}u0>'
p1323
tp1324
Rp1325
tp1326
a(g56
g6
(g18
S'V#J='
p1327
tp1328
Rp1329
tp1330
a(g15
g6
(g18
S'\xc0\xaf\x1d='
p1331
tp1332
Rp1333
tp1334
asg73
g15
sa(dp1335
g2
S'../../../data/emanuela/activity-recognition/images/NTCIR-Lifelog-256/u2/2015-04-24/b00002324_21i7lf_20150424_131312e.jpg'
p1336
sg4
(lp1337
(g15
g6
(g18
S'\x99\xb1N?'
p1338
tp1339
Rp1340
tp1341
a(g56
g6
(g18
S'\xff9\x05>'
p1342
tp1343
Rp1344
tp1345
a(g68
g6
(g18
S'\x0e@\x15='
p1346
tp1347
Rp1348
tp1349
a(g127
g6
(g18
S',2\x02<'
p1350
tp1351
Rp1352
tp1353
a(g104
g6
(g18
S'?`\xf1;'
p1354
tp1355
Rp1356
tp1357
asg73
g15
sa(dp1358
g2
S'../../../data/emanuela/activity-recognition/images/NTCIR-Lifelog-256/u2/2015-04-30/b00001010_21i7lf_20150430_130512e.jpg'
p1359
sg4
(lp1360
(g15
g6
(g18
S'\x08\xa4w?'
p1361
tp1362
Rp1363
tp1364
a(g56
g6
(g18
S'\xf0\x0eL<'
p1365
tp1366
Rp1367
tp1368
a(g68
g6
(g18
S'\x8f\xb0\x1c<'
p1369
tp1370
Rp1371
tp1372
a(g32
g6
(g18
S'\xfcU\x83;'
p1373
tp1374
Rp1375
tp1376
a(g493
g6
(g18
S'G\xaa\xe3:'
p1377
tp1378
Rp1379
tp1380
asg73
g15
sa(dp1381
g2
S'../../../data/emanuela/activity-recognition/images/NTCIR-Lifelog-256/u2/2015-05-05/b00005738_21i7lf_20150505_161629e.jpg'
p1382
sg4
(lp1383
(g15
g6
(g18
S'D\xc6k?'
p1384
tp1385
Rp1386
tp1387
a(g56
g6
(g18
S'\x9c\x05\x90='
p1388
tp1389
Rp1390
tp1391
a(g68
g6
(g18
S'\xbf\xe3\x9f;'
p1392
tp1393
Rp1394
tp1395
a(g104
g6
(g18
S'\xc9#\xa2:'
p1396
tp1397
Rp1398
tp1399
a(g224
g6
(g18
S'\xbe\xb8\x8b:'
p1400
tp1401
Rp1402
tp1403
asg73
g15
sa(dp1404
g2
S'../../../data/emanuela/activity-recognition/images/NTCIR-Lifelog-256/u2/2015-04-28/b00006322_21i7lf_20150428_090931e.jpg'
p1405
sg4
(lp1406
(g56
g6
(g18
S'\x98j\x8e>'
p1407
tp1408
Rp1409
tp1410
a(g32
g6
(g18
S'\xa0\xffO>'
p1411
tp1412
Rp1413
tp1414
a(g68
g6
(g18
S'q\xdcM>'
p1415
tp1416
Rp1417
tp1418
a(g127
g6
(g18
S']\t\xfe='
p1419
tp1420
Rp1421
tp1422
a(g147
g6
(g18
S'b\x17O='
p1423
tp1424
Rp1425
tp1426
asg73
g15
sa(dp1427
g2
S'../../../data/emanuela/activity-recognition/images/NTCIR-Lifelog-256/u2/2015-04-24/b00002823_21i7lf_20150424_205430e.jpg'
p1428
sg4
(lp1429
(g15
g6
(g18
S'\xdb\xc2\x7f?'
p1430
tp1431
Rp1432
tp1433
a(g56
g6
(g18
S'I\xf9q:'
p1434
tp1435
Rp1436
tp1437
a(g68
g6
(g18
S'1)\x856'
p1438
tp1439
Rp1440
tp1441
a(g147
g6
(g18
S'\xde\xa1\xa15'
p1442
tp1443
Rp1444
tp1445
a(g44
g6
(g18
S'\xb6\xf7\x8a5'
p1446
tp1447
Rp1448
tp1449
asg73
g15
sa(dp1450
g2
S'../../../data/emanuela/activity-recognition/images/NTCIR-Lifelog-256/u2/2015-04-22/b00001341_21i7lf_20150422_121401e.jpg'
p1451
sg4
(lp1452
(g15
g6
(g18
S'P\x92}?'
p1453
tp1454
Rp1455
tp1456
a(g56
g6
(g18
S'\x15[\xb4;'
p1457
tp1458
Rp1459
tp1460
a(g32
g6
(g18
S'>Q\x83:'
p1461
tp1462
Rp1463
tp1464
a(g44
g6
(g18
S'p\x8fT:'
p1465
tp1466
Rp1467
tp1468
a(g92
g6
(g18
S'\x80p\x17:'
p1469
tp1470
Rp1471
tp1472
asg73
g15
sa(dp1473
g2
S'../../../data/emanuela/activity-recognition/images/NTCIR-Lifelog-256/u2/2015-05-01/b00002139_21i7lf_20150501_124740e.jpg'
p1474
sg4
(lp1475
(g15
g6
(g18
S'\x91\xed\x7f?'
p1476
tp1477
Rp1478
tp1479
a(g56
g6
(g18
S'\xb3\xca\x879'
p1480
tp1481
Rp1482
tp1483
a(g68
g6
(g18
S'\x90\xd6]7'
p1484
tp1485
Rp1486
tp1487
a(g147
g6
(g18
S'\x9bwB6'
p1488
tp1489
Rp1490
tp1491
a(g104
g6
(g18
S'o\xe056'
p1492
tp1493
Rp1494
tp1495
asg73
g15
sa(dp1496
g2
S'../../../data/emanuela/activity-recognition/images/NTCIR-Lifelog-256/u2/2015-06-19/b00003493_21i7lf_20150619_111230e.jpg'
p1497
sg4
(lp1498
(g15
g6
(g18
S'%gz?'
p1499
tp1500
Rp1501
tp1502
a(g56
g6
(g18
S'zyi<'
p1503
tp1504
Rp1505
tp1506
a(g68
g6
(g18
S'\xebj3;'
p1507
tp1508
Rp1509
tp1510
a(g224
g6
(g18
S'\x08\xa0\xc4:'
p1511
tp1512
Rp1513
tp1514
a(g92
g6
(g18
S'\xde\xab\xa6:'
p1515
tp1516
Rp1517
tp1518
asg73
g15
sa(dp1519
g2
S'../../../data/emanuela/activity-recognition/images/NTCIR-Lifelog-256/u2/2015-05-03/b00003998_21i7lf_20150503_165927e.jpg'
p1520
sg4
(lp1521
(g15
g6
(g18
S'{\xdc\x7f?'
p1522
tp1523
Rp1524
tp1525
a(g56
g6
(g18
S'\x0c\n\x9b9'
p1526
tp1527
Rp1528
tp1529
a(g493
g6
(g18
S'\xfb\xb4\xbc8'
p1530
tp1531
Rp1532
tp1533
a(g92
g6
(g18
S'\x8d(\x9c8'
p1534
tp1535
Rp1536
tp1537
a(g104
g6
(g18
S'cy\xd97'
p1538
tp1539
Rp1540
tp1541
asg73
g15
sa(dp1542
g2
S'../../../data/emanuela/activity-recognition/images/NTCIR-Lifelog-256/u2/2015-06-18/b00002807_21i7lf_20150618_120953e.jpg'
p1543
sg4
(lp1544
(g15
g6
(g18
S'z\xfb\x7f?'
p1545
tp1546
Rp1547
tp1548
a(g56
g6
(g18
S'\xf76\x8a8'
p1549
tp1550
Rp1551
tp1552
a(g44
g6
(g18
S'D\xbf\xc65'
p1553
tp1554
Rp1555
tp1556
a(g68
g6
(g18
S'%SK5'
p1557
tp1558
Rp1559
tp1560
a(g92
g6
(g18
S'\x84c\xe14'
p1561
tp1562
Rp1563
tp1564
asg73
g15
sa(dp1565
g2
S'../../../data/emanuela/activity-recognition/images/NTCIR-Lifelog-256/u2/2015-04-30/b00000822_21i7lf_20150430_111020e.jpg'
p1566
sg4
(lp1567
(g56
g6
(g18
S'\x1d\xdbP?'
p1568
tp1569
Rp1570
tp1571
a(g104
g6
(g18
S'`\x0e\x1b>'
p1572
tp1573
Rp1574
tp1575
a(g15
g6
(g18
S'y\x12\xba<'
p1576
tp1577
Rp1578
tp1579
a(g493
g6
(g18
S'N\x9f\xd1;'
p1580
tp1581
Rp1582
tp1583
a(g32
g6
(g18
S'*\xa3p:'
p1584
tp1585
Rp1586
tp1587
asg73
g15
sa(dp1588
g2
S'../../../data/emanuela/activity-recognition/images/NTCIR-Lifelog-256/u2/2015-05-03/b00004020_21i7lf_20150503_171301e.jpg'
p1589
sg4
(lp1590
(g15
g6
(g18
S'@\xeez?'
p1591
tp1592
Rp1593
tp1594
a(g56
g6
(g18
S'N\x97o<'
p1595
tp1596
Rp1597
tp1598
a(g68
g6
(g18
S'Am\xd5:'
p1599
tp1600
Rp1601
tp1602
a(g127
g6
(g18
S'\x1aFf:'
p1603
tp1604
Rp1605
tp1606
a(g32
g6
(g18
S'\xfd6\xd69'
p1607
tp1608
Rp1609
tp1610
asg73
g15
sa(dp1611
g2
S'../../../data/emanuela/activity-recognition/images/NTCIR-Lifelog-256/u2/2015-06-17/b00002273_21i7lf_20150617_120353e.jpg'
p1612
sg4
(lp1613
(g15
g6
(g18
S'_kt?'
p1614
tp1615
Rp1616
tp1617
a(g68
g6
(g18
S'\x9e\\\xa3<'
p1618
tp1619
Rp1620
tp1621
a(g44
g6
(g18
S'\xca8\x03<'
p1622
tp1623
Rp1624
tp1625
a(g127
g6
(g18
S'\xcb\xc8\xe9;'
p1626
tp1627
Rp1628
tp1629
a(g56
g6
(g18
S'\xa5\xe4\xcd;'
p1630
tp1631
Rp1632
tp1633
asg73
g15
sa(dp1634
g2
S'../../../data/emanuela/activity-recognition/images/NTCIR-Lifelog-256/u2/2015-06-18/b00002808_21i7lf_20150618_121033e.jpg'
p1635
sg4
(lp1636
(g15
g6
(g18
S'.\xde\x7f?'
p1637
tp1638
Rp1639
tp1640
a(g44
g6
(g18
S'\xb1\xf9\x02:'
p1641
tp1642
Rp1643
tp1644
a(g56
g6
(g18
S'\x0e\xf4\x916'
p1645
tp1646
Rp1647
tp1648
a(g32
g6
(g18
S'#\x91\x8b6'
p1649
tp1650
Rp1651
tp1652
a(g92
g6
(g18
S'\xcfT\x886'
p1653
tp1654
Rp1655
tp1656
asg73
g15
sa(dp1657
g2
S'../../../data/emanuela/activity-recognition/images/NTCIR-Lifelog-256/u2/2015-06-17/b00002349_21i7lf_20150617_125406e.jpg'
p1658
sg4
(lp1659
(g68
g6
(g18
S'lz\xfd>'
p1660
tp1661
Rp1662
tp1663
a(g44
g6
(g18
S'\xb1\xa2$>'
p1664
tp1665
Rp1666
tp1667
a(g712
g6
(g18
S'\x15q\x10>'
p1668
tp1669
Rp1670
tp1671
a(g127
g6
(g18
S'\x08=\xb3='
p1672
tp1673
Rp1674
tp1675
a(g15
g6
(g18
S'y\xc6,='
p1676
tp1677
Rp1678
tp1679
asg73
g15
sa(dp1680
g2
S'../../../data/emanuela/activity-recognition/images/NTCIR-Lifelog-256/u2/2015-05-08/b00008992_21i7lf_20150508_123303e.jpg'
p1681
sg4
(lp1682
(g15
g6
(g18
S'\x08\xaa}?'
p1683
tp1684
Rp1685
tp1686
a(g44
g6
(g18
S'i\xdf\xca;'
p1687
tp1688
Rp1689
tp1690
a(g56
g6
(g18
S'\xd7"\xa6:'
p1691
tp1692
Rp1693
tp1694
a(g127
g6
(g18
S'\x85\xcd\x01:'
p1695
tp1696
Rp1697
tp1698
a(g68
g6
(g18
S'\x81\x00\xb29'
p1699
tp1700
Rp1701
tp1702
asg73
g15
sa(dp1703
g2
S'../../../data/emanuela/activity-recognition/images/NTCIR-Lifelog-256/u2/2015-04-24/b00001935_21i7lf_20150424_091235e.jpg'
p1704
sg4
(lp1705
(g32
g6
(g18
S'\x9d\xa3>?'
p1706
tp1707
Rp1708
tp1709
a(g44
g6
(g18
S'\x9dq\xf4='
p1710
tp1711
Rp1712
tp1713
a(g127
g6
(g18
S'\x90\x93\x8d='
p1714
tp1715
Rp1716
tp1717
a(g68
g6
(g18
S'\x8a\x88\x0b='
p1718
tp1719
Rp1720
tp1721
a(g15
g6
(g18
S'd\xd5\x16<'
p1722
tp1723
Rp1724
tp1725
asg73
g15
sa(dp1726
g2
S'../../../data/emanuela/activity-recognition/images/NTCIR-Lifelog-256/u2/2015-05-01/b00002107_21i7lf_20150501_122805e.jpg'
p1727
sg4
(lp1728
(g712
g6
(g18
S'\xcc3\xa4>'
p1729
tp1730
Rp1731
tp1732
a(g68
g6
(g18
S'n\xbd\x9f>'
p1733
tp1734
Rp1735
tp1736
a(g56
g6
(g18
S'\xea\xc1\xbf='
p1737
tp1738
Rp1739
tp1740
a(g6
(g7
(S'S7'
p1741
I0
I1
tp1742
Rp1743
(I3
S'|'
p1744
NNNI7
I1
I0
tp1745
bS'meeting'
p1746
tp1747
Rp1748
g6
(g18
S'6\x7f\x84='
p1749
tp1750
Rp1751
tp1752
a(g15
g6
(g18
S'\xabB^='
p1753
tp1754
Rp1755
tp1756
asg73
g15
sa(dp1757
g2
S'../../../data/emanuela/activity-recognition/images/NTCIR-Lifelog-256/u2/2015-05-05/b00005740_21i7lf_20150505_161742e.jpg'
p1758
sg4
(lp1759
(g15
g6
(g18
S'\x19F}?'
p1760
tp1761
Rp1762
tp1763
a(g56
g6
(g18
S'\x832\x86;'
p1764
tp1765
Rp1766
tp1767
a(g68
g6
(g18
S'\x04\x12];'
p1768
tp1769
Rp1770
tp1771
a(g44
g6
(g18
S'}+\xbe:'
p1772
tp1773
Rp1774
tp1775
a(g127
g6
(g18
S'\xc2\xbb?:'
p1776
tp1777
Rp1778
tp1779
asg73
g15
sa(dp1780
g2
S'../../../data/emanuela/activity-recognition/images/NTCIR-Lifelog-256/u2/2015-04-24/b00002826_21i7lf_20150424_205618e.jpg'
p1781
sg4
(lp1782
(g15
g6
(g18
S'\xf3\xf1\x7f?'
p1783
tp1784
Rp1785
tp1786
a(g44
g6
(g18
S'N\x1cB9'
p1787
tp1788
Rp1789
tp1790
a(g56
g6
(g18
S'\xc3\xc5Q7'
p1791
tp1792
Rp1793
tp1794
a(g32
g6
(g18
S'\x98\xbe\x0c7'
p1795
tp1796
Rp1797
tp1798
a(g68
g6
(g18
S'\x12:}6'
p1799
tp1800
Rp1801
tp1802
asg73
g15
sa(dp1803
g2
S'../../../data/emanuela/activity-recognition/images/NTCIR-Lifelog-256/u2/2015-04-21/b00000327_21i7lf_20150421_131349e.jpg'
p1804
sg4
(lp1805
(g15
g6
(g18
S'\x94,~?'
p1806
tp1807
Rp1808
tp1809
a(g44
g6
(g18
S'\xd5H\x1f;'
p1810
tp1811
Rp1812
tp1813
a(g56
g6
(g18
S'a(\x15;'
p1814
tp1815
Rp1816
tp1817
a(g32
g6
(g18
S'\xc7iS:'
p1818
tp1819
Rp1820
tp1821
a(g68
g6
(g18
S'\x99 6:'
p1822
tp1823
Rp1824
tp1825
asg73
g15
sa(dp1826
g2
S'../../../data/emanuela/activity-recognition/images/NTCIR-Lifelog-256/u2/2015-04-24/b00002329_21i7lf_20150424_131614e.jpg'
p1827
sg4
(lp1828
(g15
g6
(g18
S'\xe52\xc6>'
p1829
tp1830
Rp1831
tp1832
a(g32
g6
(g18
S'\xc4w\x9a>'
p1833
tp1834
Rp1835
tp1836
a(g44
g6
(g18
S'\x02!">'
p1837
tp1838
Rp1839
tp1840
a(g147
g6
(g18
S'\x11o\xf9='
p1841
tp1842
Rp1843
tp1844
a(g68
g6
(g18
S'\xa6\xf3\x8d<'
p1845
tp1846
Rp1847
tp1848
asg73
g15
sa(dp1849
g2
S'../../../data/emanuela/activity-recognition/images/NTCIR-Lifelog-256/u2/2015-05-03/b00004014_21i7lf_20150503_170918e.jpg'
p1850
sg4
(lp1851
(g15
g6
(g18
S'6\xe4u?'
p1852
tp1853
Rp1854
tp1855
a(g56
g6
(g18
S'~s\x06='
p1856
tp1857
Rp1858
tp1859
a(g104
g6
(g18
S'\xb3v\xd1;'
p1860
tp1861
Rp1862
tp1863
a(g493
g6
(g18
S'\x87\xb6\n9'
p1864
tp1865
Rp1866
tp1867
a(g92
g6
(g18
S'\x88\xa5\x158'
p1868
tp1869
Rp1870
tp1871
asg73
g15
sa(dp1872
g2
S'../../../data/emanuela/activity-recognition/images/NTCIR-Lifelog-256/u2/2015-06-19/b00003241_21i7lf_20150619_084231e.jpg'
p1873
sg4
(lp1874
(g15
g6
(g18
S'\x1a\xb50?'
p1875
tp1876
Rp1877
tp1878
a(g56
g6
(g18
S'\xed\xca\x15>'
p1879
tp1880
Rp1881
tp1882
a(g68
g6
(g18
S'\xc7\x0e\xe5='
p1883
tp1884
Rp1885
tp1886
a(g147
g6
(g18
S'D\x86\x07='
p1887
tp1888
Rp1889
tp1890
a(g127
g6
(g18
S'\xe4b\r<'
p1891
tp1892
Rp1893
tp1894
asg73
g15
sa(dp1895
g2
S'../../../data/emanuela/activity-recognition/images/NTCIR-Lifelog-256/u2/2015-05-03/b00003935_21i7lf_20150503_161920e.jpg'
p1896
sg4
(lp1897
(g15
g6
(g18
S'X\xfb\xd0>'
p1898
tp1899
Rp1900
tp1901
a(g32
g6
(g18
S'\xf9\x8d\x8c>'
p1902
tp1903
Rp1904
tp1905
a(g68
g6
(g18
S'\xaa\xf3\x07>'
p1906
tp1907
Rp1908
tp1909
a(g44
g6
(g18
S'\x07\xcd\xa3='
p1910
tp1911
Rp1912
tp1913
a(g147
g6
(g18
S'\xad\xed\xee<'
p1914
tp1915
Rp1916
tp1917
asg73
g15
sa(dp1918
g2
S'../../../data/emanuela/activity-recognition/images/NTCIR-Lifelog-256/u2/2015-04-30/b00001009_21i7lf_20150430_130430e.jpg'
p1919
sg4
(lp1920
(g15
g6
(g18
S'z\x89o?'
p1921
tp1922
Rp1923
tp1924
a(g56
g6
(g18
S'\xfdG\x7f='
p1925
tp1926
Rp1927
tp1928
a(g104
g6
(g18
S'OU^:'
p1929
tp1930
Rp1931
tp1932
a(g712
g6
(g18
S'\xc3\xee\x06:'
p1933
tp1934
Rp1935
tp1936
a(g68
g6
(g18
S')\xc9C9'
p1937
tp1938
Rp1939
tp1940
asg73
g15
sa(dp1941
g2
S'../../../data/emanuela/activity-recognition/images/NTCIR-Lifelog-256/u2/2015-06-17/b00002375_21i7lf_20150617_131157e.jpg'
p1942
sg4
(lp1943
(g15
g6
(g18
S')\xe5\x7f?'
p1944
tp1945
Rp1946
tp1947
a(g44
g6
(g18
S'U\x1fQ9'
p1948
tp1949
Rp1950
tp1951
a(g56
g6
(g18
S'\x9e\xd8\x109'
p1952
tp1953
Rp1954
tp1955
a(g92
g6
(g18
S'ru+8'
p1956
tp1957
Rp1958
tp1959
a(g68
g6
(g18
S'\xf3JI7'
p1960
tp1961
Rp1962
tp1963
asg73
g15
sa(dp1964
g2
S'../../../data/emanuela/activity-recognition/images/NTCIR-Lifelog-256/u2/2015-06-16/b00001375_21i7lf_20150616_073638e.jpg'
p1965
sg4
(lp1966
(g6
(g7
(S'S7'
p1967
I0
I1
tp1968
Rp1969
(I3
S'|'
p1970
NNNI7
I1
I0
tp1971
bS'working'
p1972
tp1973
Rp1974
g6
(g18
S'\x83\x81\xac>'
p1975
tp1976
Rp1977
tp1978
a(g32
g6
(g18
S'eV\x92>'
p1979
tp1980
Rp1981
tp1982
a(g127
g6
(g18
S'~Y=>'
p1983
tp1984
Rp1985
tp1986
a(g1188
g6
(g18
S'\xd8\xdf\xcd='
p1987
tp1988
Rp1989
tp1990
a(g15
g6
(g18
S'Mh1='
p1991
tp1992
Rp1993
tp1994
asg73
g15
sa(dp1995
g2
S'../../../data/emanuela/activity-recognition/images/NTCIR-Lifelog-256/u2/2015-06-21/b00004695_21i7lf_20150621_080920e.jpg'
p1996
sg4
(lp1997
(g68
g6
(g18
S'l\x0b\xe5>'
p1998
tp1999
Rp2000
tp2001
a(g127
g6
(g18
S'KC(>'
p2002
tp2003
Rp2004
tp2005
a(g15
g6
(g18
S':(\xeb='
p2006
tp2007
Rp2008
tp2009
a(g56
g6
(g18
S'\xa5X\xb1='
p2010
tp2011
Rp2012
tp2013
a(g44
g6
(g18
S'`3\x99='
p2014
tp2015
Rp2016
tp2017
asg73
g15
sa(dp2018
g2
S'../../../data/emanuela/activity-recognition/images/NTCIR-Lifelog-256/u2/2015-04-24/b00002328_21i7lf_20150424_131537e.jpg'
p2019
sg4
(lp2020
(g15
g6
(g18
S'!*}?'
p2021
tp2022
Rp2023
tp2024
a(g56
g6
(g18
S'\xd3\xb6\x11<'
p2025
tp2026
Rp2027
tp2028
a(g68
g6
(g18
S'\xf6\xb1C:'
p2029
tp2030
Rp2031
tp2032
a(g44
g6
(g18
S'\x9e\xa5 :'
p2033
tp2034
Rp2035
tp2036
a(g147
g6
(g18
S'O\xf5\xc59'
p2037
tp2038
Rp2039
tp2040
asg73
g15
sa(dp2041
g2
S'../../../data/emanuela/activity-recognition/images/NTCIR-Lifelog-256/u2/2015-05-08/b00008990_21i7lf_20150508_123153e.jpg'
p2042
sg4
(lp2043
(g15
g6
(g18
S'\xca\xdfz?'
p2044
tp2045
Rp2046
tp2047
a(g56
g6
(g18
S'\x05\xaf\x91<'
p2048
tp2049
Rp2050
tp2051
a(g68
g6
(g18
S'.\xe8P:'
p2052
tp2053
Rp2054
tp2055
a(g493
g6
(g18
S'\xfa\x87\xda9'
p2056
tp2057
Rp2058
tp2059
a(g104
g6
(g18
S'\xb7K\xce9'
p2060
tp2061
Rp2062
tp2063
asg73
g15
sa(dp2064
g2
S'../../../data/emanuela/activity-recognition/images/NTCIR-Lifelog-256/u2/2015-05-01/b00002100_21i7lf_20150501_122358e.jpg'
p2065
sg4
(lp2066
(g15
g6
(g18
S'\xe7\xa6s?'
p2067
tp2068
Rp2069
tp2070
a(g56
g6
(g18
S'zv\xb9<'
p2071
tp2072
Rp2073
tp2074
a(g104
g6
(g18
S'\xf7\x14\x0e<'
p2075
tp2076
Rp2077
tp2078
a(g32
g6
(g18
S'\x18z\xdb;'
p2079
tp2080
Rp2081
tp2082
a(g493
g6
(g18
S'\x1e\xcc\n;'
p2083
tp2084
Rp2085
tp2086
asg73
g15
sa(dp2087
g2
S'../../../data/emanuela/activity-recognition/images/NTCIR-Lifelog-256/u2/2015-04-30/b00001008_21i7lf_20150430_130356e.jpg'
p2088
sg4
(lp2089
(g15
g6
(g18
S'\xda\xbe^?'
p2090
tp2091
Rp2092
tp2093
a(g56
g6
(g18
S'\x87\xe3\x02>'
p2094
tp2095
Rp2096
tp2097
a(g104
g6
(g18
S'\xb1\xc6\xa0:'
p2098
tp2099
Rp2100
tp2101
a(g68
g6
(g18
S'\x82\x01_9'
p2102
tp2103
Rp2104
tp2105
a(g493
g6
(g18
S'\x05Q(9'
p2106
tp2107
Rp2108
tp2109
asg73
g15
sa(dp2110
g2
S'../../../data/emanuela/activity-recognition/images/NTCIR-Lifelog-256/u2/2015-04-22/b00000757_21i7lf_20150422_204658e.jpg'
p2111
sg4
(lp2112
(g15
g6
(g18
S'U\x0e\x7f?'
p2113
tp2114
Rp2115
tp2116
a(g44
g6
(g18
S"\xb6'\xd5:"
p2117
tp2118
Rp2119
tp2120
a(g68
g6
(g18
S'\xd7\xa5s:'
p2121
tp2122
Rp2123
tp2124
a(g56
g6
(g18
S'L\xe1\x1e:'
p2125
tp2126
Rp2127
tp2128
a(g32
g6
(g18
S'P\x19\xe18'
p2129
tp2130
Rp2131
tp2132
asg73
g15
sa(dp2133
g2
S'../../../data/emanuela/activity-recognition/images/NTCIR-Lifelog-256/u2/2015-05-06/b00006596_21i7lf_20150506_122410e.jpg'
p2134
sg4
(lp2135
(g15
g6
(g18
S'\x88g}?'
p2136
tp2137
Rp2138
tp2139
a(g56
g6
(g18
S'\xe0\xcd\x12<'
p2140
tp2141
Rp2142
tp2143
a(g104
g6
(g18
S'\xb9QG:'
p2144
tp2145
Rp2146
tp2147
a(g493
g6
(g18
S'\xdb\xaa\xa78'
p2148
tp2149
Rp2150
tp2151
a(g900
g6
(g18
S'\xa9\x84\x878'
p2152
tp2153
Rp2154
tp2155
asg73
g15
sa(dp2156
g2
S'../../../data/emanuela/activity-recognition/images/NTCIR-Lifelog-256/u2/2015-04-20/b00000043_21i7lf_20150420_095930e.jpg'
p2157
sg4
(lp2158
(g15
g6
(g18
S'\xe4\x89\x12?'
p2159
tp2160
Rp2161
tp2162
a(g56
g6
(g18
S'\xf7\x03\xaf='
p2163
tp2164
Rp2165
tp2166
a(g32
g6
(g18
S'\xdf\xd5\x99='
p2167
tp2168
Rp2169
tp2170
a(g700
g6
(g18
S'\x8b\x8f\x84='
p2171
tp2172
Rp2173
tp2174
a(g92
g6
(g18
S'\xdazx='
p2175
tp2176
Rp2177
tp2178
asg73
g15
sa(dp2179
g2
S'../../../data/emanuela/activity-recognition/images/NTCIR-Lifelog-256/u2/2015-04-24/b00002330_21i7lf_20150424_131651e.jpg'
p2180
sg4
(lp2181
(g15
g6
(g18
S'\xe0\xf7@?'
p2182
tp2183
Rp2184
tp2185
a(g44
g6
(g18
S'\x9b\xafG>'
p2186
tp2187
Rp2188
tp2189
a(g32
g6
(g18
S'\xda\xf7\x0c='
p2190
tp2191
Rp2192
tp2193
a(g147
g6
(g18
S'\x0b\xf8+<'
p2194
tp2195
Rp2196
tp2197
a(g68
g6
(g18
S'\xb2\x07\x8b;'
p2198
tp2199
Rp2200
tp2201
asg73
g15
sa(dp2202
g2
S'../../../data/emanuela/activity-recognition/images/NTCIR-Lifelog-256/u2/2015-05-05/b00005743_21i7lf_20150505_161932e.jpg'
p2203
sg4
(lp2204
(g15
g6
(g18
S'\xd6\xf6\x7f?'
p2205
tp2206
Rp2207
tp2208
a(g56
g6
(g18
S'-\xf3\xbf8'
p2209
tp2210
Rp2211
tp2212
a(g44
g6
(g18
S'\x1d\xf0\x078'
p2213
tp2214
Rp2215
tp2216
a(g92
g6
(g18
S'\xa0\x8f\t7'
p2217
tp2218
Rp2219
tp2220
a(g104
g6
(g18
S'\x8e!\xc75'
p2221
tp2222
Rp2223
tp2224
asg73
g15
sa(dp2225
g2
S'../../../data/emanuela/activity-recognition/images/NTCIR-Lifelog-256/u2/2015-06-19/b00003239_21i7lf_20150619_084200e.jpg'
p2226
sg4
(lp2227
(g15
g6
(g18
S'0&l?'
p2228
tp2229
Rp2230
tp2231
a(g68
g6
(g18
S'\x19\xfd\x02='
p2232
tp2233
Rp2234
tp2235
a(g56
g6
(g18
S'00j<'
p2236
tp2237
Rp2238
tp2239
a(g1188
g6
(g18
S'\xdf\x1b.<'
p2240
tp2241
Rp2242
tp2243
a(g127
g6
(g18
S'\xa5h\x11<'
p2244
tp2245
Rp2246
tp2247
asg73
g15
sa(dp2248
g2
S'../../../data/emanuela/activity-recognition/images/NTCIR-Lifelog-256/u2/2015-04-24/b00001933_21i7lf_20150424_091122e (1).jpg'
p2249
sg4
(lp2250
(g32
g6
(g18
S'\xf0cD?'
p2251
tp2252
Rp2253
tp2254
a(g147
g6
(g18
S'\xb8\xa1\r>'
p2255
tp2256
Rp2257
tp2258
a(g68
g6
(g18
S'_\xe9\xf0<'
p2259
tp2260
Rp2261
tp2262
a(g56
g6
(g18
S'\x8d\xba\xd2<'
p2263
tp2264
Rp2265
tp2266
a(g44
g6
(g18
S'K$\xaa<'
p2267
tp2268
Rp2269
tp2270
asg73
g15
sa(dp2271
g2
S'../../../data/emanuela/activity-recognition/images/NTCIR-Lifelog-256/u2/2015-05-06/b00006306_21i7lf_20150506_092206e.jpg'
p2272
sg4
(lp2273
(g56
g6
(g18
S'\xddl\x07?'
p2274
tp2275
Rp2276
tp2277
a(g493
g6
(g18
S'$\x1d\xc1='
p2278
tp2279
Rp2280
tp2281
a(g104
g6
(g18
S'-}\xb6='
p2282
tp2283
Rp2284
tp2285
a(g147
g6
(g18
S'?\x85\x9a='
p2286
tp2287
Rp2288
tp2289
a(g127
g6
(g18
S'l\x963='
p2290
tp2291
Rp2292
tp2293
asg73
g15
sa(dp2294
g2
S'../../../data/emanuela/activity-recognition/images/NTCIR-Lifelog-256/u2/2015-05-08/b00008988_21i7lf_20150508_123036e.jpg'
p2295
sg4
(lp2296
(g15
g6
(g18
S'(\x83~?'
p2297
tp2298
Rp2299
tp2300
a(g56
g6
(g18
S'.\xc2/;'
p2301
tp2302
Rp2303
tp2304
a(g68
g6
(g18
S'4\x0c\x89:'
p2305
tp2306
Rp2307
tp2308
a(g44
g6
(g18
S"|'\x83:"
p2309
tp2310
Rp2311
tp2312
a(g712
g6
(g18
S'\x1e\x88\x959'
p2313
tp2314
Rp2315
tp2316
asg73
g15
sa(dp2317
g2
S'../../../data/emanuela/activity-recognition/images/NTCIR-Lifelog-256/u2/2015-04-29/b00000509_21i7lf_20150429_124401e.jpg'
p2318
sg4
(lp2319
(g15
g6
(g18
S'\x08\xd3\x7f?'
p2320
tp2321
Rp2322
tp2323
a(g56
g6
(g18
S'\x14k\xf29'
p2324
tp2325
Rp2326
tp2327
a(g224
g6
(g18
S'f\x0c\xef8'
p2328
tp2329
Rp2330
tp2331
a(g493
g6
(g18
S'\x03\xd2E8'
p2332
tp2333
Rp2334
tp2335
a(g68
g6
(g18
S'\x80\x08\xbe7'
p2336
tp2337
Rp2338
tp2339
asg73
g15
sa(dp2340
g2
S'../../../data/emanuela/activity-recognition/images/NTCIR-Lifelog-256/u2/2015-05-05/b00005741_21i7lf_20150505_161823e.jpg'
p2341
sg4
(lp2342
(g15
g6
(g18
S'A\x9e\x7f?'
p2343
tp2344
Rp2345
tp2346
a(g44
g6
(g18
S'<\x97\xb1:'
p2347
tp2348
Rp2349
tp2350
a(g32
g6
(g18
S'g\x19\xb28'
p2351
tp2352
Rp2353
tp2354
a(g92
g6
(g18
S' \xbab7'
p2355
tp2356
Rp2357
tp2358
a(g56
g6
(g18
S':\nM7'
p2359
tp2360
Rp2361
tp2362
asg73
g15
sa(dp2363
g2
S'../../../data/emanuela/activity-recognition/images/NTCIR-Lifelog-256/u2/2015-04-28/b00006686_21i7lf_20150428_125444e.jpg'
p2364
sg4
(lp2365
(g15
g6
(g18
S'\x01\x95\x7f?'
p2366
tp2367
Rp2368
tp2369
a(g56
g6
(g18
S'\xc1\x0c#:'
p2370
tp2371
Rp2372
tp2373
a(g68
g6
(g18
S'\x97\x82\x05:'
p2374
tp2375
Rp2376
tp2377
a(g493
g6
(g18
S'ZP\x1e9'
p2378
tp2379
Rp2380
tp2381
a(g224
g6
(g18
S'h\xaa\xa88'
p2382
tp2383
Rp2384
tp2385
asg73
g15
sa(dp2386
g2
S'../../../data/emanuela/activity-recognition/images/NTCIR-Lifelog-256/u2/2015-05-03/b00003996_21i7lf_20150503_165813e.jpg'
p2387
sg4
(lp2388
(g15
g6
(g18
S'\xd4Qx?'
p2389
tp2390
Rp2391
tp2392
a(g56
g6
(g18
S'R\xd8u<'
p2393
tp2394
Rp2395
tp2396
a(g32
g6
(g18
S'`\xb2\x17;'
p2397
tp2398
Rp2399
tp2400
a(g493
g6
(g18
S'\x87#\x14;'
p2401
tp2402
Rp2403
tp2404
a(g1188
g6
(g18
S'\xe5\x84\t;'
p2405
tp2406
Rp2407
tp2408
asg73
g15
sa(dp2409
g2
S'../../../data/emanuela/activity-recognition/images/NTCIR-Lifelog-256/u2/2015-06-17/b00002269_21i7lf_20150617_120102e.jpg'
p2410
sg4
(lp2411
(g68
g6
(g18
S'\xca\xc2\xf8>'
p2412
tp2413
Rp2414
tp2415
a(g15
g6
(g18
S'?\x89\xbd>'
p2416
tp2417
Rp2418
tp2419
a(g56
g6
(g18
S'b\xc6s='
p2420
tp2421
Rp2422
tp2423
a(g127
g6
(g18
S'\xf5\xb3K='
p2424
tp2425
Rp2426
tp2427
a(g212
g6
(g18
S'\x9a\x072<'
p2428
tp2429
Rp2430
tp2431
asg73
g15
sa(dp2432
g2
S'../../../data/emanuela/activity-recognition/images/NTCIR-Lifelog-256/u2/2015-04-24/b00002829_21i7lf_20150424_205808e.jpg'
p2433
sg4
(lp2434
(g15
g6
(g18
S'\xbc\x87~?'
p2435
tp2436
Rp2437
tp2438
a(g56
g6
(g18
S'9b\xa5;'
p2439
tp2440
Rp2441
tp2442
a(g92
g6
(g18
S'\x9a\x1em9'
p2443
tp2444
Rp2445
tp2446
a(g44
g6
(g18
S'\xb0\xec\x089'
p2447
tp2448
Rp2449
tp2450
a(g712
g6
(g18
S'\xd1\xf8\xbe8'
p2451
tp2452
Rp2453
tp2454
asg73
g15
sa(dp2455
g2
S'../../../data/emanuela/activity-recognition/images/NTCIR-Lifelog-256/u2/2015-05-03/b00004018_21i7lf_20150503_171144e.jpg'
p2456
sg4
(lp2457
(g15
g6
(g18
S'\x9act?'
p2458
tp2459
Rp2460
tp2461
a(g56
g6
(g18
S'et+='
p2462
tp2463
Rp2464
tp2465
a(g68
g6
(g18
S'\xd9^\xa2:'
p2466
tp2467
Rp2468
tp2469
a(g493
g6
(g18
S'D\xb0\x0e:'
p2470
tp2471
Rp2472
tp2473
a(g104
g6
(g18
S'y|\xe49'
p2474
tp2475
Rp2476
tp2477
asg73
g15
sa(dp2478
g2
S'../../../data/emanuela/activity-recognition/images/NTCIR-Lifelog-256/u2/2015-06-19/b00003494_21i7lf_20150619_111311e.jpg'
p2479
sg4
(lp2480
(g15
g6
(g18
S'\xce\xf9\x7f?'
p2481
tp2482
Rp2483
tp2484
a(g56
g6
(g18
S'\x80\x0c|8'
p2485
tp2486
Rp2487
tp2488
a(g44
g6
(g18
S'XB\x947'
p2489
tp2490
Rp2491
tp2492
a(g68
g6
(g18
S'\x11\xb9I7'
p2493
tp2494
Rp2495
tp2496
a(g1188
g6
(g18
S'W\x1c\xed5'
p2497
tp2498
Rp2499
tp2500
asg73
g15
sa(dp2501
g2
S'../../../data/emanuela/activity-recognition/images/NTCIR-Lifelog-256/u2/2015-04-24/b00002331_21i7lf_20150424_131717e.jpg'
p2502
sg4
(lp2503
(g15
g6
(g18
S'\\fz?'
p2504
tp2505
Rp2506
tp2507
a(g44
g6
(g18
S'\x93\xe9W<'
p2508
tp2509
Rp2510
tp2511
a(g32
g6
(g18
S'g>\xfb;'
p2512
tp2513
Rp2514
tp2515
a(g147
g6
(g18
S'\x80\x9aU:'
p2516
tp2517
Rp2518
tp2519
a(g56
g6
(g18
S'\xb5\xe9\x828'
p2520
tp2521
Rp2522
tp2523
asg73
g15
sa(dp2524
g2
S'../../../data/emanuela/activity-recognition/images/NTCIR-Lifelog-256/u2/2015-04-23/b00000854_21i7lf_20150423_093021e.jpg'
p2525
sg4
(lp2526
(g15
g6
(g18
S'MR\xd4>'
p2527
tp2528
Rp2529
tp2530
a(g32
g6
(g18
S'\xb6\\\x9b>'
p2531
tp2532
Rp2533
tp2534
a(g44
g6
(g18
S't\xe0H>'
p2535
tp2536
Rp2537
tp2538
a(g68
g6
(g18
S'f(\x02='
p2539
tp2540
Rp2541
tp2542
a(g56
g6
(g18
S'!@\xc3<'
p2543
tp2544
Rp2545
tp2546
asg73
g15
sa(dp2547
g2
S'../../../data/emanuela/activity-recognition/images/NTCIR-Lifelog-256/u2/2015-05-05/b00005742_21i7lf_20150505_161859e.jpg'
p2548
sg4
(lp2549
(g15
g6
(g18
S'\x00\xfb\x7f?'
p2550
tp2551
Rp2552
tp2553
a(g56
g6
(g18
S'\x7fK\x968'
p2554
tp2555
Rp2556
tp2557
a(g44
g6
(g18
S'\xfa~\xcc5'
p2558
tp2559
Rp2560
tp2561
a(g92
g6
(g18
S'f$\x835'
p2562
tp2563
Rp2564
tp2565
a(g68
g6
(g18
S'!\xe9}5'
p2566
tp2567
Rp2568
tp2569
asg73
g15
sa(dp2570
g2
S'../../../data/emanuela/activity-recognition/images/NTCIR-Lifelog-256/u2/2015-04-24/b00002821_21i7lf_20150424_205317e.jpg'
p2571
sg4
(lp2572
(g15
g6
(g18
S'?\xe6\x7f?'
p2573
tp2574
Rp2575
tp2576
a(g56
g6
(g18
S'\x8d\xa5\xaa9'
p2577
tp2578
Rp2579
tp2580
a(g104
g6
(g18
S'\rQ\x168'
p2581
tp2582
Rp2583
tp2584
a(g68
g6
(g18
S'>8p7'
p2585
tp2586
Rp2587
tp2588
a(g92
g6
(g18
S'\xee\xc8\xb06'
p2589
tp2590
Rp2591
tp2592
asg73
g15
sa(dp2593
g2
S'../../../data/emanuela/activity-recognition/images/NTCIR-Lifelog-256/u2/2015-04-23/b00001233_21i7lf_20150423_142843e.jpg'
p2594
sg4
(lp2595
(g15
g6
(g18
S':1\xaf>'
p2596
tp2597
Rp2598
tp2599
a(g68
g6
(g18
S'\x10\xdeX>'
p2600
tp2601
Rp2602
tp2603
a(g56
g6
(g18
S'\xcf\xa0\x10>'
p2604
tp2605
Rp2606
tp2607
a(g127
g6
(g18
S'\xa57\xa1='
p2608
tp2609
Rp2610
tp2611
a(g44
g6
(g18
S'\x1f\x19\x80='
p2612
tp2613
Rp2614
tp2615
asg73
g15
sa(dp2616
g2
S'../../../data/emanuela/activity-recognition/images/NTCIR-Lifelog-256/u2/2015-05-08/b00008984_21i7lf_20150508_122813e.jpg'
p2617
sg4
(lp2618
(g15
g6
(g18
S'X,j?'
p2619
tp2620
Rp2621
tp2622
a(g44
g6
(g18
S'\xe4a\x81='
p2623
tp2624
Rp2625
tp2626
a(g68
g6
(g18
S'\xfc\xc2\xc9;'
p2627
tp2628
Rp2629
tp2630
a(g56
g6
(g18
S'\xb0\xb7\xa4;'
p2631
tp2632
Rp2633
tp2634
a(g127
g6
(g18
S'\xa3d\x8e;'
p2635
tp2636
Rp2637
tp2638
asg73
g15
sa(dp2639
g2
S'../../../data/emanuela/activity-recognition/images/NTCIR-Lifelog-256/u2/2015-04-20/b00000280_21i7lf_20150420_122638e.jpg'
p2640
sg4
(lp2641
(g15
g6
(g18
S'\x8f\xb2v?'
p2642
tp2643
Rp2644
tp2645
a(g56
g6
(g18
S'?!\xda<'
p2646
tp2647
Rp2648
tp2649
a(g68
g6
(g18
S'\xabx\xd0;'
p2650
tp2651
Rp2652
tp2653
a(g44
g6
(g18
S'\x89\xd3\x8c:'
p2654
tp2655
Rp2656
tp2657
a(g224
g6
(g18
S'V\xe0*:'
p2658
tp2659
Rp2660
tp2661
asg73
g15
sa(dp2662
g2
S'../../../data/emanuela/activity-recognition/images/NTCIR-Lifelog-256/u2/2015-06-20/b00004560_21i7lf_20150620_121519e.jpg'
p2663
sg4
(lp2664
(g15
g6
(g18
S'\x01\xd7b?'
p2665
tp2666
Rp2667
tp2668
a(g68
g6
(g18
S'B-\xac='
p2669
tp2670
Rp2671
tp2672
a(g44
g6
(g18
S'\\\xc6\x9d<'
p2673
tp2674
Rp2675
tp2676
a(g127
g6
(g18
S'\x04\x1f\x8b;'
p2677
tp2678
Rp2679
tp2680
a(g56
g6
(g18
S'\x11z\x19;'
p2681
tp2682
Rp2683
tp2684
asg73
g15
sa(dp2685
g2
S'../../../data/emanuela/activity-recognition/images/NTCIR-Lifelog-256/u2/2015-04-20/b00000045_21i7lf_20150420_100046e.jpg'
p2686
sg4
(lp2687
(g15
g6
(g18
S'=\xa9<?'
p2688
tp2689
Rp2690
tp2691
a(g56
g6
(g18
S'\xad|\xc0='
p2692
tp2693
Rp2694
tp2695
a(g92
g6
(g18
S'\x82\xf6y='
p2696
tp2697
Rp2698
tp2699
a(g32
g6
(g18
S'Ax\xf6<'
p2700
tp2701
Rp2702
tp2703
a(g700
g6
(g18
S'Y\xbc\xd2<'
p2704
tp2705
Rp2706
tp2707
asg73
g15
sa(dp2708
g2
S'../../../data/emanuela/activity-recognition/images/NTCIR-Lifelog-256/u2/2015-04-21/b00000125_21i7lf_20150421_110404e.jpg'
p2709
sg4
(lp2710
(g68
g6
(g18
S'JH\xf2>'
p2711
tp2712
Rp2713
tp2714
a(g127
g6
(g18
S'e\x05\\>'
p2715
tp2716
Rp2717
tp2718
a(g44
g6
(g18
S'\xa5\xad\xb6='
p2719
tp2720
Rp2721
tp2722
a(g104
g6
(g18
S'u\x11v='
p2723
tp2724
Rp2725
tp2726
a(g56
g6
(g18
S'\xd6_\x0f='
p2727
tp2728
Rp2729
tp2730
asg73
g15
sa(dp2731
g2
S'../../../data/emanuela/activity-recognition/images/NTCIR-Lifelog-256/u2/2015-06-21/b00005056_21i7lf_20150621_122112e.jpg'
p2732
sg4
(lp2733
(g712
g6
(g18
S'h\xb3\xd5>'
p2734
tp2735
Rp2736
tp2737
a(g1748
g6
(g18
S'W\x1e\x19>'
p2738
tp2739
Rp2740
tp2741
a(g127
g6
(g18
S':\xe7\x07>'
p2742
tp2743
Rp2744
tp2745
a(g1188
g6
(g18
S'J\x8c\xd0='
p2746
tp2747
Rp2748
tp2749
a(g56
g6
(g18
S'\x17\x92?='
p2750
tp2751
Rp2752
tp2753
asg73
g15
sa(dp2754
g2
S'../../../data/emanuela/activity-recognition/images/NTCIR-Lifelog-256/u2/2015-06-21/b00004690_21i7lf_20150621_080608e.jpg'
p2755
sg4
(lp2756
(g15
g6
(g18
S'\xcf:`?'
p2757
tp2758
Rp2759
tp2760
a(g56
g6
(g18
S'\xdeb\xfa='
p2761
tp2762
Rp2763
tp2764
a(g104
g6
(g18
S'\xc9U\x93:'
p2765
tp2766
Rp2767
tp2768
a(g147
g6
(g18
S'-\x82\x9e9'
p2769
tp2770
Rp2771
tp2772
a(g712
g6
(g18
S'!\xd8\x8a8'
p2773
tp2774
Rp2775
tp2776
asg73
g15
sa(dp2777
g2
S'../../../data/emanuela/activity-recognition/images/NTCIR-Lifelog-256/u2/2015-04-30/b00000824_21i7lf_20150430_111131e.jpg'
p2778
sg4
(lp2779
(g92
g6
(g18
S'\x18G\xa2>'
p2780
tp2781
Rp2782
tp2783
a(g700
g6
(g18
S':\xb5\x9c>'
p2784
tp2785
Rp2786
tp2787
a(g1974
g6
(g18
S'\xf2e\xd2='
p2788
tp2789
Rp2790
tp2791
a(g900
g6
(g18
S'Z\r\x9e='
p2792
tp2793
Rp2794
tp2795
a(g32
g6
(g18
S'J\x90\x97='
p2796
tp2797
Rp2798
tp2799
asg73
g15
sa(dp2800
g2
S'../../../data/emanuela/activity-recognition/images/NTCIR-Lifelog-256/u2/2015-04-20/b00000279_21i7lf_20150420_122604e.jpg'
p2801
sg4
(lp2802
(g15
g6
(g18
S'\x96\xf7y?'
p2803
tp2804
Rp2805
tp2806
a(g56
g6
(g18
S'if\xb3<'
p2807
tp2808
Rp2809
tp2810
a(g68
g6
(g18
S'\xa4\x98E:'
p2811
tp2812
Rp2813
tp2814
a(g212
g6
(g18
S'\x0b\xc0\x889'
p2815
tp2816
Rp2817
tp2818
a(g104
g6
(g18
S'C\xf9I9'
p2819
tp2820
Rp2821
tp2822
asg73
g15
sa(dp2823
g2
S'../../../data/emanuela/activity-recognition/images/NTCIR-Lifelog-256/u2/2015-05-03/b00004019_21i7lf_20150503_171223e.jpg'
p2824
sg4
(lp2825
(g15
g6
(g18
S'!\xf6_?'
p2826
tp2827
Rp2828
tp2829
a(g56
g6
(g18
S'\x1a\x8a\xcc='
p2830
tp2831
Rp2832
tp2833
a(g68
g6
(g18
S'\xb8\x97\xf2;'
p2834
tp2835
Rp2836
tp2837
a(g224
g6
(g18
S'\x1b\xcb\xb2;'
p2838
tp2839
Rp2840
tp2841
a(g212
g6
(g18
S')?\xac;'
p2842
tp2843
Rp2844
tp2845
asg73
g15
sa(dp2846
g2
S'../../../data/emanuela/activity-recognition/images/NTCIR-Lifelog-256/u2/2015-05-03/b00003999_21i7lf_20150503_170008e.jpg'
p2847
sg4
(lp2848
(g15
g6
(g18
S'\xbe\xde~?'
p2849
tp2850
Rp2851
tp2852
a(g56
g6
(g18
S'\x81\t\xef:'
p2853
tp2854
Rp2855
tp2856
a(g493
g6
(g18
S'\x81Uh:'
p2857
tp2858
Rp2859
tp2860
a(g32
g6
(g18
S'\xdeZ\xc79'
p2861
tp2862
Rp2863
tp2864
a(g92
g6
(g18
S'\xce\x0e\xaf9'
p2865
tp2866
Rp2867
tp2868
asg73
g15
sa(dp2869
g2
S'../../../data/emanuela/activity-recognition/images/NTCIR-Lifelog-256/u2/2015-04-28/b00006644_21i7lf_20150428_122845e.jpg'
p2870
sg4
(lp2871
(g15
g6
(g18
S'\x9e\xca}?'
p2872
tp2873
Rp2874
tp2875
a(g56
g6
(g18
S'\xe6\xf1\xcf;'
p2876
tp2877
Rp2878
tp2879
a(g68
g6
(g18
S'\xdb\x9c\xfc:'
p2880
tp2881
Rp2882
tp2883
a(g44
g6
(g18
S'Q|\xbe8'
p2884
tp2885
Rp2886
tp2887
a(g104
g6
(g18
S'\xb4}\xb88'
p2888
tp2889
Rp2890
tp2891
asg73
g15
sa(dp2892
g2
S'../../../data/emanuela/activity-recognition/images/NTCIR-Lifelog-256/u2/2015-04-24/b00002817_21i7lf_20150424_205034e.jpg'
p2893
sg4
(lp2894
(g15
g6
(g18
S'6|{?'
p2895
tp2896
Rp2897
tp2898
a(g56
g6
(g18
S'?m\x1f<'
p2899
tp2900
Rp2901
tp2902
a(g68
g6
(g18
S'\xab\t\xa2;'
p2903
tp2904
Rp2905
tp2906
a(g127
g6
(g18
S'|pF:'
p2907
tp2908
Rp2909
tp2910
a(g212
g6
(g18
S'(\xfd\xf49'
p2911
tp2912
Rp2913
tp2914
asg73
g15
sa(dp2915
g2
S'../../../data/emanuela/activity-recognition/images/NTCIR-Lifelog-256/u2/2015-04-21/b00000318_21i7lf_20150421_130815e.jpg'
p2916
sg4
(lp2917
(g15
g6
(g18
S'Z\xcfz?'
p2918
tp2919
Rp2920
tp2921
a(g56
g6
(g18
S'\xb0y1<'
p2922
tp2923
Rp2924
tp2925
a(g68
g6
(g18
S'\xf7Y\xaf;'
p2926
tp2927
Rp2928
tp2929
a(g44
g6
(g18
S'\x91n\x17;'
p2930
tp2931
Rp2932
tp2933
a(g32
g6
(g18
S'\x9a\xf6|:'
p2934
tp2935
Rp2936
tp2937
asg73
g15
sa(dp2938
g2
S'../../../data/emanuela/activity-recognition/images/NTCIR-Lifelog-256/u2/2015-05-05/b00005744_21i7lf_20150505_162007e.jpg'
p2939
sg4
(lp2940
(g15
g6
(g18
S'cY\x7f?'
p2941
tp2942
Rp2943
tp2944
a(g44
g6
(g18
S'[\x1a\xa9:'
p2945
tp2946
Rp2947
tp2948
a(g56
g6
(g18
S'n\x14\xc49'
p2949
tp2950
Rp2951
tp2952
a(g92
g6
(g18
S'\xd3\xfa\x909'
p2953
tp2954
Rp2955
tp2956
a(g32
g6
(g18
S'\x84\x91W9'
p2957
tp2958
Rp2959
tp2960
asg73
g15
sa(dp2961
g2
S'../../../data/emanuela/activity-recognition/images/NTCIR-Lifelog-256/u2/2015-05-01/b00002104_21i7lf_20150501_122623e.jpg'
p2962
sg4
(lp2963
(g15
g6
(g18
S'S\xf7t?'
p2964
tp2965
Rp2966
tp2967
a(g56
g6
(g18
S'\xbb\x95Z<'
p2968
tp2969
Rp2970
tp2971
a(g44
g6
(g18
S'\x07\xe7\x0e<'
p2972
tp2973
Rp2974
tp2975
a(g68
g6
(g18
S'o\xa9\x04<'
p2976
tp2977
Rp2978
tp2979
a(g32
g6
(g18
S'\x9f\x1a\xcb;'
p2980
tp2981
Rp2982
tp2983
asg73
g15
sa(dp2984
g2
S'../../../data/emanuela/activity-recognition/images/NTCIR-Lifelog-256/u2/2015-06-20/b00004561_21i7lf_20150620_121559e.jpg'
p2985
sg4
(lp2986
(g15
g6
(g18
S'\xf5R}?'
p2987
tp2988
Rp2989
tp2990
a(g44
g6
(g18
S'\xda\x14\xdc;'
p2991
tp2992
Rp2993
tp2994
a(g56
g6
(g18
S'\xee\xb7\xcd:'
p2995
tp2996
Rp2997
tp2998
a(g68
g6
(g18
S'\xd6|\xae:'
p2999
tp3000
Rp3001
tp3002
a(g92
g6
(g18
S'\xe7\xe7\x919'
p3003
tp3004
Rp3005
tp3006
asg73
g15
sa(dp3007
g2
S'../../../data/emanuela/activity-recognition/images/NTCIR-Lifelog-256/u2/2015-05-03/b00004007_21i7lf_20150503_170458e.jpg'
p3008
sg4
(lp3009
(g15
g6
(g18
S'\xa3\xe6\x7f?'
p3010
tp3011
Rp3012
tp3013
a(g56
g6
(g18
S'\x97\xa9b9'
p3014
tp3015
Rp3016
tp3017
a(g92
g6
(g18
S'W1\xe48'
p3018
tp3019
Rp3020
tp3021
a(g44
g6
(g18
S'v\xa1\xda7'
p3022
tp3023
Rp3024
tp3025
a(g32
g6
(g18
S'|A\x967'
p3026
tp3027
Rp3028
tp3029
asg73
g15
sa(dp3030
g2
S'../../../data/emanuela/activity-recognition/images/NTCIR-Lifelog-256/u2/2015-06-19/b00003238_21i7lf_20150619_084138e.jpg'
p3031
sg4
(lp3032
(g712
g6
(g18
S'{W\xd1>'
p3033
tp3034
Rp3035
tp3036
a(g56
g6
(g18
S'Q%\xcb>'
p3037
tp3038
Rp3039
tp3040
a(g68
g6
(g18
S'G{\x86='
p3041
tp3042
Rp3043
tp3044
a(g15
g6
(g18
S'Lq\x14='
p3045
tp3046
Rp3047
tp3048
a(g212
g6
(g18
S'\xaaM\xfe<'
p3049
tp3050
Rp3051
tp3052
asg73
g15
sa(dp3053
g2
S'../../../data/emanuela/activity-recognition/images/NTCIR-Lifelog-256/u2/2015-06-21/b00004694_21i7lf_20150621_080840e.jpg'
p3054
sg4
(lp3055
(g15
g6
(g18
S'\xe2\x08\xc7>'
p3056
tp3057
Rp3058
tp3059
a(g68
g6
(g18
S'f\xb5N>'
p3060
tp3061
Rp3062
tp3063
a(g127
g6
(g18
S'U\xaeA>'
p3064
tp3065
Rp3066
tp3067
a(g44
g6
(g18
S'\xdfv\xd8='
p3068
tp3069
Rp3070
tp3071
a(g56
g6
(g18
S'\xfa\xb4B='
p3072
tp3073
Rp3074
tp3075
asg73
g15
sa(dp3076
g2
S'../../../data/emanuela/activity-recognition/images/NTCIR-Lifelog-256/u2/2015-04-24/b00002822_21i7lf_20150424_205351e.jpg'
p3077
sg4
(lp3078
(g15
g6
(g18
S'\x03\xad\x7f?'
p3079
tp3080
Rp3081
tp3082
a(g56
g6
(g18
S'\xdc\x7f\xa2:'
p3083
tp3084
Rp3085
tp3086
a(g68
g6
(g18
S'\x81\x9e\xfb6'
p3087
tp3088
Rp3089
tp3090
a(g104
g6
(g18
S'\x86\xe5\xe46'
p3091
tp3092
Rp3093
tp3094
a(g92
g6
(g18
S'\xeb\xdb\x936'
p3095
tp3096
Rp3097
tp3098
asg73
g15
sa(dp3099
g2
S'../../../data/emanuela/activity-recognition/images/NTCIR-Lifelog-256/u2/2015-06-16/b00001374_21i7lf_20150616_073558e.jpg'
p3100
sg4
(lp3101
(g15
g6
(g18
S'\xa7\xade?'
p3102
tp3103
Rp3104
tp3105
a(g68
g6
(g18
S'x\xc5\x90<'
p3106
tp3107
Rp3108
tp3109
a(g224
g6
(g18
S'\x19\xedW<'
p3110
tp3111
Rp3112
tp3113
a(g1974
g6
(g18
S'E\x0bE<'
p3114
tp3115
Rp3116
tp3117
a(g92
g6
(g18
S'\x19K8<'
p3118
tp3119
Rp3120
tp3121
asg73
g15
sa(dp3122
g2
S'../../../data/emanuela/activity-recognition/images/NTCIR-Lifelog-256/u2/2015-06-17/b00002353_21i7lf_20150617_125641e.jpg'
p3123
sg4
(lp3124
(g212
g6
(g18
S'\xd2\x13\xda>'
p3125
tp3126
Rp3127
tp3128
a(g68
g6
(g18
S'C\x130>'
p3129
tp3130
Rp3131
tp3132
a(g127
g6
(g18
S'\x95+\xaf='
p3133
tp3134
Rp3135
tp3136
a(g712
g6
(g18
S'\xa5K\x8f='
p3137
tp3138
Rp3139
tp3140
a(g56
g6
(g18
S'2\x032='
p3141
tp3142
Rp3143
tp3144
asg73
g15
sa(dp3145
g2
S'../../../data/emanuela/activity-recognition/images/NTCIR-Lifelog-256/u2/2015-04-20/b00000044_21i7lf_20150420_100012e.jpg'
p3146
sg4
(lp3147
(g15
g6
(g18
S'#\xa7@?'
p3148
tp3149
Rp3150
tp3151
a(g32
g6
(g18
S'\x92U\x82='
p3152
tp3153
Rp3154
tp3155
a(g44
g6
(g18
S'2\x97`='
p3156
tp3157
Rp3158
tp3159
a(g92
g6
(g18
S'\xa1\xe9_='
p3160
tp3161
Rp3162
tp3163
a(g68
g6
(g18
S'p\xff\xde<'
p3164
tp3165
Rp3166
tp3167
asg73
g15
sa(dp3168
g2
S'../../../data/emanuela/activity-recognition/images/NTCIR-Lifelog-256/u2/2015-06-19/b00003240_21i7lf_20150619_084214e.jpg'
p3169
sg4
(lp3170
(g127
g6
(g18
S'\xb1\xa0\xb9>'
p3171
tp3172
Rp3173
tp3174
a(g68
g6
(g18
S'\xb2M\x9a>'
p3175
tp3176
Rp3177
tp3178
a(g15
g6
(g18
S'2\xe37>'
p3179
tp3180
Rp3181
tp3182
a(g1188
g6
(g18
S'\xa5\\\xf8='
p3183
tp3184
Rp3185
tp3186
a(g493
g6
(g18
S'\n\xe0\x9c<'
p3187
tp3188
Rp3189
tp3190
asg73
g15
sa(dp3191
g2
S'../../../data/emanuela/activity-recognition/images/NTCIR-Lifelog-256/u2/2015-06-21/b00004689_21i7lf_20150621_080528e.jpg'
p3192
sg4
(lp3193
(g15
g6
(g18
S'!\xf6\\?'
p3194
tp3195
Rp3196
tp3197
a(g56
g6
(g18
S'\xd6H\x06>'
p3198
tp3199
Rp3200
tp3201
a(g68
g6
(g18
S'\xd3\x08M;'
p3202
tp3203
Rp3204
tp3205
a(g147
g6
(g18
S'\x95)\x95:'
p3206
tp3207
Rp3208
tp3209
a(g712
g6
(g18
S'\x13\x8b\x03:'
p3210
tp3211
Rp3212
tp3213
asg73
g15
sa(dp3214
g2
S'../../../data/emanuela/activity-recognition/images/NTCIR-Lifelog-256/u2/2015-06-17/b00002272_21i7lf_20150617_120313e.jpg'
p3215
sg4
(lp3216
(g15
g6
(g18
S'\xe0~@?'
p3217
tp3218
Rp3219
tp3220
a(g68
g6
(g18
S'\xf5\xb6\xa7='
p3221
tp3222
Rp3223
tp3224
a(g56
g6
(g18
S'\xc4a\x9e='
p3225
tp3226
Rp3227
tp3228
a(g127
g6
(g18
S'\x89a\x0b='
p3229
tp3230
Rp3231
tp3232
a(g1188
g6
(g18
S'\xf2\x82\x90<'
p3233
tp3234
Rp3235
tp3236
asg73
g15
sa(dp3237
g2
S'../../../data/emanuela/activity-recognition/images/NTCIR-Lifelog-256/u2/2015-04-21/b00000124_21i7lf_20150421_110328e.jpg'
p3238
sg4
(lp3239
(g56
g6
(g18
S'\xad\x7fh?'
p3240
tp3241
Rp3242
tp3243
a(g15
g6
(g18
S'\x1c)\x9f='
p3244
tp3245
Rp3246
tp3247
a(g104
g6
(g18
S'\xa0\x8a\x9c;'
p3248
tp3249
Rp3250
tp3251
a(g68
g6
(g18
S'\xc4\\4;'
p3252
tp3253
Rp3254
tp3255
a(g493
g6
(g18
S'\xb5a\x0b;'
p3256
tp3257
Rp3258
tp3259
asg73
g15
sa(dp3260
g2
S'../../../data/emanuela/activity-recognition/images/NTCIR-Lifelog-256/u2/2015-05-08/b00008989_21i7lf_20150508_123115e.jpg'
p3261
sg4
(lp3262
(g15
g6
(g18
S'\x87\x9b}?'
p3263
tp3264
Rp3265
tp3266
a(g56
g6
(g18
S'\x94\xf3\xfe;'
p3267
tp3268
Rp3269
tp3270
a(g68
g6
(g18
S'J\xa1+:'
p3271
tp3272
Rp3273
tp3274
a(g104
g6
(g18
S'\xda\x0c\x969'
p3275
tp3276
Rp3277
tp3278
a(g712
g6
(g18
S'\xcc\xf6\x1a9'
p3279
tp3280
Rp3281
tp3282
asg73
g15
sa(dp3283
g2
S'../../../data/emanuela/activity-recognition/images/NTCIR-Lifelog-256/u2/2015-04-27/b00005732_21i7lf_20150427_165830e.jpg'
p3284
sg4
(lp3285
(g68
g6
(g18
S'D\x8f\xc5>'
p3286
tp3287
Rp3288
tp3289
a(g15
g6
(g18
S'\xc0\xc5@>'
p3290
tp3291
Rp3292
tp3293
a(g127
g6
(g18
S'\xa8-\x11>'
p3294
tp3295
Rp3296
tp3297
a(g56
g6
(g18
S'^\xcf\x01>'
p3298
tp3299
Rp3300
tp3301
a(g1748
g6
(g18
S'\xe3\xfd\xa0='
p3302
tp3303
Rp3304
tp3305
asg73
g15
sa(dp3306
g2
S'../../../data/emanuela/activity-recognition/images/NTCIR-Lifelog-256/u2/2015-04-24/b00002827_21i7lf_20150424_205654e.jpg'
p3307
sg4
(lp3308
(g15
g6
(g18
S'\xb6\x0fx?'
p3309
tp3310
Rp3311
tp3312
a(g56
g6
(g18
S'p\xcb\xfb<'
p3313
tp3314
Rp3315
tp3316
a(g104
g6
(g18
S'\x17F\xcd8'
p3317
tp3318
Rp3319
tp3320
a(g224
g6
(g18
S'\x95\xf1l8'
p3321
tp3322
Rp3323
tp3324
a(g92
g6
(g18
S'\xe0gj8'
p3325
tp3326
Rp3327
tp3328
asg73
g15
sa(dp3329
g2
S'../../../data/emanuela/activity-recognition/images/NTCIR-Lifelog-256/u2/2015-04-28/b00006648_21i7lf_20150428_123110e.jpg'
p3330
sg4
(lp3331
(g15
g6
(g18
S'\x9f\x8fu?'
p3332
tp3333
Rp3334
tp3335
a(g56
g6
(g18
S'\xcf\x1c\xc7<'
p3336
tp3337
Rp3338
tp3339
a(g32
g6
(g18
S'\xdf^q;'
p3340
tp3341
Rp3342
tp3343
a(g104
g6
(g18
S':\x83p;'
p3344
tp3345
Rp3346
tp3347
a(g92
g6
(g18
S'\xef}\xe8:'
p3348
tp3349
Rp3350
tp3351
asg73
g15
sa(dp3352
g2
S'../../../data/emanuela/activity-recognition/images/NTCIR-Lifelog-256/u2/2015-05-08/b00008987_21i7lf_20150508_123001e.jpg'
p3353
sg4
(lp3354
(g15
g6
(g18
S'\xa9\x9c\x7f?'
p3355
tp3356
Rp3357
tp3358
a(g56
g6
(g18
S'>\xd9\x86:'
p3359
tp3360
Rp3361
tp3362
a(g92
g6
(g18
S'D}\n9'
p3363
tp3364
Rp3365
tp3366
a(g104
g6
(g18
S'\x1d+\xfe8'
p3367
tp3368
Rp3369
tp3370
a(g32
g6
(g18
S"\xcb'l8"
p3371
tp3372
Rp3373
tp3374
asg73
g15
sa(dp3375
g2
S'../../../data/emanuela/activity-recognition/images/NTCIR-Lifelog-256/u2/2015-06-18/b00002629_21i7lf_20150618_101416e.jpg'
p3376
sg4
(lp3377
(g700
g6
(g18
S'_\xf0\x99>'
p3378
tp3379
Rp3380
tp3381
a(g92
g6
(g18
S'\xf8\xe4d>'
p3382
tp3383
Rp3384
tp3385
a(g44
g6
(g18
S'\xdc\xad.>'
p3386
tp3387
Rp3388
tp3389
a(g68
g6
(g18
S'\xb7H\xb3='
p3390
tp3391
Rp3392
tp3393
a(g32
g6
(g18
S'\xb2`\x80='
p3394
tp3395
Rp3396
tp3397
asg73
g15
sa(dp3398
g2
S'../../../data/emanuela/activity-recognition/images/NTCIR-Lifelog-256/u2/2015-04-25/b00003134_21i7lf_20150425_125051e.jpg'
p3399
sg4
(lp3400
(g15
g6
(g18
S'\x14\x98\x7f?'
p3401
tp3402
Rp3403
tp3404
a(g56
g6
(g18
S'e\x8f\x91:'
p3405
tp3406
Rp3407
tp3408
a(g44
g6
(g18
S'\xfeL\x0e9'
p3409
tp3410
Rp3411
tp3412
a(g32
g6
(g18
S'N\xd6\xc08'
p3413
tp3414
Rp3415
tp3416
a(g493
g6
(g18
S'\xe54k8'
p3417
tp3418
Rp3419
tp3420
asg73
g15
sa(dp3421
g2
S'../../../data/emanuela/activity-recognition/images/NTCIR-Lifelog-256/u2/2015-04-21/b00000326_21i7lf_20150421_131316e.jpg'
p3422
sg4
(lp3423
(g15
g6
(g18
S'\x87\xc2,?'
p3424
tp3425
Rp3426
tp3427
a(g68
g6
(g18
S'\x9e\xf1\xf7='
p3428
tp3429
Rp3430
tp3431
a(g56
g6
(g18
S'\x97\xd4\xa4='
p3432
tp3433
Rp3434
tp3435
a(g32
g6
(g18
S'3\xc5\xdc<'
p3436
tp3437
Rp3438
tp3439
a(g104
g6
(g18
S'5\xd9\xb6<'
p3440
tp3441
Rp3442
tp3443
asg73
g15
sa(dp3444
g2
S'../../../data/emanuela/activity-recognition/images/NTCIR-Lifelog-256/u2/2015-04-25/b00003137_21i7lf_20150425_125313e.jpg'
p3445
sg4
(lp3446
(g15
g6
(g18
S'\x8a\xfe\x7f?'
p3447
tp3448
Rp3449
tp3450
a(g56
g6
(g18
S"'\x82\xa27"
p3451
tp3452
Rp3453
tp3454
a(g44
g6
(g18
S't\xba\xd25'
p3455
tp3456
Rp3457
tp3458
a(g104
g6
(g18
S'b\r\x1e5'
p3459
tp3460
Rp3461
tp3462
a(g92
g6
(g18
S'pr\x844'
p3463
tp3464
Rp3465
tp3466
asg73
g15
sa(dp3467
g2
S'../../../data/emanuela/activity-recognition/images/NTCIR-Lifelog-256/u2/2015-04-22/b00001336_21i7lf_20150422_121052e.jpg'
p3468
sg4
(lp3469
(g15
g6
(g18
S'V\xe6x?'
p3470
tp3471
Rp3472
tp3473
a(g44
g6
(g18
S'\x9a^W<'
p3474
tp3475
Rp3476
tp3477
a(g147
g6
(g18
S'\x93\x86J<'
p3478
tp3479
Rp3480
tp3481
a(g32
g6
(g18
S'\x12:\x81:'
p3482
tp3483
Rp3484
tp3485
a(g68
g6
(g18
S'\x18[\x00:'
p3486
tp3487
Rp3488
tp3489
asg73
g15
sa(dp3490
g2
S'../../../data/emanuela/activity-recognition/images/NTCIR-Lifelog-256/u2/2015-06-17/b00002348_21i7lf_20150617_125326e.jpg'
p3491
sg4
(lp3492
(g15
g6
(g18
S'U\x9au?'
p3493
tp3494
Rp3495
tp3496
a(g44
g6
(g18
S'a\xcax<'
p3497
tp3498
Rp3499
tp3500
a(g68
g6
(g18
S'\xfa\xa2\x0e<'
p3501
tp3502
Rp3503
tp3504
a(g56
g6
(g18
S'\xc6\xc1\xf5;'
p3505
tp3506
Rp3507
tp3508
a(g92
g6
(g18
S'r\x0e\xd7:'
p3509
tp3510
Rp3511
tp3512
asg73
g15
sa(dp3513
g2
S'../../../data/emanuela/activity-recognition/images/NTCIR-Lifelog-256/u2/2015-04-27/b00005385_21i7lf_20150427_132310e.jpg'
p3514
sg4
(lp3515
(g15
g6
(g18
S'\x81)\xf1>'
p3516
tp3517
Rp3518
tp3519
a(g44
g6
(g18
S'\x9f\xcc\xe9>'
p3520
tp3521
Rp3522
tp3523
a(g127
g6
(g18
S'\xf8\x12<='
p3524
tp3525
Rp3526
tp3527
a(g32
g6
(g18
S'7f\x92<'
p3528
tp3529
Rp3530
tp3531
a(g68
g6
(g18
S'4(\xa7;'
p3532
tp3533
Rp3534
tp3535
asg73
g15
sa(dp3536
g2
S'../../../data/emanuela/activity-recognition/images/NTCIR-Lifelog-256/u2/2015-04-28/b00006685_21i7lf_20150428_125407e.jpg'
p3537
sg4
(lp3538
(g15
g6
(g18
S'\xa5\xed\x7f?'
p3539
tp3540
Rp3541
tp3542
a(g56
g6
(g18
S'Y\x9e{9'
p3543
tp3544
Rp3545
tp3546
a(g68
g6
(g18
S'`b\x827'
p3547
tp3548
Rp3549
tp3550
a(g44
g6
(g18
S'\xeb\x7fM7'
p3551
tp3552
Rp3553
tp3554
a(g212
g6
(g18
S'\x0bXx6'
p3555
tp3556
Rp3557
tp3558
asg73
g15
sa(dp3559
g2
S'../../../data/emanuela/activity-recognition/images/NTCIR-Lifelog-256/u2/2015-05-08/b00008985_21i7lf_20150508_122845e.jpg'
p3560
sg4
(lp3561
(g15
g6
(g18
S'\x0f\x85\x7f?'
p3562
tp3563
Rp3564
tp3565
a(g56
g6
(g18
S'r\x18\xa8:'
p3566
tp3567
Rp3568
tp3569
a(g44
g6
(g18
S'\xbb\xa4p9'
p3570
tp3571
Rp3572
tp3573
a(g68
g6
(g18
S'\xc4\x8e\xfb8'
p3574
tp3575
Rp3576
tp3577
a(g32
g6
(g18
S'\x13\x16\x848'
p3578
tp3579
Rp3580
tp3581
asg73
g15
sa(dp3582
g2
S'../../../data/emanuela/activity-recognition/images/NTCIR-Lifelog-256/u2/2015-04-21/b00000325_21i7lf_20150421_131241e.jpg'
p3583
sg4
(lp3584
(g15
g6
(g18
S'V\rz?'
p3585
tp3586
Rp3587
tp3588
a(g56
g6
(g18
S'\xb7\x9e\xe3;'
p3589
tp3590
Rp3591
tp3592
a(g68
g6
(g18
S'\x98\xc3\xc6;'
p3593
tp3594
Rp3595
tp3596
a(g44
g6
(g18
S'e\xf8\x84;'
p3597
tp3598
Rp3599
tp3600
a(g32
g6
(g18
S'O\xaf ;'
p3601
tp3602
Rp3603
tp3604
asg73
g15
sa(dp3605
g2
S'../../../data/emanuela/activity-recognition/images/NTCIR-Lifelog-256/u2/2015-06-17/b00002346_21i7lf_20150617_125153e.jpg'
p3606
sg4
(lp3607
(g15
g6
(g18
S';NZ?'
p3608
tp3609
Rp3610
tp3611
a(g68
g6
(g18
S'\x85\xddg='
p3612
tp3613
Rp3614
tp3615
a(g92
g6
(g18
S'S\x08\x99<'
p3616
tp3617
Rp3618
tp3619
a(g56
g6
(g18
S'\xf8\xca\x93<'
p3620
tp3621
Rp3622
tp3623
a(g44
g6
(g18
S'\xbb\xe2\x85<'
p3624
tp3625
Rp3626
tp3627
asg73
g15
sa(dp3628
g2
S'../../../data/emanuela/activity-recognition/images/NTCIR-Lifelog-256/u2/2015-06-20/b00004559_21i7lf_20150620_121441e.jpg'
p3629
sg4
(lp3630
(g15
g6
(g18
S'2\x11\xe2>'
p3631
tp3632
Rp3633
tp3634
a(g56
g6
(g18
S'g\xab\xd2>'
p3635
tp3636
Rp3637
tp3638
a(g712
g6
(g18
S'\xf1\xc5y='
p3639
tp3640
Rp3641
tp3642
a(g1748
g6
(g18
S'L\xa6\x95<'
p3643
tp3644
Rp3645
tp3646
a(g700
g6
(g18
S'\xe4\xfd\x93<'
p3647
tp3648
Rp3649
tp3650
asg73
g15
sa(dp3651
g2
S'../../../data/emanuela/activity-recognition/images/NTCIR-Lifelog-256/u2/2015-04-28/b00006321_21i7lf_20150428_090852e.jpg'
p3652
sg4
(lp3653
(g56
g6
(g18
S'm\xe4\xe5>'
p3654
tp3655
Rp3656
tp3657
a(g15
g6
(g18
S'\x1f\xf3p>'
p3658
tp3659
Rp3660
tp3661
a(g68
g6
(g18
S'\x89\xf1\xed='
p3662
tp3663
Rp3664
tp3665
a(g147
g6
(g18
S'c\xe1\xb6='
p3666
tp3667
Rp3668
tp3669
a(g32
g6
(g18
S'\xb0\x02&='
p3670
tp3671
Rp3672
tp3673
asg73
g15
sa(dp3674
g2
S'../../../data/emanuela/activity-recognition/images/NTCIR-Lifelog-256/u2/2015-06-17/b00002354_21i7lf_20150617_125724e.jpg'
p3675
sg4
(lp3676
(g712
g6
(g18
S'\xeb\xc7\x16?'
p3677
tp3678
Rp3679
tp3680
a(g127
g6
(g18
S'>\x84D>'
p3681
tp3682
Rp3683
tp3684
a(g44
g6
(g18
S'\xbes\xed='
p3685
tp3686
Rp3687
tp3688
a(g493
g6
(g18
S'$\x96\xc3<'
p3689
tp3690
Rp3691
tp3692
a(g68
g6
(g18
S'\xae3\xc1<'
p3693
tp3694
Rp3695
tp3696
asg73
g15
sa(dp3697
g2
S'../../../data/emanuela/activity-recognition/images/NTCIR-Lifelog-256/u2/2015-05-06/b00007030_21i7lf_20150506_165920e.jpg'
p3698
sg4
(lp3699
(g15
g6
(g18
S'+ib?'
p3700
tp3701
Rp3702
tp3703
a(g56
g6
(g18
S'\xf1\x94L='
p3704
tp3705
Rp3706
tp3707
a(g1748
g6
(g18
S'\xb5\xf9\x10='
p3708
tp3709
Rp3710
tp3711
a(g712
g6
(g18
S'\xbb\x89\xb4<'
p3712
tp3713
Rp3714
tp3715
a(g68
g6
(g18
S'\xab\xacN;'
p3716
tp3717
Rp3718
tp3719
asg73
g15
sa(dp3720
g2
S'../../../data/emanuela/activity-recognition/images/NTCIR-Lifelog-256/u2/2015-05-03/b00004016_21i7lf_20150503_171030e.jpg'
p3721
sg4
(lp3722
(g15
g6
(g18
S'A\xfa~?'
p3723
tp3724
Rp3725
tp3726
a(g56
g6
(g18
S'!\x9ap;'
p3727
tp3728
Rp3729
tp3730
a(g104
g6
(g18
S'\x0f\xe6a9'
p3731
tp3732
Rp3733
tp3734
a(g68
g6
(g18
S'X\xa6I8'
p3735
tp3736
Rp3737
tp3738
a(g493
g6
(g18
S'iQ\xbe7'
p3739
tp3740
Rp3741
tp3742
asg73
g15
sa(dp3743
g2
S'../../../data/emanuela/activity-recognition/images/NTCIR-Lifelog-256/u2/2015-04-24/b00002818_21i7lf_20150424_205113e.jpg'
p3744
sg4
(lp3745
(g15
g6
(g18
S'$f~?'
p3746
tp3747
Rp3748
tp3749
a(g44
g6
(g18
S'1V\xb1;'
p3750
tp3751
Rp3752
tp3753
a(g32
g6
(g18
S'\r\x91\xf99'
p3754
tp3755
Rp3756
tp3757
a(g92
g6
(g18
S'\xbc4m9'
p3758
tp3759
Rp3760
tp3761
a(g147
g6
(g18
S'\x12\r\x018'
p3762
tp3763
Rp3764
tp3765
asg73
g15
sa(dp3766
g2
S'../../../data/emanuela/activity-recognition/images/NTCIR-Lifelog-256/u2/2015-04-22/b00000755_21i7lf_20150422_204537e.jpg'
p3767
sg4
(lp3768
(g15
g6
(g18
S'P\xf9\x7f?'
p3769
tp3770
Rp3771
tp3772
a(g56
g6
(g18
S'\xe9\xdb\xc18'
p3773
tp3774
Rp3775
tp3776
a(g92
g6
(g18
S'9\xe7u6'
p3777
tp3778
Rp3779
tp3780
a(g44
g6
(g18
S'\x97\xef\t6'
p3781
tp3782
Rp3783
tp3784
a(g493
g6
(g18
S'c\x98\x915'
p3785
tp3786
Rp3787
tp3788
asg73
g15
sa(dp3789
g2
S'../../../data/emanuela/activity-recognition/images/NTCIR-Lifelog-256/u2/2015-04-27/b00005731_21i7lf_20150427_165757e.jpg'
p3790
sg4
(lp3791
(g15
g6
(g18
S'\xc9\x92|?'
p3792
tp3793
Rp3794
tp3795
a(g56
g6
(g18
S'\xb1Y\xbb;'
p3796
tp3797
Rp3798
tp3799
a(g68
g6
(g18
S'\x97\x06\xa6;'
p3800
tp3801
Rp3802
tp3803
a(g104
g6
(g18
S'\xbd:\xa3:'
p3804
tp3805
Rp3806
tp3807
a(g712
g6
(g18
S'\xfe\x91\xd39'
p3808
tp3809
Rp3810
tp3811
asg73
g15
sa(dp3812
g2
S'../../../data/emanuela/activity-recognition/images/NTCIR-Lifelog-256/u2/2015-05-03/b00004000_21i7lf_20150503_170041e.jpg'
p3813
sg4
(lp3814
(g15
g6
(g18
S'\x1f\x87\x7f?'
p3815
tp3816
Rp3817
tp3818
a(g56
g6
(g18
S'\xa8\x17?:'
p3819
tp3820
Rp3821
tp3822
a(g92
g6
(g18
S'/`(:'
p3823
tp3824
Rp3825
tp3826
a(g44
g6
(g18
S'Pw|9'
p3827
tp3828
Rp3829
tp3830
a(g493
g6
(g18
S'\xdd4\xb88'
p3831
tp3832
Rp3833
tp3834
asg73
g15
sa(dp3835
g2
S'../../../data/emanuela/activity-recognition/images/NTCIR-Lifelog-256/u2/2015-06-20/b00004328_21i7lf_20150620_101800e.jpg'
p3836
sg4
(lp3837
(g68
g6
(g18
S':\x80\xe1>'
p3838
tp3839
Rp3840
tp3841
a(g127
g6
(g18
S'\xa8\x90\xa0>'
p3842
tp3843
Rp3844
tp3845
a(g212
g6
(g18
S"\x98\xc6'>"
p3846
tp3847
Rp3848
tp3849
a(g104
g6
(g18
S'\x8c~\xfc<'
p3850
tp3851
Rp3852
tp3853
a(g32
g6
(g18
S'\x95\xc3\xc6<'
p3854
tp3855
Rp3856
tp3857
asg73
g15
sa(dp3858
g2
S'../../../data/emanuela/activity-recognition/images/NTCIR-Lifelog-256/u2/2015-06-16/b00001376_21i7lf_20150616_073712e.jpg'
p3859
sg4
(lp3860
(g32
g6
(g18
S'\x03F??'
p3861
tp3862
Rp3863
tp3864
a(g44
g6
(g18
S'\xa0ZC>'
p3865
tp3866
Rp3867
tp3868
a(g15
g6
(g18
S'LiJ='
p3869
tp3870
Rp3871
tp3872
a(g68
g6
(g18
S'\xdb\xfd\x04<'
p3873
tp3874
Rp3875
tp3876
a(g56
g6
(g18
S'%\xfe#;'
p3877
tp3878
Rp3879
tp3880
asg73
g15
sa(dp3881
g2
S'../../../data/emanuela/activity-recognition/images/NTCIR-Lifelog-256/u2/2015-05-05/b00005329_21i7lf_20150505_120601e.jpg'
p3882
sg4
(lp3883
(g15
g6
(g18
S'\xff\xf4\xe6>'
p3884
tp3885
Rp3886
tp3887
a(g32
g6
(g18
S'\x12E_>'
p3888
tp3889
Rp3890
tp3891
a(g147
g6
(g18
S'\x88\xef\x0b>'
p3892
tp3893
Rp3894
tp3895
a(g56
g6
(g18
S'\x83@M='
p3896
tp3897
Rp3898
tp3899
a(g44
g6
(g18
S'Gr(='
p3900
tp3901
Rp3902
tp3903
asg73
g15
sa(dp3904
g2
S'../../../data/emanuela/activity-recognition/images/NTCIR-Lifelog-256/u2/2015-06-21/b00005046_21i7lf_20150621_121432e.jpg'
p3905
sg4
(lp3906
(g15
g6
(g18
S'x\x18\x7f?'
p3907
tp3908
Rp3909
tp3910
a(g56
g6
(g18
S'D\xe8\xaa:'
p3911
tp3912
Rp3913
tp3914
a(g44
g6
(g18
S'T\xa0V:'
p3915
tp3916
Rp3917
tp3918
a(g32
g6
(g18
S'z\xb2\xd79'
p3919
tp3920
Rp3921
tp3922
a(g68
g6
(g18
S'k\xee\xb49'
p3923
tp3924
Rp3925
tp3926
asg73
g15
sa(dp3927
g2
S'../../../data/emanuela/activity-recognition/images/NTCIR-Lifelog-256/u2/2015-05-03/b00004021_21i7lf_20150503_171341e.jpg'
p3928
sg4
(lp3929
(g15
g6
(g18
S'g\xb5V?'
p3930
tp3931
Rp3932
tp3933
a(g44
g6
(g18
S'\xeasE='
p3934
tp3935
Rp3936
tp3937
a(g32
g6
(g18
S'\xd16@='
p3938
tp3939
Rp3940
tp3941
a(g68
g6
(g18
S'\x19\xde9='
p3942
tp3943
Rp3944
tp3945
a(g56
g6
(g18
S'\xb9\xa0\n<'
p3946
tp3947
Rp3948
tp3949
asg73
g15
sa(dp3950
g2
S'../../../data/emanuela/activity-recognition/images/NTCIR-Lifelog-256/u2/2015-04-26/b00004134_21i7lf_20150426_153412e.jpg'
p3951
sg4
(lp3952
(g15
g6
(g18
S'X\xfa\x7f?'
p3953
tp3954
Rp3955
tp3956
a(g56
g6
(g18
S'\x98\x9a\x858'
p3957
tp3958
Rp3959
tp3960
a(g68
g6
(g18
S'\xb4\xf9\x897'
p3961
tp3962
Rp3963
tp3964
a(g44
g6
(g18
S'(\xbf\xa46'
p3965
tp3966
Rp3967
tp3968
a(g32
g6
(g18
S'\xcc\x95\xae4'
p3969
tp3970
Rp3971
tp3972
asg73
g15
sa(dp3973
g2
S'../../../data/emanuela/activity-recognition/images/NTCIR-Lifelog-256/u2/2015-04-27/b00005384_21i7lf_20150427_132237e.jpg'
p3974
sg4
(lp3975
(g15
g6
(g18
S'R\x03l?'
p3976
tp3977
Rp3978
tp3979
a(g56
g6
(g18
S"'Lr="
p3980
tp3981
Rp3982
tp3983
a(g32
g6
(g18
S'\x9d\x05\xb0;'
p3984
tp3985
Rp3986
tp3987
a(g147
g6
(g18
S'N{\x8c;'
p3988
tp3989
Rp3990
tp3991
a(g44
g6
(g18
S'F\xad\x81;'
p3992
tp3993
Rp3994
tp3995
asg73
g15
sa(dp3996
g2
S'../../../data/emanuela/activity-recognition/images/NTCIR-Lifelog-256/u2/2015-04-22/b00001019_21i7lf_20150422_085231e.jpg'
p3997
sg4
(lp3998
(g32
g6
(g18
S'~\xe2\x03?'
p3999
tp4000
Rp4001
tp4002
a(g15
g6
(g18
S'\xe4\x07\xa6>'
p4003
tp4004
Rp4005
tp4006
a(g44
g6
(g18
S'\xb80\x11>'
p4007
tp4008
Rp4009
tp4010
a(g147
g6
(g18
S'\xf0\xce\xfa;'
p4011
tp4012
Rp4013
tp4014
a(g68
g6
(g18
S'D@\xb6;'
p4015
tp4016
Rp4017
tp4018
asg73
g15
sa(dp4019
g2
S'../../../data/emanuela/activity-recognition/images/NTCIR-Lifelog-256/u2/2015-06-17/b00002350_21i7lf_20150617_125443e.jpg'
p4020
sg4
(lp4021
(g15
g6
(g18
S'1n>?'
p4022
tp4023
Rp4024
tp4025
a(g68
g6
(g18
S'\xd2\x9d\x9a='
p4026
tp4027
Rp4028
tp4029
a(g44
g6
(g18
S'\xfb\x1bF='
p4030
tp4031
Rp4032
tp4033
a(g32
g6
(g18
S'\x8d\xb5\xe5<'
p4034
tp4035
Rp4036
tp4037
a(g127
g6
(g18
S'm\x99\xe2<'
p4038
tp4039
Rp4040
tp4041
asg73
g15
sa(dp4042
g2
S'../../../data/emanuela/activity-recognition/images/NTCIR-Lifelog-256/u2/2015-04-27/b00005733_21i7lf_20150427_165906e.jpg'
p4043
sg4
(lp4044
(g15
g6
(g18
S'\xb7$c?'
p4045
tp4046
Rp4047
tp4048
a(g68
g6
(g18
S'\x8cq\xa4='
p4049
tp4050
Rp4051
tp4052
a(g56
g6
(g18
S'\r\x81\x90<'
p4053
tp4054
Rp4055
tp4056
a(g127
g6
(g18
S'\xa44\xb4;'
p4057
tp4058
Rp4059
tp4060
a(g44
g6
(g18
S'~\x0bJ;'
p4061
tp4062
Rp4063
tp4064
asg73
g15
sa(dp4065
g2
S'../../../data/emanuela/activity-recognition/images/NTCIR-Lifelog-256/u2/2015-05-03/b00004015_21i7lf_20150503_170957e.jpg'
p4066
sg4
(lp4067
(g15
g6
(g18
S'\xad~\x7f?'
p4068
tp4069
Rp4070
tp4071
a(g92
g6
(g18
S']\xa1\xa6:'
p4072
tp4073
Rp4074
tp4075
a(g56
g6
(g18
S',|\x12:'
p4076
tp4077
Rp4078
tp4079
a(g104
g6
(g18
S'\x85\xc0\x1a8'
p4080
tp4081
Rp4082
tp4083
a(g44
g6
(g18
S'\x80\xe9\n8'
p4084
tp4085
Rp4086
tp4087
asg73
g15
sa(dp4088
g2
S'../../../data/emanuela/activity-recognition/images/NTCIR-Lifelog-256/u2/2015-06-17/b00002352_21i7lf_20150617_125600e.jpg'
p4089
sg4
(lp4090
(g92
g6
(g18
S'\xb3\xe5)>'
p4091
tp4092
Rp4093
tp4094
a(g212
g6
(g18
S'f\xc1\x0f>'
p4095
tp4096
Rp4097
tp4098
a(g68
g6
(g18
S'D\x03\xe6='
p4099
tp4100
Rp4101
tp4102
a(g15
g6
(g18
S'\xa6\x9d\xe0='
p4103
tp4104
Rp4105
tp4106
a(g700
g6
(g18
S'\x1a\x95\xbf='
p4107
tp4108
Rp4109
tp4110
asg73
g15
sa(dp4111
g2
S'../../../data/emanuela/activity-recognition/images/NTCIR-Lifelog-256/u2/2015-06-21/b00005053_21i7lf_20150621_121916e.jpg'
p4112
sg4
(lp4113
(g15
g6
(g18
S'\x87\xefh?'
p4114
tp4115
Rp4116
tp4117
a(g32
g6
(g18
S'^\xb0<='
p4118
tp4119
Rp4120
tp4121
a(g44
g6
(g18
S'\x8e:\xcf<'
p4122
tp4123
Rp4124
tp4125
a(g68
g6
(g18
S'\xf4m\x0b<'
p4126
tp4127
Rp4128
tp4129
a(g56
g6
(g18
S'\xa2\xc4\x98;'
p4130
tp4131
Rp4132
tp4133
asg73
g15
sa(dp4134
g2
S'../../../data/emanuela/activity-recognition/images/NTCIR-Lifelog-256/u2/2015-06-17/b00002347_21i7lf_20150617_125239e.jpg'
p4135
sg4
(lp4136
(g44
g6
(g18
S'\xcc\x8d#?'
p4137
tp4138
Rp4139
tp4140
a(g712
g6
(g18
S'\xe4J=>'
p4141
tp4142
Rp4143
tp4144
a(g68
g6
(g18
S'\xbc\xa5\r='
p4145
tp4146
Rp4147
tp4148
a(g15
g6
(g18
S'a\x11\xfa<'
p4149
tp4150
Rp4151
tp4152
a(g56
g6
(g18
S'\x02_\xf8<'
p4153
tp4154
Rp4155
tp4156
asg73
g15
sa(dp4157
g2
S'../../../data/emanuela/activity-recognition/images/NTCIR-Lifelog-256/u2/2015-05-03/b00004017_21i7lf_20150503_171110e.jpg'
p4158
sg4
(lp4159
(g15
g6
(g18
S'\x19%c?'
p4160
tp4161
Rp4162
tp4163
a(g56
g6
(g18
S'.k\xd4='
p4164
tp4165
Rp4166
tp4167
a(g68
g6
(g18
S'\x86\x9ay;'
p4168
tp4169
Rp4170
tp4171
a(g104
g6
(g18
S'\xb6%8;'
p4172
tp4173
Rp4174
tp4175
a(g127
g6
(g18
S'\x85\x85\xf39'
p4176
tp4177
Rp4178
tp4179
asg73
g15
sa(dp4180
g2
S'../../../data/emanuela/activity-recognition/images/NTCIR-Lifelog-256/u2/2015-06-21/b00004692_21i7lf_20150621_080725e.jpg'
p4181
sg4
(lp4182
(g68
g6
(g18
S'\x85\x8f-?'
p4183
tp4184
Rp4185
tp4186
a(g127
g6
(g18
S'\x97iY>'
p4187
tp4188
Rp4189
tp4190
a(g44
g6
(g18
S'M/k='
p4191
tp4192
Rp4193
tp4194
a(g15
g6
(g18
S'_\xfd\xdf<'
p4195
tp4196
Rp4197
tp4198
a(g1748
g6
(g18
S'\x94B\x19<'
p4199
tp4200
Rp4201
tp4202
asg73
g15
sa(dp4203
g2
S'../../../data/emanuela/activity-recognition/images/NTCIR-Lifelog-256/u2/2015-06-21/b00005054_21i7lf_20150621_121952e.jpg'
p4204
sg4
(lp4205
(g15
g6
(g18
S'\xf9m\x7f?'
p4206
tp4207
Rp4208
tp4209
a(g56
g6
(g18
S'|\x85\xdd:'
p4210
tp4211
Rp4212
tp4213
a(g92
g6
(g18
S'\xb7\\\x869'
p4214
tp4215
Rp4216
tp4217
a(g68
g6
(g18
S'I\x92\x898'
p4218
tp4219
Rp4220
tp4221
a(g700
g6
(g18
S'i\x83/8'
p4222
tp4223
Rp4224
tp4225
asg73
g15
sa(dp4226
g2
S'../../../data/emanuela/activity-recognition/images/NTCIR-Lifelog-256/u2/2015-04-24/b00002325_21i7lf_20150424_131352e.jpg'
p4227
sg4
(lp4228
(g15
g6
(g18
S'\xa9\xcdt?'
p4229
tp4230
Rp4231
tp4232
a(g68
g6
(g18
S'\xbc\\\xc3<'
p4233
tp4234
Rp4235
tp4236
a(g56
g6
(g18
S'~\xac\x1a<'
p4237
tp4238
Rp4239
tp4240
a(g127
g6
(g18
S'F\x7f\xb9;'
p4241
tp4242
Rp4243
tp4244
a(g224
g6
(g18
S'1\x1b\xca:'
p4245
tp4246
Rp4247
tp4248
asg73
g15
sa(dp4249
g2
S'../../../data/emanuela/activity-recognition/images/NTCIR-Lifelog-256/u2/2015-04-23/b00000855_21i7lf_20150423_093100e.jpg'
p4250
sg4
(lp4251
(g68
g6
(g18
S'\x1d\x823?'
p4252
tp4253
Rp4254
tp4255
a(g56
g6
(g18
S'\x94\x81\xf6='
p4256
tp4257
Rp4258
tp4259
a(g127
g6
(g18
S'\x8f\xa3\xc8='
p4260
tp4261
Rp4262
tp4263
a(g15
g6
(g18
S'\x99\x8e\xbb<'
p4264
tp4265
Rp4266
tp4267
a(g147
g6
(g18
S'\x9d(\x9b<'
p4268
tp4269
Rp4270
tp4271
asg73
g15
sa(dp4272
g2
S'../../../data/emanuela/activity-recognition/images/NTCIR-Lifelog-256/u2/2015-04-22/b00001340_21i7lf_20150422_121322e.jpg'
p4273
sg4
(lp4274
(g15
g6
(g18
S'\x1f\xfc??'
p4275
tp4276
Rp4277
tp4278
a(g44
g6
(g18
S'\x8d^t>'
p4279
tp4280
Rp4281
tp4282
a(g32
g6
(g18
S'4%\xef;'
p4283
tp4284
Rp4285
tp4286
a(g68
g6
(g18
S'D\x9d\x03;'
p4287
tp4288
Rp4289
tp4290
a(g147
g6
(g18
S'\x9a\xd0\x9d:'
p4291
tp4292
Rp4293
tp4294
asg73
g15
sa(dp4295
g2
S'../../../data/emanuela/activity-recognition/images/NTCIR-Lifelog-256/u2/2015-05-03/b00004009_21i7lf_20150503_170607e.jpg'
p4296
sg4
(lp4297
(g15
g6
(g18
S'\xa7\xefK?'
p4298
tp4299
Rp4300
tp4301
a(g32
g6
(g18
S'B\xfb\xd3='
p4302
tp4303
Rp4304
tp4305
a(g493
g6
(g18
S'K;\xba<'
p4306
tp4307
Rp4308
tp4309
a(g56
g6
(g18
S'\x00a\x83<'
p4310
tp4311
Rp4312
tp4313
a(g44
g6
(g18
S'$\x08\x80<'
p4314
tp4315
Rp4316
tp4317
asg73
g15
sa(dp4318
g2
S'../../../data/emanuela/activity-recognition/images/NTCIR-Lifelog-256/u2/2015-05-03/b00003994_21i7lf_20150503_165654e.jpg'
p4319
sg4
(lp4320
(g15
g6
(g18
S'<\xcez?'
p4321
tp4322
Rp4323
tp4324
a(g56
g6
(g18
S'*r,<'
p4325
tp4326
Rp4327
tp4328
a(g104
g6
(g18
S'Hu\xfd;'
p4329
tp4330
Rp4331
tp4332
a(g493
g6
(g18
S'\xb1\xc1\xc49'
p4333
tp4334
Rp4335
tp4336
a(g32
g6
(g18
S'r\x81\xb29'
p4337
tp4338
Rp4339
tp4340
asg73
g15
sa(dp4341
g2
S'../../../data/emanuela/activity-recognition/images/NTCIR-Lifelog-256/u2/2015-05-06/b00006308_21i7lf_20150506_092325e.jpg'
p4342
sg4
(lp4343
(g15
g6
(g18
S'Rs$?'
p4344
tp4345
Rp4346
tp4347
a(g44
g6
(g18
S'm\xea\xe2='
p4348
tp4349
Rp4350
tp4351
a(g56
g6
(g18
S'\xd6\x84c='
p4352
tp4353
Rp4354
tp4355
a(g32
g6
(g18
S'*\x7f-='
p4356
tp4357
Rp4358
tp4359
a(g1974
g6
(g18
S'\xcf\x8f\xd7<'
p4360
tp4361
Rp4362
tp4363
asg73
g15
sa(dp4364
g2
S'../../../data/emanuela/activity-recognition/images/NTCIR-Lifelog-256/u2/2015-05-03/b00004010_21i7lf_20150503_170641e.jpg'
p4365
sg4
(lp4366
(g15
g6
(g18
S'\x86\xc7\x7f?'
p4367
tp4368
Rp4369
tp4370
a(g56
g6
(g18
S'V.::'
p4371
tp4372
Rp4373
tp4374
a(g92
g6
(g18
S'$@\xf78'
p4375
tp4376
Rp4377
tp4378
a(g104
g6
(g18
S'\xc1\xcd37'
p4379
tp4380
Rp4381
tp4382
a(g44
g6
(g18
S'\x9f\xff\xe86'
p4383
tp4384
Rp4385
tp4386
asg73
g15
sa(dp4387
g2
S'../../../data/emanuela/activity-recognition/images/NTCIR-Lifelog-256/u2/2015-04-30/b00000823_21i7lf_20150430_111054e.jpg'
p4388
sg4
(lp4389
(g56
g6
(g18
S'3\x1f ?'
p4390
tp4391
Rp4392
tp4393
a(g147
g6
(g18
S'\x0b.\xfd='
p4394
tp4395
Rp4396
tp4397
a(g127
g6
(g18
S'\x15\x96l='
p4398
tp4399
Rp4400
tp4401
a(g15
g6
(g18
S'\x89\x15T='
p4402
tp4403
Rp4404
tp4405
a(g32
g6
(g18
S'K\xc7K='
p4406
tp4407
Rp4408
tp4409
asg73
g15
sa(dp4410
g2
S'../../../data/emanuela/activity-recognition/images/NTCIR-Lifelog-256/u2/2015-06-17/b00002376_21i7lf_20150617_131233e.jpg'
p4411
sg4
(lp4412
(g15
g6
(g18
S'^\xf5L?'
p4413
tp4414
Rp4415
tp4416
a(g68
g6
(g18
S'\x83\xc9\x15>'
p4417
tp4418
Rp4419
tp4420
a(g56
g6
(g18
S'\xb4t\xcc<'
p4421
tp4422
Rp4423
tp4424
a(g493
g6
(g18
S'\xc2=\xb1;'
p4425
tp4426
Rp4427
tp4428
a(g127
g6
(g18
S'\xf1\xf7\xae;'
p4429
tp4430
Rp4431
tp4432
asg73
g15
sa(dp4433
g2
S'../../../data/emanuela/activity-recognition/images/NTCIR-Lifelog-256/u2/2015-04-21/b00000323_21i7lf_20150421_131122e.jpg'
p4434
sg4
(lp4435
(g15
g6
(g18
S'\x0c\xa8\x7f?'
p4436
tp4437
Rp4438
tp4439
a(g44
g6
(g18
S'\xec\xad\x94:'
p4440
tp4441
Rp4442
tp4443
a(g56
g6
(g18
S'\x98\x99\xef8'
p4444
tp4445
Rp4446
tp4447
a(g68
g6
(g18
S'yU\x988'
p4448
tp4449
Rp4450
tp4451
a(g32
g6
(g18
S'\x87\xd3>7'
p4452
tp4453
Rp4454
tp4455
asg73
g15
sa(dp4456
g2
S'../../../data/emanuela/activity-recognition/images/NTCIR-Lifelog-256/u2/2015-05-03/b00003936_21i7lf_20150503_161957e.jpg'
p4457
sg4
(lp4458
(g15
g6
(g18
S'4\xa9r?'
p4459
tp4460
Rp4461
tp4462
a(g68
g6
(g18
S'X\x98\xee<'
p4463
tp4464
Rp4465
tp4466
a(g44
g6
(g18
S'\xf2 +<'
p4467
tp4468
Rp4469
tp4470
a(g56
g6
(g18
S'\xa8n\xeb;'
p4471
tp4472
Rp4473
tp4474
a(g127
g6
(g18
S'd\xe1:;'
p4475
tp4476
Rp4477
tp4478
asg73
g15
sa(dp4479
g2
S'../../../data/emanuela/activity-recognition/images/NTCIR-Lifelog-256/u2/2015-04-24/b00001933_21i7lf_20150424_091122e.jpg'
p4480
sg4
(lp4481
(g32
g6
(g18
S'\xf0cD?'
p4482
tp4483
Rp4484
tp4485
a(g147
g6
(g18
S'\xb8\xa1\r>'
p4486
tp4487
Rp4488
tp4489
a(g68
g6
(g18
S'_\xe9\xf0<'
p4490
tp4491
Rp4492
tp4493
a(g56
g6
(g18
S'\x8d\xba\xd2<'
p4494
tp4495
Rp4496
tp4497
a(g44
g6
(g18
S'K$\xaa<'
p4498
tp4499
Rp4500
tp4501
asg73
g15
sa(dp4502
g2
S'../../../data/emanuela/activity-recognition/images/NTCIR-Lifelog-256/u2/2015-06-21/b00004696_21i7lf_20150621_080955e.jpg'
p4503
sg4
(lp4504
(g68
g6
(g18
S'\\K\xb4>'
p4505
tp4506
Rp4507
tp4508
a(g15
g6
(g18
S'\xf5\xefo>'
p4509
tp4510
Rp4511
tp4512
a(g56
g6
(g18
S'\x8c\xde\x12>'
p4513
tp4514
Rp4515
tp4516
a(g32
g6
(g18
S'f\xd9q='
p4517
tp4518
Rp4519
tp4520
a(g127
g6
(g18
S'o\xcch='
p4521
tp4522
Rp4523
tp4524
asg73
g15
sa(dp4525
g2
S'../../../data/emanuela/activity-recognition/images/NTCIR-Lifelog-256/u2/2015-05-08/b00008690_21i7lf_20150508_092810e.jpg'
p4526
sg4
(lp4527
(g56
g6
(g18
S'\xd2\xf7/?'
p4528
tp4529
Rp4530
tp4531
a(g68
g6
(g18
S'\xb2 \x1d>'
p4532
tp4533
Rp4534
tp4535
a(g15
g6
(g18
S'\x8f\xcd\x8f='
p4536
tp4537
Rp4538
tp4539
a(g712
g6
(g18
S'"\x1b\x1c='
p4540
tp4541
Rp4542
tp4543
a(g212
g6
(g18
S'v&j<'
p4544
tp4545
Rp4546
tp4547
asg73
g15
sa(dp4548
g2
S'../../../data/emanuela/activity-recognition/images/NTCIR-Lifelog-256/u2/2015-06-16/b00001371_21i7lf_20150616_073406e.jpg'
p4549
sg4
(lp4550
(g15
g6
(g18
S"\xf9'7?"
p4551
tp4552
Rp4553
tp4554
a(g56
g6
(g18
S'\xc9\x1b.>'
p4555
tp4556
Rp4557
tp4558
a(g68
g6
(g18
S'\x9b\xa5\x7f='
p4559
tp4560
Rp4561
tp4562
a(g32
g6
(g18
S'\xd4\x0cx<'
p4563
tp4564
Rp4565
tp4566
a(g127
g6
(g18
S'<\t\xc4;'
p4567
tp4568
Rp4569
tp4570
asg73
g15
sa(dp4571
g2
S'../../../data/emanuela/activity-recognition/images/NTCIR-Lifelog-256/u2/2015-04-29/b00000508_21i7lf_20150429_124325e.jpg'
p4572
sg4
(lp4573
(g15
g6
(g18
S'\x11\x88}?'
p4574
tp4575
Rp4576
tp4577
a(g56
g6
(g18
S'\xdb\x12\xd6;'
p4578
tp4579
Rp4580
tp4581
a(g68
g6
(g18
S'5\xae\x15;'
p4582
tp4583
Rp4584
tp4585
a(g32
g6
(g18
S'\x02\xd3n9'
p4586
tp4587
Rp4588
tp4589
a(g104
g6
(g18
S'>\xd1\x139'
p4590
tp4591
Rp4592
tp4593
asg73
g15
sa(dp4594
g2
S'../../../data/emanuela/activity-recognition/images/NTCIR-Lifelog-256/u2/2015-04-22/b00001338_21i7lf_20150422_121203e.jpg'
p4595
sg4
(lp4596
(g15
g6
(g18
S'\xb8\xeb%?'
p4597
tp4598
Rp4599
tp4600
a(g44
g6
(g18
S'\xec"@>'
p4601
tp4602
Rp4603
tp4604
a(g32
g6
(g18
S'\x83\xf1\x1a>'
p4605
tp4606
Rp4607
tp4608
a(g147
g6
(g18
S'G\xf7\xe5;'
p4609
tp4610
Rp4611
tp4612
a(g127
g6
(g18
S'\xb3\xf92;'
p4613
tp4614
Rp4615
tp4616
asg73
g15
sa(dp4617
g2
S'../../../data/emanuela/activity-recognition/images/NTCIR-Lifelog-256/u2/2015-06-17/b00002374_21i7lf_20150617_131115e.jpg'
p4618
sg4
(lp4619
(g15
g6
(g18
S'0\xc4}?'
p4620
tp4621
Rp4622
tp4623
a(g56
g6
(g18
S'\xf5\xdb\xad;'
p4624
tp4625
Rp4626
tp4627
a(g92
g6
(g18
S'P\xf4\x13;'
p4628
tp4629
Rp4630
tp4631
a(g104
g6
(g18
S'\x0fs\xc39'
p4632
tp4633
Rp4634
tp4635
a(g44
g6
(g18
S'\xaf2~9'
p4636
tp4637
Rp4638
tp4639
asg73
g15
sa(dp4640
g2
S'../../../data/emanuela/activity-recognition/images/NTCIR-Lifelog-256/u2/2015-05-03/b00004002_21i7lf_20150503_170158e.jpg'
p4641
sg4
(lp4642
(g15
g6
(g18
S'(\xe1t?'
p4643
tp4644
Rp4645
tp4646
a(g56
g6
(g18
S'd\xe1\xda<'
p4647
tp4648
Rp4649
tp4650
a(g92
g6
(g18
S'\x89\x1a!<'
p4651
tp4652
Rp4653
tp4654
a(g493
g6
(g18
S'\x03N?;'
p4655
tp4656
Rp4657
tp4658
a(g104
g6
(g18
S'\xd3\x85\x86:'
p4659
tp4660
Rp4661
tp4662
asg73
g15
sa(dp4663
g2
S'../../../data/emanuela/activity-recognition/images/NTCIR-Lifelog-256/u2/2015-04-24/b00002332_21i7lf_20150424_131751e.jpg'
p4664
sg4
(lp4665
(g15
g6
(g18
S'\xc4\xfe\x7f?'
p4666
tp4667
Rp4668
tp4669
a(g56
g6
(g18
S'BZ\x977'
p4670
tp4671
Rp4672
tp4673
a(g44
g6
(g18
S'\xa2\x16D5'
p4674
tp4675
Rp4676
tp4677
a(g92
g6
(g18
S'[\xf2S3'
p4678
tp4679
Rp4680
tp4681
a(g104
g6
(g18
S'\xd2\xfb\x073'
p4682
tp4683
Rp4684
tp4685
asg73
g15
sa(dp4686
g2
S'../../../data/emanuela/activity-recognition/images/NTCIR-Lifelog-256/u2/2015-05-01/b00002105_21i7lf_20150501_122656e.jpg'
p4687
sg4
(lp4688
(g44
g6
(g18
S'T\x1b\x19?'
p4689
tp4690
Rp4691
tp4692
a(g32
g6
(g18
S'\xddZ\x85>'
p4693
tp4694
Rp4695
tp4696
a(g15
g6
(g18
S'\xc7\t\x00>'
p4697
tp4698
Rp4699
tp4700
a(g68
g6
(g18
S'\xcc-\xd9;'
p4701
tp4702
Rp4703
tp4704
a(g147
g6
(g18
S'\xcf\xbe\x9b;'
p4705
tp4706
Rp4707
tp4708
asg73
g15
sa(dp4709
g2
S'../../../data/emanuela/activity-recognition/images/NTCIR-Lifelog-256/u2/2015-06-16/b00001353_21i7lf_20150616_072258e.jpg'
p4710
sg4
(lp4711
(g68
g6
(g18
S'P\xf8\x06?'
p4712
tp4713
Rp4714
tp4715
a(g15
g6
(g18
S' \xd9\x88>'
p4716
tp4717
Rp4718
tp4719
a(g56
g6
(g18
S'j>\x83='
p4720
tp4721
Rp4722
tp4723
a(g127
g6
(g18
S'\xe4\td='
p4724
tp4725
Rp4726
tp4727
a(g44
g6
(g18
S'\xa3\xad/='
p4728
tp4729
Rp4730
tp4731
asg73
g15
sa(dp4732
g2
S'../../../data/emanuela/activity-recognition/images/NTCIR-Lifelog-256/u2/2015-05-03/b00004003_21i7lf_20150503_170237e.jpg'
p4733
sg4
(lp4734
(g15
g6
(g18
S'\x82(a?'
p4735
tp4736
Rp4737
tp4738
a(g56
g6
(g18
S'\xc7\xf1\xdb='
p4739
tp4740
Rp4741
tp4742
a(g68
g6
(g18
S"\xe3'S;"
p4743
tp4744
Rp4745
tp4746
a(g700
g6
(g18
S'\xd3s\xf1:'
p4747
tp4748
Rp4749
tp4750
a(g493
g6
(g18
S'9 \xe3:'
p4751
tp4752
Rp4753
tp4754
asg73
g15
sa(dp4755
g2
S'../../../data/emanuela/activity-recognition/images/NTCIR-Lifelog-256/u2/2015-05-06/b00006307_21i7lf_20150506_092244e.jpg'
p4756
sg4
(lp4757
(g68
g6
(g18
S'\x06\xcf\x10?'
p4758
tp4759
Rp4760
tp4761
a(g127
g6
(g18
S'Q \xcf='
p4762
tp4763
Rp4764
tp4765
a(g56
g6
(g18
S'\xdb#\xc4='
p4766
tp4767
Rp4768
tp4769
a(g32
g6
(g18
S'W\xc4\x92='
p4770
tp4771
Rp4772
tp4773
a(g15
g6
(g18
S'\xe2\x1b\x03='
p4774
tp4775
Rp4776
tp4777
asg73
g15
sa(dp4778
g2
S'../../../data/emanuela/activity-recognition/images/NTCIR-Lifelog-256/u2/2015-04-22/b00000758_21i7lf_20150422_204728e.jpg'
p4779
sg4
(lp4780
(g15
g6
(g18
S'4\xf6\x7f?'
p4781
tp4782
Rp4783
tp4784
a(g56
g6
(g18
S'\xe97\x978'
p4785
tp4786
Rp4787
tp4788
a(g44
g6
(g18
S'\xd69\xc67'
p4789
tp4790
Rp4791
tp4792
a(g68
g6
(g18
S'\x1a\xe9\xc27'
p4793
tp4794
Rp4795
tp4796
a(g1188
g6
(g18
S'k\xb6\xd26'
p4797
tp4798
Rp4799
tp4800
asg73
g15
sa(dp4801
g2
S'../../../data/emanuela/activity-recognition/images/NTCIR-Lifelog-256/u2/2015-06-19/b00003236_21i7lf_20150619_084103e.jpg'
p4802
sg4
(lp4803
(g68
g6
(g18
S'D\\\xfd>'
p4804
tp4805
Rp4806
tp4807
a(g15
g6
(g18
S'{\xf9\xcb>'
p4808
tp4809
Rp4810
tp4811
a(g32
g6
(g18
S'\xd7\x19G='
p4812
tp4813
Rp4814
tp4815
a(g127
g6
(g18
S'\x07\xf9\x95<'
p4816
tp4817
Rp4818
tp4819
a(g56
g6
(g18
S'\xe6\x16g<'
p4820
tp4821
Rp4822
tp4823
asg73
g15
sa(dp4824
g2
S'../../../data/emanuela/activity-recognition/images/NTCIR-Lifelog-256/u2/2015-06-16/b00001372_21i7lf_20150616_073445e.jpg'
p4825
sg4
(lp4826
(g15
g6
(g18
S'\x97\x9ex?'
p4827
tp4828
Rp4829
tp4830
a(g56
g6
(g18
S'\xcaY\xa8<'
p4831
tp4832
Rp4833
tp4834
a(g68
g6
(g18
S"\x144';"
p4835
tp4836
Rp4837
tp4838
a(g32
g6
(g18
S'\x9a\x9a\x1b;'
p4839
tp4840
Rp4841
tp4842
a(g44
g6
(g18
S'\xb4I\x9d:'
p4843
tp4844
Rp4845
tp4846
asg73
g15
sa(dp4847
g2
S'../../../data/emanuela/activity-recognition/images/NTCIR-Lifelog-256/u2/2015-06-21/b00005051_21i7lf_20150621_121747e.jpg'
p4848
sg4
(lp4849
(g15
g6
(g18
S'\xfd[f?'
p4850
tp4851
Rp4852
tp4853
a(g104
g6
(g18
S'\tb\x81='
p4854
tp4855
Rp4856
tp4857
a(g32
g6
(g18
S'\xb8\xcal<'
p4858
tp4859
Rp4860
tp4861
a(g44
g6
(g18
S'\x9asI<'
p4862
tp4863
Rp4864
tp4865
a(g56
g6
(g18
S'k\xa2X;'
p4866
tp4867
Rp4868
tp4869
asg73
g15
sa(dp4870
g2
S'../../../data/emanuela/activity-recognition/images/NTCIR-Lifelog-256/u2/2015-06-21/b00004691_21i7lf_20150621_080644e.jpg'
p4871
sg4
(lp4872
(g15
g6
(g18
S'e\xb3\x7f?'
p4873
tp4874
Rp4875
tp4876
a(g56
g6
(g18
S'\xfeO~:'
p4877
tp4878
Rp4879
tp4880
a(g32
g6
(g18
S'\x94Rz8'
p4881
tp4882
Rp4883
tp4884
a(g44
g6
(g18
S'p\xac^8'
p4885
tp4886
Rp4887
tp4888
a(g104
g6
(g18
S'3\xc3\x088'
p4889
tp4890
Rp4891
tp4892
asg73
g15
sa(dp4893
g2
S'../../../data/emanuela/activity-recognition/images/NTCIR-Lifelog-256/u2/2015-05-06/b00007029_21i7lf_20150506_165848e.jpg'
p4894
sg4
(lp4895
(g15
g6
(g18
S'\xbe\xfa\x7f?'
p4896
tp4897
Rp4898
tp4899
a(g56
g6
(g18
S'\xd5=\x8e8'
p4900
tp4901
Rp4902
tp4903
a(g104
g6
(g18
S'\x800&7'
p4904
tp4905
Rp4906
tp4907
a(g92
g6
(g18
S'\x17#\xad5'
p4908
tp4909
Rp4910
tp4911
a(g493
g6
(g18
S'\xe5F\x0c5'
p4912
tp4913
Rp4914
tp4915
asg73
g15
sa(dp4916
g2
S'../../../data/emanuela/activity-recognition/images/NTCIR-Lifelog-256/u2/2015-04-22/b00001020_21i7lf_20150422_085312e.jpg'
p4917
sg4
(lp4918
(g68
g6
(g18
S'\x0c\x04\xb9>'
p4919
tp4920
Rp4921
tp4922
a(g127
g6
(g18
S'\x80-\x90>'
p4923
tp4924
Rp4925
tp4926
a(g32
g6
(g18
S'\xe3\x87@>'
p4927
tp4928
Rp4929
tp4930
a(g44
g6
(g18
S'dJ\xc7='
p4931
tp4932
Rp4933
tp4934
a(g212
g6
(g18
S'\xbb\xd9\xd0<'
p4935
tp4936
Rp4937
tp4938
asg73
g15
sa(dp4939
g2
S'../../../data/emanuela/activity-recognition/images/NTCIR-Lifelog-256/u2/2015-04-24/b00002820_21i7lf_20150424_205235e.jpg'
p4940
sg4
(lp4941
(g15
g6
(g18
S'\xd0\xe8\x7f?'
p4942
tp4943
Rp4944
tp4945
a(g56
g6
(g18
S'Md\xa19'
p4946
tp4947
Rp4948
tp4949
a(g68
g6
(g18
S'\xa3\xdc=7'
p4950
tp4951
Rp4952
tp4953
a(g44
g6
(g18
S'mB77'
p4954
tp4955
Rp4956
tp4957
a(g104
g6
(g18
S'[m\r7'
p4958
tp4959
Rp4960
tp4961
asg73
g15
sa(dp4962
g2
S'../../../data/emanuela/activity-recognition/images/NTCIR-Lifelog-256/u2/2015-04-29/b00000506_21i7lf_20150429_124213e.jpg'
p4963
sg4
(lp4964
(g15
g6
(g18
S'\x16]|?'
p4965
tp4966
Rp4967
tp4968
a(g44
g6
(g18
S'.\xc0\xdf;'
p4969
tp4970
Rp4971
tp4972
a(g56
g6
(g18
S'\xc9\xda+;'
p4973
tp4974
Rp4975
tp4976
a(g32
g6
(g18
S'r\r(;'
p4977
tp4978
Rp4979
tp4980
a(g68
g6
(g18
S'&\xc0\x9f:'
p4981
tp4982
Rp4983
tp4984
asg73
g15
sa(dp4985
g2
S'../../../data/emanuela/activity-recognition/images/NTCIR-Lifelog-256/u2/2015-06-18/b00002596_21i7lf_20150618_095310e.jpg'
p4986
sg4
(lp4987
(g15
g6
(g18
S'\xb1\xda\x7f?'
p4988
tp4989
Rp4990
tp4991
a(g56
g6
(g18
S'\xc7Fg9'
p4992
tp4993
Rp4994
tp4995
a(g92
g6
(g18
S'\xbc\xce<9'
p4996
tp4997
Rp4998
tp4999
a(g44
g6
(g18
S'\xfa\x01\x918'
p5000
tp5001
Rp5002
tp5003
a(g68
g6
(g18
S'\x84\xdc\xcd7'
p5004
tp5005
Rp5006
tp5007
asg73
g15
sa(dp5008
g2
S'../../../data/emanuela/activity-recognition/images/NTCIR-Lifelog-256/u2/2015-04-24/b00001934_21i7lf_20150424_091200e.jpg'
p5009
sg4
(lp5010
(g56
g6
(g18
S'3{t?'
p5011
tp5012
Rp5013
tp5014
a(g15
g6
(g18
S'1\xecT<'
p5015
tp5016
Rp5017
tp5018
a(g104
g6
(g18
S'\xbf\xc4*<'
p5019
tp5020
Rp5021
tp5022
a(g32
g6
(g18
S'=\x1f\x87;'
p5023
tp5024
Rp5025
tp5026
a(g147
g6
(g18
S'\xc6\xaex;'
p5027
tp5028
Rp5029
tp5030
asg73
g15
sa(dp5031
g2
S'../../../data/emanuela/activity-recognition/images/NTCIR-Lifelog-256/u2/2015-04-27/b00004974_21i7lf_20150427_090718e.jpg'
p5032
sg4
(lp5033
(g56
g6
(g18
S' \x82\xcd>'
p5034
tp5035
Rp5036
tp5037
a(g15
g6
(g18
S'\x1d\x11K>'
p5038
tp5039
Rp5040
tp5041
a(g712
g6
(g18
S'\xde\xb0\xb7='
p5042
tp5043
Rp5044
tp5045
a(g147
g6
(g18
S'\x03\x9f\xa9='
p5046
tp5047
Rp5048
tp5049
a(g32
g6
(g18
S'\x1c\x1d\x80='
p5050
tp5051
Rp5052
tp5053
asg73
g15
sa(dp5054
g2
S'../../../data/emanuela/activity-recognition/images/NTCIR-Lifelog-256/u2/2015-04-21/b00000321_21i7lf_20150421_131004e.jpg'
p5055
sg4
(lp5056
(g15
g6
(g18
S'\xf0\x81}?'
p5057
tp5058
Rp5059
tp5060
a(g56
g6
(g18
S'\x14r\xe4;'
p5061
tp5062
Rp5063
tp5064
a(g44
g6
(g18
S'\xa1\x92\xcf:'
p5065
tp5066
Rp5067
tp5068
a(g68
g6
(g18
S'\xc5\xb7%:'
p5069
tp5070
Rp5071
tp5072
a(g712
g6
(g18
S'T9;9'
p5073
tp5074
Rp5075
tp5076
asg73
g15
sa(dp5077
g2
S'../../../data/emanuela/activity-recognition/images/NTCIR-Lifelog-256/u2/2015-06-20/b00004329_21i7lf_20150620_101814e.jpg'
p5078
sg4
(lp5079
(g68
g6
(g18
S'+\xd7\\?'
p5080
tp5081
Rp5082
tp5083
a(g15
g6
(g18
S'\xef\x93Q='
p5084
tp5085
Rp5086
tp5087
a(g127
g6
(g18
S'\xbe.\x16='
p5088
tp5089
Rp5090
tp5091
a(g212
g6
(g18
S'\xc3\xe9\xae<'
p5092
tp5093
Rp5094
tp5095
a(g56
g6
(g18
S'\xdcO~<'
p5096
tp5097
Rp5098
tp5099
asg73
g15
sa(dp5100
g2
S'../../../data/emanuela/activity-recognition/images/NTCIR-Lifelog-256/u2/2015-06-16/b00001377_21i7lf_20150616_073745e.jpg'
p5101
sg4
(lp5102
(g15
g6
(g18
S'a\xeb%?'
p5103
tp5104
Rp5105
tp5106
a(g32
g6
(g18
S'bm&>'
p5107
tp5108
Rp5109
tp5110
a(g68
g6
(g18
S"'J\x95="
p5111
tp5112
Rp5113
tp5114
a(g56
g6
(g18
S'\xe9\xaam='
p5115
tp5116
Rp5117
tp5118
a(g44
g6
(g18
S'\xbdI\x1d='
p5119
tp5120
Rp5121
tp5122
asg73
g15
sa(dp5123
g2
S'../../../data/emanuela/activity-recognition/images/NTCIR-Lifelog-256/u2/2015-06-20/b00004330_21i7lf_20150620_101833e.jpg'
p5124
sg4
(lp5125
(g68
g6
(g18
S'`\xaa\x04?'
p5126
tp5127
Rp5128
tp5129
a(g15
g6
(g18
S'\x935\x8a>'
p5130
tp5131
Rp5132
tp5133
a(g44
g6
(g18
S'\xacy\x8d='
p5134
tp5135
Rp5136
tp5137
a(g127
g6
(g18
S'\xc6\xb2\x88='
p5138
tp5139
Rp5140
tp5141
a(g32
g6
(g18
S'\xfe\xaa\xef<'
p5142
tp5143
Rp5144
tp5145
asg73
g15
sa(dp5146
g2
S'../../../data/emanuela/activity-recognition/images/NTCIR-Lifelog-256/u2/2015-04-22/b00001339_21i7lf_20150422_121243e.jpg'
p5147
sg4
(lp5148
(g15
g6
(g18
S'B\xd0^?'
p5149
tp5150
Rp5151
tp5152
a(g44
g6
(g18
S'c\xa2\xca='
p5153
tp5154
Rp5155
tp5156
a(g32
g6
(g18
S'\xdb\xee\xe0<'
p5157
tp5158
Rp5159
tp5160
a(g147
g6
(g18
S'\x1e\xda\x17;'
p5161
tp5162
Rp5163
tp5164
a(g127
g6
(g18
S'\xf4?\xd49'
p5165
tp5166
Rp5167
tp5168
asg73
g15
sa(dp5169
g2
S'../../../data/emanuela/activity-recognition/images/NTCIR-Lifelog-256/u2/2015-05-03/b00004004_21i7lf_20150503_170310e.jpg'
p5170
sg4
(lp5171
(g15
g6
(g18
S'!\xee\xbf>'
p5172
tp5173
Rp5174
tp5175
a(g32
g6
(g18
S'\xce\x19u>'
p5176
tp5177
Rp5178
tp5179
a(g147
g6
(g18
S'\n\x82\x9d='
p5180
tp5181
Rp5182
tp5183
a(g56
g6
(g18
S'\xcfn\x8c='
p5184
tp5185
Rp5186
tp5187
a(g6
(g7
(S'S7'
p5188
I0
I1
tp5189
Rp5190
(I3
S'|'
p5191
NNNI7
I1
I0
tp5192
bS'driving'
p5193
tp5194
Rp5195
g6
(g18
S'\xbcq\x8b='
p5196
tp5197
Rp5198
tp5199
asg73
g15
sa(dp5200
g2
S'../../../data/emanuela/activity-recognition/images/NTCIR-Lifelog-256/u2/2015-04-27/b00005383_21i7lf_20150427_132200e.jpg'
p5201
sg4
(lp5202
(g56
g6
(g18
S'[\xa2G?'
p5203
tp5204
Rp5205
tp5206
a(g15
g6
(g18
S'QY\xef='
p5207
tp5208
Rp5209
tp5210
a(g68
g6
(g18
S'+V\x96='
p5211
tp5212
Rp5213
tp5214
a(g147
g6
(g18
S'\xe7\xfc\x89<'
p5215
tp5216
Rp5217
tp5218
a(g127
g6
(g18
S'\x94;\xa3;'
p5219
tp5220
Rp5221
tp5222
asg73
g15
sa(dp5223
g2
S'../../../data/emanuela/activity-recognition/images/NTCIR-Lifelog-256/u2/2015-05-03/b00004005_21i7lf_20150503_170345e.jpg'
p5224
sg4
(lp5225
(g15
g6
(g18
S'icr?'
p5226
tp5227
Rp5228
tp5229
a(g56
g6
(g18
S'\x82\xfbQ='
p5230
tp5231
Rp5232
tp5233
a(g104
g6
(g18
S'\xa2\x02@:'
p5234
tp5235
Rp5236
tp5237
a(g92
g6
(g18
S'\x1b\xa0\xec9'
p5238
tp5239
Rp5240
tp5241
a(g493
g6
(g18
S'\x12^\xe19'
p5242
tp5243
Rp5244
tp5245
asg73
g15
sa(dp5246
g2
S'../../../data/emanuela/activity-recognition/images/NTCIR-Lifelog-256/u2/2015-06-21/b00005055_21i7lf_20150621_122029e.jpg'
p5247
sg4
(lp5248
(g1748
g6
(g18
S'\x16\xf8\xcf>'
p5249
tp5250
Rp5251
tp5252
a(g712
g6
(g18
S'+@s>'
p5253
tp5254
Rp5255
tp5256
a(g15
g6
(g18
S'\xf9\xe3N>'
p5257
tp5258
Rp5259
tp5260
a(g56
g6
(g18
S'\xce\xf2V='
p5261
tp5262
Rp5263
tp5264
a(g127
g6
(g18
S'\xef\x0cL='
p5265
tp5266
Rp5267
tp5268
asg73
g15
sa(dp5269
g2
S'../../../data/emanuela/activity-recognition/images/NTCIR-Lifelog-256/u2/2015-04-22/b00001343_21i7lf_20150422_121514e.jpg'
p5270
sg4
(lp5271
(g15
g6
(g18
S'\xfb\x9e~?'
p5272
tp5273
Rp5274
tp5275
a(g68
g6
(g18
S'G\xec\t;'
p5276
tp5277
Rp5278
tp5279
a(g56
g6
(g18
S'^K\x00;'
p5280
tp5281
Rp5282
tp5283
a(g493
g6
(g18
S'\xa5\xd0\xec9'
p5284
tp5285
Rp5286
tp5287
a(g224
g6
(g18
S'[\xf6\xdd9'
p5288
tp5289
Rp5290
tp5291
asg73
g15
sa(dp5292
g2
S'../../../data/emanuela/activity-recognition/images/NTCIR-Lifelog-256/u2/2015-06-18/b00002806_21i7lf_20150618_120911e.jpg'
p5293
sg4
(lp5294
(g15
g6
(g18
S'\xae>\x7f?'
p5295
tp5296
Rp5297
tp5298
a(g44
g6
(g18
S'\x1c\xed\x1f;'
p5299
tp5300
Rp5301
tp5302
a(g92
g6
(g18
S'\xc8\xd5\x949'
p5303
tp5304
Rp5305
tp5306
a(g32
g6
(g18
S'eI\xd58'
p5307
tp5308
Rp5309
tp5310
a(g56
g6
(g18
S'"\xd8\x8d8'
p5311
tp5312
Rp5313
tp5314
asg73
g15
sa(dp5315
g2
S'../../../data/emanuela/activity-recognition/images/NTCIR-Lifelog-256/u2/2015-04-21/b00000324_21i7lf_20150421_131201e.jpg'
p5316
sg4
(lp5317
(g15
g6
(g18
S'\xcc\xc7\x7f?'
p5318
tp5319
Rp5320
tp5321
a(g56
g6
(g18
S'\xe6\xd4J:'
p5322
tp5323
Rp5324
tp5325
a(g104
g6
(g18
S'\xb2\x12(8'
p5326
tp5327
Rp5328
tp5329
a(g92
g6
(g18
S'\x05\xc1e7'
p5330
tp5331
Rp5332
tp5333
a(g44
g6
(g18
S'l\xa5\x1e7'
p5334
tp5335
Rp5336
tp5337
asg73
g15
sa(dp5338
g2
S'../../../data/emanuela/activity-recognition/images/NTCIR-Lifelog-256/u2/2015-05-08/b00008986_21i7lf_20150508_122926e.jpg'
p5339
sg4
(lp5340
(g15
g6
(g18
S'm\x05u?'
p5341
tp5342
Rp5343
tp5344
a(g56
g6
(g18
S'0}\xa3<'
p5345
tp5346
Rp5347
tp5348
a(g1974
g6
(g18
S'H\x94\x8d;'
p5349
tp5350
Rp5351
tp5352
a(g68
g6
(g18
S'\xa0\xb2\x85;'
p5353
tp5354
Rp5355
tp5356
a(g32
g6
(g18
S'\xc6\x98z;'
p5357
tp5358
Rp5359
tp5360
asg73
g15
sa(dp5361
g2
S'../../../data/emanuela/activity-recognition/images/NTCIR-Lifelog-256/u2/2015-04-28/b00006646_21i7lf_20150428_122954e.jpg'
p5362
sg4
(lp5363
(g15
g6
(g18
S'\xcb\xcb\x7f?'
p5364
tp5365
Rp5366
tp5367
a(g44
g6
(g18
S'gG\xf59'
p5368
tp5369
Rp5370
tp5371
a(g56
g6
(g18
S'\xf5\x83\x899'
p5372
tp5373
Rp5374
tp5375
a(g32
g6
(g18
S"'\xae\x897"
p5376
tp5377
Rp5378
tp5379
a(g104
g6
(g18
S'\xe99p7'
p5380
tp5381
Rp5382
tp5383
asg73
g15
sa(dp5384
g2
S'../../../data/emanuela/activity-recognition/images/NTCIR-Lifelog-256/u2/2015-06-16/b00001352_21i7lf_20150616_072225e.jpg'
p5385
sg4
(lp5386
(g68
g6
(g18
S'i\n\x07?'
p5387
tp5388
Rp5389
tp5390
a(g56
g6
(g18
S'\xfa\xc98>'
p5391
tp5392
Rp5393
tp5394
a(g127
g6
(g18
S'JJ\xaf='
p5395
tp5396
Rp5397
tp5398
a(g15
g6
(g18
S'\x08K\xa6='
p5399
tp5400
Rp5401
tp5402
a(g147
g6
(g18
S'N\xbbl='
p5403
tp5404
Rp5405
tp5406
asg73
g15
sa(dp5407
g2
S'../../../data/emanuela/activity-recognition/images/NTCIR-Lifelog-256/u2/2015-04-21/b00000320_21i7lf_20150421_130923e.jpg'
p5408
sg4
(lp5409
(g15
g6
(g18
S'\x8e\xcfJ?'
p5410
tp5411
Rp5412
tp5413
a(g44
g6
(g18
S'\xe75#>'
p5414
tp5415
Rp5416
tp5417
a(g68
g6
(g18
S'\r\x8b\xde<'
p5418
tp5419
Rp5420
tp5421
a(g127
g6
(g18
S'\xe8\r\x11<'
p5422
tp5423
Rp5424
tp5425
a(g32
g6
(g18
S'\x84\x85\x7f;'
p5426
tp5427
Rp5428
tp5429
asg73
g15
sa(dp5430
g2
S'../../../data/emanuela/activity-recognition/images/NTCIR-Lifelog-256/u2/2015-04-22/b00000754_21i7lf_20150422_204503e.jpg'
p5431
sg4
(lp5432
(g15
g6
(g18
S'\xb8\xfd\x7f?'
p5433
tp5434
Rp5435
tp5436
a(g56
g6
(g18
S'mT\x058'
p5437
tp5438
Rp5439
tp5440
a(g68
g6
(g18
S"'=\xe65"
p5441
tp5442
Rp5443
tp5444
a(g44
g6
(g18
S'N?45'
p5445
tp5446
Rp5447
tp5448
a(g147
g6
(g18
S'\xe8\xb0r4'
p5449
tp5450
Rp5451
tp5452
asg73
g15
sa(dp5453
g2
S'../../../data/emanuela/activity-recognition/images/NTCIR-Lifelog-256/u2/2015-04-24/b00002825_21i7lf_20150424_205538e.jpg'
p5454
sg4
(lp5455
(g15
g6
(g18
S'v\xf9\x7f?'
p5456
tp5457
Rp5458
tp5459
a(g56
g6
(g18
S'\x9a\x8a\xca8'
p5460
tp5461
Rp5462
tp5463
a(g104
g6
(g18
S'D\x9b\xc25'
p5464
tp5465
Rp5466
tp5467
a(g44
g6
(g18
S'\rDN5'
p5468
tp5469
Rp5470
tp5471
a(g68
g6
(g18
S'2\n\xed4'
p5472
tp5473
Rp5474
tp5475
asg73
g15
sa(dp5476
g2
S'../../../data/emanuela/activity-recognition/images/NTCIR-Lifelog-256/u2/2015-05-03/b00004011_21i7lf_20150503_170723e.jpg'
p5477
sg4
(lp5478
(g15
g6
(g18
S'~\xfa\x7f?'
p5479
tp5480
Rp5481
tp5482
a(g56
g6
(g18
S'9\x85\xab8'
p5483
tp5484
Rp5485
tp5486
a(g44
g6
(g18
S'\x16|\x815'
p5487
tp5488
Rp5489
tp5490
a(g104
g6
(g18
S'8\xb3\xd34'
p5491
tp5492
Rp5493
tp5494
a(g92
g6
(g18
S'\x18\x1c\x994'
p5495
tp5496
Rp5497
tp5498
asg73
g15
sa(dp5499
g2
S'../../../data/emanuela/activity-recognition/images/NTCIR-Lifelog-256/u2/2015-05-03/b00004022_21i7lf_20150503_171420e.jpg'
p5500
sg4
(lp5501
(g32
g6
(g18
S'\xb4v\xb5>'
p5502
tp5503
Rp5504
tp5505
a(g44
g6
(g18
S'"m\xa0>'
p5506
tp5507
Rp5508
tp5509
a(g15
g6
(g18
S':\xa6*>'
p5510
tp5511
Rp5512
tp5513
a(g68
g6
(g18
S':\x91\xc1='
p5514
tp5515
Rp5516
tp5517
a(g92
g6
(g18
S'\xb8r\xf5<'
p5518
tp5519
Rp5520
tp5521
asg73
g15
sa(dp5522
g2
S'../../../data/emanuela/activity-recognition/images/NTCIR-Lifelog-256/u2/2015-06-19/b00003514_21i7lf_20150619_112630e.jpg'
p5523
sg4
(lp5524
(g56
g6
(g18
S'\xa7\xb5\x01?'
p5525
tp5526
Rp5527
tp5528
a(g15
g6
(g18
S'\x1b\xdc\xb4>'
p5529
tp5530
Rp5531
tp5532
a(g712
g6
(g18
S'\xc2\x0ed='
p5533
tp5534
Rp5535
tp5536
a(g104
g6
(g18
S'\x0c\xe5C='
p5537
tp5538
Rp5539
tp5540
a(g68
g6
(g18
S'\x1dD\x88<'
p5541
tp5542
Rp5543
tp5544
asg73
g15
sa(dp5545
g2
S'../../../data/emanuela/activity-recognition/images/NTCIR-Lifelog-256/u2/2015-06-17/b00002270_21i7lf_20150617_120145e.jpg'
p5546
sg4
(lp5547
(g15
g6
(g18
S'\x01;b?'
p5548
tp5549
Rp5550
tp5551
a(g68
g6
(g18
S'<\x10#='
p5552
tp5553
Rp5554
tp5555
a(g56
g6
(g18
S'\x92\xcb\xea<'
p5556
tp5557
Rp5558
tp5559
a(g44
g6
(g18
S'\xa9"J<'
p5560
tp5561
Rp5562
tp5563
a(g127
g6
(g18
S'.\x07J<'
p5564
tp5565
Rp5566
tp5567
asg73
g15
sa(dp5568
g2
S'../../../data/emanuela/activity-recognition/images/NTCIR-Lifelog-256/u2/2015-05-03/b00003995_21i7lf_20150503_165733e.jpg'
p5569
sg4
(lp5570
(g15
g6
(g18
S'\xf8\xfdt?'
p5571
tp5572
Rp5573
tp5574
a(g56
g6
(g18
S'gU\x03='
p5575
tp5576
Rp5577
tp5578
a(g104
g6
(g18
S'\xd5\xf3\xe4;'
p5579
tp5580
Rp5581
tp5582
a(g212
g6
(g18
S'\xe4o\xe1:'
p5583
tp5584
Rp5585
tp5586
a(g493
g6
(g18
S'\x80:`:'
p5587
tp5588
Rp5589
tp5590
asg73
g15
sa(dp5591
g2
S'../../../data/emanuela/activity-recognition/images/NTCIR-Lifelog-256/u2/2015-05-05/b00005746_21i7lf_20150505_162120e.jpg'
p5592
sg4
(lp5593
(g15
g6
(g18
S'V\xf9\x7f?'
p5594
tp5595
Rp5596
tp5597
a(g56
g6
(g18
S'3\xeee8'
p5598
tp5599
Rp5600
tp5601
a(g44
g6
(g18
S'y\xf8\x1e8'
p5602
tp5603
Rp5604
tp5605
a(g68
g6
(g18
S'\x84\xfbd6'
p5606
tp5607
Rp5608
tp5609
a(g493
g6
(g18
S'8\x9f\xc95'
p5610
tp5611
Rp5612
tp5613
asg73
g15
sa(dp5614
g2
S'../../../data/emanuela/activity-recognition/images/NTCIR-Lifelog-256/u2/2015-04-28/b00006645_21i7lf_20150428_122920e.jpg'
p5615
sg4
(lp5616
(g15
g6
(g18
S'Z\x03\x7f?'
p5617
tp5618
Rp5619
tp5620
a(g56
g6
(g18
S'r\x14\xbf:'
p5621
tp5622
Rp5623
tp5624
a(g44
g6
(g18
S' \x8e\xb1:'
p5625
tp5626
Rp5627
tp5628
a(g32
g6
(g18
S'\x06Q\x07:'
p5629
tp5630
Rp5631
tp5632
a(g68
g6
(g18
S'\xe7\xd6\x8f9'
p5633
tp5634
Rp5635
tp5636
asg73
g15
sa(dp5637
g2
S'../../../data/emanuela/activity-recognition/images/NTCIR-Lifelog-256/u2/2015-05-07/b00007348_21i7lf_20150507_085637e.jpg'
p5638
sg4
(lp5639
(g68
g6
(g18
S'\xce\xb1\xd5>'
p5640
tp5641
Rp5642
tp5643
a(g32
g6
(g18
S'\x12L\xb2>'
p5644
tp5645
Rp5646
tp5647
a(g127
g6
(g18
S'\xb7i\x04>'
p5648
tp5649
Rp5650
tp5651
a(g700
g6
(g18
S'G\x99\xc6<'
p5652
tp5653
Rp5654
tp5655
a(g44
g6
(g18
S'\xda\x15\xc5<'
p5656
tp5657
Rp5658
tp5659
asg73
g15
sa(dp5660
g2
S'../../../data/emanuela/activity-recognition/images/NTCIR-Lifelog-256/u2/2015-06-21/b00005052_21i7lf_20150621_121836e.jpg'
p5661
sg4
(lp5662
(g15
g6
(g18
S'\xaa\x13T?'
p5663
tp5664
Rp5665
tp5666
a(g44
g6
(g18
S'\xe3\x89\x12>'
p5667
tp5668
Rp5669
tp5670
a(g32
g6
(g18
S'W.\xe4<'
p5671
tp5672
Rp5673
tp5674
a(g92
g6
(g18
S'\x97\xd3\xff9'
p5675
tp5676
Rp5677
tp5678
a(g900
g6
(g18
S'\x8e\xd6=8'
p5679
tp5680
Rp5681
tp5682
asg73
g15
sa(dp5683
g2
S'../../../data/emanuela/activity-recognition/images/NTCIR-Lifelog-256/u2/2015-05-03/b00004013_21i7lf_20150503_170836e.jpg'
p5684
sg4
(lp5685
(g15
g6
(g18
S'\xf6\xa8\x7f?'
p5686
tp5687
Rp5688
tp5689
a(g44
g6
(g18
S'In>:'
p5690
tp5691
Rp5692
tp5693
a(g32
g6
(g18
S"\xb1'x9"
p5694
tp5695
Rp5696
tp5697
a(g68
g6
(g18
S'\xfa\xd2!9'
p5698
tp5699
Rp5700
tp5701
a(g92
g6
(g18
S'@ \xf48'
p5702
tp5703
Rp5704
tp5705
asg73
g15
sa(dp5706
g2
S'../../../data/emanuela/activity-recognition/images/NTCIR-Lifelog-256/u2/2015-05-03/b00004006_21i7lf_20150503_170417e.jpg'
p5707
sg4
(lp5708
(g15
g6
(g18
S'\xf2k\x7f?'
p5709
tp5710
Rp5711
tp5712
a(g56
g6
(g18
S'\x08\xdf\r;'
p5713
tp5714
Rp5715
tp5716
a(g92
g6
(g18
S'\\\xd9\x198'
p5717
tp5718
Rp5719
tp5720
a(g104
g6
(g18
S"\xc8'\x088"
p5721
tp5722
Rp5723
tp5724
a(g493
g6
(g18
S'1z~7'
p5725
tp5726
Rp5727
tp5728
asg73
g15
sa(dp5729
g2
S'../../../data/emanuela/activity-recognition/images/NTCIR-Lifelog-256/u2/2015-05-01/b00002099_21i7lf_20150501_122318e.jpg'
p5730
sg4
(lp5731
(g15
g6
(g18
S'\x8fq{?'
p5732
tp5733
Rp5734
tp5735
a(g68
g6
(g18
S'1\xc2\x00<'
p5736
tp5737
Rp5738
tp5739
a(g56
g6
(g18
S'\xb0^\x83;'
p5740
tp5741
Rp5742
tp5743
a(g32
g6
(g18
S'\xf8@f;'
p5744
tp5745
Rp5746
tp5747
a(g44
g6
(g18
S'yB\x9c:'
p5748
tp5749
Rp5750
tp5751
asg73
g15
sa(dp5752
g2
S'../../../data/emanuela/activity-recognition/images/NTCIR-Lifelog-256/u2/2015-04-20/b00000282_21i7lf_20150420_122746e.jpg'
p5753
sg4
(lp5754
(g15
g6
(g18
S'\x10\xf9[?'
p5755
tp5756
Rp5757
tp5758
a(g68
g6
(g18
S'P\x96#='
p5759
tp5760
Rp5761
tp5762
a(g32
g6
(g18
S'\xd4\xe0\x10='
p5763
tp5764
Rp5765
tp5766
a(g44
g6
(g18
S'\x99o\xd5<'
p5767
tp5768
Rp5769
tp5770
a(g224
g6
(g18
S'\xf7 \x1f<'
p5771
tp5772
Rp5773
tp5774
asg73
g15
sa(dp5775
g2
S'../../../data/emanuela/activity-recognition/images/NTCIR-Lifelog-256/u2/2015-05-08/b00008983_21i7lf_20150508_122740e.jpg'
p5776
sg4
(lp5777
(g56
g6
(g18
S'\x17\xbep?'
p5778
tp5779
Rp5780
tp5781
a(g15
g6
(g18
S'\xf5\x9fQ='
p5782
tp5783
Rp5784
tp5785
a(g104
g6
(g18
S'\xff?w;'
p5786
tp5787
Rp5788
tp5789
a(g68
g6
(g18
S'\x17\xcb\xb1:'
p5790
tp5791
Rp5792
tp5793
a(g147
g6
(g18
S'V+\x86:'
p5794
tp5795
Rp5796
tp5797
asg73
g15
sa(dp5798
g2
S'../../../data/emanuela/activity-recognition/images/NTCIR-Lifelog-256/u2/2015-06-19/b00003515_21i7lf_20150619_112709e.jpg'
p5799
sg4
(lp5800
(g15
g6
(g18
S'\xd5a\xcf>'
p5801
tp5802
Rp5803
tp5804
a(g44
g6
(g18
S'\xea\x8a~>'
p5805
tp5806
Rp5807
tp5808
a(g68
g6
(g18
S'\x81\xf5D>'
p5809
tp5810
Rp5811
tp5812
a(g1748
g6
(g18
S'<\x9f\x03='
p5813
tp5814
Rp5815
tp5816
a(g712
g6
(g18
S'\xc3\xd7\xed<'
p5817
tp5818
Rp5819
tp5820
asg73
g15
sa(dp5821
g2
S'../../../data/emanuela/activity-recognition/images/NTCIR-Lifelog-256/u2/2015-06-17/b00002372_21i7lf_20150617_130947e.jpg'
p5822
sg4
(lp5823
(g15
g6
(g18
S'\x1d\xf2\x7f?'
p5824
tp5825
Rp5826
tp5827
a(g56
g6
(g18
S'\x91\x93+9'
p5828
tp5829
Rp5830
tp5831
a(g92
g6
(g18
S'\xef\x18\xfb7'
p5832
tp5833
Rp5834
tp5835
a(g44
g6
(g18
S'm\x11`7'
p5836
tp5837
Rp5838
tp5839
a(g68
g6
(g18
S' _\xcc5'
p5840
tp5841
Rp5842
tp5843
asg73
g15
sa(dp5844
g2
S'../../../data/emanuela/activity-recognition/images/NTCIR-Lifelog-256/u2/2015-04-30/b00001007_21i7lf_20150430_130317e.jpg'
p5845
sg4
(lp5846
(g15
g6
(g18
S':\xd7~?'
p5847
tp5848
Rp5849
tp5850
a(g56
g6
(g18
S'\xce\xd5\x82;'
p5851
tp5852
Rp5853
tp5854
a(g68
g6
(g18
S'-\n\x829'
p5855
tp5856
Rp5857
tp5858
a(g44
g6
(g18
S'\xddL\xf98'
p5859
tp5860
Rp5861
tp5862
a(g127
g6
(g18
S'\x05\x1f+8'
p5863
tp5864
Rp5865
tp5866
asg73
g15
sa(dp5867
g2
S'../../../data/emanuela/activity-recognition/images/NTCIR-Lifelog-256/u2/2015-04-24/b00002819_21i7lf_20150424_205155e.jpg'
p5868
sg4
(lp5869
(g15
g6
(g18
S'\x19\xcb\x7f?'
p5870
tp5871
Rp5872
tp5873
a(g56
g6
(g18
S'*\x1bI:'
p5874
tp5875
Rp5876
tp5877
a(g104
g6
(g18
S'!\xe9.7'
p5878
tp5879
Rp5880
tp5881
a(g68
g6
(g18
S';\x9b\x0b7'
p5882
tp5883
Rp5884
tp5885
a(g92
g6
(g18
S'\x08\xc7\xa26'
p5886
tp5887
Rp5888
tp5889
asg73
g15
sa(dp5890
g2
S'../../../data/emanuela/activity-recognition/images/NTCIR-Lifelog-256/u2/2015-05-08/b00008991_21i7lf_20150508_123225e.jpg'
p5891
sg4
(lp5892
(g32
g6
(g18
S'\xb5\x90\xfa>'
p5893
tp5894
Rp5895
tp5896
a(g15
g6
(g18
S'W\x90s>'
p5897
tp5898
Rp5899
tp5900
a(g44
g6
(g18
S'\x9a\xdc@>'
p5901
tp5902
Rp5903
tp5904
a(g68
g6
(g18
S'\xd9;\xea<'
p5905
tp5906
Rp5907
tp5908
a(g92
g6
(g18
S'\xbb\xca\xab<'
p5909
tp5910
Rp5911
tp5912
asg73
g15
sa.