(lp0
(dp1
S'image'
p2
S'../../../data/emanuela/activity-recognition/images/NTCIR-Lifelog-256/u2/2015-04-27/b00005714_21i7lf_20150427_164748e.jpg'
p3
sS'result'
p4
(lp5
(cnumpy.core.multiarray
scalar
p6
(cnumpy
dtype
p7
(S'S7'
p8
I0
I1
tp9
Rp10
(I3
S'|'
p11
NNNI7
I1
I0
tp12
bS'driving'
p13
tp14
Rp15
g6
(g7
(S'f4'
p16
I0
I1
tp17
Rp18
(I3
S'<'
p19
NNNI-1
I-1
I0
tp20
bS'{+\x7f?'
p21
tp22
Rp23
tp24
a(g6
(g7
(S'S16'
p25
I0
I1
tp26
Rp27
(I3
S'|'
p28
NNNI16
I1
I0
tp29
bS'public transport'
p30
tp31
Rp32
g6
(g18
S'#\xcc\x0b;'
p33
tp34
Rp35
tp36
a(g6
(g7
(S'S5'
p37
I0
I1
tp38
Rp39
(I3
S'|'
p40
NNNI5
I1
I0
tp41
bS'plane'
p42
tp43
Rp44
g6
(g18
S'H\xba\xf39'
p45
tp46
Rp47
tp48
a(g6
(g7
(S'S15'
p49
I0
I1
tp50
Rp51
(I3
S'|'
p52
NNNI15
I1
I0
tp53
bS'walking outdoor'
p54
tp55
Rp56
g6
(g18
S'\xc5\xad\xa09'
p57
tp58
Rp59
tp60
a(g6
(g7
(S'S11'
p61
I0
I1
tp62
Rp63
(I3
S'|'
p64
NNNI11
I1
I0
tp65
bS'socializing'
p66
tp67
Rp68
g6
(g18
S'.\xd5\x199'
p69
tp70
Rp71
tp72
asS'label'
p73
g15
sa(dp74
g2
S'../../../data/emanuela/activity-recognition/images/NTCIR-Lifelog-256/u2/2015-04-27/b00005722_21i7lf_20150427_165227e.jpg'
p75
sg4
(lp76
(g15
g6
(g18
S'>uw?'
p77
tp78
Rp79
tp80
a(g32
g6
(g18
S"'\x16\x83<"
p81
tp82
Rp83
tp84
a(g44
g6
(g18
S'oR$<'
p85
tp86
Rp87
tp88
a(g56
g6
(g18
S'\xcd"\r;'
p89
tp90
Rp91
tp92
a(g68
g6
(g18
S'\x82\xc5\x01;'
p93
tp94
Rp95
tp96
asg73
g15
sa(dp97
g2
S'../../../data/emanuela/activity-recognition/images/NTCIR-Lifelog-256/u2/2015-04-27/b00005715_21i7lf_20150427_164822e.jpg'
p98
sg4
(lp99
(g15
g6
(g18
S'\x18\x82w?'
p100
tp101
Rp102
tp103
a(g32
g6
(g18
S'\xb76\xf2<'
p104
tp105
Rp106
tp107
a(g44
g6
(g18
S'R\x9a\xd3:'
p108
tp109
Rp110
tp111
a(g56
g6
(g18
S'\x82V\x82:'
p112
tp113
Rp114
tp115
a(g6
(g7
(S'S7'
p116
I0
I1
tp117
Rp118
(I3
S'|'
p119
NNNI7
I1
I0
tp120
bS'reading'
p121
tp122
Rp123
g6
(g18
S'\x1aam9'
p124
tp125
Rp126
tp127
asg73
g15
sa(dp128
g2
S'../../../data/emanuela/activity-recognition/images/NTCIR-Lifelog-256/u2/2015-04-27/b00005861_21i7lf_20150427_181714e.jpg'
p129
sg4
(lp130
(g15
g6
(g18
S'\x907_?'
p131
tp132
Rp133
tp134
a(g6
(g7
(S'S19'
p135
I0
I1
tp136
Rp137
(I3
S'|'
p138
NNNI19
I1
I0
tp139
bS'cleaning and chores'
p140
tp141
Rp142
g6
(g18
S'\xbe\x06\x08='
p143
tp144
Rp145
tp146
a(g56
g6
(g18
S'\x0fn\x07='
p147
tp148
Rp149
tp150
a(g68
g6
(g18
S'S\x1b\x02='
p151
tp152
Rp153
tp154
a(g32
g6
(g18
S'\x8c2\xbc;'
p155
tp156
Rp157
tp158
asg73
g15
sa(dp159
g2
S'../../../data/emanuela/activity-recognition/images/NTCIR-Lifelog-256/u2/2015-04-27/b00005862_21i7lf_20150427_181755e.jpg'
p160
sg4
(lp161
(g15
g6
(g18
S'+H\xf2>'
p162
tp163
Rp164
tp165
a(g32
g6
(g18
S'{g\x8d>'
p166
tp167
Rp168
tp169
a(g56
g6
(g18
S'\xc0\xbe\x1b>'
p170
tp171
Rp172
tp173
a(g142
g6
(g18
S'\x98u\x19='
p174
tp175
Rp176
tp177
a(g68
g6
(g18
S'\xde\xa6Q<'
p178
tp179
Rp180
tp181
asg73
g15
sa(dp182
g2
S'../../../data/emanuela/activity-recognition/images/NTCIR-Lifelog-256/u2/2015-04-27/b00005859_21i7lf_20150427_181551e.jpg'
p183
sg4
(lp184
(g15
g6
(g18
S'M\xfd`?'
p185
tp186
Rp187
tp188
a(g142
g6
(g18
S'\xe5\x93m='
p189
tp190
Rp191
tp192
a(g68
g6
(g18
S'\x1c\xae\xdc<'
p193
tp194
Rp195
tp196
a(g6
(g7
(S'S6'
p197
I0
I1
tp198
Rp199
(I3
S'|'
p200
NNNI6
I1
I0
tp201
bS'mobile'
p202
tp203
Rp204
g6
(g18
S'A\x06\xf3;'
p205
tp206
Rp207
tp208
a(g6
(g7
(S'S24'
p209
I0
I1
tp210
Rp211
(I3
S'|'
p212
NNNI24
I1
I0
tp213
bS'having drinks/meal alone'
p214
tp215
Rp216
g6
(g18
S'\x0f\xa8\xac;'
p217
tp218
Rp219
tp220
asg73
g15
sa(dp221
g2
S'../../../data/emanuela/activity-recognition/images/NTCIR-Lifelog-256/u2/2015-04-27/b00005713_21i7lf_20150427_164710e.jpg'
p222
sg4
(lp223
(g15
g6
(g18
S'\xe5\xfa|?'
p224
tp225
Rp226
tp227
a(g32
g6
(g18
S'^?b;'
p228
tp229
Rp230
tp231
a(g68
g6
(g18
S'\xed9<;'
p232
tp233
Rp234
tp235
a(g56
g6
(g18
S'Q\xc5\xc5:'
p236
tp237
Rp238
tp239
a(g142
g6
(g18
S'<\x8b\xa6:'
p240
tp241
Rp242
tp243
asg73
g15
sa(dp244
g2
S'../../../data/emanuela/activity-recognition/images/NTCIR-Lifelog-256/u2/2015-04-27/b00005860_21i7lf_20150427_181633e.jpg'
p245
sg4
(lp246
(g15
g6
(g18
S'N\xfas?'
p247
tp248
Rp249
tp250
a(g32
g6
(g18
S'\x07\x97\xd7<'
p251
tp252
Rp253
tp254
a(g56
g6
(g18
S'Q\x05\x00<'
p255
tp256
Rp257
tp258
a(g68
g6
(g18
S'\xd4G\x82;'
p259
tp260
Rp261
tp262
a(g216
g6
(g18
S'\t\xb3j;'
p263
tp264
Rp265
tp266
asg73
g15
sa(dp267
g2
S'../../../data/emanuela/activity-recognition/images/NTCIR-Lifelog-256/u2/2015-04-27/b00005720_21i7lf_20150427_165115e.jpg'
p268
sg4
(lp269
(g15
g6
(g18
S'\x9c\xf7~?'
p270
tp271
Rp272
tp273
a(g44
g6
(g18
S'\x9f\x9c\x07;'
p274
tp275
Rp276
tp277
a(g204
g6
(g18
S'\x91"k:'
p278
tp279
Rp280
tp281
a(g32
g6
(g18
S'\x97\xf2\xf79'
p282
tp283
Rp284
tp285
a(g123
g6
(g18
S'\xaa5q9'
p286
tp287
Rp288
tp289
asg73
g15
sa(dp290
g2
S'../../../data/emanuela/activity-recognition/images/NTCIR-Lifelog-256/u2/2015-04-27/b00005865_21i7lf_20150427_182007e.jpg'
p291
sg4
(lp292
(g15
g6
(g18
S'9J=?'
p293
tp294
Rp295
tp296
a(g142
g6
(g18
S'C\xd5$>'
p297
tp298
Rp299
tp300
a(g216
g6
(g18
S'\x1f\x8b\xc1<'
p301
tp302
Rp303
tp304
a(g6
(g7
(S'S7'
p305
I0
I1
tp306
Rp307
(I3
S'|'
p308
NNNI7
I1
I0
tp309
bS'cooking'
p310
tp311
Rp312
g6
(g18
S'u\xabL<'
p313
tp314
Rp315
tp316
a(g204
g6
(g18
S'\xbbO;<'
p317
tp318
Rp319
tp320
asg73
g15
sa(dp321
g2
S'../../../data/emanuela/activity-recognition/images/NTCIR-Lifelog-256/u2/2015-04-27/b00005719_21i7lf_20150427_165040e.jpg'
p322
sg4
(lp323
(g15
g6
(g18
S'O\xc5\x7f?'
p324
tp325
Rp326
tp327
a(g204
g6
(g18
S'(\xf7y9'
p328
tp329
Rp330
tp331
a(g216
g6
(g18
S'\x1ew59'
p332
tp333
Rp334
tp335
a(g142
g6
(g18
S'0B\xf68'
p336
tp337
Rp338
tp339
a(g44
g6
(g18
S'\xb6\xfb\xb58'
p340
tp341
Rp342
tp343
asg73
g15
sa(dp344
g2
S'../../../data/emanuela/activity-recognition/images/NTCIR-Lifelog-256/u2/2015-04-27/b00005869_21i7lf_20150427_182235e.jpg'
p345
sg4
(lp346
(g15
g6
(g18
S'\xae\x83\x7f?'
p347
tp348
Rp349
tp350
a(g204
g6
(g18
S'S\xc6\x04:'
p351
tp352
Rp353
tp354
a(g32
g6
(g18
S'\xb5z\xe69'
p355
tp356
Rp357
tp358
a(g142
g6
(g18
S'-?F9'
p359
tp360
Rp361
tp362
a(g44
g6
(g18
S'\xdb\xf9<9'
p363
tp364
Rp365
tp366
asg73
g15
sa(dp367
g2
S'../../../data/emanuela/activity-recognition/images/NTCIR-Lifelog-256/u2/2015-04-27/b00005711_21i7lf_20150427_164552e.jpg'
p368
sg4
(lp369
(g44
g6
(g18
S'g\xc0E?'
p370
tp371
Rp372
tp373
a(g15
g6
(g18
S'\xd3\x9d\xb8='
p374
tp375
Rp376
tp377
a(g123
g6
(g18
S'A\x87\x8e='
p378
tp379
Rp380
tp381
a(g32
g6
(g18
S"'\x15\t="
p382
tp383
Rp384
tp385
a(g6
(g7
(S'S14'
p386
I0
I1
tp387
Rp388
(I3
S'|'
p389
NNNI14
I1
I0
tp390
bS'walking indoor'
p391
tp392
Rp393
g6
(g18
S') .<'
p394
tp395
Rp396
tp397
asg73
g15
sa(dp398
g2
S'../../../data/emanuela/activity-recognition/images/NTCIR-Lifelog-256/u2/2015-04-27/b00005721_21i7lf_20150427_165155e.jpg'
p399
sg4
(lp400
(g15
g6
(g18
S'\x91\x0e|?'
p401
tp402
Rp403
tp404
a(g142
g6
(g18
S'\xc5\x9f\xc1;'
p405
tp406
Rp407
tp408
a(g123
g6
(g18
S'%2:;'
p409
tp410
Rp411
tp412
a(g44
g6
(g18
S'9\xe6\x07;'
p413
tp414
Rp415
tp416
a(g204
g6
(g18
S'\xb5\x91y:'
p417
tp418
Rp419
tp420
asg73
g15
sa(dp421
g2
S'../../../data/emanuela/activity-recognition/images/NTCIR-Lifelog-256/u2/2015-04-27/b00005723_21i7lf_20150427_165300e.jpg'
p422
sg4
(lp423
(g15
g6
(g18
S'\x816\x7f?'
p424
tp425
Rp426
tp427
a(g32
g6
(g18
S'\xa0\x8b\xfd:'
p428
tp429
Rp430
tp431
a(g56
g6
(g18
S'9\xc7\x07:'
p432
tp433
Rp434
tp435
a(g44
g6
(g18
S'\xb4\t\xa19'
p436
tp437
Rp438
tp439
a(g68
g6
(g18
S'\x95_\xf88'
p440
tp441
Rp442
tp443
asg73
g15
sa(dp444
g2
S'../../../data/emanuela/activity-recognition/images/NTCIR-Lifelog-256/u2/2015-04-27/b00005866_21i7lf_20150427_182039e.jpg'
p445
sg4
(lp446
(g68
g6
(g18
S"\x1c'\x0e?"
p447
tp448
Rp449
tp450
a(g56
g6
(g18
S'\x7f\xc2\x93>'
p451
tp452
Rp453
tp454
a(g15
g6
(g18
S'\xc4+\x06>'
p455
tp456
Rp457
tp458
a(g6
(g7
(S'S27'
p459
I0
I1
tp460
Rp461
(I3
S'|'
p462
NNNI27
I1
I0
tp463
bS'having drinks with somebody'
p464
tp465
Rp466
g6
(g18
S'\xa3O!<'
p467
tp468
Rp469
tp470
a(g32
g6
(g18
S'B\x95\x06<'
p471
tp472
Rp473
tp474
asg73
g15
sa(dp475
g2
S'../../../data/emanuela/activity-recognition/images/NTCIR-Lifelog-256/u2/2015-04-27/b00005863_21i7lf_20150427_181847e.jpg'
p476
sg4
(lp477
(g15
g6
(g18
S'\xa3vz?'
p478
tp479
Rp480
tp481
a(g204
g6
(g18
S'\x07\xe1-<'
p482
tp483
Rp484
tp485
a(g142
g6
(g18
S'\xbf\x8d\x99;'
p486
tp487
Rp488
tp489
a(g216
g6
(g18
S'h\x05\xaa:'
p490
tp491
Rp492
tp493
a(g44
g6
(g18
S'\xd2\x0b\x8a:'
p494
tp495
Rp496
tp497
asg73
g15
sa(dp498
g2
S'../../../data/emanuela/activity-recognition/images/NTCIR-Lifelog-256/u2/2015-04-27/b00005716_21i7lf_20150427_164857e.jpg'
p499
sg4
(lp500
(g15
g6
(g18
S'\xd8\xdf~?'
p501
tp502
Rp503
tp504
a(g32
g6
(g18
S'\x99\x83(;'
p505
tp506
Rp507
tp508
a(g123
g6
(g18
S'\xf9\xe2\x81:'
p509
tp510
Rp511
tp512
a(g44
g6
(g18
S'E\xe9\x989'
p513
tp514
Rp515
tp516
a(g142
g6
(g18
S'\xaf\n\\9'
p517
tp518
Rp519
tp520
asg73
g15
sa(dp521
g2
S'../../../data/emanuela/activity-recognition/images/NTCIR-Lifelog-256/u2/2015-04-27/b00005717_21i7lf_20150427_164931e.jpg'
p522
sg4
(lp523
(g15
g6
(g18
S'\x89\xb2\x7f?'
p524
tp525
Rp526
tp527
a(g32
g6
(g18
S'\x03\xe9\xe19'
p528
tp529
Rp530
tp531
a(g56
g6
(g18
S'9-\xd79'
p532
tp533
Rp534
tp535
a(g44
g6
(g18
S'C0\xea8'
p536
tp537
Rp538
tp539
a(g68
g6
(g18
S'\x1d\xab\x858'
p540
tp541
Rp542
tp543
asg73
g15
sa(dp544
g2
S'../../../data/emanuela/activity-recognition/images/NTCIR-Lifelog-256/u2/2015-04-27/b00005725_21i7lf_20150427_165420e.jpg'
p545
sg4
(lp546
(g15
g6
(g18
S'\xf5\xf5r?'
p547
tp548
Rp549
tp550
a(g32
g6
(g18
S'2S\x99<'
p551
tp552
Rp553
tp554
a(g142
g6
(g18
S'Z\xa3\x1d<'
p555
tp556
Rp557
tp558
a(g44
g6
(g18
S'\x98\xab\x90;'
p559
tp560
Rp561
tp562
a(g56
g6
(g18
S'}\xc9\x84;'
p563
tp564
Rp565
tp566
asg73
g15
sa(dp567
g2
S'../../../data/emanuela/activity-recognition/images/NTCIR-Lifelog-256/u2/2015-04-27/b00005718_21i7lf_20150427_165005e.jpg'
p568
sg4
(lp569
(g15
g6
(g18
S'\xda\xd2\x7f?'
p570
tp571
Rp572
tp573
a(g44
g6
(g18
S'\xef)\x019'
p574
tp575
Rp576
tp577
a(g204
g6
(g18
S'nk\xef8'
p578
tp579
Rp580
tp581
a(g32
g6
(g18
S'\xe7~\xe48'
p582
tp583
Rp584
tp585
a(g216
g6
(g18
S'8H\xc68'
p586
tp587
Rp588
tp589
asg73
g15
sa(dp590
g2
S'../../../data/emanuela/activity-recognition/images/NTCIR-Lifelog-256/u2/2015-04-27/b00005864_21i7lf_20150427_181929e.jpg'
p591
sg4
(lp592
(g15
g6
(g18
S'K\x9f\x7f?'
p593
tp594
Rp595
tp596
a(g56
g6
(g18
S'`\xc28:'
p597
tp598
Rp599
tp600
a(g32
g6
(g18
S'\xe6\xbcy9'
p601
tp602
Rp603
tp604
a(g142
g6
(g18
S'\xa8\xa6O9'
p605
tp606
Rp607
tp608
a(g204
g6
(g18
S'BQ\x129'
p609
tp610
Rp611
tp612
asg73
g15
sa(dp613
g2
S'../../../data/emanuela/activity-recognition/images/NTCIR-Lifelog-256/u2/2015-04-27/b00005868_21i7lf_20150427_182159e.jpg'
p614
sg4
(lp615
(g15
g6
(g18
S'\x90aw?'
p616
tp617
Rp618
tp619
a(g204
g6
(g18
S'\xff\x0c\x1d<'
p620
tp621
Rp622
tp623
a(g142
g6
(g18
S'\x99\xfe\x10<'
p624
tp625
Rp626
tp627
a(g216
g6
(g18
S'K\rG;'
p628
tp629
Rp630
tp631
a(g32
g6
(g18
S'\x8e\x86";'
p632
tp633
Rp634
tp635
asg73
g15
sa(dp636
g2
S'../../../data/emanuela/activity-recognition/images/NTCIR-Lifelog-256/u2/2015-04-27/b00005712_21i7lf_20150427_164625e.jpg'
p637
sg4
(lp638
(g15
g6
(g18
S'6\x98\xd2>'
p639
tp640
Rp641
tp642
a(g44
g6
(g18
S'i\x15\x02>'
p643
tp644
Rp645
tp646
a(g216
g6
(g18
S'*\xd9\xe3='
p647
tp648
Rp649
tp650
a(g123
g6
(g18
S'\x8dK\xbb='
p651
tp652
Rp653
tp654
a(g6
(g7
(S'S8'
p655
I0
I1
tp656
Rp657
(I3
S'|'
p658
NNNI8
I1
I0
tp659
bS'shopping'
p660
tp661
Rp662
g6
(g18
S'\xdc"\xac='
p663
tp664
Rp665
tp666
asg73
g15
sa(dp667
g2
S'../../../data/emanuela/activity-recognition/images/NTCIR-Lifelog-256/u2/2015-04-27/b00005867_21i7lf_20150427_182120e.jpg'
p668
sg4
(lp669
(g15
g6
(g18
S't\x82q?'
p670
tp671
Rp672
tp673
a(g32
g6
(g18
S'\x1d\xdb\x0e='
p674
tp675
Rp676
tp677
a(g56
g6
(g18
S'o\xf6-<'
p678
tp679
Rp680
tp681
a(g142
g6
(g18
S'\xfa#\xee;'
p682
tp683
Rp684
tp685
a(g68
g6
(g18
S'$sU:'
p686
tp687
Rp688
tp689
asg73
g15
sa(dp690
g2
S'../../../data/emanuela/activity-recognition/images/NTCIR-Lifelog-256/u2/2015-04-27/b00005724_21i7lf_20150427_165341e.jpg'
p691
sg4
(lp692
(g15
g6
(g18
S'm\xffx?'
p693
tp694
Rp695
tp696
a(g68
g6
(g18
S'[<\xe7;'
p697
tp698
Rp699
tp700
a(g56
g6
(g18
S'\x044\xbf;'
p701
tp702
Rp703
tp704
a(g32
g6
(g18
S'\xad\xabg;'
p705
tp706
Rp707
tp708
a(g142
g6
(g18
S'\xf6\x0f-;'
p709
tp710
Rp711
tp712
asg73
g15
sa.