(lp0
(dp1
S'image'
p2
S'../../../data/emanuela/activity-recognition/images/NTCIR-Lifelog-256/u2/2015-06-16/b00001709_21i7lf_20150616_133150e.jpg'
p3
sS'result'
p4
(lp5
(cnumpy.core.multiarray
scalar
p6
(cnumpy
dtype
p7
(S'S5'
p8
I0
I1
tp9
Rp10
(I3
S'|'
p11
NNNI5
I1
I0
tp12
bS'plane'
p13
tp14
Rp15
g6
(g7
(S'f4'
p16
I0
I1
tp17
Rp18
(I3
S'<'
p19
NNNI-1
I-1
I0
tp20
bS'\x92\x8e.?'
p21
tp22
Rp23
tp24
a(g6
(g7
(S'S16'
p25
I0
I1
tp26
Rp27
(I3
S'|'
p28
NNNI16
I1
I0
tp29
bS'public transport'
p30
tp31
Rp32
g6
(g18
S'd\xf1W>'
p33
tp34
Rp35
tp36
a(g6
(g7
(S'S7'
p37
I0
I1
tp38
Rp39
(I3
S'|'
p40
NNNI7
I1
I0
tp41
bS'working'
p42
tp43
Rp44
g6
(g18
S'\xa5W\x88='
p45
tp46
Rp47
tp48
a(g6
(g7
(S'S14'
p49
I0
I1
tp50
Rp51
(I3
S'|'
p52
NNNI14
I1
I0
tp53
bS'walking indoor'
p54
tp55
Rp56
g6
(g18
S'\xb5\x07v<'
p57
tp58
Rp59
tp60
a(g6
(g7
(S'S7'
p61
I0
I1
tp62
Rp63
(I3
S'|'
p64
NNNI7
I1
I0
tp65
bS'reading'
p66
tp67
Rp68
g6
(g18
S'\r%*<'
p69
tp70
Rp71
tp72
asS'label'
p73
g15
sa(dp74
g2
S'../../../data/emanuela/activity-recognition/images/NTCIR-Lifelog-256/u2/2015-06-16/b00001789_21i7lf_20150616_152025e.jpg'
p75
sg4
(lp76
(g15
g6
(g18
S'Z\x16c?'
p77
tp78
Rp79
tp80
a(g32
g6
(g18
S'\x11\x0c\xd6='
p81
tp82
Rp83
tp84
a(g56
g6
(g18
S'\xd5?|;'
p85
tp86
Rp87
tp88
a(g6
(g7
(S'S15'
p89
I0
I1
tp90
Rp91
(I3
S'|'
p92
NNNI15
I1
I0
tp93
bS'walking outdoor'
p94
tp95
Rp96
g6
(g18
S'@\x0b\r;'
p97
tp98
Rp99
tp100
a(g68
g6
(g18
S'\xb8\x94\xb7:'
p101
tp102
Rp103
tp104
asg73
g15
sa(dp105
g2
S'../../../data/emanuela/activity-recognition/images/NTCIR-Lifelog-256/u2/2015-06-16/b00001869_21i7lf_20150616_231421e.jpg'
p106
sg4
(lp107
(g15
g6
(g18
S'\xe5\x1a^?'
p108
tp109
Rp110
tp111
a(g32
g6
(g18
S'J,e='
p112
tp113
Rp114
tp115
a(g56
g6
(g18
S'\xbc\x850='
p116
tp117
Rp118
tp119
a(g68
g6
(g18
S'*\xa5\x11<'
p120
tp121
Rp122
tp123
a(g6
(g7
(S'S8'
p124
I0
I1
tp125
Rp126
(I3
S'|'
p127
NNNI8
I1
I0
tp128
bS'shopping'
p129
tp130
Rp131
g6
(g18
S'\x96\xee\x06<'
p132
tp133
Rp134
tp135
asg73
g15
sa(dp136
g2
S'../../../data/emanuela/activity-recognition/images/NTCIR-Lifelog-256/u2/2015-06-16/b00001573_21i7lf_20150616_095027e.jpg'
p137
sg4
(lp138
(g15
g6
(g18
S'Mrk?'
p139
tp140
Rp141
tp142
a(g68
g6
(g18
S'@\xed\x9e='
p143
tp144
Rp145
tp146
a(g6
(g7
(S'S6'
p147
I0
I1
tp148
Rp149
(I3
S'|'
p150
NNNI6
I1
I0
tp151
bS'mobile'
p152
tp153
Rp154
g6
(g18
S'q\xf9\xa6:'
p155
tp156
Rp157
tp158
a(g6
(g7
(S'S7'
p159
I0
I1
tp160
Rp161
(I3
S'|'
p162
NNNI7
I1
I0
tp163
bS'cooking'
p164
tp165
Rp166
g6
(g18
S'\xeeu\xd19'
p167
tp168
Rp169
tp170
a(g44
g6
(g18
S'\xcb\xe4\xab9'
p171
tp172
Rp173
tp174
asg73
g15
sa(dp175
g2
S'../../../data/emanuela/activity-recognition/images/NTCIR-Lifelog-256/u2/2015-06-16/b00001720_21i7lf_20150616_134353e.jpg'
p176
sg4
(lp177
(g15
g6
(g18
S'\xf5\xdfL?'
p178
tp179
Rp180
tp181
a(g32
g6
(g18
S'\t\xe4,>'
p182
tp183
Rp184
tp185
a(g56
g6
(g18
S'\x16\x05x<'
p186
tp187
Rp188
tp189
a(g68
g6
(g18
S'i\x95#<'
p190
tp191
Rp192
tp193
a(g44
g6
(g18
S'\xae\xdd\xe8:'
p194
tp195
Rp196
tp197
asg73
g15
sa(dp198
g2
S'../../../data/emanuela/activity-recognition/images/NTCIR-Lifelog-256/u2/2015-06-16/b00001600_21i7lf_20150616_100620e.jpg'
p199
sg4
(lp200
(g68
g6
(g18
S'R\x86\x7f?'
p201
tp202
Rp203
tp204
a(g44
g6
(g18
S'"\xdd :'
p205
tp206
Rp207
tp208
a(g15
g6
(g18
S'\xdbr\x1b:'
p209
tp210
Rp211
tp212
a(g154
g6
(g18
S'\x99\xef\x879'
p213
tp214
Rp215
tp216
a(g166
g6
(g18
S'\x80NZ9'
p217
tp218
Rp219
tp220
asg73
g15
sa(dp221
g2
S'../../../data/emanuela/activity-recognition/images/NTCIR-Lifelog-256/u2/2015-06-16/b00001819_21i7lf_20150616_224727e.jpg'
p222
sg4
(lp223
(g15
g6
(g18
S'j\ry?'
p224
tp225
Rp226
tp227
a(g32
g6
(g18
S'\xd5!Q<'
p228
tp229
Rp230
tp231
a(g56
g6
(g18
S'\xe0\x07\xc6;'
p232
tp233
Rp234
tp235
a(g44
g6
(g18
S'\xd2Rh;'
p236
tp237
Rp238
tp239
a(g68
g6
(g18
S'\xc1\x0c.;'
p240
tp241
Rp242
tp243
asg73
g15
sa(dp244
g2
S'../../../data/emanuela/activity-recognition/images/NTCIR-Lifelog-256/u2/2015-06-16/b00001817_21i7lf_20150616_224414e.jpg'
p245
sg4
(lp246
(g15
g6
(g18
S'\xd0Jy?'
p247
tp248
Rp249
tp250
a(g32
g6
(g18
S'rk~<'
p251
tp252
Rp253
tp254
a(g44
g6
(g18
S'zp\x8e;'
p255
tp256
Rp257
tp258
a(g56
g6
(g18
S'$\xedB;'
p259
tp260
Rp261
tp262
a(g68
g6
(g18
S'\x88W\xe6:'
p263
tp264
Rp265
tp266
asg73
g15
sa(dp267
g2
S'../../../data/emanuela/activity-recognition/images/NTCIR-Lifelog-256/u2/2015-06-16/b00001748_21i7lf_20150616_142341e.jpg'
p268
sg4
(lp269
(g15
g6
(g18
S'\xa1\xe1g?'
p270
tp271
Rp272
tp273
a(g32
g6
(g18
S'\xbfXM='
p274
tp275
Rp276
tp277
a(g44
g6
(g18
S'\xdf\xe6\x97<'
p278
tp279
Rp280
tp281
a(g56
g6
(g18
S"Q'A<"
p282
tp283
Rp284
tp285
a(g68
g6
(g18
S'Q\x1d\xb2;'
p286
tp287
Rp288
tp289
asg73
g15
sa(dp290
g2
S'../../../data/emanuela/activity-recognition/images/NTCIR-Lifelog-256/u2/2015-06-16/b00001783_21i7lf_20150616_151242e.jpg'
p291
sg4
(lp292
(g15
g6
(g18
S'o\xeft?'
p293
tp294
Rp295
tp296
a(g44
g6
(g18
S'\xb3~L<'
p297
tp298
Rp299
tp300
a(g32
g6
(g18
S'\x93l\xf6;'
p301
tp302
Rp303
tp304
a(g68
g6
(g18
S'V\xab\xc4;'
p305
tp306
Rp307
tp308
a(g154
g6
(g18
S'\xa8Y\xc3;'
p309
tp310
Rp311
tp312
asg73
g15
sa(dp313
g2
S'../../../data/emanuela/activity-recognition/images/NTCIR-Lifelog-256/u2/2015-06-16/b00001825_21i7lf_20150616_224729e.jpg'
p314
sg4
(lp315
(g15
g6
(g18
S'\x16\x04z?'
p316
tp317
Rp318
tp319
a(g32
g6
(g18
S'$Al<'
p320
tp321
Rp322
tp323
a(g56
g6
(g18
S'\xcb\x1a\x96;'
p324
tp325
Rp326
tp327
a(g44
g6
(g18
S'\x0b\x98\xb5:'
p328
tp329
Rp330
tp331
a(g68
g6
(g18
S'\xf6\xba\xab:'
p332
tp333
Rp334
tp335
asg73
g15
sa(dp336
g2
S'../../../data/emanuela/activity-recognition/images/NTCIR-Lifelog-256/u2/2015-06-16/b00001590_21i7lf_20150616_100022e.jpg'
p337
sg4
(lp338
(g15
g6
(g18
S'\xef\x8f[?'
p339
tp340
Rp341
tp342
a(g68
g6
(g18
S'\x93R\x01>'
p343
tp344
Rp345
tp346
a(g154
g6
(g18
S'h\xa3\x91;'
p347
tp348
Rp349
tp350
a(g44
g6
(g18
S'=~M;'
p351
tp352
Rp353
tp354
a(g6
(g7
(S'S24'
p355
I0
I1
tp356
Rp357
(I3
S'|'
p358
NNNI24
I1
I0
tp359
bS'having drinks/meal alone'
p360
tp361
Rp362
g6
(g18
S'\xec\x8c(;'
p363
tp364
Rp365
tp366
asg73
g15
sa(dp367
g2
S'../../../data/emanuela/activity-recognition/images/NTCIR-Lifelog-256/u2/2015-06-16/b00001860_21i7lf_20150616_230840e.jpg'
p368
sg4
(lp369
(g15
g6
(g18
S'F\xabn?'
p370
tp371
Rp372
tp373
a(g32
g6
(g18
S'.\x9a\r='
p374
tp375
Rp376
tp377
a(g56
g6
(g18
S'\x0b\x13\x80<'
p378
tp379
Rp380
tp381
a(g68
g6
(g18
S'\xbb\x97\x80;'
p382
tp383
Rp384
tp385
a(g96
g6
(g18
S'\x83\xffq;'
p386
tp387
Rp388
tp389
asg73
g15
sa(dp390
g2
S'../../../data/emanuela/activity-recognition/images/NTCIR-Lifelog-256/u2/2015-06-16/b00001738_21i7lf_20150616_140842e.jpg'
p391
sg4
(lp392
(g15
g6
(g18
S'\xc5xC?'
p393
tp394
Rp395
tp396
a(g32
g6
(g18
S'\x10\x0eZ>'
p397
tp398
Rp399
tp400
a(g56
g6
(g18
S'\xe6\xc4\x0b<'
p401
tp402
Rp403
tp404
a(g44
g6
(g18
S'Dd\xab;'
p405
tp406
Rp407
tp408
a(g68
g6
(g18
S'\x94N\x88;'
p409
tp410
Rp411
tp412
asg73
g15
sa(dp413
g2
S'../../../data/emanuela/activity-recognition/images/NTCIR-Lifelog-256/u2/2015-06-16/b00001690_21i7lf_20150616_132058e.jpg'
p414
sg4
(lp415
(g15
g6
(g18
S'\xd3Oz?'
p416
tp417
Rp418
tp419
a(g32
g6
(g18
S's\x9f\xa3<'
p420
tp421
Rp422
tp423
a(g96
g6
(g18
S'oU3:'
p424
tp425
Rp426
tp427
a(g44
g6
(g18
S' \xb60:'
p428
tp429
Rp430
tp431
a(g56
g6
(g18
S'\x99\xaf\x19:'
p432
tp433
Rp434
tp435
asg73
g15
sa(dp436
g2
S'../../../data/emanuela/activity-recognition/images/NTCIR-Lifelog-256/u2/2015-06-16/b00001589_21i7lf_20150616_095951e.jpg'
p437
sg4
(lp438
(g15
g6
(g18
S'\xcdNv?'
p439
tp440
Rp441
tp442
a(g68
g6
(g18
S'\x9e\xe8\x16='
p443
tp444
Rp445
tp446
a(g154
g6
(g18
S'g\x07\xad9'
p447
tp448
Rp449
tp450
a(g6
(g7
(S'S7'
p451
I0
I1
tp452
Rp453
(I3
S'|'
p454
NNNI7
I1
I0
tp455
bS'driving'
p456
tp457
Rp458
g6
(g18
S'\x8eX29'
p459
tp460
Rp461
tp462
a(g44
g6
(g18
S'@\x82)9'
p463
tp464
Rp465
tp466
asg73
g15
sa(dp467
g2
S'../../../data/emanuela/activity-recognition/images/NTCIR-Lifelog-256/u2/2015-06-16/b00001859_21i7lf_20150616_230807e.jpg'
p468
sg4
(lp469
(g15
g6
(g18
S'/\x18p?'
p470
tp471
Rp472
tp473
a(g32
g6
(g18
S'IJ\x1c='
p474
tp475
Rp476
tp477
a(g56
g6
(g18
S'~\xe8]<'
p478
tp479
Rp480
tp481
a(g68
g6
(g18
S'O\x9dl;'
p482
tp483
Rp484
tp485
a(g96
g6
(g18
S'l\xef\x00;'
p486
tp487
Rp488
tp489
asg73
g15
sa(dp490
g2
S'../../../data/emanuela/activity-recognition/images/NTCIR-Lifelog-256/u2/2015-06-16/b00001904_21i7lf_20150616_233548e.jpg'
p491
sg4
(lp492
(g15
g6
(g18
S'\xe8rm?'
p493
tp494
Rp495
tp496
a(g32
g6
(g18
S'\xc1\x19\x05='
p497
tp498
Rp499
tp500
a(g56
g6
(g18
S'\xc3\xec}<'
p501
tp502
Rp503
tp504
a(g96
g6
(g18
S'"\'\xa9;'
p505
tp506
Rp507
tp508
a(g131
g6
(g18
S'\x1f\xaf\x9a;'
p509
tp510
Rp511
tp512
asg73
g15
sa(dp513
g2
S'../../../data/emanuela/activity-recognition/images/NTCIR-Lifelog-256/u2/2015-06-16/b00001830_21i7lf_20150616_224900e.jpg'
p514
sg4
(lp515
(g15
g6
(g18
S'=\xae4?'
p516
tp517
Rp518
tp519
a(g56
g6
(g18
S'\x9ehJ>'
p520
tp521
Rp522
tp523
a(g44
g6
(g18
S'0\xa6\x00='
p524
tp525
Rp526
tp527
a(g32
g6
(g18
S'\x98.\xd3<'
p528
tp529
Rp530
tp531
a(g68
g6
(g18
S'\x8b\x06n<'
p532
tp533
Rp534
tp535
asg73
g15
sa(dp536
g2
S'../../../data/emanuela/activity-recognition/images/NTCIR-Lifelog-256/u2/2015-06-16/b00001718_21i7lf_20150616_134059e.jpg'
p537
sg4
(lp538
(g15
g6
(g18
S'}\x92H?'
p539
tp540
Rp541
tp542
a(g32
g6
(g18
S'\xc1\x13\x1d>'
p543
tp544
Rp545
tp546
a(g44
g6
(g18
S'z\xfa\xfa<'
p547
tp548
Rp549
tp550
a(g68
g6
(g18
S"\xee\xd7'<"
p551
tp552
Rp553
tp554
a(g56
g6
(g18
S'\xd3\xa1\xfb;'
p555
tp556
Rp557
tp558
asg73
g15
sa(dp559
g2
S'../../../data/emanuela/activity-recognition/images/NTCIR-Lifelog-256/u2/2015-06-16/b00001749_21i7lf_20150616_142502e.jpg'
p560
sg4
(lp561
(g15
g6
(g18
S'\xa0\xb2m?'
p562
tp563
Rp564
tp565
a(g32
g6
(g18
S'\x85\xe0\x7f='
p566
tp567
Rp568
tp569
a(g68
g6
(g18
S'\xb4($;'
p570
tp571
Rp572
tp573
a(g56
g6
(g18
S'\x90y\x1f;'
p574
tp575
Rp576
tp577
a(g44
g6
(g18
S'O\xa3\r;'
p578
tp579
Rp580
tp581
asg73
g15
sa(dp582
g2
S'../../../data/emanuela/activity-recognition/images/NTCIR-Lifelog-256/u2/2015-06-16/b00001803_21i7lf_20150616_154223e.jpg'
p583
sg4
(lp584
(g15
g6
(g18
S'\xab\x17T?'
p585
tp586
Rp587
tp588
a(g44
g6
(g18
S"'\xe0\x96="
p589
tp590
Rp591
tp592
a(g32
g6
(g18
S'\xfc\xa8\xe4<'
p593
tp594
Rp595
tp596
a(g56
g6
(g18
S'r\x16\xca<'
p597
tp598
Rp599
tp600
a(g96
g6
(g18
S'k&\x06<'
p601
tp602
Rp603
tp604
asg73
g15
sa(dp605
g2
S'../../../data/emanuela/activity-recognition/images/NTCIR-Lifelog-256/u2/2015-06-16/b00001591_21i7lf_20150616_100053e.jpg'
p606
sg4
(lp607
(g15
g6
(g18
S'\x7f\xe2u?'
p608
tp609
Rp610
tp611
a(g68
g6
(g18
S'\x0es\x19='
p612
tp613
Rp614
tp615
a(g154
g6
(g18
S'\xb7\x9e#:'
p616
tp617
Rp618
tp619
a(g458
g6
(g18
S'e\n\xa99'
p620
tp621
Rp622
tp623
a(g166
g6
(g18
S'\xd0\x9e\x9e9'
p624
tp625
Rp626
tp627
asg73
g15
sa(dp628
g2
S'../../../data/emanuela/activity-recognition/images/NTCIR-Lifelog-256/u2/2015-06-16/b00001867_21i7lf_20150616_231301e.jpg'
p629
sg4
(lp630
(g15
g6
(g18
S'\xe3\x8e/?'
p631
tp632
Rp633
tp634
a(g32
g6
(g18
S'n\xa2k>'
p635
tp636
Rp637
tp638
a(g56
g6
(g18
S'\xc6rW='
p639
tp640
Rp641
tp642
a(g96
g6
(g18
S'L\xfc\x08<'
p643
tp644
Rp645
tp646
a(g131
g6
(g18
S'\x1e4\x05<'
p647
tp648
Rp649
tp650
asg73
g15
sa(dp651
g2
S'../../../data/emanuela/activity-recognition/images/NTCIR-Lifelog-256/u2/2015-06-16/b00001737_21i7lf_20150616_140711e.jpg'
p652
sg4
(lp653
(g15
g6
(g18
S']\xdef?'
p654
tp655
Rp656
tp657
a(g32
g6
(g18
S'0N\xa9='
p658
tp659
Rp660
tp661
a(g56
g6
(g18
S'\xc7\x8f:<'
p662
tp663
Rp664
tp665
a(g68
g6
(g18
S'\xf6;\xd9:'
p666
tp667
Rp668
tp669
a(g96
g6
(g18
S'`]\x93:'
p670
tp671
Rp672
tp673
asg73
g15
sa(dp674
g2
S'../../../data/emanuela/activity-recognition/images/NTCIR-Lifelog-256/u2/2015-06-16/b00001897_21i7lf_20150616_233114e.jpg'
p675
sg4
(lp676
(g15
g6
(g18
S'(\xfcd?'
p677
tp678
Rp679
tp680
a(g32
g6
(g18
S'\n;r='
p681
tp682
Rp683
tp684
a(g56
g6
(g18
S'\x0ev\xcc<'
p685
tp686
Rp687
tp688
a(g96
g6
(g18
S'j\x04\xd2;'
p689
tp690
Rp691
tp692
a(g131
g6
(g18
S'\x14/\x96;'
p693
tp694
Rp695
tp696
asg73
g15
sa(dp697
g2
S'../../../data/emanuela/activity-recognition/images/NTCIR-Lifelog-256/u2/2015-06-16/b00001712_21i7lf_20150616_133338e.jpg'
p698
sg4
(lp699
(g15
g6
(g18
S'\x14yn?'
p700
tp701
Rp702
tp703
a(g32
g6
(g18
S'\xc1\x13\x83='
p704
tp705
Rp706
tp707
a(g96
g6
(g18
S'z!\xd4:'
p708
tp709
Rp710
tp711
a(g56
g6
(g18
S'\xda\xa9\xae:'
p712
tp713
Rp714
tp715
a(g44
g6
(g18
S'\x90\x93\x82:'
p716
tp717
Rp718
tp719
asg73
g15
sa(dp720
g2
S'../../../data/emanuela/activity-recognition/images/NTCIR-Lifelog-256/u2/2015-06-16/b00001713_21i7lf_20150616_133351e.jpg'
p721
sg4
(lp722
(g15
g6
(g18
S'\xec^s?'
p723
tp724
Rp725
tp726
a(g32
g6
(g18
S'\xda\xee:='
p727
tp728
Rp729
tp730
a(g96
g6
(g18
S'S@\xc5:'
p731
tp732
Rp733
tp734
a(g56
g6
(g18
S'\x14\xe9}:'
p735
tp736
Rp737
tp738
a(g44
g6
(g18
S'\x1b\xef.:'
p739
tp740
Rp741
tp742
asg73
g15
sa(dp743
g2
S'../../../data/emanuela/activity-recognition/images/NTCIR-Lifelog-256/u2/2015-06-16/b00001855_21i7lf_20150616_230541e.jpg'
p744
sg4
(lp745
(g15
g6
(g18
S'\x12\xbby?'
p746
tp747
Rp748
tp749
a(g32
g6
(g18
S'\x8eF8<'
p750
tp751
Rp752
tp753
a(g56
g6
(g18
S'\x07\xfa\n<'
p754
tp755
Rp756
tp757
a(g96
g6
(g18
S'\xd6\xbd\x19;'
p758
tp759
Rp760
tp761
a(g131
g6
(g18
S'\x1c\xfb}:'
p762
tp763
Rp764
tp765
asg73
g15
sa(dp766
g2
S'../../../data/emanuela/activity-recognition/images/NTCIR-Lifelog-256/u2/2015-06-16/b00001888_21i7lf_20150616_232536e.jpg'
p767
sg4
(lp768
(g15
g6
(g18
S'\xca\xc2P?'
p769
tp770
Rp771
tp772
a(g68
g6
(g18
S'\xcbJ[='
p773
tp774
Rp775
tp776
a(g56
g6
(g18
S'\xcdmV='
p777
tp778
Rp779
tp780
a(g32
g6
(g18
S'?z\xd0<'
p781
tp782
Rp783
tp784
a(g131
g6
(g18
S'\x9e\xcd\xa4<'
p785
tp786
Rp787
tp788
asg73
g15
sa(dp789
g2
S'../../../data/emanuela/activity-recognition/images/NTCIR-Lifelog-256/u2/2015-06-16/b00001701_21i7lf_20150616_132725e.jpg'
p790
sg4
(lp791
(g15
g6
(g18
S'~5y?'
p792
tp793
Rp794
tp795
a(g32
g6
(g18
S'\xff\x89\xc6<'
p796
tp797
Rp798
tp799
a(g56
g6
(g18
S'DxE:'
p800
tp801
Rp802
tp803
a(g96
g6
(g18
S'\x1d-E:'
p804
tp805
Rp806
tp807
a(g44
g6
(g18
S'd\xd2\xfa9'
p808
tp809
Rp810
tp811
asg73
g15
sa(dp812
g2
S'../../../data/emanuela/activity-recognition/images/NTCIR-Lifelog-256/u2/2015-06-16/b00001861_21i7lf_20150616_230919e.jpg'
p813
sg4
(lp814
(g15
g6
(g18
S'<\x80`?'
p815
tp816
Rp817
tp818
a(g32
g6
(g18
S'VFX='
p819
tp820
Rp821
tp822
a(g56
g6
(g18
S'\xe60+='
p823
tp824
Rp825
tp826
a(g96
g6
(g18
S'\xf3\xd1\xd5;'
p827
tp828
Rp829
tp830
a(g131
g6
(g18
S'\x97\x92\xa1;'
p831
tp832
Rp833
tp834
asg73
g15
sa(dp835
g2
S'../../../data/emanuela/activity-recognition/images/NTCIR-Lifelog-256/u2/2015-06-16/b00001762_21i7lf_20150616_144303e.jpg'
p836
sg4
(lp837
(g15
g6
(g18
S'\xebRf?'
p838
tp839
Rp840
tp841
a(g68
g6
(g18
S'u\x14K='
p842
tp843
Rp844
tp845
a(g32
g6
(g18
S'u\x1b\xb1<'
p846
tp847
Rp848
tp849
a(g44
g6
(g18
S'\x1c\xa6\xa3<'
p850
tp851
Rp852
tp853
a(g96
g6
(g18
S'\x8a\x81\x85;'
p854
tp855
Rp856
tp857
asg73
g15
sa(dp858
g2
S'../../../data/emanuela/activity-recognition/images/NTCIR-Lifelog-256/u2/2015-06-16/b00001710_21i7lf_20150616_133230e.jpg'
p859
sg4
(lp860
(g15
g6
(g18
S'\xc8\x05f?'
p861
tp862
Rp863
tp864
a(g32
g6
(g18
S'\xe5\x99\xc3='
p865
tp866
Rp867
tp868
a(g96
g6
(g18
S'\xc2i#;'
p869
tp870
Rp871
tp872
a(g44
g6
(g18
S'\x1e:\xbd:'
p873
tp874
Rp875
tp876
a(g56
g6
(g18
S'\xd8\x17\x8e:'
p877
tp878
Rp879
tp880
asg73
g15
sa(dp881
g2
S'../../../data/emanuela/activity-recognition/images/NTCIR-Lifelog-256/u2/2015-06-16/b00001732_21i7lf_20150616_135956e.jpg'
p882
sg4
(lp883
(g15
g6
(g18
S'\xc2!j?'
p884
tp885
Rp886
tp887
a(g32
g6
(g18
S'\xe5\xc3?='
p888
tp889
Rp890
tp891
a(g56
g6
(g18
S'\xe8|u<'
p892
tp893
Rp894
tp895
a(g96
g6
(g18
S'\xdbw\xfc;'
p896
tp897
Rp898
tp899
a(g44
g6
(g18
S'WU\xbd;'
p900
tp901
Rp902
tp903
asg73
g15
sa(dp904
g2
S'../../../data/emanuela/activity-recognition/images/NTCIR-Lifelog-256/u2/2015-06-16/b00001605_21i7lf_20150616_100929e.jpg'
p905
sg4
(lp906
(g68
g6
(g18
S'#d{?'
p907
tp908
Rp909
tp910
a(g44
g6
(g18
S'0\x86$<'
p911
tp912
Rp913
tp914
a(g15
g6
(g18
S'\xd9\xdb@;'
p915
tp916
Rp917
tp918
a(g6
(g7
(S'S19'
p919
I0
I1
tp920
Rp921
(I3
S'|'
p922
NNNI19
I1
I0
tp923
bS'cleaning and chores'
p924
tp925
Rp926
g6
(g18
S'|l\xc2:'
p927
tp928
Rp929
tp930
a(g154
g6
(g18
S'W\x88\xb0:'
p931
tp932
Rp933
tp934
asg73
g15
sa(dp935
g2
S'../../../data/emanuela/activity-recognition/images/NTCIR-Lifelog-256/u2/2015-06-16/b00001692_21i7lf_20150616_132210e.jpg'
p936
sg4
(lp937
(g15
g6
(g18
S':L|?'
p938
tp939
Rp940
tp941
a(g32
g6
(g18
S'\xc0\xfaE<'
p942
tp943
Rp944
tp945
a(g56
g6
(g18
S'\xcf\xc0H:'
p946
tp947
Rp948
tp949
a(g44
g6
(g18
S'\xdd\xc4@:'
p950
tp951
Rp952
tp953
a(g96
g6
(g18
S'@\xc0\xc09'
p954
tp955
Rp956
tp957
asg73
g15
sa(dp958
g2
S'../../../data/emanuela/activity-recognition/images/NTCIR-Lifelog-256/u2/2015-06-16/b00001899_21i7lf_20150616_233236e.jpg'
p959
sg4
(lp960
(g15
g6
(g18
S'"\x03#?'
p961
tp962
Rp963
tp964
a(g32
g6
(g18
S'\x81\xa3e>'
p965
tp966
Rp967
tp968
a(g56
g6
(g18
S'\xcc*\x93='
p969
tp970
Rp971
tp972
a(g166
g6
(g18
S'\x8dw\x88<'
p973
tp974
Rp975
tp976
a(g131
g6
(g18
S'\xc5\x7fy<'
p977
tp978
Rp979
tp980
asg73
g15
sa(dp981
g2
S'../../../data/emanuela/activity-recognition/images/NTCIR-Lifelog-256/u2/2015-06-16/b00001879_21i7lf_20150616_232021e.jpg'
p982
sg4
(lp983
(g15
g6
(g18
S'\xa4\x91q?'
p984
tp985
Rp986
tp987
a(g56
g6
(g18
S'\x19\x97\xa0<'
p988
tp989
Rp990
tp991
a(g44
g6
(g18
S'\x1d\xf9O<'
p992
tp993
Rp994
tp995
a(g32
g6
(g18
S'+\x9b\r<'
p996
tp997
Rp998
tp999
a(g68
g6
(g18
S'T\x1c\x01<'
p1000
tp1001
Rp1002
tp1003
asg73
g15
sa(dp1004
g2
S'../../../data/emanuela/activity-recognition/images/NTCIR-Lifelog-256/u2/2015-06-16/b00001747_21i7lf_20150616_142220e.jpg'
p1005
sg4
(lp1006
(g15
g6
(g18
S',\xa7|?'
p1007
tp1008
Rp1009
tp1010
a(g32
g6
(g18
S'\x11G\xf5;'
p1011
tp1012
Rp1013
tp1014
a(g56
g6
(g18
S',x\xda:'
p1015
tp1016
Rp1017
tp1018
a(g68
g6
(g18
S'\x8c5\xd7:'
p1019
tp1020
Rp1021
tp1022
a(g44
g6
(g18
S'\\\xd9\x8f:'
p1023
tp1024
Rp1025
tp1026
asg73
g15
sa(dp1027
g2
S'../../../data/emanuela/activity-recognition/images/NTCIR-Lifelog-256/u2/2015-06-16/b00001733_21i7lf_20150616_140122e.jpg'
p1028
sg4
(lp1029
(g15
g6
(g18
S'9wt?'
p1030
tp1031
Rp1032
tp1033
a(g32
g6
(g18
S'\x8a\xf1\xe6<'
p1034
tp1035
Rp1036
tp1037
a(g56
g6
(g18
S'\xa5m\x9d;'
p1038
tp1039
Rp1040
tp1041
a(g68
g6
(g18
S'\x1f\xbe\x86;'
p1042
tp1043
Rp1044
tp1045
a(g96
g6
(g18
S'/&\x85;'
p1046
tp1047
Rp1048
tp1049
asg73
g15
sa(dp1050
g2
S'../../../data/emanuela/activity-recognition/images/NTCIR-Lifelog-256/u2/2015-06-16/b00001580_21i7lf_20150616_095451e.jpg'
p1051
sg4
(lp1052
(g15
g6
(g18
S'!*r?'
p1053
tp1054
Rp1055
tp1056
a(g68
g6
(g18
S'X\xbeW='
p1057
tp1058
Rp1059
tp1060
a(g154
g6
(g18
S'\x0bD\xa99'
p1061
tp1062
Rp1063
tp1064
a(g926
g6
(g18
S'\xa7\x17\x929'
p1065
tp1066
Rp1067
tp1068
a(g56
g6
(g18
S'\xb0\xf3x9'
p1069
tp1070
Rp1071
tp1072
asg73
g15
sa(dp1073
g2
S'../../../data/emanuela/activity-recognition/images/NTCIR-Lifelog-256/u2/2015-06-16/b00001882_21i7lf_20150616_232158e.jpg'
p1074
sg4
(lp1075
(g15
g6
(g18
S'\xc1Iu?'
p1076
tp1077
Rp1078
tp1079
a(g56
g6
(g18
S'j\x94K<'
p1080
tp1081
Rp1082
tp1083
a(g68
g6
(g18
S'\xd2w\x07<'
p1084
tp1085
Rp1086
tp1087
a(g32
g6
(g18
S'Cq\xfe;'
p1088
tp1089
Rp1090
tp1091
a(g166
g6
(g18
S'\x08\xa4\x92;'
p1092
tp1093
Rp1094
tp1095
asg73
g15
sa(dp1096
g2
S'../../../data/emanuela/activity-recognition/images/NTCIR-Lifelog-256/u2/2015-06-16/b00001742_21i7lf_20150616_141524e.jpg'
p1097
sg4
(lp1098
(g15
g6
(g18
S'\xb9\x96]?'
p1099
tp1100
Rp1101
tp1102
a(g32
g6
(g18
S'"\x13\x00>'
p1103
tp1104
Rp1105
tp1106
a(g56
g6
(g18
S'\x85\xd2\xbd;'
p1107
tp1108
Rp1109
tp1110
a(g68
g6
(g18
S',c\x87:'
p1111
tp1112
Rp1113
tp1114
a(g96
g6
(g18
S'H\x94\x86:'
p1115
tp1116
Rp1117
tp1118
asg73
g15
sa(dp1119
g2
S'../../../data/emanuela/activity-recognition/images/NTCIR-Lifelog-256/u2/2015-06-16/b00001583_21i7lf_20150616_095636e.jpg'
p1120
sg4
(lp1121
(g15
g6
(g18
S'\x81,\x1c?'
p1122
tp1123
Rp1124
tp1125
a(g68
g6
(g18
S'\xe9\x96\xbf>'
p1126
tp1127
Rp1128
tp1129
a(g926
g6
(g18
S'\xc6s\x9d;'
p1130
tp1131
Rp1132
tp1133
a(g166
g6
(g18
S'\x7fB\x89;'
p1134
tp1135
Rp1136
tp1137
a(g154
g6
(g18
S'2\x91\x14;'
p1138
tp1139
Rp1140
tp1141
asg73
g15
sa(dp1142
g2
S'../../../data/emanuela/activity-recognition/images/NTCIR-Lifelog-256/u2/2015-06-16/b00001776_21i7lf_20150616_150231e.jpg'
p1143
sg4
(lp1144
(g15
g6
(g18
S'\x8d\xa9\x7f?'
p1145
tp1146
Rp1147
tp1148
a(g68
g6
(g18
S'r\xd9/:'
p1149
tp1150
Rp1151
tp1152
a(g32
g6
(g18
S'YW\x839'
p1153
tp1154
Rp1155
tp1156
a(g44
g6
(g18
S'\xcd\x88[9'
p1157
tp1158
Rp1159
tp1160
a(g56
g6
(g18
S'F}\xe38'
p1161
tp1162
Rp1163
tp1164
asg73
g15
sa(dp1165
g2
S'../../../data/emanuela/activity-recognition/images/NTCIR-Lifelog-256/u2/2015-06-16/b00001813_21i7lf_20150616_223759e.jpg'
p1166
sg4
(lp1167
(g15
g6
(g18
S"\xe5'j?"
p1168
tp1169
Rp1170
tp1171
a(g32
g6
(g18
S'\xb6\x7f\x93='
p1172
tp1173
Rp1174
tp1175
a(g56
g6
(g18
S'bA\x05<'
p1176
tp1177
Rp1178
tp1179
a(g68
g6
(g18
S'\xdf\x1d!;'
p1180
tp1181
Rp1182
tp1183
a(g96
g6
(g18
S'\x8a+\xab:'
p1184
tp1185
Rp1186
tp1187
asg73
g15
sa(dp1188
g2
S'../../../data/emanuela/activity-recognition/images/NTCIR-Lifelog-256/u2/2015-06-16/b00001847_21i7lf_20150616_230035e.jpg'
p1189
sg4
(lp1190
(g15
g6
(g18
S'\x8b\xe7|?'
p1191
tp1192
Rp1193
tp1194
a(g32
g6
(g18
S'U\xcc\x9e;'
p1195
tp1196
Rp1197
tp1198
a(g56
g6
(g18
S'\x8e\xca\x8a;'
p1199
tp1200
Rp1201
tp1202
a(g68
g6
(g18
S'#\x99\xbf:'
p1203
tp1204
Rp1205
tp1206
a(g131
g6
(g18
S'\xa4,\xc49'
p1207
tp1208
Rp1209
tp1210
asg73
g15
sa(dp1211
g2
S'../../../data/emanuela/activity-recognition/images/NTCIR-Lifelog-256/u2/2015-06-16/b00001744_21i7lf_20150616_141811e.jpg'
p1212
sg4
(lp1213
(g15
g6
(g18
S'\xaceb?'
p1214
tp1215
Rp1216
tp1217
a(g32
g6
(g18
S'0Q\xc2='
p1218
tp1219
Rp1220
tp1221
a(g68
g6
(g18
S';v\x16<'
p1222
tp1223
Rp1224
tp1225
a(g56
g6
(g18
S'\xc1\xca\xd5;'
p1226
tp1227
Rp1228
tp1229
a(g44
g6
(g18
S'\xb5g\xf8:'
p1230
tp1231
Rp1232
tp1233
asg73
g15
sa(dp1234
g2
S'../../../data/emanuela/activity-recognition/images/NTCIR-Lifelog-256/u2/2015-06-16/b00001730_21i7lf_20150616_135708e.jpg'
p1235
sg4
(lp1236
(g15
g6
(g18
S'\xcfqt?'
p1237
tp1238
Rp1239
tp1240
a(g32
g6
(g18
S'\xfa\xc6\x8b<'
p1241
tp1242
Rp1243
tp1244
a(g56
g6
(g18
S'\xbdT\x1f<'
p1245
tp1246
Rp1247
tp1248
a(g96
g6
(g18
S'GJ\xc5;'
p1249
tp1250
Rp1251
tp1252
a(g44
g6
(g18
S'\xba\x97\xb3;'
p1253
tp1254
Rp1255
tp1256
asg73
g15
sa(dp1257
g2
S'../../../data/emanuela/activity-recognition/images/NTCIR-Lifelog-256/u2/2015-06-16/b00001850_21i7lf_20150616_230229e.jpg'
p1258
sg4
(lp1259
(g15
g6
(g18
S'n5\r?'
p1260
tp1261
Rp1262
tp1263
a(g56
g6
(g18
S'\r\x97\xa4>'
p1264
tp1265
Rp1266
tp1267
a(g131
g6
(g18
S'\x0c\xa76='
p1268
tp1269
Rp1270
tp1271
a(g68
g6
(g18
S'K\r\x05='
p1272
tp1273
Rp1274
tp1275
a(g96
g6
(g18
S'\x17\x83*<'
p1276
tp1277
Rp1278
tp1279
asg73
g15
sa(dp1280
g2
S'../../../data/emanuela/activity-recognition/images/NTCIR-Lifelog-256/u2/2015-06-16/b00001698_21i7lf_20150616_132548e.jpg'
p1281
sg4
(lp1282
(g15
g6
(g18
S'/\xd8x?'
p1283
tp1284
Rp1285
tp1286
a(g32
g6
(g18
S'0/\xd6<'
p1287
tp1288
Rp1289
tp1290
a(g96
g6
(g18
S'.\xd3*:'
p1291
tp1292
Rp1293
tp1294
a(g56
g6
(g18
S'\x80\xfe\xe69'
p1295
tp1296
Rp1297
tp1298
a(g68
g6
(g18
S'\x95U\xd39'
p1299
tp1300
Rp1301
tp1302
asg73
g15
sa(dp1303
g2
S'../../../data/emanuela/activity-recognition/images/NTCIR-Lifelog-256/u2/2015-06-16/b00001778_21i7lf_20150616_150521e.jpg'
p1304
sg4
(lp1305
(g15
g6
(g18
S'M\xe5|?'
p1306
tp1307
Rp1308
tp1309
a(g32
g6
(g18
S'\xdc\xe3\xc6;'
p1310
tp1311
Rp1312
tp1313
a(g56
g6
(g18
S'f\x01-;'
p1314
tp1315
Rp1316
tp1317
a(g96
g6
(g18
S'N\xbe\xbb:'
p1318
tp1319
Rp1320
tp1321
a(g44
g6
(g18
S'\xd6\x0bo:'
p1322
tp1323
Rp1324
tp1325
asg73
g15
sa(dp1326
g2
S'../../../data/emanuela/activity-recognition/images/NTCIR-Lifelog-256/u2/2015-06-16/b00001910_21i7lf_20150616_233926e.jpg'
p1327
sg4
(lp1328
(g15
g6
(g18
S'\x14\xaa^?'
p1329
tp1330
Rp1331
tp1332
a(g32
g6
(g18
S'\xdd\xad\xb8='
p1333
tp1334
Rp1335
tp1336
a(g56
g6
(g18
S'\x00\xba\x8e<'
p1337
tp1338
Rp1339
tp1340
a(g131
g6
(g18
S'\xccO\x06<'
p1341
tp1342
Rp1343
tp1344
a(g96
g6
(g18
S'\xe27\xce;'
p1345
tp1346
Rp1347
tp1348
asg73
g15
sa(dp1349
g2
S'../../../data/emanuela/activity-recognition/images/NTCIR-Lifelog-256/u2/2015-06-16/b00001874_21i7lf_20150616_231726e.jpg'
p1350
sg4
(lp1351
(g15
g6
(g18
S'\xb02c?'
p1352
tp1353
Rp1354
tp1355
a(g56
g6
(g18
S'\xc7\x9e%='
p1356
tp1357
Rp1358
tp1359
a(g32
g6
(g18
S's\x80\xd8<'
p1360
tp1361
Rp1362
tp1363
a(g44
g6
(g18
S'\x8aI\xcd<'
p1364
tp1365
Rp1366
tp1367
a(g362
g6
(g18
S'4L\xbe;'
p1368
tp1369
Rp1370
tp1371
asg73
g15
sa(dp1372
g2
S'../../../data/emanuela/activity-recognition/images/NTCIR-Lifelog-256/u2/2015-06-16/b00001746_21i7lf_20150616_142059e.jpg'
p1373
sg4
(lp1374
(g15
g6
(g18
S'U\xd2}?'
p1375
tp1376
Rp1377
tp1378
a(g32
g6
(g18
S'\x0c%\x96;'
p1379
tp1380
Rp1381
tp1382
a(g68
g6
(g18
S'\xc8\x12\xd6:'
p1383
tp1384
Rp1385
tp1386
a(g44
g6
(g18
S'\xbb(\x8c:'
p1387
tp1388
Rp1389
tp1390
a(g56
g6
(g18
S'\x12\xd6I:'
p1391
tp1392
Rp1393
tp1394
asg73
g15
sa(dp1395
g2
S'../../../data/emanuela/activity-recognition/images/NTCIR-Lifelog-256/u2/2015-06-16/b00001886_21i7lf_20150616_232422e.jpg'
p1396
sg4
(lp1397
(g15
g6
(g18
S'_#\xac>'
p1398
tp1399
Rp1400
tp1401
a(g56
g6
(g18
S'G^s>'
p1402
tp1403
Rp1404
tp1405
a(g32
g6
(g18
S'B\xc0Z>'
p1406
tp1407
Rp1408
tp1409
a(g68
g6
(g18
S'\xbc3\x8a='
p1410
tp1411
Rp1412
tp1413
a(g131
g6
(g18
S'\xf2\x87p='
p1414
tp1415
Rp1416
tp1417
asg73
g15
sa(dp1418
g2
S'../../../data/emanuela/activity-recognition/images/NTCIR-Lifelog-256/u2/2015-06-16/b00001889_21i7lf_20150616_232613e.jpg'
p1419
sg4
(lp1420
(g15
g6
(g18
S'A-P?'
p1421
tp1422
Rp1423
tp1424
a(g56
g6
(g18
S'\xfc\xc3\x8b='
p1425
tp1426
Rp1427
tp1428
a(g32
g6
(g18
S'g\xc4\x01='
p1429
tp1430
Rp1431
tp1432
a(g131
g6
(g18
S'\xda\x1a\xcd<'
p1433
tp1434
Rp1435
tp1436
a(g166
g6
(g18
S'X+\xac<'
p1437
tp1438
Rp1439
tp1440
asg73
g15
sa(dp1441
g2
S'../../../data/emanuela/activity-recognition/images/NTCIR-Lifelog-256/u2/2015-06-16/b00001704_21i7lf_20150616_132902e.jpg'
p1442
sg4
(lp1443
(g15
g6
(g18
S'_\xf9i?'
p1444
tp1445
Rp1446
tp1447
a(g32
g6
(g18
S'\xd6X\xa3='
p1448
tp1449
Rp1450
tp1451
a(g96
g6
(g18
S'W\x87;;'
p1452
tp1453
Rp1454
tp1455
a(g56
g6
(g18
S'\x1b\r\xdd:'
p1456
tp1457
Rp1458
tp1459
a(g44
g6
(g18
S'\x1cZ\x84:'
p1460
tp1461
Rp1462
tp1463
asg73
g15
sa(dp1464
g2
S'../../../data/emanuela/activity-recognition/images/NTCIR-Lifelog-256/u2/2015-06-16/b00001724_21i7lf_20150616_134832e.jpg'
p1465
sg4
(lp1466
(g15
g6
(g18
S'\x02\xfav?'
p1467
tp1468
Rp1469
tp1470
a(g32
g6
(g18
S'\xab]\x05='
p1471
tp1472
Rp1473
tp1474
a(g96
g6
(g18
S'h\xf56:'
p1475
tp1476
Rp1477
tp1478
a(g68
g6
(g18
S'G\xc45:'
p1479
tp1480
Rp1481
tp1482
a(g44
g6
(g18
S'\x94\xcb\x15:'
p1483
tp1484
Rp1485
tp1486
asg73
g15
sa(dp1487
g2
S'../../../data/emanuela/activity-recognition/images/NTCIR-Lifelog-256/u2/2015-06-16/b00001602_21i7lf_20150616_100736e.jpg'
p1488
sg4
(lp1489
(g68
g6
(g18
S'\xf4\x7f\x7f?'
p1490
tp1491
Rp1492
tp1493
a(g15
g6
(g18
S'\xa0N9:'
p1494
tp1495
Rp1496
tp1497
a(g166
g6
(g18
S'\xcam\xe19'
p1498
tp1499
Rp1500
tp1501
a(g44
g6
(g18
S'\x1d-\x9c9'
p1502
tp1503
Rp1504
tp1505
a(g926
g6
(g18
S'\x82\xc4{9'
p1506
tp1507
Rp1508
tp1509
asg73
g15
sa(dp1510
g2
S'../../../data/emanuela/activity-recognition/images/NTCIR-Lifelog-256/u2/2015-06-16/b00001760_21i7lf_20150616_144021e.jpg'
p1511
sg4
(lp1512
(g15
g6
(g18
S'\xa2*\x10?'
p1513
tp1514
Rp1515
tp1516
a(g68
g6
(g18
S'\xd3\xe7f>'
p1517
tp1518
Rp1519
tp1520
a(g44
g6
(g18
S'\x1c\xa8u='
p1521
tp1522
Rp1523
tp1524
a(g32
g6
(g18
S'U8b='
p1525
tp1526
Rp1527
tp1528
a(g56
g6
(g18
S'q\xa6\xfd<'
p1529
tp1530
Rp1531
tp1532
asg73
g15
sa(dp1533
g2
S'../../../data/emanuela/activity-recognition/images/NTCIR-Lifelog-256/u2/2015-06-16/b00001694_21i7lf_20150616_132320e.jpg'
p1534
sg4
(lp1535
(g15
g6
(g18
S'\xc6 w?'
p1536
tp1537
Rp1538
tp1539
a(g32
g6
(g18
S'\xbb&\x01='
p1540
tp1541
Rp1542
tp1543
a(g56
g6
(g18
S'\xa8\x96\xdb:'
p1544
tp1545
Rp1546
tp1547
a(g68
g6
(g18
S'\xcf\xc2\xf19'
p1548
tp1549
Rp1550
tp1551
a(g96
g6
(g18
S'\xa6\x99\xef9'
p1552
tp1553
Rp1554
tp1555
asg73
g15
sa(dp1556
g2
S'../../../data/emanuela/activity-recognition/images/NTCIR-Lifelog-256/u2/2015-06-16/b00001571_21i7lf_20150616_094928e.jpg'
p1557
sg4
(lp1558
(g15
g6
(g18
S'k\xdci?'
p1559
tp1560
Rp1561
tp1562
a(g68
g6
(g18
S'\xbe\x88\xa8='
p1563
tp1564
Rp1565
tp1566
a(g154
g6
(g18
S'\xc4\x1b\xa7:'
p1567
tp1568
Rp1569
tp1570
a(g458
g6
(g18
S'\x163X:'
p1571
tp1572
Rp1573
tp1574
a(g44
g6
(g18
S'\x87\x1d\x14:'
p1575
tp1576
Rp1577
tp1578
asg73
g15
sa(dp1579
g2
S'../../../data/emanuela/activity-recognition/images/NTCIR-Lifelog-256/u2/2015-06-16/b00001848_21i7lf_20150616_230113e.jpg'
p1580
sg4
(lp1581
(g15
g6
(g18
S'\x1b\xc6\x1c?'
p1582
tp1583
Rp1584
tp1585
a(g56
g6
(g18
S'P\x18{>'
p1586
tp1587
Rp1588
tp1589
a(g32
g6
(g18
S'\xbdxi='
p1590
tp1591
Rp1592
tp1593
a(g68
g6
(g18
S'\xde\xe8\x0f='
p1594
tp1595
Rp1596
tp1597
a(g131
g6
(g18
S'+\x96n<'
p1598
tp1599
Rp1600
tp1601
asg73
g15
sa(dp1602
g2
S'../../../data/emanuela/activity-recognition/images/NTCIR-Lifelog-256/u2/2015-06-16/b00001601_21i7lf_20150616_100657e.jpg'
p1603
sg4
(lp1604
(g68
g6
(g18
S'\xd3N\x7f?'
p1605
tp1606
Rp1607
tp1608
a(g15
g6
(g18
S'\xd8t\x8b:'
p1609
tp1610
Rp1611
tp1612
a(g44
g6
(g18
S'\xe7s\x0f:'
p1613
tp1614
Rp1615
tp1616
a(g166
g6
(g18
S'\x073\xf69'
p1617
tp1618
Rp1619
tp1620
a(g926
g6
(g18
S'\x18R\x9a9'
p1621
tp1622
Rp1623
tp1624
asg73
g15
sa(dp1625
g2
S'../../../data/emanuela/activity-recognition/images/NTCIR-Lifelog-256/u2/2015-06-16/b00001854_21i7lf_20150616_230506e.jpg'
p1626
sg4
(lp1627
(g15
g6
(g18
S'\xdd\xcdw?'
p1628
tp1629
Rp1630
tp1631
a(g56
g6
(g18
S'\xbe\x85\xa7<'
p1632
tp1633
Rp1634
tp1635
a(g32
g6
(g18
S'\xd9{\x0f<'
p1636
tp1637
Rp1638
tp1639
a(g131
g6
(g18
S'S\x99\xb2:'
p1640
tp1641
Rp1642
tp1643
a(g96
g6
(g18
S'\x92gV:'
p1644
tp1645
Rp1646
tp1647
asg73
g15
sa(dp1648
g2
S'../../../data/emanuela/activity-recognition/images/NTCIR-Lifelog-256/u2/2015-06-16/b00001758_21i7lf_20150616_143735e.jpg'
p1649
sg4
(lp1650
(g15
g6
(g18
S'\xbffY?'
p1651
tp1652
Rp1653
tp1654
a(g32
g6
(g18
S'\xcbB\x8b='
p1655
tp1656
Rp1657
tp1658
a(g68
g6
(g18
S'6\xd9\x00='
p1659
tp1660
Rp1661
tp1662
a(g96
g6
(g18
S'\xf9\xda\x9e<'
p1663
tp1664
Rp1665
tp1666
a(g44
g6
(g18
S'\xb1\xf3j<'
p1667
tp1668
Rp1669
tp1670
asg73
g15
sa(dp1671
g2
S'../../../data/emanuela/activity-recognition/images/NTCIR-Lifelog-256/u2/2015-06-16/b00001870_21i7lf_20150616_231456e.jpg'
p1672
sg4
(lp1673
(g15
g6
(g18
S'\xf8/A?'
p1674
tp1675
Rp1676
tp1677
a(g56
g6
(g18
S'2\x16\x9b='
p1678
tp1679
Rp1680
tp1681
a(g32
g6
(g18
S'H@\x8e='
p1682
tp1683
Rp1684
tp1685
a(g44
g6
(g18
S'/\xbc\xda<'
p1686
tp1687
Rp1688
tp1689
a(g68
g6
(g18
S'#\x82\xb8<'
p1690
tp1691
Rp1692
tp1693
asg73
g15
sa(dp1694
g2
S'../../../data/emanuela/activity-recognition/images/NTCIR-Lifelog-256/u2/2015-06-16/b00001865_21i7lf_20150616_231147e.jpg'
p1695
sg4
(lp1696
(g15
g6
(g18
S'N\x1bt?'
p1697
tp1698
Rp1699
tp1700
a(g32
g6
(g18
S'\x04(\x01='
p1701
tp1702
Rp1703
tp1704
a(g56
g6
(g18
S'"~\xf5;'
p1705
tp1706
Rp1707
tp1708
a(g96
g6
(g18
S'\xcdm\xdb:'
p1709
tp1710
Rp1711
tp1712
a(g44
g6
(g18
S'6\x16\xb3:'
p1713
tp1714
Rp1715
tp1716
asg73
g15
sa(dp1717
g2
S'../../../data/emanuela/activity-recognition/images/NTCIR-Lifelog-256/u2/2015-06-16/b00001775_21i7lf_20150616_150108e.jpg'
p1718
sg4
(lp1719
(g15
g6
(g18
S'\xab\\~?'
p1720
tp1721
Rp1722
tp1723
a(g68
g6
(g18
S'\xc2Ub;'
p1724
tp1725
Rp1726
tp1727
a(g44
g6
(g18
S'\xa8\x05(;'
p1728
tp1729
Rp1730
tp1731
a(g56
g6
(g18
S'\x98\x91\xfb8'
p1732
tp1733
Rp1734
tp1735
a(g96
g6
(g18
S'N\x01\xf48'
p1736
tp1737
Rp1738
tp1739
asg73
g15
sa(dp1740
g2
S'../../../data/emanuela/activity-recognition/images/NTCIR-Lifelog-256/u2/2015-06-16/b00001723_21i7lf_20150616_134704e.jpg'
p1741
sg4
(lp1742
(g56
g6
(g18
S'QK\x92>'
p1743
tp1744
Rp1745
tp1746
a(g32
g6
(g18
S'\x84\x1b\x1d>'
p1747
tp1748
Rp1749
tp1750
a(g131
g6
(g18
S'\x00P\xc0='
p1751
tp1752
Rp1753
tp1754
a(g6
(g7
(S'S11'
p1755
I0
I1
tp1756
Rp1757
(I3
S'|'
p1758
NNNI11
I1
I0
tp1759
bS'socializing'
p1760
tp1761
Rp1762
g6
(g18
S'O\xe8\xbb='
p1763
tp1764
Rp1765
tp1766
a(g154
g6
(g18
S'NV\x9b='
p1767
tp1768
Rp1769
tp1770
asg73
g15
sa(dp1771
g2
S'../../../data/emanuela/activity-recognition/images/NTCIR-Lifelog-256/u2/2015-06-16/b00001570_21i7lf_20150616_094848e.jpg'
p1772
sg4
(lp1773
(g15
g6
(g18
S'\x0b\x04h?'
p1774
tp1775
Rp1776
tp1777
a(g68
g6
(g18
S'\x0c\x06\xb2='
p1778
tp1779
Rp1780
tp1781
a(g154
g6
(g18
S'%\xe6\xdb:'
p1782
tp1783
Rp1784
tp1785
a(g458
g6
(g18
S'e\xec\xd3:'
p1786
tp1787
Rp1788
tp1789
a(g166
g6
(g18
S'a&4:'
p1790
tp1791
Rp1792
tp1793
asg73
g15
sa(dp1794
g2
S'../../../data/emanuela/activity-recognition/images/NTCIR-Lifelog-256/u2/2015-06-16/b00001577_21i7lf_20150616_095251e.jpg'
p1795
sg4
(lp1796
(g15
g6
(g18
S'F\x1be?'
p1797
tp1798
Rp1799
tp1800
a(g68
g6
(g18
S'+\x87\xb8='
p1801
tp1802
Rp1803
tp1804
a(g166
g6
(g18
S'\x03\xb8\xef;'
p1805
tp1806
Rp1807
tp1808
a(g926
g6
(g18
S'.\xfer;'
p1809
tp1810
Rp1811
tp1812
a(g32
g6
(g18
S'\x81Ni:'
p1813
tp1814
Rp1815
tp1816
asg73
g15
sa(dp1817
g2
S'../../../data/emanuela/activity-recognition/images/NTCIR-Lifelog-256/u2/2015-06-16/b00001750_21i7lf_20150616_142623e.jpg'
p1818
sg4
(lp1819
(g15
g6
(g18
S'\xbews?'
p1820
tp1821
Rp1822
tp1823
a(g32
g6
(g18
S',\r*='
p1824
tp1825
Rp1826
tp1827
a(g44
g6
(g18
S'\xd9\xbd ;'
p1828
tp1829
Rp1830
tp1831
a(g56
g6
(g18
S'G\xac\x08;'
p1832
tp1833
Rp1834
tp1835
a(g68
g6
(g18
S'\x8e\x87\xd0:'
p1836
tp1837
Rp1838
tp1839
asg73
g15
sa(dp1840
g2
S'../../../data/emanuela/activity-recognition/images/NTCIR-Lifelog-256/u2/2015-06-16/b00001546_21i7lf_20150616_093451e.jpg'
p1841
sg4
(lp1842
(g15
g6
(g18
S'\xe7\x14\x00?'
p1843
tp1844
Rp1845
tp1846
a(g154
g6
(g18
S'v\xa9\xf0>'
p1847
tp1848
Rp1849
tp1850
a(g68
g6
(g18
S'\xc5X\x84<'
p1851
tp1852
Rp1853
tp1854
a(g32
g6
(g18
S'*m\xf1;'
p1855
tp1856
Rp1857
tp1858
a(g44
g6
(g18
S'\xf5P1;'
p1859
tp1860
Rp1861
tp1862
asg73
g15
sa(dp1863
g2
S'../../../data/emanuela/activity-recognition/images/NTCIR-Lifelog-256/u2/2015-06-16/b00001906_21i7lf_20150616_233701e.jpg'
p1864
sg4
(lp1865
(g15
g6
(g18
S'\x00\xf6??'
p1866
tp1867
Rp1868
tp1869
a(g56
g6
(g18
S'\x13R\xed='
p1870
tp1871
Rp1872
tp1873
a(g32
g6
(g18
S'\x8d\xb7\xa3='
p1874
tp1875
Rp1876
tp1877
a(g131
g6
(g18
S'\x85\xdd\xc8<'
p1878
tp1879
Rp1880
tp1881
a(g96
g6
(g18
S'HgQ<'
p1882
tp1883
Rp1884
tp1885
asg73
g15
sa(dp1886
g2
S'../../../data/emanuela/activity-recognition/images/NTCIR-Lifelog-256/u2/2015-06-16/b00001552_21i7lf_20150616_093815e.jpg'
p1887
sg4
(lp1888
(g15
g6
(g18
S']\xfeI?'
p1889
tp1890
Rp1891
tp1892
a(g68
g6
(g18
S'3xM>'
p1893
tp1894
Rp1895
tp1896
a(g154
g6
(g18
S'\xbd\x11\x86;'
p1897
tp1898
Rp1899
tp1900
a(g166
g6
(g18
S'$\xdc\xb4:'
p1901
tp1902
Rp1903
tp1904
a(g44
g6
(g18
S'\x01P\xad:'
p1905
tp1906
Rp1907
tp1908
asg73
g15
sa(dp1909
g2
S'../../../data/emanuela/activity-recognition/images/NTCIR-Lifelog-256/u2/2015-06-16/b00001541_21i7lf_20150616_093144e.jpg'
p1910
sg4
(lp1911
(g6
(g7
(S'S27'
p1912
I0
I1
tp1913
Rp1914
(I3
S'|'
p1915
NNNI27
I1
I0
tp1916
bS'having drinks with somebody'
p1917
tp1918
Rp1919
g6
(g18
S'\x9a\x83\xfb>'
p1920
tp1921
Rp1922
tp1923
a(g131
g6
(g18
S'GC=>'
p1924
tp1925
Rp1926
tp1927
a(g56
g6
(g18
S'\x12&\xb7='
p1928
tp1929
Rp1930
tp1931
a(g362
g6
(g18
S'A\xb4\x82='
p1932
tp1933
Rp1934
tp1935
a(g15
g6
(g18
S'\xfcz.='
p1936
tp1937
Rp1938
tp1939
asg73
g15
sa(dp1940
g2
S'../../../data/emanuela/activity-recognition/images/NTCIR-Lifelog-256/u2/2015-06-16/b00001894_21i7lf_20150616_232920e.jpg'
p1941
sg4
(lp1942
(g15
g6
(g18
S'\xa9r]?'
p1943
tp1944
Rp1945
tp1946
a(g56
g6
(g18
S'\xd3\x12\x17='
p1947
tp1948
Rp1949
tp1950
a(g32
g6
(g18
S'\xc2t\xed<'
p1951
tp1952
Rp1953
tp1954
a(g131
g6
(g18
S'\xf0n\xb3<'
p1955
tp1956
Rp1957
tp1958
a(g44
g6
(g18
S'Y\xf1F<'
p1959
tp1960
Rp1961
tp1962
asg73
g15
sa(dp1963
g2
S'../../../data/emanuela/activity-recognition/images/NTCIR-Lifelog-256/u2/2015-06-16/b00001852_21i7lf_20150616_230348e.jpg'
p1964
sg4
(lp1965
(g15
g6
(g18
S'\xf5\xff{?'
p1966
tp1967
Rp1968
tp1969
a(g56
g6
(g18
S'\xfb\xb9\xfb;'
p1970
tp1971
Rp1972
tp1973
a(g32
g6
(g18
S'^|\xda;'
p1974
tp1975
Rp1976
tp1977
a(g131
g6
(g18
S'\xf1\x04\x0f:'
p1978
tp1979
Rp1980
tp1981
a(g96
g6
(g18
S'U\xa1\x809'
p1982
tp1983
Rp1984
tp1985
asg73
g15
sa(dp1986
g2
S'../../../data/emanuela/activity-recognition/images/NTCIR-Lifelog-256/u2/2015-06-16/b00001822_21i7lf_20150616_224728e.jpg'
p1987
sg4
(lp1988
(g15
g6
(g18
S'C\xffz?'
p1989
tp1990
Rp1991
tp1992
a(g32
g6
(g18
S'\xdb\xc8\xe8;'
p1993
tp1994
Rp1995
tp1996
a(g56
g6
(g18
S'\xf0\x0e\xc8;'
p1997
tp1998
Rp1999
tp2000
a(g44
g6
(g18
S'\x802.;'
p2001
tp2002
Rp2003
tp2004
a(g96
g6
(g18
S'\xdaf\xa2:'
p2005
tp2006
Rp2007
tp2008
asg73
g15
sa(dp2009
g2
S'../../../data/emanuela/activity-recognition/images/NTCIR-Lifelog-256/u2/2015-06-16/b00001717_21i7lf_20150616_133936e.jpg'
p2010
sg4
(lp2011
(g15
g6
(g18
S'B\xf6\n?'
p2012
tp2013
Rp2014
tp2015
a(g32
g6
(g18
S'\xe3\xff\xe2>'
p2016
tp2017
Rp2018
tp2019
a(g56
g6
(g18
S'\xffj\x9e;'
p2020
tp2021
Rp2022
tp2023
a(g44
g6
(g18
S'\x86\xe1l;'
p2024
tp2025
Rp2026
tp2027
a(g68
g6
(g18
S'Z\xe5=;'
p2028
tp2029
Rp2030
tp2031
asg73
g15
sa(dp2032
g2
S'../../../data/emanuela/activity-recognition/images/NTCIR-Lifelog-256/u2/2015-06-16/b00001719_21i7lf_20150616_134224e.jpg'
p2033
sg4
(lp2034
(g15
g6
(g18
S'?\x99??'
p2035
tp2036
Rp2037
tp2038
a(g32
g6
(g18
S'\xf2\xf8*>'
p2039
tp2040
Rp2041
tp2042
a(g56
g6
(g18
S'\x84\x89\x11='
p2043
tp2044
Rp2045
tp2046
a(g96
g6
(g18
S'\xdf/\xa0<'
p2047
tp2048
Rp2049
tp2050
a(g68
g6
(g18
S'\x94NC<'
p2051
tp2052
Rp2053
tp2054
asg73
g15
sa(dp2055
g2
S'../../../data/emanuela/activity-recognition/images/NTCIR-Lifelog-256/u2/2015-06-16/b00001734_21i7lf_20150616_140252e.jpg'
p2056
sg4
(lp2057
(g15
g6
(g18
S'\x95fh?'
p2058
tp2059
Rp2060
tp2061
a(g32
g6
(g18
S'n\x1dO='
p2062
tp2063
Rp2064
tp2065
a(g56
g6
(g18
S'\xd2\x94k<'
p2066
tp2067
Rp2068
tp2069
a(g68
g6
(g18
S"\xc6\x93'<"
p2070
tp2071
Rp2072
tp2073
a(g44
g6
(g18
S']\x04\xd4;'
p2074
tp2075
Rp2076
tp2077
asg73
g15
sa(dp2078
g2
S'../../../data/emanuela/activity-recognition/images/NTCIR-Lifelog-256/u2/2015-06-16/b00001826_21i7lf_20150616_224730e.jpg'
p2079
sg4
(lp2080
(g15
g6
(g18
S'\x82\xf4z?'
p2081
tp2082
Rp2083
tp2084
a(g32
g6
(g18
S'\xab\xa8z<'
p2085
tp2086
Rp2087
tp2088
a(g56
g6
(g18
S'/\x12\xd2:'
p2089
tp2090
Rp2091
tp2092
a(g68
g6
(g18
S'\x05\xba\xc7:'
p2093
tp2094
Rp2095
tp2096
a(g44
g6
(g18
S'\xe5\x03\x08:'
p2097
tp2098
Rp2099
tp2100
asg73
g15
sa(dp2101
g2
S'../../../data/emanuela/activity-recognition/images/NTCIR-Lifelog-256/u2/2015-06-16/b00001839_21i7lf_20150616_225510e.jpg'
p2102
sg4
(lp2103
(g15
g6
(g18
S'`\x8au?'
p2104
tp2105
Rp2106
tp2107
a(g56
g6
(g18
S'\x99\xc3\x94<'
p2108
tp2109
Rp2110
tp2111
a(g32
g6
(g18
S'\xf1pe<'
p2112
tp2113
Rp2114
tp2115
a(g96
g6
(g18
S'\x8d\x16\x1f;'
p2116
tp2117
Rp2118
tp2119
a(g68
g6
(g18
S'\xbdC\xc7:'
p2120
tp2121
Rp2122
tp2123
asg73
g15
sa(dp2124
g2
S'../../../data/emanuela/activity-recognition/images/NTCIR-Lifelog-256/u2/2015-06-16/b00001917_21i7lf_20150616_234503e.jpg'
p2125
sg4
(lp2126
(g56
g6
(g18
S'\n\xd71?'
p2127
tp2128
Rp2129
tp2130
a(g131
g6
(g18
S'\xc6!\n>'
p2131
tp2132
Rp2133
tp2134
a(g15
g6
(g18
S'\xda\xd1\x8d='
p2135
tp2136
Rp2137
tp2138
a(g96
g6
(g18
S'\xc2\xcf/='
p2139
tp2140
Rp2141
tp2142
a(g6
(g7
(S'S7'
p2143
I0
I1
tp2144
Rp2145
(I3
S'|'
p2146
NNNI7
I1
I0
tp2147
bS'talking'
p2148
tp2149
Rp2150
g6
(g18
S'\x06\xed\xde<'
p2151
tp2152
Rp2153
tp2154
asg73
g15
sa(dp2155
g2
S'../../../data/emanuela/activity-recognition/images/NTCIR-Lifelog-256/u2/2015-06-16/b00001745_21i7lf_20150616_141932e.jpg'
p2156
sg4
(lp2157
(g15
g6
(g18
S'\xde\xd8w?'
p2158
tp2159
Rp2160
tp2161
a(g32
g6
(g18
S'\xa1\x05i<'
p2162
tp2163
Rp2164
tp2165
a(g44
g6
(g18
S'\xa2\x04\xcc;'
p2166
tp2167
Rp2168
tp2169
a(g56
g6
(g18
S'\xf9\xd0\x9e;'
p2170
tp2171
Rp2172
tp2173
a(g68
g6
(g18
S'zT{;'
p2174
tp2175
Rp2176
tp2177
asg73
g15
sa(dp2178
g2
S'../../../data/emanuela/activity-recognition/images/NTCIR-Lifelog-256/u2/2015-06-16/b00001582_21i7lf_20150616_095600e.jpg'
p2179
sg4
(lp2180
(g15
g6
(g18
S'\xe0\xf4g?'
p2181
tp2182
Rp2183
tp2184
a(g68
g6
(g18
S'Db\xb9='
p2185
tp2186
Rp2187
tp2188
a(g154
g6
(g18
S'[hI:'
p2189
tp2190
Rp2191
tp2192
a(g166
g6
(g18
S'\xea\x0e?:'
p2193
tp2194
Rp2195
tp2196
a(g44
g6
(g18
S'\x07\xd0&:'
p2197
tp2198
Rp2199
tp2200
asg73
g15
sa(dp2201
g2
S'../../../data/emanuela/activity-recognition/images/NTCIR-Lifelog-256/u2/2015-06-16/b00001800_21i7lf_20150616_153753e.jpg'
p2202
sg4
(lp2203
(g15
g6
(g18
S'\\K`?'
p2204
tp2205
Rp2206
tp2207
a(g32
g6
(g18
S'\x0b\xaf\xe5='
p2208
tp2209
Rp2210
tp2211
a(g56
g6
(g18
S'\xf4\xc2\xb3;'
p2212
tp2213
Rp2214
tp2215
a(g68
g6
(g18
S'\x01\xbaD;'
p2216
tp2217
Rp2218
tp2219
a(g96
g6
(g18
S'\xc6U\x8f:'
p2220
tp2221
Rp2222
tp2223
asg73
g15
sa(dp2224
g2
S'../../../data/emanuela/activity-recognition/images/NTCIR-Lifelog-256/u2/2015-06-16/b00001815_21i7lf_20150616_224053e.jpg'
p2225
sg4
(lp2226
(g15
g6
(g18
S'@(h?'
p2227
tp2228
Rp2229
tp2230
a(g56
g6
(g18
S'\xe5\x8bt='
p2231
tp2232
Rp2233
tp2234
a(g32
g6
(g18
S'G\xc9,<'
p2235
tp2236
Rp2237
tp2238
a(g68
g6
(g18
S'\xe5\x0e\x15<'
p2239
tp2240
Rp2241
tp2242
a(g44
g6
(g18
S'\xb6\x90\xc8;'
p2243
tp2244
Rp2245
tp2246
asg73
g15
sa(dp2247
g2
S'../../../data/emanuela/activity-recognition/images/NTCIR-Lifelog-256/u2/2015-06-16/b00001586_21i7lf_20150616_095818e.jpg'
p2248
sg4
(lp2249
(g15
g6
(g18
S'9Iv?'
p2250
tp2251
Rp2252
tp2253
a(g68
g6
(g18
S'a\xe0\x17='
p2254
tp2255
Rp2256
tp2257
a(g154
g6
(g18
S'\x03\xe8u9'
p2258
tp2259
Rp2260
tp2261
a(g44
g6
(g18
S'W\xd1H9'
p2262
tp2263
Rp2264
tp2265
a(g458
g6
(g18
S'TT@9'
p2266
tp2267
Rp2268
tp2269
asg73
g15
sa(dp2270
g2
S'../../../data/emanuela/activity-recognition/images/NTCIR-Lifelog-256/u2/2015-06-16/b00001696_21i7lf_20150616_132434e.jpg'
p2271
sg4
(lp2272
(g15
g6
(g18
S'1\x90~?'
p2273
tp2274
Rp2275
tp2276
a(g32
g6
(g18
S'\xb45\xa4;'
p2277
tp2278
Rp2279
tp2280
a(g44
g6
(g18
S'?\xa9\x829'
p2281
tp2282
Rp2283
tp2284
a(g96
g6
(g18
S'\x90&P9'
p2285
tp2286
Rp2287
tp2288
a(g56
g6
(g18
S'\xf7x\xcc8'
p2289
tp2290
Rp2291
tp2292
asg73
g15
sa(dp2293
g2
S'../../../data/emanuela/activity-recognition/images/NTCIR-Lifelog-256/u2/2015-06-16/b00001814_21i7lf_20150616_223921e.jpg'
p2294
sg4
(lp2295
(g15
g6
(g18
S'H\x17m?'
p2296
tp2297
Rp2298
tp2299
a(g32
g6
(g18
S'\xdb\x0f5='
p2300
tp2301
Rp2302
tp2303
a(g56
g6
(g18
S'%Lo<'
p2304
tp2305
Rp2306
tp2307
a(g68
g6
(g18
S'\x15\xf6#<'
p2308
tp2309
Rp2310
tp2311
a(g96
g6
(g18
S'\x81L\xdd:'
p2312
tp2313
Rp2314
tp2315
asg73
g15
sa(dp2316
g2
S'../../../data/emanuela/activity-recognition/images/NTCIR-Lifelog-256/u2/2015-06-16/b00001881_21i7lf_20150616_232127e.jpg'
p2317
sg4
(lp2318
(g15
g6
(g18
S'\xa3\x84i?'
p2319
tp2320
Rp2321
tp2322
a(g56
g6
(g18
S'O\x8e\xc2<'
p2323
tp2324
Rp2325
tp2326
a(g32
g6
(g18
S'\xf2P\xb8<'
p2327
tp2328
Rp2329
tp2330
a(g96
g6
(g18
S'\xc5RJ<'
p2331
tp2332
Rp2333
tp2334
a(g68
g6
(g18
S'p\xaeB<'
p2335
tp2336
Rp2337
tp2338
asg73
g15
sa(dp2339
g2
S'../../../data/emanuela/activity-recognition/images/NTCIR-Lifelog-256/u2/2015-06-16/b00001901_21i7lf_20150616_233346e.jpg'
p2340
sg4
(lp2341
(g15
g6
(g18
S'_\xe6V?'
p2342
tp2343
Rp2344
tp2345
a(g56
g6
(g18
S'&\x19b='
p2346
tp2347
Rp2348
tp2349
a(g32
g6
(g18
S'Q\x86U='
p2350
tp2351
Rp2352
tp2353
a(g166
g6
(g18
S'\xe7\xf2,<'
p2354
tp2355
Rp2356
tp2357
a(g96
g6
(g18
S'\x0e9*<'
p2358
tp2359
Rp2360
tp2361
asg73
g15
sa(dp2362
g2
S'../../../data/emanuela/activity-recognition/images/NTCIR-Lifelog-256/u2/2015-06-16/b00001542_21i7lf_20150616_093224e.jpg'
p2363
sg4
(lp2364
(g15
g6
(g18
S'\xb3J\xcf>'
p2365
tp2366
Rp2367
tp2368
a(g362
g6
(g18
S'uM\x8a>'
p2369
tp2370
Rp2371
tp2372
a(g68
g6
(g18
S'\xa5\x9cj='
p2373
tp2374
Rp2375
tp2376
a(g6
(g7
(S'S7'
p2377
I0
I1
tp2378
Rp2379
(I3
S'|'
p2380
NNNI7
I1
I0
tp2381
bS'resting'
p2382
tp2383
Rp2384
g6
(g18
S'\xcf+B='
p2385
tp2386
Rp2387
tp2388
a(g154
g6
(g18
S'\xbd]*='
p2389
tp2390
Rp2391
tp2392
asg73
g15
sa(dp2393
g2
S'../../../data/emanuela/activity-recognition/images/NTCIR-Lifelog-256/u2/2015-06-16/b00001891_21i7lf_20150616_232727e.jpg'
p2394
sg4
(lp2395
(g15
g6
(g18
S'\xe3Mh?'
p2396
tp2397
Rp2398
tp2399
a(g32
g6
(g18
S'\xe3\xb5/='
p2400
tp2401
Rp2402
tp2403
a(g56
g6
(g18
S'\xce\xaf\x91<'
p2404
tp2405
Rp2406
tp2407
a(g96
g6
(g18
S'\xd0}\x0f<'
p2408
tp2409
Rp2410
tp2411
a(g131
g6
(g18
S'o\xf1\xf9;'
p2412
tp2413
Rp2414
tp2415
asg73
g15
sa(dp2416
g2
S'../../../data/emanuela/activity-recognition/images/NTCIR-Lifelog-256/u2/2015-06-16/b00001706_21i7lf_20150616_133004e.jpg'
p2417
sg4
(lp2418
(g15
g6
(g18
S'9\xecr?'
p2419
tp2420
Rp2421
tp2422
a(g32
g6
(g18
S'\x16\xfc>='
p2423
tp2424
Rp2425
tp2426
a(g96
g6
(g18
S'\xc5k\xb1:'
p2427
tp2428
Rp2429
tp2430
a(g56
g6
(g18
S'\xd7\xae\xa3:'
p2431
tp2432
Rp2433
tp2434
a(g44
g6
(g18
S"\xf8'w:"
p2435
tp2436
Rp2437
tp2438
asg73
g15
sa(dp2439
g2
S'../../../data/emanuela/activity-recognition/images/NTCIR-Lifelog-256/u2/2015-06-16/b00001785_21i7lf_20150616_151445e.jpg'
p2440
sg4
(lp2441
(g15
g6
(g18
S'\xa6.\\?'
p2442
tp2443
Rp2444
tp2445
a(g32
g6
(g18
S'\xa0\xac\xbd='
p2446
tp2447
Rp2448
tp2449
a(g131
g6
(g18
S"\xca\xab'<"
p2450
tp2451
Rp2452
tp2453
a(g56
g6
(g18
S'\xc9\xf6\x07<'
p2454
tp2455
Rp2456
tp2457
a(g68
g6
(g18
S'\xa5\x8d\xdf;'
p2458
tp2459
Rp2460
tp2461
asg73
g15
sa(dp2462
g2
S'../../../data/emanuela/activity-recognition/images/NTCIR-Lifelog-256/u2/2015-06-16/b00001836_21i7lf_20150616_225301e.jpg'
p2463
sg4
(lp2464
(g15
g6
(g18
S'\x86d{?'
p2465
tp2466
Rp2467
tp2468
a(g32
g6
(g18
S'\x1ee\x15<'
p2469
tp2470
Rp2471
tp2472
a(g56
g6
(g18
S'p\xdd\xa9;'
p2473
tp2474
Rp2475
tp2476
a(g96
g6
(g18
S'\x7f\xaeq:'
p2477
tp2478
Rp2479
tp2480
a(g131
g6
(g18
S'\x97SS:'
p2481
tp2482
Rp2483
tp2484
asg73
g15
sa(dp2485
g2
S'../../../data/emanuela/activity-recognition/images/NTCIR-Lifelog-256/u2/2015-06-16/b00001695_21i7lf_20150616_132357e.jpg'
p2486
sg4
(lp2487
(g15
g6
(g18
S'N[p?'
p2488
tp2489
Rp2490
tp2491
a(g32
g6
(g18
S'\xa6Va='
p2492
tp2493
Rp2494
tp2495
a(g96
g6
(g18
S'\x89\xd9\x02;'
p2496
tp2497
Rp2498
tp2499
a(g44
g6
(g18
S'\t\x1c\xed:'
p2500
tp2501
Rp2502
tp2503
a(g56
g6
(g18
S'?\xcf\xcc:'
p2504
tp2505
Rp2506
tp2507
asg73
g15
sa(dp2508
g2
S'../../../data/emanuela/activity-recognition/images/NTCIR-Lifelog-256/u2/2015-06-16/b00001757_21i7lf_20150616_143614e.jpg'
p2509
sg4
(lp2510
(g15
g6
(g18
S'\xde\xa8g?'
p2511
tp2512
Rp2513
tp2514
a(g68
g6
(g18
S'\xb2\t\x01='
p2515
tp2516
Rp2517
tp2518
a(g32
g6
(g18
S'"\x96\xc6<'
p2519
tp2520
Rp2521
tp2522
a(g96
g6
(g18
S'\x95/<<'
p2523
tp2524
Rp2525
tp2526
a(g44
g6
(g18
S'\xb7\x10:<'
p2527
tp2528
Rp2529
tp2530
asg73
g15
sa(dp2531
g2
S'../../../data/emanuela/activity-recognition/images/NTCIR-Lifelog-256/u2/2015-06-16/b00001893_21i7lf_20150616_232842e.jpg'
p2532
sg4
(lp2533
(g15
g6
(g18
S'\xfd\x1eJ?'
p2534
tp2535
Rp2536
tp2537
a(g32
g6
(g18
S'$\xd9\x88='
p2538
tp2539
Rp2540
tp2541
a(g56
g6
(g18
S'\xb5\xb3N='
p2542
tp2543
Rp2544
tp2545
a(g131
g6
(g18
S'\xea\x95\xf1<'
p2546
tp2547
Rp2548
tp2549
a(g68
g6
(g18
S'\xdc6\x8f<'
p2550
tp2551
Rp2552
tp2553
asg73
g15
sa(dp2554
g2
S'../../../data/emanuela/activity-recognition/images/NTCIR-Lifelog-256/u2/2015-06-16/b00001540_21i7lf_20150616_093109e.jpg'
p2555
sg4
(lp2556
(g1919
g6
(g18
S'\xc6I\x83>'
p2557
tp2558
Rp2559
tp2560
a(g56
g6
(g18
S'\xe3\x9em>'
p2561
tp2562
Rp2563
tp2564
a(g131
g6
(g18
S'\xebsT>'
p2565
tp2566
Rp2567
tp2568
a(g32
g6
(g18
S'\x94\x94\xe2='
p2569
tp2570
Rp2571
tp2572
a(g15
g6
(g18
S'N\x943='
p2573
tp2574
Rp2575
tp2576
asg73
g15
sa(dp2577
g2
S'../../../data/emanuela/activity-recognition/images/NTCIR-Lifelog-256/u2/2015-06-16/b00001585_21i7lf_20150616_095745e.jpg'
p2578
sg4
(lp2579
(g15
g6
(g18
S'\xf2\xf4W?'
p2580
tp2581
Rp2582
tp2583
a(g68
g6
(g18
S'\xf1\xe8\x1b>'
p2584
tp2585
Rp2586
tp2587
a(g154
g6
(g18
S'\x83\x92\xe5:'
p2588
tp2589
Rp2590
tp2591
a(g44
g6
(g18
S'\x80\x92\xf59'
p2592
tp2593
Rp2594
tp2595
a(g926
g6
(g18
S'\xc9c\xe59'
p2596
tp2597
Rp2598
tp2599
asg73
g15
sa(dp2600
g2
S'../../../data/emanuela/activity-recognition/images/NTCIR-Lifelog-256/u2/2015-06-16/b00001786_21i7lf_20150616_151612e.jpg'
p2601
sg4
(lp2602
(g15
g6
(g18
S'\xa8\x83t?'
p2603
tp2604
Rp2605
tp2606
a(g32
g6
(g18
S'O\x0f\t='
p2607
tp2608
Rp2609
tp2610
a(g56
g6
(g18
S'lW\x93;'
p2611
tp2612
Rp2613
tp2614
a(g68
g6
(g18
S'\xbd\x06\x8a;'
p2615
tp2616
Rp2617
tp2618
a(g96
g6
(g18
S'\xab\xc8\x95:'
p2619
tp2620
Rp2621
tp2622
asg73
g15
sa(dp2623
g2
S'../../../data/emanuela/activity-recognition/images/NTCIR-Lifelog-256/u2/2015-06-16/b00001716_21i7lf_20150616_133813e.jpg'
p2624
sg4
(lp2625
(g32
g6
(g18
S'\x10t\x08?'
p2626
tp2627
Rp2628
tp2629
a(g15
g6
(g18
S'\xe2n\xeb>'
p2630
tp2631
Rp2632
tp2633
a(g56
g6
(g18
S'?\xccV;'
p2634
tp2635
Rp2636
tp2637
a(g68
g6
(g18
S'\xf9>\xb9:'
p2638
tp2639
Rp2640
tp2641
a(g96
g6
(g18
S'\x7fq\xaf:'
p2642
tp2643
Rp2644
tp2645
asg73
g15
sa(dp2646
g2
S'../../../data/emanuela/activity-recognition/images/NTCIR-Lifelog-256/u2/2015-06-16/b00001606_21i7lf_20150616_101004e.jpg'
p2647
sg4
(lp2648
(g68
g6
(g18
S'\xd3\xbb\xfb>'
p2649
tp2650
Rp2651
tp2652
a(g15
g6
(g18
S'\xd0"\x83>'
p2653
tp2654
Rp2655
tp2656
a(g166
g6
(g18
S'!\xc9@>'
p2657
tp2658
Rp2659
tp2660
a(g926
g6
(g18
S'X\xffH='
p2661
tp2662
Rp2663
tp2664
a(g154
g6
(g18
S'\xe8\x1a\xb6;'
p2665
tp2666
Rp2667
tp2668
asg73
g15
sa(dp2669
g2
S'../../../data/emanuela/activity-recognition/images/NTCIR-Lifelog-256/u2/2015-06-16/b00001768_21i7lf_20150616_145109e.jpg'
p2670
sg4
(lp2671
(g15
g6
(g18
S'.!~?'
p2672
tp2673
Rp2674
tp2675
a(g68
g6
(g18
S'\xe0\xf2D;'
p2676
tp2677
Rp2678
tp2679
a(g32
g6
(g18
S"'=\xe5:"
p2680
tp2681
Rp2682
tp2683
a(g56
g6
(g18
S'\xadT\x8a:'
p2684
tp2685
Rp2686
tp2687
a(g44
g6
(g18
S'\xdeq\x84:'
p2688
tp2689
Rp2690
tp2691
asg73
g15
sa(dp2692
g2
S'../../../data/emanuela/activity-recognition/images/NTCIR-Lifelog-256/u2/2015-06-16/b00001912_21i7lf_20150616_234033e.jpg'
p2693
sg4
(lp2694
(g15
g6
(g18
S'\xae\xd2U?'
p2695
tp2696
Rp2697
tp2698
a(g44
g6
(g18
S'}\x90\x85='
p2699
tp2700
Rp2701
tp2702
a(g68
g6
(g18
S'\x8a\x8d\xcc<'
p2703
tp2704
Rp2705
tp2706
a(g96
g6
(g18
S'[/\xbc<'
p2707
tp2708
Rp2709
tp2710
a(g56
g6
(g18
S'<\x92\x93<'
p2711
tp2712
Rp2713
tp2714
asg73
g15
sa(dp2715
g2
S'../../../data/emanuela/activity-recognition/images/NTCIR-Lifelog-256/u2/2015-06-16/b00001911_21i7lf_20150616_233958e.jpg'
p2716
sg4
(lp2717
(g15
g6
(g18
S'\xc0\x01\x07?'
p2718
tp2719
Rp2720
tp2721
a(g44
g6
(g18
S'\xee\xa0\xca='
p2722
tp2723
Rp2724
tp2725
a(g96
g6
(g18
S'5\xa9\x9f='
p2726
tp2727
Rp2728
tp2729
a(g131
g6
(g18
S'\xc75\x95='
p2730
tp2731
Rp2732
tp2733
a(g56
g6
(g18
S'\x80\xae\x81='
p2734
tp2735
Rp2736
tp2737
asg73
g15
sa(dp2738
g2
S'../../../data/emanuela/activity-recognition/images/NTCIR-Lifelog-256/u2/2015-06-16/b00001764_21i7lf_20150616_144545e.jpg'
p2739
sg4
(lp2740
(g15
g6
(g18
S'\xeb8A?'
p2741
tp2742
Rp2743
tp2744
a(g68
g6
(g18
S'O[\xe5='
p2745
tp2746
Rp2747
tp2748
a(g32
g6
(g18
S'ZLB='
p2749
tp2750
Rp2751
tp2752
a(g44
g6
(g18
S'M\xbd(='
p2753
tp2754
Rp2755
tp2756
a(g56
g6
(g18
S'\x0eI\xd8<'
p2757
tp2758
Rp2759
tp2760
asg73
g15
sa(dp2761
g2
S'../../../data/emanuela/activity-recognition/images/NTCIR-Lifelog-256/u2/2015-06-16/b00001767_21i7lf_20150616_144948e.jpg'
p2762
sg4
(lp2763
(g15
g6
(g18
S'\xb7\x02y?'
p2764
tp2765
Rp2766
tp2767
a(g44
g6
(g18
S'<\xae@<'
p2768
tp2769
Rp2770
tp2771
a(g68
g6
(g18
S'\x17K(<'
p2772
tp2773
Rp2774
tp2775
a(g32
g6
(g18
S'\xd3]\x18;'
p2776
tp2777
Rp2778
tp2779
a(g56
g6
(g18
S'\x0b\xbe\xf0:'
p2780
tp2781
Rp2782
tp2783
asg73
g15
sa(dp2784
g2
S'../../../data/emanuela/activity-recognition/images/NTCIR-Lifelog-256/u2/2015-06-16/b00001759_21i7lf_20150616_143856e.jpg'
p2785
sg4
(lp2786
(g15
g6
(g18
S'&\x93\x13?'
p2787
tp2788
Rp2789
tp2790
a(g68
g6
(g18
S'\xc0\xeb\x90>'
p2791
tp2792
Rp2793
tp2794
a(g32
g6
(g18
S'\xb6F\x1b='
p2795
tp2796
Rp2797
tp2798
a(g44
g6
(g18
S'.\x1a\x0e='
p2799
tp2800
Rp2801
tp2802
a(g56
g6
(g18
S"\xd2'\xe7<"
p2803
tp2804
Rp2805
tp2806
asg73
g15
sa(dp2807
g2
S'../../../data/emanuela/activity-recognition/images/NTCIR-Lifelog-256/u2/2015-06-16/b00001545_21i7lf_20150616_093418e.jpg'
p2808
sg4
(lp2809
(g154
g6
(g18
S'|h<?'
p2810
tp2811
Rp2812
tp2813
a(g15
g6
(g18
S'\x02Jt>'
p2814
tp2815
Rp2816
tp2817
a(g68
g6
(g18
S'\x9an0<'
p2818
tp2819
Rp2820
tp2821
a(g32
g6
(g18
S'c\xf2 <'
p2822
tp2823
Rp2824
tp2825
a(g44
g6
(g18
S'Z\xc2\xe8:'
p2826
tp2827
Rp2828
tp2829
asg73
g15
sa(dp2830
g2
S'../../../data/emanuela/activity-recognition/images/NTCIR-Lifelog-256/u2/2015-06-16/b00001685_21i7lf_20150616_131746e.jpg'
p2831
sg4
(lp2832
(g56
g6
(g18
S't\xe7\x0b?'
p2833
tp2834
Rp2835
tp2836
a(g131
g6
(g18
S'"\xfff>'
p2837
tp2838
Rp2839
tp2840
a(g1919
g6
(g18
S'\xa5l\xbc='
p2841
tp2842
Rp2843
tp2844
a(g32
g6
(g18
S'<\x13j='
p2845
tp2846
Rp2847
tp2848
a(g15
g6
(g18
S'\xb3\xd1\xb8<'
p2849
tp2850
Rp2851
tp2852
asg73
g15
sa(dp2853
g2
S'../../../data/emanuela/activity-recognition/images/NTCIR-Lifelog-256/u2/2015-06-16/b00001866_21i7lf_20150616_231222e.jpg'
p2854
sg4
(lp2855
(g15
g6
(g18
S'\xb7Im?'
p2856
tp2857
Rp2858
tp2859
a(g32
g6
(g18
S"'\x88_="
p2860
tp2861
Rp2862
tp2863
a(g56
g6
(g18
S'\x95\x03\x1a<'
p2864
tp2865
Rp2866
tp2867
a(g96
g6
(g18
S'\x07\xe8\xf5:'
p2868
tp2869
Rp2870
tp2871
a(g68
g6
(g18
S'\xe5,\xf0:'
p2872
tp2873
Rp2874
tp2875
asg73
g15
sa(dp2876
g2
S'../../../data/emanuela/activity-recognition/images/NTCIR-Lifelog-256/u2/2015-06-16/b00001885_21i7lf_20150616_232343e.jpg'
p2877
sg4
(lp2878
(g15
g6
(g18
S':\x97Y?'
p2879
tp2880
Rp2881
tp2882
a(g56
g6
(g18
S'\xcf\xc5\x80='
p2883
tp2884
Rp2885
tp2886
a(g32
g6
(g18
S']?\xf6<'
p2887
tp2888
Rp2889
tp2890
a(g96
g6
(g18
S'\xdb@\x8c<'
p2891
tp2892
Rp2893
tp2894
a(g166
g6
(g18
S'\xb3\xa6O<'
p2895
tp2896
Rp2897
tp2898
asg73
g15
sa(dp2899
g2
S'../../../data/emanuela/activity-recognition/images/NTCIR-Lifelog-256/u2/2015-06-16/b00001898_21i7lf_20150616_233155e.jpg'
p2900
sg4
(lp2901
(g15
g6
(g18
S'\xacf6?'
p2902
tp2903
Rp2904
tp2905
a(g32
g6
(g18
S'9\x16Y>'
p2906
tp2907
Rp2908
tp2909
a(g56
g6
(g18
S'\xf4.!='
p2910
tp2911
Rp2912
tp2913
a(g96
g6
(g18
S'\xfa\xacf<'
p2914
tp2915
Rp2916
tp2917
a(g131
g6
(g18
S'\x03\xe4\xf6;'
p2918
tp2919
Rp2920
tp2921
asg73
g15
sa(dp2922
g2
S'../../../data/emanuela/activity-recognition/images/NTCIR-Lifelog-256/u2/2015-06-16/b00001549_21i7lf_20150616_093635e.jpg'
p2923
sg4
(lp2924
(g15
g6
(g18
S'\xbeEn?'
p2925
tp2926
Rp2927
tp2928
a(g154
g6
(g18
S'\xa2l\x1d='
p2929
tp2930
Rp2931
tp2932
a(g68
g6
(g18
S'WO\xd1<'
p2933
tp2934
Rp2935
tp2936
a(g32
g6
(g18
S'Xc\x01;'
p2937
tp2938
Rp2939
tp2940
a(g56
g6
(g18
S'\x10\xca?:'
p2941
tp2942
Rp2943
tp2944
asg73
g15
sa(dp2945
g2
S'../../../data/emanuela/activity-recognition/images/NTCIR-Lifelog-256/u2/2015-06-16/b00001727_21i7lf_20150616_135247e.jpg'
p2946
sg4
(lp2947
(g15
g6
(g18
S'\xed\xd1q?'
p2948
tp2949
Rp2950
tp2951
a(g32
g6
(g18
S'kJ\xdd<'
p2952
tp2953
Rp2954
tp2955
a(g56
g6
(g18
S'\xc6Pe<'
p2956
tp2957
Rp2958
tp2959
a(g68
g6
(g18
S'\xd21\xb1;'
p2960
tp2961
Rp2962
tp2963
a(g44
g6
(g18
S's\x00];'
p2964
tp2965
Rp2966
tp2967
asg73
g15
sa(dp2968
g2
S'../../../data/emanuela/activity-recognition/images/NTCIR-Lifelog-256/u2/2015-06-16/b00001548_21i7lf_20150616_093559e.jpg'
p2969
sg4
(lp2970
(g15
g6
(g18
S'\xa8\xd3Y?'
p2971
tp2972
Rp2973
tp2974
a(g68
g6
(g18
S'D\x0f\xe0='
p2975
tp2976
Rp2977
tp2978
a(g154
g6
(g18
S'\xafo\x0b='
p2979
tp2980
Rp2981
tp2982
a(g44
g6
(g18
S'\x1a\xaf\xff:'
p2983
tp2984
Rp2985
tp2986
a(g56
g6
(g18
S'IF\x89:'
p2987
tp2988
Rp2989
tp2990
asg73
g15
sa(dp2991
g2
S'../../../data/emanuela/activity-recognition/images/NTCIR-Lifelog-256/u2/2015-06-16/b00001581_21i7lf_20150616_095526e.jpg'
p2992
sg4
(lp2993
(g154
g6
(g18
S'\xabo\x08?'
p2994
tp2995
Rp2996
tp2997
a(g15
g6
(g18
S'=\xdd\x95>'
p2998
tp2999
Rp3000
tp3001
a(g68
g6
(g18
S'F^\xa9='
p3002
tp3003
Rp3004
tp3005
a(g44
g6
(g18
S'Si\x16='
p3006
tp3007
Rp3008
tp3009
a(g362
g6
(g18
S'\x94\xaa\x9a<'
p3010
tp3011
Rp3012
tp3013
asg73
g15
sa(dp3014
g2
S'../../../data/emanuela/activity-recognition/images/NTCIR-Lifelog-256/u2/2015-06-16/b00001537_21i7lf_20150616_092909e.jpg'
p3015
sg4
(lp3016
(g32
g6
(g18
S'Y\xe6\x84>'
p3017
tp3018
Rp3019
tp3020
a(g56
g6
(g18
S'!\x10R>'
p3021
tp3022
Rp3023
tp3024
a(g1919
g6
(g18
S'\xf0\x1dE>'
p3025
tp3026
Rp3027
tp3028
a(g131
g6
(g18
S'N\xe2\xcf='
p3029
tp3030
Rp3031
tp3032
a(g6
(g7
(S'S25'
p3033
I0
I1
tp3034
Rp3035
(I3
S'|'
p3036
NNNI25
I1
I0
tp3037
bS'having meal with somebody'
p3038
tp3039
Rp3040
g6
(g18
S'\xd9\x05>='
p3041
tp3042
Rp3043
tp3044
asg73
g15
sa(dp3045
g2
S'../../../data/emanuela/activity-recognition/images/NTCIR-Lifelog-256/u2/2015-06-16/b00001857_21i7lf_20150616_230655e.jpg'
p3046
sg4
(lp3047
(g15
g6
(g18
S'\x8aJv?'
p3048
tp3049
Rp3050
tp3051
a(g32
g6
(g18
S'\xc6u\xdd<'
p3052
tp3053
Rp3054
tp3055
a(g44
g6
(g18
S'NC\x97;'
p3056
tp3057
Rp3058
tp3059
a(g56
g6
(g18
S'[\xce\x0f;'
p3060
tp3061
Rp3062
tp3063
a(g154
g6
(g18
S'\xe0\x89\x90:'
p3064
tp3065
Rp3066
tp3067
asg73
g15
sa(dp3068
g2
S'../../../data/emanuela/activity-recognition/images/NTCIR-Lifelog-256/u2/2015-06-16/b00001756_21i7lf_20150616_143453e.jpg'
p3069
sg4
(lp3070
(g15
g6
(g18
S'\x87\xc2A?'
p3071
tp3072
Rp3073
tp3074
a(g68
g6
(g18
S'\xcb\xaf\xab='
p3075
tp3076
Rp3077
tp3078
a(g32
g6
(g18
S'/\xd6n='
p3079
tp3080
Rp3081
tp3082
a(g44
g6
(g18
S'\xd7Z\x1a='
p3083
tp3084
Rp3085
tp3086
a(g96
g6
(g18
S'\xa9\x8c\xf9<'
p3087
tp3088
Rp3089
tp3090
asg73
g15
sa(dp3091
g2
S'../../../data/emanuela/activity-recognition/images/NTCIR-Lifelog-256/u2/2015-06-16/b00001840_21i7lf_20150616_225551e.jpg'
p3092
sg4
(lp3093
(g15
g6
(g18
S'\xceAs?'
p3094
tp3095
Rp3096
tp3097
a(g32
g6
(g18
S'\xf2\xed\xb8<'
p3098
tp3099
Rp3100
tp3101
a(g56
g6
(g18
S'Z\xdf\x89<'
p3102
tp3103
Rp3104
tp3105
a(g68
g6
(g18
S'\x80\xa2B;'
p3106
tp3107
Rp3108
tp3109
a(g96
g6
(g18
S'\xbat\x10;'
p3110
tp3111
Rp3112
tp3113
asg73
g15
sa(dp3114
g2
S'../../../data/emanuela/activity-recognition/images/NTCIR-Lifelog-256/u2/2015-06-16/b00001871_21i7lf_20150616_231533e.jpg'
p3115
sg4
(lp3116
(g15
g6
(g18
S'\n\x07C?'
p3117
tp3118
Rp3119
tp3120
a(g56
g6
(g18
S'\xfc\xd1\xb4='
p3121
tp3122
Rp3123
tp3124
a(g32
g6
(g18
S'\x1c\x86\xb0='
p3125
tp3126
Rp3127
tp3128
a(g131
g6
(g18
S'\xe9#}<'
p3129
tp3130
Rp3131
tp3132
a(g362
g6
(g18
S'\x02 :<'
p3133
tp3134
Rp3135
tp3136
asg73
g15
sa(dp3137
g2
S'../../../data/emanuela/activity-recognition/images/NTCIR-Lifelog-256/u2/2015-06-16/b00001862_21i7lf_20150616_230954e.jpg'
p3138
sg4
(lp3139
(g15
g6
(g18
S'\x8app?'
p3140
tp3141
Rp3142
tp3143
a(g32
g6
(g18
S'I\x95\x03='
p3144
tp3145
Rp3146
tp3147
a(g56
g6
(g18
S'\x0b\tx<'
p3148
tp3149
Rp3150
tp3151
a(g131
g6
(g18
S'\x80\xd6Q;'
p3152
tp3153
Rp3154
tp3155
a(g96
g6
(g18
S'\xef\xff\x06;'
p3156
tp3157
Rp3158
tp3159
asg73
g15
sa(dp3160
g2
S'../../../data/emanuela/activity-recognition/images/NTCIR-Lifelog-256/u2/2015-06-16/b00001798_21i7lf_20150616_153501e.jpg'
p3161
sg4
(lp3162
(g15
g6
(g18
S'\x07\xe81?'
p3163
tp3164
Rp3165
tp3166
a(g166
g6
(g18
S'\x1b6\xbd='
p3167
tp3168
Rp3169
tp3170
a(g32
g6
(g18
S'\xd9\x90}='
p3171
tp3172
Rp3173
tp3174
a(g926
g6
(g18
S't\xe6.='
p3175
tp3176
Rp3177
tp3178
a(g56
g6
(g18
S'}\xbd\xf8<'
p3179
tp3180
Rp3181
tp3182
asg73
g15
sa(dp3183
g2
S'../../../data/emanuela/activity-recognition/images/NTCIR-Lifelog-256/u2/2015-06-16/b00001766_21i7lf_20150616_144827e.jpg'
p3184
sg4
(lp3185
(g15
g6
(g18
S'\n\xd7u?'
p3186
tp3187
Rp3188
tp3189
a(g32
g6
(g18
S'0\xc3\xcd<'
p3190
tp3191
Rp3192
tp3193
a(g68
g6
(g18
S'\xb9\x87\xe6;'
p3194
tp3195
Rp3196
tp3197
a(g44
g6
(g18
S"'Il;"
p3198
tp3199
Rp3200
tp3201
a(g56
g6
(g18
S'\xe5\x9a\xf1:'
p3202
tp3203
Rp3204
tp3205
asg73
g15
sa(dp3206
g2
S'../../../data/emanuela/activity-recognition/images/NTCIR-Lifelog-256/u2/2015-06-16/b00001863_21i7lf_20150616_231033e.jpg'
p3207
sg4
(lp3208
(g15
g6
(g18
S'NBr?'
p3209
tp3210
Rp3211
tp3212
a(g32
g6
(g18
S'\xec\x11\xd7<'
p3213
tp3214
Rp3215
tp3216
a(g56
g6
(g18
S'\xb3\xf3X<'
p3217
tp3218
Rp3219
tp3220
a(g68
g6
(g18
S'\xc6\xd8\x85;'
p3221
tp3222
Rp3223
tp3224
a(g44
g6
(g18
S'\tN\x84;'
p3225
tp3226
Rp3227
tp3228
asg73
g15
sa(dp3229
g2
S'../../../data/emanuela/activity-recognition/images/NTCIR-Lifelog-256/u2/2015-06-16/b00001584_21i7lf_20150616_095706e.jpg'
p3230
sg4
(lp3231
(g68
g6
(g18
S'\xdc\x82\x10?'
p3232
tp3233
Rp3234
tp3235
a(g15
g6
(g18
S'{\xd6\xdb>'
p3236
tp3237
Rp3238
tp3239
a(g154
g6
(g18
S'4U9;'
p3240
tp3241
Rp3242
tp3243
a(g44
g6
(g18
S'k\xbd\x85:'
p3244
tp3245
Rp3246
tp3247
a(g166
g6
(g18
S'\xb1\tU:'
p3248
tp3249
Rp3250
tp3251
asg73
g15
sa(dp3252
g2
S'../../../data/emanuela/activity-recognition/images/NTCIR-Lifelog-256/u2/2015-06-16/b00001769_21i7lf_20150616_145236e.jpg'
p3253
sg4
(lp3254
(g15
g6
(g18
S'\xe1\x1fz?'
p3255
tp3256
Rp3257
tp3258
a(g68
g6
(g18
S'\xe4\xa8l<'
p3259
tp3260
Rp3261
tp3262
a(g44
g6
(g18
S'\xe7\x89\x8c;'
p3263
tp3264
Rp3265
tp3266
a(g32
g6
(g18
S'A*\xe3:'
p3267
tp3268
Rp3269
tp3270
a(g56
g6
(g18
S'\xbf\x12\xa5:'
p3271
tp3272
Rp3273
tp3274
asg73
g15
sa(dp3275
g2
S'../../../data/emanuela/activity-recognition/images/NTCIR-Lifelog-256/u2/2015-06-16/b00001845_21i7lf_20150616_225913e.jpg'
p3276
sg4
(lp3277
(g15
g6
(g18
S'b\n}?'
p3278
tp3279
Rp3280
tp3281
a(g32
g6
(g18
S'rf&<'
p3282
tp3283
Rp3284
tp3285
a(g56
g6
(g18
S'$\xddN:'
p3286
tp3287
Rp3288
tp3289
a(g68
g6
(g18
S'U6\xe19'
p3290
tp3291
Rp3292
tp3293
a(g96
g6
(g18
S'\x0f\xfc\x928'
p3294
tp3295
Rp3296
tp3297
asg73
g15
sa(dp3298
g2
S'../../../data/emanuela/activity-recognition/images/NTCIR-Lifelog-256/u2/2015-06-16/b00001572_21i7lf_20150616_094946e.jpg'
p3299
sg4
(lp3300
(g15
g6
(g18
S'\n\xff}?'
p3301
tp3302
Rp3303
tp3304
a(g68
g6
(g18
S'\xf7\xca\xf4;'
p3305
tp3306
Rp3307
tp3308
a(g154
g6
(g18
S'\xf2\xb7\x049'
p3309
tp3310
Rp3311
tp3312
a(g32
g6
(g18
S'\xf1\x05\x7f8'
p3313
tp3314
Rp3315
tp3316
a(g56
g6
(g18
S'H\x11j8'
p3317
tp3318
Rp3319
tp3320
asg73
g15
sa(dp3321
g2
S'../../../data/emanuela/activity-recognition/images/NTCIR-Lifelog-256/u2/2015-06-16/b00001799_21i7lf_20150616_153624e.jpg'
p3322
sg4
(lp3323
(g15
g6
(g18
S'r;q?'
p3324
tp3325
Rp3326
tp3327
a(g32
g6
(g18
S'\x1f#N='
p3328
tp3329
Rp3330
tp3331
a(g56
g6
(g18
S'\xd7p\x86;'
p3332
tp3333
Rp3334
tp3335
a(g68
g6
(g18
S'\x96f\xe1:'
p3336
tp3337
Rp3338
tp3339
a(g96
g6
(g18
S'\xfcj/:'
p3340
tp3341
Rp3342
tp3343
asg73
g15
sa(dp3344
g2
S'../../../data/emanuela/activity-recognition/images/NTCIR-Lifelog-256/u2/2015-06-16/b00001843_21i7lf_20150616_225756e.jpg'
p3345
sg4
(lp3346
(g15
g6
(g18
S'\x08"a?'
p3347
tp3348
Rp3349
tp3350
a(g32
g6
(g18
S'.\x8a\xd9='
p3351
tp3352
Rp3353
tp3354
a(g56
g6
(g18
S'\xf4\xbf\x03<'
p3355
tp3356
Rp3357
tp3358
a(g68
g6
(g18
S'\x0b\x14\x80;'
p3359
tp3360
Rp3361
tp3362
a(g96
g6
(g18
S'\xa4\x8e\x9a:'
p3363
tp3364
Rp3365
tp3366
asg73
g15
sa(dp3367
g2
S'../../../data/emanuela/activity-recognition/images/NTCIR-Lifelog-256/u2/2015-06-16/b00001731_21i7lf_20150616_135831e.jpg'
p3368
sg4
(lp3369
(g15
g6
(g18
S'\x8b\xf7q?'
p3370
tp3371
Rp3372
tp3373
a(g32
g6
(g18
S':\xe7\x8f<'
p3374
tp3375
Rp3376
tp3377
a(g56
g6
(g18
S'\x0cI(<'
p3378
tp3379
Rp3380
tp3381
a(g44
g6
(g18
S'5\xa8\x0e<'
p3382
tp3383
Rp3384
tp3385
a(g96
g6
(g18
S'=\x89\x03<'
p3386
tp3387
Rp3388
tp3389
asg73
g15
sa(dp3390
g2
S'../../../data/emanuela/activity-recognition/images/NTCIR-Lifelog-256/u2/2015-06-16/b00001554_21i7lf_20150616_093923e.jpg'
p3391
sg4
(lp3392
(g154
g6
(g18
S'U\t\x11?'
p3393
tp3394
Rp3395
tp3396
a(g15
g6
(g18
S'9\x12\xb5>'
p3397
tp3398
Rp3399
tp3400
a(g68
g6
(g18
S"\xbe\xc1'="
p3401
tp3402
Rp3403
tp3404
a(g32
g6
(g18
S'x\xc7[<'
p3405
tp3406
Rp3407
tp3408
a(g44
g6
(g18
S'D\xed9<'
p3409
tp3410
Rp3411
tp3412
asg73
g15
sa(dp3413
g2
S'../../../data/emanuela/activity-recognition/images/NTCIR-Lifelog-256/u2/2015-06-16/b00001916_21i7lf_20150616_234423e.jpg'
p3414
sg4
(lp3415
(g1919
g6
(g18
S'\xe36\xcf>'
p3416
tp3417
Rp3418
tp3419
a(g2150
g6
(g18
S'\xdcYy>'
p3420
tp3421
Rp3422
tp3423
a(g56
g6
(g18
S'x\x85%>'
p3424
tp3425
Rp3426
tp3427
a(g6
(g7
(S'S7'
p3428
I0
I1
tp3429
Rp3430
(I3
S'|'
p3431
NNNI7
I1
I0
tp3432
bS'meeting'
p3433
tp3434
Rp3435
g6
(g18
S'~\x8c\t>'
p3436
tp3437
Rp3438
tp3439
a(g96
g6
(g18
S'\x9elS<'
p3440
tp3441
Rp3442
tp3443
asg73
g15
sa(dp3444
g2
S'../../../data/emanuela/activity-recognition/images/NTCIR-Lifelog-256/u2/2015-06-16/b00001707_21i7lf_20150616_133035e.jpg'
p3445
sg4
(lp3446
(g15
g6
(g18
S'S\x98\r?'
p3447
tp3448
Rp3449
tp3450
a(g32
g6
(g18
S'\x94\xfa\xdf>'
p3451
tp3452
Rp3453
tp3454
a(g96
g6
(g18
S'\x14\xady;'
p3455
tp3456
Rp3457
tp3458
a(g56
g6
(g18
S'\x94\xf2-;'
p3459
tp3460
Rp3461
tp3462
a(g44
g6
(g18
S'\xa0\xcf\xd0:'
p3463
tp3464
Rp3465
tp3466
asg73
g15
sa(dp3467
g2
S'../../../data/emanuela/activity-recognition/images/NTCIR-Lifelog-256/u2/2015-06-16/b00001895_21i7lf_20150616_233001e.jpg'
p3468
sg4
(lp3469
(g15
g6
(g18
S'\x90\xf41?'
p3470
tp3471
Rp3472
tp3473
a(g32
g6
(g18
S'\x86l\xff='
p3474
tp3475
Rp3476
tp3477
a(g56
g6
(g18
S'\xa1\x80\xc0='
p3478
tp3479
Rp3480
tp3481
a(g131
g6
(g18
S'`+\xde<'
p3482
tp3483
Rp3484
tp3485
a(g96
g6
(g18
S'\x02\x18\xa6<'
p3486
tp3487
Rp3488
tp3489
asg73
g15
sa(dp3490
g2
S'../../../data/emanuela/activity-recognition/images/NTCIR-Lifelog-256/u2/2015-06-16/b00001725_21i7lf_20150616_135000e.jpg'
p3491
sg4
(lp3492
(g15
g6
(g18
S'<p\xf9>'
p3493
tp3494
Rp3495
tp3496
a(g56
g6
(g18
S'\xb4~ >'
p3497
tp3498
Rp3499
tp3500
a(g96
g6
(g18
S'b\x1e\xd1='
p3501
tp3502
Rp3503
tp3504
a(g32
g6
(g18
S'\xc6\xfc\xb4='
p3505
tp3506
Rp3507
tp3508
a(g131
g6
(g18
S'-`6='
p3509
tp3510
Rp3511
tp3512
asg73
g15
sa(dp3513
g2
S'../../../data/emanuela/activity-recognition/images/NTCIR-Lifelog-256/u2/2015-06-16/b00001569_21i7lf_20150616_094811e.jpg'
p3514
sg4
(lp3515
(g15
g6
(g18
S'\xb9KO?'
p3516
tp3517
Rp3518
tp3519
a(g68
g6
(g18
S'\x1c-8>'
p3520
tp3521
Rp3522
tp3523
a(g44
g6
(g18
S'\xb24\xf1:'
p3524
tp3525
Rp3526
tp3527
a(g166
g6
(g18
S'\xc17\xe5:'
p3528
tp3529
Rp3530
tp3531
a(g362
g6
(g18
S'\xb7W\xce:'
p3532
tp3533
Rp3534
tp3535
asg73
g15
sa(dp3536
g2
S'../../../data/emanuela/activity-recognition/images/NTCIR-Lifelog-256/u2/2015-06-16/b00001538_21i7lf_20150616_092949e.jpg'
p3537
sg4
(lp3538
(g32
g6
(g18
S'\xf9\x90\x83>'
p3539
tp3540
Rp3541
tp3542
a(g1919
g6
(g18
S'\x8e\x88v>'
p3543
tp3544
Rp3545
tp3546
a(g56
g6
(g18
S'\xbf\x9cg>'
p3547
tp3548
Rp3549
tp3550
a(g131
g6
(g18
S'\x17D\xcc='
p3551
tp3552
Rp3553
tp3554
a(g15
g6
(g18
S'\xb2S\xb9='
p3555
tp3556
Rp3557
tp3558
asg73
g15
sa(dp3559
g2
S'../../../data/emanuela/activity-recognition/images/NTCIR-Lifelog-256/u2/2015-06-16/b00001842_21i7lf_20150616_225714e.jpg'
p3560
sg4
(lp3561
(g15
g6
(g18
S'\xb5nx?'
p3562
tp3563
Rp3564
tp3565
a(g32
g6
(g18
S'l|E<'
p3566
tp3567
Rp3568
tp3569
a(g56
g6
(g18
S'`C><'
p3570
tp3571
Rp3572
tp3573
a(g68
g6
(g18
S'\x04w\xd1:'
p3574
tp3575
Rp3576
tp3577
a(g96
g6
(g18
S'\xd6\t\xc1:'
p3578
tp3579
Rp3580
tp3581
asg73
g15
sa(dp3582
g2
S'../../../data/emanuela/activity-recognition/images/NTCIR-Lifelog-256/u2/2015-06-16/b00001728_21i7lf_20150616_135410e.jpg'
p3583
sg4
(lp3584
(g15
g6
(g18
S'\xd1\xbeI?'
p3585
tp3586
Rp3587
tp3588
a(g32
g6
(g18
S'\xb1\x0e\x0e>'
p3589
tp3590
Rp3591
tp3592
a(g56
g6
(g18
S'\xc2\xe2\xd7<'
p3593
tp3594
Rp3595
tp3596
a(g44
g6
(g18
S'\xbd\x93}<'
p3597
tp3598
Rp3599
tp3600
a(g131
g6
(g18
S'\x17\xba\x1c<'
p3601
tp3602
Rp3603
tp3604
asg73
g15
sa(dp3605
g2
S'../../../data/emanuela/activity-recognition/images/NTCIR-Lifelog-256/u2/2015-06-16/b00001812_21i7lf_20150616_223630e.jpg'
p3606
sg4
(lp3607
(g131
g6
(g18
S'\xaf\x02\x1f?'
p3608
tp3609
Rp3610
tp3611
a(g56
g6
(g18
S'?31>'
p3612
tp3613
Rp3614
tp3615
a(g166
g6
(g18
S'Hl\x8a='
p3616
tp3617
Rp3618
tp3619
a(g15
g6
(g18
S'\xef\x8cQ='
p3620
tp3621
Rp3622
tp3623
a(g926
g6
(g18
S'\x9b\xab\xe5<'
p3624
tp3625
Rp3626
tp3627
asg73
g15
sa(dp3628
g2
S'../../../data/emanuela/activity-recognition/images/NTCIR-Lifelog-256/u2/2015-06-16/b00001827_21i7lf_20150616_224730e.jpg'
p3629
sg4
(lp3630
(g15
g6
(g18
S'\xc6\xc4r?'
p3631
tp3632
Rp3633
tp3634
a(g32
g6
(g18
S'<~\x1c='
p3635
tp3636
Rp3637
tp3638
a(g56
g6
(g18
S'\xa6d\xb8;'
p3639
tp3640
Rp3641
tp3642
a(g68
g6
(g18
S'\xc8\x16\xad;'
p3643
tp3644
Rp3645
tp3646
a(g44
g6
(g18
S'\xa1\x94\x90:'
p3647
tp3648
Rp3649
tp3650
asg73
g15
sa(dp3651
g2
S'../../../data/emanuela/activity-recognition/images/NTCIR-Lifelog-256/u2/2015-06-16/b00001779_21i7lf_20150616_150648e.jpg'
p3652
sg4
(lp3653
(g15
g6
(g18
S'Y\xfdx?'
p3654
tp3655
Rp3656
tp3657
a(g32
g6
(g18
S']ow<'
p3658
tp3659
Rp3660
tp3661
a(g96
g6
(g18
S'9(h;'
p3662
tp3663
Rp3664
tp3665
a(g68
g6
(g18
S'.T/;'
p3666
tp3667
Rp3668
tp3669
a(g56
g6
(g18
S'\x98\xce&;'
p3670
tp3671
Rp3672
tp3673
asg73
g15
sa(dp3674
g2
S'../../../data/emanuela/activity-recognition/images/NTCIR-Lifelog-256/u2/2015-06-16/b00001818_21i7lf_20150616_224544e.jpg'
p3675
sg4
(lp3676
(g15
g6
(g18
S'\xaa\x19u?'
p3677
tp3678
Rp3679
tp3680
a(g56
g6
(g18
S'5o\x91<'
p3681
tp3682
Rp3683
tp3684
a(g32
g6
(g18
S'\x9b\xb3X<'
p3685
tp3686
Rp3687
tp3688
a(g44
g6
(g18
S'\xdbaj;'
p3689
tp3690
Rp3691
tp3692
a(g68
g6
(g18
S'\x00\xe2];'
p3693
tp3694
Rp3695
tp3696
asg73
g15
sa(dp3697
g2
S'../../../data/emanuela/activity-recognition/images/NTCIR-Lifelog-256/u2/2015-06-16/b00001877_21i7lf_20150616_231909e.jpg'
p3698
sg4
(lp3699
(g15
g6
(g18
S'\xec\xeaB?'
p3700
tp3701
Rp3702
tp3703
a(g32
g6
(g18
S'\x18\xe3\xff='
p3704
tp3705
Rp3706
tp3707
a(g56
g6
(g18
S'-Hk='
p3708
tp3709
Rp3710
tp3711
a(g44
g6
(g18
S'\x1bE\xe8<'
p3712
tp3713
Rp3714
tp3715
a(g68
g6
(g18
S'\xff5\xd9;'
p3716
tp3717
Rp3718
tp3719
asg73
g15
sa(dp3720
g2
S'../../../data/emanuela/activity-recognition/images/NTCIR-Lifelog-256/u2/2015-06-16/b00001587_21i7lf_20150616_095849e.jpg'
p3721
sg4
(lp3722
(g15
g6
(g18
S'@~S?'
p3723
tp3724
Rp3725
tp3726
a(g68
g6
(g18
S'\xc4\x17.>'
p3727
tp3728
Rp3729
tp3730
a(g154
g6
(g18
S'\x19Q\x84:'
p3731
tp3732
Rp3733
tp3734
a(g458
g6
(g18
S'\xb0\x1es:'
p3735
tp3736
Rp3737
tp3738
a(g166
g6
(g18
S'\xf93\x04:'
p3739
tp3740
Rp3741
tp3742
asg73
g15
sa(dp3743
g2
S'../../../data/emanuela/activity-recognition/images/NTCIR-Lifelog-256/u2/2015-06-16/b00001567_21i7lf_20150616_094658e.jpg'
p3744
sg4
(lp3745
(g15
g6
(g18
S'\x04\nw?'
p3746
tp3747
Rp3748
tp3749
a(g154
g6
(g18
S'\x89\xd3\xd4<'
p3750
tp3751
Rp3752
tp3753
a(g68
g6
(g18
S'\xdf\x92\xe8;'
p3754
tp3755
Rp3756
tp3757
a(g44
g6
(g18
S'\xd7b\x04:'
p3758
tp3759
Rp3760
tp3761
a(g32
g6
(g18
S'2.\x04:'
p3762
tp3763
Rp3764
tp3765
asg73
g15
sa(dp3766
g2
S'../../../data/emanuela/activity-recognition/images/NTCIR-Lifelog-256/u2/2015-06-16/b00001846_21i7lf_20150616_225953e.jpg'
p3767
sg4
(lp3768
(g15
g6
(g18
S'\xd90}?'
p3769
tp3770
Rp3771
tp3772
a(g32
g6
(g18
S'F\x9c\xc1;'
p3773
tp3774
Rp3775
tp3776
a(g56
g6
(g18
S'\rJN;'
p3777
tp3778
Rp3779
tp3780
a(g68
g6
(g18
S'\x87\x14S:'
p3781
tp3782
Rp3783
tp3784
a(g96
g6
(g18
S'\xb1\n\xc89'
p3785
tp3786
Rp3787
tp3788
asg73
g15
sa(dp3789
g2
S'../../../data/emanuela/activity-recognition/images/NTCIR-Lifelog-256/u2/2015-06-16/b00001736_21i7lf_20150616_140548e.jpg'
p3790
sg4
(lp3791
(g15
g6
(g18
S'J.f?'
p3792
tp3793
Rp3794
tp3795
a(g32
g6
(g18
S'=\x97@='
p3796
tp3797
Rp3798
tp3799
a(g56
g6
(g18
S'\x84\xc2\xe2<'
p3800
tp3801
Rp3802
tp3803
a(g68
g6
(g18
S'\xcd\xc7A<'
p3804
tp3805
Rp3806
tp3807
a(g96
g6
(g18
S'\xf43\xc2;'
p3808
tp3809
Rp3810
tp3811
asg73
g15
sa(dp3812
g2
S'../../../data/emanuela/activity-recognition/images/NTCIR-Lifelog-256/u2/2015-06-16/b00001788_21i7lf_20150616_151856e.jpg'
p3813
sg4
(lp3814
(g15
g6
(g18
S'\xe6di?'
p3815
tp3816
Rp3817
tp3818
a(g32
g6
(g18
S'\x90\x12c='
p3819
tp3820
Rp3821
tp3822
a(g56
g6
(g18
S'\xd7hH<'
p3823
tp3824
Rp3825
tp3826
a(g96
g6
(g18
S'\xeb\xd8\xef;'
p3827
tp3828
Rp3829
tp3830
a(g68
g6
(g18
S'[\xcc\x95;'
p3831
tp3832
Rp3833
tp3834
asg73
g15
sa(dp3835
g2
S'../../../data/emanuela/activity-recognition/images/NTCIR-Lifelog-256/u2/2015-06-16/b00001711_21i7lf_20150616_133305e.jpg'
p3836
sg4
(lp3837
(g15
g6
(g18
S'Z\x0fe?'
p3838
tp3839
Rp3840
tp3841
a(g32
g6
(g18
S'}k\xc0='
p3842
tp3843
Rp3844
tp3845
a(g96
g6
(g18
S'\x82|\x8b;'
p3846
tp3847
Rp3848
tp3849
a(g44
g6
(g18
S'\x191\x86;'
p3850
tp3851
Rp3852
tp3853
a(g56
g6
(g18
S'\x95\xaa\xe9:'
p3854
tp3855
Rp3856
tp3857
asg73
g15
sa(dp3858
g2
S'../../../data/emanuela/activity-recognition/images/NTCIR-Lifelog-256/u2/2015-06-16/b00001797_21i7lf_20150616_153336e.jpg'
p3859
sg4
(lp3860
(g15
g6
(g18
S'Y\x19U?'
p3861
tp3862
Rp3863
tp3864
a(g32
g6
(g18
S'\xa2\x9b\x0b>'
p3865
tp3866
Rp3867
tp3868
a(g56
g6
(g18
S'\xae\x0fk<'
p3869
tp3870
Rp3871
tp3872
a(g68
g6
(g18
S'\x1d\xccT;'
p3873
tp3874
Rp3875
tp3876
a(g96
g6
(g18
S'\xdeq0;'
p3877
tp3878
Rp3879
tp3880
asg73
g15
sa(dp3881
g2
S'../../../data/emanuela/activity-recognition/images/NTCIR-Lifelog-256/u2/2015-06-16/b00001551_21i7lf_20150616_093738e.jpg'
p3882
sg4
(lp3883
(g15
g6
(g18
S'\xcb\x97U?'
p3884
tp3885
Rp3886
tp3887
a(g68
g6
(g18
S'>\xe9\r>'
p3888
tp3889
Rp3890
tp3891
a(g154
g6
(g18
S'cz\x87<'
p3892
tp3893
Rp3894
tp3895
a(g32
g6
(g18
S'\xc4\x94{;'
p3896
tp3897
Rp3898
tp3899
a(g44
g6
(g18
S'\xf9\x08/;'
p3900
tp3901
Rp3902
tp3903
asg73
g15
sa(dp3904
g2
S'../../../data/emanuela/activity-recognition/images/NTCIR-Lifelog-256/u2/2015-06-16/b00001907_21i7lf_20150616_233736e.jpg'
p3905
sg4
(lp3906
(g15
g6
(g18
S'\x86\x7f\xbf>'
p3907
tp3908
Rp3909
tp3910
a(g131
g6
(g18
S'\x1e\xfa\xa0>'
p3911
tp3912
Rp3913
tp3914
a(g56
g6
(g18
S'\xac\xd6D>'
p3915
tp3916
Rp3917
tp3918
a(g32
g6
(g18
S'\x80}\x8d='
p3919
tp3920
Rp3921
tp3922
a(g96
g6
(g18
S'\x07]\xc3<'
p3923
tp3924
Rp3925
tp3926
asg73
g15
sa(dp3927
g2
S'../../../data/emanuela/activity-recognition/images/NTCIR-Lifelog-256/u2/2015-06-16/b00001820_21i7lf_20150616_224727e.jpg'
p3928
sg4
(lp3929
(g15
g6
(g18
S'\xbb\xb2v?'
p3930
tp3931
Rp3932
tp3933
a(g32
g6
(g18
S'\xad\xcd\xa1<'
p3934
tp3935
Rp3936
tp3937
a(g56
g6
(g18
S'!%\xde;'
p3938
tp3939
Rp3940
tp3941
a(g68
g6
(g18
S'+\xc9u;'
p3942
tp3943
Rp3944
tp3945
a(g44
g6
(g18
S'\xc2-d;'
p3946
tp3947
Rp3948
tp3949
asg73
g15
sa(dp3950
g2
S'../../../data/emanuela/activity-recognition/images/NTCIR-Lifelog-256/u2/2015-06-16/b00001708_21i7lf_20150616_133114e.jpg'
p3951
sg4
(lp3952
(g15
g6
(g18
S'\xe63C?'
p3953
tp3954
Rp3955
tp3956
a(g32
g6
(g18
S'\xc4\xcf8>'
p3957
tp3958
Rp3959
tp3960
a(g44
g6
(g18
S'Lu\xcb<'
p3961
tp3962
Rp3963
tp3964
a(g68
g6
(g18
S'\x02/N<'
p3965
tp3966
Rp3967
tp3968
a(g56
g6
(g18
S'7{\x14<'
p3969
tp3970
Rp3971
tp3972
asg73
g15
sa(dp3973
g2
S'../../../data/emanuela/activity-recognition/images/NTCIR-Lifelog-256/u2/2015-06-16/b00001900_21i7lf_20150616_233309e.jpg'
p3974
sg4
(lp3975
(g15
g6
(g18
S'\xb3\x827?'
p3976
tp3977
Rp3978
tp3979
a(g32
g6
(g18
S'\xc3\x93\xcb='
p3980
tp3981
Rp3982
tp3983
a(g56
g6
(g18
S'\xeb\xd4\xab='
p3984
tp3985
Rp3986
tp3987
a(g96
g6
(g18
S'q\x90\xcb<'
p3988
tp3989
Rp3990
tp3991
a(g166
g6
(g18
S'\xf84\xc9<'
p3992
tp3993
Rp3994
tp3995
asg73
g15
sa(dp3996
g2
S'../../../data/emanuela/activity-recognition/images/NTCIR-Lifelog-256/u2/2015-06-16/b00001856_21i7lf_20150616_230616e (1).jpg'
p3997
sg4
(lp3998
(g15
g6
(g18
S'4\xb3v?'
p3999
tp4000
Rp4001
tp4002
a(g32
g6
(g18
S'\xee\xd0\xf8<'
p4003
tp4004
Rp4005
tp4006
a(g56
g6
(g18
S'\xbaVH;'
p4007
tp4008
Rp4009
tp4010
a(g44
g6
(g18
S'\xc1ba:'
p4011
tp4012
Rp4013
tp4014
a(g166
g6
(g18
S'E\x84\xf19'
p4015
tp4016
Rp4017
tp4018
asg73
g15
sa(dp4019
g2
S'../../../data/emanuela/activity-recognition/images/NTCIR-Lifelog-256/u2/2015-06-16/b00001770_21i7lf_20150616_145357e.jpg'
p4020
sg4
(lp4021
(g15
g6
(g18
S'\x03\xd8p?'
p4022
tp4023
Rp4024
tp4025
a(g68
g6
(g18
S'\xdc\x80T='
p4026
tp4027
Rp4028
tp4029
a(g44
g6
(g18
S'r(\xa3;'
p4030
tp4031
Rp4032
tp4033
a(g32
g6
(g18
S'e\xdb\x9f:'
p4034
tp4035
Rp4036
tp4037
a(g96
g6
(g18
S'U \x16:'
p4038
tp4039
Rp4040
tp4041
asg73
g15
sa(dp4042
g2
S'../../../data/emanuela/activity-recognition/images/NTCIR-Lifelog-256/u2/2015-06-16/b00001777_21i7lf_20150616_150358e.jpg'
p4043
sg4
(lp4044
(g15
g6
(g18
S'\x97\xd6|?'
p4045
tp4046
Rp4047
tp4048
a(g68
g6
(g18
S'\xab\x8f|;'
p4049
tp4050
Rp4051
tp4052
a(g32
g6
(g18
S'\xe1\x9e/;'
p4053
tp4054
Rp4055
tp4056
a(g96
g6
(g18
S'\xde&\xec:'
p4057
tp4058
Rp4059
tp4060
a(g56
g6
(g18
S'J\xe4\xe2:'
p4061
tp4062
Rp4063
tp4064
asg73
g15
sa(dp4065
g2
S'../../../data/emanuela/activity-recognition/images/NTCIR-Lifelog-256/u2/2015-06-16/b00001763_21i7lf_20150616_144424e.jpg'
p4066
sg4
(lp4067
(g15
g6
(g18
S'\x03\x04k?'
p4068
tp4069
Rp4070
tp4071
a(g68
g6
(g18
S'\xffZ\xf3<'
p4072
tp4073
Rp4074
tp4075
a(g32
g6
(g18
S'\x84\x1e\xf3<'
p4076
tp4077
Rp4078
tp4079
a(g44
g6
(g18
S'$\x04M<'
p4080
tp4081
Rp4082
tp4083
a(g56
g6
(g18
S'\xf0\xa3\xa3;'
p4084
tp4085
Rp4086
tp4087
asg73
g15
sa(dp4088
g2
S'../../../data/emanuela/activity-recognition/images/NTCIR-Lifelog-256/u2/2015-06-16/b00001751_21i7lf_20150616_142751e.jpg'
p4089
sg4
(lp4090
(g15
g6
(g18
S'\xb0\xadu?'
p4091
tp4092
Rp4093
tp4094
a(g32
g6
(g18
S'fh\x89<'
p4095
tp4096
Rp4097
tp4098
a(g56
g6
(g18
S'H\x0b\x85<'
p4099
tp4100
Rp4101
tp4102
a(g68
g6
(g18
S'\xcb\xa1#;'
p4103
tp4104
Rp4105
tp4106
a(g166
g6
(g18
S'F]\xdc:'
p4107
tp4108
Rp4109
tp4110
asg73
g15
sa(dp4111
g2
S'../../../data/emanuela/activity-recognition/images/NTCIR-Lifelog-256/u2/2015-06-16/b00001835_21i7lf_20150616_225213e.jpg'
p4112
sg4
(lp4113
(g15
g6
(g18
S'?ou?'
p4114
tp4115
Rp4116
tp4117
a(g32
g6
(g18
S'}o\x98<'
p4118
tp4119
Rp4120
tp4121
a(g56
g6
(g18
S'\x1b\x1dW<'
p4122
tp4123
Rp4124
tp4125
a(g44
g6
(g18
S'\xcd\xd8\x1f;'
p4126
tp4127
Rp4128
tp4129
a(g131
g6
(g18
S'h"\xe7:'
p4130
tp4131
Rp4132
tp4133
asg73
g15
sa(dp4134
g2
S'../../../data/emanuela/activity-recognition/images/NTCIR-Lifelog-256/u2/2015-06-16/b00001761_21i7lf_20150616_144142e.jpg'
p4135
sg4
(lp4136
(g15
g6
(g18
S'e\xfaa?'
p4137
tp4138
Rp4139
tp4140
a(g68
g6
(g18
S'\xb6n\x8c='
p4141
tp4142
Rp4143
tp4144
a(g32
g6
(g18
S'\x18P\xac<'
p4145
tp4146
Rp4147
tp4148
a(g56
g6
(g18
S'0\xc9$<'
p4149
tp4150
Rp4151
tp4152
a(g44
g6
(g18
S'Cl\x17<'
p4153
tp4154
Rp4155
tp4156
asg73
g15
sa(dp4157
g2
S'../../../data/emanuela/activity-recognition/images/NTCIR-Lifelog-256/u2/2015-06-16/b00001754_21i7lf_20150616_143203e.jpg'
p4158
sg4
(lp4159
(g15
g6
(g18
S'5\xaaN?'
p4160
tp4161
Rp4162
tp4163
a(g32
g6
(g18
S'\x03|\x05>'
p4164
tp4165
Rp4166
tp4167
a(g56
g6
(g18
S'\x05\xb9\xd2<'
p4168
tp4169
Rp4170
tp4171
a(g44
g6
(g18
S'\x90RB<'
p4172
tp4173
Rp4174
tp4175
a(g96
g6
(g18
S'>\xf2\x1d<'
p4176
tp4177
Rp4178
tp4179
asg73
g15
sa(dp4180
g2
S'../../../data/emanuela/activity-recognition/images/NTCIR-Lifelog-256/u2/2015-06-16/b00001722_21i7lf_20150616_134534e.jpg'
p4181
sg4
(lp4182
(g15
g6
(g18
S'\xd5\xfb\x01?'
p4183
tp4184
Rp4185
tp4186
a(g32
g6
(g18
S'8\xa8\xf5>'
p4187
tp4188
Rp4189
tp4190
a(g68
g6
(g18
S'\x0fxp;'
p4191
tp4192
Rp4193
tp4194
a(g44
g6
(g18
S'\n\x14d;'
p4195
tp4196
Rp4197
tp4198
a(g56
g6
(g18
S'\xdf=\x0e;'
p4199
tp4200
Rp4201
tp4202
asg73
g15
sa(dp4203
g2
S'../../../data/emanuela/activity-recognition/images/NTCIR-Lifelog-256/u2/2015-06-16/b00001565_21i7lf_20150616_094548e.jpg'
p4204
sg4
(lp4205
(g15
g6
(g18
S'\x80\x92W?'
p4206
tp4207
Rp4208
tp4209
a(g68
g6
(g18
S'\x8d\x84\n>'
p4210
tp4211
Rp4212
tp4213
a(g154
g6
(g18
S'\x98\xe7b<'
p4214
tp4215
Rp4216
tp4217
a(g44
g6
(g18
S'\xca\x11E;'
p4218
tp4219
Rp4220
tp4221
a(g166
g6
(g18
S'@\xb8\xee:'
p4222
tp4223
Rp4224
tp4225
asg73
g15
sa(dp4226
g2
S'../../../data/emanuela/activity-recognition/images/NTCIR-Lifelog-256/u2/2015-06-16/b00001543_21i7lf_20150616_093303e.jpg'
p4227
sg4
(lp4228
(g68
g6
(g18
S'1`=?'
p4229
tp4230
Rp4231
tp4232
a(g15
g6
(g18
S'\x80f\xd6='
p4233
tp4234
Rp4235
tp4236
a(g166
g6
(g18
S'\xf2\xe5\x95='
p4237
tp4238
Rp4239
tp4240
a(g154
g6
(g18
S'\x7f(\xa1<'
p4241
tp4242
Rp4243
tp4244
a(g131
g6
(g18
S'\xab\x07m<'
p4245
tp4246
Rp4247
tp4248
asg73
g15
sa(dp4249
g2
S'../../../data/emanuela/activity-recognition/images/NTCIR-Lifelog-256/u2/2015-06-16/b00001726_21i7lf_20150616_135122e.jpg'
p4250
sg4
(lp4251
(g15
g6
(g18
S't\xe6p?'
p4252
tp4253
Rp4254
tp4255
a(g32
g6
(g18
S'\xe2\xc5\xef<'
p4256
tp4257
Rp4258
tp4259
a(g68
g6
(g18
S')\x0e6<'
p4260
tp4261
Rp4262
tp4263
a(g56
g6
(g18
S'd\x9d-<'
p4264
tp4265
Rp4266
tp4267
a(g96
g6
(g18
S'\x16=V;'
p4268
tp4269
Rp4270
tp4271
asg73
g15
sa(dp4272
g2
S'../../../data/emanuela/activity-recognition/images/NTCIR-Lifelog-256/u2/2015-06-16/b00001588_21i7lf_20150616_095920e.jpg'
p4273
sg4
(lp4274
(g15
g6
(g18
S'd\xd0b?'
p4275
tp4276
Rp4277
tp4278
a(g68
g6
(g18
S'\xc3\xae\xe2='
p4279
tp4280
Rp4281
tp4282
a(g154
g6
(g18
S'\x07\xe7\x97:'
p4283
tp4284
Rp4285
tp4286
a(g926
g6
(g18
S'\x8f\xe1\xf39'
p4287
tp4288
Rp4289
tp4290
a(g458
g6
(g18
S"'\xb5\xde9"
p4291
tp4292
Rp4293
tp4294
asg73
g15
sa(dp4295
g2
S'../../../data/emanuela/activity-recognition/images/NTCIR-Lifelog-256/u2/2015-06-16/b00001902_21i7lf_20150616_233428e.jpg'
p4296
sg4
(lp4297
(g15
g6
(g18
S'\xf4vs?'
p4298
tp4299
Rp4300
tp4301
a(g32
g6
(g18
S'pO\xb0<'
p4302
tp4303
Rp4304
tp4305
a(g56
g6
(g18
S'\x95\xf65<'
p4306
tp4307
Rp4308
tp4309
a(g166
g6
(g18
S'\xccb\x99;'
p4310
tp4311
Rp4312
tp4313
a(g96
g6
(g18
S'\x81p\x8c;'
p4314
tp4315
Rp4316
tp4317
asg73
g15
sa(dp4318
g2
S'../../../data/emanuela/activity-recognition/images/NTCIR-Lifelog-256/u2/2015-06-16/b00001689_21i7lf_20150616_132017e.jpg'
p4319
sg4
(lp4320
(g15
g6
(g18
S'\xfb\xb5P?'
p4321
tp4322
Rp4323
tp4324
a(g32
g6
(g18
S'@p\xe2='
p4325
tp4326
Rp4327
tp4328
a(g44
g6
(g18
S'|g\xd6<'
p4329
tp4330
Rp4331
tp4332
a(g56
g6
(g18
S's\xe9\x98<'
p4333
tp4334
Rp4335
tp4336
a(g68
g6
(g18
S'\xf6wQ<'
p4337
tp4338
Rp4339
tp4340
asg73
g15
sa(dp4341
g2
S'../../../data/emanuela/activity-recognition/images/NTCIR-Lifelog-256/u2/2015-06-16/b00001872_21i7lf_20150616_231613e.jpg'
p4342
sg4
(lp4343
(g15
g6
(g18
S'g:N?'
p4344
tp4345
Rp4346
tp4347
a(g44
g6
(g18
S'\xf4\xd7d='
p4348
tp4349
Rp4350
tp4351
a(g154
g6
(g18
S'\x87\xa2+='
p4352
tp4353
Rp4354
tp4355
a(g32
g6
(g18
S'\rm\n='
p4356
tp4357
Rp4358
tp4359
a(g56
g6
(g18
S'C\x9d\xbb<'
p4360
tp4361
Rp4362
tp4363
asg73
g15
sa(dp4364
g2
S'../../../data/emanuela/activity-recognition/images/NTCIR-Lifelog-256/u2/2015-06-16/b00001831_21i7lf_20150616_224933e.jpg'
p4365
sg4
(lp4366
(g44
g6
(g18
S'5\x88<?'
p4367
tp4368
Rp4369
tp4370
a(g15
g6
(g18
S'\x95@\x1b>'
p4371
tp4372
Rp4373
tp4374
a(g68
g6
(g18
S'\xacb\xcd<'
p4375
tp4376
Rp4377
tp4378
a(g96
g6
(g18
S'\xce\t\xc9<'
p4379
tp4380
Rp4381
tp4382
a(g56
g6
(g18
S'\xee\xd0\x8e<'
p4383
tp4384
Rp4385
tp4386
asg73
g15
sa(dp4387
g2
S'../../../data/emanuela/activity-recognition/images/NTCIR-Lifelog-256/u2/2015-06-16/b00001774_21i7lf_20150616_145939e.jpg'
p4388
sg4
(lp4389
(g15
g6
(g18
S'\xf1So?'
p4390
tp4391
Rp4392
tp4393
a(g68
g6
(g18
S'\xedc0='
p4394
tp4395
Rp4396
tp4397
a(g44
g6
(g18
S'\xc6\xdf:<'
p4398
tp4399
Rp4400
tp4401
a(g166
g6
(g18
S'\x1e\x80D;'
p4402
tp4403
Rp4404
tp4405
a(g56
g6
(g18
S'\xe3\x0f\x07;'
p4406
tp4407
Rp4408
tp4409
asg73
g15
sa(dp4410
g2
S'../../../data/emanuela/activity-recognition/images/NTCIR-Lifelog-256/u2/2015-06-16/b00001702_21i7lf_20150616_132800e.jpg'
p4411
sg4
(lp4412
(g15
g6
(g18
S'\xbd$h?'
p4413
tp4414
Rp4415
tp4416
a(g32
g6
(g18
S'\x98_\xb4='
p4417
tp4418
Rp4419
tp4420
a(g96
g6
(g18
S'&\xbe\xd7:'
p4421
tp4422
Rp4423
tp4424
a(g56
g6
(g18
S'\x8f\xf6\xd1:'
p4425
tp4426
Rp4427
tp4428
a(g44
g6
(g18
S'9\x18\x87:'
p4429
tp4430
Rp4431
tp4432
asg73
g15
sa(dp4433
g2
S'../../../data/emanuela/activity-recognition/images/NTCIR-Lifelog-256/u2/2015-06-16/b00001841_21i7lf_20150616_225635e.jpg'
p4434
sg4
(lp4435
(g15
g6
(g18
S'\x90\xc7y?'
p4436
tp4437
Rp4438
tp4439
a(g32
g6
(g18
S'\xb2\xde\x90<'
p4440
tp4441
Rp4442
tp4443
a(g56
g6
(g18
S'\xbf0z;'
p4444
tp4445
Rp4446
tp4447
a(g68
g6
(g18
S'\xb8\xa6\xd1:'
p4448
tp4449
Rp4450
tp4451
a(g96
g6
(g18
S'\xaeo&:'
p4452
tp4453
Rp4454
tp4455
asg73
g15
sa(dp4456
g2
S'../../../data/emanuela/activity-recognition/images/NTCIR-Lifelog-256/u2/2015-06-16/b00001823_21i7lf_20150616_224729e.jpg'
p4457
sg4
(lp4458
(g15
g6
(g18
S'j\xe2x?'
p4459
tp4460
Rp4461
tp4462
a(g32
g6
(g18
S'\xe5\x99\x99<'
p4463
tp4464
Rp4465
tp4466
a(g56
g6
(g18
S"x'\x8b;"
p4467
tp4468
Rp4469
tp4470
a(g68
g6
(g18
S'\x1f\xa5\xd9:'
p4471
tp4472
Rp4473
tp4474
a(g44
g6
(g18
S'\x06b\xbd:'
p4475
tp4476
Rp4477
tp4478
asg73
g15
sa(dp4479
g2
S'../../../data/emanuela/activity-recognition/images/NTCIR-Lifelog-256/u2/2015-06-16/b00001834_21i7lf_20150616_225134e.jpg'
p4480
sg4
(lp4481
(g15
g6
(g18
S'\xe8\xafw?'
p4482
tp4483
Rp4484
tp4485
a(g32
g6
(g18
S',\x9d\xb0<'
p4486
tp4487
Rp4488
tp4489
a(g56
g6
(g18
S'\xb5a\xe9;'
p4490
tp4491
Rp4492
tp4493
a(g96
g6
(g18
S'p\xcc\x81:'
p4494
tp4495
Rp4496
tp4497
a(g131
g6
(g18
S'\xfa\xbf#:'
p4498
tp4499
Rp4500
tp4501
asg73
g15
sa(dp4502
g2
S'../../../data/emanuela/activity-recognition/images/NTCIR-Lifelog-256/u2/2015-06-16/b00001849_21i7lf_20150616_230150e.jpg'
p4503
sg4
(lp4504
(g15
g6
(g18
S'J\xd2s?'
p4505
tp4506
Rp4507
tp4508
a(g32
g6
(g18
S'\xdcN\x9e<'
p4509
tp4510
Rp4511
tp4512
a(g56
g6
(g18
S'G\x9e\x8e<'
p4513
tp4514
Rp4515
tp4516
a(g96
g6
(g18
S'?ju;'
p4517
tp4518
Rp4519
tp4520
a(g131
g6
(g18
S'\xdf\x1e\x05;'
p4521
tp4522
Rp4523
tp4524
asg73
g15
sa(dp4525
g2
S'../../../data/emanuela/activity-recognition/images/NTCIR-Lifelog-256/u2/2015-06-16/b00001691_21i7lf_20150616_132131e.jpg'
p4526
sg4
(lp4527
(g15
g6
(g18
S'\x00\xa4~?'
p4528
tp4529
Rp4530
tp4531
a(g32
g6
(g18
S'\xbb\xaf=;'
p4532
tp4533
Rp4534
tp4535
a(g44
g6
(g18
S'\x97W\x9c:'
p4536
tp4537
Rp4538
tp4539
a(g68
g6
(g18
S'\x90\x92\xf29'
p4540
tp4541
Rp4542
tp4543
a(g56
g6
(g18
S'F\\\x969'
p4544
tp4545
Rp4546
tp4547
asg73
g15
sa(dp4548
g2
S'../../../data/emanuela/activity-recognition/images/NTCIR-Lifelog-256/u2/2015-06-16/b00001765_21i7lf_20150616_144706e.jpg'
p4549
sg4
(lp4550
(g15
g6
(g18
S'(\x93i?'
p4551
tp4552
Rp4553
tp4554
a(g68
g6
(g18
S'\xa6\xe8N='
p4555
tp4556
Rp4557
tp4558
a(g32
g6
(g18
S'LG\x82<'
p4559
tp4560
Rp4561
tp4562
a(g44
g6
(g18
S'\xfbF\x0e<'
p4563
tp4564
Rp4565
tp4566
a(g56
g6
(g18
S'\x08}\x0b<'
p4567
tp4568
Rp4569
tp4570
asg73
g15
sa(dp4571
g2
S'../../../data/emanuela/activity-recognition/images/NTCIR-Lifelog-256/u2/2015-06-16/b00001832_21i7lf_20150616_225014e.jpg'
p4572
sg4
(lp4573
(g15
g6
(g18
S'\x8b\xd0}?'
p4574
tp4575
Rp4576
tp4577
a(g32
g6
(g18
S'\x89\xf4o;'
p4578
tp4579
Rp4580
tp4581
a(g56
g6
(g18
S'vcT;'
p4582
tp4583
Rp4584
tp4585
a(g68
g6
(g18
S'N!\x03:'
p4586
tp4587
Rp4588
tp4589
a(g96
g6
(g18
S'Wa\xb59'
p4590
tp4591
Rp4592
tp4593
asg73
g15
sa(dp4594
g2
S'../../../data/emanuela/activity-recognition/images/NTCIR-Lifelog-256/u2/2015-06-16/b00001856_21i7lf_20150616_230616e.jpg'
p4595
sg4
(lp4596
(g15
g6
(g18
S'4\xb3v?'
p4597
tp4598
Rp4599
tp4600
a(g32
g6
(g18
S'\xee\xd0\xf8<'
p4601
tp4602
Rp4603
tp4604
a(g56
g6
(g18
S'\xbaVH;'
p4605
tp4606
Rp4607
tp4608
a(g44
g6
(g18
S'\xc1ba:'
p4609
tp4610
Rp4611
tp4612
a(g166
g6
(g18
S'E\x84\xf19'
p4613
tp4614
Rp4615
tp4616
asg73
g15
sa(dp4617
g2
S'../../../data/emanuela/activity-recognition/images/NTCIR-Lifelog-256/u2/2015-06-16/b00001553_21i7lf_20150616_093850e.jpg'
p4618
sg4
(lp4619
(g15
g6
(g18
S'\x95\xfaZ?'
p4620
tp4621
Rp4622
tp4623
a(g68
g6
(g18
S'\xe4\t\xfa='
p4624
tp4625
Rp4626
tp4627
a(g166
g6
(g18
S'00\x0b<'
p4628
tp4629
Rp4630
tp4631
a(g131
g6
(g18
S',\xfb\x86;'
p4632
tp4633
Rp4634
tp4635
a(g926
g6
(g18
S'>\xdf!;'
p4636
tp4637
Rp4638
tp4639
asg73
g15
sa(dp4640
g2
S'../../../data/emanuela/activity-recognition/images/NTCIR-Lifelog-256/u2/2015-06-16/b00001603_21i7lf_20150616_100813e.jpg'
p4641
sg4
(lp4642
(g68
g6
(g18
S'm\xe5v?'
p4643
tp4644
Rp4645
tp4646
a(g15
g6
(g18
S"j'\x9f<"
p4647
tp4648
Rp4649
tp4650
a(g166
g6
(g18
S'u\xd4\xf1;'
p4651
tp4652
Rp4653
tp4654
a(g926
g6
(g18
S'\x90\x99|;'
p4655
tp4656
Rp4657
tp4658
a(g44
g6
(g18
S'~p@;'
p4659
tp4660
Rp4661
tp4662
asg73
g15
sa(dp4663
g2
S'../../../data/emanuela/activity-recognition/images/NTCIR-Lifelog-256/u2/2015-06-16/b00001729_21i7lf_20150616_135537e.jpg'
p4664
sg4
(lp4665
(g15
g6
(g18
S'S\xacS?'
p4666
tp4667
Rp4668
tp4669
a(g56
g6
(g18
S'\xd2\xd2\x85='
p4670
tp4671
Rp4672
tp4673
a(g131
g6
(g18
S'1W\xea<'
p4674
tp4675
Rp4676
tp4677
a(g32
g6
(g18
S'\xf2\xb9\xe8<'
p4678
tp4679
Rp4680
tp4681
a(g96
g6
(g18
S'^\xb2\xc7<'
p4682
tp4683
Rp4684
tp4685
asg73
g15
sa(dp4686
g2
S'../../../data/emanuela/activity-recognition/images/NTCIR-Lifelog-256/u2/2015-06-16/b00001568_21i7lf_20150616_094734e.jpg'
p4687
sg4
(lp4688
(g15
g6
(g18
S'\xbc\xe0s?'
p4689
tp4690
Rp4691
tp4692
a(g68
g6
(g18
S'\xc4p1='
p4693
tp4694
Rp4695
tp4696
a(g166
g6
(g18
S'\x8c\n\xd3:'
p4697
tp4698
Rp4699
tp4700
a(g926
g6
(g18
S'p+\xb9:'
p4701
tp4702
Rp4703
tp4704
a(g56
g6
(g18
S'\xf0\x05z9'
p4705
tp4706
Rp4707
tp4708
asg73
g15
sa(dp4709
g2
S'../../../data/emanuela/activity-recognition/images/NTCIR-Lifelog-256/u2/2015-06-16/b00001858_21i7lf_20150616_230734e.jpg'
p4710
sg4
(lp4711
(g15
g6
(g18
S'f\xe7f?'
p4712
tp4713
Rp4714
tp4715
a(g32
g6
(g18
S'\xacD\x88='
p4716
tp4717
Rp4718
tp4719
a(g56
g6
(g18
S'%d\x87<'
p4720
tp4721
Rp4722
tp4723
a(g96
g6
(g18
S'yM\x9b;'
p4724
tp4725
Rp4726
tp4727
a(g44
g6
(g18
S'=e>;'
p4728
tp4729
Rp4730
tp4731
asg73
g15
sa(dp4732
g2
S'../../../data/emanuela/activity-recognition/images/NTCIR-Lifelog-256/u2/2015-06-16/b00001579_21i7lf_20150616_095409e.jpg'
p4733
sg4
(lp4734
(g15
g6
(g18
S'\x92\x1ar?'
p4735
tp4736
Rp4737
tp4738
a(g68
g6
(g18
S'0\xa8R='
p4739
tp4740
Rp4741
tp4742
a(g166
g6
(g18
S'\xe6>x:'
p4743
tp4744
Rp4745
tp4746
a(g154
g6
(g18
S'\\\xe2\xcf9'
p4747
tp4748
Rp4749
tp4750
a(g926
g6
(g18
S'\x984\xc99'
p4751
tp4752
Rp4753
tp4754
asg73
g15
sa(dp4755
g2
S'../../../data/emanuela/activity-recognition/images/NTCIR-Lifelog-256/u2/2015-06-16/b00001821_21i7lf_20150616_224727e.jpg'
p4756
sg4
(lp4757
(g15
g6
(g18
S'\x98xy?'
p4758
tp4759
Rp4760
tp4761
a(g32
g6
(g18
S't\x0b\x9c<'
p4762
tp4763
Rp4764
tp4765
a(g56
g6
(g18
S'\x8f\x1f\x1d;'
p4766
tp4767
Rp4768
tp4769
a(g96
g6
(g18
S'\t\xd8\x98:'
p4770
tp4771
Rp4772
tp4773
a(g44
g6
(g18
S'\xca\xdat:'
p4774
tp4775
Rp4776
tp4777
asg73
g15
sa(dp4778
g2
S'../../../data/emanuela/activity-recognition/images/NTCIR-Lifelog-256/u2/2015-06-16/b00001909_21i7lf_20150616_233853e.jpg'
p4779
sg4
(lp4780
(g56
g6
(g18
S'\x96\xe0\xa3>'
p4781
tp4782
Rp4783
tp4784
a(g32
g6
(g18
S';8\xa2>'
p4785
tp4786
Rp4787
tp4788
a(g15
g6
(g18
S'\xf3\x19e>'
p4789
tp4790
Rp4791
tp4792
a(g154
g6
(g18
S'CM\x83='
p4793
tp4794
Rp4795
tp4796
a(g68
g6
(g18
S'd\x9ff<'
p4797
tp4798
Rp4799
tp4800
asg73
g15
sa(dp4801
g2
S'../../../data/emanuela/activity-recognition/images/NTCIR-Lifelog-256/u2/2015-06-16/b00001564_21i7lf_20150616_094513e.jpg'
p4802
sg4
(lp4803
(g15
g6
(g18
S'\xf9Rt?'
p4804
tp4805
Rp4806
tp4807
a(g68
g6
(g18
S'M\xf2-='
p4808
tp4809
Rp4810
tp4811
a(g166
g6
(g18
S"',\x8e:"
p4812
tp4813
Rp4814
tp4815
a(g44
g6
(g18
S'\xfa\x7f%:'
p4816
tp4817
Rp4818
tp4819
a(g131
g6
(g18
S'\xb7\x00\xa79'
p4820
tp4821
Rp4822
tp4823
asg73
g15
sa(dp4824
g2
S'../../../data/emanuela/activity-recognition/images/NTCIR-Lifelog-256/u2/2015-06-16/b00001837_21i7lf_20150616_225348e.jpg'
p4825
sg4
(lp4826
(g15
g6
(g18
S'\x8b\xc9v?'
p4827
tp4828
Rp4829
tp4830
a(g32
g6
(g18
S'\r\x03\xa6<'
p4831
tp4832
Rp4833
tp4834
a(g56
g6
(g18
S'o\xf4*<'
p4835
tp4836
Rp4837
tp4838
a(g44
g6
(g18
S'Cg\xa4:'
p4839
tp4840
Rp4841
tp4842
a(g131
g6
(g18
S'Bd\x97:'
p4843
tp4844
Rp4845
tp4846
asg73
g15
sa(dp4847
g2
S'../../../data/emanuela/activity-recognition/images/NTCIR-Lifelog-256/u2/2015-06-16/b00001547_21i7lf_20150616_093526e.jpg'
p4848
sg4
(lp4849
(g15
g6
(g18
S'\x90\xac,?'
p4850
tp4851
Rp4852
tp4853
a(g68
g6
(g18
S'\xa4\xab\x93>'
p4854
tp4855
Rp4856
tp4857
a(g154
g6
(g18
S'L\x9c\xef<'
p4858
tp4859
Rp4860
tp4861
a(g362
g6
(g18
S'V\xac.;'
p4862
tp4863
Rp4864
tp4865
a(g44
g6
(g18
S'\xf6\xcf\xb4:'
p4866
tp4867
Rp4868
tp4869
asg73
g15
sa(dp4870
g2
S'../../../data/emanuela/activity-recognition/images/NTCIR-Lifelog-256/u2/2015-06-16/b00001851_21i7lf_20150616_230313e.jpg'
p4871
sg4
(lp4872
(g15
g6
(g18
S'\xd2P\x7f?'
p4873
tp4874
Rp4875
tp4876
a(g56
g6
(g18
S'\x1f\xc9\xd8:'
p4877
tp4878
Rp4879
tp4880
a(g32
g6
(g18
S'\x17\x15N:'
p4881
tp4882
Rp4883
tp4884
a(g131
g6
(g18
S':\x89{8'
p4885
tp4886
Rp4887
tp4888
a(g96
g6
(g18
S'^\x07R8'
p4889
tp4890
Rp4891
tp4892
asg73
g15
sa(dp4893
g2
S'../../../data/emanuela/activity-recognition/images/NTCIR-Lifelog-256/u2/2015-06-16/b00001755_21i7lf_20150616_143324e.jpg'
p4894
sg4
(lp4895
(g15
g6
(g18
S'\x06\x051?'
p4896
tp4897
Rp4898
tp4899
a(g32
g6
(g18
S'\xf8\x88\x02>'
p4900
tp4901
Rp4902
tp4903
a(g68
g6
(g18
S'J#\x8c='
p4904
tp4905
Rp4906
tp4907
a(g96
g6
(g18
S'\x11\x85\x1c='
p4908
tp4909
Rp4910
tp4911
a(g56
g6
(g18
S'\x17v\xd8<'
p4912
tp4913
Rp4914
tp4915
asg73
g15
sa(dp4916
g2
S'../../../data/emanuela/activity-recognition/images/NTCIR-Lifelog-256/u2/2015-06-16/b00001918_21i7lf_20150616_234541e.jpg'
p4917
sg4
(lp4918
(g68
g6
(g18
S'\xcb\xbaj?'
p4919
tp4920
Rp4921
tp4922
a(g362
g6
(g18
S'q\x94\xb1<'
p4923
tp4924
Rp4925
tp4926
a(g96
g6
(g18
S'9\xdb2<'
p4927
tp4928
Rp4929
tp4930
a(g154
g6
(g18
S'\xf6\x14\x14<'
p4931
tp4932
Rp4933
tp4934
a(g2150
g6
(g18
S'g\xbd\xdd;'
p4935
tp4936
Rp4937
tp4938
asg73
g15
sa(dp4939
g2
S'../../../data/emanuela/activity-recognition/images/NTCIR-Lifelog-256/u2/2015-06-16/b00001833_21i7lf_20150616_225047e.jpg'
p4940
sg4
(lp4941
(g15
g6
(g18
S'\xf4\x91|?'
p4942
tp4943
Rp4944
tp4945
a(g32
g6
(g18
S'rE\xc8;'
p4946
tp4947
Rp4948
tp4949
a(g56
g6
(g18
S'\x9bP\x9f;'
p4950
tp4951
Rp4952
tp4953
a(g44
g6
(g18
S'\x07S$:'
p4954
tp4955
Rp4956
tp4957
a(g68
g6
(g18
S'\x82\xd5\xf49'
p4958
tp4959
Rp4960
tp4961
asg73
g15
sa(dp4962
g2
S'../../../data/emanuela/activity-recognition/images/NTCIR-Lifelog-256/u2/2015-06-16/b00001887_21i7lf_20150616_232501e.jpg'
p4963
sg4
(lp4964
(g15
g6
(g18
S'\xa1\xfbi?'
p4965
tp4966
Rp4967
tp4968
a(g32
g6
(g18
S'\x0c6\x1f='
p4969
tp4970
Rp4971
tp4972
a(g56
g6
(g18
S';\xb0\xe0<'
p4973
tp4974
Rp4975
tp4976
a(g68
g6
(g18
S'\xbf\x9e\xf3;'
p4977
tp4978
Rp4979
tp4980
a(g166
g6
(g18
S'\x00AW;'
p4981
tp4982
Rp4983
tp4984
asg73
g15
sa(dp4985
g2
S'../../../data/emanuela/activity-recognition/images/NTCIR-Lifelog-256/u2/2015-06-16/b00001714_21i7lf_20150616_133516e.jpg'
p4986
sg4
(lp4987
(g15
g6
(g18
S'\xfaJ{?'
p4988
tp4989
Rp4990
tp4991
a(g32
g6
(g18
S'\xeb\xeeq<'
p4992
tp4993
Rp4994
tp4995
a(g44
g6
(g18
S'\x93\x07\x9c:'
p4996
tp4997
Rp4998
tp4999
a(g56
g6
(g18
S'0rG:'
p5000
tp5001
Rp5002
tp5003
a(g68
g6
(g18
S'\xb9F\x1c:'
p5004
tp5005
Rp5006
tp5007
asg73
g15
sa(dp5008
g2
S'../../../data/emanuela/activity-recognition/images/NTCIR-Lifelog-256/u2/2015-06-16/b00001802_21i7lf_20150616_154055e.jpg'
p5009
sg4
(lp5010
(g15
g6
(g18
S'\x9cep?'
p5011
tp5012
Rp5013
tp5014
a(g32
g6
(g18
S'vg\x1f='
p5015
tp5016
Rp5017
tp5018
a(g44
g6
(g18
S'x\xad\xd2;'
p5019
tp5020
Rp5021
tp5022
a(g96
g6
(g18
S'\\\x9e\xaf;'
p5023
tp5024
Rp5025
tp5026
a(g68
g6
(g18
S'\tn3;'
p5027
tp5028
Rp5029
tp5030
asg73
g15
sa(dp5031
g2
S'../../../data/emanuela/activity-recognition/images/NTCIR-Lifelog-256/u2/2015-06-16/b00001782_21i7lf_20150616_151111e.jpg'
p5032
sg4
(lp5033
(g15
g6
(g18
S'\xf2\xedJ?'
p5034
tp5035
Rp5036
tp5037
a(g32
g6
(g18
S'A\x91K>'
p5038
tp5039
Rp5040
tp5041
a(g56
g6
(g18
S'f\x01\x7f;'
p5042
tp5043
Rp5044
tp5045
a(g96
g6
(g18
S'\x06\xcc&;'
p5046
tp5047
Rp5048
tp5049
a(g68
g6
(g18
S'$\xf5\x95:'
p5050
tp5051
Rp5052
tp5053
asg73
g15
sa(dp5054
g2
S'../../../data/emanuela/activity-recognition/images/NTCIR-Lifelog-256/u2/2015-06-16/b00001687_21i7lf_20150616_131900e.jpg'
p5055
sg4
(lp5056
(g131
g6
(g18
S'\x90\xa0\xd4>'
p5057
tp5058
Rp5059
tp5060
a(g1919
g6
(g18
S'(\xb3\xac>'
p5061
tp5062
Rp5063
tp5064
a(g56
g6
(g18
S'\xee\x01B>'
p5065
tp5066
Rp5067
tp5068
a(g15
g6
(g18
S'\x85\xc6\x82<'
p5069
tp5070
Rp5071
tp5072
a(g6
(g7
(S'S19'
p5073
I0
I1
tp5074
Rp5075
(I3
S'|'
p5076
NNNI19
I1
I0
tp5077
bS'attending a seminar'
p5078
tp5079
Rp5080
g6
(g18
S'\x1c\xd2\x16<'
p5081
tp5082
Rp5083
tp5084
asg73
g15
sa(dp5085
g2
S'../../../data/emanuela/activity-recognition/images/NTCIR-Lifelog-256/u2/2015-06-16/b00001739_21i7lf_20150616_141011e.jpg'
p5086
sg4
(lp5087
(g15
g6
(g18
S'\xe5\xf7x?'
p5088
tp5089
Rp5090
tp5091
a(g32
g6
(g18
S'\xbe\x1d\xa3<'
p5092
tp5093
Rp5094
tp5095
a(g56
g6
(g18
S'\x92\x95C;'
p5096
tp5097
Rp5098
tp5099
a(g68
g6
(g18
S'V\x0eA;'
p5100
tp5101
Rp5102
tp5103
a(g96
g6
(g18
S't\xb3\x0f:'
p5104
tp5105
Rp5106
tp5107
asg73
g15
sa(dp5108
g2
S'../../../data/emanuela/activity-recognition/images/NTCIR-Lifelog-256/u2/2015-06-16/b00001721_21i7lf_20150616_134406e.jpg'
p5109
sg4
(lp5110
(g15
g6
(g18
S'*_#?'
p5111
tp5112
Rp5113
tp5114
a(g32
g6
(g18
S'{G\xa5>'
p5115
tp5116
Rp5117
tp5118
a(g56
g6
(g18
S'\x96]\x8e<'
p5119
tp5120
Rp5121
tp5122
a(g96
g6
(g18
S'v\xfe\x1d<'
p5123
tp5124
Rp5125
tp5126
a(g44
g6
(g18
S'\xaa\xe4\x88;'
p5127
tp5128
Rp5129
tp5130
asg73
g15
sa(dp5131
g2
S'../../../data/emanuela/activity-recognition/images/NTCIR-Lifelog-256/u2/2015-06-16/b00001824_21i7lf_20150616_224729e.jpg'
p5132
sg4
(lp5133
(g15
g6
(g18
S'\xcegv?'
p5134
tp5135
Rp5136
tp5137
a(g32
g6
(g18
S'<C\x08='
p5138
tp5139
Rp5140
tp5141
a(g56
g6
(g18
S'K\x99\xe8:'
p5142
tp5143
Rp5144
tp5145
a(g68
g6
(g18
S'G\xb4}:'
p5146
tp5147
Rp5148
tp5149
a(g44
g6
(g18
S'B\xc6?:'
p5150
tp5151
Rp5152
tp5153
asg73
g15
sa(dp5154
g2
S'../../../data/emanuela/activity-recognition/images/NTCIR-Lifelog-256/u2/2015-06-16/b00001890_21i7lf_20150616_232646e.jpg'
p5155
sg4
(lp5156
(g15
g6
(g18
S'\xd2Vo?'
p5157
tp5158
Rp5159
tp5160
a(g56
g6
(g18
S'\xd6K\xbb<'
p5161
tp5162
Rp5163
tp5164
a(g32
g6
(g18
S'\x84\x18C<'
p5165
tp5166
Rp5167
tp5168
a(g131
g6
(g18
S'\x9d1(<'
p5169
tp5170
Rp5171
tp5172
a(g166
g6
(g18
S'D\xed\xfc;'
p5173
tp5174
Rp5175
tp5176
asg73
g15
sa(dp5177
g2
S'../../../data/emanuela/activity-recognition/images/NTCIR-Lifelog-256/u2/2015-06-16/b00001753_21i7lf_20150616_143042e.jpg'
p5178
sg4
(lp5179
(g15
g6
(g18
S'\xcf\xfcW?'
p5180
tp5181
Rp5182
tp5183
a(g32
g6
(g18
S'T:\xb4='
p5184
tp5185
Rp5186
tp5187
a(g44
g6
(g18
S'\x8fB\r='
p5188
tp5189
Rp5190
tp5191
a(g56
g6
(g18
S'w\x91\x1b<'
p5192
tp5193
Rp5194
tp5195
a(g96
g6
(g18
S'\xffK\x04<'
p5196
tp5197
Rp5198
tp5199
asg73
g15
sa(dp5200
g2
S'../../../data/emanuela/activity-recognition/images/NTCIR-Lifelog-256/u2/2015-06-16/b00001908_21i7lf_20150616_233817e.jpg'
p5201
sg4
(lp5202
(g15
g6
(g18
S'\x81\x91\x11?'
p5203
tp5204
Rp5205
tp5206
a(g56
g6
(g18
S'H\x89\x99>'
p5207
tp5208
Rp5209
tp5210
a(g131
g6
(g18
S'#\x08\x81='
p5211
tp5212
Rp5213
tp5214
a(g96
g6
(g18
S'B\xea\xd1<'
p5215
tp5216
Rp5217
tp5218
a(g32
g6
(g18
S'j\xb6~<'
p5219
tp5220
Rp5221
tp5222
asg73
g15
sa(dp5223
g2
S'../../../data/emanuela/activity-recognition/images/NTCIR-Lifelog-256/u2/2015-06-16/b00001876_21i7lf_20150616_231834e.jpg'
p5224
sg4
(lp5225
(g15
g6
(g18
S'x\xfd`?'
p5226
tp5227
Rp5228
tp5229
a(g32
g6
(g18
S'\xfe\x1f7='
p5230
tp5231
Rp5232
tp5233
a(g56
g6
(g18
S'\xd1J-='
p5234
tp5235
Rp5236
tp5237
a(g68
g6
(g18
S'7\x82\x07<'
p5238
tp5239
Rp5240
tp5241
a(g362
g6
(g18
S'@6\x06<'
p5242
tp5243
Rp5244
tp5245
asg73
g15
sa(dp5246
g2
S'../../../data/emanuela/activity-recognition/images/NTCIR-Lifelog-256/u2/2015-06-16/b00001873_21i7lf_20150616_231647e.jpg'
p5247
sg4
(lp5248
(g15
g6
(g18
S'J\xc6o?'
p5249
tp5250
Rp5251
tp5252
a(g32
g6
(g18
S'\xf6\x04\x05='
p5253
tp5254
Rp5255
tp5256
a(g56
g6
(g18
S'\xd5\x89\x91<'
p5257
tp5258
Rp5259
tp5260
a(g44
g6
(g18
S'\x8dt:;'
p5261
tp5262
Rp5263
tp5264
a(g131
g6
(g18
S'c&\x08;'
p5265
tp5266
Rp5267
tp5268
asg73
g15
sa(dp5269
g2
S'../../../data/emanuela/activity-recognition/images/NTCIR-Lifelog-256/u2/2015-06-16/b00001868_21i7lf_20150616_231340e.jpg'
p5270
sg4
(lp5271
(g15
g6
(g18
S'\x0b\xe1R?'
p5272
tp5273
Rp5274
tp5275
a(g32
g6
(g18
S'\xcdC\xd4='
p5276
tp5277
Rp5278
tp5279
a(g56
g6
(g18
S'\xc9\x90-='
p5280
tp5281
Rp5282
tp5283
a(g131
g6
(g18
S'\x03\xb0\x18<'
p5284
tp5285
Rp5286
tp5287
a(g96
g6
(g18
S'\xfdL\xd5;'
p5288
tp5289
Rp5290
tp5291
asg73
g15
sa(dp5292
g2
S'../../../data/emanuela/activity-recognition/images/NTCIR-Lifelog-256/u2/2015-06-16/b00001780_21i7lf_20150616_150817e.jpg'
p5293
sg4
(lp5294
(g15
g6
(g18
S'\xad\xeau?'
p5295
tp5296
Rp5297
tp5298
a(g32
g6
(g18
S'\x8e\xb1\x14='
p5299
tp5300
Rp5301
tp5302
a(g68
g6
(g18
S'}v\xf1:'
p5303
tp5304
Rp5305
tp5306
a(g56
g6
(g18
S'3\x9b\x02:'
p5307
tp5308
Rp5309
tp5310
a(g96
g6
(g18
S'\x87l\xb19'
p5311
tp5312
Rp5313
tp5314
asg73
g15
sa(dp5315
g2
S'../../../data/emanuela/activity-recognition/images/NTCIR-Lifelog-256/u2/2015-06-16/b00001896_21i7lf_20150616_233041e.jpg'
p5316
sg4
(lp5317
(g15
g6
(g18
S'kAZ?'
p5318
tp5319
Rp5320
tp5321
a(g32
g6
(g18
S'\x85^\xdc='
p5322
tp5323
Rp5324
tp5325
a(g56
g6
(g18
S' \xc4\xb5<'
p5326
tp5327
Rp5328
tp5329
a(g96
g6
(g18
S'U\xa4\x9f;'
p5330
tp5331
Rp5332
tp5333
a(g131
g6
(g18
S'C\xe0\x8f;'
p5334
tp5335
Rp5336
tp5337
asg73
g15
sa(dp5338
g2
S'../../../data/emanuela/activity-recognition/images/NTCIR-Lifelog-256/u2/2015-06-16/b00001576_21i7lf_20150616_095210e.jpg'
p5339
sg4
(lp5340
(g15
g6
(g18
S'hYk?'
p5341
tp5342
Rp5343
tp5344
a(g68
g6
(g18
S'K\xb5\x97='
p5345
tp5346
Rp5347
tp5348
a(g154
g6
(g18
S'\n\xf9\x0f;'
p5349
tp5350
Rp5351
tp5352
a(g458
g6
(g18
S':`v:'
p5353
tp5354
Rp5355
tp5356
a(g44
g6
(g18
S'N\xaaH:'
p5357
tp5358
Rp5359
tp5360
asg73
g15
sa(dp5361
g2
S'../../../data/emanuela/activity-recognition/images/NTCIR-Lifelog-256/u2/2015-06-16/b00001578_21i7lf_20150616_095330e.jpg'
p5362
sg4
(lp5363
(g15
g6
(g18
S'\xa3\x1ds?'
p5364
tp5365
Rp5366
tp5367
a(g68
g6
(g18
S'\x057=='
p5368
tp5369
Rp5370
tp5371
a(g44
g6
(g18
S'%=\xb8:'
p5372
tp5373
Rp5374
tp5375
a(g154
g6
(g18
S'\x94\xe3W:'
p5376
tp5377
Rp5378
tp5379
a(g362
g6
(g18
S'2\xe3\x0f:'
p5380
tp5381
Rp5382
tp5383
asg73
g15
sa(dp5384
g2
S'../../../data/emanuela/activity-recognition/images/NTCIR-Lifelog-256/u2/2015-06-16/b00001880_21i7lf_20150616_232054e.jpg'
p5385
sg4
(lp5386
(g15
g6
(g18
S'\xd3ay?'
p5387
tp5388
Rp5389
tp5390
a(g44
g6
(g18
S'\x8d\x0b\x19<'
p5391
tp5392
Rp5393
tp5394
a(g68
g6
(g18
S'\x0eP\xca;'
p5395
tp5396
Rp5397
tp5398
a(g56
g6
(g18
S'\xa5e\x84;'
p5399
tp5400
Rp5401
tp5402
a(g32
g6
(g18
S'81Z;'
p5403
tp5404
Rp5405
tp5406
asg73
g15
sa(dp5407
g2
S'../../../data/emanuela/activity-recognition/images/NTCIR-Lifelog-256/u2/2015-06-16/b00001697_21i7lf_20150616_132511e.jpg'
p5408
sg4
(lp5409
(g15
g6
(g18
S'f\xe2~?'
p5410
tp5411
Rp5412
tp5413
a(g32
g6
(g18
S'j!F;'
p5414
tp5415
Rp5416
tp5417
a(g44
g6
(g18
S'\xd3*6:'
p5418
tp5419
Rp5420
tp5421
a(g96
g6
(g18
S'+.\x989'
p5422
tp5423
Rp5424
tp5425
a(g56
g6
(g18
S'\xc3\xfe@9'
p5426
tp5427
Rp5428
tp5429
asg73
g15
sa(dp5430
g2
S'../../../data/emanuela/activity-recognition/images/NTCIR-Lifelog-256/u2/2015-06-16/b00001574_21i7lf_20150616_095100e.jpg'
p5431
sg4
(lp5432
(g15
g6
(g18
S'\xe2\xb8|?'
p5433
tp5434
Rp5435
tp5436
a(g68
g6
(g18
S'Y\xa6D<'
p5437
tp5438
Rp5439
tp5440
a(g458
g6
(g18
S'\xe7\x1079'
p5441
tp5442
Rp5443
tp5444
a(g44
g6
(g18
S'\xd7\xd1+9'
p5445
tp5446
Rp5447
tp5448
a(g154
g6
(g18
S"\x90'&9"
p5449
tp5450
Rp5451
tp5452
asg73
g15
sa(dp5453
g2
S'../../../data/emanuela/activity-recognition/images/NTCIR-Lifelog-256/u2/2015-06-16/b00001550_21i7lf_20150616_093707e.jpg'
p5454
sg4
(lp5455
(g15
g6
(g18
S'p\xecY?'
p5456
tp5457
Rp5458
tp5459
a(g68
g6
(g18
S'\xb2\xee\xc6='
p5460
tp5461
Rp5462
tp5463
a(g154
g6
(g18
S'/\xea$='
p5464
tp5465
Rp5466
tp5467
a(g32
g6
(g18
S'\xa02\x1f;'
p5468
tp5469
Rp5470
tp5471
a(g166
g6
(g18
S'\xcc\xe8\x11;'
p5472
tp5473
Rp5474
tp5475
asg73
g15
sa(dp5476
g2
S'../../../data/emanuela/activity-recognition/images/NTCIR-Lifelog-256/u2/2015-06-16/b00001884_21i7lf_20150616_232306e.jpg'
p5477
sg4
(lp5478
(g15
g6
(g18
S'\xb3\xe8P?'
p5479
tp5480
Rp5481
tp5482
a(g56
g6
(g18
S'\xe4;Z='
p5483
tp5484
Rp5485
tp5486
a(g32
g6
(g18
S'\xa1\x7f ='
p5487
tp5488
Rp5489
tp5490
a(g131
g6
(g18
S'C&\x03='
p5491
tp5492
Rp5493
tp5494
a(g96
g6
(g18
S'\x8fj\xf7<'
p5495
tp5496
Rp5497
tp5498
asg73
g15
sa(dp5499
g2
S'../../../data/emanuela/activity-recognition/images/NTCIR-Lifelog-256/u2/2015-06-16/b00001829_21i7lf_20150616_224826e.jpg'
p5500
sg4
(lp5501
(g15
g6
(g18
S'\x1d{T?'
p5502
tp5503
Rp5504
tp5505
a(g32
g6
(g18
S'1\n\xd1='
p5506
tp5507
Rp5508
tp5509
a(g56
g6
(g18
S'\xc0^\x19='
p5510
tp5511
Rp5512
tp5513
a(g44
g6
(g18
S'\xa4n\xe4;'
p5514
tp5515
Rp5516
tp5517
a(g96
g6
(g18
S'\x96\x07\xb6;'
p5518
tp5519
Rp5520
tp5521
asg73
g15
sa(dp5522
g2
S'../../../data/emanuela/activity-recognition/images/NTCIR-Lifelog-256/u2/2015-06-16/b00001575_21i7lf_20150616_095139e.jpg'
p5523
sg4
(lp5524
(g15
g6
(g18
S'\x0cZv?'
p5525
tp5526
Rp5527
tp5528
a(g68
g6
(g18
S'\xfb:\x11='
p5529
tp5530
Rp5531
tp5532
a(g458
g6
(g18
S'*w\x14:'
p5533
tp5534
Rp5535
tp5536
a(g44
g6
(g18
S'\x97^\xb49'
p5537
tp5538
Rp5539
tp5540
a(g154
g6
(g18
S'\x9f\x0b\xb39'
p5541
tp5542
Rp5543
tp5544
asg73
g15
sa(dp5545
g2
S'../../../data/emanuela/activity-recognition/images/NTCIR-Lifelog-256/u2/2015-06-16/b00001773_21i7lf_20150616_145808e.jpg'
p5546
sg4
(lp5547
(g44
g6
(g18
S'\xfb?\xe0>'
p5548
tp5549
Rp5550
tp5551
a(g68
g6
(g18
S'7\xf0\x83>'
p5552
tp5553
Rp5554
tp5555
a(g154
g6
(g18
S'\x9e\x8e#>'
p5556
tp5557
Rp5558
tp5559
a(g15
g6
(g18
S'~5\xe6='
p5560
tp5561
Rp5562
tp5563
a(g56
g6
(g18
S'\x85S\xce;'
p5564
tp5565
Rp5566
tp5567
asg73
g15
sa(dp5568
g2
S'../../../data/emanuela/activity-recognition/images/NTCIR-Lifelog-256/u2/2015-06-16/b00001892_21i7lf_20150616_232804e.jpg'
p5569
sg4
(lp5570
(g15
g6
(g18
S'\x8ed3?'
p5571
tp5572
Rp5573
tp5574
a(g56
g6
(g18
S'\x9a\xcd\xc7='
p5575
tp5576
Rp5577
tp5578
a(g131
g6
(g18
S'/\xc6\x84='
p5579
tp5580
Rp5581
tp5582
a(g166
g6
(g18
S')\x1bW='
p5583
tp5584
Rp5585
tp5586
a(g44
g6
(g18
S'\xda_\xce<'
p5587
tp5588
Rp5589
tp5590
asg73
g15
sa(dp5591
g2
S'../../../data/emanuela/activity-recognition/images/NTCIR-Lifelog-256/u2/2015-06-16/b00001913_21i7lf_20150616_234107e.jpg'
p5592
sg4
(lp5593
(g56
g6
(g18
S'L\xcf\xf7>'
p5594
tp5595
Rp5596
tp5597
a(g131
g6
(g18
S'\xad\xebM>'
p5598
tp5599
Rp5600
tp5601
a(g5080
g6
(g18
S'\x8a\xc6\xf1='
p5602
tp5603
Rp5604
tp5605
a(g1919
g6
(g18
S'<?\xea='
p5606
tp5607
Rp5608
tp5609
a(g15
g6
(g18
S'G\x935='
p5610
tp5611
Rp5612
tp5613
asg73
g15
sa(dp5614
g2
S'../../../data/emanuela/activity-recognition/images/NTCIR-Lifelog-256/u2/2015-06-16/b00001875_21i7lf_20150616_231759e.jpg'
p5615
sg4
(lp5616
(g15
g6
(g18
S';<t?'
p5617
tp5618
Rp5619
tp5620
a(g32
g6
(g18
S'\xae}f<'
p5621
tp5622
Rp5623
tp5624
a(g56
g6
(g18
S'5@f<'
p5625
tp5626
Rp5627
tp5628
a(g362
g6
(g18
S'\x0f\xe0\xbb;'
p5629
tp5630
Rp5631
tp5632
a(g44
g6
(g18
S'_\xc1\x8a;'
p5633
tp5634
Rp5635
tp5636
asg73
g15
sa(dp5637
g2
S'../../../data/emanuela/activity-recognition/images/NTCIR-Lifelog-256/u2/2015-06-16/b00001903_21i7lf_20150616_233506e.jpg'
p5638
sg4
(lp5639
(g15
g6
(g18
S'\xbf\x98k?'
p5640
tp5641
Rp5642
tp5643
a(g32
g6
(g18
S'\x13\xf2^='
p5644
tp5645
Rp5646
tp5647
a(g56
g6
(g18
S'\xec:\x00<'
p5648
tp5649
Rp5650
tp5651
a(g68
g6
(g18
S'\xff\x0f\xbb;'
p5652
tp5653
Rp5654
tp5655
a(g131
g6
(g18
S'\xca\x99:;'
p5656
tp5657
Rp5658
tp5659
asg73
g15
sa(dp5660
g2
S'../../../data/emanuela/activity-recognition/images/NTCIR-Lifelog-256/u2/2015-06-16/b00001703_21i7lf_20150616_132831e.jpg'
p5661
sg4
(lp5662
(g15
g6
(g18
S'\xe8\xa2j?'
p5663
tp5664
Rp5665
tp5666
a(g32
g6
(g18
S'\xa4\x85\xa2='
p5667
tp5668
Rp5669
tp5670
a(g96
g6
(g18
S'^7\xea:'
p5671
tp5672
Rp5673
tp5674
a(g56
g6
(g18
S'\xbfKn:'
p5675
tp5676
Rp5677
tp5678
a(g44
g6
(g18
S'\xf4[::'
p5679
tp5680
Rp5681
tp5682
asg73
g15
sa(dp5683
g2
S'../../../data/emanuela/activity-recognition/images/NTCIR-Lifelog-256/u2/2015-06-16/b00001705_21i7lf_20150616_132933e.jpg'
p5684
sg4
(lp5685
(g15
g6
(g18
S'\xc9\x8bz?'
p5686
tp5687
Rp5688
tp5689
a(g32
g6
(g18
S'\xd0Y\x8d<'
p5690
tp5691
Rp5692
tp5693
a(g44
g6
(g18
S'*\xe3\xc1:'
p5694
tp5695
Rp5696
tp5697
a(g96
g6
(g18
S'b\xac\xb2:'
p5698
tp5699
Rp5700
tp5701
a(g56
g6
(g18
S'\xa1\x98&:'
p5702
tp5703
Rp5704
tp5705
asg73
g15
sa(dp5706
g2
S'../../../data/emanuela/activity-recognition/images/NTCIR-Lifelog-256/u2/2015-06-16/b00001699_21i7lf_20150616_132619e.jpg'
p5707
sg4
(lp5708
(g15
g6
(g18
S'\xfbUW?'
p5709
tp5710
Rp5711
tp5712
a(g32
g6
(g18
S'\xe6*\x1a>'
p5713
tp5714
Rp5715
tp5716
a(g96
g6
(g18
S'\x85K\x94;'
p5717
tp5718
Rp5719
tp5720
a(g56
g6
(g18
S'F\x0c(;'
p5721
tp5722
Rp5723
tp5724
a(g44
g6
(g18
S'\xee*\xce9'
p5725
tp5726
Rp5727
tp5728
asg73
g15
sa(dp5729
g2
S'../../../data/emanuela/activity-recognition/images/NTCIR-Lifelog-256/u2/2015-06-16/b00001743_21i7lf_20150616_141646e.jpg'
p5730
sg4
(lp5731
(g15
g6
(g18
S'\xc8\xf3c?'
p5732
tp5733
Rp5734
tp5735
a(g32
g6
(g18
S'$\x16\xca='
p5736
tp5737
Rp5738
tp5739
a(g56
g6
(g18
S'P\x91\xab;'
p5740
tp5741
Rp5742
tp5743
a(g68
g6
(g18
S'\x1d\xa4;;'
p5744
tp5745
Rp5746
tp5747
a(g44
g6
(g18
S'\xe8@\x90:'
p5748
tp5749
Rp5750
tp5751
asg73
g15
sa(dp5752
g2
S'../../../data/emanuela/activity-recognition/images/NTCIR-Lifelog-256/u2/2015-06-16/b00001853_21i7lf_20150616_230427e.jpg'
p5753
sg4
(lp5754
(g15
g6
(g18
S'\xc5\xc6{?'
p5755
tp5756
Rp5757
tp5758
a(g56
g6
(g18
S'7\xfc-<'
p5759
tp5760
Rp5761
tp5762
a(g32
g6
(g18
S'\xe3\x8d\x8d;'
p5763
tp5764
Rp5765
tp5766
a(g131
g6
(g18
S'-\xc3\x1a:'
p5767
tp5768
Rp5769
tp5770
a(g68
g6
(g18
S'l\xe6\xa99'
p5771
tp5772
Rp5773
tp5774
asg73
g15
sa(dp5775
g2
S'../../../data/emanuela/activity-recognition/images/NTCIR-Lifelog-256/u2/2015-06-16/b00001544_21i7lf_20150616_093343e.jpg'
p5776
sg4
(lp5777
(g154
g6
(g18
S'\xd3XN?'
p5778
tp5779
Rp5780
tp5781
a(g15
g6
(g18
S'\xec.!>'
p5782
tp5783
Rp5784
tp5785
a(g68
g6
(g18
S'\xdank<'
p5786
tp5787
Rp5788
tp5789
a(g32
g6
(g18
S'6\xa5$<'
p5790
tp5791
Rp5792
tp5793
a(g44
g6
(g18
S'\xb2\xbd\xd6;'
p5794
tp5795
Rp5796
tp5797
asg73
g15
sa(dp5798
g2
S'../../../data/emanuela/activity-recognition/images/NTCIR-Lifelog-256/u2/2015-06-16/b00001688_21i7lf_20150616_131936e.jpg'
p5799
sg4
(lp5800
(g926
g6
(g18
S'\xed\xcf\xb3>'
p5801
tp5802
Rp5803
tp5804
a(g166
g6
(g18
S'@\xf0|>'
p5805
tp5806
Rp5807
tp5808
a(g131
g6
(g18
S'\xf0\xe8X>'
p5809
tp5810
Rp5811
tp5812
a(g56
g6
(g18
S'\x0c\x81\xd5='
p5813
tp5814
Rp5815
tp5816
a(g68
g6
(g18
S'4\x90/='
p5817
tp5818
Rp5819
tp5820
asg73
g15
sa(dp5821
g2
S'../../../data/emanuela/activity-recognition/images/NTCIR-Lifelog-256/u2/2015-06-16/b00001686_21i7lf_20150616_131818e.jpg'
p5822
sg4
(lp5823
(g166
g6
(g18
S'(Y\xa8>'
p5824
tp5825
Rp5826
tp5827
a(g131
g6
(g18
S'\x19-->'
p5828
tp5829
Rp5830
tp5831
a(g1919
g6
(g18
S'u\x01\xc4='
p5832
tp5833
Rp5834
tp5835
a(g926
g6
(g18
S'\n\x05\xb4='
p5836
tp5837
Rp5838
tp5839
a(g68
g6
(g18
S'(\x91\xa2='
p5840
tp5841
Rp5842
tp5843
asg73
g15
sa(dp5844
g2
S'../../../data/emanuela/activity-recognition/images/NTCIR-Lifelog-256/u2/2015-06-16/b00001566_21i7lf_20150616_094623e.jpg'
p5845
sg4
(lp5846
(g15
g6
(g18
S"\xa7\xb0'?"
p5847
tp5848
Rp5849
tp5850
a(g68
g6
(g18
S'\x91\x8a\x8b>'
p5851
tp5852
Rp5853
tp5854
a(g166
g6
(g18
S'\xe3\xcf\xd6<'
p5855
tp5856
Rp5857
tp5858
a(g926
g6
(g18
S'\x80U\x92<'
p5859
tp5860
Rp5861
tp5862
a(g154
g6
(g18
S'\x07\xb2{<'
p5863
tp5864
Rp5865
tp5866
asg73
g15
sa(dp5867
g2
S'../../../data/emanuela/activity-recognition/images/NTCIR-Lifelog-256/u2/2015-06-16/b00001781_21i7lf_20150616_150946e.jpg'
p5868
sg4
(lp5869
(g15
g6
(g18
S'a<x?'
p5870
tp5871
Rp5872
tp5873
a(g32
g6
(g18
S'?q\xbc<'
p5874
tp5875
Rp5876
tp5877
a(g56
g6
(g18
S'\xf6\x0e\x0c;'
p5878
tp5879
Rp5880
tp5881
a(g96
g6
(g18
S'd\xab\xf2:'
p5882
tp5883
Rp5884
tp5885
a(g68
g6
(g18
S'\x8e\xe0\xb7:'
p5886
tp5887
Rp5888
tp5889
asg73
g15
sa(dp5890
g2
S'../../../data/emanuela/activity-recognition/images/NTCIR-Lifelog-256/u2/2015-06-16/b00001740_21i7lf_20150616_141140e.jpg'
p5891
sg4
(lp5892
(g15
g6
(g18
S'\x163<?'
p5893
tp5894
Rp5895
tp5896
a(g32
g6
(g18
S'\xbc\xedb>'
p5897
tp5898
Rp5899
tp5900
a(g68
g6
(g18
S'\xfd7\x97<'
p5901
tp5902
Rp5903
tp5904
a(g44
g6
(g18
S',5=<'
p5905
tp5906
Rp5907
tp5908
a(g56
g6
(g18
S'\x1c\xb0\xbb;'
p5909
tp5910
Rp5911
tp5912
asg73
g15
sa(dp5913
g2
S'../../../data/emanuela/activity-recognition/images/NTCIR-Lifelog-256/u2/2015-06-16/b00001844_21i7lf_20150616_225836e.jpg'
p5914
sg4
(lp5915
(g15
g6
(g18
S'\x96hx?'
p5916
tp5917
Rp5918
tp5919
a(g32
g6
(g18
S'\xa65\xe3<'
p5920
tp5921
Rp5922
tp5923
a(g56
g6
(g18
S'\xdf\xc6\x89:'
p5924
tp5925
Rp5926
tp5927
a(g68
g6
(g18
S'\xe5\x9d\x10:'
p5928
tp5929
Rp5930
tp5931
a(g96
g6
(g18
S'\x9f`!9'
p5932
tp5933
Rp5934
tp5935
asg73
g15
sa(dp5936
g2
S'../../../data/emanuela/activity-recognition/images/NTCIR-Lifelog-256/u2/2015-06-16/b00001787_21i7lf_20150616_151735e.jpg'
p5937
sg4
(lp5938
(g15
g6
(g18
S'l\xf2m?'
p5939
tp5940
Rp5941
tp5942
a(g32
g6
(g18
S'_G{='
p5943
tp5944
Rp5945
tp5946
a(g56
g6
(g18
S'\xaaU\x9d;'
p5947
tp5948
Rp5949
tp5950
a(g68
g6
(g18
S'\x9aR\x01;'
p5951
tp5952
Rp5953
tp5954
a(g96
g6
(g18
S'>\xfa\x9e:'
p5955
tp5956
Rp5957
tp5958
asg73
g15
sa(dp5959
g2
S'../../../data/emanuela/activity-recognition/images/NTCIR-Lifelog-256/u2/2015-06-16/b00001715_21i7lf_20150616_133646e.jpg'
p5960
sg4
(lp5961
(g15
g6
(g18
S'\x04\x00m?'
p5962
tp5963
Rp5964
tp5965
a(g32
g6
(g18
S'r\xabk='
p5966
tp5967
Rp5968
tp5969
a(g56
g6
(g18
S'V\x95\xe0;'
p5970
tp5971
Rp5972
tp5973
a(g44
g6
(g18
S'\xc0\xcaG;'
p5974
tp5975
Rp5976
tp5977
a(g96
g6
(g18
S'\x14e=;'
p5978
tp5979
Rp5980
tp5981
asg73
g15
sa(dp5982
g2
S'../../../data/emanuela/activity-recognition/images/NTCIR-Lifelog-256/u2/2015-06-16/b00001878_21i7lf_20150616_231942e.jpg'
p5983
sg4
(lp5984
(g15
g6
(g18
S'\xc9\xef{?'
p5985
tp5986
Rp5987
tp5988
a(g44
g6
(g18
S'I\xe1\xbb;'
p5989
tp5990
Rp5991
tp5992
a(g56
g6
(g18
S'3\xfc\xa4;'
p5993
tp5994
Rp5995
tp5996
a(g68
g6
(g18
S'\x81q\x1e;'
p5997
tp5998
Rp5999
tp6000
a(g32
g6
(g18
S'.\xfb}:'
p6001
tp6002
Rp6003
tp6004
asg73
g15
sa(dp6005
g2
S'../../../data/emanuela/activity-recognition/images/NTCIR-Lifelog-256/u2/2015-06-16/b00001735_21i7lf_20150616_140417e.jpg'
p6006
sg4
(lp6007
(g15
g6
(g18
S'\x8e\x169?'
p6008
tp6009
Rp6010
tp6011
a(g32
g6
(g18
S'\x9e\xfa\x02>'
p6012
tp6013
Rp6014
tp6015
a(g68
g6
(g18
S'1\x03N='
p6016
tp6017
Rp6018
tp6019
a(g458
g6
(g18
S'\x99W;='
p6020
tp6021
Rp6022
tp6023
a(g154
g6
(g18
S'\xab\x95\xe7<'
p6024
tp6025
Rp6026
tp6027
asg73
g15
sa(dp6028
g2
S'../../../data/emanuela/activity-recognition/images/NTCIR-Lifelog-256/u2/2015-06-16/b00001828_21i7lf_20150616_224747e.jpg'
p6029
sg4
(lp6030
(g15
g6
(g18
S'AY~?'
p6031
tp6032
Rp6033
tp6034
a(g32
g6
(g18
S'\x15\x07\xad;'
p6035
tp6036
Rp6037
tp6038
a(g56
g6
(g18
S'Lr\xb49'
p6039
tp6040
Rp6041
tp6042
a(g68
g6
(g18
S'\x07n\x929'
p6043
tp6044
Rp6045
tp6046
a(g44
g6
(g18
S'\xe8P\x8f9'
p6047
tp6048
Rp6049
tp6050
asg73
g15
sa(dp6051
g2
S'../../../data/emanuela/activity-recognition/images/NTCIR-Lifelog-256/u2/2015-06-16/b00001801_21i7lf_20150616_153931e.jpg'
p6052
sg4
(lp6053
(g15
g6
(g18
S'\x85\xf6D?'
p6054
tp6055
Rp6056
tp6057
a(g44
g6
(g18
S'+\xc5\xc3='
p6058
tp6059
Rp6060
tp6061
a(g32
g6
(g18
S',\xb8i='
p6062
tp6063
Rp6064
tp6065
a(g56
g6
(g18
S't\xf4\xba<'
p6066
tp6067
Rp6068
tp6069
a(g96
g6
(g18
S'(2\x85<'
p6070
tp6071
Rp6072
tp6073
asg73
g15
sa(dp6074
g2
S'../../../data/emanuela/activity-recognition/images/NTCIR-Lifelog-256/u2/2015-06-16/b00001883_21i7lf_20150616_232233e.jpg'
p6075
sg4
(lp6076
(g15
g6
(g18
S'\x95WS?'
p6077
tp6078
Rp6079
tp6080
a(g56
g6
(g18
S'\xf5\xb5\x81='
p6081
tp6082
Rp6083
tp6084
a(g68
g6
(g18
S'p+\xd9<'
p6085
tp6086
Rp6087
tp6088
a(g32
g6
(g18
S'\x1e-\xc0<'
p6089
tp6090
Rp6091
tp6092
a(g166
g6
(g18
S'\xe4`\xa1<'
p6093
tp6094
Rp6095
tp6096
asg73
g15
sa(dp6097
g2
S'../../../data/emanuela/activity-recognition/images/NTCIR-Lifelog-256/u2/2015-06-16/b00001816_21i7lf_20150616_224229e.jpg'
p6098
sg4
(lp6099
(g15
g6
(g18
S'\xef$`?'
p6100
tp6101
Rp6102
tp6103
a(g56
g6
(g18
S'\xd8\x9d\x92='
p6104
tp6105
Rp6106
tp6107
a(g32
g6
(g18
S'\xe9\xb9\xc4<'
p6108
tp6109
Rp6110
tp6111
a(g68
g6
(g18
S'\x04\x86\x81<'
p6112
tp6113
Rp6114
tp6115
a(g96
g6
(g18
S'`v%<'
p6116
tp6117
Rp6118
tp6119
asg73
g15
sa(dp6120
g2
S'../../../data/emanuela/activity-recognition/images/NTCIR-Lifelog-256/u2/2015-06-16/b00001864_21i7lf_20150616_231112e.jpg'
p6121
sg4
(lp6122
(g15
g6
(g18
S'N\x9ar?'
p6123
tp6124
Rp6125
tp6126
a(g32
g6
(g18
S'yA\x19='
p6127
tp6128
Rp6129
tp6130
a(g56
g6
(g18
S'B\xf6\xec;'
p6131
tp6132
Rp6133
tp6134
a(g68
g6
(g18
S'p*);'
p6135
tp6136
Rp6137
tp6138
a(g96
g6
(g18
S'\x15\x0b\xd7:'
p6139
tp6140
Rp6141
tp6142
asg73
g15
sa(dp6143
g2
S'../../../data/emanuela/activity-recognition/images/NTCIR-Lifelog-256/u2/2015-06-16/b00001772_21i7lf_20150616_145641e.jpg'
p6144
sg4
(lp6145
(g15
g6
(g18
S'\xdf\x00~?'
p6146
tp6147
Rp6148
tp6149
a(g44
g6
(g18
S'\xb8\xfe\x84;'
p6150
tp6151
Rp6152
tp6153
a(g68
g6
(g18
S'\xfe\x87\x06;'
p6154
tp6155
Rp6156
tp6157
a(g32
g6
(g18
S'\xfelJ:'
p6158
tp6159
Rp6160
tp6161
a(g154
g6
(g18
S'mN\x1e:'
p6162
tp6163
Rp6164
tp6165
asg73
g15
sa(dp6166
g2
S'../../../data/emanuela/activity-recognition/images/NTCIR-Lifelog-256/u2/2015-06-16/b00001604_21i7lf_20150616_100848e.jpg'
p6167
sg4
(lp6168
(g68
g6
(g18
S'\xa6\xcfu?'
p6169
tp6170
Rp6171
tp6172
a(g15
g6
(g18
S'qSw<'
p6173
tp6174
Rp6175
tp6176
a(g44
g6
(g18
S'>\x8e,<'
p6177
tp6178
Rp6179
tp6180
a(g926
g6
(g18
S'M\xda\x96;'
p6181
tp6182
Rp6183
tp6184
a(g154
g6
(g18
S'\xc7\xb9\x96;'
p6185
tp6186
Rp6187
tp6188
asg73
g15
sa(dp6189
g2
S'../../../data/emanuela/activity-recognition/images/NTCIR-Lifelog-256/u2/2015-06-16/b00001752_21i7lf_20150616_142917e.jpg'
p6190
sg4
(lp6191
(g15
g6
(g18
S'x\xf61?'
p6192
tp6193
Rp6194
tp6195
a(g32
g6
(g18
S'\xa8\x88\x87>'
p6196
tp6197
Rp6198
tp6199
a(g56
g6
(g18
S'\x88\xa4\x91<'
p6200
tp6201
Rp6202
tp6203
a(g44
g6
(g18
S'\x19N\x01<'
p6204
tp6205
Rp6206
tp6207
a(g68
g6
(g18
S'\xcbo\xe4;'
p6208
tp6209
Rp6210
tp6211
asg73
g15
sa(dp6212
g2
S'../../../data/emanuela/activity-recognition/images/NTCIR-Lifelog-256/u2/2015-06-16/b00001838_21i7lf_20150616_225426e.jpg'
p6213
sg4
(lp6214
(g15
g6
(g18
S'\xa0\x89w?'
p6215
tp6216
Rp6217
tp6218
a(g32
g6
(g18
S'\xb7\xffv<'
p6219
tp6220
Rp6221
tp6222
a(g56
g6
(g18
S'\x17UC<'
p6223
tp6224
Rp6225
tp6226
a(g68
g6
(g18
S'\xc1\xfa\x1c;'
p6227
tp6228
Rp6229
tp6230
a(g96
g6
(g18
S'\xe2\xd8\x9e:'
p6231
tp6232
Rp6233
tp6234
asg73
g15
sa(dp6235
g2
S'../../../data/emanuela/activity-recognition/images/NTCIR-Lifelog-256/u2/2015-06-16/b00001741_21i7lf_20150616_141303e.jpg'
p6236
sg4
(lp6237
(g15
g6
(g18
S"']R?"
p6238
tp6239
Rp6240
tp6241
a(g32
g6
(g18
S'gH\x02>'
p6242
tp6243
Rp6244
tp6245
a(g56
g6
(g18
S'\x85\x86\x13='
p6246
tp6247
Rp6248
tp6249
a(g68
g6
(g18
S'\x14\xea\x9e;'
p6250
tp6251
Rp6252
tp6253
a(g44
g6
(g18
S'\x1d\xbc^;'
p6254
tp6255
Rp6256
tp6257
asg73
g15
sa(dp6258
g2
S'../../../data/emanuela/activity-recognition/images/NTCIR-Lifelog-256/u2/2015-06-16/b00001693_21i7lf_20150616_132241e.jpg'
p6259
sg4
(lp6260
(g15
g6
(g18
S'\x90\xack?'
p6261
tp6262
Rp6263
tp6264
a(g56
g6
(g18
S'`{\x11='
p6265
tp6266
Rp6267
tp6268
a(g44
g6
(g18
S'\xf3~\xd9<'
p6269
tp6270
Rp6271
tp6272
a(g32
g6
(g18
S'\xdb\x9d\x18<'
p6273
tp6274
Rp6275
tp6276
a(g68
g6
(g18
S'm%\xc4:'
p6277
tp6278
Rp6279
tp6280
asg73
g15
sa(dp6281
g2
S'../../../data/emanuela/activity-recognition/images/NTCIR-Lifelog-256/u2/2015-06-16/b00001700_21i7lf_20150616_132650e.jpg'
p6282
sg4
(lp6283
(g15
g6
(g18
S'\x03\x0fa?'
p6284
tp6285
Rp6286
tp6287
a(g32
g6
(g18
S'\x8a\xe2\xdd='
p6288
tp6289
Rp6290
tp6291
a(g96
g6
(g18
S'&\xc4w;'
p6292
tp6293
Rp6294
tp6295
a(g44
g6
(g18
S'{Kk;'
p6296
tp6297
Rp6298
tp6299
a(g56
g6
(g18
S'\x9ek`;'
p6300
tp6301
Rp6302
tp6303
asg73
g15
sa(dp6304
g2
S'../../../data/emanuela/activity-recognition/images/NTCIR-Lifelog-256/u2/2015-06-16/b00001771_21i7lf_20150616_145518e.jpg'
p6305
sg4
(lp6306
(g15
g6
(g18
S'a\x94\x7f?'
p6307
tp6308
Rp6309
tp6310
a(g68
g6
(g18
S'\x1c\xceQ:'
p6311
tp6312
Rp6313
tp6314
a(g44
g6
(g18
S'^\xe3\x1d:'
p6315
tp6316
Rp6317
tp6318
a(g56
g6
(g18
S'\xcb\x9f\xaf8'
p6319
tp6320
Rp6321
tp6322
a(g154
g6
(g18
S'\x00\x86\xa38'
p6323
tp6324
Rp6325
tp6326
asg73
g15
sa.