(lp0
(dp1
S'image'
p2
S'../../../data/emanuela/activity-recognition/images/NTCIR-Lifelog-256/u2/2015-04-22/b00000574_21i7lf_20150422_183907e.jpg'
p3
sS'result'
p4
(lp5
(cnumpy.core.multiarray
scalar
p6
(cnumpy
dtype
p7
(S'S15'
p8
I0
I1
tp9
Rp10
(I3
S'|'
p11
NNNI15
I1
I0
tp12
bS'walking outdoor'
p13
tp14
Rp15
g6
(g7
(S'f4'
p16
I0
I1
tp17
Rp18
(I3
S'<'
p19
NNNI-1
I-1
I0
tp20
bS'\xad[}?'
p21
tp22
Rp23
tp24
a(g6
(g7
(S'S7'
p25
I0
I1
tp26
Rp27
(I3
S'|'
p28
NNNI7
I1
I0
tp29
bS'driving'
p30
tp31
Rp32
g6
(g18
S'l\x87\xc4;'
p33
tp34
Rp35
tp36
a(g6
(g7
(S'S24'
p37
I0
I1
tp38
Rp39
(I3
S'|'
p40
NNNI24
I1
I0
tp41
bS'having drinks/meal alone'
p42
tp43
Rp44
g6
(g18
S'rv-;'
p45
tp46
Rp47
tp48
a(g6
(g7
(S'S6'
p49
I0
I1
tp50
Rp51
(I3
S'|'
p52
NNNI6
I1
I0
tp53
bS'mobile'
p54
tp55
Rp56
g6
(g18
S'\\\xf5\x9e:'
p57
tp58
Rp59
tp60
a(g6
(g7
(S'S14'
p61
I0
I1
tp62
Rp63
(I3
S'|'
p64
NNNI14
I1
I0
tp65
bS'walking indoor'
p66
tp67
Rp68
g6
(g18
S'\xcc}\xcd8'
p69
tp70
Rp71
tp72
asS'label'
p73
g6
(g7
(S'S6'
p74
I0
I1
tp75
Rp76
(I3
S'|'
p77
NNNI6
I1
I0
tp78
bS'biking'
p79
tp80
Rp81
sa(dp82
g2
S'../../../data/emanuela/activity-recognition/images/NTCIR-Lifelog-256/u2/2015-04-30/b00000774_21i7lf_20150430_104205e.jpg'
p83
sg4
(lp84
(g15
g6
(g18
S'\x0b\xaae?'
p85
tp86
Rp87
tp88
a(g44
g6
(g18
S'~\x0f(='
p89
tp90
Rp91
tp92
a(g32
g6
(g18
S's\x0b\x9b<'
p93
tp94
Rp95
tp96
a(g56
g6
(g18
S'"\xac\x95<'
p97
tp98
Rp99
tp100
a(g6
(g7
(S'S27'
p101
I0
I1
tp102
Rp103
(I3
S'|'
p104
NNNI27
I1
I0
tp105
bS'having drinks with somebody'
p106
tp107
Rp108
g6
(g18
S'T\xf1\xe4;'
p109
tp110
Rp111
tp112
asg73
g81
sa(dp113
g2
S'../../../data/emanuela/activity-recognition/images/NTCIR-Lifelog-256/u2/2015-04-22/b00000565_21i7lf_20150422_183336e.jpg'
p114
sg4
(lp115
(g15
g6
(g18
S'\x8a\xa2\x7f?'
p116
tp117
Rp118
tp119
a(g56
g6
(g18
S'|&\x83:'
p120
tp121
Rp122
tp123
a(g32
g6
(g18
S's\xd0T9'
p124
tp125
Rp126
tp127
a(g44
g6
(g18
S'\xcdn\x039'
p128
tp129
Rp130
tp131
a(g6
(g7
(S'S11'
p132
I0
I1
tp133
Rp134
(I3
S'|'
p135
NNNI11
I1
I0
tp136
bS'socializing'
p137
tp138
Rp139
g6
(g18
S'9\xc268'
p140
tp141
Rp142
tp143
asg73
g81
sa(dp144
g2
S'../../../data/emanuela/activity-recognition/images/NTCIR-Lifelog-256/u2/2015-05-07/b00007294_21i7lf_20150507_082351e.jpg'
p145
sg4
(lp146
(g32
g6
(g18
S"\x7f\xcb'?"
p147
tp148
Rp149
tp150
a(g15
g6
(g18
S'\xed\xde\x92>'
p151
tp152
Rp153
tp154
a(g44
g6
(g18
S'\xb4\xc7\x05='
p155
tp156
Rp157
tp158
a(g56
g6
(g18
S'\xe8\x13\x82<'
p159
tp160
Rp161
tp162
a(g6
(g7
(S'S19'
p163
I0
I1
tp164
Rp165
(I3
S'|'
p166
NNNI19
I1
I0
tp167
bS'cleaning and chores'
p168
tp169
Rp170
g6
(g18
S'e\x1c\x10;'
p171
tp172
Rp173
tp174
asg73
g81
sa(dp175
g2
S'../../../data/emanuela/activity-recognition/images/NTCIR-Lifelog-256/u2/2015-04-27/b00004961_21i7lf_20150427_085934e.jpg'
p176
sg4
(lp177
(g15
g6
(g18
S'\x0e\xe8u?'
p178
tp179
Rp180
tp181
a(g139
g6
(g18
S'\xc5\xe3\xce<'
p182
tp183
Rp184
tp185
a(g32
g6
(g18
S'x+u;'
p186
tp187
Rp188
tp189
a(g6
(g7
(S'S16'
p190
I0
I1
tp191
Rp192
(I3
S'|'
p193
NNNI16
I1
I0
tp194
bS'public transport'
p195
tp196
Rp197
g6
(g18
S'\xaaFp;'
p198
tp199
Rp200
tp201
a(g44
g6
(g18
S'=T\xf2:'
p202
tp203
Rp204
tp205
asg73
g81
sa(dp206
g2
S'../../../data/emanuela/activity-recognition/images/NTCIR-Lifelog-256/u2/2015-05-05/b00005077_21i7lf_20150505_090402e.jpg'
p207
sg4
(lp208
(g170
g6
(g18
S'_\xc0Q?'
p209
tp210
Rp211
tp212
a(g6
(g7
(S'S7'
p213
I0
I1
tp214
Rp215
(I3
S'|'
p216
NNNI7
I1
I0
tp217
bS'cooking'
p218
tp219
Rp220
g6
(g18
S'\xef\xdf\x00>'
p221
tp222
Rp223
tp224
a(g68
g6
(g18
S'*\x0fz<'
p225
tp226
Rp227
tp228
a(g6
(g7
(S'S8'
p229
I0
I1
tp230
Rp231
(I3
S'|'
p232
NNNI8
I1
I0
tp233
bS'shopping'
p234
tp235
Rp236
g6
(g18
S'#\xad\n<'
p237
tp238
Rp239
tp240
a(g56
g6
(g18
S'? \xf5;'
p241
tp242
Rp243
tp244
asg73
g81
sa(dp245
g2
S'../../../data/emanuela/activity-recognition/images/NTCIR-Lifelog-256/u2/2015-04-29/b00000847_21i7lf_20150429_161654e.jpg'
p246
sg4
(lp247
(g15
g6
(g18
S'\x86\xc9\x7f?'
p248
tp249
Rp250
tp251
a(g56
g6
(g18
S'd\x04\xb19'
p252
tp253
Rp254
tp255
a(g44
g6
(g18
S'\xfa\x85\x879'
p256
tp257
Rp258
tp259
a(g32
g6
(g18
S'b=\xff8'
p260
tp261
Rp262
tp263
a(g139
g6
(g18
S'\x08*/8'
p264
tp265
Rp266
tp267
asg73
g81
sa(dp268
g2
S'../../../data/emanuela/activity-recognition/images/NTCIR-Lifelog-256/u2/2015-04-27/b00005886_21i7lf_20150427_183258e.jpg'
p269
sg4
(lp270
(g15
g6
(g18
S'\xde\xad:?'
p271
tp272
Rp273
tp274
a(g44
g6
(g18
S'\xbf\xa8\xc4='
p275
tp276
Rp277
tp278
a(g56
g6
(g18
S'#k\xb7='
p279
tp280
Rp281
tp282
a(g32
g6
(g18
S'w\xcb_='
p283
tp284
Rp285
tp286
a(g108
g6
(g18
S'\x96`j<'
p287
tp288
Rp289
tp290
asg73
g81
sa(dp291
g2
S'../../../data/emanuela/activity-recognition/images/NTCIR-Lifelog-256/u2/2015-05-05/b00005922_21i7lf_20150505_181209e.jpg'
p292
sg4
(lp293
(g15
g6
(g18
S'\x86\xf9~?'
p294
tp295
Rp296
tp297
a(g32
g6
(g18
S'o\xe2\xa9:'
p298
tp299
Rp300
tp301
a(g139
g6
(g18
S'\x04\xaa\x7f:'
p302
tp303
Rp304
tp305
a(g56
g6
(g18
S'=\xd0&:'
p306
tp307
Rp308
tp309
a(g44
g6
(g18
S'8\xfb\x16:'
p310
tp311
Rp312
tp313
asg73
g81
sa(dp314
g2
S'../../../data/emanuela/activity-recognition/images/NTCIR-Lifelog-256/u2/2015-05-01/b00001748_21i7lf_20150501_084719e.jpg'
p315
sg4
(lp316
(g15
g6
(g18
S'\xb3\xc2\x7f?'
p317
tp318
Rp319
tp320
a(g56
g6
(g18
S'\xd4\xc4\x949'
p321
tp322
Rp323
tp324
a(g32
g6
(g18
S'\t9{9'
p325
tp326
Rp327
tp328
a(g44
g6
(g18
S'\xbcp\xdf8'
p329
tp330
Rp331
tp332
a(g68
g6
(g18
S'\xe2)\x938'
p333
tp334
Rp335
tp336
asg73
g81
sa(dp337
g2
S'../../../data/emanuela/activity-recognition/images/NTCIR-Lifelog-256/u2/2015-05-05/b00005935_21i7lf_20150505_182042e.jpg'
p338
sg4
(lp339
(g15
g6
(g18
S'\xcb^Y?'
p340
tp341
Rp342
tp343
a(g32
g6
(g18
S'\x83y\x06>'
p344
tp345
Rp346
tp347
a(g56
g6
(g18
S'&\x94\xe2;'
p348
tp349
Rp350
tp351
a(g197
g6
(g18
S'\\\x87\xb7;'
p352
tp353
Rp354
tp355
a(g44
g6
(g18
S'\xf1\xac\x1f;'
p356
tp357
Rp358
tp359
asg73
g81
sa(dp360
g2
S'../../../data/emanuela/activity-recognition/images/NTCIR-Lifelog-256/u2/2015-04-30/b00000769_21i7lf_20150430_103859e.jpg'
p361
sg4
(lp362
(g15
g6
(g18
S'\xe8%x?'
p363
tp364
Rp365
tp366
a(g139
g6
(g18
S'\xd7o\x7f<'
p367
tp368
Rp369
tp370
a(g56
g6
(g18
S'\x90\xf1\xa4;'
p371
tp372
Rp373
tp374
a(g44
g6
(g18
S'xC\x8f;'
p375
tp376
Rp377
tp378
a(g108
g6
(g18
S'\xa0\x0eC;'
p379
tp380
Rp381
tp382
asg73
g81
sa(dp383
g2
S'../../../data/emanuela/activity-recognition/images/NTCIR-Lifelog-256/u2/2015-04-22/b00000566_21i7lf_20150422_183413e.jpg'
p384
sg4
(lp385
(g15
g6
(g18
S'\xa0\xa7~?'
p386
tp387
Rp388
tp389
a(g32
g6
(g18
S'\xd8\xdb\x8a;'
p390
tp391
Rp392
tp393
a(g44
g6
(g18
S'J\x84\xb49'
p394
tp395
Rp396
tp397
a(g56
g6
(g18
S'k\x93\xa69'
p398
tp399
Rp400
tp401
a(g68
g6
(g18
S'\x07\x03\xf68'
p402
tp403
Rp404
tp405
asg73
g81
sa(dp406
g2
S'../../../data/emanuela/activity-recognition/images/NTCIR-Lifelog-256/u2/2015-05-05/b00005933_21i7lf_20150505_181921e.jpg'
p407
sg4
(lp408
(g15
g6
(g18
S'e\x8a\x1d?'
p409
tp410
Rp411
tp412
a(g108
g6
(g18
S'\xafl\x14>'
p413
tp414
Rp415
tp416
a(g44
g6
(g18
S'\xf5!\xaf='
p417
tp418
Rp419
tp420
a(g32
g6
(g18
S'\xf1\xf7\x86='
p421
tp422
Rp423
tp424
a(g197
g6
(g18
S'V\xe6\\='
p425
tp426
Rp427
tp428
asg73
g81
sa(dp429
g2
S'../../../data/emanuela/activity-recognition/images/NTCIR-Lifelog-256/u2/2015-05-05/b00005925_21i7lf_20150505_181430e.jpg'
p430
sg4
(lp431
(g15
g6
(g18
S'KgY?'
p432
tp433
Rp434
tp435
a(g32
g6
(g18
S'mi\x89='
p436
tp437
Rp438
tp439
a(g44
g6
(g18
S'7Nu='
p440
tp441
Rp442
tp443
a(g56
g6
(g18
S'\x86\xaf\x1e<'
p444
tp445
Rp446
tp447
a(g6
(g7
(S'S25'
p448
I0
I1
tp449
Rp450
(I3
S'|'
p451
NNNI25
I1
I0
tp452
bS'having meal with somebody'
p453
tp454
Rp455
g6
(g18
S'=>\xc6;'
p456
tp457
Rp458
tp459
asg73
g81
sa(dp460
g2
S'../../../data/emanuela/activity-recognition/images/NTCIR-Lifelog-256/u2/2015-04-27/b00005887_21i7lf_20150427_183340e.jpg'
p461
sg4
(lp462
(g15
g6
(g18
S'\xa2F~?'
p463
tp464
Rp465
tp466
a(g44
g6
(g18
S'\x8drW;'
p467
tp468
Rp469
tp470
a(g32
g6
(g18
S'Y~\x90:'
p471
tp472
Rp473
tp474
a(g170
g6
(g18
S"\xfd'\x01:"
p475
tp476
Rp477
tp478
a(g56
g6
(g18
S'\xed\xd4\xe89'
p479
tp480
Rp481
tp482
asg73
g81
sa(dp483
g2
S'../../../data/emanuela/activity-recognition/images/NTCIR-Lifelog-256/u2/2015-05-05/b00005927_21i7lf_20150505_181542e.jpg'
p484
sg4
(lp485
(g15
g6
(g18
S'.\x1c^?'
p486
tp487
Rp488
tp489
a(g32
g6
(g18
S']\xc7\x92='
p490
tp491
Rp492
tp493
a(g44
g6
(g18
S'\xdf\xc5!='
p494
tp495
Rp496
tp497
a(g56
g6
(g18
S'\xef\xd0u<'
p498
tp499
Rp500
tp501
a(g68
g6
(g18
S'\xbcr\xbc:'
p502
tp503
Rp504
tp505
asg73
g81
sa(dp506
g2
S'../../../data/emanuela/activity-recognition/images/NTCIR-Lifelog-256/u2/2015-04-30/b00001521_21i7lf_20150430_184419e.jpg'
p507
sg4
(lp508
(g15
g6
(g18
S'\x12xB?'
p509
tp510
Rp511
tp512
a(g197
g6
(g18
S'\x9a)\x0c>'
p513
tp514
Rp515
tp516
a(g56
g6
(g18
S'>\x1a\xf5<'
p517
tp518
Rp519
tp520
a(g32
g6
(g18
S'\x13\x01\xe1<'
p521
tp522
Rp523
tp524
a(g108
g6
(g18
S'\xd8\x01\x84<'
p525
tp526
Rp527
tp528
asg73
g81
sa(dp529
g2
S'../../../data/emanuela/activity-recognition/images/NTCIR-Lifelog-256/u2/2015-04-30/b00001516_21i7lf_20150430_184115e.jpg'
p530
sg4
(lp531
(g15
g6
(g18
S"\xb9's?"
p532
tp533
Rp534
tp535
a(g32
g6
(g18
S'\x93\xe4\xbd<'
p536
tp537
Rp538
tp539
a(g56
g6
(g18
S'\xa8\xe5`<'
p540
tp541
Rp542
tp543
a(g44
g6
(g18
S'p\xe30<'
p544
tp545
Rp546
tp547
a(g455
g6
(g18
S'q\xfd\x0b:'
p548
tp549
Rp550
tp551
asg73
g81
sa(dp552
g2
S'../../../data/emanuela/activity-recognition/images/NTCIR-Lifelog-256/u2/2015-04-30/b00001518_21i7lf_20150430_184230e.jpg'
p553
sg4
(lp554
(g15
g6
(g18
S'\x97Y}?'
p555
tp556
Rp557
tp558
a(g32
g6
(g18
S'UP\x02<'
p559
tp560
Rp561
tp562
a(g44
g6
(g18
S'R8\xb1:'
p563
tp564
Rp565
tp566
a(g56
g6
(g18
S'\x12G\x0c:'
p567
tp568
Rp569
tp570
a(g68
g6
(g18
S'u\x1f\x1e9'
p571
tp572
Rp573
tp574
asg73
g81
sa(dp575
g2
S'../../../data/emanuela/activity-recognition/images/NTCIR-Lifelog-256/u2/2015-04-29/b00000230_21i7lf_20150429_095110e.jpg'
p576
sg4
(lp577
(g15
g6
(g18
S'\xbf~\x7f?'
p578
tp579
Rp580
tp581
a(g56
g6
(g18
S'\xc2;b:'
p582
tp583
Rp584
tp585
a(g44
g6
(g18
S'\xcf\xa4\\:'
p586
tp587
Rp588
tp589
a(g139
g6
(g18
S'\xcc\xa8\x029'
p590
tp591
Rp592
tp593
a(g32
g6
(g18
S'\xe6\xc5{8'
p594
tp595
Rp596
tp597
asg73
g81
sa(dp598
g2
S'../../../data/emanuela/activity-recognition/images/NTCIR-Lifelog-256/u2/2015-04-27/b00004960_21i7lf_20150427_085900e.jpg'
p599
sg4
(lp600
(g15
g6
(g18
S'\xa1KK?'
p601
tp602
Rp603
tp604
a(g139
g6
(g18
S'\xcaB\x1e>'
p605
tp606
Rp607
tp608
a(g197
g6
(g18
S'\xea*v<'
p609
tp610
Rp611
tp612
a(g56
g6
(g18
S'\x08\xa2j<'
p613
tp614
Rp615
tp616
a(g68
g6
(g18
S'\xcd\xa5\x04<'
p617
tp618
Rp619
tp620
asg73
g81
sa(dp621
g2
S'../../../data/emanuela/activity-recognition/images/NTCIR-Lifelog-256/u2/2015-04-27/b00005878_21i7lf_20150427_182805e.jpg'
p622
sg4
(lp623
(g15
g6
(g18
S')\xee\x7f?'
p624
tp625
Rp626
tp627
a(g32
g6
(g18
S'\x99F\xc98'
p628
tp629
Rp630
tp631
a(g44
g6
(g18
S'\xf3C\xb88'
p632
tp633
Rp634
tp635
a(g197
g6
(g18
S'\x91}\xda7'
p636
tp637
Rp638
tp639
a(g68
g6
(g18
S'\xacu\x997'
p640
tp641
Rp642
tp643
asg73
g81
sa(dp644
g2
S'../../../data/emanuela/activity-recognition/images/NTCIR-Lifelog-256/u2/2015-04-27/b00005874_21i7lf_20150427_182532e.jpg'
p645
sg4
(lp646
(g15
g6
(g18
S'\x91\xda_?'
p647
tp648
Rp649
tp650
a(g44
g6
(g18
S'C\xbc=='
p651
tp652
Rp653
tp654
a(g32
g6
(g18
S'@y\x05='
p655
tp656
Rp657
tp658
a(g56
g6
(g18
S'\xeb/m<'
p659
tp660
Rp661
tp662
a(g197
g6
(g18
S'\xae0+<'
p663
tp664
Rp665
tp666
asg73
g81
sa(dp667
g2
S'../../../data/emanuela/activity-recognition/images/NTCIR-Lifelog-256/u2/2015-04-28/b00006307_21i7lf_20150428_090020e.jpg'
p668
sg4
(lp669
(g15
g6
(g18
S'e(\n?'
p670
tp671
Rp672
tp673
a(g32
g6
(g18
S'\xed\xbf\x96>'
p674
tp675
Rp676
tp677
a(g56
g6
(g18
S'\x98\xed\xa9='
p678
tp679
Rp680
tp681
a(g44
g6
(g18
S'\xf3\xdb\x15='
p682
tp683
Rp684
tp685
a(g108
g6
(g18
S'\x0c\xc7H<'
p686
tp687
Rp688
tp689
asg73
g81
sa(dp690
g2
S'../../../data/emanuela/activity-recognition/images/NTCIR-Lifelog-256/u2/2015-04-27/b00004951_21i7lf_20150427_085332e.jpg'
p691
sg4
(lp692
(g15
g6
(g18
S'\x18\xb8\x13?'
p693
tp694
Rp695
tp696
a(g44
g6
(g18
S'<\x9e\x95>'
p697
tp698
Rp699
tp700
a(g32
g6
(g18
S'\x84\x136='
p701
tp702
Rp703
tp704
a(g139
g6
(g18
S'c\xfd\xc5<'
p705
tp706
Rp707
tp708
a(g108
g6
(g18
S'\xb9Ih<'
p709
tp710
Rp711
tp712
asg73
g81
sa(dp713
g2
S'../../../data/emanuela/activity-recognition/images/NTCIR-Lifelog-256/u2/2015-04-27/b00005876_21i7lf_20150427_182643e.jpg'
p714
sg4
(lp715
(g15
g6
(g18
S'\n\xde}?'
p716
tp717
Rp718
tp719
a(g44
g6
(g18
S'QJb;'
p720
tp721
Rp722
tp723
a(g32
g6
(g18
S'\x0b\xf0\xe8:'
p724
tp725
Rp726
tp727
a(g197
g6
(g18
S'\xd7\x1a\xda:'
p728
tp729
Rp730
tp731
a(g56
g6
(g18
S'\x868\x0f:'
p732
tp733
Rp734
tp735
asg73
g81
sa(dp736
g2
S'../../../data/emanuela/activity-recognition/images/NTCIR-Lifelog-256/u2/2015-04-28/b00006302_21i7lf_20150428_085710e.jpg'
p737
sg4
(lp738
(g15
g6
(g18
S'&\x88M?'
p739
tp740
Rp741
tp742
a(g44
g6
(g18
S'\x8e\xb2\xd4='
p743
tp744
Rp745
tp746
a(g32
g6
(g18
S'd\xa8,='
p747
tp748
Rp749
tp750
a(g68
g6
(g18
S'\xa5;\xc5<'
p751
tp752
Rp753
tp754
a(g108
g6
(g18
S'\xa8\r\xa3;'
p755
tp756
Rp757
tp758
asg73
g81
sa(dp759
g2
S'../../../data/emanuela/activity-recognition/images/NTCIR-Lifelog-256/u2/2015-04-28/b00006309_21i7lf_20150428_090139e.jpg'
p760
sg4
(lp761
(g15
g6
(g18
S'8\xc8\x7f?'
p762
tp763
Rp764
tp765
a(g139
g6
(g18
S'\x9d\xa6\x909'
p766
tp767
Rp768
tp769
a(g44
g6
(g18
S'\xd2C89'
p770
tp771
Rp772
tp773
a(g56
g6
(g18
S'\xef\x9e\xef8'
p774
tp775
Rp776
tp777
a(g32
g6
(g18
S'9\xc3\xa88'
p778
tp779
Rp780
tp781
asg73
g81
sa(dp782
g2
S'../../../data/emanuela/activity-recognition/images/NTCIR-Lifelog-256/u2/2015-05-05/b00005087_21i7lf_20150505_091004e.jpg'
p783
sg4
(lp784
(g15
g6
(g18
S'\xd1\xe4\n?'
p785
tp786
Rp787
tp788
a(g32
g6
(g18
S'\xa4\xd92>'
p789
tp790
Rp791
tp792
a(g56
g6
(g18
S'\xe0%\xb3='
p793
tp794
Rp795
tp796
a(g44
g6
(g18
S'\x1e\xbf\xa1='
p797
tp798
Rp799
tp800
a(g108
g6
(g18
S'\x1a\x0b|='
p801
tp802
Rp803
tp804
asg73
g81
sa(dp805
g2
S'../../../data/emanuela/activity-recognition/images/NTCIR-Lifelog-256/u2/2015-05-01/b00001759_21i7lf_20150501_085415e.jpg'
p806
sg4
(lp807
(g15
g6
(g18
S'Nr}?'
p808
tp809
Rp810
tp811
a(g32
g6
(g18
S'\x1cR\x94;'
p812
tp813
Rp814
tp815
a(g44
g6
(g18
S'\x86ZI;'
p816
tp817
Rp818
tp819
a(g56
g6
(g18
S'\x99\xbb\x08;'
p820
tp821
Rp822
tp823
a(g68
g6
(g18
S'\xc5\xdb\x049'
p824
tp825
Rp826
tp827
asg73
g81
sa(dp828
g2
S'../../../data/emanuela/activity-recognition/images/NTCIR-Lifelog-256/u2/2015-05-01/b00002416_21i7lf_20150501_163436e.jpg'
p829
sg4
(lp830
(g15
g6
(g18
S'\xa9Cz?'
p831
tp832
Rp833
tp834
a(g44
g6
(g18
S'R\x95\x83<'
p835
tp836
Rp837
tp838
a(g32
g6
(g18
S' \xd1C;'
p839
tp840
Rp841
tp842
a(g68
g6
(g18
S'K\xcf\x9f:'
p843
tp844
Rp845
tp846
a(g56
g6
(g18
S'\x8b#[:'
p847
tp848
Rp849
tp850
asg73
g81
sa(dp851
g2
S'../../../data/emanuela/activity-recognition/images/NTCIR-Lifelog-256/u2/2015-05-07/b00007301_21i7lf_20150507_082824e.jpg'
p852
sg4
(lp853
(g15
g6
(g18
S'\xc8-}?'
p854
tp855
Rp856
tp857
a(g56
g6
(g18
S'R+\xc0;'
p858
tp859
Rp860
tp861
a(g44
g6
(g18
S'\xbb\xad\x83;'
p862
tp863
Rp864
tp865
a(g32
g6
(g18
S'&\xd9\x0b:'
p866
tp867
Rp868
tp869
a(g139
g6
(g18
S'V\x00\x0f9'
p870
tp871
Rp872
tp873
asg73
g81
sa(dp874
g2
S'../../../data/emanuela/activity-recognition/images/NTCIR-Lifelog-256/u2/2015-05-05/b00005093_21i7lf_20150505_091403e.jpg'
p875
sg4
(lp876
(g44
g6
(g18
S'2\x9a\x85>'
p877
tp878
Rp879
tp880
a(g170
g6
(g18
S'p\xde$>'
p881
tp882
Rp883
tp884
a(g56
g6
(g18
S'\xda\xe8\xfd='
p885
tp886
Rp887
tp888
a(g220
g6
(g18
S'\x8f\x19\xe0='
p889
tp890
Rp891
tp892
a(g108
g6
(g18
S'\x8d\xf6\xdd='
p893
tp894
Rp895
tp896
asg73
g81
sa(dp897
g2
S'../../../data/emanuela/activity-recognition/images/NTCIR-Lifelog-256/u2/2015-04-29/b00000843_21i7lf_20150429_161410e.jpg'
p898
sg4
(lp899
(g15
g6
(g18
S'\x08\xf3\xf3>'
p900
tp901
Rp902
tp903
a(g68
g6
(g18
S'\xd4\xd9\xbb>'
p904
tp905
Rp906
tp907
a(g170
g6
(g18
S'0\xdfe='
p908
tp909
Rp910
tp911
a(g44
g6
(g18
S's\xb4c='
p912
tp913
Rp914
tp915
a(g56
g6
(g18
S'\x0c\xda\xd1<'
p916
tp917
Rp918
tp919
asg73
g81
sa(dp920
g2
S'../../../data/emanuela/activity-recognition/images/NTCIR-Lifelog-256/u2/2015-04-29/b00000846_21i7lf_20150429_161620e.jpg'
p921
sg4
(lp922
(g15
g6
(g18
S'\xb8\xb4\x7f?'
p923
tp924
Rp925
tp926
a(g32
g6
(g18
S'6\x84\x1d:'
p927
tp928
Rp929
tp930
a(g44
g6
(g18
S'\xf4\xc1\x979'
p931
tp932
Rp933
tp934
a(g56
g6
(g18
S'l\x1f29'
p935
tp936
Rp937
tp938
a(g68
g6
(g18
S'\x83\x92\xe77'
p939
tp940
Rp941
tp942
asg73
g81
sa(dp943
g2
S'../../../data/emanuela/activity-recognition/images/NTCIR-Lifelog-256/u2/2015-04-30/b00000777_21i7lf_20150430_104350e.jpg'
p944
sg4
(lp945
(g15
g6
(g18
S'\x0c~L?'
p946
tp947
Rp948
tp949
a(g56
g6
(g18
S'\xa1T\xc5='
p950
tp951
Rp952
tp953
a(g44
g6
(g18
S'\xe1\x80\x92='
p954
tp955
Rp956
tp957
a(g32
g6
(g18
S'\x91\x85\xaa<'
p958
tp959
Rp960
tp961
a(g108
g6
(g18
S'z9\x98;'
p962
tp963
Rp964
tp965
asg73
g81
sa(dp966
g2
S'../../../data/emanuela/activity-recognition/images/NTCIR-Lifelog-256/u2/2015-05-07/b00007303_21i7lf_20150507_082942e.jpg'
p967
sg4
(lp968
(g15
g6
(g18
S'3=y?'
p969
tp970
Rp971
tp972
a(g44
g6
(g18
S'\xd36+<'
p973
tp974
Rp975
tp976
a(g32
g6
(g18
S'\x051\x0f<'
p977
tp978
Rp979
tp980
a(g56
g6
(g18
S'Y\xd5\xb3;'
p981
tp982
Rp983
tp984
a(g139
g6
(g18
S't*<:'
p985
tp986
Rp987
tp988
asg73
g81
sa(dp989
g2
S'../../../data/emanuela/activity-recognition/images/NTCIR-Lifelog-256/u2/2015-05-01/b00001758_21i7lf_20150501_085334e.jpg'
p990
sg4
(lp991
(g15
g6
(g18
S'6\xf5y?'
p992
tp993
Rp994
tp995
a(g44
g6
(g18
S'v\x0fq<'
p996
tp997
Rp998
tp999
a(g56
g6
(g18
S']c\xa0;'
p1000
tp1001
Rp1002
tp1003
a(g32
g6
(g18
S'{\x9e\xed:'
p1004
tp1005
Rp1006
tp1007
a(g108
g6
(g18
S'\xf6Y~:'
p1008
tp1009
Rp1010
tp1011
asg73
g81
sa(dp1012
g2
S'../../../data/emanuela/activity-recognition/images/NTCIR-Lifelog-256/u2/2015-05-01/b00001752_21i7lf_20150501_085000e.jpg'
p1013
sg4
(lp1014
(g15
g6
(g18
S'\x86\xd8C?'
p1015
tp1016
Rp1017
tp1018
a(g32
g6
(g18
S'\x9e{\xf0='
p1019
tp1020
Rp1021
tp1022
a(g44
g6
(g18
S'\x02\x12\xce='
p1023
tp1024
Rp1025
tp1026
a(g56
g6
(g18
S'\xe7r\xf5;'
p1027
tp1028
Rp1029
tp1030
a(g455
g6
(g18
S'9N\x9f;'
p1031
tp1032
Rp1033
tp1034
asg73
g81
sa(dp1035
g2
S'../../../data/emanuela/activity-recognition/images/NTCIR-Lifelog-256/u2/2015-05-05/b00005920_21i7lf_20150505_181030e.jpg'
p1036
sg4
(lp1037
(g32
g6
(g18
S'1\xb8\x03?'
p1038
tp1039
Rp1040
tp1041
a(g56
g6
(g18
S'\x83\xd9\xa1>'
p1042
tp1043
Rp1044
tp1045
a(g44
g6
(g18
S'\x7f\xbea='
p1046
tp1047
Rp1048
tp1049
a(g6
(g7
(S'S7'
p1050
I0
I1
tp1051
Rp1052
(I3
S'|'
p1053
NNNI7
I1
I0
tp1054
bS'resting'
p1055
tp1056
Rp1057
g6
(g18
S'\x9am\x19='
p1058
tp1059
Rp1060
tp1061
a(g15
g6
(g18
S'\xd4&\xde<'
p1062
tp1063
Rp1064
tp1065
asg73
g81
sa(dp1066
g2
S'../../../data/emanuela/activity-recognition/images/NTCIR-Lifelog-256/u2/2015-04-27/b00004957_21i7lf_20150427_085705e.jpg'
p1067
sg4
(lp1068
(g15
g6
(g18
S'\xfdBf?'
p1069
tp1070
Rp1071
tp1072
a(g32
g6
(g18
S'\xb2C\xfa<'
p1073
tp1074
Rp1075
tp1076
a(g197
g6
(g18
S'\x1d\xe6\xf3<'
p1077
tp1078
Rp1079
tp1080
a(g44
g6
(g18
S'\xa1\xb3W<'
p1081
tp1082
Rp1083
tp1084
a(g139
g6
(g18
S'\xe9!\xea;'
p1085
tp1086
Rp1087
tp1088
asg73
g81
sa(dp1089
g2
S'../../../data/emanuela/activity-recognition/images/NTCIR-Lifelog-256/u2/2015-05-01/b00001749_21i7lf_20150501_084759e.jpg'
p1090
sg4
(lp1091
(g15
g6
(g18
S"'\xf0\x7f?"
p1092
tp1093
Rp1094
tp1095
a(g32
g6
(g18
S'\x05:\xda8'
p1096
tp1097
Rp1098
tp1099
a(g44
g6
(g18
S'$4\xd18'
p1100
tp1101
Rp1102
tp1103
a(g68
g6
(g18
S'~Pw7'
p1104
tp1105
Rp1106
tp1107
a(g56
g6
(g18
S'pPp7'
p1108
tp1109
Rp1110
tp1111
asg73
g81
sa(dp1112
g2
S'../../../data/emanuela/activity-recognition/images/NTCIR-Lifelog-256/u2/2015-04-30/b00000775_21i7lf_20150430_104237e.jpg'
p1113
sg4
(lp1114
(g15
g6
(g18
S'\x96\x15P?'
p1115
tp1116
Rp1117
tp1118
a(g32
g6
(g18
S'v6\x9d='
p1119
tp1120
Rp1121
tp1122
a(g44
g6
(g18
S'\xe8r\x89='
p1123
tp1124
Rp1125
tp1126
a(g56
g6
(g18
S'Fh\x8d<'
p1127
tp1128
Rp1129
tp1130
a(g6
(g7
(S'S7'
p1131
I0
I1
tp1132
Rp1133
(I3
S'|'
p1134
NNNI7
I1
I0
tp1135
bS'talking'
p1136
tp1137
Rp1138
g6
(g18
S'\xe7\x92\x9f;'
p1139
tp1140
Rp1141
tp1142
asg73
g81
sa(dp1143
g2
S'../../../data/emanuela/activity-recognition/images/NTCIR-Lifelog-256/u2/2015-04-27/b00004956_21i7lf_20150427_085629e.jpg'
p1144
sg4
(lp1145
(g15
g6
(g18
S'b\xb3v?'
p1146
tp1147
Rp1148
tp1149
a(g44
g6
(g18
S'\xe4\xbb\xc6<'
p1150
tp1151
Rp1152
tp1153
a(g56
g6
(g18
S'\xdf\xdaP;'
p1154
tp1155
Rp1156
tp1157
a(g32
g6
(g18
S'\xe1\xe1K;'
p1158
tp1159
Rp1160
tp1161
a(g108
g6
(g18
S'p>\x1a;'
p1162
tp1163
Rp1164
tp1165
asg73
g81
sa(dp1166
g2
S'../../../data/emanuela/activity-recognition/images/NTCIR-Lifelog-256/u2/2015-05-01/b00001756_21i7lf_20150501_085222e.jpg'
p1167
sg4
(lp1168
(g15
g6
(g18
S'\xa8 7?'
p1169
tp1170
Rp1171
tp1172
a(g32
g6
(g18
S'eN\x08>'
p1173
tp1174
Rp1175
tp1176
a(g44
g6
(g18
S'\xb7o\xba='
p1177
tp1178
Rp1179
tp1180
a(g56
g6
(g18
S'\xc1"\\='
p1181
tp1182
Rp1183
tp1184
a(g68
g6
(g18
S'\xffS\xf3:'
p1185
tp1186
Rp1187
tp1188
asg73
g81
sa(dp1189
g2
S'../../../data/emanuela/activity-recognition/images/NTCIR-Lifelog-256/u2/2015-05-07/b00008266_21i7lf_20150507_205400e.jpg'
p1190
sg4
(lp1191
(g15
g6
(g18
S'\xd4`v?'
p1192
tp1193
Rp1194
tp1195
a(g44
g6
(g18
S'\xcc\xc8u<'
p1196
tp1197
Rp1198
tp1199
a(g32
g6
(g18
S'\xedG\x06<'
p1200
tp1201
Rp1202
tp1203
a(g56
g6
(g18
S'\xa3\x90\xdb;'
p1204
tp1205
Rp1206
tp1207
a(g139
g6
(g18
S'Z\xda{;'
p1208
tp1209
Rp1210
tp1211
asg73
g81
sa(dp1212
g2
S'../../../data/emanuela/activity-recognition/images/NTCIR-Lifelog-256/u2/2015-05-01/b00001762_21i7lf_20150501_085558e.jpg'
p1213
sg4
(lp1214
(g15
g6
(g18
S'Z\xf6h?'
p1215
tp1216
Rp1217
tp1218
a(g32
g6
(g18
S'\x16\xa8\x82='
p1219
tp1220
Rp1221
tp1222
a(g56
g6
(g18
S'\xddh\xac<'
p1223
tp1224
Rp1225
tp1226
a(g44
g6
(g18
S'\x15\xacs;'
p1227
tp1228
Rp1229
tp1230
a(g68
g6
(g18
S'1\x1e\x19:'
p1231
tp1232
Rp1233
tp1234
asg73
g81
sa(dp1235
g2
S'../../../data/emanuela/activity-recognition/images/NTCIR-Lifelog-256/u2/2015-04-28/b00000150_21i7lf_20150428_185639e.jpg'
p1236
sg4
(lp1237
(g15
g6
(g18
S'm\x0fI?'
p1238
tp1239
Rp1240
tp1241
a(g32
g6
(g18
S'\x9c\x97\xb5='
p1242
tp1243
Rp1244
tp1245
a(g44
g6
(g18
S'\xeb\x05\x9a='
p1246
tp1247
Rp1248
tp1249
a(g56
g6
(g18
S'\xa4\xba\xe3<'
p1250
tp1251
Rp1252
tp1253
a(g108
g6
(g18
S'\xffVZ<'
p1254
tp1255
Rp1256
tp1257
asg73
g81
sa(dp1258
g2
S'../../../data/emanuela/activity-recognition/images/NTCIR-Lifelog-256/u2/2015-05-05/b00005090_21i7lf_20150505_091209e.jpg'
p1259
sg4
(lp1260
(g15
g6
(g18
S'\xac\xe8c?'
p1261
tp1262
Rp1263
tp1264
a(g44
g6
(g18
S'D\x10"='
p1265
tp1266
Rp1267
tp1268
a(g32
g6
(g18
S'\xc8o\x00='
p1269
tp1270
Rp1271
tp1272
a(g455
g6
(g18
S'\xa9\xe48<'
p1273
tp1274
Rp1275
tp1276
a(g56
g6
(g18
S'\xef\xce#<'
p1277
tp1278
Rp1279
tp1280
asg73
g81
sa(dp1281
g2
S'../../../data/emanuela/activity-recognition/images/NTCIR-Lifelog-256/u2/2015-04-27/b00004952_21i7lf_20150427_085405e.jpg'
p1282
sg4
(lp1283
(g15
g6
(g18
S'\x8bJj?'
p1284
tp1285
Rp1286
tp1287
a(g44
g6
(g18
S'\xb1\xb0\n='
p1288
tp1289
Rp1290
tp1291
a(g32
g6
(g18
S'\x1d\x89\xfe<'
p1292
tp1293
Rp1294
tp1295
a(g56
g6
(g18
S'\xc1\x17\xeb;'
p1296
tp1297
Rp1298
tp1299
a(g68
g6
(g18
S'\xc3 7;'
p1300
tp1301
Rp1302
tp1303
asg73
g81
sa(dp1304
g2
S'../../../data/emanuela/activity-recognition/images/NTCIR-Lifelog-256/u2/2015-05-07/b00008259_21i7lf_20150507_204933e.jpg'
p1305
sg4
(lp1306
(g15
g6
(g18
S'Peq?'
p1307
tp1308
Rp1309
tp1310
a(g32
g6
(g18
S'\x9f\xf4\x17='
p1311
tp1312
Rp1313
tp1314
a(g44
g6
(g18
S'"\xac#<'
p1315
tp1316
Rp1317
tp1318
a(g56
g6
(g18
S'Z\xc4\xad;'
p1319
tp1320
Rp1321
tp1322
a(g68
g6
(g18
S'\xc5f\x07;'
p1323
tp1324
Rp1325
tp1326
asg73
g81
sa(dp1327
g2
S'../../../data/emanuela/activity-recognition/images/NTCIR-Lifelog-256/u2/2015-04-28/b00006315_21i7lf_20150428_090518e.jpg'
p1328
sg4
(lp1329
(g15
g6
(g18
S'\xe2\x07`?'
p1330
tp1331
Rp1332
tp1333
a(g236
g6
(g18
S'\x0b\xbb!='
p1334
tp1335
Rp1336
tp1337
a(g56
g6
(g18
S'>\xce\x92<'
p1338
tp1339
Rp1340
tp1341
a(g108
g6
(g18
S'/Q\x90<'
p1342
tp1343
Rp1344
tp1345
a(g44
g6
(g18
S'\xfd\xb6{<'
p1346
tp1347
Rp1348
tp1349
asg73
g81
sa(dp1350
g2
S'../../../data/emanuela/activity-recognition/images/NTCIR-Lifelog-256/u2/2015-05-05/b00005078_21i7lf_20150505_090435e.jpg'
p1351
sg4
(lp1352
(g15
g6
(g18
S'\xa4\xcbi?'
p1353
tp1354
Rp1355
tp1356
a(g44
g6
(g18
S'\xbd#y='
p1357
tp1358
Rp1359
tp1360
a(g455
g6
(g18
S'\xcf\xe6\x18<'
p1361
tp1362
Rp1363
tp1364
a(g108
g6
(g18
S'\x0e*\xa7;'
p1365
tp1366
Rp1367
tp1368
a(g56
g6
(g18
S'GY+;'
p1369
tp1370
Rp1371
tp1372
asg73
g81
sa(dp1373
g2
S'../../../data/emanuela/activity-recognition/images/NTCIR-Lifelog-256/u2/2015-04-22/b00000572_21i7lf_20150422_183753e.jpg'
p1374
sg4
(lp1375
(g15
g6
(g18
S'\x84\xc0\x7f?'
p1376
tp1377
Rp1378
tp1379
a(g56
g6
(g18
S'\xa5\xc8\xa79'
p1380
tp1381
Rp1382
tp1383
a(g44
g6
(g18
S'<\x8f\x849'
p1384
tp1385
Rp1386
tp1387
a(g32
g6
(g18
S'\xe6Ht9'
p1388
tp1389
Rp1390
tp1391
a(g197
g6
(g18
S'\xdd"V8'
p1392
tp1393
Rp1394
tp1395
asg73
g81
sa(dp1396
g2
S'../../../data/emanuela/activity-recognition/images/NTCIR-Lifelog-256/u2/2015-05-01/b00001760_21i7lf_20150501_085448e.jpg'
p1397
sg4
(lp1398
(g15
g6
(g18
S'U\xb6\x7f?'
p1399
tp1400
Rp1401
tp1402
a(g32
g6
(g18
S'\x82r\x06:'
p1403
tp1404
Rp1405
tp1406
a(g44
g6
(g18
S'\x12\x0f\xa79'
p1407
tp1408
Rp1409
tp1410
a(g56
g6
(g18
S'\x0b\xd5H9'
p1411
tp1412
Rp1413
tp1414
a(g68
g6
(g18
S'&\x92\xcb7'
p1415
tp1416
Rp1417
tp1418
asg73
g81
sa(dp1419
g2
S'../../../data/emanuela/activity-recognition/images/NTCIR-Lifelog-256/u2/2015-04-27/b00005881_21i7lf_20150427_182954e.jpg'
p1420
sg4
(lp1421
(g15
g6
(g18
S'\x8b\x1be?'
p1422
tp1423
Rp1424
tp1425
a(g44
g6
(g18
S'\xd9\xf0G='
p1426
tp1427
Rp1428
tp1429
a(g56
g6
(g18
S'\x99\xea\xe6<'
p1430
tp1431
Rp1432
tp1433
a(g32
g6
(g18
S'\xb61\xaf<'
p1434
tp1435
Rp1436
tp1437
a(g68
g6
(g18
S'\xb5\xf8\x0f;'
p1438
tp1439
Rp1440
tp1441
asg73
g81
sa(dp1442
g2
S'../../../data/emanuela/activity-recognition/images/NTCIR-Lifelog-256/u2/2015-05-07/b00007307_21i7lf_20150507_083205e.jpg'
p1443
sg4
(lp1444
(g15
g6
(g18
S'\x8b2w?'
p1445
tp1446
Rp1447
tp1448
a(g44
g6
(g18
S'c\x84\x86<'
p1449
tp1450
Rp1451
tp1452
a(g32
g6
(g18
S'\xa50\x12<'
p1453
tp1454
Rp1455
tp1456
a(g56
g6
(g18
S'_k\xfd;'
p1457
tp1458
Rp1459
tp1460
a(g68
g6
(g18
S'\xfb\x9c\x909'
p1461
tp1462
Rp1463
tp1464
asg73
g81
sa(dp1465
g2
S'../../../data/emanuela/activity-recognition/images/NTCIR-Lifelog-256/u2/2015-05-05/b00005085_21i7lf_20150505_090857e.jpg'
p1466
sg4
(lp1467
(g15
g6
(g18
S'*8r?'
p1468
tp1469
Rp1470
tp1471
a(g44
g6
(g18
S'\x15dV<'
p1472
tp1473
Rp1474
tp1475
a(g56
g6
(g18
S'&\xdbN<'
p1476
tp1477
Rp1478
tp1479
a(g32
g6
(g18
S'\xfe\rA<'
p1480
tp1481
Rp1482
tp1483
a(g108
g6
(g18
S'E\xe0\xc6;'
p1484
tp1485
Rp1486
tp1487
asg73
g81
sa(dp1488
g2
S'../../../data/emanuela/activity-recognition/images/NTCIR-Lifelog-256/u2/2015-04-30/b00001508_21i7lf_20150430_183616e.jpg'
p1489
sg4
(lp1490
(g15
g6
(g18
S'\xef\x07i?'
p1491
tp1492
Rp1493
tp1494
a(g32
g6
(g18
S'\xe6"\xbc<'
p1495
tp1496
Rp1497
tp1498
a(g56
g6
(g18
S'\xe7\xcc\x94<'
p1499
tp1500
Rp1501
tp1502
a(g44
g6
(g18
S'F\xfeG<'
p1503
tp1504
Rp1505
tp1506
a(g68
g6
(g18
S'\x19\xec\xe5;'
p1507
tp1508
Rp1509
tp1510
asg73
g81
sa(dp1511
g2
S'../../../data/emanuela/activity-recognition/images/NTCIR-Lifelog-256/u2/2015-05-07/b00007305_21i7lf_20150507_083055e.jpg'
p1512
sg4
(lp1513
(g15
g6
(g18
S'\xc4wz?'
p1514
tp1515
Rp1516
tp1517
a(g32
g6
(g18
S'\xbc\x185<'
p1518
tp1519
Rp1520
tp1521
a(g56
g6
(g18
S'\x87\x1a\xbd;'
p1522
tp1523
Rp1524
tp1525
a(g44
g6
(g18
S'\xa2\x8d\xfe:'
p1526
tp1527
Rp1528
tp1529
a(g139
g6
(g18
S'9\xe4\xef:'
p1530
tp1531
Rp1532
tp1533
asg73
g81
sa(dp1534
g2
S'../../../data/emanuela/activity-recognition/images/NTCIR-Lifelog-256/u2/2015-05-01/b00002413_21i7lf_20150501_163249e.jpg'
p1535
sg4
(lp1536
(g15
g6
(g18
S'\x1f4x?'
p1537
tp1538
Rp1539
tp1540
a(g44
g6
(g18
S'f\xaf\x84<'
p1541
tp1542
Rp1543
tp1544
a(g56
g6
(g18
S'\xf3N$<'
p1545
tp1546
Rp1547
tp1548
a(g32
g6
(g18
S'h\xe5\xbd:'
p1549
tp1550
Rp1551
tp1552
a(g139
g6
(g18
S'5\x19\x1d:'
p1553
tp1554
Rp1555
tp1556
asg73
g81
sa(dp1557
g2
S'../../../data/emanuela/activity-recognition/images/NTCIR-Lifelog-256/u2/2015-04-30/b00001515_21i7lf_20150430_184041e.jpg'
p1558
sg4
(lp1559
(g15
g6
(g18
S'k\x06m?'
p1560
tp1561
Rp1562
tp1563
a(g44
g6
(g18
S'\xbei-='
p1564
tp1565
Rp1566
tp1567
a(g56
g6
(g18
S'w\xec\x97<'
p1568
tp1569
Rp1570
tp1571
a(g32
g6
(g18
S'E\xf90<'
p1572
tp1573
Rp1574
tp1575
a(g68
g6
(g18
S'\x86\x17\x8d:'
p1576
tp1577
Rp1578
tp1579
asg73
g81
sa(dp1580
g2
S'../../../data/emanuela/activity-recognition/images/NTCIR-Lifelog-256/u2/2015-04-30/b00000782_21i7lf_20150430_104650e.jpg'
p1581
sg4
(lp1582
(g15
g6
(g18
S'\x9f\xe2t?'
p1583
tp1584
Rp1585
tp1586
a(g139
g6
(g18
S'6\x8f\x81<'
p1587
tp1588
Rp1589
tp1590
a(g56
g6
(g18
S'\xb9\xda6<'
p1591
tp1592
Rp1593
tp1594
a(g44
g6
(g18
S'&\xed,<'
p1595
tp1596
Rp1597
tp1598
a(g32
g6
(g18
S'\x80\x99M;'
p1599
tp1600
Rp1601
tp1602
asg73
g81
sa(dp1603
g2
S'../../../data/emanuela/activity-recognition/images/NTCIR-Lifelog-256/u2/2015-04-30/b00001511_21i7lf_20150430_183808e.jpg'
p1604
sg4
(lp1605
(g15
g6
(g18
S'\xc3\x96|?'
p1606
tp1607
Rp1608
tp1609
a(g44
g6
(g18
S'\xeeq\x04<'
p1610
tp1611
Rp1612
tp1613
a(g56
g6
(g18
S'\xf9W\x01;'
p1614
tp1615
Rp1616
tp1617
a(g108
g6
(g18
S'\x80D\xaf:'
p1618
tp1619
Rp1620
tp1621
a(g32
g6
(g18
S'\xbe]#:'
p1622
tp1623
Rp1624
tp1625
asg73
g81
sa(dp1626
g2
S'../../../data/emanuela/activity-recognition/images/NTCIR-Lifelog-256/u2/2015-04-27/b00004954_21i7lf_20150427_085524e.jpg'
p1627
sg4
(lp1628
(g15
g6
(g18
S'F\x8c{?'
p1629
tp1630
Rp1631
tp1632
a(g44
g6
(g18
S'\x1d\xea\xc1;'
p1633
tp1634
Rp1635
tp1636
a(g56
g6
(g18
S'\xb3\x175;'
p1637
tp1638
Rp1639
tp1640
a(g139
g6
(g18
S'\x189\x15;'
p1641
tp1642
Rp1643
tp1644
a(g1138
g6
(g18
S'?\xff\xa8:'
p1645
tp1646
Rp1647
tp1648
asg73
g81
sa(dp1649
g2
S'../../../data/emanuela/activity-recognition/images/NTCIR-Lifelog-256/u2/2015-05-07/b00007292_21i7lf_20150507_082236e.jpg'
p1650
sg4
(lp1651
(g15
g6
(g18
S'r<\x7f?'
p1652
tp1653
Rp1654
tp1655
a(g44
g6
(g18
S'/!^:'
p1656
tp1657
Rp1658
tp1659
a(g32
g6
(g18
S'\xf79Q:'
p1660
tp1661
Rp1662
tp1663
a(g139
g6
(g18
S'\xf3U):'
p1664
tp1665
Rp1666
tp1667
a(g56
g6
(g18
S'u\x87\xb29'
p1668
tp1669
Rp1670
tp1671
asg73
g81
sa(dp1672
g2
S'../../../data/emanuela/activity-recognition/images/NTCIR-Lifelog-256/u2/2015-05-07/b00007304_21i7lf_20150507_083015e.jpg'
p1673
sg4
(lp1674
(g15
g6
(g18
S'\xf2\xf2x?'
p1675
tp1676
Rp1677
tp1678
a(g32
g6
(g18
S'\xae\xdc%<'
p1679
tp1680
Rp1681
tp1682
a(g44
g6
(g18
S'b1\x17<'
p1683
tp1684
Rp1685
tp1686
a(g56
g6
(g18
S'h[\xd4;'
p1687
tp1688
Rp1689
tp1690
a(g68
g6
(g18
S'C\x84\x17:'
p1691
tp1692
Rp1693
tp1694
asg73
g81
sa(dp1695
g2
S'../../../data/emanuela/activity-recognition/images/NTCIR-Lifelog-256/u2/2015-05-07/b00008264_21i7lf_20150507_205250e.jpg'
p1696
sg4
(lp1697
(g15
g6
(g18
S'U<<?'
p1698
tp1699
Rp1700
tp1701
a(g32
g6
(g18
S'\x03\x18_>'
p1702
tp1703
Rp1704
tp1705
a(g44
g6
(g18
S'\xe0\xbd\xea<'
p1706
tp1707
Rp1708
tp1709
a(g56
g6
(g18
S'\xa7V\xea;'
p1710
tp1711
Rp1712
tp1713
a(g455
g6
(g18
S'\x18\x83R;'
p1714
tp1715
Rp1716
tp1717
asg73
g81
sa(dp1718
g2
S'../../../data/emanuela/activity-recognition/images/NTCIR-Lifelog-256/u2/2015-04-28/b00000156_21i7lf_20150428_190023e.jpg'
p1719
sg4
(lp1720
(g44
g6
(g18
S'7\xbc\xcc>'
p1721
tp1722
Rp1723
tp1724
a(g15
g6
(g18
S'\xa9\x98\x8d>'
p1725
tp1726
Rp1727
tp1728
a(g32
g6
(g18
S'\xa4,!>'
p1729
tp1730
Rp1731
tp1732
a(g56
g6
(g18
S'\x06\xcd\x1c>'
p1733
tp1734
Rp1735
tp1736
a(g108
g6
(g18
S'qjh;'
p1737
tp1738
Rp1739
tp1740
asg73
g81
sa(dp1741
g2
S'../../../data/emanuela/activity-recognition/images/NTCIR-Lifelog-256/u2/2015-04-22/b00000577_21i7lf_20150422_184058e.jpg'
p1742
sg4
(lp1743
(g44
g6
(g18
S'TM\x18?'
p1744
tp1745
Rp1746
tp1747
a(g32
g6
(g18
S'uQp>'
p1748
tp1749
Rp1750
tp1751
a(g15
g6
(g18
S'\xd6\x03\x99='
p1752
tp1753
Rp1754
tp1755
a(g56
g6
(g18
S'=\x9e!='
p1756
tp1757
Rp1758
tp1759
a(g455
g6
(g18
S'\x87i\x1c='
p1760
tp1761
Rp1762
tp1763
asg73
g81
sa(dp1764
g2
S'../../../data/emanuela/activity-recognition/images/NTCIR-Lifelog-256/u2/2015-04-25/b00002970_21i7lf_20150425_104709e.jpg'
p1765
sg4
(lp1766
(g170
g6
(g18
S'`\xb93?'
p1767
tp1768
Rp1769
tp1770
a(g220
g6
(g18
S'*dV>'
p1771
tp1772
Rp1773
tp1774
a(g455
g6
(g18
S'Q\xee\xe7<'
p1775
tp1776
Rp1777
tp1778
a(g56
g6
(g18
S'\xa8`C<'
p1779
tp1780
Rp1781
tp1782
a(g44
g6
(g18
S'\xde^A<'
p1783
tp1784
Rp1785
tp1786
asg73
g81
sa(dp1787
g2
S'../../../data/emanuela/activity-recognition/images/NTCIR-Lifelog-256/u2/2015-04-28/b00006296_21i7lf_20150428_085339e.jpg'
p1788
sg4
(lp1789
(g15
g6
(g18
S'\xe3\xa7-?'
p1790
tp1791
Rp1792
tp1793
a(g197
g6
(g18
S'\xdc\xaf\x8e>'
p1794
tp1795
Rp1796
tp1797
a(g108
g6
(g18
S"'\xf7V<"
p1798
tp1799
Rp1800
tp1801
a(g44
g6
(g18
S'\x93\xafJ<'
p1802
tp1803
Rp1804
tp1805
a(g56
g6
(g18
S'\xedt\xe5;'
p1806
tp1807
Rp1808
tp1809
asg73
g81
sa(dp1810
g2
S'../../../data/emanuela/activity-recognition/images/NTCIR-Lifelog-256/u2/2015-05-07/b00007296_21i7lf_20150507_082505e.jpg'
p1811
sg4
(lp1812
(g15
g6
(g18
S'\xeeBR?'
p1813
tp1814
Rp1815
tp1816
a(g44
g6
(g18
S'\x9f/\xcc='
p1817
tp1818
Rp1819
tp1820
a(g32
g6
(g18
S'\xad\xe9C='
p1821
tp1822
Rp1823
tp1824
a(g56
g6
(g18
S'\xc4\x87\x94<'
p1825
tp1826
Rp1827
tp1828
a(g108
g6
(g18
S'E\x9aB;'
p1829
tp1830
Rp1831
tp1832
asg73
g81
sa(dp1833
g2
S'../../../data/emanuela/activity-recognition/images/NTCIR-Lifelog-256/u2/2015-04-22/b00000562_21i7lf_20150422_183140e.jpg'
p1834
sg4
(lp1835
(g15
g6
(g18
S'd\xeb\x7f?'
p1836
tp1837
Rp1838
tp1839
a(g32
g6
(g18
S'\x0f\xaeH9'
p1840
tp1841
Rp1842
tp1843
a(g139
g6
(g18
S'8\x1938'
p1844
tp1845
Rp1846
tp1847
a(g44
g6
(g18
S'*\x8f\xfd7'
p1848
tp1849
Rp1850
tp1851
a(g197
g6
(g18
S'\xbb\xcf\x887'
p1852
tp1853
Rp1854
tp1855
asg73
g81
sa(dp1856
g2
S'../../../data/emanuela/activity-recognition/images/NTCIR-Lifelog-256/u2/2015-05-01/b00002418_21i7lf_20150501_163545e.jpg'
p1857
sg4
(lp1858
(g15
g6
(g18
S'\xb2ex?'
p1859
tp1860
Rp1861
tp1862
a(g44
g6
(g18
S'\x1a\x00\x85<'
p1863
tp1864
Rp1865
tp1866
a(g32
g6
(g18
S'\x1a\xdb\x19<'
p1867
tp1868
Rp1869
tp1870
a(g56
g6
(g18
S'\xe0\xa9\x12;'
p1871
tp1872
Rp1873
tp1874
a(g68
g6
(g18
S'1\xd0(:'
p1875
tp1876
Rp1877
tp1878
asg73
g81
sa(dp1879
g2
S'../../../data/emanuela/activity-recognition/images/NTCIR-Lifelog-256/u2/2015-05-07/b00007308_21i7lf_20150507_083242e.jpg'
p1880
sg4
(lp1881
(g15
g6
(g18
S'\x96WD?'
p1882
tp1883
Rp1884
tp1885
a(g56
g6
(g18
S'\x8e\xcb\x89='
p1886
tp1887
Rp1888
tp1889
a(g44
g6
(g18
S'\xe2 k='
p1890
tp1891
Rp1892
tp1893
a(g68
g6
(g18
S'"\x0c7='
p1894
tp1895
Rp1896
tp1897
a(g1138
g6
(g18
S'&\xc9\x9f<'
p1898
tp1899
Rp1900
tp1901
asg73
g81
sa(dp1902
g2
S'../../../data/emanuela/activity-recognition/images/NTCIR-Lifelog-256/u2/2015-04-29/b00000231_21i7lf_20150429_095143e.jpg'
p1903
sg4
(lp1904
(g15
g6
(g18
S'\x19]u?'
p1905
tp1906
Rp1907
tp1908
a(g44
g6
(g18
S'\xce2\xa6<'
p1909
tp1910
Rp1911
tp1912
a(g56
g6
(g18
S'l\x08><'
p1913
tp1914
Rp1915
tp1916
a(g32
g6
(g18
S'\x0c\x1b\xe1;'
p1917
tp1918
Rp1919
tp1920
a(g108
g6
(g18
S'I<k:'
p1921
tp1922
Rp1923
tp1924
asg73
g81
sa(dp1925
g2
S'../../../data/emanuela/activity-recognition/images/NTCIR-Lifelog-256/u2/2015-04-22/b00000561_21i7lf_20150422_183100e.jpg'
p1926
sg4
(lp1927
(g15
g6
(g18
S'=\x06e?'
p1928
tp1929
Rp1930
tp1931
a(g44
g6
(g18
S'\x1b\x01@='
p1932
tp1933
Rp1934
tp1935
a(g108
g6
(g18
S'\xf7k0<'
p1936
tp1937
Rp1938
tp1939
a(g170
g6
(g18
S'\xb7\x95"<'
p1940
tp1941
Rp1942
tp1943
a(g68
g6
(g18
S'\xf0#\xfd;'
p1944
tp1945
Rp1946
tp1947
asg73
g81
sa(dp1948
g2
S'../../../data/emanuela/activity-recognition/images/NTCIR-Lifelog-256/u2/2015-04-30/b00001509_21i7lf_20150430_183652e.jpg'
p1949
sg4
(lp1950
(g15
g6
(g18
S'\xf9\xcf\x7f?'
p1951
tp1952
Rp1953
tp1954
a(g139
g6
(g18
S'_\x93\xcc9'
p1955
tp1956
Rp1957
tp1958
a(g56
g6
(g18
S'&\x8b\r9'
p1959
tp1960
Rp1961
tp1962
a(g32
g6
(g18
S'\xd5\t\xcb8'
p1963
tp1964
Rp1965
tp1966
a(g44
g6
(g18
S'\x973\x838'
p1967
tp1968
Rp1969
tp1970
asg73
g81
sa(dp1971
g2
S'../../../data/emanuela/activity-recognition/images/NTCIR-Lifelog-256/u2/2015-05-05/b00005076_21i7lf_20150505_090325e.jpg'
p1972
sg4
(lp1973
(g44
g6
(g18
S'\xf3\x0bW>'
p1974
tp1975
Rp1976
tp1977
a(g170
g6
(g18
S']\x86$>'
p1978
tp1979
Rp1980
tp1981
a(g220
g6
(g18
S'>\x9e\x08>'
p1982
tp1983
Rp1984
tp1985
a(g15
g6
(g18
S'G\x9a\xe2='
p1986
tp1987
Rp1988
tp1989
a(g1138
g6
(g18
S'\x16\x10\x7f='
p1990
tp1991
Rp1992
tp1993
asg73
g81
sa(dp1994
g2
S'../../../data/emanuela/activity-recognition/images/NTCIR-Lifelog-256/u2/2015-04-28/b00000154_21i7lf_20150428_185905e.jpg'
p1995
sg4
(lp1996
(g15
g6
(g18
S'c8H?'
p1997
tp1998
Rp1999
tp2000
a(g56
g6
(g18
S'\x11\xda\x9e='
p2001
tp2002
Rp2003
tp2004
a(g32
g6
(g18
S'\xcaQK='
p2005
tp2006
Rp2007
tp2008
a(g44
g6
(g18
S'\xa9\xb7\x08='
p2009
tp2010
Rp2011
tp2012
a(g6
(g7
(S'S5'
p2013
I0
I1
tp2014
Rp2015
(I3
S'|'
p2016
NNNI5
I1
I0
tp2017
bS'plane'
p2018
tp2019
Rp2020
g6
(g18
S'\xd1H\x90<'
p2021
tp2022
Rp2023
tp2024
asg73
g81
sa(dp2025
g2
S'../../../data/emanuela/activity-recognition/images/NTCIR-Lifelog-256/u2/2015-05-01/b00002412_21i7lf_20150501_163215e.jpg'
p2026
sg4
(lp2027
(g15
g6
(g18
S'\x99\xa0"?'
p2028
tp2029
Rp2030
tp2031
a(g32
g6
(g18
S'\x9ej\\>'
p2032
tp2033
Rp2034
tp2035
a(g56
g6
(g18
S'\x88|\x02>'
p2036
tp2037
Rp2038
tp2039
a(g44
g6
(g18
S'\x8dOh<'
p2040
tp2041
Rp2042
tp2043
a(g108
g6
(g18
S'\xb2\xff5;'
p2044
tp2045
Rp2046
tp2047
asg73
g81
sa(dp2048
g2
S'../../../data/emanuela/activity-recognition/images/NTCIR-Lifelog-256/u2/2015-05-05/b00005091_21i7lf_20150505_091244e.jpg'
p2049
sg4
(lp2050
(g15
g6
(g18
S'C\x8dN?'
p2051
tp2052
Rp2053
tp2054
a(g32
g6
(g18
S'e\x08y='
p2055
tp2056
Rp2057
tp2058
a(g139
g6
(g18
S'nh$='
p2059
tp2060
Rp2061
tp2062
a(g44
g6
(g18
S'>\xa0\xfa<'
p2063
tp2064
Rp2065
tp2066
a(g108
g6
(g18
S'\x15@\xef<'
p2067
tp2068
Rp2069
tp2070
asg73
g81
sa(dp2071
g2
S'../../../data/emanuela/activity-recognition/images/NTCIR-Lifelog-256/u2/2015-05-07/b00007295_21i7lf_20150507_082427e.jpg'
p2072
sg4
(lp2073
(g44
g6
(g18
S'X5&?'
p2074
tp2075
Rp2076
tp2077
a(g15
g6
(g18
S'\xc2\x94?>'
p2078
tp2079
Rp2080
tp2081
a(g32
g6
(g18
S'\xfc\t\x17>'
p2082
tp2083
Rp2084
tp2085
a(g56
g6
(g18
S'\xc5\x8e\x1a<'
p2086
tp2087
Rp2088
tp2089
a(g455
g6
(g18
S'\xd8\x14\xae:'
p2090
tp2091
Rp2092
tp2093
asg73
g81
sa(dp2094
g2
S'../../../data/emanuela/activity-recognition/images/NTCIR-Lifelog-256/u2/2015-04-30/b00001512_21i7lf_20150430_183847e.jpg'
p2095
sg4
(lp2096
(g15
g6
(g18
S'\xd1sz?'
p2097
tp2098
Rp2099
tp2100
a(g44
g6
(g18
S'\xb3\xd3\x1a<'
p2101
tp2102
Rp2103
tp2104
a(g56
g6
(g18
S'\xd2\x05\xd2;'
p2105
tp2106
Rp2107
tp2108
a(g32
g6
(g18
S'RJ\xab;'
p2109
tp2110
Rp2111
tp2112
a(g139
g6
(g18
S'\xf8^\x129'
p2113
tp2114
Rp2115
tp2116
asg73
g81
sa(dp2117
g2
S'../../../data/emanuela/activity-recognition/images/NTCIR-Lifelog-256/u2/2015-04-22/b00000568_21i7lf_20150422_183522e.jpg'
p2118
sg4
(lp2119
(g15
g6
(g18
S'\xcc\x9f}?'
p2120
tp2121
Rp2122
tp2123
a(g32
g6
(g18
S'\x9d\xec\xd8;'
p2124
tp2125
Rp2126
tp2127
a(g56
g6
(g18
S'\x07Y\xce:'
p2128
tp2129
Rp2130
tp2131
a(g44
g6
(g18
S'\x0c\xf2\xc39'
p2132
tp2133
Rp2134
tp2135
a(g68
g6
(g18
S'\xa5R\x859'
p2136
tp2137
Rp2138
tp2139
asg73
g81
sa(dp2140
g2
S'../../../data/emanuela/activity-recognition/images/NTCIR-Lifelog-256/u2/2015-04-27/b00005884_21i7lf_20150427_183141e.jpg'
p2141
sg4
(lp2142
(g15
g6
(g18
S'\xad\xbdo?'
p2143
tp2144
Rp2145
tp2146
a(g44
g6
(g18
S'\xf4A)='
p2147
tp2148
Rp2149
tp2150
a(g32
g6
(g18
S'\xa2\xdd\x0f<'
p2151
tp2152
Rp2153
tp2154
a(g56
g6
(g18
S'\xcfe\xf4;'
p2155
tp2156
Rp2157
tp2158
a(g108
g6
(g18
S'\xf6\xbb\xfe:'
p2159
tp2160
Rp2161
tp2162
asg73
g81
sa(dp2163
g2
S'../../../data/emanuela/activity-recognition/images/NTCIR-Lifelog-256/u2/2015-05-05/b00005926_21i7lf_20150505_181503e.jpg'
p2164
sg4
(lp2165
(g15
g6
(g18
S'\xeaUe?'
p2166
tp2167
Rp2168
tp2169
a(g44
g6
(g18
S'\xaa\x87\xb2='
p2170
tp2171
Rp2172
tp2173
a(g56
g6
(g18
S'N7\x19<'
p2174
tp2175
Rp2176
tp2177
a(g32
g6
(g18
S'uc\xb9;'
p2178
tp2179
Rp2180
tp2181
a(g455
g6
(g18
S'q\x88 :'
p2182
tp2183
Rp2184
tp2185
asg73
g81
sa(dp2186
g2
S'../../../data/emanuela/activity-recognition/images/NTCIR-Lifelog-256/u2/2015-04-22/b00000578_21i7lf_20150422_184134e.jpg'
p2187
sg4
(lp2188
(g15
g6
(g18
S']>~?'
p2189
tp2190
Rp2191
tp2192
a(g32
g6
(g18
S'h&\xc0;'
p2193
tp2194
Rp2195
tp2196
a(g44
g6
(g18
S'\xad\xd4+:'
p2197
tp2198
Rp2199
tp2200
a(g56
g6
(g18
S'\x8c\x95/9'
p2201
tp2202
Rp2203
tp2204
a(g68
g6
(g18
S'v\x9f\x958'
p2205
tp2206
Rp2207
tp2208
asg73
g81
sa(dp2209
g2
S'../../../data/emanuela/activity-recognition/images/NTCIR-Lifelog-256/u2/2015-04-29/b00000244_21i7lf_20150429_095944e.jpg'
p2210
sg4
(lp2211
(g15
g6
(g18
S'i\xd5k?'
p2212
tp2213
Rp2214
tp2215
a(g32
g6
(g18
S'#\x99\x8f='
p2216
tp2217
Rp2218
tp2219
a(g56
g6
(g18
S'\xc7\x88\xe2;'
p2220
tp2221
Rp2222
tp2223
a(g44
g6
(g18
S'"\x85o:'
p2224
tp2225
Rp2226
tp2227
a(g139
g6
(g18
S'O\xa6\xca9'
p2228
tp2229
Rp2230
tp2231
asg73
g81
sa(dp2232
g2
S'../../../data/emanuela/activity-recognition/images/NTCIR-Lifelog-256/u2/2015-04-28/b00000159_21i7lf_20150428_190219e.jpg'
p2233
sg4
(lp2234
(g15
g6
(g18
S')"G?'
p2235
tp2236
Rp2237
tp2238
a(g32
g6
(g18
S'E\xfc\xff='
p2239
tp2240
Rp2241
tp2242
a(g44
g6
(g18
S'\xde\x8bv='
p2243
tp2244
Rp2245
tp2246
a(g56
g6
(g18
S'\x1c.\xf3<'
p2247
tp2248
Rp2249
tp2250
a(g108
g6
(g18
S'\xb3\x0c\xb3:'
p2251
tp2252
Rp2253
tp2254
asg73
g81
sa(dp2255
g2
S'../../../data/emanuela/activity-recognition/images/NTCIR-Lifelog-256/u2/2015-04-29/b00000233_21i7lf_20150429_095300e.jpg'
p2256
sg4
(lp2257
(g15
g6
(g18
S'\xb19M?'
p2258
tp2259
Rp2260
tp2261
a(g32
g6
(g18
S'\x91\xf8\xd9='
p2262
tp2263
Rp2264
tp2265
a(g44
g6
(g18
S')\x8c\x89='
p2266
tp2267
Rp2268
tp2269
a(g56
g6
(g18
S'A\xff\x8d<'
p2270
tp2271
Rp2272
tp2273
a(g68
g6
(g18
S'O\x8d\x16;'
p2274
tp2275
Rp2276
tp2277
asg73
g81
sa(dp2278
g2
S'../../../data/emanuela/activity-recognition/images/NTCIR-Lifelog-256/u2/2015-05-05/b00005934_21i7lf_20150505_182004e.jpg'
p2279
sg4
(lp2280
(g170
g6
(g18
S'#?\xc3>'
p2281
tp2282
Rp2283
tp2284
a(g139
g6
(g18
S'\x87\x01\x9f>'
p2285
tp2286
Rp2287
tp2288
a(g15
g6
(g18
S'\xa5\x9d\xb6='
p2289
tp2290
Rp2291
tp2292
a(g68
g6
(g18
S'\xd0\xf6g='
p2293
tp2294
Rp2295
tp2296
a(g44
g6
(g18
S'\xf4\r"='
p2297
tp2298
Rp2299
tp2300
asg73
g81
sa(dp2301
g2
S'../../../data/emanuela/activity-recognition/images/NTCIR-Lifelog-256/u2/2015-05-05/b00005929_21i7lf_20150505_181659e.jpg'
p2302
sg4
(lp2303
(g15
g6
(g18
S'\xd4O\xf8>'
p2304
tp2305
Rp2306
tp2307
a(g32
g6
(g18
S'\x97\xa5\x9c>'
p2308
tp2309
Rp2310
tp2311
a(g44
g6
(g18
S'\xc4\xb57>'
p2312
tp2313
Rp2314
tp2315
a(g56
g6
(g18
S'\xdc\r0<'
p2316
tp2317
Rp2318
tp2319
a(g455
g6
(g18
S'Sk$<'
p2320
tp2321
Rp2322
tp2323
asg73
g81
sa(dp2324
g2
S'../../../data/emanuela/activity-recognition/images/NTCIR-Lifelog-256/u2/2015-05-01/b00002409_21i7lf_20150501_163015e.jpg'
p2325
sg4
(lp2326
(g15
g6
(g18
S'\x7f\xa4\x7f?'
p2327
tp2328
Rp2329
tp2330
a(g44
g6
(g18
S'L\xc7\x1f:'
p2331
tp2332
Rp2333
tp2334
a(g32
g6
(g18
S'a\xe1\x06:'
p2335
tp2336
Rp2337
tp2338
a(g56
g6
(g18
S'Q`\xc58'
p2339
tp2340
Rp2341
tp2342
a(g139
g6
(g18
S'[$\x8a8'
p2343
tp2344
Rp2345
tp2346
asg73
g81
sa(dp2347
g2
S'../../../data/emanuela/activity-recognition/images/NTCIR-Lifelog-256/u2/2015-05-07/b00007302_21i7lf_20150507_082905e.jpg'
p2348
sg4
(lp2349
(g15
g6
(g18
S'\x02\x16N?'
p2350
tp2351
Rp2352
tp2353
a(g32
g6
(g18
S'\x8e{\x08>'
p2354
tp2355
Rp2356
tp2357
a(g44
g6
(g18
S'\x8a\r=='
p2358
tp2359
Rp2360
tp2361
a(g56
g6
(g18
S'\xeep\x1a<'
p2362
tp2363
Rp2364
tp2365
a(g139
g6
(g18
S'\x9c\xcd\x8c:'
p2366
tp2367
Rp2368
tp2369
asg73
g81
sa(dp2370
g2
S'../../../data/emanuela/activity-recognition/images/NTCIR-Lifelog-256/u2/2015-04-28/b00006300_21i7lf_20150428_085603e.jpg'
p2371
sg4
(lp2372
(g15
g6
(g18
S'\xd2Z\\?'
p2373
tp2374
Rp2375
tp2376
a(g6
(g7
(S'S7'
p2377
I0
I1
tp2378
Rp2379
(I3
S'|'
p2380
NNNI7
I1
I0
tp2381
bS'reading'
p2382
tp2383
Rp2384
g6
(g18
S'\x05 \x1c='
p2385
tp2386
Rp2387
tp2388
a(g139
g6
(g18
S'us\xde<'
p2389
tp2390
Rp2391
tp2392
a(g108
g6
(g18
S'\x02\x11\xc4<'
p2393
tp2394
Rp2395
tp2396
a(g32
g6
(g18
S'U\x13\xa3<'
p2397
tp2398
Rp2399
tp2400
asg73
g81
sa(dp2401
g2
S'../../../data/emanuela/activity-recognition/images/NTCIR-Lifelog-256/u2/2015-04-22/b00000567_21i7lf_20150422_183450e.jpg'
p2402
sg4
(lp2403
(g15
g6
(g18
S'e\xac\x7f?'
p2404
tp2405
Rp2406
tp2407
a(g32
g6
(g18
S'\n\xa7f:'
p2408
tp2409
Rp2410
tp2411
a(g68
g6
(g18
S'\x15u%9'
p2412
tp2413
Rp2414
tp2415
a(g44
g6
(g18
S'x\xfe\x039'
p2416
tp2417
Rp2418
tp2419
a(g139
g6
(g18
S'\xc5)\x0e8'
p2420
tp2421
Rp2422
tp2423
asg73
g81
sa(dp2424
g2
S'../../../data/emanuela/activity-recognition/images/NTCIR-Lifelog-256/u2/2015-04-29/b00000850_21i7lf_20150429_161853e.jpg'
p2425
sg4
(lp2426
(g15
g6
(g18
S'\xbe\xccl?'
p2427
tp2428
Rp2429
tp2430
a(g44
g6
(g18
S'zw\xf4<'
p2431
tp2432
Rp2433
tp2434
a(g32
g6
(g18
S'\xb8i\xdc<'
p2435
tp2436
Rp2437
tp2438
a(g56
g6
(g18
S'\xc0Lf<'
p2439
tp2440
Rp2441
tp2442
a(g68
g6
(g18
S'4\xe9\x85:'
p2443
tp2444
Rp2445
tp2446
asg73
g81
sa(dp2447
g2
S'../../../data/emanuela/activity-recognition/images/NTCIR-Lifelog-256/u2/2015-04-28/b00000152_21i7lf_20150428_185751e.jpg'
p2448
sg4
(lp2449
(g15
g6
(g18
S'<B~?'
p2450
tp2451
Rp2452
tp2453
a(g44
g6
(g18
S'\xcd\xbeW;'
p2454
tp2455
Rp2456
tp2457
a(g56
g6
(g18
S'\xfd\xf8\xc4:'
p2458
tp2459
Rp2460
tp2461
a(g32
g6
(g18
S'\xf1L\xac:'
p2462
tp2463
Rp2464
tp2465
a(g139
g6
(g18
S'E`B9'
p2466
tp2467
Rp2468
tp2469
asg73
g81
sa(dp2470
g2
S'../../../data/emanuela/activity-recognition/images/NTCIR-Lifelog-256/u2/2015-04-27/b00004965_21i7lf_20150427_090207e.jpg'
p2471
sg4
(lp2472
(g15
g6
(g18
S'\xe05t?'
p2473
tp2474
Rp2475
tp2476
a(g32
g6
(g18
S'\xdb1\xd4<'
p2477
tp2478
Rp2479
tp2480
a(g44
g6
(g18
S'i\xb39<'
p2481
tp2482
Rp2483
tp2484
a(g108
g6
(g18
S'H\xc5\x14;'
p2485
tp2486
Rp2487
tp2488
a(g56
g6
(g18
S'Qp\x07;'
p2489
tp2490
Rp2491
tp2492
asg73
g81
sa(dp2493
g2
S'../../../data/emanuela/activity-recognition/images/NTCIR-Lifelog-256/u2/2015-04-28/b00000149_21i7lf_20150428_185602e.jpg'
p2494
sg4
(lp2495
(g15
g6
(g18
S'\x0c \x15?'
p2496
tp2497
Rp2498
tp2499
a(g56
g6
(g18
S'\xf2\xe1I>'
p2500
tp2501
Rp2502
tp2503
a(g32
g6
(g18
S'_\xcb\x03>'
p2504
tp2505
Rp2506
tp2507
a(g44
g6
(g18
S'5+=='
p2508
tp2509
Rp2510
tp2511
a(g108
g6
(g18
S'\t\xf5\x02<'
p2512
tp2513
Rp2514
tp2515
asg73
g81
sa(dp2516
g2
S'../../../data/emanuela/activity-recognition/images/NTCIR-Lifelog-256/u2/2015-04-30/b00000773_21i7lf_20150430_104126e.jpg'
p2517
sg4
(lp2518
(g15
g6
(g18
S'\x17\x83k?'
p2519
tp2520
Rp2521
tp2522
a(g32
g6
(g18
S'\xddQ\x01='
p2523
tp2524
Rp2525
tp2526
a(g44
g6
(g18
S'\x86\xcb\xeb<'
p2527
tp2528
Rp2529
tp2530
a(g56
g6
(g18
S'L\xac\x86<'
p2531
tp2532
Rp2533
tp2534
a(g108
g6
(g18
S'\x99c\x8d:'
p2535
tp2536
Rp2537
tp2538
asg73
g81
sa(dp2539
g2
S'../../../data/emanuela/activity-recognition/images/NTCIR-Lifelog-256/u2/2015-04-27/b00005885_21i7lf_20150427_183222e.jpg'
p2540
sg4
(lp2541
(g15
g6
(g18
S'\xec\x8cJ?'
p2542
tp2543
Rp2544
tp2545
a(g32
g6
(g18
S'p\xda\x03>'
p2546
tp2547
Rp2548
tp2549
a(g56
g6
(g18
S'\xdf\xa9\x1f='
p2550
tp2551
Rp2552
tp2553
a(g44
g6
(g18
S'D\xac\r='
p2554
tp2555
Rp2556
tp2557
a(g108
g6
(g18
S'\t\xe1\xa1:'
p2558
tp2559
Rp2560
tp2561
asg73
g81
sa(dp2562
g2
S'../../../data/emanuela/activity-recognition/images/NTCIR-Lifelog-256/u2/2015-05-01/b00001755_21i7lf_20150501_085141e.jpg'
p2563
sg4
(lp2564
(g15
g6
(g18
S'\xad\xfbs?'
p2565
tp2566
Rp2567
tp2568
a(g44
g6
(g18
S'\x1f\x1c\xed<'
p2569
tp2570
Rp2571
tp2572
a(g56
g6
(g18
S'~\xc8\r<'
p2573
tp2574
Rp2575
tp2576
a(g32
g6
(g18
S'W\xac\xb0;'
p2577
tp2578
Rp2579
tp2580
a(g68
g6
(g18
S'\xf1Y\xe4:'
p2581
tp2582
Rp2583
tp2584
asg73
g81
sa(dp2585
g2
S'../../../data/emanuela/activity-recognition/images/NTCIR-Lifelog-256/u2/2015-04-27/b00004949_21i7lf_20150427_085228e.jpg'
p2586
sg4
(lp2587
(g15
g6
(g18
S' \x89p?'
p2588
tp2589
Rp2590
tp2591
a(g44
g6
(g18
S'_+\xd0<'
p2592
tp2593
Rp2594
tp2595
a(g56
g6
(g18
S'4%"<'
p2596
tp2597
Rp2598
tp2599
a(g108
g6
(g18
S'\xf2\xd6\x06<'
p2600
tp2601
Rp2602
tp2603
a(g68
g6
(g18
S'X/};'
p2604
tp2605
Rp2606
tp2607
asg73
g81
sa(dp2608
g2
S'../../../data/emanuela/activity-recognition/images/NTCIR-Lifelog-256/u2/2015-04-28/b00006304_21i7lf_20150428_085827e.jpg'
p2609
sg4
(lp2610
(g15
g6
(g18
S'\x18\x99;?'
p2611
tp2612
Rp2613
tp2614
a(g44
g6
(g18
S'v2\xf9='
p2615
tp2616
Rp2617
tp2618
a(g56
g6
(g18
S'8\xe7\x8e='
p2619
tp2620
Rp2621
tp2622
a(g108
g6
(g18
S'\xaf\x98\xe5<'
p2623
tp2624
Rp2625
tp2626
a(g32
g6
(g18
S')\xd9\x93<'
p2627
tp2628
Rp2629
tp2630
asg73
g81
sa(dp2631
g2
S'../../../data/emanuela/activity-recognition/images/NTCIR-Lifelog-256/u2/2015-05-01/b00002410_21i7lf_20150501_163055e.jpg'
p2632
sg4
(lp2633
(g15
g6
(g18
S'~\xc3}?'
p2634
tp2635
Rp2636
tp2637
a(g44
g6
(g18
S'\xa7\x1a\xe1;'
p2638
tp2639
Rp2640
tp2641
a(g56
g6
(g18
S'\x86[}:'
p2642
tp2643
Rp2644
tp2645
a(g32
g6
(g18
S'\x0f\x00(:'
p2646
tp2647
Rp2648
tp2649
a(g68
g6
(g18
S'\xaf^\xb98'
p2650
tp2651
Rp2652
tp2653
asg73
g81
sa(dp2654
g2
S'../../../data/emanuela/activity-recognition/images/NTCIR-Lifelog-256/u2/2015-05-05/b00005092_21i7lf_20150505_091322e.jpg'
p2655
sg4
(lp2656
(g15
g6
(g18
S'\xe7\x88,?'
p2657
tp2658
Rp2659
tp2660
a(g44
g6
(g18
S'V\x97\xd7='
p2661
tp2662
Rp2663
tp2664
a(g56
g6
(g18
S'\x84.\x8d='
p2665
tp2666
Rp2667
tp2668
a(g32
g6
(g18
S'\x13\xc0-='
p2669
tp2670
Rp2671
tp2672
a(g170
g6
(g18
S'.\xf1\x0b='
p2673
tp2674
Rp2675
tp2676
asg73
g81
sa(dp2677
g2
S'../../../data/emanuela/activity-recognition/images/NTCIR-Lifelog-256/u2/2015-04-28/b00006313_21i7lf_20150428_090401e.jpg'
p2678
sg4
(lp2679
(g15
g6
(g18
S'&\x05\t?'
p2680
tp2681
Rp2682
tp2683
a(g44
g6
(g18
S'jhG>'
p2684
tp2685
Rp2686
tp2687
a(g56
g6
(g18
S'\x86\x1d\xfe='
p2688
tp2689
Rp2690
tp2691
a(g170
g6
(g18
S'%\\\x11='
p2692
tp2693
Rp2694
tp2695
a(g68
g6
(g18
S'\x8d~\xce<'
p2696
tp2697
Rp2698
tp2699
asg73
g81
sa(dp2700
g2
S'../../../data/emanuela/activity-recognition/images/NTCIR-Lifelog-256/u2/2015-05-05/b00005932_21i7lf_20150505_181850e.jpg'
p2701
sg4
(lp2702
(g15
g6
(g18
S'\xcdQ`?'
p2703
tp2704
Rp2705
tp2706
a(g32
g6
(g18
S'\xef\xf6\x84='
p2707
tp2708
Rp2709
tp2710
a(g44
g6
(g18
S'!\xcdZ='
p2711
tp2712
Rp2713
tp2714
a(g56
g6
(g18
S'\t\x0f\xe5:'
p2715
tp2716
Rp2717
tp2718
a(g455
g6
(g18
S'\x83\xa2\x9b:'
p2719
tp2720
Rp2721
tp2722
asg73
g81
sa(dp2723
g2
S'../../../data/emanuela/activity-recognition/images/NTCIR-Lifelog-256/u2/2015-05-05/b00005930_21i7lf_20150505_181738e.jpg'
p2724
sg4
(lp2725
(g15
g6
(g18
S'z23?'
p2726
tp2727
Rp2728
tp2729
a(g32
g6
(g18
S'\xa2\xb9\x8d>'
p2730
tp2731
Rp2732
tp2733
a(g44
g6
(g18
S'\xc1\xb0\x07<'
p2734
tp2735
Rp2736
tp2737
a(g56
g6
(g18
S'\x18s\xd2;'
p2738
tp2739
Rp2740
tp2741
a(g197
g6
(g18
S'\xc5\x16v;'
p2742
tp2743
Rp2744
tp2745
asg73
g81
sa(dp2746
g2
S'../../../data/emanuela/activity-recognition/images/NTCIR-Lifelog-256/u2/2015-04-30/b00001519_21i7lf_20150430_184307e.jpg'
p2747
sg4
(lp2748
(g15
g6
(g18
S'\x85\x7f\x7f?'
p2749
tp2750
Rp2751
tp2752
a(g44
g6
(g18
S'\xc0V\x91:'
p2753
tp2754
Rp2755
tp2756
a(g139
g6
(g18
S'\xb1\xa6\x829'
p2757
tp2758
Rp2759
tp2760
a(g56
g6
(g18
S'\xee\xe5f9'
p2761
tp2762
Rp2763
tp2764
a(g108
g6
(g18
S'{\xf969'
p2765
tp2766
Rp2767
tp2768
asg73
g81
sa(dp2769
g2
S'../../../data/emanuela/activity-recognition/images/NTCIR-Lifelog-256/u2/2015-05-01/b00002406_21i7lf_20150501_162826e.jpg'
p2770
sg4
(lp2771
(g15
g6
(g18
S'^\xe8\x7f?'
p2772
tp2773
Rp2774
tp2775
a(g44
g6
(g18
S'\xd8/\xb08'
p2776
tp2777
Rp2778
tp2779
a(g32
g6
(g18
S'\xa8\xd9\x848'
p2780
tp2781
Rp2782
tp2783
a(g68
g6
(g18
S'&\x81|8'
p2784
tp2785
Rp2786
tp2787
a(g197
g6
(g18
S'\xcdN|8'
p2788
tp2789
Rp2790
tp2791
asg73
g81
sa(dp2792
g2
S'../../../data/emanuela/activity-recognition/images/NTCIR-Lifelog-256/u2/2015-04-22/b00000579_21i7lf_20150422_184212e.jpg'
p2793
sg4
(lp2794
(g15
g6
(g18
S'\xb7\xcb\x7f?'
p2795
tp2796
Rp2797
tp2798
a(g44
g6
(g18
S'\xab.\x8e9'
p2799
tp2800
Rp2801
tp2802
a(g56
g6
(g18
S'\x00\x93\x179'
p2803
tp2804
Rp2805
tp2806
a(g32
g6
(g18
S'\xa3[\x179'
p2807
tp2808
Rp2809
tp2810
a(g139
g6
(g18
S'\x86hn8'
p2811
tp2812
Rp2813
tp2814
asg73
g81
sa(dp2815
g2
S'../../../data/emanuela/activity-recognition/images/NTCIR-Lifelog-256/u2/2015-04-27/b00004948_21i7lf_20150427_085145e.jpg'
p2816
sg4
(lp2817
(g15
g6
(g18
S'\xa1\xf0~?'
p2818
tp2819
Rp2820
tp2821
a(g44
g6
(g18
S'\x0f\xf8\x0f;'
p2822
tp2823
Rp2824
tp2825
a(g56
g6
(g18
S'\xd3\xc4=:'
p2826
tp2827
Rp2828
tp2829
a(g32
g6
(g18
S']\xa7\xf69'
p2830
tp2831
Rp2832
tp2833
a(g139
g6
(g18
S'\xb6[\xab9'
p2834
tp2835
Rp2836
tp2837
asg73
g81
sa(dp2838
g2
S'../../../data/emanuela/activity-recognition/images/NTCIR-Lifelog-256/u2/2015-04-28/b00006299_21i7lf_20150428_085528e.jpg'
p2839
sg4
(lp2840
(g15
g6
(g18
S'\xee\r~?'
p2841
tp2842
Rp2843
tp2844
a(g32
g6
(g18
S'\xfa\xe7J;'
p2845
tp2846
Rp2847
tp2848
a(g139
g6
(g18
S'Q|\x02;'
p2849
tp2850
Rp2851
tp2852
a(g56
g6
(g18
S'\xe8\x99!:'
p2853
tp2854
Rp2855
tp2856
a(g68
g6
(g18
S'\xe9\x14\n:'
p2857
tp2858
Rp2859
tp2860
asg73
g81
sa(dp2861
g2
S'../../../data/emanuela/activity-recognition/images/NTCIR-Lifelog-256/u2/2015-04-27/b00005879_21i7lf_20150427_182846e.jpg'
p2862
sg4
(lp2863
(g15
g6
(g18
S'\xb3-y?'
p2864
tp2865
Rp2866
tp2867
a(g44
g6
(g18
S'\xca1\x8b<'
p2868
tp2869
Rp2870
tp2871
a(g56
g6
(g18
S'v^v;'
p2872
tp2873
Rp2874
tp2875
a(g32
g6
(g18
S'\xb1h0;'
p2876
tp2877
Rp2878
tp2879
a(g108
g6
(g18
S'\x1c\x91\xa8:'
p2880
tp2881
Rp2882
tp2883
asg73
g81
sa(dp2884
g2
S'../../../data/emanuela/activity-recognition/images/NTCIR-Lifelog-256/u2/2015-04-28/b00000163_21i7lf_20150428_190455e.jpg'
p2885
sg4
(lp2886
(g197
g6
(g18
S'\xc9\x16\xa1>'
p2887
tp2888
Rp2889
tp2890
a(g15
g6
(g18
S'\x9f5>>'
p2891
tp2892
Rp2893
tp2894
a(g44
g6
(g18
S'\x14<\x16>'
p2895
tp2896
Rp2897
tp2898
a(g32
g6
(g18
S'\xc1\xa6\x01>'
p2899
tp2900
Rp2901
tp2902
a(g56
g6
(g18
S'\xcb\xee\xe7='
p2903
tp2904
Rp2905
tp2906
asg73
g81
sa(dp2907
g2
S'../../../data/emanuela/activity-recognition/images/NTCIR-Lifelog-256/u2/2015-05-07/b00008257_21i7lf_20150507_204816e.jpg'
p2908
sg4
(lp2909
(g15
g6
(g18
S'\xf3\xeag?'
p2910
tp2911
Rp2912
tp2913
a(g44
g6
(g18
S'\xba\x95\t='
p2914
tp2915
Rp2916
tp2917
a(g56
g6
(g18
S'B\x12\xfc<'
p2918
tp2919
Rp2920
tp2921
a(g32
g6
(g18
S'\x91k\x92<'
p2922
tp2923
Rp2924
tp2925
a(g108
g6
(g18
S'\xe1\x0b\xa1;'
p2926
tp2927
Rp2928
tp2929
asg73
g81
sa(dp2930
g2
S'../../../data/emanuela/activity-recognition/images/NTCIR-Lifelog-256/u2/2015-05-01/b00001761_21i7lf_20150501_085523e.jpg'
p2931
sg4
(lp2932
(g15
g6
(g18
S'\xa5W\x7f?'
p2933
tp2934
Rp2935
tp2936
a(g44
g6
(g18
S'-\xa5\xa3:'
p2937
tp2938
Rp2939
tp2940
a(g56
g6
(g18
S'\xad\x00=:'
p2941
tp2942
Rp2943
tp2944
a(g32
g6
(g18
S'2\x96\xc19'
p2945
tp2946
Rp2947
tp2948
a(g68
g6
(g18
S'\xae\xa0\xad8'
p2949
tp2950
Rp2951
tp2952
asg73
g81
sa(dp2953
g2
S'../../../data/emanuela/activity-recognition/images/NTCIR-Lifelog-256/u2/2015-04-27/b00005890_21i7lf_20150427_183525e.jpg'
p2954
sg4
(lp2955
(g108
g6
(g18
S's9\xb6>'
p2956
tp2957
Rp2958
tp2959
a(g15
g6
(g18
S'\xe9+\x93>'
p2960
tp2961
Rp2962
tp2963
a(g44
g6
(g18
S'\x14\xecW>'
p2964
tp2965
Rp2966
tp2967
a(g139
g6
(g18
S'\xd8\xb0o='
p2968
tp2969
Rp2970
tp2971
a(g197
g6
(g18
S'F>\x08='
p2972
tp2973
Rp2974
tp2975
asg73
g81
sa(dp2976
g2
S'../../../data/emanuela/activity-recognition/images/NTCIR-Lifelog-256/u2/2015-05-05/b00005080_21i7lf_20150505_090547e.jpg'
p2977
sg4
(lp2978
(g15
g6
(g18
S'\x1d\xf9!?'
p2979
tp2980
Rp2981
tp2982
a(g32
g6
(g18
S'LgU>'
p2983
tp2984
Rp2985
tp2986
a(g44
g6
(g18
S'\xcb\xf7\x98='
p2987
tp2988
Rp2989
tp2990
a(g56
g6
(g18
S'\x19\xa7\r='
p2991
tp2992
Rp2993
tp2994
a(g108
g6
(g18
S'\x8aR\xb1<'
p2995
tp2996
Rp2997
tp2998
asg73
g81
sa(dp2999
g2
S'../../../data/emanuela/activity-recognition/images/NTCIR-Lifelog-256/u2/2015-04-27/b00004955_21i7lf_20150427_085556e.jpg'
p3000
sg4
(lp3001
(g15
g6
(g18
S'+\xe0w?'
p3002
tp3003
Rp3004
tp3005
a(g44
g6
(g18
S'5f\xaf<'
p3006
tp3007
Rp3008
tp3009
a(g56
g6
(g18
S'r\x9d\x89;'
p3010
tp3011
Rp3012
tp3013
a(g68
g6
(g18
S'\x1a3\xc5:'
p3014
tp3015
Rp3016
tp3017
a(g139
g6
(g18
S'\x00\x82\x9a:'
p3018
tp3019
Rp3020
tp3021
asg73
g81
sa(dp3022
g2
S'../../../data/emanuela/activity-recognition/images/NTCIR-Lifelog-256/u2/2015-04-29/b00000842_21i7lf_20150429_161337e.jpg'
p3023
sg4
(lp3024
(g15
g6
(g18
S'\xb9\x1a&?'
p3025
tp3026
Rp3027
tp3028
a(g44
g6
(g18
S'\x1d*\x07>'
p3029
tp3030
Rp3031
tp3032
a(g68
g6
(g18
S'\xe7\xcc,='
p3033
tp3034
Rp3035
tp3036
a(g32
g6
(g18
S'\x1f\xfc\x14='
p3037
tp3038
Rp3039
tp3040
a(g236
g6
(g18
S',\x9d\xfa<'
p3041
tp3042
Rp3043
tp3044
asg73
g81
sa(dp3045
g2
S'../../../data/emanuela/activity-recognition/images/NTCIR-Lifelog-256/u2/2015-05-05/b00005082_21i7lf_20150505_090702e.jpg'
p3046
sg4
(lp3047
(g15
g6
(g18
S'\x91\xdfK?'
p3048
tp3049
Rp3050
tp3051
a(g32
g6
(g18
S'G\x0f\xb4='
p3052
tp3053
Rp3054
tp3055
a(g44
g6
(g18
S't\t\x97='
p3056
tp3057
Rp3058
tp3059
a(g56
g6
(g18
S'\xe2\xc6\xe8<'
p3060
tp3061
Rp3062
tp3063
a(g455
g6
(g18
S'\xcb\x1dU;'
p3064
tp3065
Rp3066
tp3067
asg73
g81
sa(dp3068
g2
S'../../../data/emanuela/activity-recognition/images/NTCIR-Lifelog-256/u2/2015-04-28/b00006311_21i7lf_20150428_090254e.jpg'
p3069
sg4
(lp3070
(g15
g6
(g18
S'\x1f\xe3j?'
p3071
tp3072
Rp3073
tp3074
a(g139
g6
(g18
S'\xb6\x01T='
p3075
tp3076
Rp3077
tp3078
a(g44
g6
(g18
S'rX(<'
p3079
tp3080
Rp3081
tp3082
a(g32
g6
(g18
S'\x85\xad\xe0;'
p3083
tp3084
Rp3085
tp3086
a(g108
g6
(g18
S'\xd1:\xb6;'
p3087
tp3088
Rp3089
tp3090
asg73
g81
sa(dp3091
g2
S'../../../data/emanuela/activity-recognition/images/NTCIR-Lifelog-256/u2/2015-05-07/b00008265_21i7lf_20150507_205325e.jpg'
p3092
sg4
(lp3093
(g15
g6
(g18
S'\xe0\x01z?'
p3094
tp3095
Rp3096
tp3097
a(g32
g6
(g18
S'\x80Z:<'
p3098
tp3099
Rp3100
tp3101
a(g44
g6
(g18
S'\xa6d\xf1;'
p3102
tp3103
Rp3104
tp3105
a(g56
g6
(g18
S'\x02\x80\x07;'
p3106
tp3107
Rp3108
tp3109
a(g68
g6
(g18
S'\xce\x1d\x9a:'
p3110
tp3111
Rp3112
tp3113
asg73
g81
sa(dp3114
g2
S'../../../data/emanuela/activity-recognition/images/NTCIR-Lifelog-256/u2/2015-04-22/b00000563_21i7lf_20150422_183217e.jpg'
p3115
sg4
(lp3116
(g15
g6
(g18
S'\x837\x7f?'
p3117
tp3118
Rp3119
tp3120
a(g56
g6
(g18
S'\xa6\xeb\xbd:'
p3121
tp3122
Rp3123
tp3124
a(g32
g6
(g18
S'47.:'
p3125
tp3126
Rp3127
tp3128
a(g44
g6
(g18
S'u\xce\xaa9'
p3129
tp3130
Rp3131
tp3132
a(g139
g6
(g18
S'"v}9'
p3133
tp3134
Rp3135
tp3136
asg73
g81
sa(dp3137
g2
S'../../../data/emanuela/activity-recognition/images/NTCIR-Lifelog-256/u2/2015-04-29/b00000237_21i7lf_20150429_095531e.jpg'
p3138
sg4
(lp3139
(g15
g6
(g18
S'\x05\x91|?'
p3140
tp3141
Rp3142
tp3143
a(g44
g6
(g18
S'\xab`\xe5;'
p3144
tp3145
Rp3146
tp3147
a(g32
g6
(g18
S'\xd6\xffk;'
p3148
tp3149
Rp3150
tp3151
a(g56
g6
(g18
S'\xd9\xc5\xc2:'
p3152
tp3153
Rp3154
tp3155
a(g197
g6
(g18
S'*\xd07:'
p3156
tp3157
Rp3158
tp3159
asg73
g81
sa(dp3160
g2
S'../../../data/emanuela/activity-recognition/images/NTCIR-Lifelog-256/u2/2015-05-01/b00001754_21i7lf_20150501_085108e.jpg'
p3161
sg4
(lp3162
(g15
g6
(g18
S'|\xa9}?'
p3163
tp3164
Rp3165
tp3166
a(g32
g6
(g18
S'1\x80\xfc;'
p3167
tp3168
Rp3169
tp3170
a(g56
g6
(g18
S'\xd5b\x1e:'
p3171
tp3172
Rp3173
tp3174
a(g44
g6
(g18
S'z\xff\xdd9'
p3175
tp3176
Rp3177
tp3178
a(g68
g6
(g18
S'hR$9'
p3179
tp3180
Rp3181
tp3182
asg73
g81
sa(dp3183
g2
S'../../../data/emanuela/activity-recognition/images/NTCIR-Lifelog-256/u2/2015-04-30/b00000770_21i7lf_20150430_103937e.jpg'
p3184
sg4
(lp3185
(g15
g6
(g18
S'{\xd8z?'
p3186
tp3187
Rp3188
tp3189
a(g44
g6
(g18
S'M\x1c4<'
p3190
tp3191
Rp3192
tp3193
a(g56
g6
(g18
S'v\x01\xda;'
p3194
tp3195
Rp3196
tp3197
a(g108
g6
(g18
S'\xc0\xf5^:'
p3198
tp3199
Rp3200
tp3201
a(g32
g6
(g18
S'\x1c\x9f%:'
p3202
tp3203
Rp3204
tp3205
asg73
g81
sa(dp3206
g2
S'../../../data/emanuela/activity-recognition/images/NTCIR-Lifelog-256/u2/2015-04-28/b00000155_21i7lf_20150428_185948e.jpg'
p3207
sg4
(lp3208
(g15
g6
(g18
S'\x82c\x7f?'
p3209
tp3210
Rp3211
tp3212
a(g44
g6
(g18
S'\x7f\xda\x8f:'
p3213
tp3214
Rp3215
tp3216
a(g56
g6
(g18
S'\x92W8:'
p3217
tp3218
Rp3219
tp3220
a(g32
g6
(g18
S'Oq\x1d9'
p3221
tp3222
Rp3223
tp3224
a(g108
g6
(g18
S'J\xb7\x189'
p3225
tp3226
Rp3227
tp3228
asg73
g81
sa(dp3229
g2
S'../../../data/emanuela/activity-recognition/images/NTCIR-Lifelog-256/u2/2015-05-05/b00005928_21i7lf_20150505_181621e.jpg'
p3230
sg4
(lp3231
(g15
g6
(g18
S't\x97\x02?'
p3232
tp3233
Rp3234
tp3235
a(g32
g6
(g18
S'\xe3\xfb\x8f>'
p3236
tp3237
Rp3238
tp3239
a(g44
g6
(g18
S'\xf2>@>'
p3240
tp3241
Rp3242
tp3243
a(g455
g6
(g18
S'}\xee4<'
p3244
tp3245
Rp3246
tp3247
a(g56
g6
(g18
S'De\x83;'
p3248
tp3249
Rp3250
tp3251
asg73
g81
sa(dp3252
g2
S'../../../data/emanuela/activity-recognition/images/NTCIR-Lifelog-256/u2/2015-04-25/b00002974_21i7lf_20150425_105003e.jpg'
p3253
sg4
(lp3254
(g15
g6
(g18
S']4}?'
p3255
tp3256
Rp3257
tp3258
a(g197
g6
(g18
S'\xf5\xd0\xab;'
p3259
tp3260
Rp3261
tp3262
a(g32
g6
(g18
S'%\xb7+;'
p3263
tp3264
Rp3265
tp3266
a(g44
g6
(g18
S'\x94 \xb2:'
p3267
tp3268
Rp3269
tp3270
a(g139
g6
(g18
S'*\xf8\x04:'
p3271
tp3272
Rp3273
tp3274
asg73
g81
sa(dp3275
g2
S'../../../data/emanuela/activity-recognition/images/NTCIR-Lifelog-256/u2/2015-05-07/b00008260_21i7lf_20150507_205014e.jpg'
p3276
sg4
(lp3277
(g15
g6
(g18
S'\x1avl?'
p3278
tp3279
Rp3280
tp3281
a(g44
g6
(g18
S'\xb9_8='
p3282
tp3283
Rp3284
tp3285
a(g56
g6
(g18
S'CQN<'
p3286
tp3287
Rp3288
tp3289
a(g108
g6
(g18
S'\x94\xdd\x9b;'
p3290
tp3291
Rp3292
tp3293
a(g68
g6
(g18
S'\xc9cv;'
p3294
tp3295
Rp3296
tp3297
asg73
g81
sa(dp3298
g2
S'../../../data/emanuela/activity-recognition/images/NTCIR-Lifelog-256/u2/2015-04-28/b00006308_21i7lf_20150428_090057e.jpg'
p3299
sg4
(lp3300
(g15
g6
(g18
S'\x1f\xefv?'
p3301
tp3302
Rp3303
tp3304
a(g139
g6
(g18
S'\xe0\x1d\xa7<'
p3305
tp3306
Rp3307
tp3308
a(g44
g6
(g18
S'\x9c\x82\xfe;'
p3309
tp3310
Rp3311
tp3312
a(g108
g6
(g18
S'4`\x0c;'
p3313
tp3314
Rp3315
tp3316
a(g1138
g6
(g18
S'\xfe\xf6\xf1:'
p3317
tp3318
Rp3319
tp3320
asg73
g81
sa(dp3321
g2
S'../../../data/emanuela/activity-recognition/images/NTCIR-Lifelog-256/u2/2015-04-28/b00006305_21i7lf_20150428_085904e.jpg'
p3322
sg4
(lp3323
(g15
g6
(g18
S'j\x83g?'
p3324
tp3325
Rp3326
tp3327
a(g197
g6
(g18
S'\xb3\xe7\xf1<'
p3328
tp3329
Rp3330
tp3331
a(g108
g6
(g18
S'\x1d\x94\xc8<'
p3332
tp3333
Rp3334
tp3335
a(g68
g6
(g18
S'\xaeRs<'
p3336
tp3337
Rp3338
tp3339
a(g44
g6
(g18
S'k\x98\r<'
p3340
tp3341
Rp3342
tp3343
asg73
g81
sa(dp3344
g2
S'../../../data/emanuela/activity-recognition/images/NTCIR-Lifelog-256/u2/2015-04-28/b00006306_21i7lf_20150428_085944e.jpg'
p3345
sg4
(lp3346
(g15
g6
(g18
S'\x18\xf9l?'
p3347
tp3348
Rp3349
tp3350
a(g44
g6
(g18
S'\xf0P\xdc<'
p3351
tp3352
Rp3353
tp3354
a(g32
g6
(g18
S'\xd0z\x98<'
p3355
tp3356
Rp3357
tp3358
a(g56
g6
(g18
S'\xc7Y\x03<'
p3359
tp3360
Rp3361
tp3362
a(g197
g6
(g18
S'\xf6\xbf\x01<'
p3363
tp3364
Rp3365
tp3366
asg73
g81
sa(dp3367
g2
S'../../../data/emanuela/activity-recognition/images/NTCIR-Lifelog-256/u2/2015-04-28/b00006303_21i7lf_20150428_085748e.jpg'
p3368
sg4
(lp3369
(g15
g6
(g18
S'S\xf1t?'
p3370
tp3371
Rp3372
tp3373
a(g32
g6
(g18
S'Y\xfaO<'
p3374
tp3375
Rp3376
tp3377
a(g44
g6
(g18
S'M\xac\xea;'
p3378
tp3379
Rp3380
tp3381
a(g68
g6
(g18
S'\xd4g\xaf;'
p3382
tp3383
Rp3384
tp3385
a(g108
g6
(g18
S'\xfb\x16\x97;'
p3386
tp3387
Rp3388
tp3389
asg73
g81
sa(dp3390
g2
S'../../../data/emanuela/activity-recognition/images/NTCIR-Lifelog-256/u2/2015-05-01/b00002408_21i7lf_20150501_162941e.jpg'
p3391
sg4
(lp3392
(g15
g6
(g18
S'w\xb0}?'
p3393
tp3394
Rp3395
tp3396
a(g44
g6
(g18
S'}$\x88;'
p3397
tp3398
Rp3399
tp3400
a(g32
g6
(g18
S'\xf1\x87B;'
p3401
tp3402
Rp3403
tp3404
a(g56
g6
(g18
S'>\xb3a:'
p3405
tp3406
Rp3407
tp3408
a(g139
g6
(g18
S'\x10\xbb\xf19'
p3409
tp3410
Rp3411
tp3412
asg73
g81
sa(dp3413
g2
S'../../../data/emanuela/activity-recognition/images/NTCIR-Lifelog-256/u2/2015-04-27/b00005875_21i7lf_20150427_182608e.jpg'
p3414
sg4
(lp3415
(g15
g6
(g18
S'\xa5~}?'
p3416
tp3417
Rp3418
tp3419
a(g236
g6
(g18
S'\xb4\xc60;'
p3420
tp3421
Rp3422
tp3423
a(g68
g6
(g18
S'\x08\xc7\x16;'
p3424
tp3425
Rp3426
tp3427
a(g56
g6
(g18
S'\x90O\xb5:'
p3428
tp3429
Rp3430
tp3431
a(g44
g6
(g18
S'\xbf4\xab:'
p3432
tp3433
Rp3434
tp3435
asg73
g81
sa(dp3436
g2
S'../../../data/emanuela/activity-recognition/images/NTCIR-Lifelog-256/u2/2015-04-28/b00006314_21i7lf_20150428_090438e.jpg'
p3437
sg4
(lp3438
(g15
g6
(g18
S'g\xe2L?'
p3439
tp3440
Rp3441
tp3442
a(g44
g6
(g18
S'\xfd\xf3\x8a='
p3443
tp3444
Rp3445
tp3446
a(g32
g6
(g18
S'\x16\xd5P='
p3447
tp3448
Rp3449
tp3450
a(g139
g6
(g18
S'\xf0\xa8\xd9<'
p3451
tp3452
Rp3453
tp3454
a(g56
g6
(g18
S'\xe7^\x9a<'
p3455
tp3456
Rp3457
tp3458
asg73
g81
sa(dp3459
g2
S'../../../data/emanuela/activity-recognition/images/NTCIR-Lifelog-256/u2/2015-04-29/b00000235_21i7lf_20150429_095412e.jpg'
p3460
sg4
(lp3461
(g15
g6
(g18
S'\xb4\x82v?'
p3462
tp3463
Rp3464
tp3465
a(g44
g6
(g18
S'\xe2 \x91<'
p3466
tp3467
Rp3468
tp3469
a(g32
g6
(g18
S'4\x91Z<'
p3470
tp3471
Rp3472
tp3473
a(g56
g6
(g18
S'M\x83\xa2:'
p3474
tp3475
Rp3476
tp3477
a(g455
g6
(g18
S'+y\x81:'
p3478
tp3479
Rp3480
tp3481
asg73
g81
sa(dp3482
g2
S'../../../data/emanuela/activity-recognition/images/NTCIR-Lifelog-256/u2/2015-04-27/b00005883_21i7lf_20150427_183103e.jpg'
p3483
sg4
(lp3484
(g15
g6
(g18
S'\xd9\xe8\x1c?'
p3485
tp3486
Rp3487
tp3488
a(g44
g6
(g18
S'\xbaa\xb4>'
p3489
tp3490
Rp3491
tp3492
a(g56
g6
(g18
S'\x16\xd3=<'
p3493
tp3494
Rp3495
tp3496
a(g455
g6
(g18
S'G\xca\xbf;'
p3497
tp3498
Rp3499
tp3500
a(g32
g6
(g18
S'K\xc9\xaa;'
p3501
tp3502
Rp3503
tp3504
asg73
g81
sa(dp3505
g2
S'../../../data/emanuela/activity-recognition/images/NTCIR-Lifelog-256/u2/2015-04-30/b00000783_21i7lf_20150430_104731e.jpg'
p3506
sg4
(lp3507
(g15
g6
(g18
S'\xad\xedJ?'
p3508
tp3509
Rp3510
tp3511
a(g68
g6
(g18
S'\xf5Y\xb4='
p3512
tp3513
Rp3514
tp3515
a(g44
g6
(g18
S'\xc9v9='
p3516
tp3517
Rp3518
tp3519
a(g56
g6
(g18
S'\x1f..='
p3520
tp3521
Rp3522
tp3523
a(g170
g6
(g18
S'En\xf6;'
p3524
tp3525
Rp3526
tp3527
asg73
g81
sa(dp3528
g2
S'../../../data/emanuela/activity-recognition/images/NTCIR-Lifelog-256/u2/2015-04-28/b00000151_21i7lf_20150428_185715e.jpg'
p3529
sg4
(lp3530
(g15
g6
(g18
S'}\xecd?'
p3531
tp3532
Rp3533
tp3534
a(g44
g6
(g18
S'\xc9,\x18='
p3535
tp3536
Rp3537
tp3538
a(g170
g6
(g18
S'a1\x80<'
p3539
tp3540
Rp3541
tp3542
a(g32
g6
(g18
S'\xec@}<'
p3543
tp3544
Rp3545
tp3546
a(g68
g6
(g18
S'C\x1c)<'
p3547
tp3548
Rp3549
tp3550
asg73
g81
sa(dp3551
g2
S'../../../data/emanuela/activity-recognition/images/NTCIR-Lifelog-256/u2/2015-04-29/b00000242_21i7lf_20150429_095835e.jpg'
p3552
sg4
(lp3553
(g15
g6
(g18
S'\xf6\xd9}?'
p3554
tp3555
Rp3556
tp3557
a(g56
g6
(g18
S'\xd3\xec\x95;'
p3558
tp3559
Rp3560
tp3561
a(g32
g6
(g18
S'[g\x08;'
p3562
tp3563
Rp3564
tp3565
a(g44
g6
(g18
S'S\x00\x88:'
p3566
tp3567
Rp3568
tp3569
a(g68
g6
(g18
S'\xbe\xd1|9'
p3570
tp3571
Rp3572
tp3573
asg73
g81
sa(dp3574
g2
S'../../../data/emanuela/activity-recognition/images/NTCIR-Lifelog-256/u2/2015-04-30/b00001513_21i7lf_20150430_183924e.jpg'
p3575
sg4
(lp3576
(g15
g6
(g18
S'pK\x7f?'
p3577
tp3578
Rp3579
tp3580
a(g44
g6
(g18
S'B~\xc3:'
p3581
tp3582
Rp3583
tp3584
a(g32
g6
(g18
S'\xd4\x17\x8a:'
p3585
tp3586
Rp3587
tp3588
a(g56
g6
(g18
S'\xedV\xe08'
p3589
tp3590
Rp3591
tp3592
a(g68
g6
(g18
S'R\xbc\xe27'
p3593
tp3594
Rp3595
tp3596
asg73
g81
sa(dp3597
g2
S'../../../data/emanuela/activity-recognition/images/NTCIR-Lifelog-256/u2/2015-05-05/b00005089_21i7lf_20150505_091123e.jpg'
p3598
sg4
(lp3599
(g15
g6
(g18
S'1];?'
p3600
tp3601
Rp3602
tp3603
a(g32
g6
(g18
S':\xe8u='
p3604
tp3605
Rp3606
tp3607
a(g108
g6
(g18
S'o\xe0l='
p3608
tp3609
Rp3610
tp3611
a(g44
g6
(g18
S'\xfc\xe88='
p3612
tp3613
Rp3614
tp3615
a(g56
g6
(g18
S'l#\t='
p3616
tp3617
Rp3618
tp3619
asg73
g81
sa(dp3620
g2
S'../../../data/emanuela/activity-recognition/images/NTCIR-Lifelog-256/u2/2015-05-05/b00005923_21i7lf_20150505_181303e.jpg'
p3621
sg4
(lp3622
(g15
g6
(g18
S'\x08\xeet?'
p3623
tp3624
Rp3625
tp3626
a(g56
g6
(g18
S'!G\xd3<'
p3627
tp3628
Rp3629
tp3630
a(g44
g6
(g18
S'\x14\x8bE<'
p3631
tp3632
Rp3633
tp3634
a(g108
g6
(g18
S'\xba\xa5\xf9:'
p3635
tp3636
Rp3637
tp3638
a(g32
g6
(g18
S'4-\xc7:'
p3639
tp3640
Rp3641
tp3642
asg73
g81
sa(dp3643
g2
S'../../../data/emanuela/activity-recognition/images/NTCIR-Lifelog-256/u2/2015-04-30/b00001510_21i7lf_20150430_183725e.jpg'
p3644
sg4
(lp3645
(g15
g6
(g18
S'y\r|?'
p3646
tp3647
Rp3648
tp3649
a(g44
g6
(g18
S'#\n\xdc;'
p3650
tp3651
Rp3652
tp3653
a(g32
g6
(g18
S']\x1c\x87;'
p3654
tp3655
Rp3656
tp3657
a(g56
g6
(g18
S'\xda\xeb\x0b;'
p3658
tp3659
Rp3660
tp3661
a(g108
g6
(g18
S']B\x96:'
p3662
tp3663
Rp3664
tp3665
asg73
g81
sa(dp3666
g2
S'../../../data/emanuela/activity-recognition/images/NTCIR-Lifelog-256/u2/2015-05-05/b00005088_21i7lf_20150505_091045e.jpg'
p3667
sg4
(lp3668
(g15
g6
(g18
S'\x0b\x8bV?'
p3669
tp3670
Rp3671
tp3672
a(g44
g6
(g18
S'\xe0L5='
p3673
tp3674
Rp3675
tp3676
a(g139
g6
(g18
S';\xaa\xe0<'
p3677
tp3678
Rp3679
tp3680
a(g108
g6
(g18
S'\rt\xab<'
p3681
tp3682
Rp3683
tp3684
a(g56
g6
(g18
S'\x16A\x8f<'
p3685
tp3686
Rp3687
tp3688
asg73
g81
sa(dp3689
g2
S'../../../data/emanuela/activity-recognition/images/NTCIR-Lifelog-256/u2/2015-04-28/b00000160_21i7lf_20150428_190302e.jpg'
p3690
sg4
(lp3691
(g15
g6
(g18
S'"\xbf~?'
p3692
tp3693
Rp3694
tp3695
a(g56
g6
(g18
S'\x19\xc3\xee:'
p3696
tp3697
Rp3698
tp3699
a(g32
g6
(g18
S'\xb7\xce\x9f:'
p3700
tp3701
Rp3702
tp3703
a(g44
g6
(g18
S'\x80o\x97:'
p3704
tp3705
Rp3706
tp3707
a(g108
g6
(g18
S'-\xec~9'
p3708
tp3709
Rp3710
tp3711
asg73
g81
sa(dp3712
g2
S'../../../data/emanuela/activity-recognition/images/NTCIR-Lifelog-256/u2/2015-04-28/b00006298_21i7lf_20150428_085455e.jpg'
p3713
sg4
(lp3714
(g15
g6
(g18
S'\xcb[u?'
p3715
tp3716
Rp3717
tp3718
a(g44
g6
(g18
S' W\x8d<'
p3719
tp3720
Rp3721
tp3722
a(g32
g6
(g18
S'\xafp\x83<'
p3723
tp3724
Rp3725
tp3726
a(g56
g6
(g18
S'\xb1\xcd\xcd;'
p3727
tp3728
Rp3729
tp3730
a(g139
g6
(g18
S']o\x13:'
p3731
tp3732
Rp3733
tp3734
asg73
g81
sa(dp3735
g2
S'../../../data/emanuela/activity-recognition/images/NTCIR-Lifelog-256/u2/2015-04-29/b00000245_21i7lf_20150429_100021e.jpg'
p3736
sg4
(lp3737
(g15
g6
(g18
S'\xcd3`?'
p3738
tp3739
Rp3740
tp3741
a(g56
g6
(g18
S'\xa5\xe1%='
p3742
tp3743
Rp3744
tp3745
a(g44
g6
(g18
S'\x1c\x13\xe2<'
p3746
tp3747
Rp3748
tp3749
a(g32
g6
(g18
S'\xb8\xc6\xc6<'
p3750
tp3751
Rp3752
tp3753
a(g2020
g6
(g18
S'\x15\xf5\x83<'
p3754
tp3755
Rp3756
tp3757
asg73
g81
sa(dp3758
g2
S'../../../data/emanuela/activity-recognition/images/NTCIR-Lifelog-256/u2/2015-04-27/b00004953_21i7lf_20150427_085444e.jpg'
p3759
sg4
(lp3760
(g15
g6
(g18
S'1b2?'
p3761
tp3762
Rp3763
tp3764
a(g44
g6
(g18
S'\xdd\xab\xbe='
p3765
tp3766
Rp3767
tp3768
a(g68
g6
(g18
S'\xce\xc2\xa4='
p3769
tp3770
Rp3771
tp3772
a(g139
g6
(g18
S'\xa3\xd4\x00='
p3773
tp3774
Rp3775
tp3776
a(g108
g6
(g18
S'\xd2P\xe4<'
p3777
tp3778
Rp3779
tp3780
asg73
g81
sa(dp3781
g2
S'../../../data/emanuela/activity-recognition/images/NTCIR-Lifelog-256/u2/2015-05-07/b00007298_21i7lf_20150507_082618e.jpg'
p3782
sg4
(lp3783
(g15
g6
(g18
S'\x7f%\xb8>'
p3784
tp3785
Rp3786
tp3787
a(g32
g6
(g18
S'\x8b\x8d\x8f>'
p3788
tp3789
Rp3790
tp3791
a(g44
g6
(g18
S'\xd5\xd2H>'
p3792
tp3793
Rp3794
tp3795
a(g56
g6
(g18
S'\x90J\xd9='
p3796
tp3797
Rp3798
tp3799
a(g108
g6
(g18
S'*\xd5\xab<'
p3800
tp3801
Rp3802
tp3803
asg73
g81
sa(dp3804
g2
S'../../../data/emanuela/activity-recognition/images/NTCIR-Lifelog-256/u2/2015-04-29/b00000238_21i7lf_20150429_095606e.jpg'
p3805
sg4
(lp3806
(g15
g6
(g18
S'qvw?'
p3807
tp3808
Rp3809
tp3810
a(g32
g6
(g18
S'F\xb4Q<'
p3811
tp3812
Rp3813
tp3814
a(g56
g6
(g18
S'Q\xe5(<'
p3815
tp3816
Rp3817
tp3818
a(g44
g6
(g18
S'Ai\x03<'
p3819
tp3820
Rp3821
tp3822
a(g139
g6
(g18
S'\x92.\xf69'
p3823
tp3824
Rp3825
tp3826
asg73
g81
sa(dp3827
g2
S'../../../data/emanuela/activity-recognition/images/NTCIR-Lifelog-256/u2/2015-05-05/b00005931_21i7lf_20150505_181815e.jpg'
p3828
sg4
(lp3829
(g15
g6
(g18
S'c\xfb[?'
p3830
tp3831
Rp3832
tp3833
a(g44
g6
(g18
S'\x12\xe8\x9d='
p3834
tp3835
Rp3836
tp3837
a(g32
g6
(g18
S'\xafp\xa9<'
p3838
tp3839
Rp3840
tp3841
a(g108
g6
(g18
S'\xd0L\x93<'
p3842
tp3843
Rp3844
tp3845
a(g455
g6
(g18
S'\xbf\xb1\xfb;'
p3846
tp3847
Rp3848
tp3849
asg73
g81
sa(dp3850
g2
S'../../../data/emanuela/activity-recognition/images/NTCIR-Lifelog-256/u2/2015-05-01/b00001764_21i7lf_20150501_085718e.jpg'
p3851
sg4
(lp3852
(g15
g6
(g18
S'J\xd1z?'
p3853
tp3854
Rp3855
tp3856
a(g32
g6
(g18
S':\xbc\xe3;'
p3857
tp3858
Rp3859
tp3860
a(g44
g6
(g18
S'?[\xd8;'
p3861
tp3862
Rp3863
tp3864
a(g56
g6
(g18
S'\xa13\xc4;'
p3865
tp3866
Rp3867
tp3868
a(g68
g6
(g18
S';\xe9v9'
p3869
tp3870
Rp3871
tp3872
asg73
g81
sa(dp3873
g2
S'../../../data/emanuela/activity-recognition/images/NTCIR-Lifelog-256/u2/2015-05-07/b00008261_21i7lf_20150507_205047e.jpg'
p3874
sg4
(lp3875
(g15
g6
(g18
S'\x7fZv?'
p3876
tp3877
Rp3878
tp3879
a(g56
g6
(g18
S'b\xdf\xec<'
p3880
tp3881
Rp3882
tp3883
a(g44
g6
(g18
S'&[^;'
p3884
tp3885
Rp3886
tp3887
a(g32
g6
(g18
S"bQ';"
p3888
tp3889
Rp3890
tp3891
a(g1138
g6
(g18
S'sC/:'
p3892
tp3893
Rp3894
tp3895
asg73
g81
sa(dp3896
g2
S'../../../data/emanuela/activity-recognition/images/NTCIR-Lifelog-256/u2/2015-04-28/b00000153_21i7lf_20150428_185826e.jpg'
p3897
sg4
(lp3898
(g15
g6
(g18
S'>\x1am?'
p3899
tp3900
Rp3901
tp3902
a(g44
g6
(g18
S' \x99#='
p3903
tp3904
Rp3905
tp3906
a(g56
g6
(g18
S'\xed\x8a\x81<'
p3907
tp3908
Rp3909
tp3910
a(g32
g6
(g18
S'\x8c{Z<'
p3911
tp3912
Rp3913
tp3914
a(g68
g6
(g18
S'\xa5\x90{:'
p3915
tp3916
Rp3917
tp3918
asg73
g81
sa(dp3919
g2
S'../../../data/emanuela/activity-recognition/images/NTCIR-Lifelog-256/u2/2015-04-29/b00000845_21i7lf_20150429_161538e.jpg'
p3920
sg4
(lp3921
(g15
g6
(g18
S'\x08\x8a\x7f?'
p3922
tp3923
Rp3924
tp3925
a(g32
g6
(g18
S'\xb7(o:'
p3926
tp3927
Rp3928
tp3929
a(g56
g6
(g18
S'\x99\xab\xa19'
p3930
tp3931
Rp3932
tp3933
a(g44
g6
(g18
S'MP\x9a9'
p3934
tp3935
Rp3936
tp3937
a(g139
g6
(g18
S'\xc1\xa8\x0e9'
p3938
tp3939
Rp3940
tp3941
asg73
g81
sa(dp3942
g2
S'../../../data/emanuela/activity-recognition/images/NTCIR-Lifelog-256/u2/2015-05-05/b00005921_21i7lf_20150505_181119e.jpg'
p3943
sg4
(lp3944
(g15
g6
(g18
S'$\x16\xff>'
p3945
tp3946
Rp3947
tp3948
a(g44
g6
(g18
S'\x84P\xa3>'
p3949
tp3950
Rp3951
tp3952
a(g32
g6
(g18
S'\x88\xf2\x98='
p3953
tp3954
Rp3955
tp3956
a(g56
g6
(g18
S"\x9eL'="
p3957
tp3958
Rp3959
tp3960
a(g108
g6
(g18
S'\x8aG\x12='
p3961
tp3962
Rp3963
tp3964
asg73
g81
sa(dp3965
g2
S'../../../data/emanuela/activity-recognition/images/NTCIR-Lifelog-256/u2/2015-04-22/b00000573_21i7lf_20150422_183828e.jpg'
p3966
sg4
(lp3967
(g15
g6
(g18
S'\xe6\xf4\x7f?'
p3968
tp3969
Rp3970
tp3971
a(g56
g6
(g18
S'\xc6M\x908'
p3972
tp3973
Rp3974
tp3975
a(g68
g6
(g18
S'\xa6/:8'
p3976
tp3977
Rp3978
tp3979
a(g32
g6
(g18
S'\x97\x10\x9b7'
p3980
tp3981
Rp3982
tp3983
a(g44
g6
(g18
S'\x01\xcc\x877'
p3984
tp3985
Rp3986
tp3987
asg73
g81
sa(dp3988
g2
S'../../../data/emanuela/activity-recognition/images/NTCIR-Lifelog-256/u2/2015-04-30/b00000778_21i7lf_20150430_104424e.jpg'
p3989
sg4
(lp3990
(g15
g6
(g18
S'-\xe7}?'
p3991
tp3992
Rp3993
tp3994
a(g139
g6
(g18
S'^\x8d\x97;'
p3995
tp3996
Rp3997
tp3998
a(g44
g6
(g18
S'\x81l\x92:'
p3999
tp4000
Rp4001
tp4002
a(g108
g6
(g18
S',\x02_:'
p4003
tp4004
Rp4005
tp4006
a(g56
g6
(g18
S'\x83\x8aF:'
p4007
tp4008
Rp4009
tp4010
asg73
g81
sa(dp4011
g2
S'../../../data/emanuela/activity-recognition/images/NTCIR-Lifelog-256/u2/2015-04-22/b00000571_21i7lf_20150422_183712e.jpg'
p4012
sg4
(lp4013
(g15
g6
(g18
S'j\xc9\x7f?'
p4014
tp4015
Rp4016
tp4017
a(g44
g6
(g18
S'\xbae\xc69'
p4018
tp4019
Rp4020
tp4021
a(g32
g6
(g18
S'\x81!v9'
p4022
tp4023
Rp4024
tp4025
a(g56
g6
(g18
S'\x0fm\xae8'
p4026
tp4027
Rp4028
tp4029
a(g68
g6
(g18
S'\xc5\xdb\x928'
p4030
tp4031
Rp4032
tp4033
asg73
g81
sa(dp4034
g2
S'../../../data/emanuela/activity-recognition/images/NTCIR-Lifelog-256/u2/2015-04-29/b00000852_21i7lf_20150429_162009e.jpg'
p4035
sg4
(lp4036
(g15
g6
(g18
S'\xdb\xe8{?'
p4037
tp4038
Rp4039
tp4040
a(g32
g6
(g18
S'\xb3\x1f/<'
p4041
tp4042
Rp4043
tp4044
a(g44
g6
(g18
S'\x05\xfa\x03;'
p4045
tp4046
Rp4047
tp4048
a(g56
g6
(g18
S'\xa4S\x9d:'
p4049
tp4050
Rp4051
tp4052
a(g68
g6
(g18
S'8+\x99:'
p4053
tp4054
Rp4055
tp4056
asg73
g81
sa(dp4057
g2
S'../../../data/emanuela/activity-recognition/images/NTCIR-Lifelog-256/u2/2015-05-07/b00007299_21i7lf_20150507_082701e.jpg'
p4058
sg4
(lp4059
(g15
g6
(g18
S'5\xa3|?'
p4060
tp4061
Rp4062
tp4063
a(g44
g6
(g18
S'\x98;\xa2;'
p4064
tp4065
Rp4066
tp4067
a(g56
g6
(g18
S"I'r;"
p4068
tp4069
Rp4070
tp4071
a(g32
g6
(g18
S'\xf0M\x1a;'
p4072
tp4073
Rp4074
tp4075
a(g68
g6
(g18
S'\xda%\xa4:'
p4076
tp4077
Rp4078
tp4079
asg73
g81
sa(dp4080
g2
S'../../../data/emanuela/activity-recognition/images/NTCIR-Lifelog-256/u2/2015-04-27/b00004958_21i7lf_20150427_085739e.jpg'
p4081
sg4
(lp4082
(g15
g6
(g18
S'\xf4\x1by?'
p4083
tp4084
Rp4085
tp4086
a(g139
g6
(g18
S'|X[<'
p4087
tp4088
Rp4089
tp4090
a(g197
g6
(g18
S'L\xd1r;'
p4091
tp4092
Rp4093
tp4094
a(g44
g6
(g18
S'GR:;'
p4095
tp4096
Rp4097
tp4098
a(g108
g6
(g18
S'I\xde\xfa:'
p4099
tp4100
Rp4101
tp4102
asg73
g81
sa(dp4103
g2
S'../../../data/emanuela/activity-recognition/images/NTCIR-Lifelog-256/u2/2015-05-05/b00005924_21i7lf_20150505_181353e.jpg'
p4104
sg4
(lp4105
(g15
g6
(g18
S'w/}?'
p4106
tp4107
Rp4108
tp4109
a(g44
g6
(g18
S'\xf5\x10\x1b<'
p4110
tp4111
Rp4112
tp4113
a(g32
g6
(g18
S'\xd0\x059:'
p4114
tp4115
Rp4116
tp4117
a(g56
g6
(g18
S'\xe3:\x889'
p4118
tp4119
Rp4120
tp4121
a(g455
g6
(g18
S'\x04\x9c>9'
p4122
tp4123
Rp4124
tp4125
asg73
g81
sa(dp4126
g2
S'../../../data/emanuela/activity-recognition/images/NTCIR-Lifelog-256/u2/2015-05-01/b00001757_21i7lf_20150501_085301e.jpg'
p4127
sg4
(lp4128
(g15
g6
(g18
S'/\xffy?'
p4129
tp4130
Rp4131
tp4132
a(g44
g6
(g18
S'.!6<'
p4133
tp4134
Rp4135
tp4136
a(g56
g6
(g18
S'{\xf3\xab;'
p4137
tp4138
Rp4139
tp4140
a(g32
g6
(g18
S'+\xe5I;'
p4141
tp4142
Rp4143
tp4144
a(g68
g6
(g18
S'\x06g\x19;'
p4145
tp4146
Rp4147
tp4148
asg73
g81
sa(dp4149
g2
S'../../../data/emanuela/activity-recognition/images/NTCIR-Lifelog-256/u2/2015-04-29/b00000241_21i7lf_20150429_095755e.jpg'
p4150
sg4
(lp4151
(g15
g6
(g18
S'\xb9\xed\x7f?'
p4152
tp4153
Rp4154
tp4155
a(g44
g6
(g18
S'\xec4B9'
p4156
tp4157
Rp4158
tp4159
a(g56
g6
(g18
S'\xe5I#8'
p4160
tp4161
Rp4162
tp4163
a(g139
g6
(g18
S'rd\xfc7'
p4164
tp4165
Rp4166
tp4167
a(g32
g6
(g18
S'\xfa\xf3\x177'
p4168
tp4169
Rp4170
tp4171
asg73
g81
sa(dp4172
g2
S'../../../data/emanuela/activity-recognition/images/NTCIR-Lifelog-256/u2/2015-04-27/b00004964_21i7lf_20150427_090133e.jpg'
p4173
sg4
(lp4174
(g15
g6
(g18
S'L@\x7f?'
p4175
tp4176
Rp4177
tp4178
a(g108
g6
(g18
S'\xdb\x8aT:'
p4179
tp4180
Rp4181
tp4182
a(g32
g6
(g18
S'%q3:'
p4183
tp4184
Rp4185
tp4186
a(g236
g6
(g18
S'h\xb3\xdf9'
p4187
tp4188
Rp4189
tp4190
a(g44
g6
(g18
S'\xc7\x1a\xa19'
p4191
tp4192
Rp4193
tp4194
asg73
g81
sa(dp4195
g2
S'../../../data/emanuela/activity-recognition/images/NTCIR-Lifelog-256/u2/2015-05-01/b00002411_21i7lf_20150501_163133e.jpg'
p4196
sg4
(lp4197
(g15
g6
(g18
S'6"|?'
p4198
tp4199
Rp4200
tp4201
a(g32
g6
(g18
S' \xfd\x1c<'
p4202
tp4203
Rp4204
tp4205
a(g44
g6
(g18
S'W\x88\x1d;'
p4206
tp4207
Rp4208
tp4209
a(g56
g6
(g18
S'\t\xad\x18;'
p4210
tp4211
Rp4212
tp4213
a(g108
g6
(g18
S'\xbc\xbb\xb29'
p4214
tp4215
Rp4216
tp4217
asg73
g81
sa(dp4218
g2
S'../../../data/emanuela/activity-recognition/images/NTCIR-Lifelog-256/u2/2015-04-29/b00000239_21i7lf_20150429_095644e.jpg'
p4219
sg4
(lp4220
(g15
g6
(g18
S'N\xd2\x7f?'
p4221
tp4222
Rp4223
tp4224
a(g56
g6
(g18
S'\xc9\x1c\xa99'
p4225
tp4226
Rp4227
tp4228
a(g44
g6
(g18
S'\x99\x8379'
p4229
tp4230
Rp4231
tp4232
a(g32
g6
(g18
S'N[\x069'
p4233
tp4234
Rp4235
tp4236
a(g139
g6
(g18
S'$aP8'
p4237
tp4238
Rp4239
tp4240
asg73
g81
sa(dp4241
g2
S'../../../data/emanuela/activity-recognition/images/NTCIR-Lifelog-256/u2/2015-05-05/b00005079_21i7lf_20150505_090510e.jpg'
p4242
sg4
(lp4243
(g15
g6
(g18
S'\x9a\xf9z?'
p4244
tp4245
Rp4246
tp4247
a(g32
g6
(g18
S'>\xb0\xad;'
p4248
tp4249
Rp4250
tp4251
a(g170
g6
(g18
S'\xd5\x80];'
p4252
tp4253
Rp4254
tp4255
a(g68
g6
(g18
S'\x90JJ;'
p4256
tp4257
Rp4258
tp4259
a(g44
g6
(g18
S'\xe2}A;'
p4260
tp4261
Rp4262
tp4263
asg73
g81
sa(dp4264
g2
S'../../../data/emanuela/activity-recognition/images/NTCIR-Lifelog-256/u2/2015-04-22/b00000575_21i7lf_20150422_183950e.jpg'
p4265
sg4
(lp4266
(g15
g6
(g18
S'\x81@c?'
p4267
tp4268
Rp4269
tp4270
a(g44
g6
(g18
S'\x08<j='
p4271
tp4272
Rp4273
tp4274
a(g32
g6
(g18
S'-\xa3\x0e='
p4275
tp4276
Rp4277
tp4278
a(g56
g6
(g18
S'Cs\x87<'
p4279
tp4280
Rp4281
tp4282
a(g108
g6
(g18
S'\x88\xc6\x8a:'
p4283
tp4284
Rp4285
tp4286
asg73
g81
sa(dp4287
g2
S'../../../data/emanuela/activity-recognition/images/NTCIR-Lifelog-256/u2/2015-04-27/b00005888_21i7lf_20150427_183414e.jpg'
p4288
sg4
(lp4289
(g15
g6
(g18
S'\xc7\xea~?'
p4290
tp4291
Rp4292
tp4293
a(g44
g6
(g18
S'\xcc\x8b\x15;'
p4294
tp4295
Rp4296
tp4297
a(g56
g6
(g18
S'\x03\xceb:'
p4298
tp4299
Rp4300
tp4301
a(g32
g6
(g18
S'\xd3\x895:'
p4302
tp4303
Rp4304
tp4305
a(g139
g6
(g18
S'\x94\x1a-9'
p4306
tp4307
Rp4308
tp4309
asg73
g81
sa(dp4310
g2
S'../../../data/emanuela/activity-recognition/images/NTCIR-Lifelog-256/u2/2015-05-05/b00005086_21i7lf_20150505_090931e.jpg'
p4311
sg4
(lp4312
(g15
g6
(g18
S'*5w?'
p4313
tp4314
Rp4315
tp4316
a(g32
g6
(g18
S'w?\x10<'
p4317
tp4318
Rp4319
tp4320
a(g44
g6
(g18
S'\xc2\xb3\x0e<'
p4321
tp4322
Rp4323
tp4324
a(g56
g6
(g18
S'.\xa4\xbd;'
p4325
tp4326
Rp4327
tp4328
a(g197
g6
(g18
S'`\xd6\x14;'
p4329
tp4330
Rp4331
tp4332
asg73
g81
sa(dp4333
g2
S'../../../data/emanuela/activity-recognition/images/NTCIR-Lifelog-256/u2/2015-04-29/b00000243_21i7lf_20150429_095911e.jpg'
p4334
sg4
(lp4335
(g15
g6
(g18
S'z\xdb|?'
p4336
tp4337
Rp4338
tp4339
a(g32
g6
(g18
S'{\xc2\x04<'
p4340
tp4341
Rp4342
tp4343
a(g44
g6
(g18
S'B^\x15;'
p4344
tp4345
Rp4346
tp4347
a(g56
g6
(g18
S'<G\xde:'
p4348
tp4349
Rp4350
tp4351
a(g68
g6
(g18
S'#f\x858'
p4352
tp4353
Rp4354
tp4355
asg73
g81
sa(dp4356
g2
S'../../../data/emanuela/activity-recognition/images/NTCIR-Lifelog-256/u2/2015-04-27/b00005880_21i7lf_20150427_182917e.jpg'
p4357
sg4
(lp4358
(g15
g6
(g18
S'\x80\x01~?'
p4359
tp4360
Rp4361
tp4362
a(g32
g6
(g18
S's\xbbF;'
p4363
tp4364
Rp4365
tp4366
a(g44
g6
(g18
S'\x8b\xfa6;'
p4367
tp4368
Rp4369
tp4370
a(g56
g6
(g18
S'\xea\xa9\xc1:'
p4371
tp4372
Rp4373
tp4374
a(g68
g6
(g18
S'\xecE\x869'
p4375
tp4376
Rp4377
tp4378
asg73
g81
sa(dp4379
g2
S'../../../data/emanuela/activity-recognition/images/NTCIR-Lifelog-256/u2/2015-05-07/b00007300_21i7lf_20150507_082744e.jpg'
p4380
sg4
(lp4381
(g15
g6
(g18
S'xRt?'
p4382
tp4383
Rp4384
tp4385
a(g44
g6
(g18
S'\x14l\xa1<'
p4386
tp4387
Rp4388
tp4389
a(g56
g6
(g18
S'\xbe\xf0L<'
p4390
tp4391
Rp4392
tp4393
a(g32
g6
(g18
S'\x9b\xa8)<'
p4394
tp4395
Rp4396
tp4397
a(g68
g6
(g18
S'\xddBg:'
p4398
tp4399
Rp4400
tp4401
asg73
g81
sa(dp4402
g2
S'../../../data/emanuela/activity-recognition/images/NTCIR-Lifelog-256/u2/2015-04-27/b00005891_21i7lf_20150427_183605e.jpg'
p4403
sg4
(lp4404
(g1057
g6
(g18
S'\xbd\xff\xb9>'
p4405
tp4406
Rp4407
tp4408
a(g170
g6
(g18
S'\xccpy>'
p4409
tp4410
Rp4411
tp4412
a(g6
(g7
(S'S2'
p4413
I0
I1
tp4414
Rp4415
(I3
S'|'
p4416
NNNI2
I1
I0
tp4417
bS'tv'
p4418
tp4419
Rp4420
g6
(g18
S'ml >'
p4421
tp4422
Rp4423
tp4424
a(g68
g6
(g18
S'2\x1c\xa9='
p4425
tp4426
Rp4427
tp4428
a(g44
g6
(g18
S'\xce3P='
p4429
tp4430
Rp4431
tp4432
asg73
g81
sa(dp4433
g2
S'../../../data/emanuela/activity-recognition/images/NTCIR-Lifelog-256/u2/2015-04-30/b00000767_21i7lf_20150430_103747e.jpg'
p4434
sg4
(lp4435
(g15
g6
(g18
S'\xef\x91\xd1>'
p4436
tp4437
Rp4438
tp4439
a(g56
g6
(g18
S'@\xa4\x1a>'
p4440
tp4441
Rp4442
tp4443
a(g1057
g6
(g18
S'\x9a\x0e\xd0='
p4444
tp4445
Rp4446
tp4447
a(g44
g6
(g18
S'\xedP\xb4='
p4448
tp4449
Rp4450
tp4451
a(g32
g6
(g18
S'X?\xb4='
p4452
tp4453
Rp4454
tp4455
asg73
g81
sa(dp4456
g2
S'../../../data/emanuela/activity-recognition/images/NTCIR-Lifelog-256/u2/2015-04-28/b00000161_21i7lf_20150428_190337e.jpg'
p4457
sg4
(lp4458
(g15
g6
(g18
S'g\xee\x7f?'
p4459
tp4460
Rp4461
tp4462
a(g32
g6
(g18
S'\xd5!\xef8'
p4463
tp4464
Rp4465
tp4466
a(g44
g6
(g18
S'\xc58\xa88'
p4467
tp4468
Rp4469
tp4470
a(g197
g6
(g18
S'\x80\xdc\x108'
p4471
tp4472
Rp4473
tp4474
a(g139
g6
(g18
S'\x1d\xad\x887'
p4475
tp4476
Rp4477
tp4478
asg73
g81
sa(dp4479
g2
S'../../../data/emanuela/activity-recognition/images/NTCIR-Lifelog-256/u2/2015-04-29/b00000849_21i7lf_20150429_161814e.jpg'
p4480
sg4
(lp4481
(g15
g6
(g18
S'$\x13;?'
p4482
tp4483
Rp4484
tp4485
a(g44
g6
(g18
S' >\xdb='
p4486
tp4487
Rp4488
tp4489
a(g56
g6
(g18
S'\x04r\xd1='
p4490
tp4491
Rp4492
tp4493
a(g32
g6
(g18
S'4Q7='
p4494
tp4495
Rp4496
tp4497
a(g108
g6
(g18
S'\x13=\x8d;'
p4498
tp4499
Rp4500
tp4501
asg73
g81
sa(dp4502
g2
S'../../../data/emanuela/activity-recognition/images/NTCIR-Lifelog-256/u2/2015-04-29/b00000853_21i7lf_20150429_162050e.jpg'
p4503
sg4
(lp4504
(g15
g6
(g18
S'\xac\x7f\x7f?'
p4505
tp4506
Rp4507
tp4508
a(g68
g6
(g18
S'D\xb5\xbd:'
p4509
tp4510
Rp4511
tp4512
a(g44
g6
(g18
S'\xdc\xe1P9'
p4513
tp4514
Rp4515
tp4516
a(g32
g6
(g18
S'\xd9\xea\xc38'
p4517
tp4518
Rp4519
tp4520
a(g56
g6
(g18
S'\xff\xd4\x7f8'
p4521
tp4522
Rp4523
tp4524
asg73
g81
sa(dp4525
g2
S'../../../data/emanuela/activity-recognition/images/NTCIR-Lifelog-256/u2/2015-04-29/b00000848_21i7lf_20150429_161734e.jpg'
p4526
sg4
(lp4527
(g15
g6
(g18
S'\xba\xc9~?'
p4528
tp4529
Rp4530
tp4531
a(g56
g6
(g18
S'\xff\x1f\xd0:'
p4532
tp4533
Rp4534
tp4535
a(g44
g6
(g18
S'hd\x98:'
p4536
tp4537
Rp4538
tp4539
a(g32
g6
(g18
S'a\xc2\x8e:'
p4540
tp4541
Rp4542
tp4543
a(g139
g6
(g18
S'\xf2\x0f\xc29'
p4544
tp4545
Rp4546
tp4547
asg73
g81
sa(dp4548
g2
S'../../../data/emanuela/activity-recognition/images/NTCIR-Lifelog-256/u2/2015-04-29/b00000844_21i7lf_20150429_161454e.jpg'
p4549
sg4
(lp4550
(g15
g6
(g18
S'\x11\xc1\x7f?'
p4551
tp4552
Rp4553
tp4554
a(g56
g6
(g18
S'>\xc1\x999'
p4555
tp4556
Rp4557
tp4558
a(g139
g6
(g18
S'faa9'
p4559
tp4560
Rp4561
tp4562
a(g44
g6
(g18
S'.8I9'
p4563
tp4564
Rp4565
tp4566
a(g32
g6
(g18
S'\x8b?>9'
p4567
tp4568
Rp4569
tp4570
asg73
g81
sa(dp4571
g2
S'../../../data/emanuela/activity-recognition/images/NTCIR-Lifelog-256/u2/2015-04-29/b00000246_21i7lf_20150429_100100e.jpg'
p4572
sg4
(lp4573
(g15
g6
(g18
S'?\xea~?'
p4574
tp4575
Rp4576
tp4577
a(g32
g6
(g18
S'\xea\xa2[;'
p4578
tp4579
Rp4580
tp4581
a(g68
g6
(g18
S'0\xf0I9'
p4582
tp4583
Rp4584
tp4585
a(g44
g6
(g18
S'\xa6\xa6"9'
p4586
tp4587
Rp4588
tp4589
a(g56
g6
(g18
S')\xca\x1e9'
p4590
tp4591
Rp4592
tp4593
asg73
g81
sa(dp4594
g2
S'../../../data/emanuela/activity-recognition/images/NTCIR-Lifelog-256/u2/2015-04-22/b00000564_21i7lf_20150422_183256e.jpg'
p4595
sg4
(lp4596
(g15
g6
(g18
S'\x9a\x9d\x7f?'
p4597
tp4598
Rp4599
tp4600
a(g32
g6
(g18
S'\xa2\xc6\x96:'
p4601
tp4602
Rp4603
tp4604
a(g44
g6
(g18
S'\x8cX&9'
p4605
tp4606
Rp4607
tp4608
a(g56
g6
(g18
S'\xb7\xbb\xd58'
p4609
tp4610
Rp4611
tp4612
a(g68
g6
(g18
S'\xcd\x92\x858'
p4613
tp4614
Rp4615
tp4616
asg73
g81
sa(dp4617
g2
S'../../../data/emanuela/activity-recognition/images/NTCIR-Lifelog-256/u2/2015-04-27/b00004963_21i7lf_20150427_090055e.jpg'
p4618
sg4
(lp4619
(g15
g6
(g18
S'\xe2P\x11?'
p4620
tp4621
Rp4622
tp4623
a(g197
g6
(g18
S"'\xef\xe0="
p4624
tp4625
Rp4626
tp4627
a(g44
g6
(g18
S'\x15\xe5\xbc='
p4628
tp4629
Rp4630
tp4631
a(g108
g6
(g18
S'\x94\xce\xa1='
p4632
tp4633
Rp4634
tp4635
a(g68
g6
(g18
S'\xe1/\x1d='
p4636
tp4637
Rp4638
tp4639
asg73
g81
sa(dp4640
g2
S'../../../data/emanuela/activity-recognition/images/NTCIR-Lifelog-256/u2/2015-05-07/b00008255_21i7lf_20150507_204707e.jpg'
p4641
sg4
(lp4642
(g15
g6
(g18
S'\x99\xe4k?'
p4643
tp4644
Rp4645
tp4646
a(g44
g6
(g18
S'}N\x19='
p4647
tp4648
Rp4649
tp4650
a(g56
g6
(g18
S'\x15\xa6\xd7<'
p4651
tp4652
Rp4653
tp4654
a(g32
g6
(g18
S'\x89\xb3\xcc;'
p4655
tp4656
Rp4657
tp4658
a(g108
g6
(g18
S'\xc3\n\x12;'
p4659
tp4660
Rp4661
tp4662
asg73
g81
sa(dp4663
g2
S'../../../data/emanuela/activity-recognition/images/NTCIR-Lifelog-256/u2/2015-04-29/b00000236_21i7lf_20150429_095453e.jpg'
p4664
sg4
(lp4665
(g15
g6
(g18
S'\xe1py?'
p4666
tp4667
Rp4668
tp4669
a(g44
g6
(g18
S'\xc0Q\x88<'
p4670
tp4671
Rp4672
tp4673
a(g56
g6
(g18
S'J\xfe\x97;'
p4674
tp4675
Rp4676
tp4677
a(g32
g6
(g18
S'&\x0e\x14;'
p4678
tp4679
Rp4680
tp4681
a(g68
g6
(g18
S'\xbc\xed\x05:'
p4682
tp4683
Rp4684
tp4685
asg73
g81
sa(dp4686
g2
S'../../../data/emanuela/activity-recognition/images/NTCIR-Lifelog-256/u2/2015-04-30/b00001517_21i7lf_20150430_184154e.jpg'
p4687
sg4
(lp4688
(g15
g6
(g18
S'6\xdc??'
p4689
tp4690
Rp4691
tp4692
a(g32
g6
(g18
S'\xad\xab >'
p4693
tp4694
Rp4695
tp4696
a(g44
g6
(g18
S'\xb3\x16\x9a='
p4697
tp4698
Rp4699
tp4700
a(g56
g6
(g18
S'\x0c\xc5\xbb;'
p4701
tp4702
Rp4703
tp4704
a(g455
g6
(g18
S'\xe5\xca\xaa;'
p4705
tp4706
Rp4707
tp4708
asg73
g81
sa(dp4709
g2
S'../../../data/emanuela/activity-recognition/images/NTCIR-Lifelog-256/u2/2015-05-07/b00008262_21i7lf_20150507_205128e.jpg'
p4710
sg4
(lp4711
(g15
g6
(g18
S'\x83\t#?'
p4712
tp4713
Rp4714
tp4715
a(g32
g6
(g18
S'\x92l!>'
p4716
tp4717
Rp4718
tp4719
a(g44
g6
(g18
S'\xd0S\x17>'
p4720
tp4721
Rp4722
tp4723
a(g56
g6
(g18
S'r\xb01='
p4724
tp4725
Rp4726
tp4727
a(g68
g6
(g18
S'\x04\x7f\xc0;'
p4728
tp4729
Rp4730
tp4731
asg73
g81
sa(dp4732
g2
S'../../../data/emanuela/activity-recognition/images/NTCIR-Lifelog-256/u2/2015-04-28/b00006301_21i7lf_20150428_085636e.jpg'
p4733
sg4
(lp4734
(g15
g6
(g18
S'P\xf1u?'
p4735
tp4736
Rp4737
tp4738
a(g32
g6
(g18
S'\x88\xda\x93<'
p4739
tp4740
Rp4741
tp4742
a(g44
g6
(g18
S'\xbd\xa6<<'
p4743
tp4744
Rp4745
tp4746
a(g56
g6
(g18
S'\xbc\xd8e;'
p4747
tp4748
Rp4749
tp4750
a(g68
g6
(g18
S'p(\x04;'
p4751
tp4752
Rp4753
tp4754
asg73
g81
sa(dp4755
g2
S'../../../data/emanuela/activity-recognition/images/NTCIR-Lifelog-256/u2/2015-05-01/b00001753_21i7lf_20150501_085031e.jpg'
p4756
sg4
(lp4757
(g15
g6
(g18
S'\xf7=|?'
p4758
tp4759
Rp4760
tp4761
a(g44
g6
(g18
S'm\x02\xa8;'
p4762
tp4763
Rp4764
tp4765
a(g56
g6
(g18
S'\xbf8\x93;'
p4766
tp4767
Rp4768
tp4769
a(g32
g6
(g18
S'\xeb\xf2\x82;'
p4770
tp4771
Rp4772
tp4773
a(g68
g6
(g18
S'\xb0\x89\xc49'
p4774
tp4775
Rp4776
tp4777
asg73
g81
sa(dp4778
g2
S'../../../data/emanuela/activity-recognition/images/NTCIR-Lifelog-256/u2/2015-04-30/b00000779_21i7lf_20150430_104459e.jpg'
p4779
sg4
(lp4780
(g15
g6
(g18
S'\xba\x89m?'
p4781
tp4782
Rp4783
tp4784
a(g44
g6
(g18
S'\xef3J='
p4785
tp4786
Rp4787
tp4788
a(g56
g6
(g18
S'\xdb\xd7\x1c<'
p4789
tp4790
Rp4791
tp4792
a(g32
g6
(g18
S'\xae\x04\xf9;'
p4793
tp4794
Rp4795
tp4796
a(g1138
g6
(g18
S'"\x8a\xb9:'
p4797
tp4798
Rp4799
tp4800
asg73
g81
sa(dp4801
g2
S'../../../data/emanuela/activity-recognition/images/NTCIR-Lifelog-256/u2/2015-04-29/b00000854_21i7lf_20150429_162131e.jpg'
p4802
sg4
(lp4803
(g32
g6
(g18
S'\x08\x97\xcd>'
p4804
tp4805
Rp4806
tp4807
a(g15
g6
(g18
S'\x16\x97\xb4>'
p4808
tp4809
Rp4810
tp4811
a(g44
g6
(g18
S':\x8d\xce='
p4812
tp4813
Rp4814
tp4815
a(g56
g6
(g18
S'dOu='
p4816
tp4817
Rp4818
tp4819
a(g197
g6
(g18
S'\xe4\xac\x06='
p4820
tp4821
Rp4822
tp4823
asg73
g81
sa(dp4824
g2
S'../../../data/emanuela/activity-recognition/images/NTCIR-Lifelog-256/u2/2015-04-28/b00000158_21i7lf_20150428_190139e.jpg'
p4825
sg4
(lp4826
(g15
g6
(g18
S'\xfc{f?'
p4827
tp4828
Rp4829
tp4830
a(g44
g6
(g18
S'I]\x1f='
p4831
tp4832
Rp4833
tp4834
a(g56
g6
(g18
S'\x16\xf5\x1e='
p4835
tp4836
Rp4837
tp4838
a(g32
g6
(g18
S'\x08\xe7=<'
p4839
tp4840
Rp4841
tp4842
a(g108
g6
(g18
S'9k\x83;'
p4843
tp4844
Rp4845
tp4846
asg73
g81
sa(dp4847
g2
S'../../../data/emanuela/activity-recognition/images/NTCIR-Lifelog-256/u2/2015-04-30/b00000781_21i7lf_20150430_104615e.jpg'
p4848
sg4
(lp4849
(g15
g6
(g18
S'q\xcd\\?'
p4850
tp4851
Rp4852
tp4853
a(g32
g6
(g18
S'\xe0\x90\x9d='
p4854
tp4855
Rp4856
tp4857
a(g44
g6
(g18
S'\xfcb\x01='
p4858
tp4859
Rp4860
tp4861
a(g56
g6
(g18
S'Z\x9fg<'
p4862
tp4863
Rp4864
tp4865
a(g139
g6
(g18
S'\x15\xcb$<'
p4866
tp4867
Rp4868
tp4869
asg73
g81
sa(dp4870
g2
S'../../../data/emanuela/activity-recognition/images/NTCIR-Lifelog-256/u2/2015-04-28/b00006310_21i7lf_20150428_090215e.jpg'
p4871
sg4
(lp4872
(g15
g6
(g18
S')\x94y?'
p4873
tp4874
Rp4875
tp4876
a(g32
g6
(g18
S'2\x1d4<'
p4877
tp4878
Rp4879
tp4880
a(g139
g6
(g18
S'\x16\xef\x80;'
p4881
tp4882
Rp4883
tp4884
a(g56
g6
(g18
S'\x1fE\xff:'
p4885
tp4886
Rp4887
tp4888
a(g108
g6
(g18
S'\x9cV\xc6:'
p4889
tp4890
Rp4891
tp4892
asg73
g81
sa(dp4893
g2
S'../../../data/emanuela/activity-recognition/images/NTCIR-Lifelog-256/u2/2015-05-01/b00002420_21i7lf_20150501_163701e.jpg'
p4894
sg4
(lp4895
(g32
g6
(g18
S'^5\xe4>'
p4896
tp4897
Rp4898
tp4899
a(g44
g6
(g18
S'\xe4\xec\x81>'
p4900
tp4901
Rp4902
tp4903
a(g15
g6
(g18
S'\xa4\xb7\xc3='
p4904
tp4905
Rp4906
tp4907
a(g170
g6
(g18
S'\xc3\x99\x1a='
p4908
tp4909
Rp4910
tp4911
a(g197
g6
(g18
S'a\xd0\x15='
p4912
tp4913
Rp4914
tp4915
asg73
g81
sa(dp4916
g2
S'../../../data/emanuela/activity-recognition/images/NTCIR-Lifelog-256/u2/2015-05-07/b00008256_21i7lf_20150507_204742e.jpg'
p4917
sg4
(lp4918
(g15
g6
(g18
S'\x1e}|?'
p4919
tp4920
Rp4921
tp4922
a(g44
g6
(g18
S'\xc4\xb9b;'
p4923
tp4924
Rp4925
tp4926
a(g32
g6
(g18
S'T\xe5Q;'
p4927
tp4928
Rp4929
tp4930
a(g56
g6
(g18
S"_\xe5';"
p4931
tp4932
Rp4933
tp4934
a(g139
g6
(g18
S'6\xad\xec:'
p4935
tp4936
Rp4937
tp4938
asg73
g81
sa(dp4939
g2
S'../../../data/emanuela/activity-recognition/images/NTCIR-Lifelog-256/u2/2015-05-01/b00001751_21i7lf_20150501_084919e.jpg'
p4940
sg4
(lp4941
(g15
g6
(g18
S'-%d?'
p4942
tp4943
Rp4944
tp4945
a(g32
g6
(g18
S'c\xc5H='
p4946
tp4947
Rp4948
tp4949
a(g56
g6
(g18
S'\xe2\xd1C='
p4950
tp4951
Rp4952
tp4953
a(g44
g6
(g18
S'\xa0?\xc8;'
p4954
tp4955
Rp4956
tp4957
a(g108
g6
(g18
S'\x10\x0e\xb9:'
p4958
tp4959
Rp4960
tp4961
asg73
g81
sa(dp4962
g2
S'../../../data/emanuela/activity-recognition/images/NTCIR-Lifelog-256/u2/2015-04-30/b00000776_21i7lf_20150430_104316e.jpg'
p4963
sg4
(lp4964
(g15
g6
(g18
S'xd-?'
p4965
tp4966
Rp4967
tp4968
a(g44
g6
(g18
S'p\x1e\xe8='
p4969
tp4970
Rp4971
tp4972
a(g32
g6
(g18
S'\xdb\xd2\xb6='
p4973
tp4974
Rp4975
tp4976
a(g56
g6
(g18
S'C\xc5D='
p4977
tp4978
Rp4979
tp4980
a(g108
g6
(g18
S'\xafJ$='
p4981
tp4982
Rp4983
tp4984
asg73
g81
sa(dp4985
g2
S'../../../data/emanuela/activity-recognition/images/NTCIR-Lifelog-256/u2/2015-04-28/b00006297_21i7lf_20150428_085418e.jpg'
p4986
sg4
(lp4987
(g15
g6
(g18
S'\xffW=?'
p4988
tp4989
Rp4990
tp4991
a(g197
g6
(g18
S'|C)>'
p4992
tp4993
Rp4994
tp4995
a(g139
g6
(g18
S'\xa3a\x01='
p4996
tp4997
Rp4998
tp4999
a(g44
g6
(g18
S'y\xdc\xb6<'
p5000
tp5001
Rp5002
tp5003
a(g108
g6
(g18
S'\x86]I<'
p5004
tp5005
Rp5006
tp5007
asg73
g81
sa(dp5008
g2
S'../../../data/emanuela/activity-recognition/images/NTCIR-Lifelog-256/u2/2015-05-07/b00007306_21i7lf_20150507_083129e.jpg'
p5009
sg4
(lp5010
(g15
g6
(g18
S'\xf2\xbdb?'
p5011
tp5012
Rp5013
tp5014
a(g32
g6
(g18
S"N'\x84="
p5015
tp5016
Rp5017
tp5018
a(g56
g6
(g18
S'IG\x18='
p5019
tp5020
Rp5021
tp5022
a(g44
g6
(g18
S',\xdd\x10<'
p5023
tp5024
Rp5025
tp5026
a(g139
g6
(g18
S'v\xaco:'
p5027
tp5028
Rp5029
tp5030
asg73
g81
sa(dp5031
g2
S'../../../data/emanuela/activity-recognition/images/NTCIR-Lifelog-256/u2/2015-04-27/b00004959_21i7lf_20150427_085819e.jpg'
p5032
sg4
(lp5033
(g15
g6
(g18
S'p\xd7`?'
p5034
tp5035
Rp5036
tp5037
a(g44
g6
(g18
S'\x01\x98\x94='
p5038
tp5039
Rp5040
tp5041
a(g139
g6
(g18
S'C"\x82<'
p5042
tp5043
Rp5044
tp5045
a(g108
g6
(g18
S'|%&<'
p5046
tp5047
Rp5048
tp5049
a(g197
g6
(g18
S'\xf5-\x98;'
p5050
tp5051
Rp5052
tp5053
asg73
g81
sa(dp5054
g2
S'../../../data/emanuela/activity-recognition/images/NTCIR-Lifelog-256/u2/2015-05-01/b00002414_21i7lf_20150501_163322e.jpg'
p5055
sg4
(lp5056
(g15
g6
(g18
S'\x18\x87x?'
p5057
tp5058
Rp5059
tp5060
a(g44
g6
(g18
S'\xe9\xf5L<'
p5061
tp5062
Rp5063
tp5064
a(g56
g6
(g18
S'\xcd\x1a\xc2;'
p5065
tp5066
Rp5067
tp5068
a(g32
g6
(g18
S'\x86\x1f\xa1;'
p5069
tp5070
Rp5071
tp5072
a(g68
g6
(g18
S'\xa6\xbd[;'
p5073
tp5074
Rp5075
tp5076
asg73
g81
sa(dp5077
g2
S'../../../data/emanuela/activity-recognition/images/NTCIR-Lifelog-256/u2/2015-05-07/b00007293_21i7lf_20150507_082317e.jpg'
p5078
sg4
(lp5079
(g15
g6
(g18
S'\xf7\x81|?'
p5080
tp5081
Rp5082
tp5083
a(g32
g6
(g18
S'\xb1\xf9\xbb;'
p5084
tp5085
Rp5086
tp5087
a(g44
g6
(g18
S'n\xb1\x8b;'
p5088
tp5089
Rp5090
tp5091
a(g139
g6
(g18
S'\x10\x1f\xc0:'
p5092
tp5093
Rp5094
tp5095
a(g56
g6
(g18
S'\xb8h\xab:'
p5096
tp5097
Rp5098
tp5099
asg73
g81
sa(dp5100
g2
S'../../../data/emanuela/activity-recognition/images/NTCIR-Lifelog-256/u2/2015-04-22/b00000570_21i7lf_20150422_183632e.jpg'
p5101
sg4
(lp5102
(g15
g6
(g18
S'\xc4\xb8\x7f?'
p5103
tp5104
Rp5105
tp5106
a(g32
g6
(g18
S'\x81\xc7\x80:'
p5107
tp5108
Rp5109
tp5110
a(g56
g6
(g18
S'\xcf\xd5F8'
p5111
tp5112
Rp5113
tp5114
a(g68
g6
(g18
S'\x8a5\xa57'
p5115
tp5116
Rp5117
tp5118
a(g44
g6
(g18
S"'g\x887"
p5119
tp5120
Rp5121
tp5122
asg73
g81
sa(dp5123
g2
S'../../../data/emanuela/activity-recognition/images/NTCIR-Lifelog-256/u2/2015-05-01/b00001763_21i7lf_20150501_085640e.jpg'
p5124
sg4
(lp5125
(g15
g6
(g18
S't\tY?'
p5126
tp5127
Rp5128
tp5129
a(g32
g6
(g18
S'\x8f\xc1\xca='
p5130
tp5131
Rp5132
tp5133
a(g56
g6
(g18
S'Z\xee<='
p5134
tp5135
Rp5136
tp5137
a(g44
g6
(g18
S'g\x96\x98;'
p5138
tp5139
Rp5140
tp5141
a(g68
g6
(g18
S'\x1e\x99\xf39'
p5142
tp5143
Rp5144
tp5145
asg73
g81
sa(dp5146
g2
S'../../../data/emanuela/activity-recognition/images/NTCIR-Lifelog-256/u2/2015-04-27/b00005882_21i7lf_20150427_183026e.jpg'
p5147
sg4
(lp5148
(g15
g6
(g18
S'\x80\xa81?'
p5149
tp5150
Rp5151
tp5152
a(g56
g6
(g18
S'F\xb7\x01>'
p5153
tp5154
Rp5155
tp5156
a(g32
g6
(g18
S'2\xed\xb8='
p5157
tp5158
Rp5159
tp5160
a(g44
g6
(g18
S'\x0b\xb6O='
p5161
tp5162
Rp5163
tp5164
a(g108
g6
(g18
S'6y\xa7<'
p5165
tp5166
Rp5167
tp5168
asg73
g81
sa(dp5169
g2
S'../../../data/emanuela/activity-recognition/images/NTCIR-Lifelog-256/u2/2015-05-01/b00001747_21i7lf_20150501_084639e.jpg'
p5170
sg4
(lp5171
(g108
g6
(g18
S'\xd3j\xa2>'
p5172
tp5173
Rp5174
tp5175
a(g44
g6
(g18
S'\x7f\xba?>'
p5176
tp5177
Rp5178
tp5179
a(g197
g6
(g18
S'f\xf11>'
p5180
tp5181
Rp5182
tp5183
a(g56
g6
(g18
S'\x05\x98\xc0='
p5184
tp5185
Rp5186
tp5187
a(g1138
g6
(g18
S'*Vn='
p5188
tp5189
Rp5190
tp5191
asg73
g81
sa(dp5192
g2
S'../../../data/emanuela/activity-recognition/images/NTCIR-Lifelog-256/u2/2015-04-30/b00001514_21i7lf_20150430_184005e.jpg'
p5193
sg4
(lp5194
(g15
g6
(g18
S'\xcf\xcb|?'
p5195
tp5196
Rp5197
tp5198
a(g32
g6
(g18
S'\x80H\x17<'
p5199
tp5200
Rp5201
tp5202
a(g56
g6
(g18
S'\x830\xf0:'
p5203
tp5204
Rp5205
tp5206
a(g44
g6
(g18
S'n0f:'
p5207
tp5208
Rp5209
tp5210
a(g108
g6
(g18
S'\x8aL)9'
p5211
tp5212
Rp5213
tp5214
asg73
g81
sa(dp5215
g2
S'../../../data/emanuela/activity-recognition/images/NTCIR-Lifelog-256/u2/2015-04-22/b00000569_21i7lf_20150422_183555e.jpg'
p5216
sg4
(lp5217
(g15
g6
(g18
S'\x81\x14~?'
p5218
tp5219
Rp5220
tp5221
a(g32
g6
(g18
S'\xcb\xa3\xc0;'
p5222
tp5223
Rp5224
tp5225
a(g56
g6
(g18
S'5\xb3\x88:'
p5226
tp5227
Rp5228
tp5229
a(g68
g6
(g18
S'\x07\x99>9'
p5230
tp5231
Rp5232
tp5233
a(g44
g6
(g18
S'\xd8\xec\xee8'
p5234
tp5235
Rp5236
tp5237
asg73
g81
sa(dp5238
g2
S'../../../data/emanuela/activity-recognition/images/NTCIR-Lifelog-256/u2/2015-04-28/b00000157_21i7lf_20150428_190057e.jpg'
p5239
sg4
(lp5240
(g15
g6
(g18
S'\x92#c?'
p5241
tp5242
Rp5243
tp5244
a(g32
g6
(g18
S'\xfb\x15\xe1='
p5245
tp5246
Rp5247
tp5248
a(g44
g6
(g18
S'\xe8.g:'
p5249
tp5250
Rp5251
tp5252
a(g56
g6
(g18
S'\x03\xf0\\:'
p5253
tp5254
Rp5255
tp5256
a(g455
g6
(g18
S'\xf8w]9'
p5257
tp5258
Rp5259
tp5260
asg73
g81
sa(dp5261
g2
S'../../../data/emanuela/activity-recognition/images/NTCIR-Lifelog-256/u2/2015-04-25/b00002973_21i7lf_20150425_104854e.jpg'
p5262
sg4
(lp5263
(g15
g6
(g18
S'\\\xeef?'
p5264
tp5265
Rp5266
tp5267
a(g197
g6
(g18
S"'+J="
p5268
tp5269
Rp5270
tp5271
a(g68
g6
(g18
S'\xf8\x08\x95<'
p5272
tp5273
Rp5274
tp5275
a(g170
g6
(g18
S'\x0eM\xc7;'
p5276
tp5277
Rp5278
tp5279
a(g56
g6
(g18
S'\xd5\xbe\xae;'
p5280
tp5281
Rp5282
tp5283
asg73
g81
sa(dp5284
g2
S'../../../data/emanuela/activity-recognition/images/NTCIR-Lifelog-256/u2/2015-04-27/b00004947_21i7lf_20150427_085106e.jpg'
p5285
sg4
(lp5286
(g15
g6
(g18
S'?vg?'
p5287
tp5288
Rp5289
tp5290
a(g32
g6
(g18
S'g\xe1\x88='
p5291
tp5292
Rp5293
tp5294
a(g44
g6
(g18
S'm\x9c\xb5<'
p5295
tp5296
Rp5297
tp5298
a(g56
g6
(g18
S'g\x81\t;'
p5299
tp5300
Rp5301
tp5302
a(g455
g6
(g18
S'\xc9\xf5\xf2:'
p5303
tp5304
Rp5305
tp5306
asg73
g81
sa(dp5307
g2
S'../../../data/emanuela/activity-recognition/images/NTCIR-Lifelog-256/u2/2015-05-01/b00001750_21i7lf_20150501_084838e.jpg'
p5308
sg4
(lp5309
(g15
g6
(g18
S'\xae!l?'
p5310
tp5311
Rp5312
tp5313
a(g32
g6
(g18
S'6\x947='
p5314
tp5315
Rp5316
tp5317
a(g56
g6
(g18
S'\xba+\x92<'
p5318
tp5319
Rp5320
tp5321
a(g44
g6
(g18
S":\xdb'<"
p5322
tp5323
Rp5324
tp5325
a(g170
g6
(g18
S'\xa7\xd3\x8e:'
p5326
tp5327
Rp5328
tp5329
asg73
g81
sa(dp5330
g2
S'../../../data/emanuela/activity-recognition/images/NTCIR-Lifelog-256/u2/2015-04-30/b00000772_21i7lf_20150430_104052e.jpg'
p5331
sg4
(lp5332
(g32
g6
(g18
S'D\x03\xd1>'
p5333
tp5334
Rp5335
tp5336
a(g15
g6
(g18
S')\x1f\xcd>'
p5337
tp5338
Rp5339
tp5340
a(g44
g6
(g18
S'\xa4O\x0f>'
p5341
tp5342
Rp5343
tp5344
a(g455
g6
(g18
S'\xe1ZH<'
p5345
tp5346
Rp5347
tp5348
a(g56
g6
(g18
S",\xb1'<"
p5349
tp5350
Rp5351
tp5352
asg73
g81
sa(dp5353
g2
S'../../../data/emanuela/activity-recognition/images/NTCIR-Lifelog-256/u2/2015-04-29/b00000240_21i7lf_20150429_095718e.jpg'
p5354
sg4
(lp5355
(g15
g6
(g18
S'HZ\x7f?'
p5356
tp5357
Rp5358
tp5359
a(g32
g6
(g18
S'\xf7S\xa6:'
p5360
tp5361
Rp5362
tp5363
a(g44
g6
(g18
S'\xe2\xa3$:'
p5364
tp5365
Rp5366
tp5367
a(g56
g6
(g18
S'\xc2\x98\x08:'
p5368
tp5369
Rp5370
tp5371
a(g197
g6
(g18
S'\xc1\xda08'
p5372
tp5373
Rp5374
tp5375
asg73
g81
sa(dp5376
g2
S'../../../data/emanuela/activity-recognition/images/NTCIR-Lifelog-256/u2/2015-05-05/b00005081_21i7lf_20150505_090622e.jpg'
p5377
sg4
(lp5378
(g15
g6
(g18
S'\x8c\xd8K?'
p5379
tp5380
Rp5381
tp5382
a(g32
g6
(g18
S')\xb2\xb8='
p5383
tp5384
Rp5385
tp5386
a(g44
g6
(g18
S'pt\xae='
p5387
tp5388
Rp5389
tp5390
a(g56
g6
(g18
S'\xd1\x82]<'
p5391
tp5392
Rp5393
tp5394
a(g108
g6
(g18
S'y;\x89;'
p5395
tp5396
Rp5397
tp5398
asg73
g81
sa(dp5399
g2
S'../../../data/emanuela/activity-recognition/images/NTCIR-Lifelog-256/u2/2015-05-05/b00005083_21i7lf_20150505_090737e.jpg'
p5400
sg4
(lp5401
(g15
g6
(g18
S'\xa0\x0fv?'
p5402
tp5403
Rp5404
tp5405
a(g44
g6
(g18
S'\x1d$\xb8<'
p5406
tp5407
Rp5408
tp5409
a(g56
g6
(g18
S'\xe7\x8b\x99;'
p5410
tp5411
Rp5412
tp5413
a(g68
g6
(g18
S'#\x0fo;'
p5414
tp5415
Rp5416
tp5417
a(g32
g6
(g18
S'@\t\x19;'
p5418
tp5419
Rp5420
tp5421
asg73
g81
sa(dp5422
g2
S'../../../data/emanuela/activity-recognition/images/NTCIR-Lifelog-256/u2/2015-04-27/b00004962_21i7lf_20150427_090014e.jpg'
p5423
sg4
(lp5424
(g15
g6
(g18
S'7\xeby?'
p5425
tp5426
Rp5427
tp5428
a(g32
g6
(g18
S'9\xff\x01<'
p5429
tp5430
Rp5431
tp5432
a(g139
g6
(g18
S'\xc3u\xe5;'
p5433
tp5434
Rp5435
tp5436
a(g44
g6
(g18
S'G\x04\xbd;'
p5437
tp5438
Rp5439
tp5440
a(g56
g6
(g18
S'd\x03g:'
p5441
tp5442
Rp5443
tp5444
asg73
g81
sa(dp5445
g2
S'../../../data/emanuela/activity-recognition/images/NTCIR-Lifelog-256/u2/2015-04-30/b00000780_21i7lf_20150430_104534e.jpg'
p5446
sg4
(lp5447
(g15
g6
(g18
S'b\xc7J?'
p5448
tp5449
Rp5450
tp5451
a(g44
g6
(g18
S'F \xb6='
p5452
tp5453
Rp5454
tp5455
a(g32
g6
(g18
S'\xa5\xb7\x80='
p5456
tp5457
Rp5458
tp5459
a(g139
g6
(g18
S'\xf4\x19\xa6<'
p5460
tp5461
Rp5462
tp5463
a(g56
g6
(g18
S'!\rW<'
p5464
tp5465
Rp5466
tp5467
asg73
g81
sa(dp5468
g2
S'../../../data/emanuela/activity-recognition/images/NTCIR-Lifelog-256/u2/2015-04-29/b00000232_21i7lf_20150429_095220e.jpg'
p5469
sg4
(lp5470
(g32
g6
(g18
S'\x9a\xa8)?'
p5471
tp5472
Rp5473
tp5474
a(g15
g6
(g18
S'\xc3\xc4\x93>'
p5475
tp5476
Rp5477
tp5478
a(g44
g6
(g18
S'\x08\x1c\x18='
p5479
tp5480
Rp5481
tp5482
a(g455
g6
(g18
S'x!_;'
p5483
tp5484
Rp5485
tp5486
a(g108
g6
(g18
S'\r\xbeZ;'
p5487
tp5488
Rp5489
tp5490
asg73
g81
sa(dp5491
g2
S'../../../data/emanuela/activity-recognition/images/NTCIR-Lifelog-256/u2/2015-04-30/b00000771_21i7lf_20150430_104013e.jpg'
p5492
sg4
(lp5493
(g15
g6
(g18
S'\xe2\x1f_?'
p5494
tp5495
Rp5496
tp5497
a(g32
g6
(g18
S'\x15\x14]='
p5498
tp5499
Rp5500
tp5501
a(g44
g6
(g18
S'\xb245='
p5502
tp5503
Rp5504
tp5505
a(g56
g6
(g18
S'S\xa7\xaa<'
p5506
tp5507
Rp5508
tp5509
a(g108
g6
(g18
S'bz\xe1:'
p5510
tp5511
Rp5512
tp5513
asg73
g81
sa(dp5514
g2
S'../../../data/emanuela/activity-recognition/images/NTCIR-Lifelog-256/u2/2015-04-27/b00005877_21i7lf_20150427_182724e.jpg'
p5515
sg4
(lp5516
(g15
g6
(g18
S'\xb5\xe2\x7f?'
p5517
tp5518
Rp5519
tp5520
a(g44
g6
(g18
S'\xa6\xce\x1e9'
p5521
tp5522
Rp5523
tp5524
a(g139
g6
(g18
S'W\x7f\xf38'
p5525
tp5526
Rp5527
tp5528
a(g56
g6
(g18
S'\x1a&\xcf8'
p5529
tp5530
Rp5531
tp5532
a(g32
g6
(g18
S'\xfe6_8'
p5533
tp5534
Rp5535
tp5536
asg73
g81
sa(dp5537
g2
S'../../../data/emanuela/activity-recognition/images/NTCIR-Lifelog-256/u2/2015-05-01/b00001765_21i7lf_20150501_085757e.jpg'
p5538
sg4
(lp5539
(g15
g6
(g18
S'\tm}?'
p5540
tp5541
Rp5542
tp5543
a(g68
g6
(g18
S'\xdbLU;'
p5544
tp5545
Rp5546
tp5547
a(g56
g6
(g18
S'\xd3^*;'
p5548
tp5549
Rp5550
tp5551
a(g44
g6
(g18
S"]\xbe';"
p5552
tp5553
Rp5554
tp5555
a(g32
g6
(g18
S'\xbf\x07F:'
p5556
tp5557
Rp5558
tp5559
asg73
g81
sa(dp5560
g2
S'../../../data/emanuela/activity-recognition/images/NTCIR-Lifelog-256/u2/2015-04-27/b00004950_21i7lf_20150427_085300e.jpg'
p5561
sg4
(lp5562
(g15
g6
(g18
S'\xc4\xc2{?'
p5563
tp5564
Rp5565
tp5566
a(g139
g6
(g18
S'\x12\x04\n<'
p5567
tp5568
Rp5569
tp5570
a(g68
g6
(g18
S'C\x16(;'
p5571
tp5572
Rp5573
tp5574
a(g32
g6
(g18
S'\xa8\x16\xa3:'
p5575
tp5576
Rp5577
tp5578
a(g56
g6
(g18
S'6\x02C:'
p5579
tp5580
Rp5581
tp5582
asg73
g81
sa(dp5583
g2
S'../../../data/emanuela/activity-recognition/images/NTCIR-Lifelog-256/u2/2015-04-28/b00000148_21i7lf_20150428_185520e.jpg'
p5584
sg4
(lp5585
(g15
g6
(g18
S'e\x02|?'
p5586
tp5587
Rp5588
tp5589
a(g32
g6
(g18
S'X\xcf\x0b<'
p5590
tp5591
Rp5592
tp5593
a(g56
g6
(g18
S'\x8bS\x8f;'
p5594
tp5595
Rp5596
tp5597
a(g44
g6
(g18
S'\xb0\xd0\x9c:'
p5598
tp5599
Rp5600
tp5601
a(g197
g6
(g18
S'6^\n:'
p5602
tp5603
Rp5604
tp5605
asg73
g81
sa(dp5606
g2
S'../../../data/emanuela/activity-recognition/images/NTCIR-Lifelog-256/u2/2015-05-07/b00008258_21i7lf_20150507_204852e.jpg'
p5607
sg4
(lp5608
(g15
g6
(g18
S'\xb1jI?'
p5609
tp5610
Rp5611
tp5612
a(g44
g6
(g18
S'\xe9m\x05>'
p5613
tp5614
Rp5615
tp5616
a(g32
g6
(g18
S'\xc0\xa1\xed<'
p5617
tp5618
Rp5619
tp5620
a(g455
g6
(g18
S'\xb0\xf8\xb0<'
p5621
tp5622
Rp5623
tp5624
a(g56
g6
(g18
S'\x90\x95}<'
p5625
tp5626
Rp5627
tp5628
asg73
g81
sa(dp5629
g2
S'../../../data/emanuela/activity-recognition/images/NTCIR-Lifelog-256/u2/2015-05-07/b00008263_21i7lf_20150507_205209e.jpg'
p5630
sg4
(lp5631
(g32
g6
(g18
S'\xd4\x13\xe7>'
p5632
tp5633
Rp5634
tp5635
a(g15
g6
(g18
S'63\xd1>'
p5636
tp5637
Rp5638
tp5639
a(g44
g6
(g18
S'\xa5\xce\x99='
p5640
tp5641
Rp5642
tp5643
a(g56
g6
(g18
S'q\xedZ='
p5644
tp5645
Rp5646
tp5647
a(g455
g6
(g18
S'\xd9\x98\x01;'
p5648
tp5649
Rp5650
tp5651
asg73
g81
sa(dp5652
g2
S'../../../data/emanuela/activity-recognition/images/NTCIR-Lifelog-256/u2/2015-04-28/b00006312_21i7lf_20150428_090326e.jpg'
p5653
sg4
(lp5654
(g139
g6
(g18
S'\xd2\xca\x05?'
p5655
tp5656
Rp5657
tp5658
a(g15
g6
(g18
S'z\x1a\xcc>'
p5659
tp5660
Rp5661
tp5662
a(g56
g6
(g18
S'\x10\x82j='
p5663
tp5664
Rp5665
tp5666
a(g197
g6
(g18
S'\xe1\x9a\x12<'
p5667
tp5668
Rp5669
tp5670
a(g32
g6
(g18
S'@3\x96;'
p5671
tp5672
Rp5673
tp5674
asg73
g81
sa(dp5675
g2
S'../../../data/emanuela/activity-recognition/images/NTCIR-Lifelog-256/u2/2015-05-05/b00005084_21i7lf_20150505_090818e.jpg'
p5676
sg4
(lp5677
(g15
g6
(g18
S'd\x92\x18?'
p5678
tp5679
Rp5680
tp5681
a(g44
g6
(g18
S'!B\x80>'
p5682
tp5683
Rp5684
tp5685
a(g455
g6
(g18
S'\x9a\xa5\x8b='
p5686
tp5687
Rp5688
tp5689
a(g56
g6
(g18
S'\xc5>\xec<'
p5690
tp5691
Rp5692
tp5693
a(g108
g6
(g18
S'B\t\xc7<'
p5694
tp5695
Rp5696
tp5697
asg73
g81
sa(dp5698
g2
S'../../../data/emanuela/activity-recognition/images/NTCIR-Lifelog-256/u2/2015-05-01/b00002415_21i7lf_20150501_163401e.jpg'
p5699
sg4
(lp5700
(g15
g6
(g18
S'\xb06c?'
p5701
tp5702
Rp5703
tp5704
a(g44
g6
(g18
S'\xddT\x7f='
p5705
tp5706
Rp5707
tp5708
a(g32
g6
(g18
S'~\x13\x18='
p5709
tp5710
Rp5711
tp5712
a(g56
g6
(g18
S'\x92@\x19<'
p5713
tp5714
Rp5715
tp5716
a(g68
g6
(g18
S'\xf9"l:'
p5717
tp5718
Rp5719
tp5720
asg73
g81
sa(dp5721
g2
S'../../../data/emanuela/activity-recognition/images/NTCIR-Lifelog-256/u2/2015-04-29/b00000851_21i7lf_20150429_161934e.jpg'
p5722
sg4
(lp5723
(g15
g6
(g18
S'\xfd\xb0p?'
p5724
tp5725
Rp5726
tp5727
a(g32
g6
(g18
S'S\x8d\xeb<'
p5728
tp5729
Rp5730
tp5731
a(g44
g6
(g18
S'\xcbN\xaf<'
p5732
tp5733
Rp5734
tp5735
a(g56
g6
(g18
S'\xdb\xda\x04<'
p5736
tp5737
Rp5738
tp5739
a(g68
g6
(g18
S"'\xeb\xa09"
p5740
tp5741
Rp5742
tp5743
asg73
g81
sa(dp5744
g2
S'../../../data/emanuela/activity-recognition/images/NTCIR-Lifelog-256/u2/2015-05-07/b00007297_21i7lf_20150507_082538e.jpg'
p5745
sg4
(lp5746
(g15
g6
(g18
S"F\xbf'?"
p5747
tp5748
Rp5749
tp5750
a(g44
g6
(g18
S'\xd4\xb54>'
p5751
tp5752
Rp5753
tp5754
a(g32
g6
(g18
S'7m\xc5='
p5755
tp5756
Rp5757
tp5758
a(g56
g6
(g18
S'\x9f!\x1d='
p5759
tp5760
Rp5761
tp5762
a(g455
g6
(g18
S'\x06\x8dA<'
p5763
tp5764
Rp5765
tp5766
asg73
g81
sa(dp5767
g2
S'../../../data/emanuela/activity-recognition/images/NTCIR-Lifelog-256/u2/2015-04-29/b00000234_21i7lf_20150429_095338e.jpg'
p5768
sg4
(lp5769
(g15
g6
(g18
S'\x94Lk?'
p5770
tp5771
Rp5772
tp5773
a(g32
g6
(g18
S'\xa1.3='
p5774
tp5775
Rp5776
tp5777
a(g44
g6
(g18
S'\x87\xf2T<'
p5778
tp5779
Rp5780
tp5781
a(g56
g6
(g18
S'ds7<'
p5782
tp5783
Rp5784
tp5785
a(g108
g6
(g18
S'\xd2\xc3e;'
p5786
tp5787
Rp5788
tp5789
asg73
g81
sa(dp5790
g2
S'../../../data/emanuela/activity-recognition/images/NTCIR-Lifelog-256/u2/2015-05-01/b00002417_21i7lf_20150501_163511e.jpg'
p5791
sg4
(lp5792
(g15
g6
(g18
S'S\xc9v?'
p5793
tp5794
Rp5795
tp5796
a(g44
g6
(g18
S'\x1a\xc8\xce<'
p5797
tp5798
Rp5799
tp5800
a(g32
g6
(g18
S'\x10\n\xd5;'
p5801
tp5802
Rp5803
tp5804
a(g56
g6
(g18
S'F\xfd?;'
p5805
tp5806
Rp5807
tp5808
a(g68
g6
(g18
S'\xe9t\xcf9'
p5809
tp5810
Rp5811
tp5812
asg73
g81
sa(dp5813
g2
S'../../../data/emanuela/activity-recognition/images/NTCIR-Lifelog-256/u2/2015-05-01/b00002407_21i7lf_20150501_162906e.jpg'
p5814
sg4
(lp5815
(g15
g6
(g18
S'\xcc\xd5b?'
p5816
tp5817
Rp5818
tp5819
a(g44
g6
(g18
S'\xfa\xbe\x94='
p5820
tp5821
Rp5822
tp5823
a(g56
g6
(g18
S'B|\x92<'
p5824
tp5825
Rp5826
tp5827
a(g32
g6
(g18
S'3gx<'
p5828
tp5829
Rp5830
tp5831
a(g108
g6
(g18
S'\xd7\xe93;'
p5832
tp5833
Rp5834
tp5835
asg73
g81
sa.