(lp0
(dp1
S'image'
p2
S'../../../data/emanuela/activity-recognition/images/NTCIR-Lifelog-256/u2/2015-05-06/b00007125_21i7lf_20150506_175842e.jpg'
p3
sS'result'
p4
(lp5
(cnumpy.core.multiarray
scalar
p6
(cnumpy
dtype
p7
(S'S11'
p8
I0
I1
tp9
Rp10
(I3
S'|'
p11
NNNI11
I1
I0
tp12
bS'socializing'
p13
tp14
Rp15
g6
(g7
(S'f4'
p16
I0
I1
tp17
Rp18
(I3
S'<'
p19
NNNI-1
I-1
I0
tp20
bS';\x19F?'
p21
tp22
Rp23
tp24
a(g6
(g7
(S'S27'
p25
I0
I1
tp26
Rp27
(I3
S'|'
p28
NNNI27
I1
I0
tp29
bS'having drinks with somebody'
p30
tp31
Rp32
g6
(g18
S'\xc504>'
p33
tp34
Rp35
tp36
a(g6
(g7
(S'S8'
p37
I0
I1
tp38
Rp39
(I3
S'|'
p40
NNNI8
I1
I0
tp41
bS'shopping'
p42
tp43
Rp44
g6
(g18
S'L\xa3\x8c<'
p45
tp46
Rp47
tp48
a(g6
(g7
(S'S25'
p49
I0
I1
tp50
Rp51
(I3
S'|'
p52
NNNI25
I1
I0
tp53
bS'having meal with somebody'
p54
tp55
Rp56
g6
(g18
S'\xa2\xe0"<'
p57
tp58
Rp59
tp60
a(g6
(g7
(S'S14'
p61
I0
I1
tp62
Rp63
(I3
S'|'
p64
NNNI14
I1
I0
tp65
bS'walking indoor'
p66
tp67
Rp68
g6
(g18
S'K\xee\xdc;'
p69
tp70
Rp71
tp72
asS'label'
p73
g32
sa(dp74
g2
S'../../../data/emanuela/activity-recognition/images/NTCIR-Lifelog-256/u2/2015-04-21/b00000894_21i7lf_20150421_193551e.jpg'
p75
sg4
(lp76
(g32
g6
(g18
S'\xd8!\xe6>'
p77
tp78
Rp79
tp80
a(g68
g6
(g18
S'\xa4m\xc1>'
p81
tp82
Rp83
tp84
a(g44
g6
(g18
S'\xc3R\x8f='
p85
tp86
Rp87
tp88
a(g6
(g7
(S'S15'
p89
I0
I1
tp90
Rp91
(I3
S'|'
p92
NNNI15
I1
I0
tp93
bS'walking outdoor'
p94
tp95
Rp96
g6
(g18
S'U\x80\x00='
p97
tp98
Rp99
tp100
a(g6
(g7
(S'S24'
p101
I0
I1
tp102
Rp103
(I3
S'|'
p104
NNNI24
I1
I0
tp105
bS'having drinks/meal alone'
p106
tp107
Rp108
g6
(g18
S'"\x1e\xec<'
p109
tp110
Rp111
tp112
asg73
g32
sa(dp113
g2
S'../../../data/emanuela/activity-recognition/images/NTCIR-Lifelog-256/u2/2015-04-21/b00000870_21i7lf_20150421_191200e.jpg'
p114
sg4
(lp115
(g32
g6
(g18
S'\xb2\xa0"?'
p116
tp117
Rp118
tp119
a(g68
g6
(g18
S'\x18\x1e\xc8='
p120
tp121
Rp122
tp123
a(g108
g6
(g18
S'\xbb\x7f\x9b='
p124
tp125
Rp126
tp127
a(g15
g6
(g18
S'\x9b\xea\x92='
p128
tp129
Rp130
tp131
a(g44
g6
(g18
S'v\xcdb='
p132
tp133
Rp134
tp135
asg73
g32
sa(dp136
g2
S'../../../data/emanuela/activity-recognition/images/NTCIR-Lifelog-256/u2/2015-05-06/b00007155_21i7lf_20150506_181712e.jpg'
p137
sg4
(lp138
(g6
(g7
(S'S19'
p139
I0
I1
tp140
Rp141
(I3
S'|'
p142
NNNI19
I1
I0
tp143
bS'attending a seminar'
p144
tp145
Rp146
g6
(g18
S'#F\x18?'
p147
tp148
Rp149
tp150
a(g108
g6
(g18
S'\xc0\xcdD>'
p151
tp152
Rp153
tp154
a(g32
g6
(g18
S')\xad\xcf='
p155
tp156
Rp157
tp158
a(g68
g6
(g18
S'\xd4\xbc\x89='
p159
tp160
Rp161
tp162
a(g56
g6
(g18
S'J\x06\x8d<'
p163
tp164
Rp165
tp166
asg73
g32
sa(dp167
g2
S'../../../data/emanuela/activity-recognition/images/NTCIR-Lifelog-256/u2/2015-05-06/b00007156_21i7lf_20150506_181747e.jpg'
p168
sg4
(lp169
(g32
g6
(g18
S'\xd5\x1a ?'
p170
tp171
Rp172
tp173
a(g56
g6
(g18
S'*\x83\x11>'
p174
tp175
Rp176
tp177
a(g108
g6
(g18
S'\xce\xab\x02>'
p178
tp179
Rp180
tp181
a(g44
g6
(g18
S'\x1d\xe7\x89='
p182
tp183
Rp184
tp185
a(g146
g6
(g18
S'\x07,\x86<'
p186
tp187
Rp188
tp189
asg73
g32
sa(dp190
g2
S'../../../data/emanuela/activity-recognition/images/NTCIR-Lifelog-256/u2/2015-05-08/b00009471_21i7lf_20150508_174219e.jpg'
p191
sg4
(lp192
(g15
g6
(g18
S'\xef\xe1y?'
p193
tp194
Rp195
tp196
a(g32
g6
(g18
S'\xf2\xb2\x9d;'
p197
tp198
Rp199
tp200
a(g146
g6
(g18
S'\x97\xd2\x99;'
p201
tp202
Rp203
tp204
a(g56
g6
(g18
S'\x92E?;'
p205
tp206
Rp207
tp208
a(g44
g6
(g18
S'\xaf<\x08;'
p209
tp210
Rp211
tp212
asg73
g32
sa(dp213
g2
S'../../../data/emanuela/activity-recognition/images/NTCIR-Lifelog-256/u2/2015-04-23/b00001258_21i7lf_20150423_144441e.jpg'
p214
sg4
(lp215
(g56
g6
(g18
S'r\xfd,?'
p216
tp217
Rp218
tp219
a(g108
g6
(g18
S'\xeeS\xa0>'
p220
tp221
Rp222
tp223
a(g32
g6
(g18
S'I\x85\xeb;'
p224
tp225
Rp226
tp227
a(g15
g6
(g18
S's\x00,;'
p228
tp229
Rp230
tp231
a(g6
(g7
(S'S7'
p232
I0
I1
tp233
Rp234
(I3
S'|'
p235
NNNI7
I1
I0
tp236
bS'talking'
p237
tp238
Rp239
g6
(g18
S'%\xa6Z:'
p240
tp241
Rp242
tp243
asg73
g32
sa(dp244
g2
S'../../../data/emanuela/activity-recognition/images/NTCIR-Lifelog-256/u2/2015-05-08/b00009552_21i7lf_20150508_185250e.jpg'
p245
sg4
(lp246
(g68
g6
(g18
S'n\xac0?'
p247
tp248
Rp249
tp250
a(g32
g6
(g18
S'\xcf\x06\x10>'
p251
tp252
Rp253
tp254
a(g96
g6
(g18
S'\xab~\x80='
p255
tp256
Rp257
tp258
a(g108
g6
(g18
S'\xfeh"='
p259
tp260
Rp261
tp262
a(g44
g6
(g18
S'~\xaf\x9f<'
p263
tp264
Rp265
tp266
asg73
g32
sa(dp267
g2
S'../../../data/emanuela/activity-recognition/images/NTCIR-Lifelog-256/u2/2015-04-27/b00005807_21i7lf_20150427_174417e.jpg'
p268
sg4
(lp269
(g108
g6
(g18
S'd\x87P?'
p270
tp271
Rp272
tp273
a(g6
(g7
(S'S16'
p274
I0
I1
tp275
Rp276
(I3
S'|'
p277
NNNI16
I1
I0
tp278
bS'public transport'
p279
tp280
Rp281
g6
(g18
S'N\t\xab='
p282
tp283
Rp284
tp285
a(g32
g6
(g18
S'\x0cQ"='
p286
tp287
Rp288
tp289
a(g6
(g7
(S'S7'
p290
I0
I1
tp291
Rp292
(I3
S'|'
p293
NNNI7
I1
I0
tp294
bS'reading'
p295
tp296
Rp297
g6
(g18
S'\xe3\x83|<'
p298
tp299
Rp300
tp301
a(g6
(g7
(S'S6'
p302
I0
I1
tp303
Rp304
(I3
S'|'
p305
NNNI6
I1
I0
tp306
bS'mobile'
p307
tp308
Rp309
g6
(g18
S'\xf7\x13\t<'
p310
tp311
Rp312
tp313
asg73
g32
sa(dp314
g2
S'../../../data/emanuela/activity-recognition/images/NTCIR-Lifelog-256/u2/2015-04-26/b00004190_21i7lf_20150426_161213e.jpg'
p315
sg4
(lp316
(g6
(g7
(S'S19'
p317
I0
I1
tp318
Rp319
(I3
S'|'
p320
NNNI19
I1
I0
tp321
bS'cleaning and chores'
p322
tp323
Rp324
g6
(g18
S'\x1f[\x1c?'
p325
tp326
Rp327
tp328
a(g108
g6
(g18
S'\x01\x9as>'
p329
tp330
Rp331
tp332
a(g6
(g7
(S'S7'
p333
I0
I1
tp334
Rp335
(I3
S'|'
p336
NNNI7
I1
I0
tp337
bS'cooking'
p338
tp339
Rp340
g6
(g18
S'QIb='
p341
tp342
Rp343
tp344
a(g68
g6
(g18
S'\xddW-='
p345
tp346
Rp347
tp348
a(g56
g6
(g18
S'\xea@\xb3<'
p349
tp350
Rp351
tp352
asg73
g32
sa(dp353
g2
S'../../../data/emanuela/activity-recognition/images/NTCIR-Lifelog-256/u2/2015-04-21/b00000911_21i7lf_20150421_200218e.jpg'
p354
sg4
(lp355
(g32
g6
(g18
S'\xc7\xac\x17?'
p356
tp357
Rp358
tp359
a(g15
g6
(g18
S'9\xd0\xe2='
p360
tp361
Rp362
tp363
a(g44
g6
(g18
S'\x82\xbb\xbb='
p364
tp365
Rp366
tp367
a(g56
g6
(g18
S'kG\xad='
p368
tp369
Rp370
tp371
a(g108
g6
(g18
S'1W\x01='
p372
tp373
Rp374
tp375
asg73
g32
sa(dp376
g2
S'../../../data/emanuela/activity-recognition/images/NTCIR-Lifelog-256/u2/2015-05-08/b00009427_21i7lf_20150508_170839e.jpg'
p377
sg4
(lp378
(g56
g6
(g18
S'Ou\xc2>'
p379
tp380
Rp381
tp382
a(g108
g6
(g18
S'\x18\x8d\x9b>'
p383
tp384
Rp385
tp386
a(g32
g6
(g18
S'8\xd5A>'
p387
tp388
Rp389
tp390
a(g146
g6
(g18
S'\x07\xc1\x87='
p391
tp392
Rp393
tp394
a(g15
g6
(g18
S'*a\xcf<'
p395
tp396
Rp397
tp398
asg73
g32
sa(dp399
g2
S'../../../data/emanuela/activity-recognition/images/NTCIR-Lifelog-256/u2/2015-04-27/b00005819_21i7lf_20150427_175105e.jpg'
p400
sg4
(lp401
(g108
g6
(g18
S'\\\xfb\xee>'
p402
tp403
Rp404
tp405
a(g281
g6
(g18
S'\xe6\x14Q>'
p406
tp407
Rp408
tp409
a(g6
(g7
(S'S5'
p410
I0
I1
tp411
Rp412
(I3
S'|'
p413
NNNI5
I1
I0
tp414
bS'plane'
p415
tp416
Rp417
g6
(g18
S'\xba\xf9\xf7='
p418
tp419
Rp420
tp421
a(g297
g6
(g18
S'\xa1Ea='
p422
tp423
Rp424
tp425
a(g6
(g7
(S'S7'
p426
I0
I1
tp427
Rp428
(I3
S'|'
p429
NNNI7
I1
I0
tp430
bS'driving'
p431
tp432
Rp433
g6
(g18
S';\x87\xf5<'
p434
tp435
Rp436
tp437
asg73
g32
sa(dp438
g2
S'../../../data/emanuela/activity-recognition/images/NTCIR-Lifelog-256/u2/2015-05-03/b00003983_21i7lf_20150503_164957e.jpg'
p439
sg4
(lp440
(g32
g6
(g18
S'f+ ?'
p441
tp442
Rp443
tp444
a(g56
g6
(g18
S'\x18\xf3E>'
p445
tp446
Rp447
tp448
a(g108
g6
(g18
S'\xde\xf7G='
p449
tp450
Rp451
tp452
a(g44
g6
(g18
S'j\x9b\x1a='
p453
tp454
Rp455
tp456
a(g15
g6
(g18
S'\xbd\xc5\xbf<'
p457
tp458
Rp459
tp460
asg73
g32
sa(dp461
g2
S'../../../data/emanuela/activity-recognition/images/NTCIR-Lifelog-256/u2/2015-04-26/b00004191_21i7lf_20150426_161248e.jpg'
p462
sg4
(lp463
(g324
g6
(g18
S'jd\xf9>'
p464
tp465
Rp466
tp467
a(g108
g6
(g18
S'\x11\x12\xd3>'
p468
tp469
Rp470
tp471
a(g340
g6
(g18
S'\x05@\x91='
p472
tp473
Rp474
tp475
a(g56
g6
(g18
S'1\xe3\xd6;'
p476
tp477
Rp478
tp479
a(g68
g6
(g18
S'\x07\x1f\xc0;'
p480
tp481
Rp482
tp483
asg73
g32
sa(dp484
g2
S'../../../data/emanuela/activity-recognition/images/NTCIR-Lifelog-256/u2/2015-04-25/b00003698_21i7lf_20150425_201643e.jpg'
p485
sg4
(lp486
(g15
g6
(g18
S'9Lh?'
p487
tp488
Rp489
tp490
a(g56
g6
(g18
S'\xcdv\x98='
p491
tp492
Rp493
tp494
a(g239
g6
(g18
S'9^\x1b<'
p495
tp496
Rp497
tp498
a(g6
(g7
(S'S2'
p499
I0
I1
tp500
Rp501
(I3
S'|'
p502
NNNI2
I1
I0
tp503
bS'tv'
p504
tp505
Rp506
g6
(g18
S'\x80\xdb\xf1:'
p507
tp508
Rp509
tp510
a(g32
g6
(g18
S'\x15\xc0\xd4:'
p511
tp512
Rp513
tp514
asg73
g32
sa(dp515
g2
S'../../../data/emanuela/activity-recognition/images/NTCIR-Lifelog-256/u2/2015-04-25/b00003699_21i7lf_20150425_201724e.jpg'
p516
sg4
(lp517
(g15
g6
(g18
S'\xd1\x1f\xd6>'
p518
tp519
Rp520
tp521
a(g56
g6
(g18
S'\x8b\x86l>'
p522
tp523
Rp524
tp525
a(g239
g6
(g18
S'l\x03?>'
p526
tp527
Rp528
tp529
a(g6
(g7
(S'S7'
p530
I0
I1
tp531
Rp532
(I3
S'|'
p533
NNNI7
I1
I0
tp534
bS'meeting'
p535
tp536
Rp537
g6
(g18
S'\xcf\xc3R='
p538
tp539
Rp540
tp541
a(g44
g6
(g18
S' 5\xb8<'
p542
tp543
Rp544
tp545
asg73
g32
sa(dp546
g2
S'../../../data/emanuela/activity-recognition/images/NTCIR-Lifelog-256/u2/2015-05-03/b00003903_21i7lf_20150503_155853e.jpg'
p547
sg4
(lp548
(g56
g6
(g18
S'`/\xcb>'
p549
tp550
Rp551
tp552
a(g108
g6
(g18
S'K?\x85>'
p553
tp554
Rp555
tp556
a(g32
g6
(g18
S'\xac\xa1S>'
p557
tp558
Rp559
tp560
a(g324
g6
(g18
S'\x04\xba\x97='
p561
tp562
Rp563
tp564
a(g44
g6
(g18
S'\xa5-j<'
p565
tp566
Rp567
tp568
asg73
g32
sa(dp569
g2
S'../../../data/emanuela/activity-recognition/images/NTCIR-Lifelog-256/u2/2015-04-27/b00005767_21i7lf_20150427_171954e.jpg'
p570
sg4
(lp571
(g324
g6
(g18
S'{\xd0\x9e>'
p572
tp573
Rp574
tp575
a(g108
g6
(g18
S'\xf7z8>'
p576
tp577
Rp578
tp579
a(g32
g6
(g18
S'\xc0\xbf\xfe='
p580
tp581
Rp582
tp583
a(g340
g6
(g18
S'Q\xf3\xd0='
p584
tp585
Rp586
tp587
a(g309
g6
(g18
S'\x07}M='
p588
tp589
Rp590
tp591
asg73
g32
sa(dp592
g2
S'../../../data/emanuela/activity-recognition/images/NTCIR-Lifelog-256/u2/2015-05-03/b00003952_21i7lf_20150503_162955e.jpg'
p593
sg4
(lp594
(g108
g6
(g18
S'\xcd\xc2)?'
p595
tp596
Rp597
tp598
a(g56
g6
(g18
S'\xc6\x17\x96>'
p599
tp600
Rp601
tp602
a(g32
g6
(g18
S'\x9d=,='
p603
tp604
Rp605
tp606
a(g15
g6
(g18
S'\xc1v\x91:'
p607
tp608
Rp609
tp610
a(g146
g6
(g18
S'\x14\xa7\xfc8'
p611
tp612
Rp613
tp614
asg73
g32
sa(dp615
g2
S'../../../data/emanuela/activity-recognition/images/NTCIR-Lifelog-256/u2/2015-04-21/b00000895_21i7lf_20150421_193624e.jpg'
p616
sg4
(lp617
(g32
g6
(g18
S'\xf8\xc3@?'
p618
tp619
Rp620
tp621
a(g15
g6
(g18
S'\xb2\n\xae='
p622
tp623
Rp624
tp625
a(g68
g6
(g18
S'6\\\x83='
p626
tp627
Rp628
tp629
a(g108
g6
(g18
S'`\xbdY='
p630
tp631
Rp632
tp633
a(g56
g6
(g18
S'\xe0qk<'
p634
tp635
Rp636
tp637
asg73
g32
sa(dp638
g2
S'../../../data/emanuela/activity-recognition/images/NTCIR-Lifelog-256/u2/2015-04-21/b00000898_21i7lf_20150421_193811e.jpg'
p639
sg4
(lp640
(g32
g6
(g18
S':\xbe9?'
p641
tp642
Rp643
tp644
a(g68
g6
(g18
S'\xcb:\xf8='
p645
tp646
Rp647
tp648
a(g15
g6
(g18
S'\xb2\x87\x84='
p649
tp650
Rp651
tp652
a(g108
g6
(g18
S'S\n\xf7<'
p653
tp654
Rp655
tp656
a(g44
g6
(g18
S'\xa8\xe4\x9b<'
p657
tp658
Rp659
tp660
asg73
g32
sa(dp661
g2
S'../../../data/emanuela/activity-recognition/images/NTCIR-Lifelog-256/u2/2015-05-08/b00009574_21i7lf_20150508_191044e.jpg'
p662
sg4
(lp663
(g146
g6
(g18
S'\xc2 o?'
p664
tp665
Rp666
tp667
a(g15
g6
(g18
S'8\x96\xa8<'
p668
tp669
Rp670
tp671
a(g108
g6
(g18
S'w\x08a<'
p672
tp673
Rp674
tp675
a(g44
g6
(g18
S'tx]<'
p676
tp677
Rp678
tp679
a(g433
g6
(g18
S'\xfc|\x92;'
p680
tp681
Rp682
tp683
asg73
g32
sa(dp684
g2
S'../../../data/emanuela/activity-recognition/images/NTCIR-Lifelog-256/u2/2015-04-27/b00005821_21i7lf_20150427_175219e.jpg'
p685
sg4
(lp686
(g32
g6
(g18
S'\xd8\xb8t?'
p687
tp688
Rp689
tp690
a(g15
g6
(g18
S'\xf2w\x97<'
p691
tp692
Rp693
tp694
a(g108
g6
(g18
S'\xd0\x8b\xdb;'
p695
tp696
Rp697
tp698
a(g281
g6
(g18
S'\xa5\x18\x8d;'
p699
tp700
Rp701
tp702
a(g44
g6
(g18
S'"\xd2j;'
p703
tp704
Rp705
tp706
asg73
g32
sa(dp707
g2
S'../../../data/emanuela/activity-recognition/images/NTCIR-Lifelog-256/u2/2015-05-08/b00009521_21i7lf_20150508_182605e.jpg'
p708
sg4
(lp709
(g146
g6
(g18
S'\nw\x9e>'
p710
tp711
Rp712
tp713
a(g32
g6
(g18
S'6\xf0\x82>'
p714
tp715
Rp716
tp717
a(g68
g6
(g18
S'=\xed\x0f>'
p718
tp719
Rp720
tp721
a(g44
g6
(g18
S'\x9b\xa3\xdf='
p722
tp723
Rp724
tp725
a(g15
g6
(g18
S'\xdf(\x99='
p726
tp727
Rp728
tp729
asg73
g32
sa(dp730
g2
S'../../../data/emanuela/activity-recognition/images/NTCIR-Lifelog-256/u2/2015-05-08/b00009478_21i7lf_20150508_174756e.jpg'
p731
sg4
(lp732
(g15
g6
(g18
S')\xd0f?'
p733
tp734
Rp735
tp736
a(g146
g6
(g18
S'k\xd9\x9c='
p737
tp738
Rp739
tp740
a(g108
g6
(g18
S'\xf1{\xa4;'
p741
tp742
Rp743
tp744
a(g56
g6
(g18
S'\x8f\xcc\x98;'
p745
tp746
Rp747
tp748
a(g32
g6
(g18
S'&\xc5@;'
p749
tp750
Rp751
tp752
asg73
g32
sa(dp753
g2
S'../../../data/emanuela/activity-recognition/images/NTCIR-Lifelog-256/u2/2015-04-27/b00005756_21i7lf_20150427_171316e.jpg'
p754
sg4
(lp755
(g297
g6
(g18
S'\x91\x0ck>'
p756
tp757
Rp758
tp759
a(g281
g6
(g18
S'\xd0\x8c\x07>'
p760
tp761
Rp762
tp763
a(g68
g6
(g18
S'\x07Y\xfd='
p764
tp765
Rp766
tp767
a(g309
g6
(g18
S'8\x99\xdb='
p768
tp769
Rp770
tp771
a(g44
g6
(g18
S'\xff\x01\xaa='
p772
tp773
Rp774
tp775
asg73
g32
sa(dp776
g2
S'../../../data/emanuela/activity-recognition/images/NTCIR-Lifelog-256/u2/2015-05-08/b00009559_21i7lf_20150508_190023e.jpg'
p777
sg4
(lp778
(g68
g6
(g18
S'\xc9\x88M?'
p779
tp780
Rp781
tp782
a(g32
g6
(g18
S'\x96Q\xab='
p783
tp784
Rp785
tp786
a(g96
g6
(g18
S'\xe8F\x99='
p787
tp788
Rp789
tp790
a(g44
g6
(g18
S'\x93\xe6s<'
p791
tp792
Rp793
tp794
a(g108
g6
(g18
S'\x7fo\x13<'
p795
tp796
Rp797
tp798
asg73
g32
sa(dp799
g2
S'../../../data/emanuela/activity-recognition/images/NTCIR-Lifelog-256/u2/2015-04-27/b00005808_21i7lf_20150427_174448e.jpg'
p800
sg4
(lp801
(g281
g6
(g18
S'\x9fX\xfc>'
p802
tp803
Rp804
tp805
a(g108
g6
(g18
S'Z\xe1\x91>'
p806
tp807
Rp808
tp809
a(g417
g6
(g18
S'o<\x85='
p810
tp811
Rp812
tp813
a(g297
g6
(g18
S'\xca\x98\x0c='
p814
tp815
Rp816
tp817
a(g340
g6
(g18
S'\xe6\x8b\xce<'
p818
tp819
Rp820
tp821
asg73
g32
sa(dp822
g2
S'../../../data/emanuela/activity-recognition/images/NTCIR-Lifelog-256/u2/2015-05-03/b00003968_21i7lf_20150503_164042e.jpg'
p823
sg4
(lp824
(g32
g6
(g18
S'\xb1E\xcb>'
p825
tp826
Rp827
tp828
a(g15
g6
(g18
S'\xa4\x0c\xb7>'
p829
tp830
Rp831
tp832
a(g108
g6
(g18
S'\xce\x9d\xe1='
p833
tp834
Rp835
tp836
a(g56
g6
(g18
S'\xf5\xee\xb8='
p837
tp838
Rp839
tp840
a(g239
g6
(g18
S'\t\xf1\x11<'
p841
tp842
Rp843
tp844
asg73
g32
sa(dp845
g2
S'../../../data/emanuela/activity-recognition/images/NTCIR-Lifelog-256/u2/2015-04-21/b00000888_21i7lf_20150421_192628e.jpg'
p846
sg4
(lp847
(g32
g6
(g18
S'\rJ+?'
p848
tp849
Rp850
tp851
a(g15
g6
(g18
S'%\xc8\xd0='
p852
tp853
Rp854
tp855
a(g68
g6
(g18
S'E\xa1\x91='
p856
tp857
Rp858
tp859
a(g44
g6
(g18
S'\x10\x01\x80='
p860
tp861
Rp862
tp863
a(g108
g6
(g18
S'\xef\xd9\x13='
p864
tp865
Rp866
tp867
asg73
g32
sa(dp868
g2
S'../../../data/emanuela/activity-recognition/images/NTCIR-Lifelog-256/u2/2015-04-27/b00005820_21i7lf_20150427_175142e.jpg'
p869
sg4
(lp870
(g108
g6
(g18
S'\x9d\x9a;?'
p871
tp872
Rp873
tp874
a(g281
g6
(g18
S'\xd7\x83\xb9='
p875
tp876
Rp877
tp878
a(g417
g6
(g18
S'\xe0\x10\x1d='
p879
tp880
Rp881
tp882
a(g433
g6
(g18
S'\xeb\xdd\xbb<'
p883
tp884
Rp885
tp886
a(g15
g6
(g18
S'4y\xad<'
p887
tp888
Rp889
tp890
asg73
g32
sa(dp891
g2
S'../../../data/emanuela/activity-recognition/images/NTCIR-Lifelog-256/u2/2015-05-03/b00003979_21i7lf_20150503_164728e.jpg'
p892
sg4
(lp893
(g108
g6
(g18
S'6\xf1`?'
p894
tp895
Rp896
tp897
a(g32
g6
(g18
S' \x01\x86='
p898
tp899
Rp900
tp901
a(g56
g6
(g18
S'\xc3-F='
p902
tp903
Rp904
tp905
a(g15
g6
(g18
S'\x0c\xfe\xb2;'
p906
tp907
Rp908
tp909
a(g324
g6
(g18
S'\xacb\x85:'
p910
tp911
Rp912
tp913
asg73
g32
sa(dp914
g2
S'../../../data/emanuela/activity-recognition/images/NTCIR-Lifelog-256/u2/2015-05-08/b00009480_21i7lf_20150508_174910e.jpg'
p915
sg4
(lp916
(g32
g6
(g18
S'\xd3\xba\x83>'
p917
tp918
Rp919
tp920
a(g44
g6
(g18
S'\xa2U\x81>'
p921
tp922
Rp923
tp924
a(g146
g6
(g18
S',\x8fe>'
p925
tp926
Rp927
tp928
a(g68
g6
(g18
S'\xed/;>'
p929
tp930
Rp931
tp932
a(g417
g6
(g18
S'\xc6\xc6\xc6<'
p933
tp934
Rp935
tp936
asg73
g32
sa(dp937
g2
S'../../../data/emanuela/activity-recognition/images/NTCIR-Lifelog-256/u2/2015-04-27/b00005775_21i7lf_20150427_172447e.jpg'
p938
sg4
(lp939
(g108
g6
(g18
S'u\x06U?'
p940
tp941
Rp942
tp943
a(g56
g6
(g18
S'\xee4*>'
p944
tp945
Rp946
tp947
a(g32
g6
(g18
S'`\xaf\xbc:'
p948
tp949
Rp950
tp951
a(g44
g6
(g18
S'\xa2"\xba8'
p952
tp953
Rp954
tp955
a(g15
g6
(g18
S'\xf0bB8'
p956
tp957
Rp958
tp959
asg73
g32
sa(dp960
g2
S'../../../data/emanuela/activity-recognition/images/NTCIR-Lifelog-256/u2/2015-05-08/b00009577_21i7lf_20150508_191047e.jpg'
p961
sg4
(lp962
(g146
g6
(g18
S'P\xccu?'
p963
tp964
Rp965
tp966
a(g15
g6
(g18
S'\xcb4z<'
p967
tp968
Rp969
tp970
a(g108
g6
(g18
S"\xe6'\x0e<"
p971
tp972
Rp973
tp974
a(g56
g6
(g18
S'hz\xad;'
p975
tp976
Rp977
tp978
a(g32
g6
(g18
S's\xeb\x92;'
p979
tp980
Rp981
tp982
asg73
g32
sa(dp983
g2
S'../../../data/emanuela/activity-recognition/images/NTCIR-Lifelog-256/u2/2015-05-08/b00009560_21i7lf_20150508_190104e.jpg'
p984
sg4
(lp985
(g433
g6
(g18
S'#%\xb9>'
p986
tp987
Rp988
tp989
a(g32
g6
(g18
S'\x1f\xb1\x1d>'
p990
tp991
Rp992
tp993
a(g417
g6
(g18
S'\xbe\xe8\n>'
p994
tp995
Rp996
tp997
a(g68
g6
(g18
S'\xfb:\xb3='
p998
tp999
Rp1000
tp1001
a(g146
g6
(g18
S'\xda\xb3\xab='
p1002
tp1003
Rp1004
tp1005
asg73
g32
sa(dp1006
g2
S'../../../data/emanuela/activity-recognition/images/NTCIR-Lifelog-256/u2/2015-04-21/b00000862_21i7lf_20150421_185643e.jpg'
p1007
sg4
(lp1008
(g68
g6
(g18
S'@\x14\xe3>'
p1009
tp1010
Rp1011
tp1012
a(g32
g6
(g18
S'M.f>'
p1013
tp1014
Rp1015
tp1016
a(g44
g6
(g18
S'\\6\x19>'
p1017
tp1018
Rp1019
tp1020
a(g108
g6
(g18
S'y\xd9?='
p1021
tp1022
Rp1023
tp1024
a(g96
g6
(g18
S'Q]0='
p1025
tp1026
Rp1027
tp1028
asg73
g32
sa(dp1029
g2
S'../../../data/emanuela/activity-recognition/images/NTCIR-Lifelog-256/u2/2015-05-03/b00003973_21i7lf_20150503_164351e.jpg'
p1030
sg4
(lp1031
(g32
g6
(g18
S'Y\xd9\xdc>'
p1032
tp1033
Rp1034
tp1035
a(g108
g6
(g18
S'.\xc8\xdc>'
p1036
tp1037
Rp1038
tp1039
a(g56
g6
(g18
S'w\xd9\xb8='
p1040
tp1041
Rp1042
tp1043
a(g68
g6
(g18
S'r~]<'
p1044
tp1045
Rp1046
tp1047
a(g15
g6
(g18
S'\xb9\xd22<'
p1048
tp1049
Rp1050
tp1051
asg73
g32
sa(dp1052
g2
S'../../../data/emanuela/activity-recognition/images/NTCIR-Lifelog-256/u2/2015-05-03/b00003905_21i7lf_20150503_160005e.jpg'
p1053
sg4
(lp1054
(g324
g6
(g18
S'\x9e+\x0b?'
p1055
tp1056
Rp1057
tp1058
a(g96
g6
(g18
S'\xfd\xa7\xf9='
p1059
tp1060
Rp1061
tp1062
a(g340
g6
(g18
S'\xe8\x9f\xc3='
p1063
tp1064
Rp1065
tp1066
a(g108
g6
(g18
S'8\x14\x9e='
p1067
tp1068
Rp1069
tp1070
a(g68
g6
(g18
S'\xd6\xebr='
p1071
tp1072
Rp1073
tp1074
asg73
g32
sa(dp1075
g2
S'../../../data/emanuela/activity-recognition/images/NTCIR-Lifelog-256/u2/2015-04-21/b00000904_21i7lf_20150421_194159e.jpg'
p1076
sg4
(lp1077
(g32
g6
(g18
S'4%Q?'
p1078
tp1079
Rp1080
tp1081
a(g15
g6
(g18
S'\x85\x18\xc9='
p1082
tp1083
Rp1084
tp1085
a(g56
g6
(g18
S'\xa6l\xa2<'
p1086
tp1087
Rp1088
tp1089
a(g108
g6
(g18
S'\x8cR\x99<'
p1090
tp1091
Rp1092
tp1093
a(g68
g6
(g18
S'\xfb?\x8d<'
p1094
tp1095
Rp1096
tp1097
asg73
g32
sa(dp1098
g2
S'../../../data/emanuela/activity-recognition/images/NTCIR-Lifelog-256/u2/2015-05-08/b00009436_21i7lf_20150508_171537e.jpg'
p1099
sg4
(lp1100
(g32
g6
(g18
S'\x0bJ\x01?'
p1101
tp1102
Rp1103
tp1104
a(g108
g6
(g18
S':3a>'
p1105
tp1106
Rp1107
tp1108
a(g146
g6
(g18
S'\xea\xc4\xbe='
p1109
tp1110
Rp1111
tp1112
a(g68
g6
(g18
S'\xc2\xa1\x8b='
p1113
tp1114
Rp1115
tp1116
a(g56
g6
(g18
S'\xba\xbb\x1e='
p1117
tp1118
Rp1119
tp1120
asg73
g32
sa(dp1121
g2
S'../../../data/emanuela/activity-recognition/images/NTCIR-Lifelog-256/u2/2015-04-27/b00005750_21i7lf_20150427_170941e.jpg'
p1122
sg4
(lp1123
(g68
g6
(g18
S'M\xb0\xb9>'
p1124
tp1125
Rp1126
tp1127
a(g44
g6
(g18
S'\xc8\xdb\xf1='
p1128
tp1129
Rp1130
tp1131
a(g6
(g7
(S'S7'
p1132
I0
I1
tp1133
Rp1134
(I3
S'|'
p1135
NNNI7
I1
I0
tp1136
bS'working'
p1137
tp1138
Rp1139
g6
(g18
S'\xf2\xb2\xb8='
p1140
tp1141
Rp1142
tp1143
a(g281
g6
(g18
S'\x9f\x88\xb5='
p1144
tp1145
Rp1146
tp1147
a(g108
g6
(g18
S'H\xfb\x87='
p1148
tp1149
Rp1150
tp1151
asg73
g32
sa(dp1152
g2
S'../../../data/emanuela/activity-recognition/images/NTCIR-Lifelog-256/u2/2015-04-23/b00001251_21i7lf_20150423_144011e.jpg'
p1153
sg4
(lp1154
(g108
g6
(g18
S'\xe0\x1f\x17?'
p1155
tp1156
Rp1157
tp1158
a(g32
g6
(g18
S'\x9e\xba\x96>'
p1159
tp1160
Rp1161
tp1162
a(g15
g6
(g18
S'jv\xb5='
p1163
tp1164
Rp1165
tp1166
a(g56
g6
(g18
S'm\xd2\xbb<'
p1167
tp1168
Rp1169
tp1170
a(g309
g6
(g18
S'{\xa4+:'
p1171
tp1172
Rp1173
tp1174
asg73
g32
sa(dp1175
g2
S'../../../data/emanuela/activity-recognition/images/NTCIR-Lifelog-256/u2/2015-05-08/b00009423_21i7lf_20150508_170614e.jpg'
p1176
sg4
(lp1177
(g56
g6
(g18
S'\xd2\x0c)?'
p1178
tp1179
Rp1180
tp1181
a(g32
g6
(g18
S'd\x88\x08>'
p1182
tp1183
Rp1184
tp1185
a(g108
g6
(g18
S'\x8d\xc6\xb7='
p1186
tp1187
Rp1188
tp1189
a(g44
g6
(g18
S'\x0b\xfb\x99='
p1190
tp1191
Rp1192
tp1193
a(g340
g6
(g18
S'\xdd0\x01='
p1194
tp1195
Rp1196
tp1197
asg73
g32
sa(dp1198
g2
S'../../../data/emanuela/activity-recognition/images/NTCIR-Lifelog-256/u2/2015-04-21/b00000902_21i7lf_20150421_194047e.jpg'
p1199
sg4
(lp1200
(g32
g6
(g18
S'\xc1xf?'
p1201
tp1202
Rp1203
tp1204
a(g108
g6
(g18
S'\xcd\nS='
p1205
tp1206
Rp1207
tp1208
a(g68
g6
(g18
S')\xd5\xa7<'
p1209
tp1210
Rp1211
tp1212
a(g56
g6
(g18
S'\x04PX<'
p1213
tp1214
Rp1215
tp1216
a(g15
g6
(g18
S'\xa3\x94-;'
p1217
tp1218
Rp1219
tp1220
asg73
g32
sa(dp1221
g2
S'../../../data/emanuela/activity-recognition/images/NTCIR-Lifelog-256/u2/2015-05-08/b00009568_21i7lf_20150508_190631e.jpg'
p1222
sg4
(lp1223
(g146
g6
(g18
S'\x10\xd0x?'
p1224
tp1225
Rp1226
tp1227
a(g15
g6
(g18
S' y,<'
p1228
tp1229
Rp1230
tp1231
a(g44
g6
(g18
S'# \x13<'
p1232
tp1233
Rp1234
tp1235
a(g68
g6
(g18
S'\x0b\x9cX;'
p1236
tp1237
Rp1238
tp1239
a(g108
g6
(g18
S'\xfc\x8bJ;'
p1240
tp1241
Rp1242
tp1243
asg73
g32
sa(dp1244
g2
S'../../../data/emanuela/activity-recognition/images/NTCIR-Lifelog-256/u2/2015-05-08/b00009570_21i7lf_20150508_190747e.jpg'
p1245
sg4
(lp1246
(g44
g6
(g18
S' \x81\x11?'
p1247
tp1248
Rp1249
tp1250
a(g146
g6
(g18
S'h\xf1\x8d>'
p1251
tp1252
Rp1253
tp1254
a(g15
g6
(g18
S'\xd7.c='
p1255
tp1256
Rp1257
tp1258
a(g56
g6
(g18
S'\x16\xd3\x19='
p1259
tp1260
Rp1261
tp1262
a(g32
g6
(g18
S'\x96t\x18='
p1263
tp1264
Rp1265
tp1266
asg73
g32
sa(dp1267
g2
S'../../../data/emanuela/activity-recognition/images/NTCIR-Lifelog-256/u2/2015-05-01/b00001829_21i7lf_20150501_093720e.jpg'
p1268
sg4
(lp1269
(g32
g6
(g18
S'@\xf1\xd1>'
p1270
tp1271
Rp1272
tp1273
a(g56
g6
(g18
S'\x8e\x94>>'
p1274
tp1275
Rp1276
tp1277
a(g15
g6
(g18
S"\x06\x9a'>"
p1278
tp1279
Rp1280
tp1281
a(g108
g6
(g18
S'\x1at\xfb='
p1282
tp1283
Rp1284
tp1285
a(g239
g6
(g18
S"\x8a4'="
p1286
tp1287
Rp1288
tp1289
asg73
g32
sa(dp1290
g2
S'../../../data/emanuela/activity-recognition/images/NTCIR-Lifelog-256/u2/2015-05-06/b00007178_21i7lf_20150506_183156e.jpg'
p1291
sg4
(lp1292
(g32
g6
(g18
S'\xa8m\xa8>'
p1293
tp1294
Rp1295
tp1296
a(g15
g6
(g18
S'\x0b\xf5\xa1>'
p1297
tp1298
Rp1299
tp1300
a(g44
g6
(g18
S'\xa3\x84|>'
p1301
tp1302
Rp1303
tp1304
a(g146
g6
(g18
S'\t\xd56='
p1305
tp1306
Rp1307
tp1308
a(g68
g6
(g18
S'\x92\x98\xa5<'
p1309
tp1310
Rp1311
tp1312
asg73
g32
sa(dp1313
g2
S'../../../data/emanuela/activity-recognition/images/NTCIR-Lifelog-256/u2/2015-05-06/b00007187_21i7lf_20150506_183728e.jpg'
p1314
sg4
(lp1315
(g15
g6
(g18
S'-\xaf\x1b?'
p1316
tp1317
Rp1318
tp1319
a(g433
g6
(g18
S'\xfd\xbc\x08>'
p1320
tp1321
Rp1322
tp1323
a(g108
g6
(g18
S'n\xea\x80='
p1324
tp1325
Rp1326
tp1327
a(g96
g6
(g18
S'\x0c\xc4p='
p1328
tp1329
Rp1330
tp1331
a(g56
g6
(g18
S'y\xd9$='
p1332
tp1333
Rp1334
tp1335
asg73
g32
sa(dp1336
g2
S'../../../data/emanuela/activity-recognition/images/NTCIR-Lifelog-256/u2/2015-04-27/b00005805_21i7lf_20150427_174313e.jpg'
p1337
sg4
(lp1338
(g108
g6
(g18
S'^LX?'
p1339
tp1340
Rp1341
tp1342
a(g281
g6
(g18
S'\x9a\x91G='
p1343
tp1344
Rp1345
tp1346
a(g297
g6
(g18
S'M\x88\xf4<'
p1347
tp1348
Rp1349
tp1350
a(g417
g6
(g18
S'\nfI<'
p1351
tp1352
Rp1353
tp1354
a(g68
g6
(g18
S')\xf1D<'
p1355
tp1356
Rp1357
tp1358
asg73
g32
sa(dp1359
g2
S'../../../data/emanuela/activity-recognition/images/NTCIR-Lifelog-256/u2/2015-04-27/b00005825_21i7lf_20150427_175438e.jpg'
p1360
sg4
(lp1361
(g281
g6
(g18
S'\x95P\xc9>'
p1362
tp1363
Rp1364
tp1365
a(g108
g6
(g18
S'\xa6f\xc0>'
p1366
tp1367
Rp1368
tp1369
a(g417
g6
(g18
S'T\xf5U='
p1370
tp1371
Rp1372
tp1373
a(g433
g6
(g18
S'O\x0f\x18='
p1374
tp1375
Rp1376
tp1377
a(g297
g6
(g18
S'\xda\xfc\x0b='
p1378
tp1379
Rp1380
tp1381
asg73
g32
sa(dp1382
g2
S'../../../data/emanuela/activity-recognition/images/NTCIR-Lifelog-256/u2/2015-04-27/b00005793_21i7lf_20150427_173601e.jpg'
p1383
sg4
(lp1384
(g108
g6
(g18
S'\x848X?'
p1385
tp1386
Rp1387
tp1388
a(g281
g6
(g18
S'\xfaP`='
p1389
tp1390
Rp1391
tp1392
a(g32
g6
(g18
S'y\xcb\xab<'
p1393
tp1394
Rp1395
tp1396
a(g417
g6
(g18
S'\xde7I<'
p1397
tp1398
Rp1399
tp1400
a(g297
g6
(g18
S'\xe3\xa7A<'
p1401
tp1402
Rp1403
tp1404
asg73
g32
sa(dp1405
g2
S'../../../data/emanuela/activity-recognition/images/NTCIR-Lifelog-256/u2/2015-04-23/b00001268_21i7lf_20150423_145100e.jpg'
p1406
sg4
(lp1407
(g32
g6
(g18
S'=\xff+?'
p1408
tp1409
Rp1410
tp1411
a(g15
g6
(g18
S'a\xfb\x9b>'
p1412
tp1413
Rp1414
tp1415
a(g108
g6
(g18
S'\x97H\x8f<'
p1416
tp1417
Rp1418
tp1419
a(g56
g6
(g18
S'\xa5O\x01;'
p1420
tp1421
Rp1422
tp1423
a(g309
g6
(g18
S'\\\r\xa1:'
p1424
tp1425
Rp1426
tp1427
asg73
g32
sa(dp1428
g2
S'../../../data/emanuela/activity-recognition/images/NTCIR-Lifelog-256/u2/2015-04-26/b00004183_21i7lf_20150426_160805e.jpg'
p1429
sg4
(lp1430
(g108
g6
(g18
S'\x83\xf6\x96>'
p1431
tp1432
Rp1433
tp1434
a(g68
g6
(g18
S'\xb3\xfe\x8a>'
p1435
tp1436
Rp1437
tp1438
a(g324
g6
(g18
S'd5\xf3='
p1439
tp1440
Rp1441
tp1442
a(g281
g6
(g18
S'D\xacq='
p1443
tp1444
Rp1445
tp1446
a(g340
g6
(g18
S'\xef\x004='
p1447
tp1448
Rp1449
tp1450
asg73
g32
sa(dp1451
g2
S'../../../data/emanuela/activity-recognition/images/NTCIR-Lifelog-256/u2/2015-05-03/b00003947_21i7lf_20150503_162649e.jpg'
p1452
sg4
(lp1453
(g32
g6
(g18
S'w\x164?'
p1454
tp1455
Rp1456
tp1457
a(g56
g6
(g18
S'. W>'
p1458
tp1459
Rp1460
tp1461
a(g108
g6
(g18
S'E:\x8f='
p1462
tp1463
Rp1464
tp1465
a(g15
g6
(g18
S'\xa8\\j<'
p1466
tp1467
Rp1468
tp1469
a(g146
g6
(g18
S'\x11c\x81:'
p1470
tp1471
Rp1472
tp1473
asg73
g32
sa(dp1474
g2
S'../../../data/emanuela/activity-recognition/images/NTCIR-Lifelog-256/u2/2015-04-27/b00005763_21i7lf_20150427_171730e.jpg'
p1475
sg4
(lp1476
(g32
g6
(g18
S'&<\x9e>'
p1477
tp1478
Rp1479
tp1480
a(g15
g6
(g18
S'Y\xe2N>'
p1481
tp1482
Rp1483
tp1484
a(g324
g6
(g18
S'\xd2$\x03>'
p1485
tp1486
Rp1487
tp1488
a(g108
g6
(g18
S'\xed\x9ft='
p1489
tp1490
Rp1491
tp1492
a(g44
g6
(g18
S'\x8b`k='
p1493
tp1494
Rp1495
tp1496
asg73
g32
sa(dp1497
g2
S'../../../data/emanuela/activity-recognition/images/NTCIR-Lifelog-256/u2/2015-05-08/b00009492_21i7lf_20150508_180010e.jpg'
p1498
sg4
(lp1499
(g146
g6
(g18
S'{\xb0\xf3>'
p1500
tp1501
Rp1502
tp1503
a(g15
g6
(g18
S'\xb1B\x9f>'
p1504
tp1505
Rp1506
tp1507
a(g44
g6
(g18
S'Qr\x0c>'
p1508
tp1509
Rp1510
tp1511
a(g32
g6
(g18
S'}>\xde<'
p1512
tp1513
Rp1514
tp1515
a(g68
g6
(g18
S'\xe2\xdc\xb1<'
p1516
tp1517
Rp1518
tp1519
asg73
g32
sa(dp1520
g2
S'../../../data/emanuela/activity-recognition/images/NTCIR-Lifelog-256/u2/2015-04-21/b00000877_21i7lf_20150421_191840e.jpg'
p1521
sg4
(lp1522
(g32
g6
(g18
S'fV\xb7>'
p1523
tp1524
Rp1525
tp1526
a(g15
g6
(g18
S'\x9b\xbbr>'
p1527
tp1528
Rp1529
tp1530
a(g68
g6
(g18
S'\x0e\xe9\x0e>'
p1531
tp1532
Rp1533
tp1534
a(g108
g6
(g18
S'\xc8\xce\xde='
p1535
tp1536
Rp1537
tp1538
a(g44
g6
(g18
S'\xbd\xa0\x92='
p1539
tp1540
Rp1541
tp1542
asg73
g32
sa(dp1543
g2
S'../../../data/emanuela/activity-recognition/images/NTCIR-Lifelog-256/u2/2015-05-01/b00001777_21i7lf_20150501_090510e.jpg'
p1544
sg4
(lp1545
(g32
g6
(g18
S'\xe6\xfe\xc9>'
p1546
tp1547
Rp1548
tp1549
a(g56
g6
(g18
S'\xab\xe6\x88>'
p1550
tp1551
Rp1552
tp1553
a(g15
g6
(g18
S'\xab\xb1/>'
p1554
tp1555
Rp1556
tp1557
a(g108
g6
(g18
S'\xc5W\x83='
p1558
tp1559
Rp1560
tp1561
a(g324
g6
(g18
S'\xeb\xa1\xca<'
p1562
tp1563
Rp1564
tp1565
asg73
g32
sa(dp1566
g2
S'../../../data/emanuela/activity-recognition/images/NTCIR-Lifelog-256/u2/2015-05-08/b00009459_21i7lf_20150508_173122e.jpg'
p1567
sg4
(lp1568
(g108
g6
(g18
S'\xa05\xbe>'
p1569
tp1570
Rp1571
tp1572
a(g32
g6
(g18
S'\xf2|q>'
p1573
tp1574
Rp1575
tp1576
a(g56
g6
(g18
S'\xc9m\\>'
p1577
tp1578
Rp1579
tp1580
a(g15
g6
(g18
S'L\xbe\xcb='
p1581
tp1582
Rp1583
tp1584
a(g44
g6
(g18
S'\xa4\xc8\xf4<'
p1585
tp1586
Rp1587
tp1588
asg73
g32
sa(dp1589
g2
S'../../../data/emanuela/activity-recognition/images/NTCIR-Lifelog-256/u2/2015-05-01/b00001782_21i7lf_20150501_090811e.jpg'
p1590
sg4
(lp1591
(g32
g6
(g18
S'\x1c-\x04?'
p1592
tp1593
Rp1594
tp1595
a(g108
g6
(g18
S'\xd0v0>'
p1596
tp1597
Rp1598
tp1599
a(g56
g6
(g18
S'\x02\xea\x0f>'
p1600
tp1601
Rp1602
tp1603
a(g15
g6
(g18
S'j3\xb8='
p1604
tp1605
Rp1606
tp1607
a(g281
g6
(g18
S'j\xc11='
p1608
tp1609
Rp1610
tp1611
asg73
g32
sa(dp1612
g2
S'../../../data/emanuela/activity-recognition/images/NTCIR-Lifelog-256/u2/2015-05-03/b00003976_21i7lf_20150503_164535e.jpg'
p1613
sg4
(lp1614
(g108
g6
(g18
S'\x92X/?'
p1615
tp1616
Rp1617
tp1618
a(g56
g6
(g18
S'\xec\xe78>'
p1619
tp1620
Rp1621
tp1622
a(g32
g6
(g18
S'\x8aG\xda='
p1623
tp1624
Rp1625
tp1626
a(g15
g6
(g18
S'\xe7\x9b\xba<'
p1627
tp1628
Rp1629
tp1630
a(g146
g6
(g18
S'\x18\xab\x0b;'
p1631
tp1632
Rp1633
tp1634
asg73
g32
sa(dp1635
g2
S'../../../data/emanuela/activity-recognition/images/NTCIR-Lifelog-256/u2/2015-04-23/b00001236_21i7lf_20150423_143036e.jpg'
p1636
sg4
(lp1637
(g32
g6
(g18
S'\xb5\xc0\xde>'
p1638
tp1639
Rp1640
tp1641
a(g15
g6
(g18
S'\xfe\xff\x9a>'
p1642
tp1643
Rp1644
tp1645
a(g108
g6
(g18
S'>\xaf\x1e>'
p1646
tp1647
Rp1648
tp1649
a(g309
g6
(g18
S'\x84o\x1f='
p1650
tp1651
Rp1652
tp1653
a(g56
g6
(g18
S'\x8d^\xda<'
p1654
tp1655
Rp1656
tp1657
asg73
g32
sa(dp1658
g2
S'../../../data/emanuela/activity-recognition/images/NTCIR-Lifelog-256/u2/2015-05-06/b00007185_21i7lf_20150506_183612e.jpg'
p1659
sg4
(lp1660
(g44
g6
(g18
S'S\xd0\x80>'
p1661
tp1662
Rp1663
tp1664
a(g32
g6
(g18
S'\x04\xabx>'
p1665
tp1666
Rp1667
tp1668
a(g15
g6
(g18
S'z\xaeo>'
p1669
tp1670
Rp1671
tp1672
a(g68
g6
(g18
S'\x8d\x13\xc5='
p1673
tp1674
Rp1675
tp1676
a(g96
g6
(g18
S'X]\x81='
p1677
tp1678
Rp1679
tp1680
asg73
g32
sa(dp1681
g2
S'../../../data/emanuela/activity-recognition/images/NTCIR-Lifelog-256/u2/2015-05-08/b00009437_21i7lf_20150508_171612e.jpg'
p1682
sg4
(lp1683
(g32
g6
(g18
S'q\xcd\xf6>'
p1684
tp1685
Rp1686
tp1687
a(g56
g6
(g18
S'\xb7(\xbd>'
p1688
tp1689
Rp1690
tp1691
a(g108
g6
(g18
S'\x14\xcc}='
p1692
tp1693
Rp1694
tp1695
a(g44
g6
(g18
S'\xb7\xf2 ='
p1696
tp1697
Rp1698
tp1699
a(g15
g6
(g18
S'\xa2p\x18='
p1700
tp1701
Rp1702
tp1703
asg73
g32
sa(dp1704
g2
S'../../../data/emanuela/activity-recognition/images/NTCIR-Lifelog-256/u2/2015-04-27/b00005836_21i7lf_20150427_180110e.jpg'
p1705
sg4
(lp1706
(g108
g6
(g18
S'E\xe11?'
p1707
tp1708
Rp1709
tp1710
a(g281
g6
(g18
S'\xdbm\xfd='
p1711
tp1712
Rp1713
tp1714
a(g417
g6
(g18
S'\xf4"a='
p1715
tp1716
Rp1717
tp1718
a(g297
g6
(g18
S'\x0f\x124='
p1719
tp1720
Rp1721
tp1722
a(g340
g6
(g18
S'\xebR\xba<'
p1723
tp1724
Rp1725
tp1726
asg73
g32
sa(dp1727
g2
S'../../../data/emanuela/activity-recognition/images/NTCIR-Lifelog-256/u2/2015-05-01/b00001831_21i7lf_20150501_093832e.jpg'
p1728
sg4
(lp1729
(g108
g6
(g18
S'\xdf\xf0\xcf>'
p1730
tp1731
Rp1732
tp1733
a(g15
g6
(g18
S'\xa1\x88\x97>'
p1734
tp1735
Rp1736
tp1737
a(g32
g6
(g18
S'\xa7,\x9c='
p1738
tp1739
Rp1740
tp1741
a(g297
g6
(g18
S'\xe1\xc2\x84='
p1742
tp1743
Rp1744
tp1745
a(g56
g6
(g18
S'~\xe6r='
p1746
tp1747
Rp1748
tp1749
asg73
g32
sa(dp1750
g2
S'../../../data/emanuela/activity-recognition/images/NTCIR-Lifelog-256/u2/2015-04-23/b00001243_21i7lf_20150423_143458e.jpg'
p1751
sg4
(lp1752
(g32
g6
(g18
S'\x80;\x1e?'
p1753
tp1754
Rp1755
tp1756
a(g15
g6
(g18
S'+\x97\xc0>'
p1757
tp1758
Rp1759
tp1760
a(g56
g6
(g18
S'p\xcb/;'
p1761
tp1762
Rp1763
tp1764
a(g108
g6
(g18
S'mt\xdc:'
p1765
tp1766
Rp1767
tp1768
a(g96
g6
(g18
S'j\xaa\xeb9'
p1769
tp1770
Rp1771
tp1772
asg73
g32
sa(dp1773
g2
S'../../../data/emanuela/activity-recognition/images/NTCIR-Lifelog-256/u2/2015-05-08/b00009462_21i7lf_20150508_173519e.jpg'
p1774
sg4
(lp1775
(g108
g6
(g18
S'\x01h\xab>'
p1776
tp1777
Rp1778
tp1779
a(g32
g6
(g18
S'w\x92\x86>'
p1780
tp1781
Rp1782
tp1783
a(g56
g6
(g18
S'-\x1e\x86>'
p1784
tp1785
Rp1786
tp1787
a(g44
g6
(g18
S'\xcdJ\xba='
p1788
tp1789
Rp1790
tp1791
a(g15
g6
(g18
S'mi\x04='
p1792
tp1793
Rp1794
tp1795
asg73
g32
sa(dp1796
g2
S'../../../data/emanuela/activity-recognition/images/NTCIR-Lifelog-256/u2/2015-05-08/b00009449_21i7lf_20150508_172332e.jpg'
p1797
sg4
(lp1798
(g32
g6
(g18
S'\xdfD#?'
p1799
tp1800
Rp1801
tp1802
a(g56
g6
(g18
S'\xac\xc5A>'
p1803
tp1804
Rp1805
tp1806
a(g108
g6
(g18
S'\xb5p\x9c='
p1807
tp1808
Rp1809
tp1810
a(g44
g6
(g18
S'\x00@D='
p1811
tp1812
Rp1813
tp1814
a(g15
g6
(g18
S'\xcc\xe8\x1a='
p1815
tp1816
Rp1817
tp1818
asg73
g32
sa(dp1819
g2
S'../../../data/emanuela/activity-recognition/images/NTCIR-Lifelog-256/u2/2015-05-01/b00001787_21i7lf_20150501_091112e.jpg'
p1820
sg4
(lp1821
(g56
g6
(g18
S'\xe9\r\xc2>'
p1822
tp1823
Rp1824
tp1825
a(g32
g6
(g18
S'\x1aM\x83>'
p1826
tp1827
Rp1828
tp1829
a(g108
g6
(g18
S'Y$<>'
p1830
tp1831
Rp1832
tp1833
a(g15
g6
(g18
S'\x05\xd8:='
p1834
tp1835
Rp1836
tp1837
a(g239
g6
(g18
S'\x05d\xf7<'
p1838
tp1839
Rp1840
tp1841
asg73
g32
sa(dp1842
g2
S'../../../data/emanuela/activity-recognition/images/NTCIR-Lifelog-256/u2/2015-05-08/b00009446_21i7lf_20150508_172138e.jpg'
p1843
sg4
(lp1844
(g32
g6
(g18
S'q\xa6(?'
p1845
tp1846
Rp1847
tp1848
a(g56
g6
(g18
S'\xbe\x1b\xa9='
p1849
tp1850
Rp1851
tp1852
a(g108
g6
(g18
S'\xcd\xa6\x98='
p1853
tp1854
Rp1855
tp1856
a(g44
g6
(g18
S'\xd05\x95='
p1857
tp1858
Rp1859
tp1860
a(g15
g6
(g18
S'\x0b\xfb\xf2<'
p1861
tp1862
Rp1863
tp1864
asg73
g32
sa(dp1865
g2
S'../../../data/emanuela/activity-recognition/images/NTCIR-Lifelog-256/u2/2015-05-08/b00009431_21i7lf_20150508_171224e.jpg'
p1866
sg4
(lp1867
(g32
g6
(g18
S'<S\t?'
p1868
tp1869
Rp1870
tp1871
a(g56
g6
(g18
S'\xb1\x18\xc7>'
p1872
tp1873
Rp1874
tp1875
a(g15
g6
(g18
S'\x80[\xe4<'
p1876
tp1877
Rp1878
tp1879
a(g44
g6
(g18
S'im\xa6<'
p1880
tp1881
Rp1882
tp1883
a(g108
g6
(g18
S'\xa4v\x83<'
p1884
tp1885
Rp1886
tp1887
asg73
g32
sa(dp1888
g2
S'../../../data/emanuela/activity-recognition/images/NTCIR-Lifelog-256/u2/2015-04-26/b00004193_21i7lf_20150426_161431e.jpg'
p1889
sg4
(lp1890
(g108
g6
(g18
S'\xe5\x02\x13?'
p1891
tp1892
Rp1893
tp1894
a(g324
g6
(g18
S'\x8doG>'
p1895
tp1896
Rp1897
tp1898
a(g32
g6
(g18
S'\x8e\xb7\x9f='
p1899
tp1900
Rp1901
tp1902
a(g68
g6
(g18
S'<\xc0\x99='
p1903
tp1904
Rp1905
tp1906
a(g56
g6
(g18
S'[m\x01='
p1907
tp1908
Rp1909
tp1910
asg73
g32
sa(dp1911
g2
S'../../../data/emanuela/activity-recognition/images/NTCIR-Lifelog-256/u2/2015-05-08/b00009572_21i7lf_20150508_190859e.jpg'
p1912
sg4
(lp1913
(g146
g6
(g18
S'd\xe4i?'
p1914
tp1915
Rp1916
tp1917
a(g44
g6
(g18
S'\xcbTM='
p1918
tp1919
Rp1920
tp1921
a(g15
g6
(g18
S'\xb5\x9c\x9a<'
p1922
tp1923
Rp1924
tp1925
a(g108
g6
(g18
S'\xf7M\x18<'
p1926
tp1927
Rp1928
tp1929
a(g68
g6
(g18
S'(\xf4L;'
p1930
tp1931
Rp1932
tp1933
asg73
g32
sa(dp1934
g2
S'../../../data/emanuela/activity-recognition/images/NTCIR-Lifelog-256/u2/2015-04-21/b00000897_21i7lf_20150421_193738e.jpg'
p1935
sg4
(lp1936
(g32
g6
(g18
S'F`\xeb>'
p1937
tp1938
Rp1939
tp1940
a(g68
g6
(g18
S'\xb4\x8c\xbd>'
p1941
tp1942
Rp1943
tp1944
a(g15
g6
(g18
S'\xc3\xb1O='
p1945
tp1946
Rp1947
tp1948
a(g96
g6
(g18
S'\r\xf2\x03='
p1949
tp1950
Rp1951
tp1952
a(g44
g6
(g18
S':\x06\xe2<'
p1953
tp1954
Rp1955
tp1956
asg73
g32
sa(dp1957
g2
S'../../../data/emanuela/activity-recognition/images/NTCIR-Lifelog-256/u2/2015-05-08/b00009489_21i7lf_20150508_175821e.jpg'
p1958
sg4
(lp1959
(g44
g6
(g18
S'\xa1\xe4\xc0>'
p1960
tp1961
Rp1962
tp1963
a(g146
g6
(g18
S' U\x8a>'
p1964
tp1965
Rp1966
tp1967
a(g15
g6
(g18
S's\xebv>'
p1968
tp1969
Rp1970
tp1971
a(g32
g6
(g18
S'\rd-='
p1972
tp1973
Rp1974
tp1975
a(g56
g6
(g18
S'\x90\xd8!='
p1976
tp1977
Rp1978
tp1979
asg73
g32
sa(dp1980
g2
S'../../../data/emanuela/activity-recognition/images/NTCIR-Lifelog-256/u2/2015-05-08/b00009547_21i7lf_20150508_184809e.jpg'
p1981
sg4
(lp1982
(g146
g6
(g18
S'S\x16\x15?'
p1983
tp1984
Rp1985
tp1986
a(g44
g6
(g18
S'\x88\x98\x8b>'
p1987
tp1988
Rp1989
tp1990
a(g56
g6
(g18
S'k\t7='
p1991
tp1992
Rp1993
tp1994
a(g15
g6
(g18
S'\xda\xf0\x13='
p1995
tp1996
Rp1997
tp1998
a(g32
g6
(g18
S'?A\x08='
p1999
tp2000
Rp2001
tp2002
asg73
g32
sa(dp2003
g2
S'../../../data/emanuela/activity-recognition/images/NTCIR-Lifelog-256/u2/2015-05-08/b00009536_21i7lf_20150508_184113e.jpg'
p2004
sg4
(lp2005
(g32
g6
(g18
S'\x94&K?'
p2006
tp2007
Rp2008
tp2009
a(g15
g6
(g18
S'n\xaf\x9d='
p2010
tp2011
Rp2012
tp2013
a(g68
g6
(g18
S'\x99\x03t='
p2014
tp2015
Rp2016
tp2017
a(g108
g6
(g18
S'\xf0\xd2\x9e<'
p2018
tp2019
Rp2020
tp2021
a(g44
g6
(g18
S'\x93\x82m<'
p2022
tp2023
Rp2024
tp2025
asg73
g32
sa(dp2026
g2
S'../../../data/emanuela/activity-recognition/images/NTCIR-Lifelog-256/u2/2015-05-08/b00009463_21i7lf_20150508_173638e.jpg'
p2027
sg4
(lp2028
(g32
g6
(g18
S'\x8f\x9eJ?'
p2029
tp2030
Rp2031
tp2032
a(g56
g6
(g18
S'\x12\x0e\xd5='
p2033
tp2034
Rp2035
tp2036
a(g108
g6
(g18
S'\x16:\x8b='
p2037
tp2038
Rp2039
tp2040
a(g15
g6
(g18
S'\xb3G\xc6<'
p2041
tp2042
Rp2043
tp2044
a(g44
g6
(g18
S'\xf3\xed\x02<'
p2045
tp2046
Rp2047
tp2048
asg73
g32
sa(dp2049
g2
S'../../../data/emanuela/activity-recognition/images/NTCIR-Lifelog-256/u2/2015-05-01/b00001776_21i7lf_20150501_090431e.jpg'
p2050
sg4
(lp2051
(g32
g6
(g18
S'\xe69\xcb>'
p2052
tp2053
Rp2054
tp2055
a(g56
g6
(g18
S'\x8b\x0b\xc9>'
p2056
tp2057
Rp2058
tp2059
a(g15
g6
(g18
S'\x84\xf3\x13>'
p2060
tp2061
Rp2062
tp2063
a(g108
g6
(g18
S'\x0fWr='
p2064
tp2065
Rp2066
tp2067
a(g324
g6
(g18
S'\xeb\xa2\x1d;'
p2068
tp2069
Rp2070
tp2071
asg73
g32
sa(dp2072
g2
S'../../../data/emanuela/activity-recognition/images/NTCIR-Lifelog-256/u2/2015-04-23/b00001240_21i7lf_20150423_143302e.jpg'
p2073
sg4
(lp2074
(g15
g6
(g18
S'mhZ?'
p2075
tp2076
Rp2077
tp2078
a(g32
g6
(g18
S'\xcf\x8b\x89='
p2079
tp2080
Rp2081
tp2082
a(g239
g6
(g18
S'\x88\x9d\xfa<'
p2083
tp2084
Rp2085
tp2086
a(g96
g6
(g18
S'\xe2\x17\xa9<'
p2087
tp2088
Rp2089
tp2090
a(g56
g6
(g18
S'\xa5a\x18<'
p2091
tp2092
Rp2093
tp2094
asg73
g32
sa(dp2095
g2
S'../../../data/emanuela/activity-recognition/images/NTCIR-Lifelog-256/u2/2015-05-08/b00009491_21i7lf_20150508_175933e.jpg'
p2096
sg4
(lp2097
(g44
g6
(g18
S'\x96\xd9\xe3>'
p2098
tp2099
Rp2100
tp2101
a(g146
g6
(g18
S'P\x02\xaa>'
p2102
tp2103
Rp2104
tp2105
a(g15
g6
(g18
S'\xca}\xe7='
p2106
tp2107
Rp2108
tp2109
a(g56
g6
(g18
S'\xedB6='
p2110
tp2111
Rp2112
tp2113
a(g32
g6
(g18
S'W\xcf\xdc<'
p2114
tp2115
Rp2116
tp2117
asg73
g32
sa(dp2118
g2
S'../../../data/emanuela/activity-recognition/images/NTCIR-Lifelog-256/u2/2015-04-27/b00005837_21i7lf_20150427_180145e.jpg'
p2119
sg4
(lp2120
(g108
g6
(g18
S'\xb7]\x04?'
p2121
tp2122
Rp2123
tp2124
a(g281
g6
(g18
S'\x08\xdb\x96>'
p2125
tp2126
Rp2127
tp2128
a(g417
g6
(g18
S'c\x94^='
p2129
tp2130
Rp2131
tp2132
a(g297
g6
(g18
S'\x91\xb5\x13='
p2133
tp2134
Rp2135
tp2136
a(g340
g6
(g18
S'J\x01\xb5<'
p2137
tp2138
Rp2139
tp2140
asg73
g32
sa(dp2141
g2
S'../../../data/emanuela/activity-recognition/images/NTCIR-Lifelog-256/u2/2015-05-06/b00007099_21i7lf_20150506_174212e.jpg'
p2142
sg4
(lp2143
(g146
g6
(g18
S'\xf9\xa6\xd9>'
p2144
tp2145
Rp2146
tp2147
a(g44
g6
(g18
S'&\x96\x83>'
p2148
tp2149
Rp2150
tp2151
a(g108
g6
(g18
S'v\x19\x18>'
p2152
tp2153
Rp2154
tp2155
a(g32
g6
(g18
S'e\xfa\xae='
p2156
tp2157
Rp2158
tp2159
a(g56
g6
(g18
S'\xef)\x1e='
p2160
tp2161
Rp2162
tp2163
asg73
g32
sa(dp2164
g2
S'../../../data/emanuela/activity-recognition/images/NTCIR-Lifelog-256/u2/2015-05-08/b00009554_21i7lf_20150508_185532e.jpg'
p2165
sg4
(lp2166
(g32
g6
(g18
S'\xe9\xa5\xf2>'
p2167
tp2168
Rp2169
tp2170
a(g56
g6
(g18
S'\xdc.=>'
p2171
tp2172
Rp2173
tp2174
a(g108
g6
(g18
S'\xbb\xe7\x1f>'
p2175
tp2176
Rp2177
tp2178
a(g15
g6
(g18
S'/\x03\xad='
p2179
tp2180
Rp2181
tp2182
a(g44
g6
(g18
S'\xee\x83\x18='
p2183
tp2184
Rp2185
tp2186
asg73
g32
sa(dp2187
g2
S'../../../data/emanuela/activity-recognition/images/NTCIR-Lifelog-256/u2/2015-05-03/b00003938_21i7lf_20150503_162115e.jpg'
p2188
sg4
(lp2189
(g32
g6
(g18
S'\xc3\xbf\xba>'
p2190
tp2191
Rp2192
tp2193
a(g108
g6
(g18
S"\xb6'U>"
p2194
tp2195
Rp2196
tp2197
a(g44
g6
(g18
S'\xa11+>'
p2198
tp2199
Rp2200
tp2201
a(g56
g6
(g18
S'S\xf1\xfe='
p2202
tp2203
Rp2204
tp2205
a(g324
g6
(g18
S'\x1d\x050='
p2206
tp2207
Rp2208
tp2209
asg73
g32
sa(dp2210
g2
S'../../../data/emanuela/activity-recognition/images/NTCIR-Lifelog-256/u2/2015-05-08/b00009555_21i7lf_20150508_185633e.jpg'
p2211
sg4
(lp2212
(g146
g6
(g18
S'\xc2\xab\xef>'
p2213
tp2214
Rp2215
tp2216
a(g15
g6
(g18
S'e\xf8\xe9>'
p2217
tp2218
Rp2219
tp2220
a(g56
g6
(g18
S'\xc2I\x0e='
p2221
tp2222
Rp2223
tp2224
a(g44
g6
(g18
S'K\xbfl<'
p2225
tp2226
Rp2227
tp2228
a(g32
g6
(g18
S'R\xaa<<'
p2229
tp2230
Rp2231
tp2232
asg73
g32
sa(dp2233
g2
S'../../../data/emanuela/activity-recognition/images/NTCIR-Lifelog-256/u2/2015-05-08/b00009546_21i7lf_20150508_184735e.jpg'
p2234
sg4
(lp2235
(g146
g6
(g18
S"'>C?"
p2236
tp2237
Rp2238
tp2239
a(g15
g6
(g18
S'\xf0\xa4\xc8='
p2240
tp2241
Rp2242
tp2243
a(g44
g6
(g18
S'\x1eM\xba='
p2244
tp2245
Rp2246
tp2247
a(g32
g6
(g18
S'\x1f\xc9\x90<'
p2248
tp2249
Rp2250
tp2251
a(g108
g6
(g18
S'\xf6w8<'
p2252
tp2253
Rp2254
tp2255
asg73
g32
sa(dp2256
g2
S'../../../data/emanuela/activity-recognition/images/NTCIR-Lifelog-256/u2/2015-05-03/b00003855_21i7lf_20150503_152905e.jpg'
p2257
sg4
(lp2258
(g32
g6
(g18
S'l\xc8\x92>'
p2259
tp2260
Rp2261
tp2262
a(g324
g6
(g18
S'\xd1Yy>'
p2263
tp2264
Rp2265
tp2266
a(g56
g6
(g18
S'R\xe1\x05>'
p2267
tp2268
Rp2269
tp2270
a(g108
g6
(g18
S'\x94\xc8\x7f='
p2271
tp2272
Rp2273
tp2274
a(g15
g6
(g18
S'\xed\xc2y='
p2275
tp2276
Rp2277
tp2278
asg73
g32
sa(dp2279
g2
S'../../../data/emanuela/activity-recognition/images/NTCIR-Lifelog-256/u2/2015-05-08/b00009434_21i7lf_20150508_171424e.jpg'
p2280
sg4
(lp2281
(g44
g6
(g18
S'O\xcd%?'
p2282
tp2283
Rp2284
tp2285
a(g146
g6
(g18
S'\xb4D\x13>'
p2286
tp2287
Rp2288
tp2289
a(g32
g6
(g18
S'\xf5\x8em='
p2290
tp2291
Rp2292
tp2293
a(g15
g6
(g18
S'\xe2\xcc%='
p2294
tp2295
Rp2296
tp2297
a(g417
g6
(g18
S'\xc8\xcf\xf3<'
p2298
tp2299
Rp2300
tp2301
asg73
g32
sa(dp2302
g2
S'../../../data/emanuela/activity-recognition/images/NTCIR-Lifelog-256/u2/2015-05-08/b00009441_21i7lf_20150508_171838e.jpg'
p2303
sg4
(lp2304
(g56
g6
(g18
S'\xf8\xa3B?'
p2305
tp2306
Rp2307
tp2308
a(g108
g6
(g18
S'\xb2\xaf<>'
p2309
tp2310
Rp2311
tp2312
a(g32
g6
(g18
S'\xd4\x93\xe9<'
p2313
tp2314
Rp2315
tp2316
a(g44
g6
(g18
S'\xc9#\x86<'
p2317
tp2318
Rp2319
tp2320
a(g15
g6
(g18
S'\x8b\xaf\x80;'
p2321
tp2322
Rp2323
tp2324
asg73
g32
sa(dp2325
g2
S'../../../data/emanuela/activity-recognition/images/NTCIR-Lifelog-256/u2/2015-04-27/b00005773_21i7lf_20150427_172333e.jpg'
p2326
sg4
(lp2327
(g108
g6
(g18
S'\xeb\xc1q?'
p2328
tp2329
Rp2330
tp2331
a(g56
g6
(g18
S'q\xc5A='
p2332
tp2333
Rp2334
tp2335
a(g44
g6
(g18
S'\xe0b\xa8;'
p2336
tp2337
Rp2338
tp2339
a(g32
g6
(g18
S'\xbd\xe5p:'
p2340
tp2341
Rp2342
tp2343
a(g340
g6
(g18
S'\xee\xe1;:'
p2344
tp2345
Rp2346
tp2347
asg73
g32
sa(dp2348
g2
S'../../../data/emanuela/activity-recognition/images/NTCIR-Lifelog-256/u2/2015-04-23/b00001255_21i7lf_20150423_144245e.jpg'
p2349
sg4
(lp2350
(g15
g6
(g18
S'\xf9\xb8K?'
p2351
tp2352
Rp2353
tp2354
a(g32
g6
(g18
S'$\x9c\xac='
p2355
tp2356
Rp2357
tp2358
a(g96
g6
(g18
S'\xb0\xf2\xa8='
p2359
tp2360
Rp2361
tp2362
a(g239
g6
(g18
S'\x07\x8c]<'
p2363
tp2364
Rp2365
tp2366
a(g108
g6
(g18
S'\xc1\xea\xbb;'
p2367
tp2368
Rp2369
tp2370
asg73
g32
sa(dp2371
g2
S'../../../data/emanuela/activity-recognition/images/NTCIR-Lifelog-256/u2/2015-04-21/b00000885_21i7lf_20150421_192434e.jpg'
p2372
sg4
(lp2373
(g32
g6
(g18
S'C\xd5\xe2>'
p2374
tp2375
Rp2376
tp2377
a(g15
g6
(g18
S'\xd3}\x82>'
p2378
tp2379
Rp2380
tp2381
a(g68
g6
(g18
S'y\xe5\xc1='
p2382
tp2383
Rp2384
tp2385
a(g44
g6
(g18
S'\xf8;Q='
p2386
tp2387
Rp2388
tp2389
a(g108
g6
(g18
S'\xcc\xc0C='
p2390
tp2391
Rp2392
tp2393
asg73
g32
sa(dp2394
g2
S'../../../data/emanuela/activity-recognition/images/NTCIR-Lifelog-256/u2/2015-04-27/b00005831_21i7lf_20150427_175815e.jpg'
p2395
sg4
(lp2396
(g108
g6
(g18
S'\xf0qV?'
p2397
tp2398
Rp2399
tp2400
a(g146
g6
(g18
S'\x9c:\x16='
p2401
tp2402
Rp2403
tp2404
a(g417
g6
(g18
S'\x02=\xdb<'
p2405
tp2406
Rp2407
tp2408
a(g68
g6
(g18
S'[\xc6\xad<'
p2409
tp2410
Rp2411
tp2412
a(g32
g6
(g18
S'#\xbe\x9e<'
p2413
tp2414
Rp2415
tp2416
asg73
g32
sa(dp2417
g2
S'../../../data/emanuela/activity-recognition/images/NTCIR-Lifelog-256/u2/2015-05-01/b00001773_21i7lf_20150501_090251e.jpg'
p2418
sg4
(lp2419
(g32
g6
(g18
S'4\xf6\xb0>'
p2420
tp2421
Rp2422
tp2423
a(g44
g6
(g18
S'dd,>'
p2424
tp2425
Rp2426
tp2427
a(g56
g6
(g18
S'\r@+>'
p2428
tp2429
Rp2430
tp2431
a(g15
g6
(g18
S'7\xee\x08>'
p2432
tp2433
Rp2434
tp2435
a(g68
g6
(g18
S'sP\x83='
p2436
tp2437
Rp2438
tp2439
asg73
g32
sa(dp2440
g2
S'../../../data/emanuela/activity-recognition/images/NTCIR-Lifelog-256/u2/2015-05-03/b00003907_21i7lf_20150503_160119e.jpg'
p2441
sg4
(lp2442
(g108
g6
(g18
S'3%\x87>'
p2443
tp2444
Rp2445
tp2446
a(g324
g6
(g18
S'<\xdd6>'
p2447
tp2448
Rp2449
tp2450
a(g96
g6
(g18
S'\xf0f\xf9='
p2451
tp2452
Rp2453
tp2454
a(g32
g6
(g18
S'\xa9\xc2\xdc='
p2455
tp2456
Rp2457
tp2458
a(g340
g6
(g18
S'\x004\xb0='
p2459
tp2460
Rp2461
tp2462
asg73
g32
sa(dp2463
g2
S'../../../data/emanuela/activity-recognition/images/NTCIR-Lifelog-256/u2/2015-04-23/b00001267_21i7lf_20150423_145027e.jpg'
p2464
sg4
(lp2465
(g32
g6
(g18
S'`_%?'
p2466
tp2467
Rp2468
tp2469
a(g15
g6
(g18
S'\x9b\x1e\x93>'
p2470
tp2471
Rp2472
tp2473
a(g108
g6
(g18
S'\x00=N='
p2474
tp2475
Rp2476
tp2477
a(g309
g6
(g18
S'\xd7\xde\t<'
p2478
tp2479
Rp2480
tp2481
a(g56
g6
(g18
S'\xd7e\x9c;'
p2482
tp2483
Rp2484
tp2485
asg73
g32
sa(dp2486
g2
S'../../../data/emanuela/activity-recognition/images/NTCIR-Lifelog-256/u2/2015-04-27/b00005806_21i7lf_20150427_174346e.jpg'
p2487
sg4
(lp2488
(g108
g6
(g18
S'\x1e\xc0;?'
p2489
tp2490
Rp2491
tp2492
a(g281
g6
(g18
S'\xd8>\x0c>'
p2493
tp2494
Rp2495
tp2496
a(g297
g6
(g18
S'\xbd~\xde<'
p2497
tp2498
Rp2499
tp2500
a(g417
g6
(g18
S'X\x1d\xab<'
p2501
tp2502
Rp2503
tp2504
a(g68
g6
(g18
S'\xf9\x15z<'
p2505
tp2506
Rp2507
tp2508
asg73
g32
sa(dp2509
g2
S'../../../data/emanuela/activity-recognition/images/NTCIR-Lifelog-256/u2/2015-04-26/b00004188_21i7lf_20150426_161059e.jpg'
p2510
sg4
(lp2511
(g324
g6
(g18
S'\xf8\xa7\xd3>'
p2512
tp2513
Rp2514
tp2515
a(g108
g6
(g18
S'\xfbkA>'
p2516
tp2517
Rp2518
tp2519
a(g56
g6
(g18
S'\xea3\x16>'
p2520
tp2521
Rp2522
tp2523
a(g340
g6
(g18
S'h\x17\xf5='
p2524
tp2525
Rp2526
tp2527
a(g68
g6
(g18
S'D\xa41='
p2528
tp2529
Rp2530
tp2531
asg73
g32
sa(dp2532
g2
S'../../../data/emanuela/activity-recognition/images/NTCIR-Lifelog-256/u2/2015-05-01/b00001798_21i7lf_20150501_091755e.jpg'
p2533
sg4
(lp2534
(g32
g6
(g18
S'\xebP\x11?'
p2535
tp2536
Rp2537
tp2538
a(g108
g6
(g18
S'J\x8f\x04>'
p2539
tp2540
Rp2541
tp2542
a(g56
g6
(g18
S'\x1b$\xfe='
p2543
tp2544
Rp2545
tp2546
a(g537
g6
(g18
S'\x15\xef`='
p2547
tp2548
Rp2549
tp2550
a(g15
g6
(g18
S'\x0fA@='
p2551
tp2552
Rp2553
tp2554
asg73
g32
sa(dp2555
g2
S'../../../data/emanuela/activity-recognition/images/NTCIR-Lifelog-256/u2/2015-05-03/b00003949_21i7lf_20150503_162810e.jpg'
p2556
sg4
(lp2557
(g108
g6
(g18
S'\x01\x1d\x05?'
p2558
tp2559
Rp2560
tp2561
a(g56
g6
(g18
S'\xd39\x82>'
p2562
tp2563
Rp2564
tp2565
a(g32
g6
(g18
S'|\xd1a>'
p2566
tp2567
Rp2568
tp2569
a(g15
g6
(g18
S'@\xc6/;'
p2570
tp2571
Rp2572
tp2573
a(g146
g6
(g18
S'`do:'
p2574
tp2575
Rp2576
tp2577
asg73
g32
sa(dp2578
g2
S'../../../data/emanuela/activity-recognition/images/NTCIR-Lifelog-256/u2/2015-05-06/b00007179_21i7lf_20150506_183229e.jpg'
p2579
sg4
(lp2580
(g15
g6
(g18
S'\xb3\xdf\x0e?'
p2581
tp2582
Rp2583
tp2584
a(g32
g6
(g18
S'\x17\x1eg>'
p2585
tp2586
Rp2587
tp2588
a(g44
g6
(g18
S'\xda-\x84='
p2589
tp2590
Rp2591
tp2592
a(g96
g6
(g18
S'*\x8c\t='
p2593
tp2594
Rp2595
tp2596
a(g68
g6
(g18
S'\xc9\x89\xdc<'
p2597
tp2598
Rp2599
tp2600
asg73
g32
sa(dp2601
g2
S'../../../data/emanuela/activity-recognition/images/NTCIR-Lifelog-256/u2/2015-04-27/b00005803_21i7lf_20150427_174201e.jpg'
p2602
sg4
(lp2603
(g108
g6
(g18
S'"\xf3@?'
p2604
tp2605
Rp2606
tp2607
a(g281
g6
(g18
S'\x08\x8a\xca='
p2608
tp2609
Rp2610
tp2611
a(g297
g6
(g18
S'\xc9\xba\xf2<'
p2612
tp2613
Rp2614
tp2615
a(g32
g6
(g18
S'\xae\xa3\xb3<'
p2616
tp2617
Rp2618
tp2619
a(g417
g6
(g18
S' \xaa\x90<'
p2620
tp2621
Rp2622
tp2623
asg73
g32
sa(dp2624
g2
S'../../../data/emanuela/activity-recognition/images/NTCIR-Lifelog-256/u2/2015-05-08/b00009563_21i7lf_20150508_190336e.jpg'
p2625
sg4
(lp2626
(g68
g6
(g18
S'\x0bV\x00?'
p2627
tp2628
Rp2629
tp2630
a(g32
g6
(g18
S'\x06l0>'
p2631
tp2632
Rp2633
tp2634
a(g108
g6
(g18
S'\x0fA\xc0='
p2635
tp2636
Rp2637
tp2638
a(g146
g6
(g18
S'%\x81\xbd='
p2639
tp2640
Rp2641
tp2642
a(g44
g6
(g18
S'\xb4\xb0\x11='
p2643
tp2644
Rp2645
tp2646
asg73
g32
sa(dp2647
g2
S'../../../data/emanuela/activity-recognition/images/NTCIR-Lifelog-256/u2/2015-05-08/b00009494_21i7lf_20150508_180132e.jpg'
p2648
sg4
(lp2649
(g32
g6
(g18
S'\x9d\xfd\x9b>'
p2650
tp2651
Rp2652
tp2653
a(g146
g6
(g18
S'w\x1bX>'
p2654
tp2655
Rp2656
tp2657
a(g15
g6
(g18
S'\xdc\x17/>'
p2658
tp2659
Rp2660
tp2661
a(g108
g6
(g18
S"\x15'\xb3="
p2662
tp2663
Rp2664
tp2665
a(g68
g6
(g18
S'\xcc\xa0\x9b='
p2666
tp2667
Rp2668
tp2669
asg73
g32
sa(dp2670
g2
S'../../../data/emanuela/activity-recognition/images/NTCIR-Lifelog-256/u2/2015-04-21/b00000863_21i7lf_20150421_185718e.jpg'
p2671
sg4
(lp2672
(g68
g6
(g18
S'r,\t?'
p2673
tp2674
Rp2675
tp2676
a(g32
g6
(g18
S'\xfb\xc7\x83>'
p2677
tp2678
Rp2679
tp2680
a(g108
g6
(g18
S'\xf4\xfe\r='
p2681
tp2682
Rp2683
tp2684
a(g44
g6
(g18
S'\xd4x\xf8<'
p2685
tp2686
Rp2687
tp2688
a(g146
g6
(g18
S"'\xfc\xe6<"
p2689
tp2690
Rp2691
tp2692
asg73
g32
sa(dp2693
g2
S'../../../data/emanuela/activity-recognition/images/NTCIR-Lifelog-256/u2/2015-04-21/b00000876_21i7lf_20150421_191801e.jpg'
p2694
sg4
(lp2695
(g32
g6
(g18
S'jy ?'
p2696
tp2697
Rp2698
tp2699
a(g15
g6
(g18
S'\xeb|j>'
p2700
tp2701
Rp2702
tp2703
a(g108
g6
(g18
S'\x0c\x88\x10='
p2704
tp2705
Rp2706
tp2707
a(g56
g6
(g18
S'\x96\xa8\xed<'
p2708
tp2709
Rp2710
tp2711
a(g68
g6
(g18
S'ai\xed<'
p2712
tp2713
Rp2714
tp2715
asg73
g32
sa(dp2716
g2
S'../../../data/emanuela/activity-recognition/images/NTCIR-Lifelog-256/u2/2015-05-08/b00009566_21i7lf_20150508_190519e.jpg'
p2717
sg4
(lp2718
(g32
g6
(g18
S'*\x02N?'
p2719
tp2720
Rp2721
tp2722
a(g146
g6
(g18
S'\xcc\xb58='
p2723
tp2724
Rp2725
tp2726
a(g68
g6
(g18
S'k\x896='
p2727
tp2728
Rp2729
tp2730
a(g44
g6
(g18
S'\xbe\x80\x02='
p2731
tp2732
Rp2733
tp2734
a(g56
g6
(g18
S'/I\xe3<'
p2735
tp2736
Rp2737
tp2738
asg73
g32
sa(dp2739
g2
S'../../../data/emanuela/activity-recognition/images/NTCIR-Lifelog-256/u2/2015-05-06/b00007186_21i7lf_20150506_183651e.jpg'
p2740
sg4
(lp2741
(g15
g6
(g18
S'\x0f\x17B?'
p2742
tp2743
Rp2744
tp2745
a(g44
g6
(g18
S'\xa6\xfd\xa9='
p2746
tp2747
Rp2748
tp2749
a(g56
g6
(g18
S'7\x9fl='
p2750
tp2751
Rp2752
tp2753
a(g32
g6
(g18
S'H\r\x17='
p2754
tp2755
Rp2756
tp2757
a(g96
g6
(g18
S'\x16\xe6\x9f<'
p2758
tp2759
Rp2760
tp2761
asg73
g32
sa(dp2762
g2
S'../../../data/emanuela/activity-recognition/images/NTCIR-Lifelog-256/u2/2015-05-08/b00009481_21i7lf_20150508_175138e.jpg'
p2763
sg4
(lp2764
(g32
g6
(g18
S'\x06\xae\\?'
p2765
tp2766
Rp2767
tp2768
a(g146
g6
(g18
S'\xa9|7='
p2769
tp2770
Rp2771
tp2772
a(g15
g6
(g18
S'\xcf\x11\x07='
p2773
tp2774
Rp2775
tp2776
a(g68
g6
(g18
S'\x94\xdb\x06='
p2777
tp2778
Rp2779
tp2780
a(g44
g6
(g18
S'=/X<'
p2781
tp2782
Rp2783
tp2784
asg73
g32
sa(dp2785
g2
S'../../../data/emanuela/activity-recognition/images/NTCIR-Lifelog-256/u2/2015-05-01/b00001778_21i7lf_20150501_090547e.jpg'
p2786
sg4
(lp2787
(g15
g6
(g18
S'\xfeI\xdc>'
p2788
tp2789
Rp2790
tp2791
a(g32
g6
(g18
S'\x93\x16\xa6>'
p2792
tp2793
Rp2794
tp2795
a(g56
g6
(g18
S'\x1f\x08g>'
p2796
tp2797
Rp2798
tp2799
a(g239
g6
(g18
S'5\xc2\xe4;'
p2800
tp2801
Rp2802
tp2803
a(g297
g6
(g18
S'\xd9"\x1a;'
p2804
tp2805
Rp2806
tp2807
asg73
g32
sa(dp2808
g2
S'../../../data/emanuela/activity-recognition/images/NTCIR-Lifelog-256/u2/2015-04-27/b00005785_21i7lf_20150427_173109e.jpg'
p2809
sg4
(lp2810
(g108
g6
(g18
S'\xe4\x8a,?'
p2811
tp2812
Rp2813
tp2814
a(g281
g6
(g18
S'g\xd4\xfb='
p2815
tp2816
Rp2817
tp2818
a(g417
g6
(g18
S'=Q\x86='
p2819
tp2820
Rp2821
tp2822
a(g297
g6
(g18
S'\xb4\xd1\t='
p2823
tp2824
Rp2825
tp2826
a(g32
g6
(g18
S'^\xa4\xe2<'
p2827
tp2828
Rp2829
tp2830
asg73
g32
sa(dp2831
g2
S'../../../data/emanuela/activity-recognition/images/NTCIR-Lifelog-256/u2/2015-04-25/b00003492_21i7lf_20150425_180121e.jpg'
p2832
sg4
(lp2833
(g108
g6
(g18
S'\x12g\xa8>'
p2834
tp2835
Rp2836
tp2837
a(g309
g6
(g18
S'\xf6\xfb?>'
p2838
tp2839
Rp2840
tp2841
a(g6
(g7
(S'S7'
p2842
I0
I1
tp2843
Rp2844
(I3
S'|'
p2845
NNNI7
I1
I0
tp2846
bS'resting'
p2847
tp2848
Rp2849
g6
(g18
S'\xe4\xb24>'
p2850
tp2851
Rp2852
tp2853
a(g15
g6
(g18
S'U1\x12>'
p2854
tp2855
Rp2856
tp2857
a(g239
g6
(g18
S'\xcf\xde\xc1='
p2858
tp2859
Rp2860
tp2861
asg73
g32
sa(dp2862
g2
S'../../../data/emanuela/activity-recognition/images/NTCIR-Lifelog-256/u2/2015-05-06/b00007103_21i7lf_20150506_174436e.jpg'
p2863
sg4
(lp2864
(g15
g6
(g18
S'\xe0F\xb1>'
p2865
tp2866
Rp2867
tp2868
a(g32
g6
(g18
S'o\x89z>'
p2869
tp2870
Rp2871
tp2872
a(g44
g6
(g18
S'\x92\x11\xdd='
p2873
tp2874
Rp2875
tp2876
a(g68
g6
(g18
S'Q\x82\x97='
p2877
tp2878
Rp2879
tp2880
a(g108
g6
(g18
S'\x1f\xf9\x83='
p2881
tp2882
Rp2883
tp2884
asg73
g32
sa(dp2885
g2
S'../../../data/emanuela/activity-recognition/images/NTCIR-Lifelog-256/u2/2015-04-27/b00005765_21i7lf_20150427_171840e.jpg'
p2886
sg4
(lp2887
(g108
g6
(g18
S'\x119\x9d>'
p2888
tp2889
Rp2890
tp2891
a(g32
g6
(g18
S'\xb7\xab\x90>'
p2892
tp2893
Rp2894
tp2895
a(g15
g6
(g18
S'\xdft\xbd='
p2896
tp2897
Rp2898
tp2899
a(g281
g6
(g18
S'\xb94Q='
p2900
tp2901
Rp2902
tp2903
a(g324
g6
(g18
S'\x93g*='
p2904
tp2905
Rp2906
tp2907
asg73
g32
sa(dp2908
g2
S'../../../data/emanuela/activity-recognition/images/NTCIR-Lifelog-256/u2/2015-04-27/b00005797_21i7lf_20150427_173823e.jpg'
p2909
sg4
(lp2910
(g108
g6
(g18
S'\xb3\xc9G?'
p2911
tp2912
Rp2913
tp2914
a(g281
g6
(g18
S'\x9c\xdb@='
p2915
tp2916
Rp2917
tp2918
a(g32
g6
(g18
S'\xbf\xa2\xe4<'
p2919
tp2920
Rp2921
tp2922
a(g297
g6
(g18
S'\xc2T\xe1<'
p2923
tp2924
Rp2925
tp2926
a(g417
g6
(g18
S'6\xba\xd9<'
p2927
tp2928
Rp2929
tp2930
asg73
g32
sa(dp2931
g2
S'../../../data/emanuela/activity-recognition/images/NTCIR-Lifelog-256/u2/2015-05-01/b00001793_21i7lf_20150501_091450e.jpg'
p2932
sg4
(lp2933
(g56
g6
(g18
S'\xd9$\xb3>'
p2934
tp2935
Rp2936
tp2937
a(g32
g6
(g18
S'\x9d\x1fp>'
p2938
tp2939
Rp2940
tp2941
a(g108
g6
(g18
S'Ps\x11>'
p2942
tp2943
Rp2944
tp2945
a(g239
g6
(g18
S'\xceM\x11>'
p2946
tp2947
Rp2948
tp2949
a(g15
g6
(g18
S')[\x8c='
p2950
tp2951
Rp2952
tp2953
asg73
g32
sa(dp2954
g2
S'../../../data/emanuela/activity-recognition/images/NTCIR-Lifelog-256/u2/2015-04-23/b00001237_21i7lf_20150423_143110e.jpg'
p2955
sg4
(lp2956
(g108
g6
(g18
S'G\xc6u?'
p2957
tp2958
Rp2959
tp2960
a(g32
g6
(g18
S'2\xca\xac<'
p2961
tp2962
Rp2963
tp2964
a(g56
g6
(g18
S't\xa5\t<'
p2965
tp2966
Rp2967
tp2968
a(g15
g6
(g18
S'g[s;'
p2969
tp2970
Rp2971
tp2972
a(g309
g6
(g18
S'\x83\x895;'
p2973
tp2974
Rp2975
tp2976
asg73
g32
sa(dp2977
g2
S'../../../data/emanuela/activity-recognition/images/NTCIR-Lifelog-256/u2/2015-04-27/b00005743_21i7lf_20150427_170516e.jpg'
p2978
sg4
(lp2979
(g108
g6
(g18
S'\xdc\x02N?'
p2980
tp2981
Rp2982
tp2983
a(g56
g6
(g18
S'\x0b\xc7\x0c>'
p2984
tp2985
Rp2986
tp2987
a(g32
g6
(g18
S'Y\x9a ='
p2988
tp2989
Rp2990
tp2991
a(g340
g6
(g18
S'\x1f}\xbe;'
p2992
tp2993
Rp2994
tp2995
a(g15
g6
(g18
S"'\xde\xaa;"
p2996
tp2997
Rp2998
tp2999
asg73
g32
sa(dp3000
g2
S'../../../data/emanuela/activity-recognition/images/NTCIR-Lifelog-256/u2/2015-05-08/b00009450_21i7lf_20150508_172414e.jpg'
p3001
sg4
(lp3002
(g146
g6
(g18
S'\x98\xd2\x95>'
p3003
tp3004
Rp3005
tp3006
a(g44
g6
(g18
S'\x81\xbf\x8d>'
p3007
tp3008
Rp3009
tp3010
a(g56
g6
(g18
S'Qwa>'
p3011
tp3012
Rp3013
tp3014
a(g15
g6
(g18
S'aK\xd3='
p3015
tp3016
Rp3017
tp3018
a(g108
g6
(g18
S'\x11_\x93='
p3019
tp3020
Rp3021
tp3022
asg73
g32
sa(dp3023
g2
S'../../../data/emanuela/activity-recognition/images/NTCIR-Lifelog-256/u2/2015-05-08/b00009487_21i7lf_20150508_175706e.jpg'
p3024
sg4
(lp3025
(g146
g6
(g18
S'R\xe9\xf8>'
p3026
tp3027
Rp3028
tp3029
a(g44
g6
(g18
S'\x17.?>'
p3030
tp3031
Rp3032
tp3033
a(g15
g6
(g18
S'\xe0\xa6\r>'
p3034
tp3035
Rp3036
tp3037
a(g417
g6
(g18
S'$\x9f7='
p3038
tp3039
Rp3040
tp3041
a(g68
g6
(g18
S'\xa4\x93\xec<'
p3042
tp3043
Rp3044
tp3045
asg73
g32
sa(dp3046
g2
S'../../../data/emanuela/activity-recognition/images/NTCIR-Lifelog-256/u2/2015-05-03/b00003940_21i7lf_20150503_162233e.jpg'
p3047
sg4
(lp3048
(g108
g6
(g18
S'8\x0ew?'
p3049
tp3050
Rp3051
tp3052
a(g56
g6
(g18
S'\x82\xee\x07='
p3053
tp3054
Rp3055
tp3056
a(g32
g6
(g18
S'\xbbY\xb7:'
p3057
tp3058
Rp3059
tp3060
a(g146
g6
(g18
S'\xa3\xae\xe78'
p3061
tp3062
Rp3063
tp3064
a(g433
g6
(g18
S'eO\x978'
p3065
tp3066
Rp3067
tp3068
asg73
g32
sa(dp3069
g2
S'../../../data/emanuela/activity-recognition/images/NTCIR-Lifelog-256/u2/2015-04-21/b00000878_21i7lf_20150421_191924e.jpg'
p3070
sg4
(lp3071
(g32
g6
(g18
S'\x8a\x9c\xa2>'
p3072
tp3073
Rp3074
tp3075
a(g68
g6
(g18
S'\xe5y\x88>'
p3076
tp3077
Rp3078
tp3079
a(g15
g6
(g18
S'\xed}f>'
p3080
tp3081
Rp3082
tp3083
a(g108
g6
(g18
S'!\xf9\x97='
p3084
tp3085
Rp3086
tp3087
a(g44
g6
(g18
S"\x14\x1f'="
p3088
tp3089
Rp3090
tp3091
asg73
g32
sa(dp3092
g2
S'../../../data/emanuela/activity-recognition/images/NTCIR-Lifelog-256/u2/2015-04-27/b00005795_21i7lf_20150427_173713e.jpg'
p3093
sg4
(lp3094
(g32
g6
(g18
S'\xf8l\x01?'
p3095
tp3096
Rp3097
tp3098
a(g108
g6
(g18
S'\xca\x8ap>'
p3099
tp3100
Rp3101
tp3102
a(g281
g6
(g18
S'\xe1\x15\xc7='
p3103
tp3104
Rp3105
tp3106
a(g56
g6
(g18
S'\x1d)\x17='
p3107
tp3108
Rp3109
tp3110
a(g15
g6
(g18
S'\x8d\xb4\r='
p3111
tp3112
Rp3113
tp3114
asg73
g32
sa(dp3115
g2
S'../../../data/emanuela/activity-recognition/images/NTCIR-Lifelog-256/u2/2015-05-08/b00009433_21i7lf_20150508_171346e.jpg'
p3116
sg4
(lp3117
(g32
g6
(g18
S'\xeb8\xf8>'
p3118
tp3119
Rp3120
tp3121
a(g56
g6
(g18
S'\xfd\xf6\xaf>'
p3122
tp3123
Rp3124
tp3125
a(g44
g6
(g18
S'\xf6\x15\xa6='
p3126
tp3127
Rp3128
tp3129
a(g108
g6
(g18
S'Z#\x91='
p3130
tp3131
Rp3132
tp3133
a(g15
g6
(g18
S'\x80_\xd5;'
p3134
tp3135
Rp3136
tp3137
asg73
g32
sa(dp3138
g2
S'../../../data/emanuela/activity-recognition/images/NTCIR-Lifelog-256/u2/2015-04-21/b00000861_21i7lf_20150421_185609e.jpg'
p3139
sg4
(lp3140
(g15
g6
(g18
S'/(\xe4>'
p3141
tp3142
Rp3143
tp3144
a(g32
g6
(g18
S'\x16\xa3\xae>'
p3145
tp3146
Rp3147
tp3148
a(g68
g6
(g18
S'|\xac\x96='
p3149
tp3150
Rp3151
tp3152
a(g108
g6
(g18
S'C\xb0x='
p3153
tp3154
Rp3155
tp3156
a(g96
g6
(g18
S'\xa6g\xf4<'
p3157
tp3158
Rp3159
tp3160
asg73
g32
sa(dp3161
g2
S'../../../data/emanuela/activity-recognition/images/NTCIR-Lifelog-256/u2/2015-04-26/b00004185_21i7lf_20150426_160920e.jpg'
p3162
sg4
(lp3163
(g324
g6
(g18
S'=)\xed>'
p3164
tp3165
Rp3166
tp3167
a(g108
g6
(g18
S'v\xb02>'
p3168
tp3169
Rp3170
tp3171
a(g340
g6
(g18
S'\xce\xda\xea='
p3172
tp3173
Rp3174
tp3175
a(g56
g6
(g18
S'\xb2\x8b\x86='
p3176
tp3177
Rp3178
tp3179
a(g68
g6
(g18
S'F\xban='
p3180
tp3181
Rp3182
tp3183
asg73
g32
sa(dp3184
g2
S'../../../data/emanuela/activity-recognition/images/NTCIR-Lifelog-256/u2/2015-04-23/b00001273_21i7lf_20150423_145413e.jpg'
p3185
sg4
(lp3186
(g108
g6
(g18
S'O\x82P?'
p3187
tp3188
Rp3189
tp3190
a(g32
g6
(g18
S'/\xa2\x01>'
p3191
tp3192
Rp3193
tp3194
a(g15
g6
(g18
S'X\x02\xf1<'
p3195
tp3196
Rp3197
tp3198
a(g56
g6
(g18
S'\xd6\xab\xd0<'
p3199
tp3200
Rp3201
tp3202
a(g324
g6
(g18
S'cc\xa0:'
p3203
tp3204
Rp3205
tp3206
asg73
g32
sa(dp3207
g2
S'../../../data/emanuela/activity-recognition/images/NTCIR-Lifelog-256/u2/2015-05-08/b00009458_21i7lf_20150508_173027e.jpg'
p3208
sg4
(lp3209
(g146
g6
(g18
S'[d!?'
p3210
tp3211
Rp3212
tp3213
a(g15
g6
(g18
S'u\xc0\x80>'
p3214
tp3215
Rp3216
tp3217
a(g108
g6
(g18
S"\xd4\x11'="
p3218
tp3219
Rp3220
tp3221
a(g433
g6
(g18
S'\xd5\r\xd5<'
p3222
tp3223
Rp3224
tp3225
a(g44
g6
(g18
S'\xdb\xafI<'
p3226
tp3227
Rp3228
tp3229
asg73
g32
sa(dp3230
g2
S'../../../data/emanuela/activity-recognition/images/NTCIR-Lifelog-256/u2/2015-05-03/b00003853_21i7lf_20150503_152757e.jpg'
p3231
sg4
(lp3232
(g32
g6
(g18
S'V\xa5\xa9>'
p3233
tp3234
Rp3235
tp3236
a(g56
g6
(g18
S'$}\x88>'
p3237
tp3238
Rp3239
tp3240
a(g68
g6
(g18
S'\xc33\xc2='
p3241
tp3242
Rp3243
tp3244
a(g324
g6
(g18
S'\xfe\xcbl='
p3245
tp3246
Rp3247
tp3248
a(g108
g6
(g18
S'\xac\x87b='
p3249
tp3250
Rp3251
tp3252
asg73
g32
sa(dp3253
g2
S'../../../data/emanuela/activity-recognition/images/NTCIR-Lifelog-256/u2/2015-04-27/b00005838_21i7lf_20150427_180226e.jpg'
p3254
sg4
(lp3255
(g108
g6
(g18
S'\x03\x933?'
p3256
tp3257
Rp3258
tp3259
a(g281
g6
(g18
S'\xa00\xe3='
p3260
tp3261
Rp3262
tp3263
a(g297
g6
(g18
S'l\xd8u='
p3264
tp3265
Rp3266
tp3267
a(g417
g6
(g18
S'\xdb\xab\xc4<'
p3268
tp3269
Rp3270
tp3271
a(g340
g6
(g18
S'\x95f\xba<'
p3272
tp3273
Rp3274
tp3275
asg73
g32
sa(dp3276
g2
S'../../../data/emanuela/activity-recognition/images/NTCIR-Lifelog-256/u2/2015-05-01/b00001786_21i7lf_20150501_091039e.jpg'
p3277
sg4
(lp3278
(g108
g6
(g18
S'\xab\xc4\xb1>'
p3279
tp3280
Rp3281
tp3282
a(g32
g6
(g18
S'\x814\x87>'
p3283
tp3284
Rp3285
tp3286
a(g56
g6
(g18
S'\xdc\x16A>'
p3287
tp3288
Rp3289
tp3290
a(g15
g6
(g18
S'\x1dW\xd3='
p3291
tp3292
Rp3293
tp3294
a(g281
g6
(g18
S'\xd4\xae;='
p3295
tp3296
Rp3297
tp3298
asg73
g32
sa(dp3299
g2
S'../../../data/emanuela/activity-recognition/images/NTCIR-Lifelog-256/u2/2015-05-03/b00003982_21i7lf_20150503_164917e.jpg'
p3300
sg4
(lp3301
(g56
g6
(g18
S'y\x06\xc4>'
p3302
tp3303
Rp3304
tp3305
a(g32
g6
(g18
S'\x1f\xfb\x9f>'
p3306
tp3307
Rp3308
tp3309
a(g108
g6
(g18
S'\xa1/\x8d>'
p3310
tp3311
Rp3312
tp3313
a(g15
g6
(g18
S'bO\xbb<'
p3314
tp3315
Rp3316
tp3317
a(g44
g6
(g18
S'\xe3\x9b\x95:'
p3318
tp3319
Rp3320
tp3321
asg73
g32
sa(dp3322
g2
S'../../../data/emanuela/activity-recognition/images/NTCIR-Lifelog-256/u2/2015-05-01/b00001830_21i7lf_20150501_093757e.jpg'
p3323
sg4
(lp3324
(g15
g6
(g18
S'Q\x8d\xca>'
p3325
tp3326
Rp3327
tp3328
a(g32
g6
(g18
S'\xa8J^>'
p3329
tp3330
Rp3331
tp3332
a(g239
g6
(g18
S'I\x90 >'
p3333
tp3334
Rp3335
tp3336
a(g281
g6
(g18
S'\xc3\xc3\xb0='
p3337
tp3338
Rp3339
tp3340
a(g56
g6
(g18
S'\x9d\xc2g='
p3341
tp3342
Rp3343
tp3344
asg73
g32
sa(dp3345
g2
S'../../../data/emanuela/activity-recognition/images/NTCIR-Lifelog-256/u2/2015-05-03/b00003953_21i7lf_20150503_163116e.jpg'
p3346
sg4
(lp3347
(g108
g6
(g18
S'@4\xe3>'
p3348
tp3349
Rp3350
tp3351
a(g56
g6
(g18
S'\xdc\xd4\xd2>'
p3352
tp3353
Rp3354
tp3355
a(g32
g6
(g18
S'\xee\xd1\xef='
p3356
tp3357
Rp3358
tp3359
a(g15
g6
(g18
S'\xee\x14K<'
p3360
tp3361
Rp3362
tp3363
a(g44
g6
(g18
S']-\xda;'
p3364
tp3365
Rp3366
tp3367
asg73
g32
sa(dp3368
g2
S'../../../data/emanuela/activity-recognition/images/NTCIR-Lifelog-256/u2/2015-04-23/b00001248_21i7lf_20150423_143808e.jpg'
p3369
sg4
(lp3370
(g108
g6
(g18
S'\xc3\xdf\xea>'
p3371
tp3372
Rp3373
tp3374
a(g32
g6
(g18
S'\xcb\x84\xba>'
p3375
tp3376
Rp3377
tp3378
a(g309
g6
(g18
S'\xf5\xa6\xf6='
p3379
tp3380
Rp3381
tp3382
a(g15
g6
(g18
S'\x17\x1e\x05='
p3383
tp3384
Rp3385
tp3386
a(g281
g6
(g18
S'$\\\x00<'
p3387
tp3388
Rp3389
tp3390
asg73
g32
sa(dp3391
g2
S'../../../data/emanuela/activity-recognition/images/NTCIR-Lifelog-256/u2/2015-05-08/b00009460_21i7lf_20150508_173236e.jpg'
p3392
sg4
(lp3393
(g56
g6
(g18
S'\xbc\x18\xa3>'
p3394
tp3395
Rp3396
tp3397
a(g108
g6
(g18
S'\xc0\x90w>'
p3398
tp3399
Rp3400
tp3401
a(g32
g6
(g18
S'\x01qN>'
p3402
tp3403
Rp3404
tp3405
a(g44
g6
(g18
S'\xe1\x052>'
p3406
tp3407
Rp3408
tp3409
a(g146
g6
(g18
S'\x80\t\xa7<'
p3410
tp3411
Rp3412
tp3413
asg73
g32
sa(dp3414
g2
S'../../../data/emanuela/activity-recognition/images/NTCIR-Lifelog-256/u2/2015-05-08/b00009425_21i7lf_20150508_170726e.jpg'
p3415
sg4
(lp3416
(g32
g6
(g18
S'\xfdp\x06?'
p3417
tp3418
Rp3419
tp3420
a(g108
g6
(g18
S'\n\xbc\x81>'
p3421
tp3422
Rp3423
tp3424
a(g15
g6
(g18
S'\x17\xd3}='
p3425
tp3426
Rp3427
tp3428
a(g56
g6
(g18
S'\xb9XQ='
p3429
tp3430
Rp3431
tp3432
a(g309
g6
(g18
S'\xbd.\x08='
p3433
tp3434
Rp3435
tp3436
asg73
g32
sa(dp3437
g2
S'../../../data/emanuela/activity-recognition/images/NTCIR-Lifelog-256/u2/2015-05-03/b00003984_21i7lf_20150503_165031e.jpg'
p3438
sg4
(lp3439
(g108
g6
(g18
S'\xb8\xc5_?'
p3440
tp3441
Rp3442
tp3443
a(g56
g6
(g18
S'9a\x9d='
p3444
tp3445
Rp3446
tp3447
a(g32
g6
(g18
S'$\\\xf5<'
p3448
tp3449
Rp3450
tp3451
a(g324
g6
(g18
S'w\xac\xd6;'
p3452
tp3453
Rp3454
tp3455
a(g15
g6
(g18
S'\x127\x9e;'
p3456
tp3457
Rp3458
tp3459
asg73
g32
sa(dp3460
g2
S'../../../data/emanuela/activity-recognition/images/NTCIR-Lifelog-256/u2/2015-05-01/b00001788_21i7lf_20150501_091151e.jpg'
p3461
sg4
(lp3462
(g56
g6
(g18
S'Q\xffA?'
p3463
tp3464
Rp3465
tp3466
a(g108
g6
(g18
S'\x00\xe1\xef='
p3467
tp3468
Rp3469
tp3470
a(g32
g6
(g18
S'\x10\x98\x92='
p3471
tp3472
Rp3473
tp3474
a(g15
g6
(g18
S'\xaf\xa6\x1a='
p3475
tp3476
Rp3477
tp3478
a(g44
g6
(g18
S'\xe5\xcd3;'
p3479
tp3480
Rp3481
tp3482
asg73
g32
sa(dp3483
g2
S'../../../data/emanuela/activity-recognition/images/NTCIR-Lifelog-256/u2/2015-04-27/b00005787_21i7lf_20150427_173217e.jpg'
p3484
sg4
(lp3485
(g108
g6
(g18
S'\xf9\xaaH?'
p3486
tp3487
Rp3488
tp3489
a(g281
g6
(g18
S'\xdd\x85\xa4='
p3490
tp3491
Rp3492
tp3493
a(g417
g6
(g18
S'\xc6\xab\xb7<'
p3494
tp3495
Rp3496
tp3497
a(g297
g6
(g18
S'Z\xc0\xaf<'
p3498
tp3499
Rp3500
tp3501
a(g32
g6
(g18
S'\xfe\x8f\xac<'
p3502
tp3503
Rp3504
tp3505
asg73
g32
sa(dp3506
g2
S'../../../data/emanuela/activity-recognition/images/NTCIR-Lifelog-256/u2/2015-05-08/b00009578_21i7lf_20150508_191048e.jpg'
p3507
sg4
(lp3508
(g15
g6
(g18
S'\xebOo?'
p3509
tp3510
Rp3511
tp3512
a(g146
g6
(g18
S'\xb5\xf9O='
p3513
tp3514
Rp3515
tp3516
a(g96
g6
(g18
S'\t#\x94;'
p3517
tp3518
Rp3519
tp3520
a(g44
g6
(g18
S'C}Q;'
p3521
tp3522
Rp3523
tp3524
a(g56
g6
(g18
S'\x99\xd1!;'
p3525
tp3526
Rp3527
tp3528
asg73
g32
sa(dp3529
g2
S'../../../data/emanuela/activity-recognition/images/NTCIR-Lifelog-256/u2/2015-04-27/b00005811_21i7lf_20150427_174631e.jpg'
p3530
sg4
(lp3531
(g108
g6
(g18
S'^f\xbf>'
p3532
tp3533
Rp3534
tp3535
a(g281
g6
(g18
S'n\x95\x9a>'
p3536
tp3537
Rp3538
tp3539
a(g417
g6
(g18
S'\xbbk\xb9='
p3540
tp3541
Rp3542
tp3543
a(g433
g6
(g18
S'w\x1aR='
p3544
tp3545
Rp3546
tp3547
a(g297
g6
(g18
S'\xde\x1d\x0f='
p3548
tp3549
Rp3550
tp3551
asg73
g32
sa(dp3552
g2
S'../../../data/emanuela/activity-recognition/images/NTCIR-Lifelog-256/u2/2015-04-27/b00005809_21i7lf_20150427_174527e.jpg'
p3553
sg4
(lp3554
(g108
g6
(g18
S'm\xe1\xec>'
p3555
tp3556
Rp3557
tp3558
a(g281
g6
(g18
S'\x1aD\x82>'
p3559
tp3560
Rp3561
tp3562
a(g417
g6
(g18
S'\x89\x06\x8b='
p3563
tp3564
Rp3565
tp3566
a(g433
g6
(g18
S'\xdb\x80;='
p3567
tp3568
Rp3569
tp3570
a(g297
g6
(g18
S'\xa5\xf5\x15='
p3571
tp3572
Rp3573
tp3574
asg73
g32
sa(dp3575
g2
S'../../../data/emanuela/activity-recognition/images/NTCIR-Lifelog-256/u2/2015-04-27/b00005796_21i7lf_20150427_173744e.jpg'
p3576
sg4
(lp3577
(g108
g6
(g18
S'\x18LM?'
p3578
tp3579
Rp3580
tp3581
a(g281
g6
(g18
S'\xe4\x04f='
p3582
tp3583
Rp3584
tp3585
a(g417
g6
(g18
S'_\x96\xb8<'
p3586
tp3587
Rp3588
tp3589
a(g297
g6
(g18
S'\xa4\x17\xaf<'
p3590
tp3591
Rp3592
tp3593
a(g32
g6
(g18
S'*^\x98<'
p3594
tp3595
Rp3596
tp3597
asg73
g32
sa(dp3598
g2
S'../../../data/emanuela/activity-recognition/images/NTCIR-Lifelog-256/u2/2015-05-08/b00009461_21i7lf_20150508_173359e.jpg'
p3599
sg4
(lp3600
(g32
g6
(g18
S'\xb7\x05L?'
p3601
tp3602
Rp3603
tp3604
a(g56
g6
(g18
S'\x9dJ\xe5='
p3605
tp3606
Rp3607
tp3608
a(g108
g6
(g18
S'z\x87\\='
p3609
tp3610
Rp3611
tp3612
a(g44
g6
(g18
S'\x0fr\xf3<'
p3613
tp3614
Rp3615
tp3616
a(g15
g6
(g18
S'\x90\x9a\xae;'
p3617
tp3618
Rp3619
tp3620
asg73
g32
sa(dp3621
g2
S'../../../data/emanuela/activity-recognition/images/NTCIR-Lifelog-256/u2/2015-05-03/b00003964_21i7lf_20150503_163805e.jpg'
p3622
sg4
(lp3623
(g108
g6
(g18
S'\xcd1`?'
p3624
tp3625
Rp3626
tp3627
a(g56
g6
(g18
S'\xff>\x9a='
p3628
tp3629
Rp3630
tp3631
a(g32
g6
(g18
S'\xd2n-='
p3632
tp3633
Rp3634
tp3635
a(g15
g6
(g18
S'E\xe7;;'
p3636
tp3637
Rp3638
tp3639
a(g44
g6
(g18
S'c\x96\x80:'
p3640
tp3641
Rp3642
tp3643
asg73
g32
sa(dp3644
g2
S'../../../data/emanuela/activity-recognition/images/NTCIR-Lifelog-256/u2/2015-04-27/b00005816_21i7lf_20150427_174922e.jpg'
p3645
sg4
(lp3646
(g108
g6
(g18
S'w\xbb\x06?'
p3647
tp3648
Rp3649
tp3650
a(g281
g6
(g18
S'\x8a\xefT>'
p3651
tp3652
Rp3653
tp3654
a(g417
g6
(g18
S'4\x85\x16>'
p3655
tp3656
Rp3657
tp3658
a(g297
g6
(g18
S'\x86^F='
p3659
tp3660
Rp3661
tp3662
a(g68
g6
(g18
S'H^a<'
p3663
tp3664
Rp3665
tp3666
asg73
g32
sa(dp3667
g2
S'../../../data/emanuela/activity-recognition/images/NTCIR-Lifelog-256/u2/2015-04-21/b00000889_21i7lf_20150421_192706e.jpg'
p3668
sg4
(lp3669
(g32
g6
(g18
S'\x85\xc0\x0c?'
p3670
tp3671
Rp3672
tp3673
a(g68
g6
(g18
S'\xb2#+>'
p3674
tp3675
Rp3676
tp3677
a(g44
g6
(g18
S'\xdd\xd3\x86='
p3678
tp3679
Rp3680
tp3681
a(g108
g6
(g18
S'\xdb\xaby='
p3682
tp3683
Rp3684
tp3685
a(g96
g6
(g18
S',pb='
p3686
tp3687
Rp3688
tp3689
asg73
g32
sa(dp3690
g2
S'../../../data/emanuela/activity-recognition/images/NTCIR-Lifelog-256/u2/2015-05-08/b00009429_21i7lf_20150508_171028e.jpg'
p3691
sg4
(lp3692
(g146
g6
(g18
S'u\xd3\x03?'
p3693
tp3694
Rp3695
tp3696
a(g56
g6
(g18
S'&\x05W>'
p3697
tp3698
Rp3699
tp3700
a(g44
g6
(g18
S'\xd4\xde%>'
p3701
tp3702
Rp3703
tp3704
a(g108
g6
(g18
S'%\xcfz='
p3705
tp3706
Rp3707
tp3708
a(g32
g6
(g18
S'\x01\xbc\xd1<'
p3709
tp3710
Rp3711
tp3712
asg73
g32
sa(dp3713
g2
S'../../../data/emanuela/activity-recognition/images/NTCIR-Lifelog-256/u2/2015-04-21/b00000892_21i7lf_20150421_193444e.jpg'
p3714
sg4
(lp3715
(g32
g6
(g18
S'\x83\x8d\r?'
p3716
tp3717
Rp3718
tp3719
a(g15
g6
(g18
S'\x0c\xacL>'
p3720
tp3721
Rp3722
tp3723
a(g68
g6
(g18
S'#\xb5\xa6='
p3724
tp3725
Rp3726
tp3727
a(g44
g6
(g18
S'\xd5\x80[='
p3728
tp3729
Rp3730
tp3731
a(g108
g6
(g18
S"\xf65'="
p3732
tp3733
Rp3734
tp3735
asg73
g32
sa(dp3736
g2
S'../../../data/emanuela/activity-recognition/images/NTCIR-Lifelog-256/u2/2015-04-27/b00005789_21i7lf_20150427_173335e.jpg'
p3737
sg4
(lp3738
(g108
g6
(g18
S'\x1b\xf3Z?'
p3739
tp3740
Rp3741
tp3742
a(g32
g6
(g18
S'wv\xdb<'
p3743
tp3744
Rp3745
tp3746
a(g297
g6
(g18
S'5\xd6\xbd<'
p3747
tp3748
Rp3749
tp3750
a(g44
g6
(g18
S'\x83\xae\x80<'
p3751
tp3752
Rp3753
tp3754
a(g340
g6
(g18
S')\xdc^<'
p3755
tp3756
Rp3757
tp3758
asg73
g32
sa(dp3759
g2
S'../../../data/emanuela/activity-recognition/images/NTCIR-Lifelog-256/u2/2015-04-23/b00001257_21i7lf_20150423_144403e.jpg'
p3760
sg4
(lp3761
(g32
g6
(g18
S'&\xbf\xe1>'
p3762
tp3763
Rp3764
tp3765
a(g108
g6
(g18
S'\x9e\t\xcb>'
p3766
tp3767
Rp3768
tp3769
a(g15
g6
(g18
S',\xb4\x9a='
p3770
tp3771
Rp3772
tp3773
a(g56
g6
(g18
S'\xbf\x90\x87='
p3774
tp3775
Rp3776
tp3777
a(g309
g6
(g18
S'\x91\xe5*<'
p3778
tp3779
Rp3780
tp3781
asg73
g32
sa(dp3782
g2
S'../../../data/emanuela/activity-recognition/images/NTCIR-Lifelog-256/u2/2015-05-08/b00009495_21i7lf_20150508_180248e.jpg'
p3783
sg4
(lp3784
(g32
g6
(g18
S'\xe2-\x18?'
p3785
tp3786
Rp3787
tp3788
a(g68
g6
(g18
S'V\xac\xad>'
p3789
tp3790
Rp3791
tp3792
a(g44
g6
(g18
S'/p\x05='
p3793
tp3794
Rp3795
tp3796
a(g108
g6
(g18
S':ii<'
p3797
tp3798
Rp3799
tp3800
a(g309
g6
(g18
S'\xf2\x1c\xba;'
p3801
tp3802
Rp3803
tp3804
asg73
g32
sa(dp3805
g2
S'../../../data/emanuela/activity-recognition/images/NTCIR-Lifelog-256/u2/2015-04-21/b00000864_21i7lf_20150421_190019e.jpg'
p3806
sg4
(lp3807
(g68
g6
(g18
S's\xb3`?'
p3808
tp3809
Rp3810
tp3811
a(g96
g6
(g18
S'\x0c\x93\xeb<'
p3812
tp3813
Rp3814
tp3815
a(g15
g6
(g18
S'\xd8\xcd\xd7<'
p3816
tp3817
Rp3818
tp3819
a(g44
g6
(g18
S'\x04\xe8\xc5<'
p3820
tp3821
Rp3822
tp3823
a(g32
g6
(g18
S'\xe6\xfc\xbc<'
p3824
tp3825
Rp3826
tp3827
asg73
g32
sa(dp3828
g2
S'../../../data/emanuela/activity-recognition/images/NTCIR-Lifelog-256/u2/2015-05-01/b00001783_21i7lf_20150501_090850e.jpg'
p3829
sg4
(lp3830
(g56
g6
(g18
S'\xc52\xa6>'
p3831
tp3832
Rp3833
tp3834
a(g32
g6
(g18
S'(\x7f\x95>'
p3835
tp3836
Rp3837
tp3838
a(g15
g6
(g18
S'\xd3^\x81>'
p3839
tp3840
Rp3841
tp3842
a(g108
g6
(g18
S'\xbdq\xbd='
p3843
tp3844
Rp3845
tp3846
a(g324
g6
(g18
S'\x16y\x14<'
p3847
tp3848
Rp3849
tp3850
asg73
g32
sa(dp3851
g2
S'../../../data/emanuela/activity-recognition/images/NTCIR-Lifelog-256/u2/2015-04-21/b00000868_21i7lf_20150421_190816e.jpg'
p3852
sg4
(lp3853
(g32
g6
(g18
S'\xeaK\n?'
p3854
tp3855
Rp3856
tp3857
a(g108
g6
(g18
S'\xbcO\xa1>'
p3858
tp3859
Rp3860
tp3861
a(g15
g6
(g18
S'\xc4r)='
p3862
tp3863
Rp3864
tp3865
a(g56
g6
(g18
S"\xa6\xfe'="
p3866
tp3867
Rp3868
tp3869
a(g146
g6
(g18
S'\xd8@\x06='
p3870
tp3871
Rp3872
tp3873
asg73
g32
sa(dp3874
g2
S'../../../data/emanuela/activity-recognition/images/NTCIR-Lifelog-256/u2/2015-04-27/b00005760_21i7lf_20150427_171545e.jpg'
p3875
sg4
(lp3876
(g32
g6
(g18
S'\xc2f\x92>'
p3877
tp3878
Rp3879
tp3880
a(g108
g6
(g18
S'\xfa[\x82>'
p3881
tp3882
Rp3883
tp3884
a(g15
g6
(g18
S'\xaeM\xff='
p3885
tp3886
Rp3887
tp3888
a(g324
g6
(g18
S'\x9ce\xab='
p3889
tp3890
Rp3891
tp3892
a(g309
g6
(g18
S'x\xa6+='
p3893
tp3894
Rp3895
tp3896
asg73
g32
sa(dp3897
g2
S'../../../data/emanuela/activity-recognition/images/NTCIR-Lifelog-256/u2/2015-04-23/b00001262_21i7lf_20150423_144718e.jpg'
p3898
sg4
(lp3899
(g32
g6
(g18
S'\r\xe9N?'
p3900
tp3901
Rp3902
tp3903
a(g15
g6
(g18
S'\xfdG/>'
p3904
tp3905
Rp3906
tp3907
a(g96
g6
(g18
S'J\x84\xde;'
p3908
tp3909
Rp3910
tp3911
a(g108
g6
(g18
S'&\xe3\x90;'
p3912
tp3913
Rp3914
tp3915
a(g281
g6
(g18
S'\xea_d;'
p3916
tp3917
Rp3918
tp3919
asg73
g32
sa(dp3920
g2
S'../../../data/emanuela/activity-recognition/images/NTCIR-Lifelog-256/u2/2015-05-08/b00009549_21i7lf_20150508_184928e.jpg'
p3921
sg4
(lp3922
(g32
g6
(g18
S'"v\x13?'
p3923
tp3924
Rp3925
tp3926
a(g15
g6
(g18
S'R/\xfc='
p3927
tp3928
Rp3929
tp3930
a(g56
g6
(g18
S'\xbdr\x96='
p3931
tp3932
Rp3933
tp3934
a(g146
g6
(g18
S'\xc67z='
p3935
tp3936
Rp3937
tp3938
a(g44
g6
(g18
S'\xdf3n='
p3939
tp3940
Rp3941
tp3942
asg73
g32
sa(dp3943
g2
S'../../../data/emanuela/activity-recognition/images/NTCIR-Lifelog-256/u2/2015-04-21/b00000893_21i7lf_20150421_193516e.jpg'
p3944
sg4
(lp3945
(g32
g6
(g18
S'\x86:\xcc>'
p3946
tp3947
Rp3948
tp3949
a(g68
g6
(g18
S'x\x84\xa9>'
p3950
tp3951
Rp3952
tp3953
a(g108
g6
(g18
S'TO~='
p3954
tp3955
Rp3956
tp3957
a(g44
g6
(g18
S'\x9f\xc8t='
p3958
tp3959
Rp3960
tp3961
a(g96
g6
(g18
S'-\xf59='
p3962
tp3963
Rp3964
tp3965
asg73
g32
sa(dp3966
g2
S'../../../data/emanuela/activity-recognition/images/NTCIR-Lifelog-256/u2/2015-05-03/b00003951_21i7lf_20150503_162923e.jpg'
p3967
sg4
(lp3968
(g32
g6
(g18
S'\xce"\x19?'
p3969
tp3970
Rp3971
tp3972
a(g56
g6
(g18
S'\xe0\xce\xb7>'
p3973
tp3974
Rp3975
tp3976
a(g108
g6
(g18
S'\t\x14\xbe<'
p3977
tp3978
Rp3979
tp3980
a(g15
g6
(g18
S'\xd1\xbc\x1c<'
p3981
tp3982
Rp3983
tp3984
a(g146
g6
(g18
S'm\xef\xff;'
p3985
tp3986
Rp3987
tp3988
asg73
g32
sa(dp3989
g2
S'../../../data/emanuela/activity-recognition/images/NTCIR-Lifelog-256/u2/2015-05-01/b00001795_21i7lf_20150501_091602e.jpg'
p3990
sg4
(lp3991
(g32
g6
(g18
S'P\x9a\xc7>'
p3992
tp3993
Rp3994
tp3995
a(g108
g6
(g18
S'\x91\xc2b>'
p3996
tp3997
Rp3998
tp3999
a(g56
g6
(g18
S'\x7fH\x01>'
p4000
tp4001
Rp4002
tp4003
a(g281
g6
(g18
S'\xd0~\xce='
p4004
tp4005
Rp4006
tp4007
a(g15
g6
(g18
S'\x8a\xb1\x92='
p4008
tp4009
Rp4010
tp4011
asg73
g32
sa(dp4012
g2
S'../../../data/emanuela/activity-recognition/images/NTCIR-Lifelog-256/u2/2015-04-23/b00001269_21i7lf_20150423_145141e.jpg'
p4013
sg4
(lp4014
(g32
g6
(g18
S'jI\xdb>'
p4015
tp4016
Rp4017
tp4018
a(g15
g6
(g18
S'\x8d5\xc5>'
p4019
tp4020
Rp4021
tp4022
a(g239
g6
(g18
S')\x94\xaa='
p4023
tp4024
Rp4025
tp4026
a(g56
g6
(g18
S'\xccWj='
p4027
tp4028
Rp4029
tp4030
a(g108
g6
(g18
S'\x1b\x92\x9a<'
p4031
tp4032
Rp4033
tp4034
asg73
g32
sa(dp4035
g2
S'../../../data/emanuela/activity-recognition/images/NTCIR-Lifelog-256/u2/2015-05-03/b00003902_21i7lf_20150503_155812e.jpg'
p4036
sg4
(lp4037
(g32
g6
(g18
S'\xfb7\xcd>'
p4038
tp4039
Rp4040
tp4041
a(g56
g6
(g18
S'\x17\x08>>'
p4042
tp4043
Rp4044
tp4045
a(g108
g6
(g18
S'\xe2\xb3\x10>'
p4046
tp4047
Rp4048
tp4049
a(g324
g6
(g18
S'\xf6\x0b\x0e>'
p4050
tp4051
Rp4052
tp4053
a(g68
g6
(g18
S')\x9f\x1b='
p4054
tp4055
Rp4056
tp4057
asg73
g32
sa(dp4058
g2
S'../../../data/emanuela/activity-recognition/images/NTCIR-Lifelog-256/u2/2015-04-27/b00005804_21i7lf_20150427_174232e.jpg'
p4059
sg4
(lp4060
(g108
g6
(g18
S'\xc9\xd6S?'
p4061
tp4062
Rp4063
tp4064
a(g281
g6
(g18
S'\x04\xf4t='
p4065
tp4066
Rp4067
tp4068
a(g417
g6
(g18
S'\x1cC\xfe<'
p4069
tp4070
Rp4071
tp4072
a(g297
g6
(g18
S'\x81"\x9b<'
p4073
tp4074
Rp4075
tp4076
a(g309
g6
(g18
S'n\xd64<'
p4077
tp4078
Rp4079
tp4080
asg73
g32
sa(dp4081
g2
S'../../../data/emanuela/activity-recognition/images/NTCIR-Lifelog-256/u2/2015-04-27/b00005834_21i7lf_20150427_180004e.jpg'
p4082
sg4
(lp4083
(g108
g6
(g18
S'\x0f\xfee?'
p4084
tp4085
Rp4086
tp4087
a(g281
g6
(g18
S'Q\xf6\xb6<'
p4088
tp4089
Rp4090
tp4091
a(g417
g6
(g18
S'\x01\xbb\xa0<'
p4092
tp4093
Rp4094
tp4095
a(g32
g6
(g18
S'\xc5\xe8\x17<'
p4096
tp4097
Rp4098
tp4099
a(g68
g6
(g18
S'm\xa2\xe8;'
p4100
tp4101
Rp4102
tp4103
asg73
g32
sa(dp4104
g2
S'../../../data/emanuela/activity-recognition/images/NTCIR-Lifelog-256/u2/2015-05-08/b00009454_21i7lf_20150508_172733e.jpg'
p4105
sg4
(lp4106
(g15
g6
(g18
S'W?\xe8>'
p4107
tp4108
Rp4109
tp4110
a(g146
g6
(g18
S'y\x83\xb6>'
p4111
tp4112
Rp4113
tp4114
a(g56
g6
(g18
S'M\xe8x='
p4115
tp4116
Rp4117
tp4118
a(g44
g6
(g18
S'F\xd6\x0e='
p4119
tp4120
Rp4121
tp4122
a(g32
g6
(g18
S'\x99\x13\x0c='
p4123
tp4124
Rp4125
tp4126
asg73
g32
sa(dp4127
g2
S'../../../data/emanuela/activity-recognition/images/NTCIR-Lifelog-256/u2/2015-05-08/b00009453_21i7lf_20150508_172636e.jpg'
p4128
sg4
(lp4129
(g15
g6
(g18
S'\xbeZ\xe9>'
p4130
tp4131
Rp4132
tp4133
a(g146
g6
(g18
S'\xbdo\xcc>'
p4134
tp4135
Rp4136
tp4137
a(g56
g6
(g18
S'5m+='
p4138
tp4139
Rp4140
tp4141
a(g32
g6
(g18
S'\xd9\xb5\xd7<'
p4142
tp4143
Rp4144
tp4145
a(g44
g6
(g18
S'w\x8b\xc6<'
p4146
tp4147
Rp4148
tp4149
asg73
g32
sa(dp4150
g2
S'../../../data/emanuela/activity-recognition/images/NTCIR-Lifelog-256/u2/2015-04-27/b00005757_21i7lf_20150427_171356e.jpg'
p4151
sg4
(lp4152
(g108
g6
(g18
S'\x00\x1cN?'
p4153
tp4154
Rp4155
tp4156
a(g56
g6
(g18
S'#\x83\xc5='
p4157
tp4158
Rp4159
tp4160
a(g32
g6
(g18
S'\xf1\xe6\xa1='
p4161
tp4162
Rp4163
tp4164
a(g15
g6
(g18
S'\xcdm\xee;'
p4165
tp4166
Rp4167
tp4168
a(g309
g6
(g18
S'\xde\x81;;'
p4169
tp4170
Rp4171
tp4172
asg73
g32
sa(dp4173
g2
S'../../../data/emanuela/activity-recognition/images/NTCIR-Lifelog-256/u2/2015-05-03/b00003959_21i7lf_20150503_163500e.jpg'
p4174
sg4
(lp4175
(g108
g6
(g18
S'\xd1>\x02?'
p4176
tp4177
Rp4178
tp4179
a(g56
g6
(g18
S'e\xe7\x9d>'
p4180
tp4181
Rp4182
tp4183
a(g32
g6
(g18
S'\x7f\xfd6>'
p4184
tp4185
Rp4186
tp4187
a(g15
g6
(g18
S'\xe8\xf6G;'
p4188
tp4189
Rp4190
tp4191
a(g324
g6
(g18
S'\x82k\xc29'
p4192
tp4193
Rp4194
tp4195
asg73
g32
sa(dp4196
g2
S'../../../data/emanuela/activity-recognition/images/NTCIR-Lifelog-256/u2/2015-04-23/b00001256_21i7lf_20150423_144320e.jpg'
p4197
sg4
(lp4198
(g15
g6
(g18
S'D\x17[?'
p4199
tp4200
Rp4201
tp4202
a(g32
g6
(g18
S'\xaco\x8f='
p4203
tp4204
Rp4205
tp4206
a(g96
g6
(g18
S'mc6='
p4207
tp4208
Rp4209
tp4210
a(g239
g6
(g18
S'\xfa\x0e\x05<'
p4211
tp4212
Rp4213
tp4214
a(g108
g6
(g18
S'\x90;\xb5;'
p4215
tp4216
Rp4217
tp4218
asg73
g32
sa(dp4219
g2
S'../../../data/emanuela/activity-recognition/images/NTCIR-Lifelog-256/u2/2015-05-03/b00003956_21i7lf_20150503_163308e.jpg'
p4220
sg4
(lp4221
(g32
g6
(g18
S'\xd7\xa4(?'
p4222
tp4223
Rp4224
tp4225
a(g108
g6
(g18
S'\x82"\xfd='
p4226
tp4227
Rp4228
tp4229
a(g56
g6
(g18
S'\x8e\x06\xcf='
p4230
tp4231
Rp4232
tp4233
a(g15
g6
(g18
S'_\x9a\xb7='
p4234
tp4235
Rp4236
tp4237
a(g239
g6
(g18
S'\xbc\xcf\x8e;'
p4238
tp4239
Rp4240
tp4241
asg73
g32
sa(dp4242
g2
S'../../../data/emanuela/activity-recognition/images/NTCIR-Lifelog-256/u2/2015-05-08/b00009475_21i7lf_20150508_174604e.jpg'
p4243
sg4
(lp4244
(g15
g6
(g18
S'\x91A\x15?'
p4245
tp4246
Rp4247
tp4248
a(g146
g6
(g18
S'U!\xc5>'
p4249
tp4250
Rp4251
tp4252
a(g108
g6
(g18
S'\x8d\xd5&<'
p4253
tp4254
Rp4255
tp4256
a(g32
g6
(g18
S'\xd79\x1d<'
p4257
tp4258
Rp4259
tp4260
a(g68
g6
(g18
S'\xd1\xf3B;'
p4261
tp4262
Rp4263
tp4264
asg73
g32
sa(dp4265
g2
S'../../../data/emanuela/activity-recognition/images/NTCIR-Lifelog-256/u2/2015-05-03/b00003906_21i7lf_20150503_160044e.jpg'
p4266
sg4
(lp4267
(g324
g6
(g18
S'\xe9_\x17?'
p4268
tp4269
Rp4270
tp4271
a(g68
g6
(g18
S'\\\x88\xb8='
p4272
tp4273
Rp4274
tp4275
a(g340
g6
(g18
S'\x07\x85\x84='
p4276
tp4277
Rp4278
tp4279
a(g96
g6
(g18
S'N]^='
p4280
tp4281
Rp4282
tp4283
a(g44
g6
(g18
S'\x15\x7fP='
p4284
tp4285
Rp4286
tp4287
asg73
g32
sa(dp4288
g2
S'../../../data/emanuela/activity-recognition/images/NTCIR-Lifelog-256/u2/2015-05-03/b00003969_21i7lf_20150503_164116e.jpg'
p4289
sg4
(lp4290
(g108
g6
(g18
S'\x15\x80I?'
p4291
tp4292
Rp4293
tp4294
a(g56
g6
(g18
S'\x1c&\x1f>'
p4295
tp4296
Rp4297
tp4298
a(g32
g6
(g18
S' (\x17='
p4299
tp4300
Rp4301
tp4302
a(g15
g6
(g18
S'\x05HN<'
p4303
tp4304
Rp4305
tp4306
a(g146
g6
(g18
S'\x81\x0bX;'
p4307
tp4308
Rp4309
tp4310
asg73
g32
sa(dp4311
g2
S'../../../data/emanuela/activity-recognition/images/NTCIR-Lifelog-256/u2/2015-04-27/b00005762_21i7lf_20150427_171653e.jpg'
p4312
sg4
(lp4313
(g108
g6
(g18
S'\xab\xdd\xa3>'
p4314
tp4315
Rp4316
tp4317
a(g32
g6
(g18
S'x\xb9\x8a>'
p4318
tp4319
Rp4320
tp4321
a(g15
g6
(g18
S'\xb8\xe6\xed='
p4322
tp4323
Rp4324
tp4325
a(g56
g6
(g18
S'j\xe2c='
p4326
tp4327
Rp4328
tp4329
a(g324
g6
(g18
S'\xe8\xdbC='
p4330
tp4331
Rp4332
tp4333
asg73
g32
sa(dp4334
g2
S'../../../data/emanuela/activity-recognition/images/NTCIR-Lifelog-256/u2/2015-05-03/b00003978_21i7lf_20150503_164651e.jpg'
p4335
sg4
(lp4336
(g108
g6
(g18
S'a/V?'
p4337
tp4338
Rp4339
tp4340
a(g32
g6
(g18
S'\x18C\x99='
p4341
tp4342
Rp4343
tp4344
a(g56
g6
(g18
S'\x86:\x99='
p4345
tp4346
Rp4347
tp4348
a(g324
g6
(g18
S'N\xfc\xbf;'
p4349
tp4350
Rp4351
tp4352
a(g15
g6
(g18
S'\xd9\xc0\xbc;'
p4353
tp4354
Rp4355
tp4356
asg73
g32
sa(dp4357
g2
S'../../../data/emanuela/activity-recognition/images/NTCIR-Lifelog-256/u2/2015-05-01/b00001785_21i7lf_20150501_091004e.jpg'
p4358
sg4
(lp4359
(g56
g6
(g18
S'|\xec\xd1>'
p4360
tp4361
Rp4362
tp4363
a(g32
g6
(g18
S'q\xb7\xcd>'
p4364
tp4365
Rp4366
tp4367
a(g108
g6
(g18
S'\x1eu\xa5='
p4368
tp4369
Rp4370
tp4371
a(g15
g6
(g18
S'\x93\x8aq='
p4372
tp4373
Rp4374
tp4375
a(g537
g6
(g18
S',\xc9\x88<'
p4376
tp4377
Rp4378
tp4379
asg73
g32
sa(dp4380
g2
S'../../../data/emanuela/activity-recognition/images/NTCIR-Lifelog-256/u2/2015-05-03/b00003943_21i7lf_20150503_162427e.jpg'
p4381
sg4
(lp4382
(g32
g6
(g18
S'i\x97\xb8>'
p4383
tp4384
Rp4385
tp4386
a(g56
g6
(g18
S'\xf4\\\xa4>'
p4387
tp4388
Rp4389
tp4390
a(g108
g6
(g18
S'Cg\x9d>'
p4391
tp4392
Rp4393
tp4394
a(g15
g6
(g18
S'\x14\x8e\xcf;'
p4395
tp4396
Rp4397
tp4398
a(g44
g6
(g18
S'\x18b\xed:'
p4399
tp4400
Rp4401
tp4402
asg73
g32
sa(dp4403
g2
S'../../../data/emanuela/activity-recognition/images/NTCIR-Lifelog-256/u2/2015-05-08/b00009582_21i7lf_20150508_191051e.jpg'
p4404
sg4
(lp4405
(g15
g6
(g18
S'/\xf5C?'
p4406
tp4407
Rp4408
tp4409
a(g146
g6
(g18
S'\xdb\xff\x01>'
p4410
tp4411
Rp4412
tp4413
a(g56
g6
(g18
S"\xf14'="
p4414
tp4415
Rp4416
tp4417
a(g32
g6
(g18
S'\xe9\xba\xd0<'
p4418
tp4419
Rp4420
tp4421
a(g44
g6
(g18
S"'\xcf\xa5<"
p4422
tp4423
Rp4424
tp4425
asg73
g32
sa(dp4426
g2
S'../../../data/emanuela/activity-recognition/images/NTCIR-Lifelog-256/u2/2015-04-21/b00000871_21i7lf_20150421_191240e.jpg'
p4427
sg4
(lp4428
(g32
g6
(g18
S'\xf7\xa9\x15?'
p4429
tp4430
Rp4431
tp4432
a(g108
g6
(g18
S'\x1f0,>'
p4433
tp4434
Rp4435
tp4436
a(g15
g6
(g18
S'\xf6Y\x97='
p4437
tp4438
Rp4439
tp4440
a(g44
g6
(g18
S'\x0bq\x90='
p4441
tp4442
Rp4443
tp4444
a(g68
g6
(g18
S'c.E='
p4445
tp4446
Rp4447
tp4448
asg73
g32
sa(dp4449
g2
S'../../../data/emanuela/activity-recognition/images/NTCIR-Lifelog-256/u2/2015-04-23/b00001245_21i7lf_20150423_143612e.jpg'
p4450
sg4
(lp4451
(g32
g6
(g18
S'\xf2^*?'
p4452
tp4453
Rp4454
tp4455
a(g15
g6
(g18
S'-\xe3+>'
p4456
tp4457
Rp4458
tp4459
a(g108
g6
(g18
S'\xa0\x1a\x0e>'
p4460
tp4461
Rp4462
tp4463
a(g56
g6
(g18
S'j7\xad<'
p4464
tp4465
Rp4466
tp4467
a(g96
g6
(g18
S'h\x915;'
p4468
tp4469
Rp4470
tp4471
asg73
g32
sa(dp4472
g2
S'../../../data/emanuela/activity-recognition/images/NTCIR-Lifelog-256/u2/2015-05-03/b00003958_21i7lf_20150503_163426e.jpg'
p4473
sg4
(lp4474
(g108
g6
(g18
S'\x1b\x01A?'
p4475
tp4476
Rp4477
tp4478
a(g56
g6
(g18
S'\xa4a\x08>'
p4479
tp4480
Rp4481
tp4482
a(g32
g6
(g18
S'/\x1b\xc8='
p4483
tp4484
Rp4485
tp4486
a(g15
g6
(g18
S'\x95\xc7\xbd;'
p4487
tp4488
Rp4489
tp4490
a(g324
g6
(g18
S'\x99\x87\xaf;'
p4491
tp4492
Rp4493
tp4494
asg73
g32
sa(dp4495
g2
S'../../../data/emanuela/activity-recognition/images/NTCIR-Lifelog-256/u2/2015-05-06/b00007157_21i7lf_20150506_181828e.jpg'
p4496
sg4
(lp4497
(g32
g6
(g18
S'[\x81\x0c?'
p4498
tp4499
Rp4500
tp4501
a(g108
g6
(g18
S'C\x93\x8b>'
p4502
tp4503
Rp4504
tp4505
a(g56
g6
(g18
S'\xe9\x86\xfa='
p4506
tp4507
Rp4508
tp4509
a(g15
g6
(g18
S'\x84\xc5\x9b<'
p4510
tp4511
Rp4512
tp4513
a(g44
g6
(g18
S'\x89\xab\x81<'
p4514
tp4515
Rp4516
tp4517
asg73
g32
sa(dp4518
g2
S'../../../data/emanuela/activity-recognition/images/NTCIR-Lifelog-256/u2/2015-05-03/b00003944_21i7lf_20150503_162506e.jpg'
p4519
sg4
(lp4520
(g108
g6
(g18
S'\xea\xf4\x05?'
p4521
tp4522
Rp4523
tp4524
a(g56
g6
(g18
S'X\xb2z>'
p4525
tp4526
Rp4527
tp4528
a(g32
g6
(g18
S'=\x98`>'
p4529
tp4530
Rp4531
tp4532
a(g15
g6
(g18
S'\x0e\x035<'
p4533
tp4534
Rp4535
tp4536
a(g324
g6
(g18
S'F\x93\xe99'
p4537
tp4538
Rp4539
tp4540
asg73
g32
sa(dp4541
g2
S'../../../data/emanuela/activity-recognition/images/NTCIR-Lifelog-256/u2/2015-05-03/b00003967_21i7lf_20150503_164005e.jpg'
p4542
sg4
(lp4543
(g32
g6
(g18
S',\xc5\xfd>'
p4544
tp4545
Rp4546
tp4547
a(g108
g6
(g18
S'\xc56\xa8>'
p4548
tp4549
Rp4550
tp4551
a(g56
g6
(g18
S'T\x05\x17>'
p4552
tp4553
Rp4554
tp4555
a(g15
g6
(g18
S'\x1f\x02\x8d<'
p4556
tp4557
Rp4558
tp4559
a(g44
g6
(g18
S'\xe3\xae:;'
p4560
tp4561
Rp4562
tp4563
asg73
g32
sa(dp4564
g2
S'../../../data/emanuela/activity-recognition/images/NTCIR-Lifelog-256/u2/2015-05-03/b00003904_21i7lf_20150503_155928e.jpg'
p4565
sg4
(lp4566
(g324
g6
(g18
S'r\x83\x07?'
p4567
tp4568
Rp4569
tp4570
a(g108
g6
(g18
S'V.M>'
p4571
tp4572
Rp4573
tp4574
a(g32
g6
(g18
S'\xaeb\x8a='
p4575
tp4576
Rp4577
tp4578
a(g340
g6
(g18
S'\x9bYy='
p4579
tp4580
Rp4581
tp4582
a(g96
g6
(g18
S'\xe9\xbbk='
p4583
tp4584
Rp4585
tp4586
asg73
g32
sa(dp4587
g2
S'../../../data/emanuela/activity-recognition/images/NTCIR-Lifelog-256/u2/2015-05-01/b00001779_21i7lf_20150501_090620e.jpg'
p4588
sg4
(lp4589
(g56
g6
(g18
S'\xe409?'
p4590
tp4591
Rp4592
tp4593
a(g32
g6
(g18
S'3~\x0b>'
p4594
tp4595
Rp4596
tp4597
a(g108
g6
(g18
S'\x92B\xa3='
p4598
tp4599
Rp4600
tp4601
a(g15
g6
(g18
S'\x05\x94%='
p4602
tp4603
Rp4604
tp4605
a(g239
g6
(g18
S'\x00!\xab;'
p4606
tp4607
Rp4608
tp4609
asg73
g32
sa(dp4610
g2
S'../../../data/emanuela/activity-recognition/images/NTCIR-Lifelog-256/u2/2015-05-08/b00009556_21i7lf_20150508_185834e.jpg'
p4611
sg4
(lp4612
(g32
g6
(g18
S'\x90n2?'
p4613
tp4614
Rp4615
tp4616
a(g68
g6
(g18
S'U\xa8P>'
p4617
tp4618
Rp4619
tp4620
a(g96
g6
(g18
S'\x95xs='
p4621
tp4622
Rp4623
tp4624
a(g44
g6
(g18
S'uX\x9d<'
p4625
tp4626
Rp4627
tp4628
a(g146
g6
(g18
S'-\x16\x98;'
p4629
tp4630
Rp4631
tp4632
asg73
g32
sa(dp4633
g2
S'../../../data/emanuela/activity-recognition/images/NTCIR-Lifelog-256/u2/2015-05-03/b00003939_21i7lf_20150503_162156e.jpg'
p4634
sg4
(lp4635
(g56
g6
(g18
S'\x1a\xd5\xc9>'
p4636
tp4637
Rp4638
tp4639
a(g32
g6
(g18
S'\xa0\xb0\xc1>'
p4640
tp4641
Rp4642
tp4643
a(g108
g6
(g18
S'\xb75E>'
p4644
tp4645
Rp4646
tp4647
a(g15
g6
(g18
S'\x127\xde<'
p4648
tp4649
Rp4650
tp4651
a(g146
g6
(g18
S'\xce\x94(;'
p4652
tp4653
Rp4654
tp4655
asg73
g32
sa(dp4656
g2
S'../../../data/emanuela/activity-recognition/images/NTCIR-Lifelog-256/u2/2015-04-27/b00005763_21i7lf_20150427_171730e (1).jpg'
p4657
sg4
(lp4658
(g32
g6
(g18
S'&<\x9e>'
p4659
tp4660
Rp4661
tp4662
a(g15
g6
(g18
S'Y\xe2N>'
p4663
tp4664
Rp4665
tp4666
a(g324
g6
(g18
S'\xd2$\x03>'
p4667
tp4668
Rp4669
tp4670
a(g108
g6
(g18
S'\xed\x9ft='
p4671
tp4672
Rp4673
tp4674
a(g44
g6
(g18
S'\x8b`k='
p4675
tp4676
Rp4677
tp4678
asg73
g32
sa(dp4679
g2
S'../../../data/emanuela/activity-recognition/images/NTCIR-Lifelog-256/u2/2015-04-27/b00005766_21i7lf_20150427_171914e.jpg'
p4680
sg4
(lp4681
(g108
g6
(g18
S'\xe4AO>'
p4682
tp4683
Rp4684
tp4685
a(g32
g6
(g18
S'P\x9d.>'
p4686
tp4687
Rp4688
tp4689
a(g281
g6
(g18
S'\xcce$>'
p4690
tp4691
Rp4692
tp4693
a(g324
g6
(g18
S'\xdf\xd9\xdc='
p4694
tp4695
Rp4696
tp4697
a(g297
g6
(g18
S'\x87\x8b\\='
p4698
tp4699
Rp4700
tp4701
asg73
g32
sa(dp4702
g2
S'../../../data/emanuela/activity-recognition/images/NTCIR-Lifelog-256/u2/2015-04-23/b00001246_21i7lf_20150423_143651e.jpg'
p4703
sg4
(lp4704
(g15
g6
(g18
S'4I#?'
p4705
tp4706
Rp4707
tp4708
a(g32
g6
(g18
S'\xebH\x95>'
p4709
tp4710
Rp4711
tp4712
a(g108
g6
(g18
S'\x1c\xde4='
p4713
tp4714
Rp4715
tp4716
a(g56
g6
(g18
S'Nk+<'
p4717
tp4718
Rp4719
tp4720
a(g239
g6
(g18
S'?\xbe\x92;'
p4721
tp4722
Rp4723
tp4724
asg73
g32
sa(dp4725
g2
S'../../../data/emanuela/activity-recognition/images/NTCIR-Lifelog-256/u2/2015-05-01/b00001789_21i7lf_20150501_091224e.jpg'
p4726
sg4
(lp4727
(g108
g6
(g18
S'\xd1D\x04?'
p4728
tp4729
Rp4730
tp4731
a(g56
g6
(g18
S'i^\x9a>'
p4732
tp4733
Rp4734
tp4735
a(g32
g6
(g18
S'\xd4\xb6\x94='
p4736
tp4737
Rp4738
tp4739
a(g15
g6
(g18
S'\xb4V&='
p4740
tp4741
Rp4742
tp4743
a(g324
g6
(g18
S'u7\x8e<'
p4744
tp4745
Rp4746
tp4747
asg73
g32
sa(dp4748
g2
S'../../../data/emanuela/activity-recognition/images/NTCIR-Lifelog-256/u2/2015-04-21/b00000872_21i7lf_20150421_191315e.jpg'
p4749
sg4
(lp4750
(g32
g6
(g18
S'\x08&\xdb>'
p4751
tp4752
Rp4753
tp4754
a(g15
g6
(g18
S'\xa0\xd6\xb1>'
p4755
tp4756
Rp4757
tp4758
a(g108
g6
(g18
S'\xc4\xbe\xbf='
p4759
tp4760
Rp4761
tp4762
a(g68
g6
(g18
S'\xd9x4='
p4763
tp4764
Rp4765
tp4766
a(g44
g6
(g18
S'\x8b\xac\x08='
p4767
tp4768
Rp4769
tp4770
asg73
g32
sa(dp4771
g2
S'../../../data/emanuela/activity-recognition/images/NTCIR-Lifelog-256/u2/2015-05-08/b00009496_21i7lf_20150508_180402e.jpg'
p4772
sg4
(lp4773
(g32
g6
(g18
S'\xb5\xa8E?'
p4774
tp4775
Rp4776
tp4777
a(g68
g6
(g18
S'\xfbH\xa1='
p4778
tp4779
Rp4780
tp4781
a(g108
g6
(g18
S'a~;='
p4782
tp4783
Rp4784
tp4785
a(g146
g6
(g18
S'`\x8e\x1d='
p4786
tp4787
Rp4788
tp4789
a(g44
g6
(g18
S'\xca\xdd\xc6<'
p4790
tp4791
Rp4792
tp4793
asg73
g32
sa(dp4794
g2
S'../../../data/emanuela/activity-recognition/images/NTCIR-Lifelog-256/u2/2015-05-03/b00003950_21i7lf_20150503_162843e.jpg'
p4795
sg4
(lp4796
(g32
g6
(g18
S'?\x92\xf5>'
p4797
tp4798
Rp4799
tp4800
a(g56
g6
(g18
S'\xf7\xd8c>'
p4801
tp4802
Rp4803
tp4804
a(g15
g6
(g18
S'\xcf\xde)>'
p4805
tp4806
Rp4807
tp4808
a(g108
g6
(g18
S'T\xb9\x87='
p4809
tp4810
Rp4811
tp4812
a(g44
g6
(g18
S'r\x98\x99<'
p4813
tp4814
Rp4815
tp4816
asg73
g32
sa(dp4817
g2
S'../../../data/emanuela/activity-recognition/images/NTCIR-Lifelog-256/u2/2015-04-21/b00000858_21i7lf_20150421_184650e.jpg'
p4818
sg4
(lp4819
(g68
g6
(g18
S'\x85v\xba>'
p4820
tp4821
Rp4822
tp4823
a(g15
g6
(g18
S'\x05Z\x80>'
p4824
tp4825
Rp4826
tp4827
a(g32
g6
(g18
S'\xb2\x88;>'
p4828
tp4829
Rp4830
tp4831
a(g96
g6
(g18
S'=T\xd4='
p4832
tp4833
Rp4834
tp4835
a(g44
g6
(g18
S'\x98.\xf6<'
p4836
tp4837
Rp4838
tp4839
asg73
g32
sa(dp4840
g2
S'../../../data/emanuela/activity-recognition/images/NTCIR-Lifelog-256/u2/2015-04-21/b00000866_21i7lf_20150421_190656e.jpg'
p4841
sg4
(lp4842
(g32
g6
(g18
S'\x18V#?'
p4843
tp4844
Rp4845
tp4846
a(g15
g6
(g18
S'\xd9[%>'
p4847
tp4848
Rp4849
tp4850
a(g68
g6
(g18
S'\x97\x8a\x93='
p4851
tp4852
Rp4853
tp4854
a(g108
g6
(g18
S'\xf3\x1f\x7f='
p4855
tp4856
Rp4857
tp4858
a(g96
g6
(g18
S'v\xb6\xec<'
p4859
tp4860
Rp4861
tp4862
asg73
g32
sa(dp4863
g2
S'../../../data/emanuela/activity-recognition/images/NTCIR-Lifelog-256/u2/2015-05-03/b00003852_21i7lf_20150503_152716e.jpg'
p4864
sg4
(lp4865
(g324
g6
(g18
S'\xf3\xe7\xe8>'
p4866
tp4867
Rp4868
tp4869
a(g32
g6
(g18
S'\xae:0>'
p4870
tp4871
Rp4872
tp4873
a(g56
g6
(g18
S'\x1f\xd7\xf4='
p4874
tp4875
Rp4876
tp4877
a(g108
g6
(g18
S'\x91E\xbe='
p4878
tp4879
Rp4880
tp4881
a(g340
g6
(g18
S'G\x15\x86='
p4882
tp4883
Rp4884
tp4885
asg73
g32
sa(dp4886
g2
S'../../../data/emanuela/activity-recognition/images/NTCIR-Lifelog-256/u2/2015-05-08/b00009537_21i7lf_20150508_184153e.jpg'
p4887
sg4
(lp4888
(g32
g6
(g18
S'\xa9\xd2\x15?'
p4889
tp4890
Rp4891
tp4892
a(g15
g6
(g18
S'\x8e\x1a\x84>'
p4893
tp4894
Rp4895
tp4896
a(g68
g6
(g18
S"D7'="
p4897
tp4898
Rp4899
tp4900
a(g146
g6
(g18
S'\xe5j\x19='
p4901
tp4902
Rp4903
tp4904
a(g56
g6
(g18
S'/=\x16='
p4905
tp4906
Rp4907
tp4908
asg73
g32
sa(dp4909
g2
S'../../../data/emanuela/activity-recognition/images/NTCIR-Lifelog-256/u2/2015-05-06/b00007095_21i7lf_20150506_173930e.jpg'
p4910
sg4
(lp4911
(g146
g6
(g18
S' $\xae>'
p4912
tp4913
Rp4914
tp4915
a(g44
g6
(g18
S'L\xd0s>'
p4916
tp4917
Rp4918
tp4919
a(g32
g6
(g18
S'H\x8a\x11>'
p4920
tp4921
Rp4922
tp4923
a(g68
g6
(g18
S'\rS\n>'
p4924
tp4925
Rp4926
tp4927
a(g108
g6
(g18
S'\xb1E\xb0='
p4928
tp4929
Rp4930
tp4931
asg73
g32
sa(dp4932
g2
S'../../../data/emanuela/activity-recognition/images/NTCIR-Lifelog-256/u2/2015-05-08/b00009452_21i7lf_20150508_172542e.jpg'
p4933
sg4
(lp4934
(g15
g6
(g18
S'\xef)t>'
p4935
tp4936
Rp4937
tp4938
a(g146
g6
(g18
S'"w\\>'
p4939
tp4940
Rp4941
tp4942
a(g44
g6
(g18
S'\xc7\xda4>'
p4943
tp4944
Rp4945
tp4946
a(g32
g6
(g18
S'\x13\x9c\x12>'
p4947
tp4948
Rp4949
tp4950
a(g56
g6
(g18
S'\xc7b\xd1='
p4951
tp4952
Rp4953
tp4954
asg73
g32
sa(dp4955
g2
S'../../../data/emanuela/activity-recognition/images/NTCIR-Lifelog-256/u2/2015-05-08/b00009455_21i7lf_20150508_172824e.jpg'
p4956
sg4
(lp4957
(g15
g6
(g18
S'\x0b\xb1\x1e?'
p4958
tp4959
Rp4960
tp4961
a(g146
g6
(g18
S'c\xe6\x1a>'
p4962
tp4963
Rp4964
tp4965
a(g44
g6
(g18
S'\xadE\xcd='
p4966
tp4967
Rp4968
tp4969
a(g56
g6
(g18
S'| \x16='
p4970
tp4971
Rp4972
tp4973
a(g32
g6
(g18
S'L\x06\xde<'
p4974
tp4975
Rp4976
tp4977
asg73
g32
sa(dp4978
g2
S'../../../data/emanuela/activity-recognition/images/NTCIR-Lifelog-256/u2/2015-04-21/b00000887_21i7lf_20150421_192550e.jpg'
p4979
sg4
(lp4980
(g32
g6
(g18
S'\xd9\x1fU?'
p4981
tp4982
Rp4983
tp4984
a(g15
g6
(g18
S'J(\xbb='
p4985
tp4986
Rp4987
tp4988
a(g108
g6
(g18
S'yk\xc6<'
p4989
tp4990
Rp4991
tp4992
a(g56
g6
(g18
S'C\xdb\x7f<'
p4993
tp4994
Rp4995
tp4996
a(g44
g6
(g18
S'h6m<'
p4997
tp4998
Rp4999
tp5000
asg73
g32
sa(dp5001
g2
S'../../../data/emanuela/activity-recognition/images/NTCIR-Lifelog-256/u2/2015-05-01/b00001799_21i7lf_20150501_091828e.jpg'
p5002
sg4
(lp5003
(g32
g6
(g18
S'\x87q\xbc>'
p5004
tp5005
Rp5006
tp5007
a(g108
g6
(g18
S'w\x9fc>'
p5008
tp5009
Rp5010
tp5011
a(g56
g6
(g18
S"\xc7'\x1e>"
p5012
tp5013
Rp5014
tp5015
a(g15
g6
(g18
S'\x081q='
p5016
tp5017
Rp5018
tp5019
a(g239
g6
(g18
S'v\nm='
p5020
tp5021
Rp5022
tp5023
asg73
g32
sa(dp5024
g2
S'../../../data/emanuela/activity-recognition/images/NTCIR-Lifelog-256/u2/2015-04-21/b00000859_21i7lf_20150421_184752e.jpg'
p5025
sg4
(lp5026
(g32
g6
(g18
S'\xa4r\xac>'
p5027
tp5028
Rp5029
tp5030
a(g68
g6
(g18
S'\xab\xef\x89>'
p5031
tp5032
Rp5033
tp5034
a(g15
g6
(g18
S'@\n|>'
p5035
tp5036
Rp5037
tp5038
a(g96
g6
(g18
S'\x9e\x85\x93='
p5039
tp5040
Rp5041
tp5042
a(g44
g6
(g18
S'\xa2\xf1\x1c='
p5043
tp5044
Rp5045
tp5046
asg73
g32
sa(dp5047
g2
S'../../../data/emanuela/activity-recognition/images/NTCIR-Lifelog-256/u2/2015-04-23/b00001252_21i7lf_20150423_144047e.jpg'
p5048
sg4
(lp5049
(g108
g6
(g18
S'V\xb2\x0f?'
p5050
tp5051
Rp5052
tp5053
a(g56
g6
(g18
S'\xa2d\x1f>'
p5054
tp5055
Rp5056
tp5057
a(g32
g6
(g18
S'\xf4\xa7\x0f>'
p5058
tp5059
Rp5060
tp5061
a(g15
g6
(g18
S'R|\x02>'
p5062
tp5063
Rp5064
tp5065
a(g239
g6
(g18
S'}&\x94;'
p5066
tp5067
Rp5068
tp5069
asg73
g32
sa(dp5070
g2
S'../../../data/emanuela/activity-recognition/images/NTCIR-Lifelog-256/u2/2015-04-27/b00005790_21i7lf_20150427_173409e.jpg'
p5071
sg4
(lp5072
(g32
g6
(g18
S'\x03J.?'
p5073
tp5074
Rp5075
tp5076
a(g108
g6
(g18
S'M\x04\xd7='
p5077
tp5078
Rp5079
tp5080
a(g281
g6
(g18
S'\x90\x04j='
p5081
tp5082
Rp5083
tp5084
a(g15
g6
(g18
S'\xa4\xa41='
p5085
tp5086
Rp5087
tp5088
a(g68
g6
(g18
S'\x9e\xea\x12='
p5089
tp5090
Rp5091
tp5092
asg73
g32
sa(dp5093
g2
S'../../../data/emanuela/activity-recognition/images/NTCIR-Lifelog-256/u2/2015-05-03/b00003972_21i7lf_20150503_164309e.jpg'
p5094
sg4
(lp5095
(g32
g6
(g18
S'\xe2\x91\xd7>'
p5096
tp5097
Rp5098
tp5099
a(g108
g6
(g18
S'J\xad\x96>'
p5100
tp5101
Rp5102
tp5103
a(g15
g6
(g18
S'\x96\xdd\x0c>'
p5104
tp5105
Rp5106
tp5107
a(g56
g6
(g18
S'Q\xff\x03>'
p5108
tp5109
Rp5110
tp5111
a(g146
g6
(g18
S'\xb9\x89\x95;'
p5112
tp5113
Rp5114
tp5115
asg73
g32
sa(dp5116
g2
S'../../../data/emanuela/activity-recognition/images/NTCIR-Lifelog-256/u2/2015-05-08/b00009538_21i7lf_20150508_184235e.jpg'
p5117
sg4
(lp5118
(g32
g6
(g18
S'\x91\xd4)?'
p5119
tp5120
Rp5121
tp5122
a(g56
g6
(g18
S'\xa6\x8c\xfe='
p5123
tp5124
Rp5125
tp5126
a(g44
g6
(g18
S'\xcf\xa0\xeb='
p5127
tp5128
Rp5129
tp5130
a(g15
g6
(g18
S'\xf7/D='
p5131
tp5132
Rp5133
tp5134
a(g108
g6
(g18
S'\xb38\xad<'
p5135
tp5136
Rp5137
tp5138
asg73
g32
sa(dp5139
g2
S'../../../data/emanuela/activity-recognition/images/NTCIR-Lifelog-256/u2/2015-04-23/b00001277_21i7lf_20150423_145634e.jpg'
p5140
sg4
(lp5141
(g15
g6
(g18
S'\x0f\xc04?'
p5142
tp5143
Rp5144
tp5145
a(g32
g6
(g18
S'6r >'
p5146
tp5147
Rp5148
tp5149
a(g239
g6
(g18
S'j\xd5f='
p5150
tp5151
Rp5152
tp5153
a(g96
g6
(g18
S'\xc9\xc0\xe7<'
p5154
tp5155
Rp5156
tp5157
a(g68
g6
(g18
S'x`\xa0<'
p5158
tp5159
Rp5160
tp5161
asg73
g32
sa(dp5162
g2
S'../../../data/emanuela/activity-recognition/images/NTCIR-Lifelog-256/u2/2015-05-03/b00003977_21i7lf_20150503_164608e.jpg'
p5163
sg4
(lp5164
(g108
g6
(g18
S'\xd7V\x05?'
p5165
tp5166
Rp5167
tp5168
a(g56
g6
(g18
S'\xf7\x0e\x13>'
p5169
tp5170
Rp5171
tp5172
a(g32
g6
(g18
S'\x90\x12\xdf='
p5173
tp5174
Rp5175
tp5176
a(g297
g6
(g18
S'\xfb@\xdd='
p5177
tp5178
Rp5179
tp5180
a(g537
g6
(g18
S'\xd4\xfd\x1e='
p5181
tp5182
Rp5183
tp5184
asg73
g32
sa(dp5185
g2
S'../../../data/emanuela/activity-recognition/images/NTCIR-Lifelog-256/u2/2015-04-21/b00000874_21i7lf_20150421_191639e.jpg'
p5186
sg4
(lp5187
(g32
g6
(g18
S'\xa9\xf5\x1a?'
p5188
tp5189
Rp5190
tp5191
a(g108
g6
(g18
S'[\x929>'
p5192
tp5193
Rp5194
tp5195
a(g56
g6
(g18
S'(V\x89='
p5196
tp5197
Rp5198
tp5199
a(g68
g6
(g18
S'^\xabq='
p5200
tp5201
Rp5202
tp5203
a(g15
g6
(g18
S'\xebI\x12='
p5204
tp5205
Rp5206
tp5207
asg73
g32
sa(dp5208
g2
S'../../../data/emanuela/activity-recognition/images/NTCIR-Lifelog-256/u2/2015-05-08/b00009524_21i7lf_20150508_183107e.jpg'
p5209
sg4
(lp5210
(g32
g6
(g18
S'\x80\x92x?'
p5211
tp5212
Rp5213
tp5214
a(g56
g6
(g18
S'j\xd6\x7f<'
p5215
tp5216
Rp5217
tp5218
a(g15
g6
(g18
S'\xdf\xc2\xc8;'
p5219
tp5220
Rp5221
tp5222
a(g108
g6
(g18
S'\xde\xdc(;'
p5223
tp5224
Rp5225
tp5226
a(g44
g6
(g18
S'{X\xe9:'
p5227
tp5228
Rp5229
tp5230
asg73
g32
sa(dp5231
g2
S'../../../data/emanuela/activity-recognition/images/NTCIR-Lifelog-256/u2/2015-05-03/b00003965_21i7lf_20150503_163846e.jpg'
p5232
sg4
(lp5233
(g108
g6
(g18
S'5\x85\x03?'
p5234
tp5235
Rp5236
tp5237
a(g56
g6
(g18
S'\xfa.\x80>'
p5238
tp5239
Rp5240
tp5241
a(g32
g6
(g18
S'\xd2\xdbg>'
p5242
tp5243
Rp5244
tp5245
a(g15
g6
(g18
S'\x15\x84\xbc;'
p5246
tp5247
Rp5248
tp5249
a(g44
g6
(g18
S'\x0f\x13\xcc:'
p5250
tp5251
Rp5252
tp5253
asg73
g32
sa(dp5254
g2
S'../../../data/emanuela/activity-recognition/images/NTCIR-Lifelog-256/u2/2015-05-08/b00009439_21i7lf_20150508_171728e.jpg'
p5255
sg4
(lp5256
(g56
g6
(g18
S'\xa6\xf37?'
p5257
tp5258
Rp5259
tp5260
a(g32
g6
(g18
S'>\xf9->'
p5261
tp5262
Rp5263
tp5264
a(g108
g6
(g18
S'\x98\x05\x9d='
p5265
tp5266
Rp5267
tp5268
a(g15
g6
(g18
S'F\xb3\xd8<'
p5269
tp5270
Rp5271
tp5272
a(g146
g6
(g18
S'\xec\x8dv;'
p5273
tp5274
Rp5275
tp5276
asg73
g32
sa(dp5277
g2
S'../../../data/emanuela/activity-recognition/images/NTCIR-Lifelog-256/u2/2015-04-23/b00001249_21i7lf_20150423_143849e.jpg'
p5278
sg4
(lp5279
(g32
g6
(g18
S'1E\xd0>'
p5280
tp5281
Rp5282
tp5283
a(g15
g6
(g18
S'\xd6\x9a\x84>'
p5284
tp5285
Rp5286
tp5287
a(g108
g6
(g18
S'0[\x1e>'
p5288
tp5289
Rp5290
tp5291
a(g56
g6
(g18
S'\xcc\xf0\xb0='
p5292
tp5293
Rp5294
tp5295
a(g309
g6
(g18
S'\x84\xe0\xff<'
p5296
tp5297
Rp5298
tp5299
asg73
g32
sa(dp5300
g2
S'../../../data/emanuela/activity-recognition/images/NTCIR-Lifelog-256/u2/2015-04-21/b00000910_21i7lf_20150421_200144e.jpg'
p5301
sg4
(lp5302
(g32
g6
(g18
S'\xcf\xc7\xe0>'
p5303
tp5304
Rp5305
tp5306
a(g68
g6
(g18
S'=E\x19>'
p5307
tp5308
Rp5309
tp5310
a(g108
g6
(g18
S'\x9e\xba\x13>'
p5311
tp5312
Rp5313
tp5314
a(g15
g6
(g18
S'\xc7Y\x08>'
p5315
tp5316
Rp5317
tp5318
a(g44
g6
(g18
S'\xad\xb17='
p5319
tp5320
Rp5321
tp5322
asg73
g32
sa(dp5323
g2
S'../../../data/emanuela/activity-recognition/images/NTCIR-Lifelog-256/u2/2015-04-27/b00005800_21i7lf_20150427_174016e.jpg'
p5324
sg4
(lp5325
(g108
g6
(g18
S'%|Z?'
p5326
tp5327
Rp5328
tp5329
a(g281
g6
(g18
S'\xd3\xffL='
p5330
tp5331
Rp5332
tp5333
a(g417
g6
(g18
S'h\x9b\xc7<'
p5334
tp5335
Rp5336
tp5337
a(g297
g6
(g18
S'y=o<'
p5338
tp5339
Rp5340
tp5341
a(g146
g6
(g18
S'4\xd8.<'
p5342
tp5343
Rp5344
tp5345
asg73
g32
sa(dp5346
g2
S'../../../data/emanuela/activity-recognition/images/NTCIR-Lifelog-256/u2/2015-04-21/b00000905_21i7lf_20150421_194239e.jpg'
p5347
sg4
(lp5348
(g15
g6
(g18
S'\xa2\xad\xf9>'
p5349
tp5350
Rp5351
tp5352
a(g32
g6
(g18
S'\\-n>'
p5353
tp5354
Rp5355
tp5356
a(g96
g6
(g18
S'\x0b\xaa\x81='
p5357
tp5358
Rp5359
tp5360
a(g68
g6
(g18
S'}\xd2\\='
p5361
tp5362
Rp5363
tp5364
a(g108
g6
(g18
S"\xb2\x84'="
p5365
tp5366
Rp5367
tp5368
asg73
g32
sa(dp5369
g2
S'../../../data/emanuela/activity-recognition/images/NTCIR-Lifelog-256/u2/2015-05-08/b00009443_21i7lf_20150508_171949e.jpg'
p5370
sg4
(lp5371
(g44
g6
(g18
S'\xcfw\xf5>'
p5372
tp5373
Rp5374
tp5375
a(g108
g6
(g18
S'\x04\xab\x06>'
p5376
tp5377
Rp5378
tp5379
a(g146
g6
(g18
S'\x00\x83\x9f='
p5380
tp5381
Rp5382
tp5383
a(g297
g6
(g18
S'\x93\x12s='
p5384
tp5385
Rp5386
tp5387
a(g417
g6
(g18
S'\xde\xb4#='
p5388
tp5389
Rp5390
tp5391
asg73
g32
sa(dp5392
g2
S'../../../data/emanuela/activity-recognition/images/NTCIR-Lifelog-256/u2/2015-05-03/b00003975_21i7lf_20150503_164500e.jpg'
p5393
sg4
(lp5394
(g108
g6
(g18
S'*\xc2\xab>'
p5395
tp5396
Rp5397
tp5398
a(g15
g6
(g18
S'\x83k\x88>'
p5399
tp5400
Rp5401
tp5402
a(g56
g6
(g18
S'\xe5\xfae>'
p5403
tp5404
Rp5405
tp5406
a(g32
g6
(g18
S'\xbdE&>'
p5407
tp5408
Rp5409
tp5410
a(g239
g6
(g18
S'\x96\xb3\xb8:'
p5411
tp5412
Rp5413
tp5414
asg73
g32
sa(dp5415
g2
S'../../../data/emanuela/activity-recognition/images/NTCIR-Lifelog-256/u2/2015-04-27/b00005824_21i7lf_20150427_175404e.jpg'
p5416
sg4
(lp5417
(g108
g6
(g18
S'\x859??'
p5418
tp5419
Rp5420
tp5421
a(g281
g6
(g18
S'\xf3\x9f\n>'
p5422
tp5423
Rp5424
tp5425
a(g297
g6
(g18
S'\xa6&\xe4<'
p5426
tp5427
Rp5428
tp5429
a(g417
g6
(g18
S'\x0e\x84\xe0<'
p5430
tp5431
Rp5432
tp5433
a(g309
g6
(g18
S'\xe3\xa5)<'
p5434
tp5435
Rp5436
tp5437
asg73
g32
sa(dp5438
g2
S'../../../data/emanuela/activity-recognition/images/NTCIR-Lifelog-256/u2/2015-04-23/b00001271_21i7lf_20150423_145257e.jpg'
p5439
sg4
(lp5440
(g108
g6
(g18
S'f\x8bo?'
p5441
tp5442
Rp5443
tp5444
a(g32
g6
(g18
S'6\xf7\t='
p5445
tp5446
Rp5447
tp5448
a(g15
g6
(g18
S'\xd5\xa3\x8f<'
p5449
tp5450
Rp5451
tp5452
a(g56
g6
(g18
S'\x12\xea?<'
p5453
tp5454
Rp5455
tp5456
a(g340
g6
(g18
S'\xa8\xdd\xae9'
p5457
tp5458
Rp5459
tp5460
asg73
g32
sa(dp5461
g2
S'../../../data/emanuela/activity-recognition/images/NTCIR-Lifelog-256/u2/2015-04-27/b00005822_21i7lf_20150427_175256e.jpg'
p5462
sg4
(lp5463
(g108
g6
(g18
S'*WG?'
p5464
tp5465
Rp5466
tp5467
a(g281
g6
(g18
S'\xb38\xb7='
p5468
tp5469
Rp5470
tp5471
a(g417
g6
(g18
S'R\t\xd7<'
p5472
tp5473
Rp5474
tp5475
a(g297
g6
(g18
S'\x1b\x99\xd5<'
p5476
tp5477
Rp5478
tp5479
a(g68
g6
(g18
S'\x84&\x86<'
p5480
tp5481
Rp5482
tp5483
asg73
g32
sa(dp5484
g2
S'../../../data/emanuela/activity-recognition/images/NTCIR-Lifelog-256/u2/2015-05-08/b00009451_21i7lf_20150508_172453e.jpg'
p5485
sg4
(lp5486
(g15
g6
(g18
S'/ u>'
p5487
tp5488
Rp5489
tp5490
a(g108
g6
(g18
S'<\xc8D>'
p5491
tp5492
Rp5493
tp5494
a(g32
g6
(g18
S'\x93p\x11>'
p5495
tp5496
Rp5497
tp5498
a(g309
g6
(g18
S'[\xd6\xaa='
p5499
tp5500
Rp5501
tp5502
a(g96
g6
(g18
S'r\xe6\x94='
p5503
tp5504
Rp5505
tp5506
asg73
g32
sa(dp5507
g2
S'../../../data/emanuela/activity-recognition/images/NTCIR-Lifelog-256/u2/2015-05-08/b00009493_21i7lf_20150508_180050e.jpg'
p5508
sg4
(lp5509
(g44
g6
(g18
S';L\n?'
p5510
tp5511
Rp5512
tp5513
a(g146
g6
(g18
S'~:9>'
p5514
tp5515
Rp5516
tp5517
a(g15
g6
(g18
S'\xd3o\xfe='
p5518
tp5519
Rp5520
tp5521
a(g56
g6
(g18
S'\xa9/\xe5='
p5522
tp5523
Rp5524
tp5525
a(g32
g6
(g18
S'\xdb\xc9\t='
p5526
tp5527
Rp5528
tp5529
asg73
g32
sa(dp5530
g2
S'../../../data/emanuela/activity-recognition/images/NTCIR-Lifelog-256/u2/2015-04-26/b00004194_21i7lf_20150426_161504e.jpg'
p5531
sg4
(lp5532
(g32
g6
(g18
S'\x8f\x1eb>'
p5533
tp5534
Rp5535
tp5536
a(g108
g6
(g18
S'-\xc0R>'
p5537
tp5538
Rp5539
tp5540
a(g281
g6
(g18
S'\x9e\xab(>'
p5541
tp5542
Rp5543
tp5544
a(g68
g6
(g18
S'1r\xa5='
p5545
tp5546
Rp5547
tp5548
a(g417
g6
(g18
S'+t\x92='
p5549
tp5550
Rp5551
tp5552
asg73
g32
sa(dp5553
g2
S'../../../data/emanuela/activity-recognition/images/NTCIR-Lifelog-256/u2/2015-04-27/b00005818_21i7lf_20150427_175028e.jpg'
p5554
sg4
(lp5555
(g108
g6
(g18
S'\xae\xb1\xf8>'
p5556
tp5557
Rp5558
tp5559
a(g281
g6
(g18
S')5y>'
p5560
tp5561
Rp5562
tp5563
a(g417
g6
(g18
S'\xa1\xf0\xe2='
p5564
tp5565
Rp5566
tp5567
a(g297
g6
(g18
S'\xb2\x06@='
p5568
tp5569
Rp5570
tp5571
a(g68
g6
(g18
S'M3\xbc<'
p5572
tp5573
Rp5574
tp5575
asg73
g32
sa(dp5576
g2
S'../../../data/emanuela/activity-recognition/images/NTCIR-Lifelog-256/u2/2015-05-08/b00009468_21i7lf_20150508_174007e.jpg'
p5577
sg4
(lp5578
(g15
g6
(g18
S'\x88@\xe3>'
p5579
tp5580
Rp5581
tp5582
a(g146
g6
(g18
S'\x1f\xaa\xd0>'
p5583
tp5584
Rp5585
tp5586
a(g32
g6
(g18
S'\xf5\xffW='
p5587
tp5588
Rp5589
tp5590
a(g44
g6
(g18
S'}\xac9='
p5591
tp5592
Rp5593
tp5594
a(g56
g6
(g18
S'\x08>\x82<'
p5595
tp5596
Rp5597
tp5598
asg73
g32
sa(dp5599
g2
S'../../../data/emanuela/activity-recognition/images/NTCIR-Lifelog-256/u2/2015-04-26/b00004192_21i7lf_20150426_161354e.jpg'
p5600
sg4
(lp5601
(g108
g6
(g18
S'.1\x13?'
p5602
tp5603
Rp5604
tp5605
a(g324
g6
(g18
S'\x19\x83\x1f>'
p5606
tp5607
Rp5608
tp5609
a(g68
g6
(g18
S'\xcb}\x02>'
p5610
tp5611
Rp5612
tp5613
a(g32
g6
(g18
S'\x90\xe2\x8e='
p5614
tp5615
Rp5616
tp5617
a(g56
g6
(g18
S'\x0cV\xd3<'
p5618
tp5619
Rp5620
tp5621
asg73
g32
sa(dp5622
g2
S'../../../data/emanuela/activity-recognition/images/NTCIR-Lifelog-256/u2/2015-04-27/b00005832_21i7lf_20150427_175850e.jpg'
p5623
sg4
(lp5624
(g108
g6
(g18
S'\x87ae?'
p5625
tp5626
Rp5627
tp5628
a(g146
g6
(g18
S'\xdd\xb7\x9e<'
p5629
tp5630
Rp5631
tp5632
a(g32
g6
(g18
S'F\xf0\x8c<'
p5633
tp5634
Rp5635
tp5636
a(g417
g6
(g18
S'\xaaVb<'
p5637
tp5638
Rp5639
tp5640
a(g281
g6
(g18
S'\xae,<<'
p5641
tp5642
Rp5643
tp5644
asg73
g32
sa(dp5645
g2
S'../../../data/emanuela/activity-recognition/images/NTCIR-Lifelog-256/u2/2015-05-08/b00009579_21i7lf_20150508_191048e.jpg'
p5646
sg4
(lp5647
(g15
g6
(g18
S'j\xca\x1c?'
p5648
tp5649
Rp5650
tp5651
a(g44
g6
(g18
S'\x80\xc1b>'
p5652
tp5653
Rp5654
tp5655
a(g68
g6
(g18
S'\x15c\x8f='
p5656
tp5657
Rp5658
tp5659
a(g56
g6
(g18
S'\xa8y\xe4<'
p5660
tp5661
Rp5662
tp5663
a(g146
g6
(g18
S'\xb7\xf7\xd1<'
p5664
tp5665
Rp5666
tp5667
asg73
g32
sa(dp5668
g2
S'../../../data/emanuela/activity-recognition/images/NTCIR-Lifelog-256/u2/2015-05-08/b00009540_21i7lf_20150508_184351e.jpg'
p5669
sg4
(lp5670
(g32
g6
(g18
S'\x19\xbdN?'
p5671
tp5672
Rp5673
tp5674
a(g44
g6
(g18
S'\xdd\x1e\xa1='
p5675
tp5676
Rp5677
tp5678
a(g68
g6
(g18
S'\xe4OG='
p5679
tp5680
Rp5681
tp5682
a(g108
g6
(g18
S'\x0f@\x85<'
p5683
tp5684
Rp5685
tp5686
a(g15
g6
(g18
S'\x16\xd6k<'
p5687
tp5688
Rp5689
tp5690
asg73
g32
sa(dp5691
g2
S'../../../data/emanuela/activity-recognition/images/NTCIR-Lifelog-256/u2/2015-04-27/b00005802_21i7lf_20150427_174128e.jpg'
p5692
sg4
(lp5693
(g108
g6
(g18
S'\xfc\xceU?'
p5694
tp5695
Rp5696
tp5697
a(g281
g6
(g18
S'\x911\xa4='
p5698
tp5699
Rp5700
tp5701
a(g32
g6
(g18
S'%\x17\x97<'
p5702
tp5703
Rp5704
tp5705
a(g309
g6
(g18
S'\x99\xcc/<'
p5706
tp5707
Rp5708
tp5709
a(g68
g6
(g18
S'K\xd5(<'
p5710
tp5711
Rp5712
tp5713
asg73
g32
sa(dp5714
g2
S'../../../data/emanuela/activity-recognition/images/NTCIR-Lifelog-256/u2/2015-04-27/b00005761_21i7lf_20150427_171620e.jpg'
p5715
sg4
(lp5716
(g108
g6
(g18
S'\x86uG>'
p5717
tp5718
Rp5719
tp5720
a(g32
g6
(g18
S'q\xd5\x18>'
p5721
tp5722
Rp5723
tp5724
a(g340
g6
(g18
S'r\x9f\xd0='
p5725
tp5726
Rp5727
tp5728
a(g324
g6
(g18
S'r,\xca='
p5729
tp5730
Rp5731
tp5732
a(g297
g6
(g18
S',\xfd\x9c='
p5733
tp5734
Rp5735
tp5736
asg73
g32
sa(dp5737
g2
S'../../../data/emanuela/activity-recognition/images/NTCIR-Lifelog-256/u2/2015-04-23/b00001238_21i7lf_20150423_143152e.jpg'
p5738
sg4
(lp5739
(g15
g6
(g18
S'/J\x8b>'
p5740
tp5741
Rp5742
tp5743
a(g433
g6
(g18
S'\xb2CZ>'
p5744
tp5745
Rp5746
tp5747
a(g32
g6
(g18
S'\xab\x1c;>'
p5748
tp5749
Rp5750
tp5751
a(g108
g6
(g18
S'\xcd\xab*>'
p5752
tp5753
Rp5754
tp5755
a(g56
g6
(g18
S'\x8a\xb4B='
p5756
tp5757
Rp5758
tp5759
asg73
g32
sa(dp5760
g2
S'../../../data/emanuela/activity-recognition/images/NTCIR-Lifelog-256/u2/2015-05-03/b00003942_21i7lf_20150503_162347e.jpg'
p5761
sg4
(lp5762
(g108
g6
(g18
S'cY\n?'
p5763
tp5764
Rp5765
tp5766
a(g56
g6
(g18
S'r\xc6\x86>'
p5767
tp5768
Rp5769
tp5770
a(g32
g6
(g18
S'(}>>'
p5771
tp5772
Rp5773
tp5774
a(g15
g6
(g18
S'\xea\xca\xd5;'
p5775
tp5776
Rp5777
tp5778
a(g146
g6
(g18
S'\x89\xfe\x80:'
p5779
tp5780
Rp5781
tp5782
asg73
g32
sa(dp5783
g2
S'../../../data/emanuela/activity-recognition/images/NTCIR-Lifelog-256/u2/2015-04-27/b00005754_21i7lf_20150427_171201e.jpg'
p5784
sg4
(lp5785
(g1139
g6
(g18
S'+\x8c\x80>'
p5786
tp5787
Rp5788
tp5789
a(g281
g6
(g18
S'\xf3x\x03>'
p5790
tp5791
Rp5792
tp5793
a(g68
g6
(g18
S'\xd4l\xfb='
p5794
tp5795
Rp5796
tp5797
a(g44
g6
(g18
S'\xe4\x10\xb6='
p5798
tp5799
Rp5800
tp5801
a(g108
g6
(g18
S"'\x95\xa9="
p5802
tp5803
Rp5804
tp5805
asg73
g32
sa(dp5806
g2
S'../../../data/emanuela/activity-recognition/images/NTCIR-Lifelog-256/u2/2015-04-27/b00005769_21i7lf_20150427_172104e.jpg'
p5807
sg4
(lp5808
(g108
g6
(g18
S'\xfbdL>'
p5809
tp5810
Rp5811
tp5812
a(g32
g6
(g18
S'\x9e\x94\x17>'
p5813
tp5814
Rp5815
tp5816
a(g324
g6
(g18
S'[\x8a\xd4='
p5817
tp5818
Rp5819
tp5820
a(g15
g6
(g18
S'?M\xab='
p5821
tp5822
Rp5823
tp5824
a(g340
g6
(g18
S'\x96\x02\xa9='
p5825
tp5826
Rp5827
tp5828
asg73
g32
sa(dp5829
g2
S'../../../data/emanuela/activity-recognition/images/NTCIR-Lifelog-256/u2/2015-05-01/b00001780_21i7lf_20150501_090655e.jpg'
p5830
sg4
(lp5831
(g56
g6
(g18
S'Y\x909?'
p5832
tp5833
Rp5834
tp5835
a(g32
g6
(g18
S'm9\x03>'
p5836
tp5837
Rp5838
tp5839
a(g108
g6
(g18
S'\xb9\x8a\xee='
p5840
tp5841
Rp5842
tp5843
a(g15
g6
(g18
S'\xf5@\x81<'
p5844
tp5845
Rp5846
tp5847
a(g324
g6
(g18
S'\xac^\x96;'
p5848
tp5849
Rp5850
tp5851
asg73
g32
sa(dp5852
g2
S'../../../data/emanuela/activity-recognition/images/NTCIR-Lifelog-256/u2/2015-05-08/b00009561_21i7lf_20150508_190137e.jpg'
p5853
sg4
(lp5854
(g32
g6
(g18
S'\x12\x0c\xe0>'
p5855
tp5856
Rp5857
tp5858
a(g108
g6
(g18
S'o\x08r>'
p5859
tp5860
Rp5861
tp5862
a(g44
g6
(g18
S'\xa2\xb8\xb7='
p5863
tp5864
Rp5865
tp5866
a(g68
g6
(g18
S'I{\x8f='
p5867
tp5868
Rp5869
tp5870
a(g56
g6
(g18
S'\x97\x94H='
p5871
tp5872
Rp5873
tp5874
asg73
g32
sa(dp5875
g2
S'../../../data/emanuela/activity-recognition/images/NTCIR-Lifelog-256/u2/2015-04-21/b00000891_21i7lf_20150421_192823e.jpg'
p5876
sg4
(lp5877
(g32
g6
(g18
S'\x03y;>'
p5878
tp5879
Rp5880
tp5881
a(g44
g6
(g18
S'\xdbk8>'
p5882
tp5883
Rp5884
tp5885
a(g108
g6
(g18
S'\xe5\xbf\x19>'
p5886
tp5887
Rp5888
tp5889
a(g146
g6
(g18
S'u\xa1\n>'
p5890
tp5891
Rp5892
tp5893
a(g68
g6
(g18
S'a*\xb7='
p5894
tp5895
Rp5896
tp5897
asg73
g32
sa(dp5898
g2
S'../../../data/emanuela/activity-recognition/images/NTCIR-Lifelog-256/u2/2015-05-08/b00009571_21i7lf_20150508_190826e.jpg'
p5899
sg4
(lp5900
(g146
g6
(g18
S'`\x98S?'
p5901
tp5902
Rp5903
tp5904
a(g108
g6
(g18
S'H\xd7\x86='
p5905
tp5906
Rp5907
tp5908
a(g44
g6
(g18
S'\xcc-`='
p5909
tp5910
Rp5911
tp5912
a(g15
g6
(g18
S'\x11\xc1\x01='
p5913
tp5914
Rp5915
tp5916
a(g56
g6
(g18
S'\x94?:<'
p5917
tp5918
Rp5919
tp5920
asg73
g32
sa(dp5921
g2
S'../../../data/emanuela/activity-recognition/images/NTCIR-Lifelog-256/u2/2015-04-23/b00001275_21i7lf_20150423_145519e.jpg'
p5922
sg4
(lp5923
(g15
g6
(g18
S'K\x177?'
p5924
tp5925
Rp5926
tp5927
a(g32
g6
(g18
S'EBs>'
p5928
tp5929
Rp5930
tp5931
a(g108
g6
(g18
S'\x8a,\xb9<'
p5932
tp5933
Rp5934
tp5935
a(g56
g6
(g18
S'\x0f\xeaV<'
p5936
tp5937
Rp5938
tp5939
a(g96
g6
(g18
S'O\x8c4;'
p5940
tp5941
Rp5942
tp5943
asg73
g32
sa(dp5944
g2
S'../../../data/emanuela/activity-recognition/images/NTCIR-Lifelog-256/u2/2015-05-08/b00009497_21i7lf_20150508_180435e.jpg'
p5945
sg4
(lp5946
(g32
g6
(g18
S'i\xa3??'
p5947
tp5948
Rp5949
tp5950
a(g309
g6
(g18
S'\x12\xd9\x1b>'
p5951
tp5952
Rp5953
tp5954
a(g108
g6
(g18
S'r\xe9\n='
p5955
tp5956
Rp5957
tp5958
a(g146
g6
(g18
S'\x18\x9c\xac<'
p5959
tp5960
Rp5961
tp5962
a(g506
g6
(g18
S'\xd2\x12\xe8;'
p5963
tp5964
Rp5965
tp5966
asg73
g32
sa(dp5967
g2
S'../../../data/emanuela/activity-recognition/images/NTCIR-Lifelog-256/u2/2015-05-08/b00009534_21i7lf_20150508_183955e.jpg'
p5968
sg4
(lp5969
(g44
g6
(g18
S'\x9f>\xb5>'
p5970
tp5971
Rp5972
tp5973
a(g146
g6
(g18
S'\x05\xbbm>'
p5974
tp5975
Rp5976
tp5977
a(g15
g6
(g18
S'^NT>'
p5978
tp5979
Rp5980
tp5981
a(g96
g6
(g18
S'\xc5m\x88='
p5982
tp5983
Rp5984
tp5985
a(g417
g6
(g18
S'\xd7WV='
p5986
tp5987
Rp5988
tp5989
asg73
g32
sa(dp5990
g2
S'../../../data/emanuela/activity-recognition/images/NTCIR-Lifelog-256/u2/2015-04-21/b00000867_21i7lf_20150421_190735e.jpg'
p5991
sg4
(lp5992
(g32
g6
(g18
S'\r\xd6\x07?'
p5993
tp5994
Rp5995
tp5996
a(g68
g6
(g18
S'\x9b\x0c\xf9='
p5997
tp5998
Rp5999
tp6000
a(g108
g6
(g18
S'0\x06\xd6='
p6001
tp6002
Rp6003
tp6004
a(g96
g6
(g18
S'\x1c\xb1\xcc='
p6005
tp6006
Rp6007
tp6008
a(g15
g6
(g18
S'\x1b%\x9d='
p6009
tp6010
Rp6011
tp6012
asg73
g32
sa(dp6013
g2
S'../../../data/emanuela/activity-recognition/images/NTCIR-Lifelog-256/u2/2015-05-08/b00009548_21i7lf_20150508_184852e.jpg'
p6014
sg4
(lp6015
(g32
g6
(g18
S'\xd6\x98\x03?'
p6016
tp6017
Rp6018
tp6019
a(g56
g6
(g18
S'm\x1fl>'
p6020
tp6021
Rp6022
tp6023
a(g44
g6
(g18
S'\xa4\xc5\xe9='
p6024
tp6025
Rp6026
tp6027
a(g146
g6
(g18
S'\n\xbaB='
p6028
tp6029
Rp6030
tp6031
a(g108
g6
(g18
S'$j*='
p6032
tp6033
Rp6034
tp6035
asg73
g32
sa(dp6036
g2
S'../../../data/emanuela/activity-recognition/images/NTCIR-Lifelog-256/u2/2015-05-08/b00009445_21i7lf_20150508_172057e.jpg'
p6037
sg4
(lp6038
(g56
g6
(g18
S'\xc8\xfe/?'
p6039
tp6040
Rp6041
tp6042
a(g108
g6
(g18
S't\xed\x1f>'
p6043
tp6044
Rp6045
tp6046
a(g32
g6
(g18
S'\x87\xd1\x04>'
p6047
tp6048
Rp6049
tp6050
a(g44
g6
(g18
S'\xa4\xefg<'
p6051
tp6052
Rp6053
tp6054
a(g15
g6
(g18
S'\x8a\xfc\xfd;'
p6055
tp6056
Rp6057
tp6058
asg73
g32
sa(dp6059
g2
S'../../../data/emanuela/activity-recognition/images/NTCIR-Lifelog-256/u2/2015-04-27/b00005833_21i7lf_20150427_175925e.jpg'
p6060
sg4
(lp6061
(g108
g6
(g18
S'\xba\xa6b?'
p6062
tp6063
Rp6064
tp6065
a(g417
g6
(g18
S'\xc2T\xcf<'
p6066
tp6067
Rp6068
tp6069
a(g281
g6
(g18
S'\x15\xf2\xa4<'
p6070
tp6071
Rp6072
tp6073
a(g32
g6
(g18
S'\xa0\xcf_<'
p6074
tp6075
Rp6076
tp6077
a(g68
g6
(g18
S'Zg&<'
p6078
tp6079
Rp6080
tp6081
asg73
g32
sa(dp6082
g2
S'../../../data/emanuela/activity-recognition/images/NTCIR-Lifelog-256/u2/2015-05-08/b00009498_21i7lf_20150508_180514e.jpg'
p6083
sg4
(lp6084
(g32
g6
(g18
S'\x18\x9a4?'
p6085
tp6086
Rp6087
tp6088
a(g56
g6
(g18
S'\xd0"~>'
p6089
tp6090
Rp6091
tp6092
a(g15
g6
(g18
S'\x19}\xb5<'
p6093
tp6094
Rp6095
tp6096
a(g44
g6
(g18
S'x\xc8\xfc;'
p6097
tp6098
Rp6099
tp6100
a(g146
g6
(g18
S'\x18!\xb6;'
p6101
tp6102
Rp6103
tp6104
asg73
g32
sa(dp6105
g2
S'../../../data/emanuela/activity-recognition/images/NTCIR-Lifelog-256/u2/2015-04-26/b00004184_21i7lf_20150426_160846e.jpg'
p6106
sg4
(lp6107
(g324
g6
(g18
S'\xf7\xac\x93>'
p6108
tp6109
Rp6110
tp6111
a(g340
g6
(g18
S's\xef*>'
p6112
tp6113
Rp6114
tp6115
a(g417
g6
(g18
S'\xc9\x9a\xe2='
p6116
tp6117
Rp6118
tp6119
a(g68
g6
(g18
S'n\n\xa5='
p6120
tp6121
Rp6122
tp6123
a(g108
g6
(g18
S'\x8c\x9bv='
p6124
tp6125
Rp6126
tp6127
asg73
g32
sa(dp6128
g2
S'../../../data/emanuela/activity-recognition/images/NTCIR-Lifelog-256/u2/2015-05-08/b00009426_21i7lf_20150508_170805e.jpg'
p6129
sg4
(lp6130
(g32
g6
(g18
S'_\xa1\x07?'
p6131
tp6132
Rp6133
tp6134
a(g15
g6
(g18
S'\xd0}.>'
p6135
tp6136
Rp6137
tp6138
a(g56
g6
(g18
S"a\x89'>"
p6139
tp6140
Rp6141
tp6142
a(g108
g6
(g18
S'\xb5w\xca='
p6143
tp6144
Rp6145
tp6146
a(g146
g6
(g18
S't\xdb\x04<'
p6147
tp6148
Rp6149
tp6150
asg73
g32
sa(dp6151
g2
S'../../../data/emanuela/activity-recognition/images/NTCIR-Lifelog-256/u2/2015-04-23/b00001270_21i7lf_20150423_145222e.jpg'
p6152
sg4
(lp6153
(g15
g6
(g18
S'\x01c\x0c?'
p6154
tp6155
Rp6156
tp6157
a(g32
g6
(g18
S'O\xb6U>'
p6158
tp6159
Rp6160
tp6161
a(g108
g6
(g18
S'\xb3\x9a\x1d>'
p6162
tp6163
Rp6164
tp6165
a(g56
g6
(g18
S'\xa0\xf8\x81='
p6166
tp6167
Rp6168
tp6169
a(g309
g6
(g18
S"\xc2\x07'<"
p6170
tp6171
Rp6172
tp6173
asg73
g32
sa(dp6174
g2
S'../../../data/emanuela/activity-recognition/images/NTCIR-Lifelog-256/u2/2015-05-08/b00009464_21i7lf_20150508_173739e.jpg'
p6175
sg4
(lp6176
(g56
g6
(g18
S'\xf3,\xdc>'
p6177
tp6178
Rp6179
tp6180
a(g108
g6
(g18
S'6\x82\xac>'
p6181
tp6182
Rp6183
tp6184
a(g44
g6
(g18
S'\x04\xa0\xc7='
p6185
tp6186
Rp6187
tp6188
a(g32
g6
(g18
S'p2\xad='
p6189
tp6190
Rp6191
tp6192
a(g146
g6
(g18
S'.d\xff<'
p6193
tp6194
Rp6195
tp6196
asg73
g32
sa(dp6197
g2
S'../../../data/emanuela/activity-recognition/images/NTCIR-Lifelog-256/u2/2015-04-27/b00005815_21i7lf_20150427_174845e.jpg'
p6198
sg4
(lp6199
(g108
g6
(g18
S'\xe5\x99\xfd>'
p6200
tp6201
Rp6202
tp6203
a(g281
g6
(g18
S'\xdf\xa5\x90>'
p6204
tp6205
Rp6206
tp6207
a(g417
g6
(g18
S'\xbb\x0c\xce='
p6208
tp6209
Rp6210
tp6211
a(g297
g6
(g18
S'\x02\xd5\x1c='
p6212
tp6213
Rp6214
tp6215
a(g309
g6
(g18
S'\x7f\\\x8e<'
p6216
tp6217
Rp6218
tp6219
asg73
g32
sa(dp6220
g2
S'../../../data/emanuela/activity-recognition/images/NTCIR-Lifelog-256/u2/2015-05-08/b00009428_21i7lf_20150508_170923e.jpg'
p6221
sg4
(lp6222
(g56
g6
(g18
S'\xc1\xa1&?'
p6223
tp6224
Rp6225
tp6226
a(g32
g6
(g18
S'\x0c\xcb\x8d>'
p6227
tp6228
Rp6229
tp6230
a(g108
g6
(g18
S'\xc1\x93o='
p6231
tp6232
Rp6233
tp6234
a(g146
g6
(g18
S'\xdc\xe4\x8a;'
p6235
tp6236
Rp6237
tp6238
a(g15
g6
(g18
S'\xe1\x99~;'
p6239
tp6240
Rp6241
tp6242
asg73
g32
sa(dp6243
g2
S'../../../data/emanuela/activity-recognition/images/NTCIR-Lifelog-256/u2/2015-04-23/b00001265_21i7lf_20150423_144913e.jpg'
p6244
sg4
(lp6245
(g32
g6
(g18
S'%G\x0e?'
p6246
tp6247
Rp6248
tp6249
a(g15
g6
(g18
S'M\xd1\xcc>'
p6250
tp6251
Rp6252
tp6253
a(g96
g6
(g18
S'\x98\x06p<'
p6254
tp6255
Rp6256
tp6257
a(g309
g6
(g18
S'ODX<'
p6258
tp6259
Rp6260
tp6261
a(g281
g6
(g18
S'$\r\xe3;'
p6262
tp6263
Rp6264
tp6265
asg73
g32
sa(dp6266
g2
S'../../../data/emanuela/activity-recognition/images/NTCIR-Lifelog-256/u2/2015-05-08/b00009533_21i7lf_20150508_183913e.jpg'
p6267
sg4
(lp6268
(g15
g6
(g18
S'A\xec\x13?'
p6269
tp6270
Rp6271
tp6272
a(g32
g6
(g18
S'`\xc3\xd0>'
p6273
tp6274
Rp6275
tp6276
a(g56
g6
(g18
S'n\xed\xa1;'
p6277
tp6278
Rp6279
tp6280
a(g44
g6
(g18
S'\xb6r\x88;'
p6281
tp6282
Rp6283
tp6284
a(g96
g6
(g18
S'N/\x06;'
p6285
tp6286
Rp6287
tp6288
asg73
g32
sa(dp6289
g2
S'../../../data/emanuela/activity-recognition/images/NTCIR-Lifelog-256/u2/2015-05-03/b00003963_21i7lf_20150503_163731e.jpg'
p6290
sg4
(lp6291
(g108
g6
(g18
S'\x12R\xdb>'
p6292
tp6293
Rp6294
tp6295
a(g56
g6
(g18
S'\x10\x9d\x97>'
p6296
tp6297
Rp6298
tp6299
a(g32
g6
(g18
S'\xec\xea\x82>'
p6300
tp6301
Rp6302
tp6303
a(g15
g6
(g18
S'\n)\xdd;'
p6304
tp6305
Rp6306
tp6307
a(g44
g6
(g18
S'\x85\xc4s;'
p6308
tp6309
Rp6310
tp6311
asg73
g32
sa(dp6312
g2
S'../../../data/emanuela/activity-recognition/images/NTCIR-Lifelog-256/u2/2015-04-23/b00001242_21i7lf_20150423_143417e.jpg'
p6313
sg4
(lp6314
(g108
g6
(g18
S'\x93\xbdN?'
p6315
tp6316
Rp6317
tp6318
a(g32
g6
(g18
S'\xd9*\xde='
p6319
tp6320
Rp6321
tp6322
a(g56
g6
(g18
S'\xbcCT='
p6323
tp6324
Rp6325
tp6326
a(g15
g6
(g18
S'\x17\x82\xf4<'
p6327
tp6328
Rp6329
tp6330
a(g96
g6
(g18
S'\xf9\x13\xed9'
p6331
tp6332
Rp6333
tp6334
asg73
g32
sa(dp6335
g2
S'../../../data/emanuela/activity-recognition/images/NTCIR-Lifelog-256/u2/2015-04-21/b00000909_21i7lf_20150421_200107e.jpg'
p6336
sg4
(lp6337
(g32
g6
(g18
S'\xc3\x1a\xa4>'
p6338
tp6339
Rp6340
tp6341
a(g68
g6
(g18
S'\xe1\xb1w>'
p6342
tp6343
Rp6344
tp6345
a(g15
g6
(g18
S'b6.>'
p6346
tp6347
Rp6348
tp6349
a(g108
g6
(g18
S'\xack!>'
p6350
tp6351
Rp6352
tp6353
a(g44
g6
(g18
S'\xac\x84\x04='
p6354
tp6355
Rp6356
tp6357
asg73
g32
sa(dp6358
g2
S'../../../data/emanuela/activity-recognition/images/NTCIR-Lifelog-256/u2/2015-04-27/b00005746_21i7lf_20150427_170711e.jpg'
p6359
sg4
(lp6360
(g108
g6
(g18
S'Oo\x11?'
p6361
tp6362
Rp6363
tp6364
a(g281
g6
(g18
S'\x80\x0b|>'
p6365
tp6366
Rp6367
tp6368
a(g32
g6
(g18
S'\xef\xbd#='
p6369
tp6370
Rp6371
tp6372
a(g297
g6
(g18
S'a}\xc3<'
p6373
tp6374
Rp6375
tp6376
a(g68
g6
(g18
S'\xb9\xe7\xa7<'
p6377
tp6378
Rp6379
tp6380
asg73
g32
sa(dp6381
g2
S'../../../data/emanuela/activity-recognition/images/NTCIR-Lifelog-256/u2/2015-05-08/b00009465_21i7lf_20150508_173812e.jpg'
p6382
sg4
(lp6383
(g32
g6
(g18
S'\xd8\xfb\xca>'
p6384
tp6385
Rp6386
tp6387
a(g108
g6
(g18
S'i]\xb4>'
p6388
tp6389
Rp6390
tp6391
a(g56
g6
(g18
S'\x93\xff\xc3='
p6392
tp6393
Rp6394
tp6395
a(g44
g6
(g18
S'\xb3\xc8\x90='
p6396
tp6397
Rp6398
tp6399
a(g15
g6
(g18
S' \x02\xc7<'
p6400
tp6401
Rp6402
tp6403
asg73
g32
sa(dp6404
g2
S'../../../data/emanuela/activity-recognition/images/NTCIR-Lifelog-256/u2/2015-05-08/b00009457_21i7lf_20150508_172942e.jpg'
p6405
sg4
(lp6406
(g146
g6
(g18
S'\xe8\x144?'
p6407
tp6408
Rp6409
tp6410
a(g44
g6
(g18
S'[r\xb8='
p6411
tp6412
Rp6413
tp6414
a(g15
g6
(g18
S'e;\x8c='
p6415
tp6416
Rp6417
tp6418
a(g56
g6
(g18
S'!\x8bv='
p6419
tp6420
Rp6421
tp6422
a(g108
g6
(g18
S'\x15@\x17='
p6423
tp6424
Rp6425
tp6426
asg73
g32
sa(dp6427
g2
S'../../../data/emanuela/activity-recognition/images/NTCIR-Lifelog-256/u2/2015-04-27/b00005774_21i7lf_20150427_172406e.jpg'
p6428
sg4
(lp6429
(g15
g6
(g18
S'\xeb\xc7\xd6>'
p6430
tp6431
Rp6432
tp6433
a(g108
g6
(g18
S'hg]>'
p6434
tp6435
Rp6436
tp6437
a(g32
g6
(g18
S' \x89X>'
p6438
tp6439
Rp6440
tp6441
a(g56
g6
(g18
S'o\xdd\x1f='
p6442
tp6443
Rp6444
tp6445
a(g433
g6
(g18
S'\xf8:\xca<'
p6446
tp6447
Rp6448
tp6449
asg73
g32
sa(dp6450
g2
S'../../../data/emanuela/activity-recognition/images/NTCIR-Lifelog-256/u2/2015-04-21/b00000906_21i7lf_20150421_194902e.jpg'
p6451
sg4
(lp6452
(g32
g6
(g18
S'\xcc\xcb#?'
p6453
tp6454
Rp6455
tp6456
a(g68
g6
(g18
S'\x97\xa5\x04>'
p6457
tp6458
Rp6459
tp6460
a(g44
g6
(g18
S'G\x96\xbf='
p6461
tp6462
Rp6463
tp6464
a(g108
g6
(g18
S'{\xbaL='
p6465
tp6466
Rp6467
tp6468
a(g15
g6
(g18
S'\x10;4='
p6469
tp6470
Rp6471
tp6472
asg73
g32
sa(dp6473
g2
S'../../../data/emanuela/activity-recognition/images/NTCIR-Lifelog-256/u2/2015-05-08/b00009567_21i7lf_20150508_190554e.jpg'
p6474
sg4
(lp6475
(g32
g6
(g18
S'\xdf\x96%?'
p6476
tp6477
Rp6478
tp6479
a(g108
g6
(g18
S'u\xd9\r>'
p6480
tp6481
Rp6482
tp6483
a(g68
g6
(g18
S'\xcf\xad\xf9='
p6484
tp6485
Rp6486
tp6487
a(g146
g6
(g18
S'B\xfak='
p6488
tp6489
Rp6490
tp6491
a(g44
g6
(g18
S'\xe8Z\x04<'
p6492
tp6493
Rp6494
tp6495
asg73
g32
sa(dp6496
g2
S'../../../data/emanuela/activity-recognition/images/NTCIR-Lifelog-256/u2/2015-04-27/b00005823_21i7lf_20150427_175333e.jpg'
p6497
sg4
(lp6498
(g108
g6
(g18
S'\x9d\xa9>?'
p6499
tp6500
Rp6501
tp6502
a(g281
g6
(g18
S'U\x0c\xb0='
p6503
tp6504
Rp6505
tp6506
a(g417
g6
(g18
S'!&0='
p6507
tp6508
Rp6509
tp6510
a(g297
g6
(g18
S'g\xa9\xf0<'
p6511
tp6512
Rp6513
tp6514
a(g68
g6
(g18
S'\x9eX\x8e<'
p6515
tp6516
Rp6517
tp6518
asg73
g32
sa(dp6519
g2
S'../../../data/emanuela/activity-recognition/images/NTCIR-Lifelog-256/u2/2015-04-23/b00001250_21i7lf_20150423_143930e.jpg'
p6520
sg4
(lp6521
(g15
g6
(g18
S'=\x1e#?'
p6522
tp6523
Rp6524
tp6525
a(g32
g6
(g18
S'\xcb]q>'
p6526
tp6527
Rp6528
tp6529
a(g56
g6
(g18
S'\x92\xd8e='
p6530
tp6531
Rp6532
tp6533
a(g108
g6
(g18
S'\xd1`G='
p6534
tp6535
Rp6536
tp6537
a(g239
g6
(g18
S'\x17\xc3\r<'
p6538
tp6539
Rp6540
tp6541
asg73
g32
sa(dp6542
g2
S'../../../data/emanuela/activity-recognition/images/NTCIR-Lifelog-256/u2/2015-04-25/b00003471_21i7lf_20150425_174844e.jpg'
p6543
sg4
(lp6544
(g15
g6
(g18
S'B5/?'
p6545
tp6546
Rp6547
tp6548
a(g56
g6
(g18
S'\x1e\xfa\x10>'
p6549
tp6550
Rp6551
tp6552
a(g239
g6
(g18
S'\x87\x88\x0b>'
p6553
tp6554
Rp6555
tp6556
a(g2849
g6
(g18
S'\xdb\xdc1<'
p6557
tp6558
Rp6559
tp6560
a(g68
g6
(g18
S'\xc2~\xc5;'
p6561
tp6562
Rp6563
tp6564
asg73
g32
sa(dp6565
g2
S'../../../data/emanuela/activity-recognition/images/NTCIR-Lifelog-256/u2/2015-05-08/b00009442_21i7lf_20150508_171917e.jpg'
p6566
sg4
(lp6567
(g56
g6
(g18
S'\xa6hW?'
p6568
tp6569
Rp6570
tp6571
a(g32
g6
(g18
S'h\x12\x96='
p6572
tp6573
Rp6574
tp6575
a(g108
g6
(g18
S'\xae\xbf\x8a='
p6576
tp6577
Rp6578
tp6579
a(g44
g6
(g18
S'6\x16\x04<'
p6580
tp6581
Rp6582
tp6583
a(g15
g6
(g18
S'{J\xdb;'
p6584
tp6585
Rp6586
tp6587
asg73
g32
sa(dp6588
g2
S'../../../data/emanuela/activity-recognition/images/NTCIR-Lifelog-256/u2/2015-04-27/b00005768_21i7lf_20150427_172027e.jpg'
p6589
sg4
(lp6590
(g108
g6
(g18
S'6\x89y>'
p6591
tp6592
Rp6593
tp6594
a(g324
g6
(g18
S'\xaet]>'
p6595
tp6596
Rp6597
tp6598
a(g32
g6
(g18
S'F\x1c>>'
p6599
tp6600
Rp6601
tp6602
a(g340
g6
(g18
S'$B\xed='
p6603
tp6604
Rp6605
tp6606
a(g15
g6
(g18
S'\\\x85O='
p6607
tp6608
Rp6609
tp6610
asg73
g32
sa(dp6611
g2
S'../../../data/emanuela/activity-recognition/images/NTCIR-Lifelog-256/u2/2015-04-27/b00005755_21i7lf_20150427_171234e.jpg'
p6612
sg4
(lp6613
(g108
g6
(g18
S'\xbb\xd2\x94>'
p6614
tp6615
Rp6616
tp6617
a(g1139
g6
(g18
S'Vs1>'
p6618
tp6619
Rp6620
tp6621
a(g297
g6
(g18
S'\xf8X\xd8='
p6622
tp6623
Rp6624
tp6625
a(g68
g6
(g18
S'O\x15\xb0='
p6626
tp6627
Rp6628
tp6629
a(g309
g6
(g18
S'Q\x85\xa4='
p6630
tp6631
Rp6632
tp6633
asg73
g32
sa(dp6634
g2
S'../../../data/emanuela/activity-recognition/images/NTCIR-Lifelog-256/u2/2015-05-01/b00001833_21i7lf_20150501_093942e.jpg'
p6635
sg4
(lp6636
(g15
g6
(g18
S'N8\xc2>'
p6637
tp6638
Rp6639
tp6640
a(g108
g6
(g18
S'\x91\xadt>'
p6641
tp6642
Rp6643
tp6644
a(g281
g6
(g18
S'wZ\xee='
p6645
tp6646
Rp6647
tp6648
a(g56
g6
(g18
S'9\xfa\x8e='
p6649
tp6650
Rp6651
tp6652
a(g32
g6
(g18
S'\xa3\xaah='
p6653
tp6654
Rp6655
tp6656
asg73
g32
sa(dp6657
g2
S'../../../data/emanuela/activity-recognition/images/NTCIR-Lifelog-256/u2/2015-05-01/b00001794_21i7lf_20150501_091529e.jpg'
p6658
sg4
(lp6659
(g108
g6
(g18
S'eB\xc5>'
p6660
tp6661
Rp6662
tp6663
a(g56
g6
(g18
S'\xba\xd3\x95>'
p6664
tp6665
Rp6666
tp6667
a(g32
g6
(g18
S'\x9e\xc5+>'
p6668
tp6669
Rp6670
tp6671
a(g239
g6
(g18
S'\xe9_f='
p6672
tp6673
Rp6674
tp6675
a(g15
g6
(g18
S'\xb3C5='
p6676
tp6677
Rp6678
tp6679
asg73
g32
sa(dp6680
g2
S'../../../data/emanuela/activity-recognition/images/NTCIR-Lifelog-256/u2/2015-05-06/b00007121_21i7lf_20150506_175610e.jpg'
p6681
sg4
(lp6682
(g15
g6
(g18
S'V\x91{?'
p6683
tp6684
Rp6685
tp6686
a(g96
g6
(g18
S'\xb5\xd4\x10<'
p6687
tp6688
Rp6689
tp6690
a(g32
g6
(g18
S'\xb1\xc0\x88;'
p6691
tp6692
Rp6693
tp6694
a(g56
g6
(g18
S'\xac\xb8\xe3:'
p6695
tp6696
Rp6697
tp6698
a(g44
g6
(g18
S'r\xc5z:'
p6699
tp6700
Rp6701
tp6702
asg73
g32
sa(dp6703
g2
S'../../../data/emanuela/activity-recognition/images/NTCIR-Lifelog-256/u2/2015-05-08/b00009569_21i7lf_20150508_190710e.jpg'
p6704
sg4
(lp6705
(g146
g6
(g18
S'\x0e\xb0D?'
p6706
tp6707
Rp6708
tp6709
a(g15
g6
(g18
S'9\xf9\x10>'
p6710
tp6711
Rp6712
tp6713
a(g44
g6
(g18
S'\xc2\xd4.='
p6714
tp6715
Rp6716
tp6717
a(g56
g6
(g18
S'\xa4\xea\xae<'
p6718
tp6719
Rp6720
tp6721
a(g32
g6
(g18
S'\x1f2z<'
p6722
tp6723
Rp6724
tp6725
asg73
g32
sa(dp6726
g2
S'../../../data/emanuela/activity-recognition/images/NTCIR-Lifelog-256/u2/2015-05-03/b00003960_21i7lf_20150503_163535e.jpg'
p6727
sg4
(lp6728
(g32
g6
(g18
S'tw\xc0>'
p6729
tp6730
Rp6731
tp6732
a(g108
g6
(g18
S'\xff{\xb4>'
p6733
tp6734
Rp6735
tp6736
a(g15
g6
(g18
S'\xb8\x1f\x04>'
p6737
tp6738
Rp6739
tp6740
a(g56
g6
(g18
S'\xe3#\xf6='
p6741
tp6742
Rp6743
tp6744
a(g324
g6
(g18
S'\xb4D^;'
p6745
tp6746
Rp6747
tp6748
asg73
g32
sa(dp6749
g2
S'../../../data/emanuela/activity-recognition/images/NTCIR-Lifelog-256/u2/2015-04-27/b00005814_21i7lf_20150427_174812e.jpg'
p6750
sg4
(lp6751
(g108
g6
(g18
S'I\xf0{?'
p6752
tp6753
Rp6754
tp6755
a(g56
g6
(g18
S'h\x85 <'
p6756
tp6757
Rp6758
tp6759
a(g44
g6
(g18
S'\x04\x8d\x98:'
p6760
tp6761
Rp6762
tp6763
a(g297
g6
(g18
S'i?V:'
p6764
tp6765
Rp6766
tp6767
a(g309
g6
(g18
S'\x92K=:'
p6768
tp6769
Rp6770
tp6771
asg73
g32
sa(dp6772
g2
S'../../../data/emanuela/activity-recognition/images/NTCIR-Lifelog-256/u2/2015-04-27/b00005745_21i7lf_20150427_170640e.jpg'
p6773
sg4
(lp6774
(g32
g6
(g18
S'\xdcM9?'
p6775
tp6776
Rp6777
tp6778
a(g15
g6
(g18
S':1\x90='
p6779
tp6780
Rp6781
tp6782
a(g281
g6
(g18
S'$\xb8m='
p6783
tp6784
Rp6785
tp6786
a(g324
g6
(g18
S'r{\xb1<'
p6787
tp6788
Rp6789
tp6790
a(g309
g6
(g18
S'8\xc3\xad<'
p6791
tp6792
Rp6793
tp6794
asg73
g32
sa(dp6795
g2
S'../../../data/emanuela/activity-recognition/images/NTCIR-Lifelog-256/u2/2015-05-08/b00009525_21i7lf_20150508_183332e.jpg'
p6796
sg4
(lp6797
(g96
g6
(g18
S'!\xb4*?'
p6798
tp6799
Rp6800
tp6801
a(g68
g6
(g18
S'.G >'
p6802
tp6803
Rp6804
tp6805
a(g32
g6
(g18
S'\xc0\xa5\xa6='
p6806
tp6807
Rp6808
tp6809
a(g15
g6
(g18
S'+B2='
p6810
tp6811
Rp6812
tp6813
a(g146
g6
(g18
S'g\xcf\x85<'
p6814
tp6815
Rp6816
tp6817
asg73
g32
sa(dp6818
g2
S'../../../data/emanuela/activity-recognition/images/NTCIR-Lifelog-256/u2/2015-04-27/b00005753_21i7lf_20150427_171126e.jpg'
p6819
sg4
(lp6820
(g281
g6
(g18
S'3y=>'
p6821
tp6822
Rp6823
tp6824
a(g68
g6
(g18
S'\x07\xd7.>'
p6825
tp6826
Rp6827
tp6828
a(g44
g6
(g18
S'\x9f\xb4\x00>'
p6829
tp6830
Rp6831
tp6832
a(g506
g6
(g18
S'q\xf0\xdf='
p6833
tp6834
Rp6835
tp6836
a(g108
g6
(g18
S'\x86D\xdf='
p6837
tp6838
Rp6839
tp6840
asg73
g32
sa(dp6841
g2
S'../../../data/emanuela/activity-recognition/images/NTCIR-Lifelog-256/u2/2015-04-21/b00000896_21i7lf_20150421_193705e.jpg'
p6842
sg4
(lp6843
(g32
g6
(g18
S'\x8d}!?'
p6844
tp6845
Rp6846
tp6847
a(g68
g6
(g18
S'n\x85<>'
p6848
tp6849
Rp6850
tp6851
a(g15
g6
(g18
S'\xf7K\xcb='
p6852
tp6853
Rp6854
tp6855
a(g96
g6
(g18
S'\xab\xba\xd8<'
p6856
tp6857
Rp6858
tp6859
a(g44
g6
(g18
S'\x82\x9fq<'
p6860
tp6861
Rp6862
tp6863
asg73
g32
sa(dp6864
g2
S'../../../data/emanuela/activity-recognition/images/NTCIR-Lifelog-256/u2/2015-04-27/b00005742_21i7lf_20150427_170444e.jpg'
p6865
sg4
(lp6866
(g108
g6
(g18
S'\xa8\xe5z?'
p6867
tp6868
Rp6869
tp6870
a(g56
g6
(g18
S'\r\xbb\x86<'
p6871
tp6872
Rp6873
tp6874
a(g32
g6
(g18
S'\xe4\xd6M;'
p6875
tp6876
Rp6877
tp6878
a(g324
g6
(g18
S'W\xbf\xd38'
p6879
tp6880
Rp6881
tp6882
a(g44
g6
(g18
S'\xb4\xb1\xc28'
p6883
tp6884
Rp6885
tp6886
asg73
g32
sa(dp6887
g2
S'../../../data/emanuela/activity-recognition/images/NTCIR-Lifelog-256/u2/2015-04-27/b00005839_21i7lf_20150427_180305e.jpg'
p6888
sg4
(lp6889
(g108
g6
(g18
S'\xb4\x11\xfb>'
p6890
tp6891
Rp6892
tp6893
a(g281
g6
(g18
S'DG\xb3>'
p6894
tp6895
Rp6896
tp6897
a(g417
g6
(g18
S'0N\x1d='
p6898
tp6899
Rp6900
tp6901
a(g340
g6
(g18
S'59\xf2<'
p6902
tp6903
Rp6904
tp6905
a(g297
g6
(g18
S'\xf9\x15\xd6<'
p6906
tp6907
Rp6908
tp6909
asg73
g32
sa(dp6910
g2
S'../../../data/emanuela/activity-recognition/images/NTCIR-Lifelog-256/u2/2015-04-27/b00005792_21i7lf_20150427_173528e.jpg'
p6911
sg4
(lp6912
(g108
g6
(g18
S'_\xfbR?'
p6913
tp6914
Rp6915
tp6916
a(g281
g6
(g18
S'\xfc\xe7\x9a='
p6917
tp6918
Rp6919
tp6920
a(g297
g6
(g18
S'Kw\x97<'
p6921
tp6922
Rp6923
tp6924
a(g32
g6
(g18
S'vN><'
p6925
tp6926
Rp6927
tp6928
a(g309
g6
(g18
S'\x13\x856<'
p6929
tp6930
Rp6931
tp6932
asg73
g32
sa(dp6933
g2
S'../../../data/emanuela/activity-recognition/images/NTCIR-Lifelog-256/u2/2015-05-08/b00009583_21i7lf_20150508_191058e.jpg'
p6934
sg4
(lp6935
(g146
g6
(g18
S'\x0b>^?'
p6936
tp6937
Rp6938
tp6939
a(g15
g6
(g18
S'\xd6\xda\xa3='
p6940
tp6941
Rp6942
tp6943
a(g108
g6
(g18
S'(\x99\x98<'
p6944
tp6945
Rp6946
tp6947
a(g32
g6
(g18
S'tq,<'
p6948
tp6949
Rp6950
tp6951
a(g56
g6
(g18
S'\x8f;\xe3;'
p6952
tp6953
Rp6954
tp6955
asg73
g32
sa(dp6956
g2
S'../../../data/emanuela/activity-recognition/images/NTCIR-Lifelog-256/u2/2015-04-27/b00005788_21i7lf_20150427_173256e.jpg'
p6957
sg4
(lp6958
(g108
g6
(g18
S'\x9d\x18,?'
p6959
tp6960
Rp6961
tp6962
a(g281
g6
(g18
S'F\r#>'
p6963
tp6964
Rp6965
tp6966
a(g417
g6
(g18
S'\x0f\xc5\x95='
p6967
tp6968
Rp6969
tp6970
a(g297
g6
(g18
S'\xed\xd3\x03='
p6971
tp6972
Rp6973
tp6974
a(g68
g6
(g18
S'B\x8cg<'
p6975
tp6976
Rp6977
tp6978
asg73
g32
sa(dp6979
g2
S'../../../data/emanuela/activity-recognition/images/NTCIR-Lifelog-256/u2/2015-04-21/b00000873_21i7lf_20150421_191559e.jpg'
p6980
sg4
(lp6981
(g32
g6
(g18
S'\x14S\x15?'
p6982
tp6983
Rp6984
tp6985
a(g108
g6
(g18
S'\xe2\xf7\x17>'
p6986
tp6987
Rp6988
tp6989
a(g15
g6
(g18
S'R\x14\x03>'
p6990
tp6991
Rp6992
tp6993
a(g68
g6
(g18
S'ts4='
p6994
tp6995
Rp6996
tp6997
a(g44
g6
(g18
S'5\xc7$='
p6998
tp6999
Rp7000
tp7001
asg73
g32
sa(dp7002
g2
S'../../../data/emanuela/activity-recognition/images/NTCIR-Lifelog-256/u2/2015-04-25/b00003462_21i7lf_20150425_174316e.jpg'
p7003
sg4
(lp7004
(g96
g6
(g18
S'&\x18.?'
p7005
tp7006
Rp7007
tp7008
a(g15
g6
(g18
S'\xbc\x0f\xa1>'
p7009
tp7010
Rp7011
tp7012
a(g239
g6
(g18
S'(\x07F;'
p7013
tp7014
Rp7015
tp7016
a(g32
g6
(g18
S'\n\x1f6:'
p7017
tp7018
Rp7019
tp7020
a(g309
g6
(g18
S'z\xe0\xc69'
p7021
tp7022
Rp7023
tp7024
asg73
g32
sa(dp7025
g2
S'../../../data/emanuela/activity-recognition/images/NTCIR-Lifelog-256/u2/2015-05-08/b00009535_21i7lf_20150508_184032e.jpg'
p7026
sg4
(lp7027
(g44
g6
(g18
S'\xd4\xc0\x01?'
p7028
tp7029
Rp7030
tp7031
a(g32
g6
(g18
S'\x96\xba\x81>'
p7032
tp7033
Rp7034
tp7035
a(g56
g6
(g18
S'\xbb\xa8N='
p7036
tp7037
Rp7038
tp7039
a(g340
g6
(g18
S'\x1fKJ='
p7040
tp7041
Rp7042
tp7043
a(g15
g6
(g18
S'D8C='
p7044
tp7045
Rp7046
tp7047
asg73
g32
sa(dp7048
g2
S'../../../data/emanuela/activity-recognition/images/NTCIR-Lifelog-256/u2/2015-05-03/b00003948_21i7lf_20150503_162729e.jpg'
p7049
sg4
(lp7050
(g56
g6
(g18
S'\x18P\x0c?'
p7051
tp7052
Rp7053
tp7054
a(g32
g6
(g18
S'\xb9\x97\x9a>'
p7055
tp7056
Rp7057
tp7058
a(g108
g6
(g18
S'\n\x12\xbc='
p7059
tp7060
Rp7061
tp7062
a(g15
g6
(g18
S'J\xb8X='
p7063
tp7064
Rp7065
tp7066
a(g146
g6
(g18
S'\xe6\xef\x9c:'
p7067
tp7068
Rp7069
tp7070
asg73
g32
sa(dp7071
g2
S'../../../data/emanuela/activity-recognition/images/NTCIR-Lifelog-256/u2/2015-04-21/b00000916_21i7lf_20150421_201246e.jpg'
p7072
sg4
(lp7073
(g32
g6
(g18
S'-l\xbf>'
p7074
tp7075
Rp7076
tp7077
a(g15
g6
(g18
S'\xcc\xde\xa5>'
p7078
tp7079
Rp7080
tp7081
a(g239
g6
(g18
S'0\x8c\xe2='
p7082
tp7083
Rp7084
tp7085
a(g68
g6
(g18
S'C(\xa8='
p7086
tp7087
Rp7088
tp7089
a(g96
g6
(g18
S'(\x8d\xa0='
p7090
tp7091
Rp7092
tp7093
asg73
g32
sa(dp7094
g2
S'../../../data/emanuela/activity-recognition/images/NTCIR-Lifelog-256/u2/2015-05-08/b00009562_21i7lf_20150508_190216e.jpg'
p7095
sg4
(lp7096
(g417
g6
(g18
S'\x0f<\x98>'
p7097
tp7098
Rp7099
tp7100
a(g146
g6
(g18
S'j?0>'
p7101
tp7102
Rp7103
tp7104
a(g433
g6
(g18
S'\xa2f\xd0='
p7105
tp7106
Rp7107
tp7108
a(g108
g6
(g18
S'\xaa\x7f\xc5='
p7109
tp7110
Rp7111
tp7112
a(g32
g6
(g18
S'J<\xbd='
p7113
tp7114
Rp7115
tp7116
asg73
g32
sa(dp7117
g2
S'../../../data/emanuela/activity-recognition/images/NTCIR-Lifelog-256/u2/2015-04-23/b00001244_21i7lf_20150423_143538e.jpg'
p7118
sg4
(lp7119
(g32
g6
(g18
S'\xda\x9c\n?'
p7120
tp7121
Rp7122
tp7123
a(g108
g6
(g18
S'\x9eyX>'
p7124
tp7125
Rp7126
tp7127
a(g15
g6
(g18
S'\xe0\xa3\x1b>'
p7128
tp7129
Rp7130
tp7131
a(g56
g6
(g18
S'4\x83y='
p7132
tp7133
Rp7134
tp7135
a(g309
g6
(g18
S'\x89\xff\x15<'
p7136
tp7137
Rp7138
tp7139
asg73
g32
sa(dp7140
g2
S'../../../data/emanuela/activity-recognition/images/NTCIR-Lifelog-256/u2/2015-04-23/b00001254_21i7lf_20150423_144202e.jpg'
p7141
sg4
(lp7142
(g239
g6
(g18
S'\x193L?'
p7143
tp7144
Rp7145
tp7146
a(g15
g6
(g18
S'\x8b_\n>'
p7147
tp7148
Rp7149
tp7150
a(g68
g6
(g18
S'&\xee\x00='
p7151
tp7152
Rp7153
tp7154
a(g537
g6
(g18
S'\xa2\xfbQ<'
p7155
tp7156
Rp7157
tp7158
a(g32
g6
(g18
S'\xa2b@<'
p7159
tp7160
Rp7161
tp7162
asg73
g32
sa(dp7163
g2
S'../../../data/emanuela/activity-recognition/images/NTCIR-Lifelog-256/u2/2015-05-08/b00009456_21i7lf_20150508_172907e.jpg'
p7164
sg4
(lp7165
(g146
g6
(g18
S'\x11R4?'
p7166
tp7167
Rp7168
tp7169
a(g108
g6
(g18
S'\x11\x96\xf8='
p7170
tp7171
Rp7172
tp7173
a(g15
g6
(g18
S'\x94U\xb4='
p7174
tp7175
Rp7176
tp7177
a(g433
g6
(g18
S'm\x8d2='
p7178
tp7179
Rp7180
tp7181
a(g96
g6
(g18
S'<\xff\x13<'
p7182
tp7183
Rp7184
tp7185
asg73
g32
sa(dp7186
g2
S'../../../data/emanuela/activity-recognition/images/NTCIR-Lifelog-256/u2/2015-05-08/b00009440_21i7lf_20150508_171805e.jpg'
p7187
sg4
(lp7188
(g56
g6
(g18
S'\xcc\x891?'
p7189
tp7190
Rp7191
tp7192
a(g108
g6
(g18
S':\xbcK>'
p7193
tp7194
Rp7195
tp7196
a(g32
g6
(g18
S'dT\xc6='
p7197
tp7198
Rp7199
tp7200
a(g15
g6
(g18
S'\x88\x8e\x95;'
p7201
tp7202
Rp7203
tp7204
a(g44
g6
(g18
S'\xdeYr;'
p7205
tp7206
Rp7207
tp7208
asg73
g32
sa(dp7209
g2
S'../../../data/emanuela/activity-recognition/images/NTCIR-Lifelog-256/u2/2015-05-08/b00009565_21i7lf_20150508_190445e.jpg'
p7210
sg4
(lp7211
(g32
g6
(g18
S'm\xba&?'
p7212
tp7213
Rp7214
tp7215
a(g56
g6
(g18
S'\xde\xef\x07>'
p7216
tp7217
Rp7218
tp7219
a(g15
g6
(g18
S'dt\\='
p7220
tp7221
Rp7222
tp7223
a(g44
g6
(g18
S'nV=='
p7224
tp7225
Rp7226
tp7227
a(g68
g6
(g18
S'\x11\xe5#='
p7228
tp7229
Rp7230
tp7231
asg73
g32
sa(dp7232
g2
S'../../../data/emanuela/activity-recognition/images/NTCIR-Lifelog-256/u2/2015-05-08/b00009473_21i7lf_20150508_174415e.jpg'
p7233
sg4
(lp7234
(g146
g6
(g18
S'\xd7\x7fu?'
p7235
tp7236
Rp7237
tp7238
a(g15
g6
(g18
S'\xbf\xfa\xcf<'
p7239
tp7240
Rp7241
tp7242
a(g44
g6
(g18
S'\xa7\x1f\xbd;'
p7243
tp7244
Rp7245
tp7246
a(g108
g6
(g18
S'\xfe\xc8\x8d;'
p7247
tp7248
Rp7249
tp7250
a(g68
g6
(g18
S'E\xad\x1f;'
p7251
tp7252
Rp7253
tp7254
asg73
g32
sa(dp7255
g2
S'../../../data/emanuela/activity-recognition/images/NTCIR-Lifelog-256/u2/2015-04-21/b00000886_21i7lf_20150421_192515e.jpg'
p7256
sg4
(lp7257
(g32
g6
(g18
S'\x89R\x1d?'
p7258
tp7259
Rp7260
tp7261
a(g15
g6
(g18
S'\x0bo\xff='
p7262
tp7263
Rp7264
tp7265
a(g108
g6
(g18
S'\xad\x86\xb6='
p7266
tp7267
Rp7268
tp7269
a(g68
g6
(g18
S'y:s='
p7270
tp7271
Rp7272
tp7273
a(g44
g6
(g18
S'$S>='
p7274
tp7275
Rp7276
tp7277
asg73
g32
sa(dp7278
g2
S'../../../data/emanuela/activity-recognition/images/NTCIR-Lifelog-256/u2/2015-05-06/b00007126_21i7lf_20150506_175921e.jpg'
p7279
sg4
(lp7280
(g15
g6
(g18
S'^\xf8O?'
p7281
tp7282
Rp7283
tp7284
a(g32
g6
(g18
S'\xe2\xd4.>'
p7285
tp7286
Rp7287
tp7288
a(g56
g6
(g18
S'\xea\xf2\xaa;'
p7289
tp7290
Rp7291
tp7292
a(g44
g6
(g18
S'\x1e\x1e\x84;'
p7293
tp7294
Rp7295
tp7296
a(g68
g6
(g18
S'w\xc1\xeb:'
p7297
tp7298
Rp7299
tp7300
asg73
g32
sa(dp7301
g2
S'../../../data/emanuela/activity-recognition/images/NTCIR-Lifelog-256/u2/2015-05-08/b00009470_21i7lf_20150508_174133e.jpg'
p7302
sg4
(lp7303
(g15
g6
(g18
S'\xcb\xb2\x14?'
p7304
tp7305
Rp7306
tp7307
a(g146
g6
(g18
S'\x16\x05\xb6>'
p7308
tp7309
Rp7310
tp7311
a(g44
g6
(g18
S'\x8a \xf0<'
p7312
tp7313
Rp7314
tp7315
a(g56
g6
(g18
S'+\x92=<'
p7316
tp7317
Rp7318
tp7319
a(g32
g6
(g18
S'\xee\x0c\xbc;'
p7320
tp7321
Rp7322
tp7323
asg73
g32
sa(dp7324
g2
S'../../../data/emanuela/activity-recognition/images/NTCIR-Lifelog-256/u2/2015-05-06/b00007182_21i7lf_20150506_183422e.jpg'
p7325
sg4
(lp7326
(g15
g6
(g18
S'\x12\xf3J?'
p7327
tp7328
Rp7329
tp7330
a(g32
g6
(g18
S'J\xae\t>'
p7331
tp7332
Rp7333
tp7334
a(g56
g6
(g18
S'\xd4\xa2\xef<'
p7335
tp7336
Rp7337
tp7338
a(g239
g6
(g18
S'\x1e\xffG<'
p7339
tp7340
Rp7341
tp7342
a(g108
g6
(g18
S'\x88I\xd2;'
p7343
tp7344
Rp7345
tp7346
asg73
g32
sa(dp7347
g2
S'../../../data/emanuela/activity-recognition/images/NTCIR-Lifelog-256/u2/2015-04-27/b00005794_21i7lf_20150427_173640e.jpg'
p7348
sg4
(lp7349
(g108
g6
(g18
S'\xc3\x85<?'
p7350
tp7351
Rp7352
tp7353
a(g281
g6
(g18
S'\xd4\x9b\xe3='
p7354
tp7355
Rp7356
tp7357
a(g32
g6
(g18
S'N\x0c\x17='
p7358
tp7359
Rp7360
tp7361
a(g44
g6
(g18
S'\x04\xe0\xce<'
p7362
tp7363
Rp7364
tp7365
a(g417
g6
(g18
S'\xcfR\x9b<'
p7366
tp7367
Rp7368
tp7369
asg73
g32
sa(dp7370
g2
S'../../../data/emanuela/activity-recognition/images/NTCIR-Lifelog-256/u2/2015-04-25/b00003702_21i7lf_20150425_201919e.jpg'
p7371
sg4
(lp7372
(g56
g6
(g18
S'T\xe6@?'
p7373
tp7374
Rp7375
tp7376
a(g15
g6
(g18
S'>\xc4\x9d='
p7377
tp7378
Rp7379
tp7380
a(g32
g6
(g18
S'w\xb9c='
p7381
tp7382
Rp7383
tp7384
a(g239
g6
(g18
S'-\xac!='
p7385
tp7386
Rp7387
tp7388
a(g108
g6
(g18
S'>\x00\x89<'
p7389
tp7390
Rp7391
tp7392
asg73
g32
sa(dp7393
g2
S'../../../data/emanuela/activity-recognition/images/NTCIR-Lifelog-256/u2/2015-04-26/b00004189_21i7lf_20150426_161136e.jpg'
p7394
sg4
(lp7395
(g108
g6
(g18
S'\xb2M\xd4>'
p7396
tp7397
Rp7398
tp7399
a(g324
g6
(g18
S'=[\xa1>'
p7400
tp7401
Rp7402
tp7403
a(g68
g6
(g18
S'\xb7\xe0\xcf='
p7404
tp7405
Rp7406
tp7407
a(g32
g6
(g18
S'\xa9\xd7\x87='
p7408
tp7409
Rp7410
tp7411
a(g56
g6
(g18
S'\xc1\x8d\x03='
p7412
tp7413
Rp7414
tp7415
asg73
g32
sa(dp7416
g2
S'../../../data/emanuela/activity-recognition/images/NTCIR-Lifelog-256/u2/2015-04-21/b00000917_21i7lf_20150421_201329e.jpg'
p7417
sg4
(lp7418
(g32
g6
(g18
S'\x86cp?'
p7419
tp7420
Rp7421
tp7422
a(g15
g6
(g18
S'\xef?\x91<'
p7423
tp7424
Rp7425
tp7426
a(g108
g6
(g18
S'\x0bNp<'
p7427
tp7428
Rp7429
tp7430
a(g56
g6
(g18
S"'>><"
p7431
tp7432
Rp7433
tp7434
a(g68
g6
(g18
S'\xc9\xeb\xf9;'
p7435
tp7436
Rp7437
tp7438
asg73
g32
sa(dp7439
g2
S'../../../data/emanuela/activity-recognition/images/NTCIR-Lifelog-256/u2/2015-05-03/b00003966_21i7lf_20150503_163927e.jpg'
p7440
sg4
(lp7441
(g108
g6
(g18
S'\x082\xf5>'
p7442
tp7443
Rp7444
tp7445
a(g32
g6
(g18
S'\x88\xf2\xa0>'
p7446
tp7447
Rp7448
tp7449
a(g56
g6
(g18
S'\x96\x17\xf6='
p7450
tp7451
Rp7452
tp7453
a(g15
g6
(g18
S'2N$='
p7454
tp7455
Rp7456
tp7457
a(g146
g6
(g18
S'\x03\x14I<'
p7458
tp7459
Rp7460
tp7461
asg73
g32
sa(dp7462
g2
S'../../../data/emanuela/activity-recognition/images/NTCIR-Lifelog-256/u2/2015-04-26/b00004187_21i7lf_20150426_161026e.jpg'
p7463
sg4
(lp7464
(g32
g6
(g18
S'\x90\xe7q>'
p7465
tp7466
Rp7467
tp7468
a(g56
g6
(g18
S'\xd6\x8fq>'
p7469
tp7470
Rp7471
tp7472
a(g68
g6
(g18
S'(\x96\x0b>'
p7473
tp7474
Rp7475
tp7476
a(g324
g6
(g18
S'\xb2f\xfa='
p7477
tp7478
Rp7479
tp7480
a(g15
g6
(g18
S'O\x12\x8d='
p7481
tp7482
Rp7483
tp7484
asg73
g32
sa(dp7485
g2
S'../../../data/emanuela/activity-recognition/images/NTCIR-Lifelog-256/u2/2015-04-21/b00000901_21i7lf_20150421_194012e.jpg'
p7486
sg4
(lp7487
(g32
g6
(g18
S'\x83\xe6\x15?'
p7488
tp7489
Rp7490
tp7491
a(g68
g6
(g18
S'=\xa7V>'
p7492
tp7493
Rp7494
tp7495
a(g108
g6
(g18
S'\xe6n\x98='
p7496
tp7497
Rp7498
tp7499
a(g96
g6
(g18
S'B\xf4\x12='
p7500
tp7501
Rp7502
tp7503
a(g44
g6
(g18
S'w\xf0\x10='
p7504
tp7505
Rp7506
tp7507
asg73
g32
sa(dp7508
g2
S'../../../data/emanuela/activity-recognition/images/NTCIR-Lifelog-256/u2/2015-04-23/b00001260_21i7lf_20150423_144556e.jpg'
p7509
sg4
(lp7510
(g108
g6
(g18
S'b\xa2+?'
p7511
tp7512
Rp7513
tp7514
a(g56
g6
(g18
S'6\xbd%>'
p7515
tp7516
Rp7517
tp7518
a(g32
g6
(g18
S'\xac\x92\n>'
p7519
tp7520
Rp7521
tp7522
a(g15
g6
(g18
S'R`\xe5<'
p7523
tp7524
Rp7525
tp7526
a(g309
g6
(g18
S'\xa2\xa0\xa5:'
p7527
tp7528
Rp7529
tp7530
asg73
g32
sa(dp7531
g2
S'../../../data/emanuela/activity-recognition/images/NTCIR-Lifelog-256/u2/2015-05-08/b00009482_21i7lf_20150508_175214e.jpg'
p7532
sg4
(lp7533
(g15
g6
(g18
S'\xa5^]?'
p7534
tp7535
Rp7536
tp7537
a(g146
g6
(g18
S'\x1e\xd2\xb1='
p7538
tp7539
Rp7540
tp7541
a(g32
g6
(g18
S'\x99BS<'
p7542
tp7543
Rp7544
tp7545
a(g56
g6
(g18
S'\x07\x1a1<'
p7546
tp7547
Rp7548
tp7549
a(g44
g6
(g18
S'-\xbe\x00<'
p7550
tp7551
Rp7552
tp7553
asg73
g32
sa(dp7554
g2
S'../../../data/emanuela/activity-recognition/images/NTCIR-Lifelog-256/u2/2015-04-27/b00005752_21i7lf_20150427_171053e.jpg'
p7555
sg4
(lp7556
(g239
g6
(g18
S'jqd>'
p7557
tp7558
Rp7559
tp7560
a(g68
g6
(g18
S'\xa4\x0eG>'
p7561
tp7562
Rp7563
tp7564
a(g15
g6
(g18
S'\xc3P:>'
p7565
tp7566
Rp7567
tp7568
a(g32
g6
(g18
S'\x14B\xc7='
p7569
tp7570
Rp7571
tp7572
a(g44
g6
(g18
S'\x8a\xdc\x84='
p7573
tp7574
Rp7575
tp7576
asg73
g32
sa(dp7577
g2
S'../../../data/emanuela/activity-recognition/images/NTCIR-Lifelog-256/u2/2015-05-06/b00007097_21i7lf_20150506_174054e.jpg'
p7578
sg4
(lp7579
(g15
g6
(g18
S'\x0f/!?'
p7580
tp7581
Rp7582
tp7583
a(g32
g6
(g18
S'\xf3\xc7\x84>'
p7584
tp7585
Rp7586
tp7587
a(g68
g6
(g18
S'\x95\xa7\x0c='
p7588
tp7589
Rp7590
tp7591
a(g56
g6
(g18
S'\xed\xad\xd7<'
p7592
tp7593
Rp7594
tp7595
a(g44
g6
(g18
S'\x01\xbfz<'
p7596
tp7597
Rp7598
tp7599
asg73
g32
sa(dp7600
g2
S'../../../data/emanuela/activity-recognition/images/NTCIR-Lifelog-256/u2/2015-04-27/b00005772_21i7lf_20150427_172300e.jpg'
p7601
sg4
(lp7602
(g108
g6
(g18
S'\xb4\xccu?'
p7603
tp7604
Rp7605
tp7606
a(g56
g6
(g18
S'd\xeb\t='
p7607
tp7608
Rp7609
tp7610
a(g44
g6
(g18
S't\xa0\x0b;'
p7611
tp7612
Rp7613
tp7614
a(g340
g6
(g18
S'\x9bq\x85:'
p7615
tp7616
Rp7617
tp7618
a(g32
g6
(g18
S'fAe:'
p7619
tp7620
Rp7621
tp7622
asg73
g32
sa(dp7623
g2
S'../../../data/emanuela/activity-recognition/images/NTCIR-Lifelog-256/u2/2015-04-21/b00000879_21i7lf_20150421_192012e.jpg'
p7624
sg4
(lp7625
(g32
g6
(g18
S'\x80z\xc3>'
p7626
tp7627
Rp7628
tp7629
a(g15
g6
(g18
S'=h]>'
p7630
tp7631
Rp7632
tp7633
a(g68
g6
(g18
S'\x133X>'
p7634
tp7635
Rp7636
tp7637
a(g108
g6
(g18
S'3\xbcu='
p7638
tp7639
Rp7640
tp7641
a(g96
g6
(g18
S'\x1b\xdaQ='
p7642
tp7643
Rp7644
tp7645
asg73
g32
sa(dp7646
g2
S'../../../data/emanuela/activity-recognition/images/NTCIR-Lifelog-256/u2/2015-05-03/b00003955_21i7lf_20150503_163229e.jpg'
p7647
sg4
(lp7648
(g108
g6
(g18
S'\xbe\x8bn?'
p7649
tp7650
Rp7651
tp7652
a(g56
g6
(g18
S'\x8e\x02\x08='
p7653
tp7654
Rp7655
tp7656
a(g32
g6
(g18
S'z\xe7\x05='
p7657
tp7658
Rp7659
tp7660
a(g15
g6
(g18
S'A6\xa0:'
p7661
tp7662
Rp7663
tp7664
a(g146
g6
(g18
S'\x86\x0e\x8c9'
p7665
tp7666
Rp7667
tp7668
asg73
g32
sa(dp7669
g2
S'../../../data/emanuela/activity-recognition/images/NTCIR-Lifelog-256/u2/2015-04-27/b00005744_21i7lf_20150427_170558e.jpg'
p7670
sg4
(lp7671
(g108
g6
(g18
S'\xdfhz?'
p7672
tp7673
Rp7674
tp7675
a(g56
g6
(g18
S'\xcc\xddW<'
p7676
tp7677
Rp7678
tp7679
a(g32
g6
(g18
S'6\xf6\x97;'
p7680
tp7681
Rp7682
tp7683
a(g340
g6
(g18
S'1:\xa6:'
p7684
tp7685
Rp7686
tp7687
a(g324
g6
(g18
S'\x06\xd1\xa3:'
p7688
tp7689
Rp7690
tp7691
asg73
g32
sa(dp7692
g2
S'../../../data/emanuela/activity-recognition/images/NTCIR-Lifelog-256/u2/2015-05-01/b00001791_21i7lf_20150501_091338e.jpg'
p7693
sg4
(lp7694
(g32
g6
(g18
S'\xa6\x1f\x14?'
p7695
tp7696
Rp7697
tp7698
a(g56
g6
(g18
S'2\x05x>'
p7699
tp7700
Rp7701
tp7702
a(g15
g6
(g18
S'\x82\x15g='
p7703
tp7704
Rp7705
tp7706
a(g108
g6
(g18
S'\x04\xb6S='
p7707
tp7708
Rp7709
tp7710
a(g44
g6
(g18
S'\xa2\xa7\x93<'
p7711
tp7712
Rp7713
tp7714
asg73
g32
sa(dp7715
g2
S'../../../data/emanuela/activity-recognition/images/NTCIR-Lifelog-256/u2/2015-05-08/b00009438_21i7lf_20150508_171649e.jpg'
p7716
sg4
(lp7717
(g56
g6
(g18
S'c\x85\xd5>'
p7718
tp7719
Rp7720
tp7721
a(g44
g6
(g18
S'\x9a\xf9\x84>'
p7722
tp7723
Rp7724
tp7725
a(g108
g6
(g18
S'\x1e\xb8=>'
p7726
tp7727
Rp7728
tp7729
a(g32
g6
(g18
S'\xf7f\xf0='
p7730
tp7731
Rp7732
tp7733
a(g146
g6
(g18
S'\x98\xd3A<'
p7734
tp7735
Rp7736
tp7737
asg73
g32
sa(dp7738
g2
S'../../../data/emanuela/activity-recognition/images/NTCIR-Lifelog-256/u2/2015-04-21/b00000869_21i7lf_20150421_191120e.jpg'
p7739
sg4
(lp7740
(g32
g6
(g18
S'\x04\xd55?'
p7741
tp7742
Rp7743
tp7744
a(g96
g6
(g18
S'\xad\xe1\xe1='
p7745
tp7746
Rp7747
tp7748
a(g68
g6
(g18
S'O\x81b='
p7749
tp7750
Rp7751
tp7752
a(g433
g6
(g18
S'\x96\xe3\xee<'
p7753
tp7754
Rp7755
tp7756
a(g56
g6
(g18
S'\xb3*\xd2<'
p7757
tp7758
Rp7759
tp7760
asg73
g32
sa(dp7761
g2
S'../../../data/emanuela/activity-recognition/images/NTCIR-Lifelog-256/u2/2015-04-23/b00001264_21i7lf_20150423_144840e.jpg'
p7762
sg4
(lp7763
(g32
g6
(g18
S'\xd5~\xf4>'
p7764
tp7765
Rp7766
tp7767
a(g15
g6
(g18
S'\xd8\x14Y>'
p7768
tp7769
Rp7770
tp7771
a(g108
g6
(g18
S'\xc7*K>'
p7772
tp7773
Rp7774
tp7775
a(g56
g6
(g18
S'\x0b\x8b\xb8='
p7776
tp7777
Rp7778
tp7779
a(g239
g6
(g18
S'\xf3\x99\x04<'
p7780
tp7781
Rp7782
tp7783
asg73
g32
sa(dp7784
g2
S'../../../data/emanuela/activity-recognition/images/NTCIR-Lifelog-256/u2/2015-05-08/b00009584_21i7lf_20150508_191149e.jpg'
p7785
sg4
(lp7786
(g44
g6
(g18
S'\xe1\xb6\xfe>'
p7787
tp7788
Rp7789
tp7790
a(g146
g6
(g18
S'\xdaK\x86>'
p7791
tp7792
Rp7793
tp7794
a(g15
g6
(g18
S'\xcfz\x17>'
p7795
tp7796
Rp7797
tp7798
a(g32
g6
(g18
S'\xc1e-='
p7799
tp7800
Rp7801
tp7802
a(g56
g6
(g18
S'\xb1\\\xc7<'
p7803
tp7804
Rp7805
tp7806
asg73
g32
sa(dp7807
g2
S'../../../data/emanuela/activity-recognition/images/NTCIR-Lifelog-256/u2/2015-05-01/b00001835_21i7lf_20150501_094052e.jpg'
p7808
sg4
(lp7809
(g108
g6
(g18
S'\xa7\xe8\xa3>'
p7810
tp7811
Rp7812
tp7813
a(g15
g6
(g18
S'$x\x89>'
p7814
tp7815
Rp7816
tp7817
a(g32
g6
(g18
S'<\x91\x01>'
p7818
tp7819
Rp7820
tp7821
a(g281
g6
(g18
S'P\xe2\xc9='
p7822
tp7823
Rp7824
tp7825
a(g56
g6
(g18
S'\x18\x0e\x8e='
p7826
tp7827
Rp7828
tp7829
asg73
g32
sa(dp7830
g2
S'../../../data/emanuela/activity-recognition/images/NTCIR-Lifelog-256/u2/2015-05-08/b00009448_21i7lf_20150508_172258e.jpg'
p7831
sg4
(lp7832
(g32
g6
(g18
S'\xd3W\xde>'
p7833
tp7834
Rp7835
tp7836
a(g108
g6
(g18
S'Niy>'
p7837
tp7838
Rp7839
tp7840
a(g56
g6
(g18
S'\xb6f\x1a>'
p7841
tp7842
Rp7843
tp7844
a(g15
g6
(g18
S'_;\xdc='
p7845
tp7846
Rp7847
tp7848
a(g506
g6
(g18
S'?\x8a\xc9<'
p7849
tp7850
Rp7851
tp7852
asg73
g32
sa(dp7853
g2
S'../../../data/emanuela/activity-recognition/images/NTCIR-Lifelog-256/u2/2015-05-03/b00003802_21i7lf_20150503_145652e.jpg'
p7854
sg4
(lp7855
(g239
g6
(g18
S'NT\xc3>'
p7856
tp7857
Rp7858
tp7859
a(g32
g6
(g18
S'^\x97p>'
p7860
tp7861
Rp7862
tp7863
a(g68
g6
(g18
S'\x07\x05>>'
p7864
tp7865
Rp7866
tp7867
a(g537
g6
(g18
S'Y\xe4\xcd='
p7868
tp7869
Rp7870
tp7871
a(g96
g6
(g18
S'\x05\x9a\x9a<'
p7872
tp7873
Rp7874
tp7875
asg73
g32
sa(dp7876
g2
S'../../../data/emanuela/activity-recognition/images/NTCIR-Lifelog-256/u2/2015-05-08/b00009430_21i7lf_20150508_171130e.jpg'
p7877
sg4
(lp7878
(g56
g6
(g18
S'\x96m\x1e?'
p7879
tp7880
Rp7881
tp7882
a(g32
g6
(g18
S'\xea\xeb\x94>'
p7883
tp7884
Rp7885
tp7886
a(g108
g6
(g18
S'\xc7\x0c\x05='
p7887
tp7888
Rp7889
tp7890
a(g44
g6
(g18
S'1h\xc4<'
p7891
tp7892
Rp7893
tp7894
a(g15
g6
(g18
S'bx\xc0<'
p7895
tp7896
Rp7897
tp7898
asg73
g32
sa(dp7899
g2
S'../../../data/emanuela/activity-recognition/images/NTCIR-Lifelog-256/u2/2015-05-01/b00001790_21i7lf_20150501_091257e.jpg'
p7900
sg4
(lp7901
(g108
g6
(g18
S'\xa1\xcc-?'
p7902
tp7903
Rp7904
tp7905
a(g32
g6
(g18
S'Y3\x0f>'
p7906
tp7907
Rp7908
tp7909
a(g56
g6
(g18
S',\xf1\xf9='
p7910
tp7911
Rp7912
tp7913
a(g281
g6
(g18
S'\x9e\xf6i<'
p7914
tp7915
Rp7916
tp7917
a(g15
g6
(g18
S'5\xbdd<'
p7918
tp7919
Rp7920
tp7921
asg73
g32
sa(dp7922
g2
S'../../../data/emanuela/activity-recognition/images/NTCIR-Lifelog-256/u2/2015-05-01/b00001797_21i7lf_20150501_091715e.jpg'
p7923
sg4
(lp7924
(g56
g6
(g18
S'\x84\xec5?'
p7925
tp7926
Rp7927
tp7928
a(g108
g6
(g18
S'\x10\xe8Y>'
p7929
tp7930
Rp7931
tp7932
a(g32
g6
(g18
S'\xa6\x8bZ='
p7933
tp7934
Rp7935
tp7936
a(g15
g6
(g18
S'\xb8\t8<'
p7937
tp7938
Rp7939
tp7940
a(g239
g6
(g18
S'\xff\xa2b;'
p7941
tp7942
Rp7943
tp7944
asg73
g32
sa(dp7945
g2
S'../../../data/emanuela/activity-recognition/images/NTCIR-Lifelog-256/u2/2015-05-08/b00009553_21i7lf_20150508_185419e.jpg'
p7946
sg4
(lp7947
(g32
g6
(g18
S'\xbb\x92\x14?'
p7948
tp7949
Rp7950
tp7951
a(g108
g6
(g18
S't\xb6\x0b>'
p7952
tp7953
Rp7954
tp7955
a(g146
g6
(g18
S'\xa8\x1a\xaf='
p7956
tp7957
Rp7958
tp7959
a(g44
g6
(g18
S'\x84\xa5\x89='
p7960
tp7961
Rp7962
tp7963
a(g68
g6
(g18
S'EJ6='
p7964
tp7965
Rp7966
tp7967
asg73
g32
sa(dp7968
g2
S'../../../data/emanuela/activity-recognition/images/NTCIR-Lifelog-256/u2/2015-04-21/b00000865_21i7lf_20150421_190621e.jpg'
p7969
sg4
(lp7970
(g32
g6
(g18
S'su!?'
p7971
tp7972
Rp7973
tp7974
a(g68
g6
(g18
S')ND>'
p7975
tp7976
Rp7977
tp7978
a(g108
g6
(g18
S'\x11\xa4d='
p7979
tp7980
Rp7981
tp7982
a(g15
g6
(g18
S'\xd1M6='
p7983
tp7984
Rp7985
tp7986
a(g96
g6
(g18
S'\xb0Q\xeb<'
p7987
tp7988
Rp7989
tp7990
asg73
g32
sa(dp7991
g2
S'../../../data/emanuela/activity-recognition/images/NTCIR-Lifelog-256/u2/2015-05-01/b00001796_21i7lf_20150501_091641e.jpg'
p7992
sg4
(lp7993
(g15
g6
(g18
S'\x02\x0e\xac>'
p7994
tp7995
Rp7996
tp7997
a(g32
g6
(g18
S'\x99W\xab>'
p7998
tp7999
Rp8000
tp8001
a(g108
g6
(g18
S'n\x18\x17>'
p8002
tp8003
Rp8004
tp8005
a(g56
g6
(g18
S'\x16\x1a\xe1='
p8006
tp8007
Rp8008
tp8009
a(g239
g6
(g18
S'\x1a\xa0\x8c<'
p8010
tp8011
Rp8012
tp8013
asg73
g32
sa(dp8014
g2
S'../../../data/emanuela/activity-recognition/images/NTCIR-Lifelog-256/u2/2015-05-08/b00009499_21i7lf_20150508_180703e.jpg'
p8015
sg4
(lp8016
(g32
g6
(g18
S'\xee\x80A?'
p8017
tp8018
Rp8019
tp8020
a(g68
g6
(g18
S'\x0f\xd0\x87='
p8021
tp8022
Rp8023
tp8024
a(g44
g6
(g18
S'o\xf0G='
p8025
tp8026
Rp8027
tp8028
a(g56
g6
(g18
S'\xdc\xed9='
p8029
tp8030
Rp8031
tp8032
a(g108
g6
(g18
S'Z\xba3='
p8033
tp8034
Rp8035
tp8036
asg73
g32
sa(dp8037
g2
S'../../../data/emanuela/activity-recognition/images/NTCIR-Lifelog-256/u2/2015-04-27/b00005801_21i7lf_20150427_174049e.jpg'
p8038
sg4
(lp8039
(g108
g6
(g18
S'\x9d\xd5[?'
p8040
tp8041
Rp8042
tp8043
a(g281
g6
(g18
S'%<\x85='
p8044
tp8045
Rp8046
tp8047
a(g417
g6
(g18
S'R\xca\xb6<'
p8048
tp8049
Rp8050
tp8051
a(g297
g6
(g18
S'\xfc-!<'
p8052
tp8053
Rp8054
tp8055
a(g146
g6
(g18
S'\x93\xa6\x08<'
p8056
tp8057
Rp8058
tp8059
asg73
g32
sa(dp8060
g2
S'../../../data/emanuela/activity-recognition/images/NTCIR-Lifelog-256/u2/2015-05-06/b00007180_21i7lf_20150506_183306e.jpg'
p8061
sg4
(lp8062
(g15
g6
(g18
S'\xf7\xc3=?'
p8063
tp8064
Rp8065
tp8066
a(g32
g6
(g18
S'I3B>'
p8067
tp8068
Rp8069
tp8070
a(g108
g6
(g18
S'\x86\x96\x86<'
p8071
tp8072
Rp8073
tp8074
a(g56
g6
(g18
S'V\xb4\x84<'
p8075
tp8076
Rp8077
tp8078
a(g96
g6
(g18
S'J+I<'
p8079
tp8080
Rp8081
tp8082
asg73
g32
sa(dp8083
g2
S'../../../data/emanuela/activity-recognition/images/NTCIR-Lifelog-256/u2/2015-04-21/b00000884_21i7lf_20150421_192355e.jpg'
p8084
sg4
(lp8085
(g32
g6
(g18
S'`?\xc8>'
p8086
tp8087
Rp8088
tp8089
a(g68
g6
(g18
S'\xaf*\x86>'
p8090
tp8091
Rp8092
tp8093
a(g44
g6
(g18
S'.4\xb3='
p8094
tp8095
Rp8096
tp8097
a(g108
g6
(g18
S'\xcf\xd5\xac='
p8098
tp8099
Rp8100
tp8101
a(g15
g6
(g18
S'\x86)\x85='
p8102
tp8103
Rp8104
tp8105
asg73
g32
sa(dp8106
g2
S'../../../data/emanuela/activity-recognition/images/NTCIR-Lifelog-256/u2/2015-05-03/b00003901_21i7lf_20150503_155739e.jpg'
p8107
sg4
(lp8108
(g108
g6
(g18
S'\x1dK\xe3>'
p8109
tp8110
Rp8111
tp8112
a(g56
g6
(g18
S'\xb1\x08n>'
p8113
tp8114
Rp8115
tp8116
a(g324
g6
(g18
S'A6\xed='
p8117
tp8118
Rp8119
tp8120
a(g340
g6
(g18
S'\xa9c\xc0='
p8121
tp8122
Rp8123
tp8124
a(g32
g6
(g18
S'\xae\x8c\xb1='
p8125
tp8126
Rp8127
tp8128
asg73
g32
sa(dp8129
g2
S'../../../data/emanuela/activity-recognition/images/NTCIR-Lifelog-256/u2/2015-04-27/b00005798_21i7lf_20150427_173858e.jpg'
p8130
sg4
(lp8131
(g108
g6
(g18
S'~\xa8;?'
p8132
tp8133
Rp8134
tp8135
a(g281
g6
(g18
S'l\xb6\x83='
p8136
tp8137
Rp8138
tp8139
a(g417
g6
(g18
S'T\xd1\x1f='
p8140
tp8141
Rp8142
tp8143
a(g297
g6
(g18
S'\xce\x87\x00='
p8144
tp8145
Rp8146
tp8147
a(g32
g6
(g18
S'\xeaA\xda<'
p8148
tp8149
Rp8150
tp8151
asg73
g32
sa(dp8152
g2
S'../../../data/emanuela/activity-recognition/images/NTCIR-Lifelog-256/u2/2015-04-23/b00001259_21i7lf_20150423_144516e.jpg'
p8153
sg4
(lp8154
(g108
g6
(g18
S'\xc3\xba\x11?'
p8155
tp8156
Rp8157
tp8158
a(g32
g6
(g18
S'\x93\xd84>'
p8159
tp8160
Rp8161
tp8162
a(g56
g6
(g18
S'\xc2\xcf!>'
p8163
tp8164
Rp8165
tp8166
a(g15
g6
(g18
S'o\x8a\x8c='
p8167
tp8168
Rp8169
tp8170
a(g239
g6
(g18
S'_9\\<'
p8171
tp8172
Rp8173
tp8174
asg73
g32
sa(dp8175
g2
S'../../../data/emanuela/activity-recognition/images/NTCIR-Lifelog-256/u2/2015-04-26/b00004186_21i7lf_20150426_160953e.jpg'
p8176
sg4
(lp8177
(g324
g6
(g18
S']\r\x0f?'
p8178
tp8179
Rp8180
tp8181
a(g340
g6
(g18
S'v\x84\x98>'
p8182
tp8183
Rp8184
tp8185
a(g108
g6
(g18
S'@\xc8\xaf='
p8186
tp8187
Rp8188
tp8189
a(g56
g6
(g18
S'F\xda\xc3<'
p8190
tp8191
Rp8192
tp8193
a(g32
g6
(g18
S'T\xd4,<'
p8194
tp8195
Rp8196
tp8197
asg73
g32
sa(dp8198
g2
S'../../../data/emanuela/activity-recognition/images/NTCIR-Lifelog-256/u2/2015-04-23/b00001276_21i7lf_20150423_145553e.jpg'
p8199
sg4
(lp8200
(g15
g6
(g18
S"\xbf'\xf0>"
p8201
tp8202
Rp8203
tp8204
a(g32
g6
(g18
S'\x19j\xee>'
p8205
tp8206
Rp8207
tp8208
a(g239
g6
(g18
S'\tK\xa5<'
p8209
tp8210
Rp8211
tp8212
a(g108
g6
(g18
S'R\xbd\x9b<'
p8213
tp8214
Rp8215
tp8216
a(g281
g6
(g18
S'\x19X\xc2;'
p8217
tp8218
Rp8219
tp8220
asg73
g32
sa(dp8221
g2
S'../../../data/emanuela/activity-recognition/images/NTCIR-Lifelog-256/u2/2015-05-08/b00009798_21i7lf_20150508_220648e.jpg'
p8222
sg4
(lp8223
(g15
g6
(g18
S'\xf7\xd9\x9d>'
p8224
tp8225
Rp8226
tp8227
a(g108
g6
(g18
S'\xc00\x98>'
p8228
tp8229
Rp8230
tp8231
a(g56
g6
(g18
S'D\xf5*>'
p8232
tp8233
Rp8234
tp8235
a(g32
g6
(g18
S'\xbd\xf1\x1c>'
p8236
tp8237
Rp8238
tp8239
a(g309
g6
(g18
S'7\x00E<'
p8240
tp8241
Rp8242
tp8243
asg73
g32
sa(dp8244
g2
S'../../../data/emanuela/activity-recognition/images/NTCIR-Lifelog-256/u2/2015-05-06/b00007177_21i7lf_20150506_183123e.jpg'
p8245
sg4
(lp8246
(g281
g6
(g18
S'\x82v\xae>'
p8247
tp8248
Rp8249
tp8250
a(g15
g6
(g18
S'\x98\x7f\xad>'
p8251
tp8252
Rp8253
tp8254
a(g96
g6
(g18
S'I8\x8e>'
p8255
tp8256
Rp8257
tp8258
a(g32
g6
(g18
S'\x9e8\x96<'
p8259
tp8260
Rp8261
tp8262
a(g108
g6
(g18
S'\x93\xe8\xf8;'
p8263
tp8264
Rp8265
tp8266
asg73
g32
sa(dp8267
g2
S'../../../data/emanuela/activity-recognition/images/NTCIR-Lifelog-256/u2/2015-05-03/b00003971_21i7lf_20150503_164237e.jpg'
p8268
sg4
(lp8269
(g108
g6
(g18
S'dKs?'
p8270
tp8271
Rp8272
tp8273
a(g56
g6
(g18
S'7\xbb\x1c='
p8274
tp8275
Rp8276
tp8277
a(g32
g6
(g18
S'\xfc^\x1f<'
p8278
tp8279
Rp8280
tp8281
a(g324
g6
(g18
S'\xa1\x0bU:'
p8282
tp8283
Rp8284
tp8285
a(g15
g6
(g18
S'P\x89\xd29'
p8286
tp8287
Rp8288
tp8289
asg73
g32
sa(dp8290
g2
S'../../../data/emanuela/activity-recognition/images/NTCIR-Lifelog-256/u2/2015-04-23/b00001235_21i7lf_20150423_142956e.jpg'
p8291
sg4
(lp8292
(g96
g6
(g18
S'\x9a\x95\xcf>'
p8293
tp8294
Rp8295
tp8296
a(g108
g6
(g18
S'\x18"\x94>'
p8297
tp8298
Rp8299
tp8300
a(g68
g6
(g18
S'\x84>{>'
p8301
tp8302
Rp8303
tp8304
a(g324
g6
(g18
S'\x1dK_<'
p8305
tp8306
Rp8307
tp8308
a(g309
g6
(g18
S'\xb3\xeb\xd8;'
p8309
tp8310
Rp8311
tp8312
asg73
g32
sa(dp8313
g2
S'../../../data/emanuela/activity-recognition/images/NTCIR-Lifelog-256/u2/2015-04-23/b00001253_21i7lf_20150423_144125e.jpg'
p8314
sg4
(lp8315
(g108
g6
(g18
S'#\xc4N?'
p8316
tp8317
Rp8318
tp8319
a(g56
g6
(g18
S'\r\x0e\xa3='
p8320
tp8321
Rp8322
tp8323
a(g32
g6
(g18
S'x\xf0\x8e='
p8324
tp8325
Rp8326
tp8327
a(g15
g6
(g18
S'\xe9\xc5#='
p8328
tp8329
Rp8330
tp8331
a(g239
g6
(g18
S'\xe4*3:'
p8332
tp8333
Rp8334
tp8335
asg73
g32
sa(dp8336
g2
S'../../../data/emanuela/activity-recognition/images/NTCIR-Lifelog-256/u2/2015-05-08/b00009490_21i7lf_20150508_175856e.jpg'
p8337
sg4
(lp8338
(g146
g6
(g18
S'\xe4\x91\x08?'
p8339
tp8340
Rp8341
tp8342
a(g15
g6
(g18
S'\x9eg\xa7>'
p8343
tp8344
Rp8345
tp8346
a(g44
g6
(g18
S'\xddi\x9e='
p8347
tp8348
Rp8349
tp8350
a(g68
g6
(g18
S'\xac\x9f\xe6<'
p8351
tp8352
Rp8353
tp8354
a(g32
g6
(g18
S'\xbe\xe6\x1f<'
p8355
tp8356
Rp8357
tp8358
asg73
g32
sa(dp8359
g2
S'../../../data/emanuela/activity-recognition/images/NTCIR-Lifelog-256/u2/2015-04-21/b00000907_21i7lf_20150421_194937e.jpg'
p8360
sg4
(lp8361
(g15
g6
(g18
S'wd\xfc>'
p8362
tp8363
Rp8364
tp8365
a(g32
g6
(g18
S'\x84\xfcn>'
p8366
tp8367
Rp8368
tp8369
a(g68
g6
(g18
S'G[\xae='
p8370
tp8371
Rp8372
tp8373
a(g108
g6
(g18
S'1\x95\x8a='
p8374
tp8375
Rp8376
tp8377
a(g96
g6
(g18
S'FA6='
p8378
tp8379
Rp8380
tp8381
asg73
g32
sa(dp8382
g2
S'../../../data/emanuela/activity-recognition/images/NTCIR-Lifelog-256/u2/2015-05-03/b00003945_21i7lf_20150503_162542e.jpg'
p8383
sg4
(lp8384
(g108
g6
(g18
S'\x1f\xe3\xbb>'
p8385
tp8386
Rp8387
tp8388
a(g32
g6
(g18
S'g\xc0\xa7>'
p8389
tp8390
Rp8391
tp8392
a(g56
g6
(g18
S'\xba\x04\x96>'
p8393
tp8394
Rp8395
tp8396
a(g15
g6
(g18
S'\x90\x1a\x10<'
p8397
tp8398
Rp8399
tp8400
a(g146
g6
(g18
S'\xf8}]:'
p8401
tp8402
Rp8403
tp8404
asg73
g32
sa(dp8405
g2
S'../../../data/emanuela/activity-recognition/images/NTCIR-Lifelog-256/u2/2015-04-23/b00001274_21i7lf_20150423_145447e.jpg'
p8406
sg4
(lp8407
(g15
g6
(g18
S'\x0f\xc1\xe8>'
p8408
tp8409
Rp8410
tp8411
a(g108
g6
(g18
S'\xa8\xa0\x81>'
p8412
tp8413
Rp8414
tp8415
a(g32
g6
(g18
S'v\x98\x7f>'
p8416
tp8417
Rp8418
tp8419
a(g56
g6
(g18
S'\x91\xec0<'
p8420
tp8421
Rp8422
tp8423
a(g309
g6
(g18
S'\xc6I\x17<'
p8424
tp8425
Rp8426
tp8427
asg73
g32
sa(dp8428
g2
S'../../../data/emanuela/activity-recognition/images/NTCIR-Lifelog-256/u2/2015-05-01/b00001784_21i7lf_20150501_090927e.jpg'
p8429
sg4
(lp8430
(g56
g6
(g18
S'`\x18\xbe>'
p8431
tp8432
Rp8433
tp8434
a(g32
g6
(g18
S'\xeb;\xbd>'
p8435
tp8436
Rp8437
tp8438
a(g108
g6
(g18
S'yQ\xff='
p8439
tp8440
Rp8441
tp8442
a(g15
g6
(g18
S'>\x17T='
p8443
tp8444
Rp8445
tp8446
a(g309
g6
(g18
S'e%\x87<'
p8447
tp8448
Rp8449
tp8450
asg73
g32
sa(dp8451
g2
S'../../../data/emanuela/activity-recognition/images/NTCIR-Lifelog-256/u2/2015-04-25/b00003482_21i7lf_20150425_175521e.jpg'
p8452
sg4
(lp8453
(g108
g6
(g18
S'\x8aq\xb9>'
p8454
tp8455
Rp8456
tp8457
a(g15
g6
(g18
S'\xe7+g>'
p8458
tp8459
Rp8460
tp8461
a(g239
g6
(g18
S'\x08\xa3$>'
p8462
tp8463
Rp8464
tp8465
a(g309
g6
(g18
S'V\xe6\xfd='
p8466
tp8467
Rp8468
tp8469
a(g56
g6
(g18
S'\xc5\xbf\xc3<'
p8470
tp8471
Rp8472
tp8473
asg73
g32
sa(dp8474
g2
S'../../../data/emanuela/activity-recognition/images/NTCIR-Lifelog-256/u2/2015-04-27/b00005758_21i7lf_20150427_171433e.jpg'
p8475
sg4
(lp8476
(g32
g6
(g18
S'\xff\xd7\x84>'
p8477
tp8478
Rp8479
tp8480
a(g15
g6
(g18
S'J\x9fp>'
p8481
tp8482
Rp8483
tp8484
a(g108
g6
(g18
S'\xbeUe>'
p8485
tp8486
Rp8487
tp8488
a(g309
g6
(g18
S'\\\x17\x81='
p8489
tp8490
Rp8491
tp8492
a(g281
g6
(g18
S'Sl@='
p8493
tp8494
Rp8495
tp8496
asg73
g32
sa(dp8497
g2
S'../../../data/emanuela/activity-recognition/images/NTCIR-Lifelog-256/u2/2015-04-27/b00005817_21i7lf_20150427_174953e.jpg'
p8498
sg4
(lp8499
(g108
g6
(g18
S'\xc1\x14\xea>'
p8500
tp8501
Rp8502
tp8503
a(g281
g6
(g18
S'\xe9HM>'
p8504
tp8505
Rp8506
tp8507
a(g417
g6
(g18
S'\xb1\xa5\x1f>'
p8508
tp8509
Rp8510
tp8511
a(g297
g6
(g18
S'\\\t\x87='
p8512
tp8513
Rp8514
tp8515
a(g68
g6
(g18
S'\xd1\xa8\xc5<'
p8516
tp8517
Rp8518
tp8519
asg73
g32
sa(dp8520
g2
S'../../../data/emanuela/activity-recognition/images/NTCIR-Lifelog-256/u2/2015-04-27/b00005810_21i7lf_20150427_174600e.jpg'
p8521
sg4
(lp8522
(g281
g6
(g18
S'\xb4\xd8\xcb>'
p8523
tp8524
Rp8525
tp8526
a(g108
g6
(g18
S'\xa8X\xaf>'
p8527
tp8528
Rp8529
tp8530
a(g433
g6
(g18
S'\xec\x07\xa6='
p8531
tp8532
Rp8533
tp8534
a(g417
g6
(g18
S'\xe9\xfa,='
p8535
tp8536
Rp8537
tp8538
a(g309
g6
(g18
S'\xd0\x8d\xf9<'
p8539
tp8540
Rp8541
tp8542
asg73
g32
sa(dp8543
g2
S'../../../data/emanuela/activity-recognition/images/NTCIR-Lifelog-256/u2/2015-05-03/b00003962_21i7lf_20150503_163649e.jpg'
p8544
sg4
(lp8545
(g108
g6
(g18
S'\xefY\xd7>'
p8546
tp8547
Rp8548
tp8549
a(g32
g6
(g18
S'\xdc(\xb1>'
p8550
tp8551
Rp8552
tp8553
a(g56
g6
(g18
S'v\x0eP>'
p8554
tp8555
Rp8556
tp8557
a(g15
g6
(g18
S'\x85Kp<'
p8558
tp8559
Rp8560
tp8561
a(g146
g6
(g18
S'\xdd[\xf2;'
p8562
tp8563
Rp8564
tp8565
asg73
g32
sa(dp8566
g2
S'../../../data/emanuela/activity-recognition/images/NTCIR-Lifelog-256/u2/2015-04-21/b00000881_21i7lf_20150421_192151e.jpg'
p8567
sg4
(lp8568
(g32
g6
(g18
S'n\xf6\x11?'
p8569
tp8570
Rp8571
tp8572
a(g108
g6
(g18
S'\xc6\x8f\xec='
p8573
tp8574
Rp8575
tp8576
a(g15
g6
(g18
S'\xf4\xd3\xe3='
p8577
tp8578
Rp8579
tp8580
a(g44
g6
(g18
S'\x9a\xef\x97='
p8581
tp8582
Rp8583
tp8584
a(g68
g6
(g18
S'L\x99\x85='
p8585
tp8586
Rp8587
tp8588
asg73
g32
sa(dp8589
g2
S'../../../data/emanuela/activity-recognition/images/NTCIR-Lifelog-256/u2/2015-04-21/b00000912_21i7lf_20150421_200607e.jpg'
p8590
sg4
(lp8591
(g68
g6
(g18
S'\xc0\x81\x19?'
p8592
tp8593
Rp8594
tp8595
a(g15
g6
(g18
S'K\x01\x93>'
p8596
tp8597
Rp8598
tp8599
a(g96
g6
(g18
S'\xf4s9='
p8600
tp8601
Rp8602
tp8603
a(g2849
g6
(g18
S'Q\xd7\x86<'
p8604
tp8605
Rp8606
tp8607
a(g281
g6
(g18
S'\xec\x83G<'
p8608
tp8609
Rp8610
tp8611
asg73
g32
sa(dp8612
g2
S'../../../data/emanuela/activity-recognition/images/NTCIR-Lifelog-256/u2/2015-05-03/b00003856_21i7lf_20150503_152938e.jpg'
p8613
sg4
(lp8614
(g324
g6
(g18
S'\xe2\x8e\xd8>'
p8615
tp8616
Rp8617
tp8618
a(g108
g6
(g18
S'u}=>'
p8619
tp8620
Rp8621
tp8622
a(g56
g6
(g18
S'\xe0q\xd4='
p8623
tp8624
Rp8625
tp8626
a(g32
g6
(g18
S'.\xdd\xa8='
p8627
tp8628
Rp8629
tp8630
a(g68
g6
(g18
S'\xbe\x0f\x1e='
p8631
tp8632
Rp8633
tp8634
asg73
g32
sa(dp8635
g2
S'../../../data/emanuela/activity-recognition/images/NTCIR-Lifelog-256/u2/2015-04-21/b00000908_21i7lf_20150421_200033e.jpg'
p8636
sg4
(lp8637
(g32
g6
(g18
S'\x1e\xdd\xdd>'
p8638
tp8639
Rp8640
tp8641
a(g15
g6
(g18
S'\xe1\x82\x84>'
p8642
tp8643
Rp8644
tp8645
a(g68
g6
(g18
S'\xd3\xe3B>'
p8646
tp8647
Rp8648
tp8649
a(g44
g6
(g18
S'4#*='
p8650
tp8651
Rp8652
tp8653
a(g108
g6
(g18
S'\xca\xfc\xb8<'
p8654
tp8655
Rp8656
tp8657
asg73
g32
sa(dp8658
g2
S'../../../data/emanuela/activity-recognition/images/NTCIR-Lifelog-256/u2/2015-05-08/b00009447_21i7lf_20150508_172215e.jpg'
p8659
sg4
(lp8660
(g44
g6
(g18
S'\xff>\x19?'
p8661
tp8662
Rp8663
tp8664
a(g32
g6
(g18
S'\x0c\xf6*>'
p8665
tp8666
Rp8667
tp8668
a(g56
g6
(g18
S'W\x01\x10>'
p8669
tp8670
Rp8671
tp8672
a(g108
g6
(g18
S'\xf5][='
p8673
tp8674
Rp8675
tp8676
a(g340
g6
(g18
S'.\x10{<'
p8677
tp8678
Rp8679
tp8680
asg73
g32
sa(dp8681
g2
S'../../../data/emanuela/activity-recognition/images/NTCIR-Lifelog-256/u2/2015-04-27/b00005781_21i7lf_20150427_172835e.jpg'
p8682
sg4
(lp8683
(g108
g6
(g18
S'\xaa\x18\x19?'
p8684
tp8685
Rp8686
tp8687
a(g417
g6
(g18
S'\x1f\x86\x96='
p8688
tp8689
Rp8690
tp8691
a(g281
g6
(g18
S'\nr|='
p8692
tp8693
Rp8694
tp8695
a(g297
g6
(g18
S'P@P='
p8696
tp8697
Rp8698
tp8699
a(g32
g6
(g18
S'q\xf7\x1b='
p8700
tp8701
Rp8702
tp8703
asg73
g32
sa(dp8704
g2
S'../../../data/emanuela/activity-recognition/images/NTCIR-Lifelog-256/u2/2015-05-06/b00007184_21i7lf_20150506_183537e.jpg'
p8705
sg4
(lp8706
(g15
g6
(g18
S'\xda &?'
p8707
tp8708
Rp8709
tp8710
a(g32
g6
(g18
S'\x89\xc7\xa5='
p8711
tp8712
Rp8713
tp8714
a(g108
g6
(g18
S'\x0c\xf9[='
p8715
tp8716
Rp8717
tp8718
a(g44
g6
(g18
S'\xdb\xcc!='
p8719
tp8720
Rp8721
tp8722
a(g68
g6
(g18
S'U\xfe\r='
p8723
tp8724
Rp8725
tp8726
asg73
g32
sa(dp8727
g2
S'../../../data/emanuela/activity-recognition/images/NTCIR-Lifelog-256/u2/2015-05-03/b00003957_21i7lf_20150503_163346e.jpg'
p8728
sg4
(lp8729
(g108
g6
(g18
S'#\x1cV?'
p8730
tp8731
Rp8732
tp8733
a(g32
g6
(g18
S'\xeb9\x01>'
p8734
tp8735
Rp8736
tp8737
a(g56
g6
(g18
S'\x11\xdd\xef<'
p8738
tp8739
Rp8740
tp8741
a(g15
g6
(g18
S'\xb2x\xac;'
p8742
tp8743
Rp8744
tp8745
a(g146
g6
(g18
S'\x14.&:'
p8746
tp8747
Rp8748
tp8749
asg73
g32
sa(dp8750
g2
S'../../../data/emanuela/activity-recognition/images/NTCIR-Lifelog-256/u2/2015-04-27/b00005835_21i7lf_20150427_180035e.jpg'
p8751
sg4
(lp8752
(g108
g6
(g18
S'\xa9\x9b\x12?'
p8753
tp8754
Rp8755
tp8756
a(g281
g6
(g18
S'X\x10\xf8='
p8757
tp8758
Rp8759
tp8760
a(g44
g6
(g18
S'\\\xfac='
p8761
tp8762
Rp8763
tp8764
a(g68
g6
(g18
S'\x06j2='
p8765
tp8766
Rp8767
tp8768
a(g32
g6
(g18
S'j70='
p8769
tp8770
Rp8771
tp8772
asg73
g32
sa(dp8773
g2
S'../../../data/emanuela/activity-recognition/images/NTCIR-Lifelog-256/u2/2015-04-27/b00005799_21i7lf_20150427_173939e.jpg'
p8774
sg4
(lp8775
(g108
g6
(g18
S'\x0ek8?'
p8776
tp8777
Rp8778
tp8779
a(g281
g6
(g18
S'\xe8)\xf7='
p8780
tp8781
Rp8782
tp8783
a(g297
g6
(g18
S'\xf6\xfc\xed<'
p8784
tp8785
Rp8786
tp8787
a(g417
g6
(g18
S'\xe5\x0f\xed<'
p8788
tp8789
Rp8790
tp8791
a(g146
g6
(g18
S'k*z<'
p8792
tp8793
Rp8794
tp8795
asg73
g32
sa(dp8796
g2
S'../../../data/emanuela/activity-recognition/images/NTCIR-Lifelog-256/u2/2015-05-03/b00003954_21i7lf_20150503_163150e.jpg'
p8797
sg4
(lp8798
(g108
g6
(g18
S'%L\x1b?'
p8799
tp8800
Rp8801
tp8802
a(g32
g6
(g18
S'*\xf6Q>'
p8803
tp8804
Rp8805
tp8806
a(g56
g6
(g18
S'\xa8\xcc6>'
p8807
tp8808
Rp8809
tp8810
a(g15
g6
(g18
S'\xf8\x8f\r<'
p8811
tp8812
Rp8813
tp8814
a(g146
g6
(g18
S'8\x94\xfe9'
p8815
tp8816
Rp8817
tp8818
asg73
g32
sa(dp8819
g2
S'../../../data/emanuela/activity-recognition/images/NTCIR-Lifelog-256/u2/2015-04-21/b00000875_21i7lf_20150421_191722e.jpg'
p8820
sg4
(lp8821
(g68
g6
(g18
S'\x93l\xeb>'
p8822
tp8823
Rp8824
tp8825
a(g32
g6
(g18
S'm9\xa0>'
p8826
tp8827
Rp8828
tp8829
a(g44
g6
(g18
S'j\xaf\xc5='
p8830
tp8831
Rp8832
tp8833
a(g108
g6
(g18
S'\xfd\x03h='
p8834
tp8835
Rp8836
tp8837
a(g96
g6
(g18
S'\x9f\xd9\xc3<'
p8838
tp8839
Rp8840
tp8841
asg73
g32
sa(dp8842
g2
S'../../../data/emanuela/activity-recognition/images/NTCIR-Lifelog-256/u2/2015-04-21/b00000900_21i7lf_20150421_193931e.jpg'
p8843
sg4
(lp8844
(g32
g6
(g18
S't\xd3\\?'
p8845
tp8846
Rp8847
tp8848
a(g68
g6
(g18
S'{\x0c6='
p8849
tp8850
Rp8851
tp8852
a(g96
g6
(g18
S'\xbc\x95\xff<'
p8853
tp8854
Rp8855
tp8856
a(g56
g6
(g18
S'\x82j\x83<'
p8857
tp8858
Rp8859
tp8860
a(g108
g6
(g18
S'\x88\xc7k<'
p8861
tp8862
Rp8863
tp8864
asg73
g32
sa(dp8865
g2
S'../../../data/emanuela/activity-recognition/images/NTCIR-Lifelog-256/u2/2015-05-03/b00003937_21i7lf_20150503_162036e.jpg'
p8866
sg4
(lp8867
(g32
g6
(g18
S'\x87CF?'
p8868
tp8869
Rp8870
tp8871
a(g15
g6
(g18
S'\x93\xb1\x14>'
p8872
tp8873
Rp8874
tp8875
a(g56
g6
(g18
S"'/4="
p8876
tp8877
Rp8878
tp8879
a(g44
g6
(g18
S'#e\xc1<'
p8880
tp8881
Rp8882
tp8883
a(g108
g6
(g18
S'\xd9\xe0\x96;'
p8884
tp8885
Rp8886
tp8887
asg73
g32
sa(dp8888
g2
S'../../../data/emanuela/activity-recognition/images/NTCIR-Lifelog-256/u2/2015-04-23/b00001239_21i7lf_20150423_143222e.jpg'
p8889
sg4
(lp8890
(g108
g6
(g18
S'\x88\x13Z?'
p8891
tp8892
Rp8893
tp8894
a(g32
g6
(g18
S'\xa4\x91\xc2='
p8895
tp8896
Rp8897
tp8898
a(g56
g6
(g18
S'\n\x16\xf9<'
p8899
tp8900
Rp8901
tp8902
a(g15
g6
(g18
S'\xc5\xb5\xad<'
p8903
tp8904
Rp8905
tp8906
a(g239
g6
(g18
S'}\x89\xab9'
p8907
tp8908
Rp8909
tp8910
asg73
g32
sa(dp8911
g2
S'../../../data/emanuela/activity-recognition/images/NTCIR-Lifelog-256/u2/2015-05-03/b00003941_21i7lf_20150503_162312e.jpg'
p8912
sg4
(lp8913
(g108
g6
(g18
S'!\xbah?'
p8914
tp8915
Rp8916
tp8917
a(g56
g6
(g18
S'\n\xe5\xa0='
p8918
tp8919
Rp8920
tp8921
a(g32
g6
(g18
S'\x8d.B<'
p8922
tp8923
Rp8924
tp8925
a(g15
g6
(g18
S'P`\xa69'
p8926
tp8927
Rp8928
tp8929
a(g433
g6
(g18
S'\x97\x13F8'
p8930
tp8931
Rp8932
tp8933
asg73
g32
sa(dp8934
g2
S'../../../data/emanuela/activity-recognition/images/NTCIR-Lifelog-256/u2/2015-05-08/b00009444_21i7lf_20150508_172024e.jpg'
p8935
sg4
(lp8936
(g108
g6
(g18
S'\x82\xc5-?'
p8937
tp8938
Rp8939
tp8940
a(g56
g6
(g18
S'\x14(8>'
p8941
tp8942
Rp8943
tp8944
a(g32
g6
(g18
S'\x96\xe0\x8f='
p8945
tp8946
Rp8947
tp8948
a(g44
g6
(g18
S'\xea\xaca='
p8949
tp8950
Rp8951
tp8952
a(g146
g6
(g18
S'n\xc0X;'
p8953
tp8954
Rp8955
tp8956
asg73
g32
sa(dp8957
g2
S'../../../data/emanuela/activity-recognition/images/NTCIR-Lifelog-256/u2/2015-05-08/b00009557_21i7lf_20150508_185918e.jpg'
p8958
sg4
(lp8959
(g32
g6
(g18
S'&o\x19?'
p8960
tp8961
Rp8962
tp8963
a(g146
g6
(g18
S'\r\xecD>'
p8964
tp8965
Rp8966
tp8967
a(g15
g6
(g18
S'\x19\x03\xbc='
p8968
tp8969
Rp8970
tp8971
a(g56
g6
(g18
S'dk\x0f='
p8972
tp8973
Rp8974
tp8975
a(g108
g6
(g18
S'mE\xdd<'
p8976
tp8977
Rp8978
tp8979
asg73
g32
sa(dp8980
g2
S'../../../data/emanuela/activity-recognition/images/NTCIR-Lifelog-256/u2/2015-05-08/b00009558_21i7lf_20150508_185950e.jpg'
p8981
sg4
(lp8982
(g32
g6
(g18
S'\x1fE\x16?'
p8983
tp8984
Rp8985
tp8986
a(g44
g6
(g18
S'U\x81n>'
p8987
tp8988
Rp8989
tp8990
a(g68
g6
(g18
S'\xe7\xac\xb1='
p8991
tp8992
Rp8993
tp8994
a(g15
g6
(g18
S'\x02\xaaG='
p8995
tp8996
Rp8997
tp8998
a(g96
g6
(g18
S'\xf8\x1az<'
p8999
tp9000
Rp9001
tp9002
asg73
g32
sa(dp9003
g2
S'../../../data/emanuela/activity-recognition/images/NTCIR-Lifelog-256/u2/2015-04-23/b00001247_21i7lf_20150423_143726e.jpg'
p9004
sg4
(lp9005
(g108
g6
(g18
S'\xb2\xf4\r?'
p9006
tp9007
Rp9008
tp9009
a(g32
g6
(g18
S'\x06\xb7\x9f>'
p9010
tp9011
Rp9012
tp9013
a(g15
g6
(g18
S'\xce\x9c\xc1='
p9014
tp9015
Rp9016
tp9017
a(g56
g6
(g18
S'\xd0\xa7\xb5<'
p9018
tp9019
Rp9020
tp9021
a(g309
g6
(g18
S'\x89\xb3\x0e<'
p9022
tp9023
Rp9024
tp9025
asg73
g32
sa(dp9026
g2
S'../../../data/emanuela/activity-recognition/images/NTCIR-Lifelog-256/u2/2015-05-08/b00009435_21i7lf_20150508_171456e.jpg'
p9027
sg4
(lp9028
(g56
g6
(g18
S'\x1c@\xe4>'
p9029
tp9030
Rp9031
tp9032
a(g32
g6
(g18
S'H\xfd\xd1>'
p9033
tp9034
Rp9035
tp9036
a(g44
g6
(g18
S'\x10m5='
p9037
tp9038
Rp9039
tp9040
a(g108
g6
(g18
S'ti\n='
p9041
tp9042
Rp9043
tp9044
a(g146
g6
(g18
S'\xf1!\x96<'
p9045
tp9046
Rp9047
tp9048
asg73
g32
sa(dp9049
g2
S'../../../data/emanuela/activity-recognition/images/NTCIR-Lifelog-256/u2/2015-05-08/b00009486_21i7lf_20150508_175630e.jpg'
p9050
sg4
(lp9051
(g15
g6
(g18
S'\x10\x0f\x9e>'
p9052
tp9053
Rp9054
tp9055
a(g146
g6
(g18
S'.\xd2\x9b>'
p9056
tp9057
Rp9058
tp9059
a(g44
g6
(g18
S'\xc6\xb0i>'
p9060
tp9061
Rp9062
tp9063
a(g56
g6
(g18
S'\xd4\x8d\x93='
p9064
tp9065
Rp9066
tp9067
a(g108
g6
(g18
S'\xb8\xf5\x1c='
p9068
tp9069
Rp9070
tp9071
asg73
g32
sa(dp9072
g2
S'../../../data/emanuela/activity-recognition/images/NTCIR-Lifelog-256/u2/2015-04-21/b00000882_21i7lf_20150421_192235e.jpg'
p9073
sg4
(lp9074
(g32
g6
(g18
S'\x8f\x12"?'
p9075
tp9076
Rp9077
tp9078
a(g44
g6
(g18
S'q\x9d\xd7='
p9079
tp9080
Rp9081
tp9082
a(g15
g6
(g18
S'\xae*\x8f='
p9083
tp9084
Rp9085
tp9086
a(g68
g6
(g18
S'3t\x83='
p9087
tp9088
Rp9089
tp9090
a(g108
g6
(g18
S'\x822j='
p9091
tp9092
Rp9093
tp9094
asg73
g32
sa(dp9095
g2
S'../../../data/emanuela/activity-recognition/images/NTCIR-Lifelog-256/u2/2015-04-27/b00005786_21i7lf_20150427_173142e.jpg'
p9096
sg4
(lp9097
(g108
g6
(g18
S'\xb5\xa0C?'
p9098
tp9099
Rp9100
tp9101
a(g417
g6
(g18
S'\xa6\xa2u='
p9102
tp9103
Rp9104
tp9105
a(g297
g6
(g18
S'\xe2\x921='
p9106
tp9107
Rp9108
tp9109
a(g281
g6
(g18
S'\xf2Y-='
p9110
tp9111
Rp9112
tp9113
a(g32
g6
(g18
S'X\x86K<'
p9114
tp9115
Rp9116
tp9117
asg73
g32
sa(dp9118
g2
S'../../../data/emanuela/activity-recognition/images/NTCIR-Lifelog-256/u2/2015-04-27/b00005791_21i7lf_20150427_173449e.jpg'
p9119
sg4
(lp9120
(g32
g6
(g18
S'\xbav\x06?'
p9121
tp9122
Rp9123
tp9124
a(g108
g6
(g18
S'\xb1\xce\x95>'
p9125
tp9126
Rp9127
tp9128
a(g44
g6
(g18
S'I*\xaa='
p9129
tp9130
Rp9131
tp9132
a(g56
g6
(g18
S'"\x8a\xeb<'
p9133
tp9134
Rp9135
tp9136
a(g15
g6
(g18
S'[\x10\xad<'
p9137
tp9138
Rp9139
tp9140
asg73
g32
sa(dp9141
g2
S'../../../data/emanuela/activity-recognition/images/NTCIR-Lifelog-256/u2/2015-05-08/b00009466_21i7lf_20150508_173846e.jpg'
p9142
sg4
(lp9143
(g32
g6
(g18
S'\xb2\xeb\xc7>'
p9144
tp9145
Rp9146
tp9147
a(g44
g6
(g18
S'S\x1c\xa9>'
p9148
tp9149
Rp9150
tp9151
a(g108
g6
(g18
S'\x04\xc7\x00>'
p9152
tp9153
Rp9154
tp9155
a(g56
g6
(g18
S'|\xcc\x8d='
p9156
tp9157
Rp9158
tp9159
a(g146
g6
(g18
S'Hy\xa8<'
p9160
tp9161
Rp9162
tp9163
asg73
g32
sa(dp9164
g2
S'../../../data/emanuela/activity-recognition/images/NTCIR-Lifelog-256/u2/2015-05-03/b00003981_21i7lf_20150503_164844e.jpg'
p9165
sg4
(lp9166
(g108
g6
(g18
S'D\xc6K?'
p9167
tp9168
Rp9169
tp9170
a(g56
g6
(g18
S'\xdd\xf2\xcf='
p9171
tp9172
Rp9173
tp9174
a(g32
g6
(g18
S'\x82s\xab='
p9175
tp9176
Rp9177
tp9178
a(g15
g6
(g18
S'\x0cO`<'
p9179
tp9180
Rp9181
tp9182
a(g324
g6
(g18
S'r\xb0\x91:'
p9183
tp9184
Rp9185
tp9186
asg73
g32
sa(dp9187
g2
S'../../../data/emanuela/activity-recognition/images/NTCIR-Lifelog-256/u2/2015-05-08/b00009523_21i7lf_20150508_182910e.jpg'
p9188
sg4
(lp9189
(g68
g6
(g18
S'U\xcdC?'
p9190
tp9191
Rp9192
tp9193
a(g32
g6
(g18
S'c%\xb3='
p9194
tp9195
Rp9196
tp9197
a(g96
g6
(g18
S'\x9e\xa7\x83='
p9198
tp9199
Rp9200
tp9201
a(g146
g6
(g18
S'bi\x1c='
p9202
tp9203
Rp9204
tp9205
a(g15
g6
(g18
S'TD\xbf<'
p9206
tp9207
Rp9208
tp9209
asg73
g32
sa(dp9210
g2
S'../../../data/emanuela/activity-recognition/images/NTCIR-Lifelog-256/u2/2015-05-03/b00003974_21i7lf_20150503_164427e.jpg'
p9211
sg4
(lp9212
(g108
g6
(g18
S'7\xf5N?'
p9213
tp9214
Rp9215
tp9216
a(g56
g6
(g18
S'\\\x9b\xba='
p9217
tp9218
Rp9219
tp9220
a(g32
g6
(g18
S':2N='
p9221
tp9222
Rp9223
tp9224
a(g15
g6
(g18
S'k\x17\x9a<'
p9225
tp9226
Rp9227
tp9228
a(g433
g6
(g18
S'_m+<'
p9229
tp9230
Rp9231
tp9232
asg73
g32
sa(dp9233
g2
S'../../../data/emanuela/activity-recognition/images/NTCIR-Lifelog-256/u2/2015-04-21/b00000899_21i7lf_20150421_193850e.jpg'
p9234
sg4
(lp9235
(g32
g6
(g18
S'\xe7\xa03?'
p9236
tp9237
Rp9238
tp9239
a(g68
g6
(g18
S'\xee\x1d\xa8='
p9240
tp9241
Rp9242
tp9243
a(g108
g6
(g18
S'\xbc5\x96='
p9244
tp9245
Rp9246
tp9247
a(g15
g6
(g18
S'\xd4\xf0]='
p9248
tp9249
Rp9250
tp9251
a(g56
g6
(g18
S'\x07\x86\x06='
p9252
tp9253
Rp9254
tp9255
asg73
g32
sa(dp9256
g2
S'../../../data/emanuela/activity-recognition/images/NTCIR-Lifelog-256/u2/2015-04-21/b00000883_21i7lf_20150421_192319e.jpg'
p9257
sg4
(lp9258
(g32
g6
(g18
S'\x06\xcf\x18?'
p9259
tp9260
Rp9261
tp9262
a(g15
g6
(g18
S'?\xa8\xd0='
p9263
tp9264
Rp9265
tp9266
a(g108
g6
(g18
S'\xe7u\xb3='
p9267
tp9268
Rp9269
tp9270
a(g68
g6
(g18
S'\x0eL\xab='
p9271
tp9272
Rp9273
tp9274
a(g44
g6
(g18
S'\x9c\xf7~='
p9275
tp9276
Rp9277
tp9278
asg73
g32
sa(dp9279
g2
S'../../../data/emanuela/activity-recognition/images/NTCIR-Lifelog-256/u2/2015-05-03/b00003854_21i7lf_20150503_152830e.jpg'
p9280
sg4
(lp9281
(g56
g6
(g18
S'\xa0@\xf3>'
p9282
tp9283
Rp9284
tp9285
a(g32
g6
(g18
S'Z\x8c,>'
p9286
tp9287
Rp9288
tp9289
a(g324
g6
(g18
S' S\x05>'
p9290
tp9291
Rp9292
tp9293
a(g108
g6
(g18
S'^;\x02>'
p9294
tp9295
Rp9296
tp9297
a(g340
g6
(g18
S'`n\x15='
p9298
tp9299
Rp9300
tp9301
asg73
g32
sa(dp9302
g2
S'../../../data/emanuela/activity-recognition/images/NTCIR-Lifelog-256/u2/2015-04-23/b00001266_21i7lf_20150423_144953e.jpg'
p9303
sg4
(lp9304
(g32
g6
(g18
S'z\xdf\xea>'
p9305
tp9306
Rp9307
tp9308
a(g108
g6
(g18
S'\xc3}\x8b>'
p9309
tp9310
Rp9311
tp9312
a(g56
g6
(g18
S'\x86zU>'
p9313
tp9314
Rp9315
tp9316
a(g15
g6
(g18
S':v`='
p9317
tp9318
Rp9319
tp9320
a(g239
g6
(g18
S'\xc3d\x14;'
p9321
tp9322
Rp9323
tp9324
asg73
g32
sa(dp9325
g2
S'../../../data/emanuela/activity-recognition/images/NTCIR-Lifelog-256/u2/2015-04-21/b00000903_21i7lf_20150421_194122e.jpg'
p9326
sg4
(lp9327
(g32
g6
(g18
S'\xf8\xe2L?'
p9328
tp9329
Rp9330
tp9331
a(g68
g6
(g18
S'\xc7\xc8\xb7='
p9332
tp9333
Rp9334
tp9335
a(g108
g6
(g18
S'{\x83E='
p9336
tp9337
Rp9338
tp9339
a(g15
g6
(g18
S'\x01]^<'
p9340
tp9341
Rp9342
tp9343
a(g281
g6
(g18
S'n\xe3,<'
p9344
tp9345
Rp9346
tp9347
asg73
g32
sa(dp9348
g2
S'../../../data/emanuela/activity-recognition/images/NTCIR-Lifelog-256/u2/2015-04-27/b00005764_21i7lf_20150427_171805e.jpg'
p9349
sg4
(lp9350
(g433
g6
(g18
S'\x7f\x9eW>'
p9351
tp9352
Rp9353
tp9354
a(g417
g6
(g18
S'\xdc\xa3\x0c>'
p9355
tp9356
Rp9357
tp9358
a(g297
g6
(g18
S'!\xba\x06>'
p9359
tp9360
Rp9361
tp9362
a(g108
g6
(g18
S'T\n\x04>'
p9363
tp9364
Rp9365
tp9366
a(g324
g6
(g18
S'D\xcf\x8d='
p9367
tp9368
Rp9369
tp9370
asg73
g32
sa(dp9371
g2
S'../../../data/emanuela/activity-recognition/images/NTCIR-Lifelog-256/u2/2015-05-08/b00009520_21i7lf_20150508_182532e.jpg'
p9372
sg4
(lp9373
(g146
g6
(g18
S'\xfe\x06\x1d?'
p9374
tp9375
Rp9376
tp9377
a(g15
g6
(g18
S'\x93\xf6\x8f>'
p9378
tp9379
Rp9380
tp9381
a(g44
g6
(g18
S'@\xb3\x8a='
p9382
tp9383
Rp9384
tp9385
a(g32
g6
(g18
S'\xda\xa9}<'
p9386
tp9387
Rp9388
tp9389
a(g68
g6
(g18
S'\x1c\x9f,<'
p9390
tp9391
Rp9392
tp9393
asg73
g32
sa(dp9394
g2
S'../../../data/emanuela/activity-recognition/images/NTCIR-Lifelog-256/u2/2015-05-08/b00009541_21i7lf_20150508_184426e.jpg'
p9395
sg4
(lp9396
(g32
g6
(g18
S"|\xbe'?"
p9397
tp9398
Rp9399
tp9400
a(g68
g6
(g18
S'\xd6\xf6,>'
p9401
tp9402
Rp9403
tp9404
a(g108
g6
(g18
S'\xb0\xa8,='
p9405
tp9406
Rp9407
tp9408
a(g281
g6
(g18
S',^\x04='
p9409
tp9410
Rp9411
tp9412
a(g15
g6
(g18
S'6\xe9\xb9<'
p9413
tp9414
Rp9415
tp9416
asg73
g32
sa(dp9417
g2
S'../../../data/emanuela/activity-recognition/images/NTCIR-Lifelog-256/u2/2015-04-25/b00003481_21i7lf_20150425_175446e.jpg'
p9418
sg4
(lp9419
(g15
g6
(g18
S'$C\x1f?'
p9420
tp9421
Rp9422
tp9423
a(g108
g6
(g18
S'E\xc6\xc6='
p9424
tp9425
Rp9426
tp9427
a(g239
g6
(g18
S'\x9aS\xb1='
p9428
tp9429
Rp9430
tp9431
a(g56
g6
(g18
S'\xab\xf6\x94='
p9432
tp9433
Rp9434
tp9435
a(g32
g6
(g18
S'W\xaa\xe8<'
p9436
tp9437
Rp9438
tp9439
asg73
g32
sa(dp9440
g2
S'../../../data/emanuela/activity-recognition/images/NTCIR-Lifelog-256/u2/2015-05-03/b00003961_21i7lf_20150503_163613e.jpg'
p9441
sg4
(lp9442
(g56
g6
(g18
S'\x9b\xdf\x17?'
p9443
tp9444
Rp9445
tp9446
a(g108
g6
(g18
S'\xb8\xb4\x9a>'
p9447
tp9448
Rp9449
tp9450
a(g32
g6
(g18
S'X\x04\xad='
p9451
tp9452
Rp9453
tp9454
a(g146
g6
(g18
S'\xb1\xac#<'
p9455
tp9456
Rp9457
tp9458
a(g15
g6
(g18
S'R\xc7\xba;'
p9459
tp9460
Rp9461
tp9462
asg73
g32
sa(dp9463
g2
S'../../../data/emanuela/activity-recognition/images/NTCIR-Lifelog-256/u2/2015-05-08/b00009488_21i7lf_20150508_175744e.jpg'
p9464
sg4
(lp9465
(g146
g6
(g18
S'V/I?'
p9466
tp9467
Rp9468
tp9469
a(g15
g6
(g18
S'>\xa6\xce='
p9470
tp9471
Rp9472
tp9473
a(g68
g6
(g18
S'\xa8\xc9"='
p9474
tp9475
Rp9476
tp9477
a(g44
g6
(g18
S'R&\xaf<'
p9478
tp9479
Rp9480
tp9481
a(g108
g6
(g18
S'=\x82\xae<'
p9482
tp9483
Rp9484
tp9485
asg73
g32
sa(dp9486
g2
S'../../../data/emanuela/activity-recognition/images/NTCIR-Lifelog-256/u2/2015-05-08/b00009522_21i7lf_20150508_182719e.jpg'
p9487
sg4
(lp9488
(g32
g6
(g18
S'\xb4\x05k?'
p9489
tp9490
Rp9491
tp9492
a(g68
g6
(g18
S'\x9e\xe0\xe1<'
p9493
tp9494
Rp9495
tp9496
a(g15
g6
(g18
S'\xa5_W<'
p9497
tp9498
Rp9499
tp9500
a(g44
g6
(g18
S'\xe4\x8fQ<'
p9501
tp9502
Rp9503
tp9504
a(g56
g6
(g18
S'\x90\x02*<'
p9505
tp9506
Rp9507
tp9508
asg73
g32
sa(dp9509
g2
S'../../../data/emanuela/activity-recognition/images/NTCIR-Lifelog-256/u2/2015-04-23/b00001263_21i7lf_20150423_144759e.jpg'
p9510
sg4
(lp9511
(g15
g6
(g18
S'mH\t?'
p9512
tp9513
Rp9514
tp9515
a(g32
g6
(g18
S'\x19\x8d\x93>'
p9516
tp9517
Rp9518
tp9519
a(g56
g6
(g18
S'\x89\xdb\x8c='
p9520
tp9521
Rp9522
tp9523
a(g108
g6
(g18
S'\x19\xec%='
p9524
tp9525
Rp9526
tp9527
a(g239
g6
(g18
S',\xe1\x0b='
p9528
tp9529
Rp9530
tp9531
asg73
g32
sa(dp9532
g2
S'../../../data/emanuela/activity-recognition/images/NTCIR-Lifelog-256/u2/2015-04-26/b00004196_21i7lf_20150426_161617e.jpg'
p9533
sg4
(lp9534
(g108
g6
(g18
S'\xd3\x150?'
p9535
tp9536
Rp9537
tp9538
a(g68
g6
(g18
S'\n\xb4+>'
p9539
tp9540
Rp9541
tp9542
a(g56
g6
(g18
S'\x15\xaf\x1e='
p9543
tp9544
Rp9545
tp9546
a(g324
g6
(g18
S'Pi\x02='
p9547
tp9548
Rp9549
tp9550
a(g32
g6
(g18
S'\xbf)\xe0<'
p9551
tp9552
Rp9553
tp9554
asg73
g32
sa(dp9555
g2
S'../../../data/emanuela/activity-recognition/images/NTCIR-Lifelog-256/u2/2015-04-21/b00000880_21i7lf_20150421_192058e.jpg'
p9556
sg4
(lp9557
(g32
g6
(g18
S'\xf3F-?'
p9558
tp9559
Rp9560
tp9561
a(g68
g6
(g18
S'l\xe6\xd2='
p9562
tp9563
Rp9564
tp9565
a(g15
g6
(g18
S'\xef\xd9\x9d='
p9566
tp9567
Rp9568
tp9569
a(g108
g6
(g18
S'\x17\x009='
p9570
tp9571
Rp9572
tp9573
a(g96
g6
(g18
S'v\xd6\xf9<'
p9574
tp9575
Rp9576
tp9577
asg73
g32
sa(dp9578
g2
S'../../../data/emanuela/activity-recognition/images/NTCIR-Lifelog-256/u2/2015-04-27/b00005813_21i7lf_20150427_174737e.jpg'
p9579
sg4
(lp9580
(g108
g6
(g18
S'\x1b\x8c\xc1>'
p9581
tp9582
Rp9583
tp9584
a(g281
g6
(g18
S'\xfaH\xac>'
p9585
tp9586
Rp9587
tp9588
a(g417
g6
(g18
S'\xe8\x1c\n>'
p9589
tp9590
Rp9591
tp9592
a(g297
g6
(g18
S'\xe6\xb8C='
p9593
tp9594
Rp9595
tp9596
a(g2849
g6
(g18
S'\x0b\x0e\x84<'
p9597
tp9598
Rp9599
tp9600
asg73
g32
sa(dp9601
g2
S'../../../data/emanuela/activity-recognition/images/NTCIR-Lifelog-256/u2/2015-05-03/b00003900_21i7lf_20150503_155704e.jpg'
p9602
sg4
(lp9603
(g108
g6
(g18
S'\x04\x94\xe1>'
p9604
tp9605
Rp9606
tp9607
a(g324
g6
(g18
S'\xc9\xc7\x93>'
p9608
tp9609
Rp9610
tp9611
a(g56
g6
(g18
S'\xd0\x94\xb9='
p9612
tp9613
Rp9614
tp9615
a(g340
g6
(g18
S'a\x19\x96='
p9616
tp9617
Rp9618
tp9619
a(g32
g6
(g18
S'\x16O\x93='
p9620
tp9621
Rp9622
tp9623
asg73
g32
sa(dp9624
g2
S'../../../data/emanuela/activity-recognition/images/NTCIR-Lifelog-256/u2/2015-05-03/b00003946_21i7lf_20150503_162615e.jpg'
p9625
sg4
(lp9626
(g108
g6
(g18
S'&\xbd\x13?'
p9627
tp9628
Rp9629
tp9630
a(g32
g6
(g18
S'W\xb8\x87>'
p9631
tp9632
Rp9633
tp9634
a(g56
g6
(g18
S'\x90\xb4\xe8='
p9635
tp9636
Rp9637
tp9638
a(g15
g6
(g18
S',\r\x04='
p9639
tp9640
Rp9641
tp9642
a(g44
g6
(g18
S'w\xb3\x9a;'
p9643
tp9644
Rp9645
tp9646
asg73
g32
sa(dp9647
g2
S'../../../data/emanuela/activity-recognition/images/NTCIR-Lifelog-256/u2/2015-05-01/b00001792_21i7lf_20150501_091411e.jpg'
p9648
sg4
(lp9649
(g32
g6
(g18
S'\x11\xda\xeb>'
p9650
tp9651
Rp9652
tp9653
a(g108
g6
(g18
S'\xe0\x82f>'
p9654
tp9655
Rp9656
tp9657
a(g56
g6
(g18
S'\xd8Q\xf9='
p9658
tp9659
Rp9660
tp9661
a(g15
g6
(g18
S'#\x06\x87='
p9662
tp9663
Rp9664
tp9665
a(g324
g6
(g18
S'wh/='
p9666
tp9667
Rp9668
tp9669
asg73
g32
sa(dp9670
g2
S'../../../data/emanuela/activity-recognition/images/NTCIR-Lifelog-256/u2/2015-04-26/b00004195_21i7lf_20150426_161535e.jpg'
p9671
sg4
(lp9672
(g108
g6
(g18
S'\xaa|\xb2>'
p9673
tp9674
Rp9675
tp9676
a(g68
g6
(g18
S'\xa7\xc6\x81>'
p9677
tp9678
Rp9679
tp9680
a(g324
g6
(g18
S'z\x9eF>'
p9681
tp9682
Rp9683
tp9684
a(g56
g6
(g18
S'\xb2\xfa\xa6='
p9685
tp9686
Rp9687
tp9688
a(g15
g6
(g18
S'\x06\xfa\x06='
p9689
tp9690
Rp9691
tp9692
asg73
g32
sa(dp9693
g2
S'../../../data/emanuela/activity-recognition/images/NTCIR-Lifelog-256/u2/2015-04-27/b00005751_21i7lf_20150427_171018e.jpg'
p9694
sg4
(lp9695
(g68
g6
(g18
S'\xc5\xb9f>'
p9696
tp9697
Rp9698
tp9699
a(g239
g6
(g18
S' MU>'
p9700
tp9701
Rp9702
tp9703
a(g32
g6
(g18
S'S`\x18>'
p9704
tp9705
Rp9706
tp9707
a(g15
g6
(g18
S'\xff\xcf\x0c>'
p9708
tp9709
Rp9710
tp9711
a(g537
g6
(g18
S'\xf5j\xa7='
p9712
tp9713
Rp9714
tp9715
asg73
g32
sa(dp9716
g2
S'../../../data/emanuela/activity-recognition/images/NTCIR-Lifelog-256/u2/2015-04-27/b00005759_21i7lf_20150427_171512e.jpg'
p9717
sg4
(lp9718
(g108
g6
(g18
S'\x12\x0f\xbc>'
p9719
tp9720
Rp9721
tp9722
a(g32
g6
(g18
S'L\x8c\x19>'
p9723
tp9724
Rp9725
tp9726
a(g309
g6
(g18
S'\xc6\xd3\xcf='
p9727
tp9728
Rp9729
tp9730
a(g340
g6
(g18
S'5\xd5\x96='
p9731
tp9732
Rp9733
tp9734
a(g15
g6
(g18
S'\x93\x1f\x84='
p9735
tp9736
Rp9737
tp9738
asg73
g32
sa(dp9739
g2
S'../../../data/emanuela/activity-recognition/images/NTCIR-Lifelog-256/u2/2015-05-01/b00001781_21i7lf_20150501_090730e.jpg'
p9740
sg4
(lp9741
(g56
g6
(g18
S'\xb1Q\xf9>'
p9742
tp9743
Rp9744
tp9745
a(g108
g6
(g18
S'\x1f\xb4g>'
p9746
tp9747
Rp9748
tp9749
a(g32
g6
(g18
S'\x81e[>'
p9750
tp9751
Rp9752
tp9753
a(g15
g6
(g18
S'\xec|\x0f='
p9754
tp9755
Rp9756
tp9757
a(g324
g6
(g18
S'\x1a\x8e\x0f<'
p9758
tp9759
Rp9760
tp9761
asg73
g32
sa(dp9762
g2
S'../../../data/emanuela/activity-recognition/images/NTCIR-Lifelog-256/u2/2015-05-03/b00003970_21i7lf_20150503_164156e.jpg'
p9763
sg4
(lp9764
(g32
g6
(g18
S'\xbb\x8fp?'
p9765
tp9766
Rp9767
tp9768
a(g15
g6
(g18
S'\xba\xdd\x9b<'
p9769
tp9770
Rp9771
tp9772
a(g96
g6
(g18
S'\xb0l@<'
p9773
tp9774
Rp9775
tp9776
a(g108
g6
(g18
S'sG\n<'
p9777
tp9778
Rp9779
tp9780
a(g68
g6
(g18
S'Rd\xff;'
p9781
tp9782
Rp9783
tp9784
asg73
g32
sa(dp9785
g2
S'../../../data/emanuela/activity-recognition/images/NTCIR-Lifelog-256/u2/2015-05-08/b00009432_21i7lf_20150508_171307e.jpg'
p9786
sg4
(lp9787
(g56
g6
(g18
S'.W\n?'
p9788
tp9789
Rp9790
tp9791
a(g32
g6
(g18
S'\xdc\xd3\x86>'
p9792
tp9793
Rp9794
tp9795
a(g108
g6
(g18
S'\xdb\x0f\xcb='
p9796
tp9797
Rp9798
tp9799
a(g44
g6
(g18
S'\x80\xdbs='
p9800
tp9801
Rp9802
tp9803
a(g146
g6
(g18
S'\xeb7W<'
p9804
tp9805
Rp9806
tp9807
asg73
g32
sa(dp9808
g2
S'../../../data/emanuela/activity-recognition/images/NTCIR-Lifelog-256/u2/2015-04-27/b00005812_21i7lf_20150427_174702e.jpg'
p9809
sg4
(lp9810
(g108
g6
(g18
S'@h\xe7>'
p9811
tp9812
Rp9813
tp9814
a(g281
g6
(g18
S'\xcd{\xa2>'
p9815
tp9816
Rp9817
tp9818
a(g417
g6
(g18
S'.>\xc1='
p9819
tp9820
Rp9821
tp9822
a(g297
g6
(g18
S'eL$='
p9823
tp9824
Rp9825
tp9826
a(g68
g6
(g18
S'e\xe8\x88<'
p9827
tp9828
Rp9829
tp9830
asg73
g32
sa.