(lp0
(dp1
S'image'
p2
S'../../../data/emanuela/activity-recognition/images/NTCIR-Lifelog-256/u2/2015-05-03/b00003866_21i7lf_20150503_153545e.jpg'
p3
sS'result'
p4
(lp5
(cnumpy.core.multiarray
scalar
p6
(cnumpy
dtype
p7
(S'S24'
p8
I0
I1
tp9
Rp10
(I3
S'|'
p11
NNNI24
I1
I0
tp12
bS'having drinks/meal alone'
p13
tp14
Rp15
g6
(g7
(S'f4'
p16
I0
I1
tp17
Rp18
(I3
S'<'
p19
NNNI-1
I-1
I0
tp20
bS'\xa4\xea\x08?'
p21
tp22
Rp23
tp24
a(g6
(g7
(S'S25'
p25
I0
I1
tp26
Rp27
(I3
S'|'
p28
NNNI25
I1
I0
tp29
bS'having meal with somebody'
p30
tp31
Rp32
g6
(g18
S'\x91\xef\xec>'
p33
tp34
Rp35
tp36
a(g6
(g7
(S'S8'
p37
I0
I1
tp38
Rp39
(I3
S'|'
p40
NNNI8
I1
I0
tp41
bS'shopping'
p42
tp43
Rp44
g6
(g18
S'S\xb2\x95:'
p45
tp46
Rp47
tp48
a(g6
(g7
(S'S27'
p49
I0
I1
tp50
Rp51
(I3
S'|'
p52
NNNI27
I1
I0
tp53
bS'having drinks with somebody'
p54
tp55
Rp56
g6
(g18
S',\x04\x13:'
p57
tp58
Rp59
tp60
a(g6
(g7
(S'S11'
p61
I0
I1
tp62
Rp63
(I3
S'|'
p64
NNNI11
I1
I0
tp65
bS'socializing'
p66
tp67
Rp68
g6
(g18
S'5\xb3\t9'
p69
tp70
Rp71
tp72
asS'label'
p73
g32
sa(dp74
g2
S'../../../data/emanuela/activity-recognition/images/NTCIR-Lifelog-256/u2/2015-05-02/b00003276_21i7lf_20150502_143751e.jpg'
p75
sg4
(lp76
(g56
g6
(g18
S'\x92>\xf5>'
p77
tp78
Rp79
tp80
a(g68
g6
(g18
S'\xe5.{>'
p81
tp82
Rp83
tp84
a(g32
g6
(g18
S'\xaf\xa5 >'
p85
tp86
Rp87
tp88
a(g6
(g7
(S'S7'
p89
I0
I1
tp90
Rp91
(I3
S'|'
p92
NNNI7
I1
I0
tp93
bS'talking'
p94
tp95
Rp96
g6
(g18
S'\x0b\x1ec='
p97
tp98
Rp99
tp100
a(g6
(g7
(S'S7'
p101
I0
I1
tp102
Rp103
(I3
S'|'
p104
NNNI7
I1
I0
tp105
bS'meeting'
p106
tp107
Rp108
g6
(g18
S'\xd2\x84\xae<'
p109
tp110
Rp111
tp112
asg73
g32
sa(dp113
g2
S'../../../data/emanuela/activity-recognition/images/NTCIR-Lifelog-256/u2/2015-04-20/b00000294_21i7lf_20150420_123509e.jpg'
p114
sg4
(lp115
(g68
g6
(g18
S'\x11\xe0\x05?'
p116
tp117
Rp118
tp119
a(g56
g6
(g18
S';\xc1|>'
p120
tp121
Rp122
tp123
a(g32
g6
(g18
S'&B)>'
p124
tp125
Rp126
tp127
a(g15
g6
(g18
S'\xef5J='
p128
tp129
Rp130
tp131
a(g96
g6
(g18
S'\xba\xe9\x8d;'
p132
tp133
Rp134
tp135
asg73
g32
sa(dp136
g2
S'../../../data/emanuela/activity-recognition/images/NTCIR-Lifelog-256/u2/2015-04-30/b00001031_21i7lf_20150430_131754e.jpg'
p137
sg4
(lp138
(g15
g6
(g18
S'\x10\xc8c?'
p139
tp140
Rp141
tp142
a(g32
g6
(g18
S'\x1b\xd2\xdf='
p143
tp144
Rp145
tp146
a(g56
g6
(g18
S'\xff~\x02:'
p147
tp148
Rp149
tp150
a(g96
g6
(g18
S'\xe7_\xc28'
p151
tp152
Rp153
tp154
a(g6
(g7
(S'S19'
p155
I0
I1
tp156
Rp157
(I3
S'|'
p158
NNNI19
I1
I0
tp159
bS'attending a seminar'
p160
tp161
Rp162
g6
(g18
S'U\x81\xac8'
p163
tp164
Rp165
tp166
asg73
g32
sa(dp167
g2
S'../../../data/emanuela/activity-recognition/images/NTCIR-Lifelog-256/u2/2015-05-03/b00003869_21i7lf_20150503_153735e.jpg'
p168
sg4
(lp169
(g32
g6
(g18
S'\x81\x1fg?'
p170
tp171
Rp172
tp173
a(g15
g6
(g18
S'*b\xc0='
p174
tp175
Rp176
tp177
a(g56
g6
(g18
S'\xabv\xed:'
p178
tp179
Rp180
tp181
a(g44
g6
(g18
S'\x06\\>:'
p182
tp183
Rp184
tp185
a(g68
g6
(g18
S'S\xbf\r9'
p186
tp187
Rp188
tp189
asg73
g32
sa(dp190
g2
S'../../../data/emanuela/activity-recognition/images/NTCIR-Lifelog-256/u2/2015-05-01/b00002615_21i7lf_20150501_183620e.jpg'
p191
sg4
(lp192
(g15
g6
(g18
S'\x99"S?'
p193
tp194
Rp195
tp196
a(g6
(g7
(S'S7'
p197
I0
I1
tp198
Rp199
(I3
S'|'
p200
NNNI7
I1
I0
tp201
bS'cooking'
p202
tp203
Rp204
g6
(g18
S'\xc0\x83\x10='
p205
tp206
Rp207
tp208
a(g6
(g7
(S'S7'
p209
I0
I1
tp210
Rp211
(I3
S'|'
p212
NNNI7
I1
I0
tp213
bS'reading'
p214
tp215
Rp216
g6
(g18
S'\n\x8a\t='
p217
tp218
Rp219
tp220
a(g6
(g7
(S'S19'
p221
I0
I1
tp222
Rp223
(I3
S'|'
p224
NNNI19
I1
I0
tp225
bS'cleaning and chores'
p226
tp227
Rp228
g6
(g18
S'\xdf?\xe2<'
p229
tp230
Rp231
tp232
a(g32
g6
(g18
S'\xccY\xc1<'
p233
tp234
Rp235
tp236
asg73
g32
sa(dp237
g2
S'../../../data/emanuela/activity-recognition/images/NTCIR-Lifelog-256/u2/2015-05-06/b00006608_21i7lf_20150506_123144e.jpg'
p238
sg4
(lp239
(g15
g6
(g18
S'i\xe8\x06?'
p240
tp241
Rp242
tp243
a(g32
g6
(g18
S'\xa0J\xf1>'
p244
tp245
Rp246
tp247
a(g56
g6
(g18
S'<\x11\x98:'
p248
tp249
Rp250
tp251
a(g68
g6
(g18
S'\x0f\xf9\xb39'
p252
tp253
Rp254
tp255
a(g44
g6
(g18
S'\x83\xb3$9'
p256
tp257
Rp258
tp259
asg73
g32
sa(dp260
g2
S'../../../data/emanuela/activity-recognition/images/NTCIR-Lifelog-256/u2/2015-05-01/b00002611_21i7lf_20150501_183359e.jpg'
p261
sg4
(lp262
(g15
g6
(g18
S'\xea\xf0\x04?'
p263
tp264
Rp265
tp266
a(g32
g6
(g18
S'Z^\x05>'
p267
tp268
Rp269
tp270
a(g56
g6
(g18
S'\xd1\xaf\xdb='
p271
tp272
Rp273
tp274
a(g6
(g7
(S'S6'
p275
I0
I1
tp276
Rp277
(I3
S'|'
p278
NNNI6
I1
I0
tp279
bS'mobile'
p280
tp281
Rp282
g6
(g18
S'\xa1jP='
p283
tp284
Rp285
tp286
a(g216
g6
(g18
S'3\xb90='
p287
tp288
Rp289
tp290
asg73
g32
sa(dp291
g2
S'../../../data/emanuela/activity-recognition/images/NTCIR-Lifelog-256/u2/2015-05-03/b00003920_21i7lf_20150503_160911e.jpg'
p292
sg4
(lp293
(g56
g6
(g18
S'\x8d\xc2\xff>'
p294
tp295
Rp296
tp297
a(g32
g6
(g18
S'\xa4\xa7\x8e>'
p298
tp299
Rp300
tp301
a(g15
g6
(g18
S'\x818\xb5='
p302
tp303
Rp304
tp305
a(g96
g6
(g18
S'Ir0='
p306
tp307
Rp308
tp309
a(g6
(g7
(S'S14'
p310
I0
I1
tp311
Rp312
(I3
S'|'
p313
NNNI14
I1
I0
tp314
bS'walking indoor'
p315
tp316
Rp317
g6
(g18
S'\xb1g\xf3<'
p318
tp319
Rp320
tp321
asg73
g32
sa(dp322
g2
S'../../../data/emanuela/activity-recognition/images/NTCIR-Lifelog-256/u2/2015-04-27/b00005389_21i7lf_20150427_132607e.jpg'
p323
sg4
(lp324
(g32
g6
(g18
S'\xf7\x82\xfb>'
p325
tp326
Rp327
tp328
a(g15
g6
(g18
S'\xef\x85\xd4>'
p329
tp330
Rp331
tp332
a(g56
g6
(g18
S':\x12\x9a='
p333
tp334
Rp335
tp336
a(g68
g6
(g18
S'\xf8\xe6\x02<'
p337
tp338
Rp339
tp340
a(g216
g6
(g18
S'\xfap3;'
p341
tp342
Rp343
tp344
asg73
g32
sa(dp345
g2
S'../../../data/emanuela/activity-recognition/images/NTCIR-Lifelog-256/u2/2015-05-03/b00003834_21i7lf_20150503_151624e.jpg'
p346
sg4
(lp347
(g15
g6
(g18
S'5\xe9\xba>'
p348
tp349
Rp350
tp351
a(g228
g6
(g18
S'\x8e\xbc@>'
p352
tp353
Rp354
tp355
a(g32
g6
(g18
S'\x0b\xa5\x0f>'
p356
tp357
Rp358
tp359
a(g56
g6
(g18
S'\x10\x16\xeb='
p360
tp361
Rp362
tp363
a(g6
(g7
(S'S15'
p364
I0
I1
tp365
Rp366
(I3
S'|'
p367
NNNI15
I1
I0
tp368
bS'walking outdoor'
p369
tp370
Rp371
g6
(g18
S'|\x8fM='
p372
tp373
Rp374
tp375
asg73
g32
sa(dp376
g2
S'../../../data/emanuela/activity-recognition/images/NTCIR-Lifelog-256/u2/2015-05-03/b00003868_21i7lf_20150503_153658e.jpg'
p377
sg4
(lp378
(g32
g6
(g18
S'\xad\x08s?'
p379
tp380
Rp381
tp382
a(g15
g6
(g18
S'\xab\xccJ='
p383
tp384
Rp385
tp386
a(g56
g6
(g18
S'\xdd+9:'
p387
tp388
Rp389
tp390
a(g44
g6
(g18
S'\xe5*\x9e9'
p391
tp392
Rp393
tp394
a(g162
g6
(g18
S'jp\xaa7'
p395
tp396
Rp397
tp398
asg73
g32
sa(dp399
g2
S'../../../data/emanuela/activity-recognition/images/NTCIR-Lifelog-256/u2/2015-05-01/b00002109_21i7lf_20150501_122916e.jpg'
p400
sg4
(lp401
(g15
g6
(g18
S'\xbe\xc4_?'
p402
tp403
Rp404
tp405
a(g32
g6
(g18
S'&\xd6\xfe='
p406
tp407
Rp408
tp409
a(g44
g6
(g18
S'\xb88-:'
p410
tp411
Rp412
tp413
a(g56
g6
(g18
S'\xdf\xfbz9'
p414
tp415
Rp416
tp417
a(g204
g6
(g18
S'\xa2\x1eC9'
p418
tp419
Rp420
tp421
asg73
g32
sa(dp422
g2
S'../../../data/emanuela/activity-recognition/images/NTCIR-Lifelog-256/u2/2015-05-05/b00005331_21i7lf_20150505_120719e.jpg'
p423
sg4
(lp424
(g15
g6
(g18
S'\xdb1m?'
p425
tp426
Rp427
tp428
a(g32
g6
(g18
S'\xa8E\x94='
p429
tp430
Rp431
tp432
a(g44
g6
(g18
S'\xa8\xfb\x979'
p433
tp434
Rp435
tp436
a(g216
g6
(g18
S'?*\x109'
p437
tp438
Rp439
tp440
a(g56
g6
(g18
S'[\xcb\x0e9'
p441
tp442
Rp443
tp444
asg73
g32
sa(dp445
g2
S'../../../data/emanuela/activity-recognition/images/NTCIR-Lifelog-256/u2/2015-04-26/b00004218_21i7lf_20150426_163412e.jpg'
p446
sg4
(lp447
(g96
g6
(g18
S'\x0eI\xcd>'
p448
tp449
Rp450
tp451
a(g56
g6
(g18
S'\xf7R\x82>'
p452
tp453
Rp454
tp455
a(g32
g6
(g18
S'\xe7\x90\xf6='
p456
tp457
Rp458
tp459
a(g68
g6
(g18
S'e\x96t='
p460
tp461
Rp462
tp463
a(g15
g6
(g18
S'\x15.*='
p464
tp465
Rp466
tp467
asg73
g32
sa(dp468
g2
S'../../../data/emanuela/activity-recognition/images/NTCIR-Lifelog-256/u2/2015-05-05/b00005344_21i7lf_20150505_121524e.jpg'
p469
sg4
(lp470
(g32
g6
(g18
S'\xa0\xe7-?'
p471
tp472
Rp473
tp474
a(g15
g6
(g18
S'\xa1d\x9e>'
p475
tp476
Rp477
tp478
a(g56
g6
(g18
S'ej\xc7;'
p479
tp480
Rp481
tp482
a(g96
g6
(g18
S'Q\xb9\x08;'
p483
tp484
Rp485
tp486
a(g68
g6
(g18
S'\x12A\xb2:'
p487
tp488
Rp489
tp490
asg73
g32
sa(dp491
g2
S'../../../data/emanuela/activity-recognition/images/NTCIR-Lifelog-256/u2/2015-05-07/b00007536_21i7lf_20150507_105939e.jpg'
p492
sg4
(lp493
(g32
g6
(g18
S'4L+?'
p494
tp495
Rp496
tp497
a(g68
g6
(g18
S'\xcb\xffV>'
p498
tp499
Rp500
tp501
a(g15
g6
(g18
S'\xa0o\xb5='
p502
tp503
Rp504
tp505
a(g56
g6
(g18
S'\xfe\xb6\xbd<'
p506
tp507
Rp508
tp509
a(g44
g6
(g18
S'\n\t\x80;'
p510
tp511
Rp512
tp513
asg73
g32
sa(dp514
g2
S'../../../data/emanuela/activity-recognition/images/NTCIR-Lifelog-256/u2/2015-04-26/b00004206_21i7lf_20150426_162223e.jpg'
p515
sg4
(lp516
(g15
g6
(g18
S'\xa4\x9e9>'
p517
tp518
Rp519
tp520
a(g228
g6
(g18
S'\xa2C+>'
p521
tp522
Rp523
tp524
a(g44
g6
(g18
S'\xbe\xb5\t>'
p525
tp526
Rp527
tp528
a(g204
g6
(g18
S'E\xe4\x06>'
p529
tp530
Rp531
tp532
a(g216
g6
(g18
S'\xda2\xa5='
p533
tp534
Rp535
tp536
asg73
g32
sa(dp537
g2
S'../../../data/emanuela/activity-recognition/images/NTCIR-Lifelog-256/u2/2015-04-30/b00001032_21i7lf_20150430_131829e.jpg'
p538
sg4
(lp539
(g15
g6
(g18
S'\x0f\x87\x02?'
p540
tp541
Rp542
tp543
a(g32
g6
(g18
S'\x9b\xd7\xf8>'
p544
tp545
Rp546
tp547
a(g56
g6
(g18
S'\xbb<9;'
p548
tp549
Rp550
tp551
a(g96
g6
(g18
S'}\xe0\x1c:'
p552
tp553
Rp554
tp555
a(g108
g6
(g18
S',\xda\xb19'
p556
tp557
Rp558
tp559
asg73
g32
sa(dp560
g2
S'../../../data/emanuela/activity-recognition/images/NTCIR-Lifelog-256/u2/2015-04-20/b00000296_21i7lf_20150420_123629e.jpg'
p561
sg4
(lp562
(g68
g6
(g18
S'\xae\xa2&?'
p563
tp564
Rp565
tp566
a(g32
g6
(g18
S':\x1f\x93>'
p567
tp568
Rp569
tp570
a(g56
g6
(g18
S"\xbbd'="
p571
tp572
Rp573
tp574
a(g15
g6
(g18
S'\x87\xd4q<'
p575
tp576
Rp577
tp578
a(g96
g6
(g18
S'\xdf\xbd\x15;'
p579
tp580
Rp581
tp582
asg73
g32
sa(dp583
g2
S'../../../data/emanuela/activity-recognition/images/NTCIR-Lifelog-256/u2/2015-05-02/b00003275_21i7lf_20150502_143710e.jpg'
p584
sg4
(lp585
(g15
g6
(g18
S'\xae<\x11?'
p586
tp587
Rp588
tp589
a(g56
g6
(g18
S'\xe8\xe1\xf8='
p590
tp591
Rp592
tp593
a(g32
g6
(g18
S'nN\xbc='
p594
tp595
Rp596
tp597
a(g68
g6
(g18
S'\x01\x87%='
p598
tp599
Rp600
tp601
a(g228
g6
(g18
S'\xc17\r='
p602
tp603
Rp604
tp605
asg73
g32
sa(dp606
g2
S'../../../data/emanuela/activity-recognition/images/NTCIR-Lifelog-256/u2/2015-05-03/b00003846_21i7lf_20150503_152345e.jpg'
p607
sg4
(lp608
(g32
g6
(g18
S'4q\xec>'
p609
tp610
Rp611
tp612
a(g15
g6
(g18
S'\x9f\xb2\x9c>'
p613
tp614
Rp615
tp616
a(g228
g6
(g18
S'\x0e\xc2\x98='
p617
tp618
Rp619
tp620
a(g56
g6
(g18
S'7\xa6%='
p621
tp622
Rp623
tp624
a(g44
g6
(g18
S'm\xb5\xdd<'
p625
tp626
Rp627
tp628
asg73
g32
sa(dp629
g2
S'../../../data/emanuela/activity-recognition/images/NTCIR-Lifelog-256/u2/2015-05-03/b00003912_21i7lf_20150503_160416e.jpg'
p630
sg4
(lp631
(g56
g6
(g18
S'\xe5\x96\x9c>'
p632
tp633
Rp634
tp635
a(g32
g6
(g18
S'\xbf\x91w>'
p636
tp637
Rp638
tp639
a(g15
g6
(g18
S'\x91$)>'
p640
tp641
Rp642
tp643
a(g228
g6
(g18
S'\xfaG\xc2='
p644
tp645
Rp646
tp647
a(g96
g6
(g18
S'\x99\x112='
p648
tp649
Rp650
tp651
asg73
g32
sa(dp652
g2
S'../../../data/emanuela/activity-recognition/images/NTCIR-Lifelog-256/u2/2015-04-27/b00005386_21i7lf_20150427_132420e.jpg'
p653
sg4
(lp654
(g32
g6
(g18
S'\xe5\xf9L?'
p655
tp656
Rp657
tp658
a(g15
g6
(g18
S'@vK>'
p659
tp660
Rp661
tp662
a(g68
g6
(g18
S'E\xe4~9'
p663
tp664
Rp665
tp666
a(g56
g6
(g18
S'\r\x06i9'
p667
tp668
Rp669
tp670
a(g44
g6
(g18
S']Fg8'
p671
tp672
Rp673
tp674
asg73
g32
sa(dp675
g2
S'../../../data/emanuela/activity-recognition/images/NTCIR-Lifelog-256/u2/2015-05-02/b00003280_21i7lf_20150502_144021e.jpg'
p676
sg4
(lp677
(g15
g6
(g18
S'= \xfa>'
p678
tp679
Rp680
tp681
a(g216
g6
(g18
S'^\xbft>'
p682
tp683
Rp684
tp685
a(g56
g6
(g18
S'\xa17\x8a='
p686
tp687
Rp688
tp689
a(g32
g6
(g18
S'\xe0W\t='
p690
tp691
Rp692
tp693
a(g6
(g7
(S'S16'
p694
I0
I1
tp695
Rp696
(I3
S'|'
p697
NNNI16
I1
I0
tp698
bS'public transport'
p699
tp700
Rp701
g6
(g18
S'\xe5\x87\xf4<'
p702
tp703
Rp704
tp705
asg73
g32
sa(dp706
g2
S'../../../data/emanuela/activity-recognition/images/NTCIR-Lifelog-256/u2/2015-04-26/b00004211_21i7lf_20150426_162642e.jpg'
p707
sg4
(lp708
(g32
g6
(g18
S'\x0fuq?'
p709
tp710
Rp711
tp712
a(g15
g6
(g18
S'\xb0dH='
p713
tp714
Rp715
tp716
a(g317
g6
(g18
S'\x86]\xf3:'
p717
tp718
Rp719
tp720
a(g56
g6
(g18
S'\xb3\x9e\xcf:'
p721
tp722
Rp723
tp724
a(g96
g6
(g18
S'\xdbj\xc8:'
p725
tp726
Rp727
tp728
asg73
g32
sa(dp729
g2
S'../../../data/emanuela/activity-recognition/images/NTCIR-Lifelog-256/u2/2015-04-28/b00006673_21i7lf_20150428_124646e.jpg'
p730
sg4
(lp731
(g15
g6
(g18
S'\x05\xda.?'
p732
tp733
Rp734
tp735
a(g32
g6
(g18
S'm\x8d\xa0>'
p736
tp737
Rp738
tp739
a(g56
g6
(g18
S'\x17\xd3\xe2:'
p740
tp741
Rp742
tp743
a(g44
g6
(g18
S'\x92\x8e\x0e:'
p744
tp745
Rp746
tp747
a(g162
g6
(g18
S'3\x93\xdf9'
p748
tp749
Rp750
tp751
asg73
g32
sa(dp752
g2
S'../../../data/emanuela/activity-recognition/images/NTCIR-Lifelog-256/u2/2015-04-26/b00004227_21i7lf_20150426_163944e.jpg'
p753
sg4
(lp754
(g15
g6
(g18
S'\x0f\xb1\x96>'
p755
tp756
Rp757
tp758
a(g317
g6
(g18
S's\xcf\x80>'
p759
tp760
Rp761
tp762
a(g56
g6
(g18
S'\xbc\xc7\n>'
p763
tp764
Rp765
tp766
a(g32
g6
(g18
S'\x9b\x9e\xaa='
p767
tp768
Rp769
tp770
a(g228
g6
(g18
S'?\x82\x1f='
p771
tp772
Rp773
tp774
asg73
g32
sa(dp775
g2
S'../../../data/emanuela/activity-recognition/images/NTCIR-Lifelog-256/u2/2015-05-02/b00003282_21i7lf_20150502_144134e.jpg'
p776
sg4
(lp777
(g56
g6
(g18
S'\xbdZ6?'
p778
tp779
Rp780
tp781
a(g68
g6
(g18
S'\x07\xca\r>'
p782
tp783
Rp784
tp785
a(g32
g6
(g18
S'&\xc6&='
p786
tp787
Rp788
tp789
a(g701
g6
(g18
S'-\x14\x1a='
p790
tp791
Rp792
tp793
a(g15
g6
(g18
S'U\xb6\xa9<'
p794
tp795
Rp796
tp797
asg73
g32
sa(dp798
g2
S'../../../data/emanuela/activity-recognition/images/NTCIR-Lifelog-256/u2/2015-05-01/b00002595_21i7lf_20150501_182406e.jpg'
p799
sg4
(lp800
(g15
g6
(g18
S'P\xd00?'
p801
tp802
Rp803
tp804
a(g68
g6
(g18
S'\xebg\t>'
p805
tp806
Rp807
tp808
a(g32
g6
(g18
S',%\xaa='
p809
tp810
Rp811
tp812
a(g56
g6
(g18
S'\x13\x9c\x93='
p813
tp814
Rp815
tp816
a(g6
(g7
(S'S2'
p817
I0
I1
tp818
Rp819
(I3
S'|'
p820
NNNI2
I1
I0
tp821
bS'tv'
p822
tp823
Rp824
g6
(g18
S'0h\x1b<'
p825
tp826
Rp827
tp828
asg73
g32
sa(dp829
g2
S'../../../data/emanuela/activity-recognition/images/NTCIR-Lifelog-256/u2/2015-05-01/b00002616_21i7lf_20150501_183651e.jpg'
p830
sg4
(lp831
(g15
g6
(g18
S'\xb1\xae\xf4>'
p832
tp833
Rp834
tp835
a(g32
g6
(g18
S'\r\xa3\xc0>'
p836
tp837
Rp838
tp839
a(g56
g6
(g18
S'\r\xb4\xf6<'
p840
tp841
Rp842
tp843
a(g204
g6
(g18
S'\x10l\x8f<'
p844
tp845
Rp846
tp847
a(g96
g6
(g18
S'\x93\xaa\x85<'
p848
tp849
Rp850
tp851
asg73
g32
sa(dp852
g2
S'../../../data/emanuela/activity-recognition/images/NTCIR-Lifelog-256/u2/2015-05-03/b00003826_21i7lf_20150503_151134e.jpg'
p853
sg4
(lp854
(g56
g6
(g18
S'H\xb6J>'
p855
tp856
Rp857
tp858
a(g32
g6
(g18
S'\x0b\xf41>'
p859
tp860
Rp861
tp862
a(g228
g6
(g18
S'\x0e\xae\x16>'
p863
tp864
Rp865
tp866
a(g15
g6
(g18
S'\x81\xd9\x04>'
p867
tp868
Rp869
tp870
a(g317
g6
(g18
S'H~\x82='
p871
tp872
Rp873
tp874
asg73
g32
sa(dp875
g2
S'../../../data/emanuela/activity-recognition/images/NTCIR-Lifelog-256/u2/2015-04-20/b00000293_21i7lf_20150420_123434e.jpg'
p876
sg4
(lp877
(g32
g6
(g18
S'7Ka?'
p878
tp879
Rp880
tp881
a(g68
g6
(g18
S'\xea\xf0\x8b='
p882
tp883
Rp884
tp885
a(g15
g6
(g18
S'\xe6\xb9\xc2<'
p886
tp887
Rp888
tp889
a(g44
g6
(g18
S'L_Z<'
p890
tp891
Rp892
tp893
a(g56
g6
(g18
S'h\xdc\xd7;'
p894
tp895
Rp896
tp897
asg73
g32
sa(dp898
g2
S'../../../data/emanuela/activity-recognition/images/NTCIR-Lifelog-256/u2/2015-05-03/b00003874_21i7lf_20150503_154039e.jpg'
p899
sg4
(lp900
(g32
g6
(g18
S'\x85\xd1E?'
p901
tp902
Rp903
tp904
a(g15
g6
(g18
S'K\xf1f>'
p905
tp906
Rp907
tp908
a(g56
g6
(g18
S'Y\x89~:'
p909
tp910
Rp911
tp912
a(g44
g6
(g18
S'j\xb9+:'
p913
tp914
Rp915
tp916
a(g204
g6
(g18
S'\xdb\x95\xa57'
p917
tp918
Rp919
tp920
asg73
g32
sa(dp921
g2
S'../../../data/emanuela/activity-recognition/images/NTCIR-Lifelog-256/u2/2015-05-03/b00003836_21i7lf_20150503_151741e.jpg'
p922
sg4
(lp923
(g15
g6
(g18
S'\xe5\x1a\x18?'
p924
tp925
Rp926
tp927
a(g56
g6
(g18
S'W\xb8\xf1='
p928
tp929
Rp930
tp931
a(g32
g6
(g18
S'z\xfb\xe9='
p932
tp933
Rp934
tp935
a(g44
g6
(g18
S'\x96\x82"='
p936
tp937
Rp938
tp939
a(g228
g6
(g18
S'\xfa\xbe\xf9<'
p940
tp941
Rp942
tp943
asg73
g32
sa(dp944
g2
S'../../../data/emanuela/activity-recognition/images/NTCIR-Lifelog-256/u2/2015-05-08/b00009017_21i7lf_20150508_124831e.jpg'
p945
sg4
(lp946
(g15
g6
(g18
S'qOF?'
p947
tp948
Rp949
tp950
a(g32
g6
(g18
S']sf>'
p951
tp952
Rp953
tp954
a(g162
g6
(g18
S'\xd0\xfc\xa88'
p955
tp956
Rp957
tp958
a(g56
g6
(g18
S'\xc5\xef\x8a8'
p959
tp960
Rp961
tp962
a(g44
g6
(g18
S'\xea\xb9!8'
p963
tp964
Rp965
tp966
asg73
g32
sa(dp967
g2
S'../../../data/emanuela/activity-recognition/images/NTCIR-Lifelog-256/u2/2015-05-03/b00003895_21i7lf_20150503_155405e.jpg'
p968
sg4
(lp969
(g32
g6
(g18
S'\xc6E\xeb>'
p970
tp971
Rp972
tp973
a(g15
g6
(g18
S'\xfa\x8a\xc5>'
p974
tp975
Rp976
tp977
a(g56
g6
(g18
S'\x0f=\xfa='
p978
tp979
Rp980
tp981
a(g228
g6
(g18
S'\xad\x94:<'
p982
tp983
Rp984
tp985
a(g204
g6
(g18
S'\xe5\x8a#<'
p986
tp987
Rp988
tp989
asg73
g32
sa(dp990
g2
S'../../../data/emanuela/activity-recognition/images/NTCIR-Lifelog-256/u2/2015-04-21/b00000343_21i7lf_20150421_132352e.jpg'
p991
sg4
(lp992
(g15
g6
(g18
S'0\x913?'
p993
tp994
Rp995
tp996
a(g32
g6
(g18
S'wb\x8e>'
p997
tp998
Rp999
tp1000
a(g56
g6
(g18
S'\xf4_\x92<'
p1001
tp1002
Rp1003
tp1004
a(g108
g6
(g18
S'@e\xaa:'
p1005
tp1006
Rp1007
tp1008
a(g68
g6
(g18
S'\x8cZ\x1f:'
p1009
tp1010
Rp1011
tp1012
asg73
g32
sa(dp1013
g2
S'../../../data/emanuela/activity-recognition/images/NTCIR-Lifelog-256/u2/2015-05-07/b00007556_21i7lf_20150507_111150e.jpg'
p1014
sg4
(lp1015
(g32
g6
(g18
S'\xc2\x93\xff>'
p1016
tp1017
Rp1018
tp1019
a(g15
g6
(g18
S'M6\xbc>'
p1020
tp1021
Rp1022
tp1023
a(g44
g6
(g18
S'\xc5\xa8\x99='
p1024
tp1025
Rp1026
tp1027
a(g317
g6
(g18
S'\xf5\x85\xbf<'
p1028
tp1029
Rp1030
tp1031
a(g68
g6
(g18
S'\x06\xdb\x1d<'
p1032
tp1033
Rp1034
tp1035
asg73
g32
sa(dp1036
g2
S'../../../data/emanuela/activity-recognition/images/NTCIR-Lifelog-256/u2/2015-05-03/b00003810_21i7lf_20150503_150154e.jpg'
p1037
sg4
(lp1038
(g228
g6
(g18
S'\x15\xd2\x89>'
p1039
tp1040
Rp1041
tp1042
a(g15
g6
(g18
S'x/%>'
p1043
tp1044
Rp1045
tp1046
a(g56
g6
(g18
S'k9 >'
p1047
tp1048
Rp1049
tp1050
a(g216
g6
(g18
S'\x14#\x00>'
p1051
tp1052
Rp1053
tp1054
a(g282
g6
(g18
S'w \x97='
p1055
tp1056
Rp1057
tp1058
asg73
g32
sa(dp1059
g2
S'../../../data/emanuela/activity-recognition/images/NTCIR-Lifelog-256/u2/2015-04-21/b00000350_21i7lf_20150421_132813e.jpg'
p1060
sg4
(lp1061
(g15
g6
(g18
S'\xc3AZ?'
p1062
tp1063
Rp1064
tp1065
a(g32
g6
(g18
S'i\n\x16>'
p1066
tp1067
Rp1068
tp1069
a(g56
g6
(g18
S'j\xc8\x1a:'
p1070
tp1071
Rp1072
tp1073
a(g228
g6
(g18
S'\xe6\xcf\x968'
p1074
tp1075
Rp1076
tp1077
a(g68
g6
(g18
S'\xc0\xbcu8'
p1078
tp1079
Rp1080
tp1081
asg73
g32
sa(dp1082
g2
S'../../../data/emanuela/activity-recognition/images/NTCIR-Lifelog-256/u2/2015-04-20/b00000297_21i7lf_20150420_123704e.jpg'
p1083
sg4
(lp1084
(g68
g6
(g18
S'Zu\xcc>'
p1085
tp1086
Rp1087
tp1088
a(g32
g6
(g18
S'\xa6\n\xb8>'
p1089
tp1090
Rp1091
tp1092
a(g15
g6
(g18
S'D\xbbS>'
p1093
tp1094
Rp1095
tp1096
a(g56
g6
(g18
S'\xf9\x92w<'
p1097
tp1098
Rp1099
tp1100
a(g228
g6
(g18
S'\x1e\x0b\xf7;'
p1101
tp1102
Rp1103
tp1104
asg73
g32
sa(dp1105
g2
S'../../../data/emanuela/activity-recognition/images/NTCIR-Lifelog-256/u2/2015-04-28/b00006666_21i7lf_20150428_124229e.jpg'
p1106
sg4
(lp1107
(g32
g6
(g18
S'\xe1\xa6\x18?'
p1108
tp1109
Rp1110
tp1111
a(g15
g6
(g18
S'\xab\x92\xce>'
p1112
tp1113
Rp1114
tp1115
a(g56
g6
(g18
S'\xb3\x92\x029'
p1116
tp1117
Rp1118
tp1119
a(g44
g6
(g18
S'v\xbc\xb68'
p1120
tp1121
Rp1122
tp1123
a(g68
g6
(g18
S'P9\xb56'
p1124
tp1125
Rp1126
tp1127
asg73
g32
sa(dp1128
g2
S'../../../data/emanuela/activity-recognition/images/NTCIR-Lifelog-256/u2/2015-05-06/b00006613_21i7lf_20150506_123451e.jpg'
p1129
sg4
(lp1130
(g15
g6
(g18
S'\xeaBo?'
p1131
tp1132
Rp1133
tp1134
a(g32
g6
(g18
S'\\h\x85='
p1135
tp1136
Rp1137
tp1138
a(g56
g6
(g18
S'\x91QR9'
p1139
tp1140
Rp1141
tp1142
a(g68
g6
(g18
S'mx\x877'
p1143
tp1144
Rp1145
tp1146
a(g44
g6
(g18
S'\xc9\x7fb7'
p1147
tp1148
Rp1149
tp1150
asg73
g32
sa(dp1151
g2
S'../../../data/emanuela/activity-recognition/images/NTCIR-Lifelog-256/u2/2015-05-05/b00005346_21i7lf_20150505_121640e.jpg'
p1152
sg4
(lp1153
(g32
g6
(g18
S'\xc5c`?'
p1154
tp1155
Rp1156
tp1157
a(g15
g6
(g18
S'\x8crk='
p1158
tp1159
Rp1160
tp1161
a(g56
g6
(g18
S'80?='
p1162
tp1163
Rp1164
tp1165
a(g96
g6
(g18
S'\xa9D\x02<'
p1166
tp1167
Rp1168
tp1169
a(g68
g6
(g18
S'\xc8\x82\xb1;'
p1170
tp1171
Rp1172
tp1173
asg73
g32
sa(dp1174
g2
S'../../../data/emanuela/activity-recognition/images/NTCIR-Lifelog-256/u2/2015-05-03/b00003885_21i7lf_20150503_154759e.jpg'
p1175
sg4
(lp1176
(g15
g6
(g18
S'^\xb3,?'
p1177
tp1178
Rp1179
tp1180
a(g32
g6
(g18
S'\x93WN>'
p1181
tp1182
Rp1183
tp1184
a(g56
g6
(g18
S"'U\x11="
p1185
tp1186
Rp1187
tp1188
a(g228
g6
(g18
S'^\x7f\xb1<'
p1189
tp1190
Rp1191
tp1192
a(g317
g6
(g18
S'\x15\xea\xa7<'
p1193
tp1194
Rp1195
tp1196
asg73
g32
sa(dp1197
g2
S'../../../data/emanuela/activity-recognition/images/NTCIR-Lifelog-256/u2/2015-05-01/b00002111_21i7lf_20150501_123027e.jpg'
p1198
sg4
(lp1199
(g32
g6
(g18
S'~6\x1e?'
p1200
tp1201
Rp1202
tp1203
a(g15
g6
(g18
S'\x90g\xc3>'
p1204
tp1205
Rp1206
tp1207
a(g56
g6
(g18
S'?c\xc98'
p1208
tp1209
Rp1210
tp1211
a(g44
g6
(g18
S'\xddU\x9c8'
p1212
tp1213
Rp1214
tp1215
a(g68
g6
(g18
S'\x83\xe2\x8e8'
p1216
tp1217
Rp1218
tp1219
asg73
g32
sa(dp1220
g2
S'../../../data/emanuela/activity-recognition/images/NTCIR-Lifelog-256/u2/2015-05-07/b00007551_21i7lf_20150507_110848e.jpg'
p1221
sg4
(lp1222
(g32
g6
(g18
S'\xf6:!?'
p1223
tp1224
Rp1225
tp1226
a(g15
g6
(g18
S'\x92=\x89>'
p1227
tp1228
Rp1229
tp1230
a(g44
g6
(g18
S'\xdc\x90\xb6='
p1231
tp1232
Rp1233
tp1234
a(g56
g6
(g18
S'Vy{;'
p1235
tp1236
Rp1237
tp1238
a(g162
g6
(g18
S'\x02\xa1c;'
p1239
tp1240
Rp1241
tp1242
asg73
g32
sa(dp1243
g2
S'../../../data/emanuela/activity-recognition/images/NTCIR-Lifelog-256/u2/2015-05-08/b00008996_21i7lf_20150508_123523e.jpg'
p1244
sg4
(lp1245
(g32
g6
(g18
S'\xc9\xdd1?'
p1246
tp1247
Rp1248
tp1249
a(g15
g6
(g18
S'-\xd5\x9b>'
p1250
tp1251
Rp1252
tp1253
a(g44
g6
(g18
S'\x05\xb1\xad9'
p1254
tp1255
Rp1256
tp1257
a(g56
g6
(g18
S'o$\xa09'
p1258
tp1259
Rp1260
tp1261
a(g108
g6
(g18
S'\xe2\x9ej8'
p1262
tp1263
Rp1264
tp1265
asg73
g32
sa(dp1266
g2
S'../../../data/emanuela/activity-recognition/images/NTCIR-Lifelog-256/u2/2015-05-08/b00009024_21i7lf_20150508_125258e.jpg'
p1267
sg4
(lp1268
(g15
g6
(g18
S'*9w?'
p1269
tp1270
Rp1271
tp1272
a(g32
g6
(g18
S'\xe9^\x04='
p1273
tp1274
Rp1275
tp1276
a(g56
g6
(g18
S'G\xb0\xbf:'
p1277
tp1278
Rp1279
tp1280
a(g68
g6
(g18
S'\xdf\x0c\xc48'
p1281
tp1282
Rp1283
tp1284
a(g228
g6
(g18
S'\x9e]\xb88'
p1285
tp1286
Rp1287
tp1288
asg73
g32
sa(dp1289
g2
S'../../../data/emanuela/activity-recognition/images/NTCIR-Lifelog-256/u2/2015-05-02/b00003272_21i7lf_20150502_143517e.jpg'
p1290
sg4
(lp1291
(g15
g6
(g18
S'\xa1\xdd\x18?'
p1292
tp1293
Rp1294
tp1295
a(g32
g6
(g18
S'\n\x8d\x1d>'
p1296
tp1297
Rp1298
tp1299
a(g56
g6
(g18
S'\xfa\x12\xf4='
p1300
tp1301
Rp1302
tp1303
a(g68
g6
(g18
S'w[3='
p1304
tp1305
Rp1306
tp1307
a(g216
g6
(g18
S'\x1b\xc3\x97<'
p1308
tp1309
Rp1310
tp1311
asg73
g32
sa(dp1312
g2
S'../../../data/emanuela/activity-recognition/images/NTCIR-Lifelog-256/u2/2015-04-27/b00005394_21i7lf_20150427_132910e.jpg'
p1313
sg4
(lp1314
(g15
g6
(g18
S'b\xaa\x1a?'
p1315
tp1316
Rp1317
tp1318
a(g32
g6
(g18
S'q!\xc8>'
p1319
tp1320
Rp1321
tp1322
a(g56
g6
(g18
S'\xef\x99\x12;'
p1323
tp1324
Rp1325
tp1326
a(g68
g6
(g18
S'd\xc5\x06;'
p1327
tp1328
Rp1329
tp1330
a(g44
g6
(g18
S'\xd5:y9'
p1331
tp1332
Rp1333
tp1334
asg73
g32
sa(dp1335
g2
S'../../../data/emanuela/activity-recognition/images/NTCIR-Lifelog-256/u2/2015-05-03/b00003848_21i7lf_20150503_152500e.jpg'
p1336
sg4
(lp1337
(g15
g6
(g18
S's\xcb\x14?'
p1338
tp1339
Rp1340
tp1341
a(g56
g6
(g18
S'\xd2\xf4\x13>'
p1342
tp1343
Rp1344
tp1345
a(g32
g6
(g18
S'_\xc6r='
p1346
tp1347
Rp1348
tp1349
a(g317
g6
(g18
S'U\x1dl='
p1350
tp1351
Rp1352
tp1353
a(g371
g6
(g18
S'\xdbHL='
p1354
tp1355
Rp1356
tp1357
asg73
g32
sa(dp1358
g2
S'../../../data/emanuela/activity-recognition/images/NTCIR-Lifelog-256/u2/2015-05-03/b00003811_21i7lf_20150503_150227e.jpg'
p1359
sg4
(lp1360
(g56
g6
(g18
S'f\xd7\xae>'
p1361
tp1362
Rp1363
tp1364
a(g15
g6
(g18
S'BtO>'
p1365
tp1366
Rp1367
tp1368
a(g32
g6
(g18
S'\xff\xed\xb8='
p1369
tp1370
Rp1371
tp1372
a(g44
g6
(g18
S'\x11\x8b\x9d='
p1373
tp1374
Rp1375
tp1376
a(g228
g6
(g18
S'?EY='
p1377
tp1378
Rp1379
tp1380
asg73
g32
sa(dp1381
g2
S'../../../data/emanuela/activity-recognition/images/NTCIR-Lifelog-256/u2/2015-05-07/b00007539_21i7lf_20150507_110128e.jpg'
p1382
sg4
(lp1383
(g32
g6
(g18
S'\xdf\xbc]?'
p1384
tp1385
Rp1386
tp1387
a(g68
g6
(g18
S'\xcf\x15\x8c='
p1388
tp1389
Rp1390
tp1391
a(g15
g6
(g18
S'~\xef\x15='
p1392
tp1393
Rp1394
tp1395
a(g56
g6
(g18
S'X\x97\x87<'
p1396
tp1397
Rp1398
tp1399
a(g44
g6
(g18
S'\xa85\xf5;'
p1400
tp1401
Rp1402
tp1403
asg73
g32
sa(dp1404
g2
S'../../../data/emanuela/activity-recognition/images/NTCIR-Lifelog-256/u2/2015-04-20/b00000288_21i7lf_20150420_123127e.jpg'
p1405
sg4
(lp1406
(g15
g6
(g18
S'\x90M\n?'
p1407
tp1408
Rp1409
tp1410
a(g32
g6
(g18
S')\xc1l>'
p1411
tp1412
Rp1413
tp1414
a(g68
g6
(g18
S'\x0c\\\xf5='
p1415
tp1416
Rp1417
tp1418
a(g56
g6
(g18
S"'\xe0[="
p1419
tp1420
Rp1421
tp1422
a(g44
g6
(g18
S'z\x17\x89<'
p1423
tp1424
Rp1425
tp1426
asg73
g32
sa(dp1427
g2
S'../../../data/emanuela/activity-recognition/images/NTCIR-Lifelog-256/u2/2015-04-21/b00000338_21i7lf_20150421_132044e.jpg'
p1428
sg4
(lp1429
(g32
g6
(g18
S'>\x82c?'
p1430
tp1431
Rp1432
tp1433
a(g15
g6
(g18
S'\xba\x10\xe1='
p1434
tp1435
Rp1436
tp1437
a(g56
g6
(g18
S'\xbfr\x93:'
p1438
tp1439
Rp1440
tp1441
a(g68
g6
(g18
S't\xa9,9'
p1442
tp1443
Rp1444
tp1445
a(g162
g6
(g18
S'\xc3\xf6W8'
p1446
tp1447
Rp1448
tp1449
asg73
g32
sa(dp1450
g2
S'../../../data/emanuela/activity-recognition/images/NTCIR-Lifelog-256/u2/2015-05-01/b00002599_21i7lf_20150501_182640e.jpg'
p1451
sg4
(lp1452
(g68
g6
(g18
S'\xbb%\xbe>'
p1453
tp1454
Rp1455
tp1456
a(g15
g6
(g18
S'f\xa9c>'
p1457
tp1458
Rp1459
tp1460
a(g56
g6
(g18
S'or^>'
p1461
tp1462
Rp1463
tp1464
a(g32
g6
(g18
S':0\xd3='
p1465
tp1466
Rp1467
tp1468
a(g96
g6
(g18
S'\x13\x82\xb6<'
p1469
tp1470
Rp1471
tp1472
asg73
g32
sa(dp1473
g2
S'../../../data/emanuela/activity-recognition/images/NTCIR-Lifelog-256/u2/2015-05-03/b00003914_21i7lf_20150503_160530e.jpg'
p1474
sg4
(lp1475
(g32
g6
(g18
S'\xa7\xc6\xb8>'
p1476
tp1477
Rp1478
tp1479
a(g228
g6
(g18
S'\x15\xfaN>'
p1480
tp1481
Rp1482
tp1483
a(g15
g6
(g18
S'\xd92.>'
p1484
tp1485
Rp1486
tp1487
a(g56
g6
(g18
S']\xdf\x16>'
p1488
tp1489
Rp1490
tp1491
a(g204
g6
(g18
S'.S\x89='
p1492
tp1493
Rp1494
tp1495
asg73
g32
sa(dp1496
g2
S'../../../data/emanuela/activity-recognition/images/NTCIR-Lifelog-256/u2/2015-04-27/b00005388_21i7lf_20150427_132531e.jpg'
p1497
sg4
(lp1498
(g15
g6
(g18
S'^Z\x0b?'
p1499
tp1500
Rp1501
tp1502
a(g32
g6
(g18
S'|]\xe7>'
p1503
tp1504
Rp1505
tp1506
a(g68
g6
(g18
S'\xa5?{:'
p1507
tp1508
Rp1509
tp1510
a(g56
g6
(g18
S'\xfb\x0c]:'
p1511
tp1512
Rp1513
tp1514
a(g44
g6
(g18
S'\xe3r :'
p1515
tp1516
Rp1517
tp1518
asg73
g32
sa(dp1519
g2
S'../../../data/emanuela/activity-recognition/images/NTCIR-Lifelog-256/u2/2015-04-21/b00000353_21i7lf_20150421_133004e.jpg'
p1520
sg4
(lp1521
(g15
g6
(g18
S'\xe3\x1dz?'
p1522
tp1523
Rp1524
tp1525
a(g32
g6
(g18
S' \xbf\xb5<'
p1526
tp1527
Rp1528
tp1529
a(g56
g6
(g18
S'do\xcb9'
p1530
tp1531
Rp1532
tp1533
a(g228
g6
(g18
S'\x8b[\xe68'
p1534
tp1535
Rp1536
tp1537
a(g108
g6
(g18
S'\xad\x0e\x818'
p1538
tp1539
Rp1540
tp1541
asg73
g32
sa(dp1542
g2
S'../../../data/emanuela/activity-recognition/images/NTCIR-Lifelog-256/u2/2015-05-01/b00002127_21i7lf_20150501_124011e.jpg'
p1543
sg4
(lp1544
(g15
g6
(g18
S'$\xf6r?'
p1545
tp1546
Rp1547
tp1548
a(g32
g6
(g18
S'\x87pF='
p1549
tp1550
Rp1551
tp1552
a(g56
g6
(g18
S'\x95\x85\r;'
p1553
tp1554
Rp1555
tp1556
a(g282
g6
(g18
S'\x97\x1f)9'
p1557
tp1558
Rp1559
tp1560
a(g162
g6
(g18
S'(R\x028'
p1561
tp1562
Rp1563
tp1564
asg73
g32
sa(dp1565
g2
S'../../../data/emanuela/activity-recognition/images/NTCIR-Lifelog-256/u2/2015-04-21/b00000345_21i7lf_20150421_132505e.jpg'
p1566
sg4
(lp1567
(g15
g6
(g18
S':\xa1D?'
p1568
tp1569
Rp1570
tp1571
a(g32
g6
(g18
S'\xb6Di>'
p1572
tp1573
Rp1574
tp1575
a(g56
g6
(g18
S'\xcbD[;'
p1576
tp1577
Rp1578
tp1579
a(g44
g6
(g18
S'\xb0\xc3\x0c9'
p1580
tp1581
Rp1582
tp1583
a(g68
g6
(g18
S'\xe1p\xf88'
p1584
tp1585
Rp1586
tp1587
asg73
g32
sa(dp1588
g2
S'../../../data/emanuela/activity-recognition/images/NTCIR-Lifelog-256/u2/2015-05-03/b00003838_21i7lf_20150503_151849e.jpg'
p1589
sg4
(lp1590
(g56
g6
(g18
S'\xe5\x06\xc4>'
p1591
tp1592
Rp1593
tp1594
a(g32
g6
(g18
S'\x03PC>'
p1595
tp1596
Rp1597
tp1598
a(g317
g6
(g18
S'e\xb7\xc3='
p1599
tp1600
Rp1601
tp1602
a(g15
g6
(g18
S'\xeb\xea\xaa='
p1603
tp1604
Rp1605
tp1606
a(g371
g6
(g18
S'\xfe\xe0Q='
p1607
tp1608
Rp1609
tp1610
asg73
g32
sa(dp1611
g2
S'../../../data/emanuela/activity-recognition/images/NTCIR-Lifelog-256/u2/2015-05-03/b00003886_21i7lf_20150503_154838e.jpg'
p1612
sg4
(lp1613
(g32
g6
(g18
S'/\xf1\xa0>'
p1614
tp1615
Rp1616
tp1617
a(g56
g6
(g18
S'u\xfcv>'
p1618
tp1619
Rp1620
tp1621
a(g96
g6
(g18
S'@\xb7)>'
p1622
tp1623
Rp1624
tp1625
a(g317
g6
(g18
S'Am\xe0='
p1626
tp1627
Rp1628
tp1629
a(g108
g6
(g18
S'\xe1\x8b\x9b='
p1630
tp1631
Rp1632
tp1633
asg73
g32
sa(dp1634
g2
S'../../../data/emanuela/activity-recognition/images/NTCIR-Lifelog-256/u2/2015-05-05/b00005335_21i7lf_20150505_120953e.jpg'
p1635
sg4
(lp1636
(g32
g6
(g18
S'G\x8cO?'
p1637
tp1638
Rp1639
tp1640
a(g15
g6
(g18
S'e\x13>>'
p1641
tp1642
Rp1643
tp1644
a(g56
g6
(g18
S'\xbe\xd1\xe0:'
p1645
tp1646
Rp1647
tp1648
a(g96
g6
(g18
S'?\x13\xf79'
p1649
tp1650
Rp1651
tp1652
a(g68
g6
(g18
S'E\x0c\xa39'
p1653
tp1654
Rp1655
tp1656
asg73
g32
sa(dp1657
g2
S'../../../data/emanuela/activity-recognition/images/NTCIR-Lifelog-256/u2/2015-05-03/b00003897_21i7lf_20150503_155511e.jpg'
p1658
sg4
(lp1659
(g15
g6
(g18
S'7qL?'
p1660
tp1661
Rp1662
tp1663
a(g32
g6
(g18
S't\x1d\x07>'
p1664
tp1665
Rp1666
tp1667
a(g56
g6
(g18
S'\xe6\xb5\xec<'
p1668
tp1669
Rp1670
tp1671
a(g228
g6
(g18
S'0\x1b\x98<'
p1672
tp1673
Rp1674
tp1675
a(g204
g6
(g18
S'\xa4\xcb\x81<'
p1676
tp1677
Rp1678
tp1679
asg73
g32
sa(dp1680
g2
S'../../../data/emanuela/activity-recognition/images/NTCIR-Lifelog-256/u2/2015-04-26/b00004209_21i7lf_20150426_162530e.jpg'
p1681
sg4
(lp1682
(g32
g6
(g18
S'\xe9.\x1e?'
p1683
tp1684
Rp1685
tp1686
a(g15
g6
(g18
S'\xcbq*>'
p1687
tp1688
Rp1689
tp1690
a(g56
g6
(g18
S'\x87f">'
p1691
tp1692
Rp1693
tp1694
a(g44
g6
(g18
S'\xbfs\xb1<'
p1695
tp1696
Rp1697
tp1698
a(g68
g6
(g18
S'\x12j7<'
p1699
tp1700
Rp1701
tp1702
asg73
g32
sa(dp1703
g2
S'../../../data/emanuela/activity-recognition/images/NTCIR-Lifelog-256/u2/2015-05-03/b00003812_21i7lf_20150503_150306e.jpg'
p1704
sg4
(lp1705
(g228
g6
(g18
S'\x11y\x84>'
p1706
tp1707
Rp1708
tp1709
a(g44
g6
(g18
S'`\x80i>'
p1710
tp1711
Rp1712
tp1713
a(g56
g6
(g18
S'\x0bu4>'
p1714
tp1715
Rp1716
tp1717
a(g317
g6
(g18
S'bL\xc7='
p1718
tp1719
Rp1720
tp1721
a(g371
g6
(g18
S'a\xfa\x88='
p1722
tp1723
Rp1724
tp1725
asg73
g32
sa(dp1726
g2
S'../../../data/emanuela/activity-recognition/images/NTCIR-Lifelog-256/u2/2015-05-01/b00002128_21i7lf_20150501_124050e.jpg'
p1727
sg4
(lp1728
(g32
g6
(g18
S'\xe1\x86\x1c?'
p1729
tp1730
Rp1731
tp1732
a(g15
g6
(g18
S"\xaf'\xb1>"
p1733
tp1734
Rp1735
tp1736
a(g56
g6
(g18
S'\xe0\x80\x15='
p1737
tp1738
Rp1739
tp1740
a(g68
g6
(g18
S'F\xbc8;'
p1741
tp1742
Rp1743
tp1744
a(g282
g6
(g18
S'\xc7:^:'
p1745
tp1746
Rp1747
tp1748
asg73
g32
sa(dp1749
g2
S'../../../data/emanuela/activity-recognition/images/NTCIR-Lifelog-256/u2/2015-04-27/b00005398_21i7lf_20150427_133136e.jpg'
p1750
sg4
(lp1751
(g15
g6
(g18
S'|e\x0e?'
p1752
tp1753
Rp1754
tp1755
a(g32
g6
(g18
S'F\xb4\xe2>'
p1756
tp1757
Rp1758
tp1759
a(g56
g6
(g18
S'\xed\x0f\xdd9'
p1760
tp1761
Rp1762
tp1763
a(g282
g6
(g18
S'\x86\x82e9'
p1764
tp1765
Rp1766
tp1767
a(g68
g6
(g18
S'\x04\xb0H9'
p1768
tp1769
Rp1770
tp1771
asg73
g32
sa(dp1772
g2
S'../../../data/emanuela/activity-recognition/images/NTCIR-Lifelog-256/u2/2015-04-20/b00000287_21i7lf_20150420_123054e.jpg'
p1773
sg4
(lp1774
(g32
g6
(g18
S'\xce\xce\xcd>'
p1775
tp1776
Rp1777
tp1778
a(g68
g6
(g18
S'\xb2\\\xba>'
p1779
tp1780
Rp1781
tp1782
a(g282
g6
(g18
S'\xf9z\xa5='
p1783
tp1784
Rp1785
tp1786
a(g15
g6
(g18
S'N\x18\x96='
p1787
tp1788
Rp1789
tp1790
a(g96
g6
(g18
S'\xf8Q\x92<'
p1791
tp1792
Rp1793
tp1794
asg73
g32
sa(dp1795
g2
S'../../../data/emanuela/activity-recognition/images/NTCIR-Lifelog-256/u2/2015-05-08/b00009006_21i7lf_20150508_124144e.jpg'
p1796
sg4
(lp1797
(g15
g6
(g18
S'\xbe\xabL?'
p1798
tp1799
Rp1800
tp1801
a(g32
g6
(g18
S'\x88\xdcK>'
p1802
tp1803
Rp1804
tp1805
a(g56
g6
(g18
S'\xd64\xf39'
p1806
tp1807
Rp1808
tp1809
a(g44
g6
(g18
S'\xf9\xcc\xdf9'
p1810
tp1811
Rp1812
tp1813
a(g6
(g7
(S'S7'
p1814
I0
I1
tp1815
Rp1816
(I3
S'|'
p1817
NNNI7
I1
I0
tp1818
bS'working'
p1819
tp1820
Rp1821
g6
(g18
S'\xfb\xac\x039'
p1822
tp1823
Rp1824
tp1825
asg73
g32
sa(dp1826
g2
S'../../../data/emanuela/activity-recognition/images/NTCIR-Lifelog-256/u2/2015-05-01/b00002115_21i7lf_20150501_123255e.jpg'
p1827
sg4
(lp1828
(g32
g6
(g18
S'|\x8a\x0b?'
p1829
tp1830
Rp1831
tp1832
a(g15
g6
(g18
S'S\xb3\xe8>'
p1833
tp1834
Rp1835
tp1836
a(g56
g6
(g18
S'\xf0,X9'
p1837
tp1838
Rp1839
tp1840
a(g68
g6
(g18
S'\x08-\x139'
p1841
tp1842
Rp1843
tp1844
a(g44
g6
(g18
S'\xcc\xba\xd97'
p1845
tp1846
Rp1847
tp1848
asg73
g32
sa(dp1849
g2
S'../../../data/emanuela/activity-recognition/images/NTCIR-Lifelog-256/u2/2015-04-21/b00000346_21i7lf_20150421_132542e.jpg'
p1850
sg4
(lp1851
(g15
g6
(g18
S'\x08\xb3M?'
p1852
tp1853
Rp1854
tp1855
a(g32
g6
(g18
S'\x1deG>'
p1856
tp1857
Rp1858
tp1859
a(g56
g6
(g18
S'\x95\x91V:'
p1860
tp1861
Rp1862
tp1863
a(g282
g6
(g18
S'\xfa#\x949'
p1864
tp1865
Rp1866
tp1867
a(g228
g6
(g18
S'f^\xee8'
p1868
tp1869
Rp1870
tp1871
asg73
g32
sa(dp1872
g2
S'../../../data/emanuela/activity-recognition/images/NTCIR-Lifelog-256/u2/2015-05-01/b00002602_21i7lf_20150501_182826e.jpg'
p1873
sg4
(lp1874
(g32
g6
(g18
S'D\xc7\x10?'
p1875
tp1876
Rp1877
tp1878
a(g56
g6
(g18
S'\x9fr2>'
p1879
tp1880
Rp1881
tp1882
a(g68
g6
(g18
S'\n\x0e->'
p1883
tp1884
Rp1885
tp1886
a(g15
g6
(g18
S'\x92\x0b|='
p1887
tp1888
Rp1889
tp1890
a(g96
g6
(g18
S'\xd6\x9dP<'
p1891
tp1892
Rp1893
tp1894
asg73
g32
sa(dp1895
g2
S'../../../data/emanuela/activity-recognition/images/NTCIR-Lifelog-256/u2/2015-05-03/b00003909_21i7lf_20150503_160227e.jpg'
p1896
sg4
(lp1897
(g15
g6
(g18
S'\xe6-\xb7>'
p1898
tp1899
Rp1900
tp1901
a(g56
g6
(g18
S'\xb2\x10N>'
p1902
tp1903
Rp1904
tp1905
a(g228
g6
(g18
S' :L>'
p1906
tp1907
Rp1908
tp1909
a(g32
g6
(g18
S'e\xd2\x8c='
p1910
tp1911
Rp1912
tp1913
a(g204
g6
(g18
S'\xe5\xa9s='
p1914
tp1915
Rp1916
tp1917
asg73
g32
sa(dp1918
g2
S'../../../data/emanuela/activity-recognition/images/NTCIR-Lifelog-256/u2/2015-05-03/b00003896_21i7lf_20150503_155438e.jpg'
p1919
sg4
(lp1920
(g15
g6
(g18
S'k\xbeC?'
p1921
tp1922
Rp1923
tp1924
a(g32
g6
(g18
S'\xbe\x854>'
p1925
tp1926
Rp1927
tp1928
a(g44
g6
(g18
S'h\x1f\x9b<'
p1929
tp1930
Rp1931
tp1932
a(g56
g6
(g18
S'IR\x9a<'
p1933
tp1934
Rp1935
tp1936
a(g204
g6
(g18
S'\x86\x14\n<'
p1937
tp1938
Rp1939
tp1940
asg73
g32
sa(dp1941
g2
S'../../../data/emanuela/activity-recognition/images/NTCIR-Lifelog-256/u2/2015-04-21/b00000334_21i7lf_20150421_131821e.jpg'
p1942
sg4
(lp1943
(g15
g6
(g18
S'\x80\xd2l?'
p1944
tp1945
Rp1946
tp1947
a(g32
g6
(g18
S'fbp='
p1948
tp1949
Rp1950
tp1951
a(g56
g6
(g18
S'\xdd\xba8<'
p1952
tp1953
Rp1954
tp1955
a(g68
g6
(g18
S':\xe2\x1c;'
p1956
tp1957
Rp1958
tp1959
a(g6
(g7
(S'S7'
p1960
I0
I1
tp1961
Rp1962
(I3
S'|'
p1963
NNNI7
I1
I0
tp1964
bS'driving'
p1965
tp1966
Rp1967
g6
(g18
S'\xd0&\xa6:'
p1968
tp1969
Rp1970
tp1971
asg73
g32
sa(dp1972
g2
S'../../../data/emanuela/activity-recognition/images/NTCIR-Lifelog-256/u2/2015-05-03/b00003807_21i7lf_20150503_150005e.jpg'
p1973
sg4
(lp1974
(g96
g6
(g18
S'\x19\xbd\xf7>'
p1975
tp1976
Rp1977
tp1978
a(g108
g6
(g18
S's\x9d6>'
p1979
tp1980
Rp1981
tp1982
a(g216
g6
(g18
S'\x93\x89\x14>'
p1983
tp1984
Rp1985
tp1986
a(g371
g6
(g18
S'\xfe\xfb\x13>'
p1987
tp1988
Rp1989
tp1990
a(g317
g6
(g18
S'b\xc9\x08='
p1991
tp1992
Rp1993
tp1994
asg73
g32
sa(dp1995
g2
S'../../../data/emanuela/activity-recognition/images/NTCIR-Lifelog-256/u2/2015-05-06/b00006607_21i7lf_20150506_123103e.jpg'
p1996
sg4
(lp1997
(g32
g6
(g18
S'\xa2\x001?'
p1998
tp1999
Rp2000
tp2001
a(g15
g6
(g18
S'\xa1\xc0\x9d>'
p2002
tp2003
Rp2004
tp2005
a(g56
g6
(g18
S'\x89j\x989'
p2006
tp2007
Rp2008
tp2009
a(g44
g6
(g18
S'\x0e7\xa28'
p2010
tp2011
Rp2012
tp2013
a(g68
g6
(g18
S'\x06*\x9b8'
p2014
tp2015
Rp2016
tp2017
asg73
g32
sa(dp2018
g2
S'../../../data/emanuela/activity-recognition/images/NTCIR-Lifelog-256/u2/2015-05-06/b00006600_21i7lf_20150506_122647e.jpg'
p2019
sg4
(lp2020
(g15
g6
(g18
S'Y\x93\x12?'
p2021
tp2022
Rp2023
tp2024
a(g32
g6
(g18
S'ej\xda>'
p2025
tp2026
Rp2027
tp2028
a(g56
g6
(g18
S'L\xb6\xf49'
p2029
tp2030
Rp2031
tp2032
a(g44
g6
(g18
S'\xe5yh9'
p2033
tp2034
Rp2035
tp2036
a(g68
g6
(g18
S'h8L8'
p2037
tp2038
Rp2039
tp2040
asg73
g32
sa(dp2041
g2
S'../../../data/emanuela/activity-recognition/images/NTCIR-Lifelog-256/u2/2015-05-01/b00002112_21i7lf_20150501_123100e.jpg'
p2042
sg4
(lp2043
(g32
g6
(g18
S'\xdd9\x02?'
p2044
tp2045
Rp2046
tp2047
a(g15
g6
(g18
S'\xf8r\xfb>'
p2048
tp2049
Rp2050
tp2051
a(g56
g6
(g18
S'8%\xb78'
p2052
tp2053
Rp2054
tp2055
a(g68
g6
(g18
S'~\x97P8'
p2056
tp2057
Rp2058
tp2059
a(g44
g6
(g18
S'\x04\x84\xb37'
p2060
tp2061
Rp2062
tp2063
asg73
g32
sa(dp2064
g2
S'../../../data/emanuela/activity-recognition/images/NTCIR-Lifelog-256/u2/2015-05-01/b00002121_21i7lf_20150501_123624e.jpg'
p2065
sg4
(lp2066
(g32
g6
(g18
S'\xb2\xd8E?'
p2067
tp2068
Rp2069
tp2070
a(g15
g6
(g18
S'\xb8\x99d>'
p2071
tp2072
Rp2073
tp2074
a(g56
g6
(g18
S'4\xad{;'
p2075
tp2076
Rp2077
tp2078
a(g44
g6
(g18
S'xl\xbc7'
p2079
tp2080
Rp2081
tp2082
a(g68
g6
(g18
S'{\xfa\xaf7'
p2083
tp2084
Rp2085
tp2086
asg73
g32
sa(dp2087
g2
S'../../../data/emanuela/activity-recognition/images/NTCIR-Lifelog-256/u2/2015-04-26/b00004200_21i7lf_20150426_161844e.jpg'
p2088
sg4
(lp2089
(g32
g6
(g18
S'\x9e\xfcb?'
p2090
tp2091
Rp2092
tp2093
a(g15
g6
(g18
S'\xe4\xfc\xc6='
p2094
tp2095
Rp2096
tp2097
a(g56
g6
(g18
S'\xe4\x85\xd5;'
p2098
tp2099
Rp2100
tp2101
a(g44
g6
(g18
S'1\x95\xaf;'
p2102
tp2103
Rp2104
tp2105
a(g204
g6
(g18
S'\x9e\x04\x82:'
p2106
tp2107
Rp2108
tp2109
asg73
g32
sa(dp2110
g2
S'../../../data/emanuela/activity-recognition/images/NTCIR-Lifelog-256/u2/2015-05-07/b00007531_21i7lf_20150507_105626e.jpg'
p2111
sg4
(lp2112
(g32
g6
(g18
S'\x93L`?'
p2113
tp2114
Rp2115
tp2116
a(g15
g6
(g18
S'\x99\x94\xb0='
p2117
tp2118
Rp2119
tp2120
a(g56
g6
(g18
S'G\x17u<'
p2121
tp2122
Rp2123
tp2124
a(g44
g6
(g18
S'q\xf7;<'
p2125
tp2126
Rp2127
tp2128
a(g68
g6
(g18
S'/%\xf8;'
p2129
tp2130
Rp2131
tp2132
asg73
g32
sa(dp2133
g2
S'../../../data/emanuela/activity-recognition/images/NTCIR-Lifelog-256/u2/2015-05-06/b00006605_21i7lf_20150506_122949e.jpg'
p2134
sg4
(lp2135
(g15
g6
(g18
S'\xa5?\x1e?'
p2136
tp2137
Rp2138
tp2139
a(g32
g6
(g18
S'\xfb\x87\xba>'
p2140
tp2141
Rp2142
tp2143
a(g56
g6
(g18
S'`\x14R<'
p2144
tp2145
Rp2146
tp2147
a(g44
g6
(g18
S'\x9c\x94\xd0:'
p2148
tp2149
Rp2150
tp2151
a(g68
g6
(g18
S'o\x87W:'
p2152
tp2153
Rp2154
tp2155
asg73
g32
sa(dp2156
g2
S'../../../data/emanuela/activity-recognition/images/NTCIR-Lifelog-256/u2/2015-05-02/b00003288_21i7lf_20150502_144513e.jpg'
p2157
sg4
(lp2158
(g32
g6
(g18
S'\x99\xff\xd7>'
p2159
tp2160
Rp2161
tp2162
a(g15
g6
(g18
S'\x05}\xc9>'
p2163
tp2164
Rp2165
tp2166
a(g56
g6
(g18
S'\xe6\xfa\xe4='
p2167
tp2168
Rp2169
tp2170
a(g44
g6
(g18
S':\xda>='
p2171
tp2172
Rp2173
tp2174
a(g68
g6
(g18
S'4\xdf\x9c<'
p2175
tp2176
Rp2177
tp2178
asg73
g32
sa(dp2179
g2
S'../../../data/emanuela/activity-recognition/images/NTCIR-Lifelog-256/u2/2015-05-01/b00002608_21i7lf_20150501_183210e.jpg'
p2180
sg4
(lp2181
(g32
g6
(g18
S'\xadB#?'
p2182
tp2183
Rp2184
tp2185
a(g56
g6
(g18
S'\xe4\x99/>'
p2186
tp2187
Rp2188
tp2189
a(g96
g6
(g18
S'4\xddx='
p2190
tp2191
Rp2192
tp2193
a(g15
g6
(g18
S'Hw\xe2<'
p2194
tp2195
Rp2196
tp2197
a(g68
g6
(g18
S'\xc4\xcf\xbb<'
p2198
tp2199
Rp2200
tp2201
asg73
g32
sa(dp2202
g2
S'../../../data/emanuela/activity-recognition/images/NTCIR-Lifelog-256/u2/2015-04-26/b00004226_21i7lf_20150426_163912e.jpg'
p2203
sg4
(lp2204
(g56
g6
(g18
S'\xd4[\xbb>'
p2205
tp2206
Rp2207
tp2208
a(g32
g6
(g18
S'\xb8\xa7\xac>'
p2209
tp2210
Rp2211
tp2212
a(g317
g6
(g18
S'\xcc.\xc7='
p2213
tp2214
Rp2215
tp2216
a(g68
g6
(g18
S'\xe4\x9bE='
p2217
tp2218
Rp2219
tp2220
a(g96
g6
(g18
S'\xd4\xe8#='
p2221
tp2222
Rp2223
tp2224
asg73
g32
sa(dp2225
g2
S'../../../data/emanuela/activity-recognition/images/NTCIR-Lifelog-256/u2/2015-04-21/b00000357_21i7lf_20150421_133234e.jpg'
p2226
sg4
(lp2227
(g15
g6
(g18
S'\xd3\xe3j?'
p2228
tp2229
Rp2230
tp2231
a(g32
g6
(g18
S'|<\xa3='
p2232
tp2233
Rp2234
tp2235
a(g56
g6
(g18
S'\xd5\xcd\xcc:'
p2236
tp2237
Rp2238
tp2239
a(g228
g6
(g18
S'\xa9h\xd79'
p2240
tp2241
Rp2242
tp2243
a(g108
g6
(g18
S'\x8e\x13E9'
p2244
tp2245
Rp2246
tp2247
asg73
g32
sa(dp2248
g2
S'../../../data/emanuela/activity-recognition/images/NTCIR-Lifelog-256/u2/2015-05-07/b00007525_21i7lf_20150507_105254e.jpg'
p2249
sg4
(lp2250
(g32
g6
(g18
S'\x86\xfe0?'
p2251
tp2252
Rp2253
tp2254
a(g15
g6
(g18
S'\x02\xcf\x88>'
p2255
tp2256
Rp2257
tp2258
a(g68
g6
(g18
S'\x04\xf2\x84<'
p2259
tp2260
Rp2261
tp2262
a(g96
g6
(g18
S'm\xa3\x0c<'
p2263
tp2264
Rp2265
tp2266
a(g56
g6
(g18
S'+\xbf\x0b<'
p2267
tp2268
Rp2269
tp2270
asg73
g32
sa(dp2271
g2
S'../../../data/emanuela/activity-recognition/images/NTCIR-Lifelog-256/u2/2015-05-01/b00002113_21i7lf_20150501_123139e.jpg'
p2272
sg4
(lp2273
(g15
g6
(g18
S'\xb2\xa6\x14?'
p2274
tp2275
Rp2276
tp2277
a(g32
g6
(g18
S'\x8b\x85\xd6>'
p2278
tp2279
Rp2280
tp2281
a(g56
g6
(g18
S'\x92+\x8c9'
p2282
tp2283
Rp2284
tp2285
a(g216
g6
(g18
S'\xaa{\xd57'
p2286
tp2287
Rp2288
tp2289
a(g68
g6
(g18
S'?\x12\xd07'
p2290
tp2291
Rp2292
tp2293
asg73
g32
sa(dp2294
g2
S'../../../data/emanuela/activity-recognition/images/NTCIR-Lifelog-256/u2/2015-04-28/b00006653_21i7lf_20150428_123422e.jpg'
p2295
sg4
(lp2296
(g32
g6
(g18
S'\xd5B1?'
p2297
tp2298
Rp2299
tp2300
a(g15
g6
(g18
S'7\x08\x9d>'
p2301
tp2302
Rp2303
tp2304
a(g56
g6
(g18
S'\xf2f\xb59'
p2305
tp2306
Rp2307
tp2308
a(g44
g6
(g18
S'\xc9@\x9a9'
p2309
tp2310
Rp2311
tp2312
a(g68
g6
(g18
S'V\xc4$9'
p2313
tp2314
Rp2315
tp2316
asg73
g32
sa(dp2317
g2
S'../../../data/emanuela/activity-recognition/images/NTCIR-Lifelog-256/u2/2015-04-28/b00006675_21i7lf_20150428_124756e.jpg'
p2318
sg4
(lp2319
(g32
g6
(g18
S'\xfe\xaa\x1d?'
p2320
tp2321
Rp2322
tp2323
a(g15
g6
(g18
S'\xebH\xc4>'
p2324
tp2325
Rp2326
tp2327
a(g56
g6
(g18
S'B\xa4\xc89'
p2328
tp2329
Rp2330
tp2331
a(g44
g6
(g18
S'-\xc4\n9'
p2332
tp2333
Rp2334
tp2335
a(g162
g6
(g18
S'\x82\xef@8'
p2336
tp2337
Rp2338
tp2339
asg73
g32
sa(dp2340
g2
S'../../../data/emanuela/activity-recognition/images/NTCIR-Lifelog-256/u2/2015-05-05/b00005336_21i7lf_20150505_121028e.jpg'
p2341
sg4
(lp2342
(g32
g6
(g18
S'\xc9\xb5#?'
p2343
tp2344
Rp2345
tp2346
a(g15
g6
(g18
S'\xb9/\xb7>'
p2347
tp2348
Rp2349
tp2350
a(g56
g6
(g18
S'\x7f\xc6\xb0:'
p2351
tp2352
Rp2353
tp2354
a(g44
g6
(g18
S'\x8c\x85\xb09'
p2355
tp2356
Rp2357
tp2358
a(g96
g6
(g18
S'\xe8\xdah9'
p2359
tp2360
Rp2361
tp2362
asg73
g32
sa(dp2363
g2
S'../../../data/emanuela/activity-recognition/images/NTCIR-Lifelog-256/u2/2015-04-26/b00004229_21i7lf_20150426_164057e.jpg'
p2364
sg4
(lp2365
(g317
g6
(g18
S'\xa8*\xa8>'
p2366
tp2367
Rp2368
tp2369
a(g32
g6
(g18
S'\xbb\x9e?>'
p2370
tp2371
Rp2372
tp2373
a(g56
g6
(g18
S'\xa0/;>'
p2374
tp2375
Rp2376
tp2377
a(g68
g6
(g18
S'L9u='
p2378
tp2379
Rp2380
tp2381
a(g96
g6
(g18
S'\x94\xdcV='
p2382
tp2383
Rp2384
tp2385
asg73
g32
sa(dp2386
g2
S'../../../data/emanuela/activity-recognition/images/NTCIR-Lifelog-256/u2/2015-05-03/b00003844_21i7lf_20150503_152226e.jpg'
p2387
sg4
(lp2388
(g56
g6
(g18
S'\xf3\xec\xbe>'
p2389
tp2390
Rp2391
tp2392
a(g32
g6
(g18
S'\x9f&\x95>'
p2393
tp2394
Rp2395
tp2396
a(g15
g6
(g18
S'D\xc3&>'
p2397
tp2398
Rp2399
tp2400
a(g228
g6
(g18
S'e\xe0\x9a='
p2401
tp2402
Rp2403
tp2404
a(g68
g6
(g18
S'\xb4\xfc\x07='
p2405
tp2406
Rp2407
tp2408
asg73
g32
sa(dp2409
g2
S'../../../data/emanuela/activity-recognition/images/NTCIR-Lifelog-256/u2/2015-05-08/b00009002_21i7lf_20150508_123918e.jpg'
p2410
sg4
(lp2411
(g15
g6
(g18
S'R\xf0\x17?'
p2412
tp2413
Rp2414
tp2415
a(g32
g6
(g18
S'\xae\x7f\xcf>'
p2416
tp2417
Rp2418
tp2419
a(g56
g6
(g18
S'\xb8\x10!:'
p2420
tp2421
Rp2422
tp2423
a(g44
g6
(g18
S'F\xc4j9'
p2424
tp2425
Rp2426
tp2427
a(g162
g6
(g18
S'\xb2M\x0b9'
p2428
tp2429
Rp2430
tp2431
asg73
g32
sa(dp2432
g2
S'../../../data/emanuela/activity-recognition/images/NTCIR-Lifelog-256/u2/2015-05-07/b00007533_21i7lf_20150507_105744e.jpg'
p2433
sg4
(lp2434
(g32
g6
(g18
S'\x08\xd0V?'
p2435
tp2436
Rp2437
tp2438
a(g15
g6
(g18
S'\xceE\x02>'
p2439
tp2440
Rp2441
tp2442
a(g44
g6
(g18
S"'\xbf\x82<"
p2443
tp2444
Rp2445
tp2446
a(g56
g6
(g18
S')R\x1c<'
p2447
tp2448
Rp2449
tp2450
a(g68
g6
(g18
S'\xab2\xcc;'
p2451
tp2452
Rp2453
tp2454
asg73
g32
sa(dp2455
g2
S'../../../data/emanuela/activity-recognition/images/NTCIR-Lifelog-256/u2/2015-04-20/b00000300_21i7lf_20150420_123858e.jpg'
p2456
sg4
(lp2457
(g68
g6
(g18
S'\xcaB\xcf>'
p2458
tp2459
Rp2460
tp2461
a(g32
g6
(g18
S'p\x1f\xbd>'
p2462
tp2463
Rp2464
tp2465
a(g56
g6
(g18
S'\x92\xfb\x0c>'
p2466
tp2467
Rp2468
tp2469
a(g371
g6
(g18
S'\x01\x8bO='
p2470
tp2471
Rp2472
tp2473
a(g15
g6
(g18
S"C'E<"
p2474
tp2475
Rp2476
tp2477
asg73
g32
sa(dp2478
g2
S'../../../data/emanuela/activity-recognition/images/NTCIR-Lifelog-256/u2/2015-05-06/b00006604_21i7lf_20150506_122914e.jpg'
p2479
sg4
(lp2480
(g15
g6
(g18
S'\x06\xaa%?'
p2481
tp2482
Rp2483
tp2484
a(g32
g6
(g18
S'MW\xb4>'
p2485
tp2486
Rp2487
tp2488
a(g56
g6
(g18
S'{\xa8\xda9'
p2489
tp2490
Rp2491
tp2492
a(g44
g6
(g18
S'\x9dp\xb58'
p2493
tp2494
Rp2495
tp2496
a(g68
g6
(g18
S'\xcf\r\xae8'
p2497
tp2498
Rp2499
tp2500
asg73
g32
sa(dp2501
g2
S'../../../data/emanuela/activity-recognition/images/NTCIR-Lifelog-256/u2/2015-04-20/b00000290_21i7lf_20150420_123241e.jpg'
p2502
sg4
(lp2503
(g15
g6
(g18
S'\xef\xe4C?'
p2504
tp2505
Rp2506
tp2507
a(g56
g6
(g18
S'\x99\x8b\xfa='
p2508
tp2509
Rp2510
tp2511
a(g32
g6
(g18
S'\xc1\x0b\x95='
p2512
tp2513
Rp2514
tp2515
a(g68
g6
(g18
S'k\xa2\xd0<'
p2516
tp2517
Rp2518
tp2519
a(g204
g6
(g18
S'\xc2\x97\x8f;'
p2520
tp2521
Rp2522
tp2523
asg73
g32
sa(dp2524
g2
S'../../../data/emanuela/activity-recognition/images/NTCIR-Lifelog-256/u2/2015-05-03/b00003840_21i7lf_20150503_151957e.jpg'
p2525
sg4
(lp2526
(g56
g6
(g18
S'\x1e\xcem>'
p2527
tp2528
Rp2529
tp2530
a(g32
g6
(g18
S'\xdf\x0eX>'
p2531
tp2532
Rp2533
tp2534
a(g317
g6
(g18
S'\x91\xfe\x00>'
p2535
tp2536
Rp2537
tp2538
a(g68
g6
(g18
S'\x12n\xe1='
p2539
tp2540
Rp2541
tp2542
a(g15
g6
(g18
S'>k\x80='
p2543
tp2544
Rp2545
tp2546
asg73
g32
sa(dp2547
g2
S'../../../data/emanuela/activity-recognition/images/NTCIR-Lifelog-256/u2/2015-05-08/b00009012_21i7lf_20150508_124530e.jpg'
p2548
sg4
(lp2549
(g15
g6
(g18
S'L\x15z?'
p2550
tp2551
Rp2552
tp2553
a(g32
g6
(g18
S'\x0c\x7f\xbc<'
p2554
tp2555
Rp2556
tp2557
a(g44
g6
(g18
S'B\x80\x048'
p2558
tp2559
Rp2560
tp2561
a(g1821
g6
(g18
S')\x1c\x008'
p2562
tp2563
Rp2564
tp2565
a(g204
g6
(g18
S'_\x80K7'
p2566
tp2567
Rp2568
tp2569
asg73
g32
sa(dp2570
g2
S'../../../data/emanuela/activity-recognition/images/NTCIR-Lifelog-256/u2/2015-04-28/b00006661_21i7lf_20150428_123918e.jpg'
p2571
sg4
(lp2572
(g15
g6
(g18
S'\xb9A9?'
p2573
tp2574
Rp2575
tp2576
a(g32
g6
(g18
S'#\x10\x8d>'
p2577
tp2578
Rp2579
tp2580
a(g56
g6
(g18
S'\x19\xab\xd89'
p2581
tp2582
Rp2583
tp2584
a(g44
g6
(g18
S'hl\xb49'
p2585
tp2586
Rp2587
tp2588
a(g68
g6
(g18
S'\xf0\x1a\xe47'
p2589
tp2590
Rp2591
tp2592
asg73
g32
sa(dp2593
g2
S'../../../data/emanuela/activity-recognition/images/NTCIR-Lifelog-256/u2/2015-05-02/b00003290_21i7lf_20150502_144622e.jpg'
p2594
sg4
(lp2595
(g68
g6
(g18
S'E\xadB?'
p2596
tp2597
Rp2598
tp2599
a(g32
g6
(g18
S'C\x7f\xc1='
p2600
tp2601
Rp2602
tp2603
a(g56
g6
(g18
S'\xe38\x7f='
p2604
tp2605
Rp2606
tp2607
a(g96
g6
(g18
S'}\x90(='
p2608
tp2609
Rp2610
tp2611
a(g108
g6
(g18
S'*\xad\x1b<'
p2612
tp2613
Rp2614
tp2615
asg73
g32
sa(dp2616
g2
S'../../../data/emanuela/activity-recognition/images/NTCIR-Lifelog-256/u2/2015-04-26/b00004214_21i7lf_20150426_162908e.jpg'
p2617
sg4
(lp2618
(g32
g6
(g18
S'\x8coq?'
p2619
tp2620
Rp2621
tp2622
a(g15
g6
(g18
S'7\xc8Q='
p2623
tp2624
Rp2625
tp2626
a(g56
g6
(g18
S'\xa2`\xb6:'
p2627
tp2628
Rp2629
tp2630
a(g44
g6
(g18
S'.\x1e\x88:'
p2631
tp2632
Rp2633
tp2634
a(g96
g6
(g18
S'\x13\nb:'
p2635
tp2636
Rp2637
tp2638
asg73
g32
sa(dp2639
g2
S'../../../data/emanuela/activity-recognition/images/NTCIR-Lifelog-256/u2/2015-05-07/b00007543_21i7lf_20150507_110403e.jpg'
p2640
sg4
(lp2641
(g44
g6
(g18
S'J\xf9\xcf>'
p2642
tp2643
Rp2644
tp2645
a(g32
g6
(g18
S'DQ\xb5>'
p2646
tp2647
Rp2648
tp2649
a(g15
g6
(g18
S'?\xb2\x89='
p2650
tp2651
Rp2652
tp2653
a(g96
g6
(g18
S'\x92\x9eX='
p2654
tp2655
Rp2656
tp2657
a(g317
g6
(g18
S'\x90\xfd%='
p2658
tp2659
Rp2660
tp2661
asg73
g32
sa(dp2662
g2
S'../../../data/emanuela/activity-recognition/images/NTCIR-Lifelog-256/u2/2015-05-08/b00009007_21i7lf_20150508_124221e.jpg'
p2663
sg4
(lp2664
(g15
g6
(g18
S'/\xe9N?'
p2665
tp2666
Rp2667
tp2668
a(g32
g6
(g18
S'\x82\xa9C>'
p2669
tp2670
Rp2671
tp2672
a(g56
g6
(g18
S'\x87r\x05:'
p2673
tp2674
Rp2675
tp2676
a(g44
g6
(g18
S'\xe3!\xb68'
p2677
tp2678
Rp2679
tp2680
a(g68
g6
(g18
S'\xeb\x9f-8'
p2681
tp2682
Rp2683
tp2684
asg73
g32
sa(dp2685
g2
S'../../../data/emanuela/activity-recognition/images/NTCIR-Lifelog-256/u2/2015-04-30/b00001027_21i7lf_20150430_131532e.jpg'
p2686
sg4
(lp2687
(g32
g6
(g18
S'I\xa7;?'
p2688
tp2689
Rp2690
tp2691
a(g15
g6
(g18
S'Zv\x85>'
p2692
tp2693
Rp2694
tp2695
a(g56
g6
(g18
S'\xe9\xcep;'
p2696
tp2697
Rp2698
tp2699
a(g108
g6
(g18
S'\x1c\xc9\x8a:'
p2700
tp2701
Rp2702
tp2703
a(g162
g6
(g18
S'L \x01:'
p2704
tp2705
Rp2706
tp2707
asg73
g32
sa(dp2708
g2
S'../../../data/emanuela/activity-recognition/images/NTCIR-Lifelog-256/u2/2015-05-03/b00003878_21i7lf_20150503_154314e.jpg'
p2709
sg4
(lp2710
(g108
g6
(g18
S'\xbd-\x0f?'
p2711
tp2712
Rp2713
tp2714
a(g96
g6
(g18
S'!\xab\x91>'
p2715
tp2716
Rp2717
tp2718
a(g317
g6
(g18
S'\xd9m\xd5='
p2719
tp2720
Rp2721
tp2722
a(g32
g6
(g18
S'\xae\xbeS<'
p2723
tp2724
Rp2725
tp2726
a(g216
g6
(g18
S'\x11k+<'
p2727
tp2728
Rp2729
tp2730
asg73
g32
sa(dp2731
g2
S'../../../data/emanuela/activity-recognition/images/NTCIR-Lifelog-256/u2/2015-05-08/b00009008_21i7lf_20150508_124300e.jpg'
p2732
sg4
(lp2733
(g15
g6
(g18
S'\xda7\\?'
p2734
tp2735
Rp2736
tp2737
a(g32
g6
(g18
S'\xaf\xbc\x0e>'
p2738
tp2739
Rp2740
tp2741
a(g56
g6
(g18
S'\xb2\xfb\x139'
p2742
tp2743
Rp2744
tp2745
a(g44
g6
(g18
S'\xcb\x17\xe08'
p2746
tp2747
Rp2748
tp2749
a(g1821
g6
(g18
S'1\xe7\x9b7'
p2750
tp2751
Rp2752
tp2753
asg73
g32
sa(dp2754
g2
S'../../../data/emanuela/activity-recognition/images/NTCIR-Lifelog-256/u2/2015-05-03/b00003828_21i7lf_20150503_151250e.jpg'
p2755
sg4
(lp2756
(g15
g6
(g18
S'\xbd\xee]?'
p2757
tp2758
Rp2759
tp2760
a(g32
g6
(g18
S'\xc6\x14~='
p2761
tp2762
Rp2763
tp2764
a(g204
g6
(g18
S'\xeb1\xe1<'
p2765
tp2766
Rp2767
tp2768
a(g56
g6
(g18
S'\x87bu<'
p2769
tp2770
Rp2771
tp2772
a(g228
g6
(g18
S'\xd9v[<'
p2773
tp2774
Rp2775
tp2776
asg73
g32
sa(dp2777
g2
S'../../../data/emanuela/activity-recognition/images/NTCIR-Lifelog-256/u2/2015-04-28/b00006672_21i7lf_20150428_124611e.jpg'
p2778
sg4
(lp2779
(g15
g6
(g18
S'\x81\x02A?'
p2780
tp2781
Rp2782
tp2783
a(g32
g6
(g18
S'\x99Zz>'
p2784
tp2785
Rp2786
tp2787
a(g56
g6
(g18
S'\x8d\x1d5:'
p2788
tp2789
Rp2790
tp2791
a(g44
g6
(g18
S'\xc0\x03k9'
p2792
tp2793
Rp2794
tp2795
a(g282
g6
(g18
S'M\xdc69'
p2796
tp2797
Rp2798
tp2799
asg73
g32
sa(dp2800
g2
S'../../../data/emanuela/activity-recognition/images/NTCIR-Lifelog-256/u2/2015-05-08/b00009009_21i7lf_20150508_124337e.jpg'
p2801
sg4
(lp2802
(g15
g6
(g18
S'\xf2\x00b?'
p2803
tp2804
Rp2805
tp2806
a(g32
g6
(g18
S'\xe8R\xed='
p2807
tp2808
Rp2809
tp2810
a(g44
g6
(g18
S'Hl9:'
p2811
tp2812
Rp2813
tp2814
a(g56
g6
(g18
S'p)\xa39'
p2815
tp2816
Rp2817
tp2818
a(g68
g6
(g18
S'\x07-f8'
p2819
tp2820
Rp2821
tp2822
asg73
g32
sa(dp2823
g2
S'../../../data/emanuela/activity-recognition/images/NTCIR-Lifelog-256/u2/2015-04-28/b00006668_21i7lf_20150428_124341e.jpg'
p2824
sg4
(lp2825
(g15
g6
(g18
S'6\xf4"?'
p2826
tp2827
Rp2828
tp2829
a(g32
g6
(g18
S'\xfa\xcf\xb4>'
p2830
tp2831
Rp2832
tp2833
a(g56
g6
(g18
S'z\xf3\x85;'
p2834
tp2835
Rp2836
tp2837
a(g44
g6
(g18
S'\xf1!\x11;'
p2838
tp2839
Rp2840
tp2841
a(g228
g6
(g18
S'\xb5\xb9U:'
p2842
tp2843
Rp2844
tp2845
asg73
g32
sa(dp2846
g2
S'../../../data/emanuela/activity-recognition/images/NTCIR-Lifelog-256/u2/2015-05-03/b00003806_21i7lf_20150503_145924e.jpg'
p2847
sg4
(lp2848
(g216
g6
(g18
S'14\xd1>'
p2849
tp2850
Rp2851
tp2852
a(g108
g6
(g18
S'\xddc\x9e>'
p2853
tp2854
Rp2855
tp2856
a(g96
g6
(g18
S'\xc3i+>'
p2857
tp2858
Rp2859
tp2860
a(g371
g6
(g18
S'^\xf5\x80='
p2861
tp2862
Rp2863
tp2864
a(g317
g6
(g18
S'\xe0x\xf3<'
p2865
tp2866
Rp2867
tp2868
asg73
g32
sa(dp2869
g2
S'../../../data/emanuela/activity-recognition/images/NTCIR-Lifelog-256/u2/2015-05-02/b00003292_21i7lf_20150502_144742e.jpg'
p2870
sg4
(lp2871
(g216
g6
(g18
S'\xec\xb6\x07?'
p2872
tp2873
Rp2874
tp2875
a(g15
g6
(g18
S'\xd7\x10<>'
p2876
tp2877
Rp2878
tp2879
a(g68
g6
(g18
S'\xc5"H='
p2880
tp2881
Rp2882
tp2883
a(g56
g6
(g18
S'\xac\xba@='
p2884
tp2885
Rp2886
tp2887
a(g6
(g7
(S'S5'
p2888
I0
I1
tp2889
Rp2890
(I3
S'|'
p2891
NNNI5
I1
I0
tp2892
bS'plane'
p2893
tp2894
Rp2895
g6
(g18
S'\xf3\\\xd8<'
p2896
tp2897
Rp2898
tp2899
asg73
g32
sa(dp2900
g2
S'../../../data/emanuela/activity-recognition/images/NTCIR-Lifelog-256/u2/2015-05-07/b00007535_21i7lf_20150507_105906e.jpg'
p2901
sg4
(lp2902
(g32
g6
(g18
S'\xf4\x88\n?'
p2903
tp2904
Rp2905
tp2906
a(g68
g6
(g18
S'\xb0\xf5\xd9>'
p2907
tp2908
Rp2909
tp2910
a(g56
g6
(g18
S'\x94\x02\x98<'
p2911
tp2912
Rp2913
tp2914
a(g15
g6
(g18
S'A|\xc3;'
p2915
tp2916
Rp2917
tp2918
a(g44
g6
(g18
S'E\xe6\x93;'
p2919
tp2920
Rp2921
tp2922
asg73
g32
sa(dp2923
g2
S'../../../data/emanuela/activity-recognition/images/NTCIR-Lifelog-256/u2/2015-04-26/b00004231_21i7lf_20150426_164209e.jpg'
p2924
sg4
(lp2925
(g317
g6
(g18
S'\x90\xee\xe4>'
p2926
tp2927
Rp2928
tp2929
a(g162
g6
(g18
S'\xc9\xd38>'
p2930
tp2931
Rp2932
tp2933
a(g68
g6
(g18
S'\xb1\xcb\x1a>'
p2934
tp2935
Rp2936
tp2937
a(g15
g6
(g18
S'&\xb0D='
p2938
tp2939
Rp2940
tp2941
a(g44
g6
(g18
S'\xaa\xb3\xf5<'
p2942
tp2943
Rp2944
tp2945
asg73
g32
sa(dp2946
g2
S'../../../data/emanuela/activity-recognition/images/NTCIR-Lifelog-256/u2/2015-05-03/b00003814_21i7lf_20150503_150418e.jpg'
p2947
sg4
(lp2948
(g371
g6
(g18
S'Qle>'
p2949
tp2950
Rp2951
tp2952
a(g228
g6
(g18
S'o\xd3D>'
p2953
tp2954
Rp2955
tp2956
a(g317
g6
(g18
S'\x1d\x8d\x1d>'
p2957
tp2958
Rp2959
tp2960
a(g15
g6
(g18
S'\xf2\x01\x0c>'
p2961
tp2962
Rp2963
tp2964
a(g56
g6
(g18
S'\xb1\x91\x03>'
p2965
tp2966
Rp2967
tp2968
asg73
g32
sa(dp2969
g2
S'../../../data/emanuela/activity-recognition/images/NTCIR-Lifelog-256/u2/2015-05-03/b00003850_21i7lf_20150503_152606e.jpg'
p2970
sg4
(lp2971
(g32
g6
(g18
S'\x1b\xfe\x06?'
p2972
tp2973
Rp2974
tp2975
a(g15
g6
(g18
S'BA\xb3>'
p2976
tp2977
Rp2978
tp2979
a(g56
g6
(g18
S'oS\x8c='
p2980
tp2981
Rp2982
tp2983
a(g108
g6
(g18
S'Z\x0fj<'
p2984
tp2985
Rp2986
tp2987
a(g96
g6
(g18
S')#`<'
p2988
tp2989
Rp2990
tp2991
asg73
g32
sa(dp2992
g2
S'../../../data/emanuela/activity-recognition/images/NTCIR-Lifelog-256/u2/2015-04-26/b00004220_21i7lf_20150426_163527e.jpg'
p2993
sg4
(lp2994
(g317
g6
(g18
S'\x08\x88\xcb>'
p2995
tp2996
Rp2997
tp2998
a(g15
g6
(g18
S'\x83/\xa6>'
p2999
tp3000
Rp3001
tp3002
a(g56
g6
(g18
S'\xf8|\x80='
p3003
tp3004
Rp3005
tp3006
a(g32
g6
(g18
S'\xa7\x9d\xfd<'
p3007
tp3008
Rp3009
tp3010
a(g44
g6
(g18
S'\x0ew\xe0<'
p3011
tp3012
Rp3013
tp3014
asg73
g32
sa(dp3015
g2
S'../../../data/emanuela/activity-recognition/images/NTCIR-Lifelog-256/u2/2015-04-26/b00004224_21i7lf_20150426_163754e.jpg'
p3016
sg4
(lp3017
(g15
g6
(g18
S'\x1a\x90\xcc>'
p3018
tp3019
Rp3020
tp3021
a(g32
g6
(g18
S'\xdf\x1eg>'
p3022
tp3023
Rp3024
tp3025
a(g56
g6
(g18
S'Z\x10\x04>'
p3026
tp3027
Rp3028
tp3029
a(g317
g6
(g18
S'\xa2\x99\xa8='
p3030
tp3031
Rp3032
tp3033
a(g44
g6
(g18
S'\x14\xc8\n='
p3034
tp3035
Rp3036
tp3037
asg73
g32
sa(dp3038
g2
S'../../../data/emanuela/activity-recognition/images/NTCIR-Lifelog-256/u2/2015-05-02/b00003285_21i7lf_20150502_144321e.jpg'
p3039
sg4
(lp3040
(g56
g6
(g18
S'\xde>\xda>'
p3041
tp3042
Rp3043
tp3044
a(g68
g6
(g18
S'\xdf\xc8\xac>'
p3045
tp3046
Rp3047
tp3048
a(g32
g6
(g18
S'\xcb\xbd\x16>'
p3049
tp3050
Rp3051
tp3052
a(g15
g6
(g18
S'\x94\x17\xc2<'
p3053
tp3054
Rp3055
tp3056
a(g108
g6
(g18
S'*a\x9f<'
p3057
tp3058
Rp3059
tp3060
asg73
g32
sa(dp3061
g2
S'../../../data/emanuela/activity-recognition/images/NTCIR-Lifelog-256/u2/2015-05-08/b00009000_21i7lf_20150508_123758e.jpg'
p3062
sg4
(lp3063
(g15
g6
(g18
S';\x9d\x1f?'
p3064
tp3065
Rp3066
tp3067
a(g32
g6
(g18
S'@X\xc0>'
p3068
tp3069
Rp3070
tp3071
a(g56
g6
(g18
S'\xdd\xa7\xa89'
p3072
tp3073
Rp3074
tp3075
a(g44
g6
(g18
S'\x0e\x8c\x839'
p3076
tp3077
Rp3078
tp3079
a(g162
g6
(g18
S'\xfc\x84\x868'
p3080
tp3081
Rp3082
tp3083
asg73
g32
sa(dp3084
g2
S'../../../data/emanuela/activity-recognition/images/NTCIR-Lifelog-256/u2/2015-05-03/b00003845_21i7lf_20150503_152305e.jpg'
p3085
sg4
(lp3086
(g228
g6
(g18
S'\xba\x05\xcf>'
p3087
tp3088
Rp3089
tp3090
a(g15
g6
(g18
S'\xe5!\x8b>'
p3091
tp3092
Rp3093
tp3094
a(g32
g6
(g18
S'"\xdc\x0f>'
p3095
tp3096
Rp3097
tp3098
a(g204
g6
(g18
S'|\xfe)='
p3099
tp3100
Rp3101
tp3102
a(g56
g6
(g18
S'@\x99#='
p3103
tp3104
Rp3105
tp3106
asg73
g32
sa(dp3107
g2
S'../../../data/emanuela/activity-recognition/images/NTCIR-Lifelog-256/u2/2015-04-21/b00000333_21i7lf_20150421_131746e.jpg'
p3108
sg4
(lp3109
(g15
g6
(g18
S'\xbfi\x1b?'
p3110
tp3111
Rp3112
tp3113
a(g32
g6
(g18
S'l\xf0\xc8>'
p3114
tp3115
Rp3116
tp3117
a(g56
g6
(g18
S'\xce{\xa19'
p3118
tp3119
Rp3120
tp3121
a(g68
g6
(g18
S'\xf4\xc0|8'
p3122
tp3123
Rp3124
tp3125
a(g44
g6
(g18
S'\xce\x89\xb07'
p3126
tp3127
Rp3128
tp3129
asg73
g32
sa(dp3130
g2
S'../../../data/emanuela/activity-recognition/images/NTCIR-Lifelog-256/u2/2015-04-28/b00006662_21i7lf_20150428_123955e.jpg'
p3131
sg4
(lp3132
(g32
g6
(g18
S'*-Q?'
p3133
tp3134
Rp3135
tp3136
a(g15
g6
(g18
S'\\<;>'
p3137
tp3138
Rp3139
tp3140
a(g44
g6
(g18
S'|\xb6\xe17'
p3141
tp3142
Rp3143
tp3144
a(g56
g6
(g18
S'\xa4\xea\xcf7'
p3145
tp3146
Rp3147
tp3148
a(g68
g6
(g18
S'\x0e\xd7-6'
p3149
tp3150
Rp3151
tp3152
asg73
g32
sa(dp3153
g2
S'../../../data/emanuela/activity-recognition/images/NTCIR-Lifelog-256/u2/2015-04-28/b00006650_21i7lf_20150428_123227e.jpg'
p3154
sg4
(lp3155
(g15
g6
(g18
S'|\xfc\xf3>'
p3156
tp3157
Rp3158
tp3159
a(g44
g6
(g18
S'\xbc\xce\xe1>'
p3160
tp3161
Rp3162
tp3163
a(g32
g6
(g18
S'\xb4P;='
p3164
tp3165
Rp3166
tp3167
a(g317
g6
(g18
S'6\xd5\xbe<'
p3168
tp3169
Rp3170
tp3171
a(g56
g6
(g18
S'\xb6\xa1\x01<'
p3172
tp3173
Rp3174
tp3175
asg73
g32
sa(dp3176
g2
S'../../../data/emanuela/activity-recognition/images/NTCIR-Lifelog-256/u2/2015-05-03/b00003887_21i7lf_20150503_154917e.jpg'
p3177
sg4
(lp3178
(g32
g6
(g18
S'\x1fx\xdf>'
p3179
tp3180
Rp3181
tp3182
a(g15
g6
(g18
S'\xbb\xac\xcd>'
p3183
tp3184
Rp3185
tp3186
a(g44
g6
(g18
S'\xdf\xfa~='
p3187
tp3188
Rp3189
tp3190
a(g56
g6
(g18
S'r\xc8\xb4<'
p3191
tp3192
Rp3193
tp3194
a(g228
g6
(g18
S'\x80K\x99<'
p3195
tp3196
Rp3197
tp3198
asg73
g32
sa(dp3199
g2
S'../../../data/emanuela/activity-recognition/images/NTCIR-Lifelog-256/u2/2015-04-26/b00004221_21i7lf_20150426_163601e.jpg'
p3200
sg4
(lp3201
(g317
g6
(g18
S'\xb3R\xc9>'
p3202
tp3203
Rp3204
tp3205
a(g15
g6
(g18
S'\xb6\xddq>'
p3206
tp3207
Rp3208
tp3209
a(g32
g6
(g18
S'\xed\x18\xa4='
p3210
tp3211
Rp3212
tp3213
a(g56
g6
(g18
S'Q\x04{='
p3214
tp3215
Rp3216
tp3217
a(g68
g6
(g18
S'\xf8\x1au='
p3218
tp3219
Rp3220
tp3221
asg73
g32
sa(dp3222
g2
S'../../../data/emanuela/activity-recognition/images/NTCIR-Lifelog-256/u2/2015-04-27/b00005392_21i7lf_20150427_132756e.jpg'
p3223
sg4
(lp3224
(g32
g6
(g18
S'\xf1g[?'
p3225
tp3226
Rp3227
tp3228
a(g15
g6
(g18
S'l\x15\x11>'
p3229
tp3230
Rp3231
tp3232
a(g56
g6
(g18
S'\x89}\x14:'
p3233
tp3234
Rp3235
tp3236
a(g68
g6
(g18
S']\xae\x859'
p3237
tp3238
Rp3239
tp3240
a(g44
g6
(g18
S'+\x7f\xf78'
p3241
tp3242
Rp3243
tp3244
asg73
g32
sa(dp3245
g2
S'../../../data/emanuela/activity-recognition/images/NTCIR-Lifelog-256/u2/2015-04-26/b00004208_21i7lf_20150426_162451e.jpg'
p3246
sg4
(lp3247
(g32
g6
(g18
S'\xe00Z?'
p3248
tp3249
Rp3250
tp3251
a(g15
g6
(g18
S'\x8c\xfc\xcb='
p3252
tp3253
Rp3254
tp3255
a(g317
g6
(g18
S'\xa4YU<'
p3256
tp3257
Rp3258
tp3259
a(g96
g6
(g18
S'\x98\xc7\x00<'
p3260
tp3261
Rp3262
tp3263
a(g68
g6
(g18
S'\xa4\x05\xd6;'
p3264
tp3265
Rp3266
tp3267
asg73
g32
sa(dp3268
g2
S'../../../data/emanuela/activity-recognition/images/NTCIR-Lifelog-256/u2/2015-05-05/b00005348_21i7lf_20150505_121758e.jpg'
p3269
sg4
(lp3270
(g32
g6
(g18
S'\x96dC?'
p3271
tp3272
Rp3273
tp3274
a(g15
g6
(g18
S'\xa5\x9d\xde='
p3275
tp3276
Rp3277
tp3278
a(g56
g6
(g18
S'TB\xa1='
p3279
tp3280
Rp3281
tp3282
a(g68
g6
(g18
S'\x90-\xaf<'
p3283
tp3284
Rp3285
tp3286
a(g108
g6
(g18
S'\xfd\xea\x15<'
p3287
tp3288
Rp3289
tp3290
asg73
g32
sa(dp3291
g2
S'../../../data/emanuela/activity-recognition/images/NTCIR-Lifelog-256/u2/2015-04-26/b00004205_21i7lf_20150426_162145e.jpg'
p3292
sg4
(lp3293
(g32
g6
(g18
S'\xa9\x188?'
p3294
tp3295
Rp3296
tp3297
a(g15
g6
(g18
S'\xc7\x9dP>'
p3298
tp3299
Rp3300
tp3301
a(g56
g6
(g18
S'\xc0b5='
p3302
tp3303
Rp3304
tp3305
a(g44
g6
(g18
S'\x9a\xd8S<'
p3306
tp3307
Rp3308
tp3309
a(g204
g6
(g18
S'm=\x01<'
p3310
tp3311
Rp3312
tp3313
asg73
g32
sa(dp3314
g2
S'../../../data/emanuela/activity-recognition/images/NTCIR-Lifelog-256/u2/2015-05-02/b00003271_21i7lf_20150502_143439e.jpg'
p3315
sg4
(lp3316
(g32
g6
(g18
S'hHA?'
p3317
tp3318
Rp3319
tp3320
a(g15
g6
(g18
S'\x89\x15\x17>'
p3321
tp3322
Rp3323
tp3324
a(g68
g6
(g18
S'X\xee\x03='
p3325
tp3326
Rp3327
tp3328
a(g44
g6
(g18
S'\xaf\xc3\xec<'
p3329
tp3330
Rp3331
tp3332
a(g56
g6
(g18
S'\xfd\xe3\xd6<'
p3333
tp3334
Rp3335
tp3336
asg73
g32
sa(dp3337
g2
S'../../../data/emanuela/activity-recognition/images/NTCIR-Lifelog-256/u2/2015-05-03/b00003831_21i7lf_20150503_151437e.jpg'
p3338
sg4
(lp3339
(g15
g6
(g18
S'\xea\xc0\xc1>'
p3340
tp3341
Rp3342
tp3343
a(g228
g6
(g18
S'\xb9\xd1\\>'
p3344
tp3345
Rp3346
tp3347
a(g44
g6
(g18
S'\xe0M\x0c>'
p3348
tp3349
Rp3350
tp3351
a(g56
g6
(g18
S'\xe2}\xa8='
p3352
tp3353
Rp3354
tp3355
a(g317
g6
(g18
S'\x9a\x04*='
p3356
tp3357
Rp3358
tp3359
asg73
g32
sa(dp3360
g2
S'../../../data/emanuela/activity-recognition/images/NTCIR-Lifelog-256/u2/2015-05-03/b00003824_21i7lf_20150503_151014e.jpg'
p3361
sg4
(lp3362
(g228
g6
(g18
S'\xe1\x86\xac>'
p3363
tp3364
Rp3365
tp3366
a(g56
g6
(g18
S'\xbd\xc69>'
p3367
tp3368
Rp3369
tp3370
a(g15
g6
(g18
S'\x06q0>'
p3371
tp3372
Rp3373
tp3374
a(g32
g6
(g18
S'@\xec\xb4='
p3375
tp3376
Rp3377
tp3378
a(g204
g6
(g18
S'I\tg='
p3379
tp3380
Rp3381
tp3382
asg73
g32
sa(dp3383
g2
S'../../../data/emanuela/activity-recognition/images/NTCIR-Lifelog-256/u2/2015-05-07/b00007555_21i7lf_20150507_111114e.jpg'
p3384
sg4
(lp3385
(g32
g6
(g18
S'j\x08\x05?'
p3386
tp3387
Rp3388
tp3389
a(g15
g6
(g18
S'\x99m{>'
p3390
tp3391
Rp3392
tp3393
a(g44
g6
(g18
S'RSO>'
p3394
tp3395
Rp3396
tp3397
a(g317
g6
(g18
S'6\xf0B<'
p3398
tp3399
Rp3400
tp3401
a(g56
g6
(g18
S'\xa8:\x03<'
p3402
tp3403
Rp3404
tp3405
asg73
g32
sa(dp3406
g2
S'../../../data/emanuela/activity-recognition/images/NTCIR-Lifelog-256/u2/2015-05-08/b00009019_21i7lf_20150508_124945e.jpg'
p3407
sg4
(lp3408
(g15
g6
(g18
S'{\x8c+?'
p3409
tp3410
Rp3411
tp3412
a(g32
g6
(g18
S'\xa3\xa1\xa8>'
p3413
tp3414
Rp3415
tp3416
a(g44
g6
(g18
S"\xcd_'9"
p3417
tp3418
Rp3419
tp3420
a(g56
g6
(g18
S'\xef\xda\x129'
p3421
tp3422
Rp3423
tp3424
a(g216
g6
(g18
S'\n\x86x8'
p3425
tp3426
Rp3427
tp3428
asg73
g32
sa(dp3429
g2
S'../../../data/emanuela/activity-recognition/images/NTCIR-Lifelog-256/u2/2015-05-03/b00003864_21i7lf_20150503_153432e.jpg'
p3430
sg4
(lp3431
(g32
g6
(g18
S'\xaa\xcdF?'
p3432
tp3433
Rp3434
tp3435
a(g15
g6
(g18
S'~\xc8S>'
p3436
tp3437
Rp3438
tp3439
a(g56
g6
(g18
S'\x1b\xf9\x00<'
p3440
tp3441
Rp3442
tp3443
a(g44
g6
(g18
S'\x18"\xd8;'
p3444
tp3445
Rp3446
tp3447
a(g204
g6
(g18
S'\xbd\xf51:'
p3448
tp3449
Rp3450
tp3451
asg73
g32
sa(dp3452
g2
S'../../../data/emanuela/activity-recognition/images/NTCIR-Lifelog-256/u2/2015-05-03/b00003825_21i7lf_20150503_151053e.jpg'
p3453
sg4
(lp3454
(g15
g6
(g18
S'\xef\xe4\xdf>'
p3455
tp3456
Rp3457
tp3458
a(g32
g6
(g18
S'\x924\x1e>'
p3459
tp3460
Rp3461
tp3462
a(g56
g6
(g18
S'\xf3\xfd\x1a>'
p3463
tp3464
Rp3465
tp3466
a(g228
g6
(g18
S'U\xae\xbf='
p3467
tp3468
Rp3469
tp3470
a(g44
g6
(g18
S'K\x1f\x88='
p3471
tp3472
Rp3473
tp3474
asg73
g32
sa(dp3475
g2
S'../../../data/emanuela/activity-recognition/images/NTCIR-Lifelog-256/u2/2015-04-21/b00000347_21i7lf_20150421_132616e.jpg'
p3476
sg4
(lp3477
(g15
g6
(g18
S']\x1an?'
p3478
tp3479
Rp3480
tp3481
a(g32
g6
(g18
S'}\x13\x85='
p3482
tp3483
Rp3484
tp3485
a(g56
g6
(g18
S'\xeeQ\x92;'
p3486
tp3487
Rp3488
tp3489
a(g68
g6
(g18
S'\xcaD!9'
p3490
tp3491
Rp3492
tp3493
a(g282
g6
(g18
S'$\xd7\n9'
p3494
tp3495
Rp3496
tp3497
asg73
g32
sa(dp3498
g2
S'../../../data/emanuela/activity-recognition/images/NTCIR-Lifelog-256/u2/2015-05-05/b00005332_21i7lf_20150505_120758e.jpg'
p3499
sg4
(lp3500
(g15
g6
(g18
S'\\m\x0c?'
p3501
tp3502
Rp3503
tp3504
a(g32
g6
(g18
S':\xbc\xe3>'
p3505
tp3506
Rp3507
tp3508
a(g56
g6
(g18
S'o\x01\x15;'
p3509
tp3510
Rp3511
tp3512
a(g162
g6
(g18
S'\x94L\xa3:'
p3513
tp3514
Rp3515
tp3516
a(g96
g6
(g18
S'\x89\x12h:'
p3517
tp3518
Rp3519
tp3520
asg73
g32
sa(dp3521
g2
S'../../../data/emanuela/activity-recognition/images/NTCIR-Lifelog-256/u2/2015-05-03/b00003910_21i7lf_20150503_160300e.jpg'
p3522
sg4
(lp3523
(g15
g6
(g18
S'\xa0\xe5\xf9>'
p3524
tp3525
Rp3526
tp3527
a(g228
g6
(g18
S's4P>'
p3528
tp3529
Rp3530
tp3531
a(g56
g6
(g18
S'~L\xd4='
p3532
tp3533
Rp3534
tp3535
a(g371
g6
(g18
S'\x04\xcd?='
p3536
tp3537
Rp3538
tp3539
a(g317
g6
(g18
S'\x96\xbd:='
p3540
tp3541
Rp3542
tp3543
asg73
g32
sa(dp3544
g2
S'../../../data/emanuela/activity-recognition/images/NTCIR-Lifelog-256/u2/2015-05-02/b00003291_21i7lf_20150502_144701e.jpg'
p3545
sg4
(lp3546
(g15
g6
(g18
S'\xaf\x83]>'
p3547
tp3548
Rp3549
tp3550
a(g216
g6
(g18
S'\xadFK>'
p3551
tp3552
Rp3553
tp3554
a(g32
g6
(g18
S'\xeb\xf0\x13>'
p3555
tp3556
Rp3557
tp3558
a(g56
g6
(g18
S'\x07\xae\xe0='
p3559
tp3560
Rp3561
tp3562
a(g68
g6
(g18
S'\xf6\xa6\xcb='
p3563
tp3564
Rp3565
tp3566
asg73
g32
sa(dp3567
g2
S'../../../data/emanuela/activity-recognition/images/NTCIR-Lifelog-256/u2/2015-05-02/b00003278_21i7lf_20150502_143904e.jpg'
p3568
sg4
(lp3569
(g15
g6
(g18
S'\x83R_?'
p3570
tp3571
Rp3572
tp3573
a(g32
g6
(g18
S'\xc4\x0f\xda<'
p3574
tp3575
Rp3576
tp3577
a(g216
g6
(g18
S'O*\x80<'
p3578
tp3579
Rp3580
tp3581
a(g228
g6
(g18
S'\xaa\x84_<'
p3582
tp3583
Rp3584
tp3585
a(g204
g6
(g18
S'\x85\x0cS<'
p3586
tp3587
Rp3588
tp3589
asg73
g32
sa(dp3590
g2
S'../../../data/emanuela/activity-recognition/images/NTCIR-Lifelog-256/u2/2015-05-06/b00006610_21i7lf_20150506_123258e.jpg'
p3591
sg4
(lp3592
(g15
g6
(g18
S'\xe2\xd7\r?'
p3593
tp3594
Rp3595
tp3596
a(g32
g6
(g18
S'\xf7\xcb\xe2>'
p3597
tp3598
Rp3599
tp3600
a(g56
g6
(g18
S'\xf9B";'
p3601
tp3602
Rp3603
tp3604
a(g68
g6
(g18
S'\xb6%\x909'
p3605
tp3606
Rp3607
tp3608
a(g44
g6
(g18
S'\x8d\x15\xc18'
p3609
tp3610
Rp3611
tp3612
asg73
g32
sa(dp3613
g2
S'../../../data/emanuela/activity-recognition/images/NTCIR-Lifelog-256/u2/2015-04-28/b00006656_21i7lf_20150428_123618e.jpg'
p3614
sg4
(lp3615
(g15
g6
(g18
S'\xc3\xbf\x18?'
p3616
tp3617
Rp3618
tp3619
a(g32
g6
(g18
S'\x02A\xce>'
p3620
tp3621
Rp3622
tp3623
a(g68
g6
(g18
S'\xf3Q\x169'
p3624
tp3625
Rp3626
tp3627
a(g56
g6
(g18
S'\xccA\x149'
p3628
tp3629
Rp3630
tp3631
a(g44
g6
(g18
S'\x7f,\x039'
p3632
tp3633
Rp3634
tp3635
asg73
g32
sa(dp3636
g2
S'../../../data/emanuela/activity-recognition/images/NTCIR-Lifelog-256/u2/2015-04-28/b00006657_21i7lf_20150428_123654e.jpg'
p3637
sg4
(lp3638
(g15
g6
(g18
S'P\xdf<?'
p3639
tp3640
Rp3641
tp3642
a(g32
g6
(g18
S'\xc8\x19\x86>'
p3643
tp3644
Rp3645
tp3646
a(g44
g6
(g18
S'\xcf\x12\x1b9'
p3647
tp3648
Rp3649
tp3650
a(g56
g6
(g18
S'\xfa\x00\x9e8'
p3651
tp3652
Rp3653
tp3654
a(g204
g6
(g18
S'\xf2\x85\x897'
p3655
tp3656
Rp3657
tp3658
asg73
g32
sa(dp3659
g2
S'../../../data/emanuela/activity-recognition/images/NTCIR-Lifelog-256/u2/2015-05-03/b00003862_21i7lf_20150503_153320e.jpg'
p3660
sg4
(lp3661
(g32
g6
(g18
S't\x8bR?'
p3662
tp3663
Rp3664
tp3665
a(g15
g6
(g18
S'\xae\xed\x1d>'
p3666
tp3667
Rp3668
tp3669
a(g56
g6
(g18
S'\x01\xdef<'
p3670
tp3671
Rp3672
tp3673
a(g44
g6
(g18
S'\x0b\xfe\x80;'
p3674
tp3675
Rp3676
tp3677
a(g204
g6
(g18
S'\xaf{!;'
p3678
tp3679
Rp3680
tp3681
asg73
g32
sa(dp3682
g2
S'../../../data/emanuela/activity-recognition/images/NTCIR-Lifelog-256/u2/2015-05-01/b00002597_21i7lf_20150501_182522e.jpg'
p3683
sg4
(lp3684
(g32
g6
(g18
S'\xf0\xef\x13?'
p3685
tp3686
Rp3687
tp3688
a(g68
g6
(g18
S'\xab\x90]>'
p3689
tp3690
Rp3691
tp3692
a(g56
g6
(g18
S'\xf4r\xe7='
p3693
tp3694
Rp3695
tp3696
a(g15
g6
(g18
S'\x86\x85H='
p3697
tp3698
Rp3699
tp3700
a(g96
g6
(g18
S'1M\xb0<'
p3701
tp3702
Rp3703
tp3704
asg73
g32
sa(dp3705
g2
S'../../../data/emanuela/activity-recognition/images/NTCIR-Lifelog-256/u2/2015-04-26/b00004213_21i7lf_20150426_162835e.jpg'
p3706
sg4
(lp3707
(g32
g6
(g18
S'\xf8\xbbm?'
p3708
tp3709
Rp3710
tp3711
a(g15
g6
(g18
S'\x1c\xb1\xc1<'
p3712
tp3713
Rp3714
tp3715
a(g96
g6
(g18
S'\xea9\x83<'
p3716
tp3717
Rp3718
tp3719
a(g56
g6
(g18
S'7\xf7\x1b<'
p3720
tp3721
Rp3722
tp3723
a(g68
g6
(g18
S'.\xa1\xff;'
p3724
tp3725
Rp3726
tp3727
asg73
g32
sa(dp3728
g2
S'../../../data/emanuela/activity-recognition/images/NTCIR-Lifelog-256/u2/2015-04-21/b00000336_21i7lf_20150421_131934e.jpg'
p3729
sg4
(lp3730
(g15
g6
(g18
S'\x85\xc5v?'
p3731
tp3732
Rp3733
tp3734
a(g32
g6
(g18
S'\xd1\xfc\x10='
p3735
tp3736
Rp3737
tp3738
a(g56
g6
(g18
S'\xeaT\xce9'
p3739
tp3740
Rp3741
tp3742
a(g1967
g6
(g18
S'C\xf0\x918'
p3743
tp3744
Rp3745
tp3746
a(g1821
g6
(g18
S'\x07\xeds8'
p3747
tp3748
Rp3749
tp3750
asg73
g32
sa(dp3751
g2
S'../../../data/emanuela/activity-recognition/images/NTCIR-Lifelog-256/u2/2015-05-03/b00003877_21i7lf_20150503_154236e.jpg'
p3752
sg4
(lp3753
(g216
g6
(g18
S'\xb8u\xba>'
p3754
tp3755
Rp3756
tp3757
a(g317
g6
(g18
S'\xd9\x8b\x8a>'
p3758
tp3759
Rp3760
tp3761
a(g108
g6
(g18
S'\xec\x1eL>'
p3762
tp3763
Rp3764
tp3765
a(g371
g6
(g18
S'o\xee\xd2='
p3766
tp3767
Rp3768
tp3769
a(g96
g6
(g18
S'\x90\xba\xd3<'
p3770
tp3771
Rp3772
tp3773
asg73
g32
sa(dp3774
g2
S'../../../data/emanuela/activity-recognition/images/NTCIR-Lifelog-256/u2/2015-04-21/b00000331_21i7lf_20150421_131635e.jpg'
p3775
sg4
(lp3776
(g32
g6
(g18
S'V\xbbh?'
p3777
tp3778
Rp3779
tp3780
a(g15
g6
(g18
S'\xf3I\xb9='
p3781
tp3782
Rp3783
tp3784
a(g56
g6
(g18
S'\xf6\x9c\xbd9'
p3785
tp3786
Rp3787
tp3788
a(g68
g6
(g18
S'I\x99\x168'
p3789
tp3790
Rp3791
tp3792
a(g162
g6
(g18
S'\x0b\x86\x1d7'
p3793
tp3794
Rp3795
tp3796
asg73
g32
sa(dp3797
g2
S'../../../data/emanuela/activity-recognition/images/NTCIR-Lifelog-256/u2/2015-05-07/b00007530_21i7lf_20150507_105551e.jpg'
p3798
sg4
(lp3799
(g32
g6
(g18
S'\x895y?'
p3800
tp3801
Rp3802
tp3803
a(g15
g6
(g18
S'\x16\xa4\x85<'
p3804
tp3805
Rp3806
tp3807
a(g44
g6
(g18
S'\x8f\xc3x;'
p3808
tp3809
Rp3810
tp3811
a(g68
g6
(g18
S'.\x94a;'
p3812
tp3813
Rp3814
tp3815
a(g56
g6
(g18
S'\x18l\x13;'
p3816
tp3817
Rp3818
tp3819
asg73
g32
sa(dp3820
g2
S'../../../data/emanuela/activity-recognition/images/NTCIR-Lifelog-256/u2/2015-05-01/b00002118_21i7lf_20150501_123436e.jpg'
p3821
sg4
(lp3822
(g32
g6
(g18
S'y\xc1:?'
p3823
tp3824
Rp3825
tp3826
a(g15
g6
(g18
S'%\xfe\x89>'
p3827
tp3828
Rp3829
tp3830
a(g56
g6
(g18
S'\xb9\\5:'
p3831
tp3832
Rp3833
tp3834
a(g216
g6
(g18
S'\xa1\xb6\xc88'
p3835
tp3836
Rp3837
tp3838
a(g68
g6
(g18
S'\r\xfe\x8e8'
p3839
tp3840
Rp3841
tp3842
asg73
g32
sa(dp3843
g2
S'../../../data/emanuela/activity-recognition/images/NTCIR-Lifelog-256/u2/2015-05-03/b00003805_21i7lf_20150503_145847e.jpg'
p3844
sg4
(lp3845
(g96
g6
(g18
S'\xa2$\xf2>'
p3846
tp3847
Rp3848
tp3849
a(g371
g6
(g18
S'5\x8f\x97>'
p3850
tp3851
Rp3852
tp3853
a(g317
g6
(g18
S'4@\xdf='
p3854
tp3855
Rp3856
tp3857
a(g108
g6
(g18
S'\x9es]='
p3858
tp3859
Rp3860
tp3861
a(g68
g6
(g18
S'D\xdd\xfa<'
p3862
tp3863
Rp3864
tp3865
asg73
g32
sa(dp3866
g2
S'../../../data/emanuela/activity-recognition/images/NTCIR-Lifelog-256/u2/2015-05-03/b00003837_21i7lf_20150503_151813e.jpg'
p3867
sg4
(lp3868
(g15
g6
(g18
S'%1\xae>'
p3869
tp3870
Rp3871
tp3872
a(g56
g6
(g18
S'>:S>'
p3873
tp3874
Rp3875
tp3876
a(g228
g6
(g18
S'\x97~\xd9='
p3877
tp3878
Rp3879
tp3880
a(g32
g6
(g18
S'\xc7\x15\xd8='
p3881
tp3882
Rp3883
tp3884
a(g44
g6
(g18
S'\x91xo='
p3885
tp3886
Rp3887
tp3888
asg73
g32
sa(dp3889
g2
S'../../../data/emanuela/activity-recognition/images/NTCIR-Lifelog-256/u2/2015-05-01/b00002120_21i7lf_20150501_123549e.jpg'
p3890
sg4
(lp3891
(g15
g6
(g18
S'\xea\xfe\x05?'
p3892
tp3893
Rp3894
tp3895
a(g32
g6
(g18
S'J\xa2\xf0>'
p3896
tp3897
Rp3898
tp3899
a(g56
g6
(g18
S'\xe5\xd9\xcb;'
p3900
tp3901
Rp3902
tp3903
a(g68
g6
(g18
S'\xae#\xef8'
p3904
tp3905
Rp3906
tp3907
a(g44
g6
(g18
S'o\xe1\xa88'
p3908
tp3909
Rp3910
tp3911
asg73
g32
sa(dp3912
g2
S'../../../data/emanuela/activity-recognition/images/NTCIR-Lifelog-256/u2/2015-05-03/b00003908_21i7lf_20150503_160154e.jpg'
p3913
sg4
(lp3914
(g228
g6
(g18
S'\t\xa6\n?'
p3915
tp3916
Rp3917
tp3918
a(g317
g6
(g18
S'\x16\x06\xd1='
p3919
tp3920
Rp3921
tp3922
a(g44
g6
(g18
S'\x9e(\x84='
p3923
tp3924
Rp3925
tp3926
a(g15
g6
(g18
S'\xb9\x9bw='
p3927
tp3928
Rp3929
tp3930
a(g56
g6
(g18
S'\xf6_T='
p3931
tp3932
Rp3933
tp3934
asg73
g32
sa(dp3935
g2
S'../../../data/emanuela/activity-recognition/images/NTCIR-Lifelog-256/u2/2015-05-03/b00003822_21i7lf_20150503_150856e.jpg'
p3936
sg4
(lp3937
(g228
g6
(g18
S'\xdf\xb5\xcf>'
p3938
tp3939
Rp3940
tp3941
a(g56
g6
(g18
S'\xc5&4>'
p3942
tp3943
Rp3944
tp3945
a(g15
g6
(g18
S'\xfe\xea\x0b>'
p3946
tp3947
Rp3948
tp3949
a(g44
g6
(g18
S'\xa2\xbc\x96='
p3950
tp3951
Rp3952
tp3953
a(g32
g6
(g18
S'\xea\xafK='
p3954
tp3955
Rp3956
tp3957
asg73
g32
sa(dp3958
g2
S'../../../data/emanuela/activity-recognition/images/NTCIR-Lifelog-256/u2/2015-05-07/b00007544_21i7lf_20150507_110444e.jpg'
p3959
sg4
(lp3960
(g32
g6
(g18
S'\xa0\xee\x0f?'
p3961
tp3962
Rp3963
tp3964
a(g15
g6
(g18
S'\xb6\xd9\x88>'
p3965
tp3966
Rp3967
tp3968
a(g44
g6
(g18
S'\xb4\x1e\x0e>'
p3969
tp3970
Rp3971
tp3972
a(g56
g6
(g18
S'\xb4\x0b\x96<'
p3973
tp3974
Rp3975
tp3976
a(g68
g6
(g18
S'\x828\xb3;'
p3977
tp3978
Rp3979
tp3980
asg73
g32
sa(dp3981
g2
S'../../../data/emanuela/activity-recognition/images/NTCIR-Lifelog-256/u2/2015-05-06/b00006612_21i7lf_20150506_123410e.jpg'
p3982
sg4
(lp3983
(g15
g6
(g18
S'D\x977?'
p3984
tp3985
Rp3986
tp3987
a(g32
g6
(g18
S'\xc1\xe2\x8f>'
p3988
tp3989
Rp3990
tp3991
a(g56
g6
(g18
S'\tO\xa0:'
p3992
tp3993
Rp3994
tp3995
a(g68
g6
(g18
S'\xdc\xb3\xba9'
p3996
tp3997
Rp3998
tp3999
a(g44
g6
(g18
S'=\x11\x958'
p4000
tp4001
Rp4002
tp4003
asg73
g32
sa(dp4004
g2
S'../../../data/emanuela/activity-recognition/images/NTCIR-Lifelog-256/u2/2015-04-26/b00004207_21i7lf_20150426_162341e.jpg'
p4005
sg4
(lp4006
(g32
g6
(g18
S'\x96\x8eg?'
p4007
tp4008
Rp4009
tp4010
a(g15
g6
(g18
S'\xc1\xd8\x80='
p4011
tp4012
Rp4013
tp4014
a(g68
g6
(g18
S'+t\x0e<'
p4015
tp4016
Rp4017
tp4018
a(g56
g6
(g18
S'\x12\x0f\xb4;'
p4019
tp4020
Rp4021
tp4022
a(g317
g6
(g18
S'\xe1\xd0\x9e;'
p4023
tp4024
Rp4025
tp4026
asg73
g32
sa(dp4027
g2
S'../../../data/emanuela/activity-recognition/images/NTCIR-Lifelog-256/u2/2015-04-20/b00000298_21i7lf_20150420_123743e.jpg'
p4028
sg4
(lp4029
(g68
g6
(g18
S'J\x0eD?'
p4030
tp4031
Rp4032
tp4033
a(g32
g6
(g18
S'\xc8\x85B>'
p4034
tp4035
Rp4036
tp4037
a(g56
g6
(g18
S'\x83\xca\xad<'
p4038
tp4039
Rp4040
tp4041
a(g228
g6
(g18
S'F\xb9\xb6;'
p4042
tp4043
Rp4044
tp4045
a(g15
g6
(g18
S'\xe2w\xb4;'
p4046
tp4047
Rp4048
tp4049
asg73
g32
sa(dp4050
g2
S'../../../data/emanuela/activity-recognition/images/NTCIR-Lifelog-256/u2/2015-04-21/b00000348_21i7lf_20150421_132654e.jpg'
p4051
sg4
(lp4052
(g15
g6
(g18
S'\x0e\xe3i?'
p4053
tp4054
Rp4055
tp4056
a(g32
g6
(g18
S'd\x13\x8e='
p4057
tp4058
Rp4059
tp4060
a(g56
g6
(g18
S'!7\x18<'
p4061
tp4062
Rp4063
tp4064
a(g282
g6
(g18
S'\xd6k\xe2:'
p4065
tp4066
Rp4067
tp4068
a(g228
g6
(g18
S'\x805\xc1:'
p4069
tp4070
Rp4071
tp4072
asg73
g32
sa(dp4073
g2
S'../../../data/emanuela/activity-recognition/images/NTCIR-Lifelog-256/u2/2015-04-27/b00005391_21i7lf_20150427_132722e.jpg'
p4074
sg4
(lp4075
(g32
g6
(g18
S'\x02\xda\r?'
p4076
tp4077
Rp4078
tp4079
a(g15
g6
(g18
S'AS\xe1>'
p4080
tp4081
Rp4082
tp4083
a(g56
g6
(g18
S"\xd8\xde';"
p4084
tp4085
Rp4086
tp4087
a(g216
g6
(g18
S'\xc3\xe8I:'
p4088
tp4089
Rp4090
tp4091
a(g68
g6
(g18
S'1q\x1d:'
p4092
tp4093
Rp4094
tp4095
asg73
g32
sa(dp4096
g2
S'../../../data/emanuela/activity-recognition/images/NTCIR-Lifelog-256/u2/2015-04-28/b00006669_21i7lf_20150428_124418e.jpg'
p4097
sg4
(lp4098
(g15
g6
(g18
S'\xeb\xda3?'
p4099
tp4100
Rp4101
tp4102
a(g32
g6
(g18
S'\xf5(\x95>'
p4103
tp4104
Rp4105
tp4106
a(g56
g6
(g18
S'\xaa\xf2\x97;'
p4107
tp4108
Rp4109
tp4110
a(g44
g6
(g18
S':\x97\xf89'
p4111
tp4112
Rp4113
tp4114
a(g108
g6
(g18
S'\x144\x8c9'
p4115
tp4116
Rp4117
tp4118
asg73
g32
sa(dp4119
g2
S'../../../data/emanuela/activity-recognition/images/NTCIR-Lifelog-256/u2/2015-04-28/b00006664_21i7lf_20150428_124111e.jpg'
p4120
sg4
(lp4121
(g32
g6
(g18
S'@*N?'
p4122
tp4123
Rp4124
tp4125
a(g15
g6
(g18
S'\xb3(G>'
p4126
tp4127
Rp4128
tp4129
a(g44
g6
(g18
S'.I\xb88'
p4130
tp4131
Rp4132
tp4133
a(g56
g6
(g18
S'\x8c\xb3\x9a8'
p4134
tp4135
Rp4136
tp4137
a(g68
g6
(g18
S"'o\xf86"
p4138
tp4139
Rp4140
tp4141
asg73
g32
sa(dp4142
g2
S'../../../data/emanuela/activity-recognition/images/NTCIR-Lifelog-256/u2/2015-05-03/b00003851_21i7lf_20150503_152641e.jpg'
p4143
sg4
(lp4144
(g32
g6
(g18
S'\xbe\xee9?'
p4145
tp4146
Rp4147
tp4148
a(g15
g6
(g18
S'\xdb3\x10>'
p4149
tp4150
Rp4151
tp4152
a(g56
g6
(g18
S'\xb80\xd8='
p4153
tp4154
Rp4155
tp4156
a(g68
g6
(g18
S'\x04\xe0\xda;'
p4157
tp4158
Rp4159
tp4160
a(g96
g6
(g18
S'w\xf8\xb1;'
p4161
tp4162
Rp4163
tp4164
asg73
g32
sa(dp4165
g2
S'../../../data/emanuela/activity-recognition/images/NTCIR-Lifelog-256/u2/2015-05-07/b00007532_21i7lf_20150507_105703e.jpg'
p4166
sg4
(lp4167
(g32
g6
(g18
S'X\x90r?'
p4168
tp4169
Rp4170
tp4171
a(g15
g6
(g18
S'5\xbc\xc6<'
p4172
tp4173
Rp4174
tp4175
a(g56
g6
(g18
S'\xf8\x839<'
p4176
tp4177
Rp4178
tp4179
a(g44
g6
(g18
S'!, <'
p4180
tp4181
Rp4182
tp4183
a(g68
g6
(g18
S'\xec\xfa\xc2;'
p4184
tp4185
Rp4186
tp4187
asg73
g32
sa(dp4188
g2
S'../../../data/emanuela/activity-recognition/images/NTCIR-Lifelog-256/u2/2015-04-28/b00006670_21i7lf_20150428_124452e.jpg'
p4189
sg4
(lp4190
(g15
g6
(g18
S'\x1a{\x1c?'
p4191
tp4192
Rp4193
tp4194
a(g32
g6
(g18
S'\xcf\t\xc5>'
p4195
tp4196
Rp4197
tp4198
a(g56
g6
(g18
S'\xde\xfd0;'
p4199
tp4200
Rp4201
tp4202
a(g44
g6
(g18
S'\x03.\x909'
p4203
tp4204
Rp4205
tp4206
a(g162
g6
(g18
S'\x00\xe5T9'
p4207
tp4208
Rp4209
tp4210
asg73
g32
sa(dp4211
g2
S'../../../data/emanuela/activity-recognition/images/NTCIR-Lifelog-256/u2/2015-05-01/b00002598_21i7lf_20150501_182601e.jpg'
p4212
sg4
(lp4213
(g15
g6
(g18
S'?^\x01?'
p4214
tp4215
Rp4216
tp4217
a(g32
g6
(g18
S'd\xe3\xb2>'
p4218
tp4219
Rp4220
tp4221
a(g68
g6
(g18
S'\x81;\x83='
p4222
tp4223
Rp4224
tp4225
a(g56
g6
(g18
S'\x82@1='
p4226
tp4227
Rp4228
tp4229
a(g824
g6
(g18
S'C\xb3D<'
p4230
tp4231
Rp4232
tp4233
asg73
g32
sa(dp4234
g2
S'../../../data/emanuela/activity-recognition/images/NTCIR-Lifelog-256/u2/2015-05-03/b00003891_21i7lf_20150503_155143e.jpg'
p4235
sg4
(lp4236
(g15
g6
(g18
S';8\xb1>'
p4237
tp4238
Rp4239
tp4240
a(g32
g6
(g18
S'\xdb\xb6O>'
p4241
tp4242
Rp4243
tp4244
a(g228
g6
(g18
S'c\xbfG>'
p4245
tp4246
Rp4247
tp4248
a(g216
g6
(g18
S'\xcd\x8b\xb5='
p4249
tp4250
Rp4251
tp4252
a(g317
g6
(g18
S'\xb56\x14='
p4253
tp4254
Rp4255
tp4256
asg73
g32
sa(dp4257
g2
S'../../../data/emanuela/activity-recognition/images/NTCIR-Lifelog-256/u2/2015-05-05/b00005337_21i7lf_20150505_121101e.jpg'
p4258
sg4
(lp4259
(g15
g6
(g18
S'\xf3 ;?'
p4260
tp4261
Rp4262
tp4263
a(g32
g6
(g18
S'\xa7-\x89>'
p4264
tp4265
Rp4266
tp4267
a(g56
g6
(g18
S'\xa2\x1e\xde9'
p4268
tp4269
Rp4270
tp4271
a(g68
g6
(g18
S'5\x8be9'
p4272
tp4273
Rp4274
tp4275
a(g96
g6
(g18
S'O\xf2\x019'
p4276
tp4277
Rp4278
tp4279
asg73
g32
sa(dp4280
g2
S'../../../data/emanuela/activity-recognition/images/NTCIR-Lifelog-256/u2/2015-05-03/b00003858_21i7lf_20150503_153056e.jpg'
p4281
sg4
(lp4282
(g228
g6
(g18
S'<\xdd\xb5>'
p4283
tp4284
Rp4285
tp4286
a(g216
g6
(g18
S'\xee\xed\x1b>'
p4287
tp4288
Rp4289
tp4290
a(g32
g6
(g18
S'\xff\xac\xc2='
p4291
tp4292
Rp4293
tp4294
a(g44
g6
(g18
S'0\x11\xb9='
p4295
tp4296
Rp4297
tp4298
a(g56
g6
(g18
S'\xdcOl='
p4299
tp4300
Rp4301
tp4302
asg73
g32
sa(dp4303
g2
S'../../../data/emanuela/activity-recognition/images/NTCIR-Lifelog-256/u2/2015-05-03/b00003859_21i7lf_20150503_153134e.jpg'
p4304
sg4
(lp4305
(g15
g6
(g18
S'\xf3\xe5;>'
p4306
tp4307
Rp4308
tp4309
a(g317
g6
(g18
S'\xbc+8>'
p4310
tp4311
Rp4312
tp4313
a(g32
g6
(g18
S'\xe9`\x0b>'
p4314
tp4315
Rp4316
tp4317
a(g228
g6
(g18
S'\xd5\xde\xcc='
p4318
tp4319
Rp4320
tp4321
a(g108
g6
(g18
S'\x8c?\xc1='
p4322
tp4323
Rp4324
tp4325
asg73
g32
sa(dp4326
g2
S'../../../data/emanuela/activity-recognition/images/NTCIR-Lifelog-256/u2/2015-04-26/b00004199_21i7lf_20150426_161803e.jpg'
p4327
sg4
(lp4328
(g15
g6
(g18
S'\xb5\xb98?'
p4329
tp4330
Rp4331
tp4332
a(g32
g6
(g18
S'+\xdcB>'
p4333
tp4334
Rp4335
tp4336
a(g44
g6
(g18
S'\x7f\x96\xa0<'
p4337
tp4338
Rp4339
tp4340
a(g204
g6
(g18
S'\xf6\x0b=<'
p4341
tp4342
Rp4343
tp4344
a(g216
g6
(g18
S'|\xb5/<'
p4345
tp4346
Rp4347
tp4348
asg73
g32
sa(dp4349
g2
S'../../../data/emanuela/activity-recognition/images/NTCIR-Lifelog-256/u2/2015-04-26/b00004233_21i7lf_20150426_164333e.jpg'
p4350
sg4
(lp4351
(g15
g6
(g18
S'\x90\x10\x11?'
p4352
tp4353
Rp4354
tp4355
a(g317
g6
(g18
S'\xb5a\x10>'
p4356
tp4357
Rp4358
tp4359
a(g228
g6
(g18
S'\x94\xd3\xc4='
p4360
tp4361
Rp4362
tp4363
a(g32
g6
(g18
S'\x19r\xa6='
p4364
tp4365
Rp4366
tp4367
a(g204
g6
(g18
S'Z\xb1\xf7<'
p4368
tp4369
Rp4370
tp4371
asg73
g32
sa(dp4372
g2
S'../../../data/emanuela/activity-recognition/images/NTCIR-Lifelog-256/u2/2015-04-26/b00004201_21i7lf_20150426_161925e.jpg'
p4373
sg4
(lp4374
(g15
g6
(g18
S's\x98\x18?'
p4375
tp4376
Rp4377
tp4378
a(g32
g6
(g18
S'\xce\xec\xc3>'
p4379
tp4380
Rp4381
tp4382
a(g44
g6
(g18
S'iE\x04<'
p4383
tp4384
Rp4385
tp4386
a(g56
g6
(g18
S'YP\x84;'
p4387
tp4388
Rp4389
tp4390
a(g204
g6
(g18
S'\xee\xf1\xf4:'
p4391
tp4392
Rp4393
tp4394
asg73
g32
sa(dp4395
g2
S'../../../data/emanuela/activity-recognition/images/NTCIR-Lifelog-256/u2/2015-04-30/b00001019_21i7lf_20150430_131044e.jpg'
p4396
sg4
(lp4397
(g32
g6
(g18
S'n\xc9\x02?'
p4398
tp4399
Rp4400
tp4401
a(g15
g6
(g18
S'\x87\xf5\xf9>'
p4402
tp4403
Rp4404
tp4405
a(g56
g6
(g18
S'\xef%\xf49'
p4406
tp4407
Rp4408
tp4409
a(g44
g6
(g18
S'=\xc0 9'
p4410
tp4411
Rp4412
tp4413
a(g68
g6
(g18
S'/*\xd08'
p4414
tp4415
Rp4416
tp4417
asg73
g32
sa(dp4418
g2
S'../../../data/emanuela/activity-recognition/images/NTCIR-Lifelog-256/u2/2015-04-21/b00000349_21i7lf_20150421_132735e.jpg'
p4419
sg4
(lp4420
(g15
g6
(g18
S'\xf5\xce_?'
p4421
tp4422
Rp4423
tp4424
a(g32
g6
(g18
S'CK\xe6='
p4425
tp4426
Rp4427
tp4428
a(g56
g6
(g18
S'\xec\xcd:<'
p4429
tp4430
Rp4431
tp4432
a(g68
g6
(g18
S'\xa7>\x0e:'
p4433
tp4434
Rp4435
tp4436
a(g1967
g6
(g18
S'\xeb\xce\xb69'
p4437
tp4438
Rp4439
tp4440
asg73
g32
sa(dp4441
g2
S'../../../data/emanuela/activity-recognition/images/NTCIR-Lifelog-256/u2/2015-05-07/b00007545_21i7lf_20150507_110519e.jpg'
p4442
sg4
(lp4443
(g32
g6
(g18
S'\xb7\xaf\x14?'
p4444
tp4445
Rp4446
tp4447
a(g44
g6
(g18
S'93V>'
p4448
tp4449
Rp4450
tp4451
a(g15
g6
(g18
S'\xe7\xed8>'
p4452
tp4453
Rp4454
tp4455
a(g56
g6
(g18
S'\xd0\xf2#<'
p4456
tp4457
Rp4458
tp4459
a(g68
g6
(g18
S'\x06`\xb2;'
p4460
tp4461
Rp4462
tp4463
asg73
g32
sa(dp4464
g2
S'../../../data/emanuela/activity-recognition/images/NTCIR-Lifelog-256/u2/2015-05-01/b00002610_21i7lf_20150501_183325e.jpg'
p4465
sg4
(lp4466
(g15
g6
(g18
S'\x00R\x08?'
p4467
tp4468
Rp4469
tp4470
a(g282
g6
(g18
S'\xfa\xa5t>'
p4471
tp4472
Rp4473
tp4474
a(g216
g6
(g18
S'\xd1\xd9:='
p4475
tp4476
Rp4477
tp4478
a(g56
g6
(g18
S'\x99\x12!='
p4479
tp4480
Rp4481
tp4482
a(g204
g6
(g18
S'Tp\xa4<'
p4483
tp4484
Rp4485
tp4486
asg73
g32
sa(dp4487
g2
S'../../../data/emanuela/activity-recognition/images/NTCIR-Lifelog-256/u2/2015-05-06/b00006603_21i7lf_20150506_122838e.jpg'
p4488
sg4
(lp4489
(g15
g6
(g18
S'c\xf2q?'
p4490
tp4491
Rp4492
tp4493
a(g32
g6
(g18
S'z\xe5U='
p4494
tp4495
Rp4496
tp4497
a(g56
g6
(g18
S'\n\xb5\x02;'
p4498
tp4499
Rp4500
tp4501
a(g44
g6
(g18
S'5\xbak9'
p4502
tp4503
Rp4504
tp4505
a(g216
g6
(g18
S'\x98\xac\xfa8'
p4506
tp4507
Rp4508
tp4509
asg73
g32
sa(dp4510
g2
S'../../../data/emanuela/activity-recognition/images/NTCIR-Lifelog-256/u2/2015-04-21/b00000337_21i7lf_20150421_132010e.jpg'
p4511
sg4
(lp4512
(g32
g6
(g18
S'\xe8\xee2?'
p4513
tp4514
Rp4515
tp4516
a(g15
g6
(g18
S'\xf7l\x99>'
p4517
tp4518
Rp4519
tp4520
a(g56
g6
(g18
S'?\r\x96:'
p4521
tp4522
Rp4523
tp4524
a(g68
g6
(g18
S'W<\x898'
p4525
tp4526
Rp4527
tp4528
a(g44
g6
(g18
S'\x82t}8'
p4529
tp4530
Rp4531
tp4532
asg73
g32
sa(dp4533
g2
S'../../../data/emanuela/activity-recognition/images/NTCIR-Lifelog-256/u2/2015-04-21/b00000335_21i7lf_20150421_131857e.jpg'
p4534
sg4
(lp4535
(g15
g6
(g18
S'\xb3\x7f3?'
p4536
tp4537
Rp4538
tp4539
a(g32
g6
(g18
S'\xb3\xdd\x98>'
p4540
tp4541
Rp4542
tp4543
a(g56
g6
(g18
S'2\x11\xd38'
p4544
tp4545
Rp4546
tp4547
a(g68
g6
(g18
S'/\x17m8'
p4548
tp4549
Rp4550
tp4551
a(g162
g6
(g18
S'\xd7\xa6\x048'
p4552
tp4553
Rp4554
tp4555
asg73
g32
sa(dp4556
g2
S'../../../data/emanuela/activity-recognition/images/NTCIR-Lifelog-256/u2/2015-05-02/b00003270_21i7lf_20150502_143404e.jpg'
p4557
sg4
(lp4558
(g15
g6
(g18
S'\x19rC?'
p4559
tp4560
Rp4561
tp4562
a(g32
g6
(g18
S'\xdd\xa3N>'
p4563
tp4564
Rp4565
tp4566
a(g68
g6
(g18
S'2C\x82<'
p4567
tp4568
Rp4569
tp4570
a(g56
g6
(g18
S'\x0f\xedA<'
p4571
tp4572
Rp4573
tp4574
a(g204
g6
(g18
S'\xf8t\x01;'
p4575
tp4576
Rp4577
tp4578
asg73
g32
sa(dp4579
g2
S'../../../data/emanuela/activity-recognition/images/NTCIR-Lifelog-256/u2/2015-05-03/b00003863_21i7lf_20150503_153357e.jpg'
p4580
sg4
(lp4581
(g32
g6
(g18
S'\xf7\x99H?'
p4582
tp4583
Rp4584
tp4585
a(g15
g6
(g18
S'f\xf7T>'
p4586
tp4587
Rp4588
tp4589
a(g56
g6
(g18
S'\xf7\xc7\xac;'
p4590
tp4591
Rp4592
tp4593
a(g44
g6
(g18
S'\xfe\xf5\xd1:'
p4594
tp4595
Rp4596
tp4597
a(g68
g6
(g18
S'!\xe5\x1e:'
p4598
tp4599
Rp4600
tp4601
asg73
g32
sa(dp4602
g2
S'../../../data/emanuela/activity-recognition/images/NTCIR-Lifelog-256/u2/2015-05-08/b00009018_21i7lf_20150508_124913e.jpg'
p4603
sg4
(lp4604
(g15
g6
(g18
S'`\xecD?'
p4605
tp4606
Rp4607
tp4608
a(g32
g6
(g18
S'\xd0!k>'
p4609
tp4610
Rp4611
tp4612
a(g56
g6
(g18
S'\xd7(R:'
p4613
tp4614
Rp4615
tp4616
a(g44
g6
(g18
S"}'\xec8"
p4617
tp4618
Rp4619
tp4620
a(g108
g6
(g18
S'\x8c\x11\xa28'
p4621
tp4622
Rp4623
tp4624
asg73
g32
sa(dp4625
g2
S'../../../data/emanuela/activity-recognition/images/NTCIR-Lifelog-256/u2/2015-05-03/b00003830_21i7lf_20150503_151359e.jpg'
p4626
sg4
(lp4627
(g15
g6
(g18
S'\r\x9b\xe9>'
p4628
tp4629
Rp4630
tp4631
a(g56
g6
(g18
S'\xf1\xf7\x80>'
p4632
tp4633
Rp4634
tp4635
a(g32
g6
(g18
S'\x82AU>'
p4636
tp4637
Rp4638
tp4639
a(g228
g6
(g18
S'zt\xdd<'
p4640
tp4641
Rp4642
tp4643
a(g204
g6
(g18
S'\xfd\x9ep<'
p4644
tp4645
Rp4646
tp4647
asg73
g32
sa(dp4648
g2
S'../../../data/emanuela/activity-recognition/images/NTCIR-Lifelog-256/u2/2015-04-26/b00004198_21i7lf_20150426_161729e.jpg'
p4649
sg4
(lp4650
(g15
g6
(g18
S'\xa0d\x06?'
p4651
tp4652
Rp4653
tp4654
a(g32
g6
(g18
S'\x0c3\xf2>'
p4655
tp4656
Rp4657
tp4658
a(g56
g6
(g18
S'Q\x1dA:'
p4659
tp4660
Rp4661
tp4662
a(g44
g6
(g18
S'\x83\xdc>:'
p4663
tp4664
Rp4665
tp4666
a(g204
g6
(g18
S'\x981,9'
p4667
tp4668
Rp4669
tp4670
asg73
g32
sa(dp4671
g2
S'../../../data/emanuela/activity-recognition/images/NTCIR-Lifelog-256/u2/2015-04-26/b00004202_21i7lf_20150426_162004e.jpg'
p4672
sg4
(lp4673
(g15
g6
(g18
S'\x9dY%?'
p4674
tp4675
Rp4676
tp4677
a(g32
g6
(g18
S'i\xec9>'
p4678
tp4679
Rp4680
tp4681
a(g44
g6
(g18
S'\xc5\xad\xbb='
p4682
tp4683
Rp4684
tp4685
a(g56
g6
(g18
S'0\xe8\x1a='
p4686
tp4687
Rp4688
tp4689
a(g162
g6
(g18
S'\xf6\x84\x13<'
p4690
tp4691
Rp4692
tp4693
asg73
g32
sa(dp4694
g2
S'../../../data/emanuela/activity-recognition/images/NTCIR-Lifelog-256/u2/2015-05-01/b00002607_21i7lf_20150501_183137e.jpg'
p4695
sg4
(lp4696
(g15
g6
(g18
S'$\x19C?'
p4697
tp4698
Rp4699
tp4700
a(g32
g6
(g18
S'\xc7\xd1\xb8='
p4701
tp4702
Rp4703
tp4704
a(g282
g6
(g18
S'\x81\xc0\x0e='
p4705
tp4706
Rp4707
tp4708
a(g56
g6
(g18
S'\tY\xfd<'
p4709
tp4710
Rp4711
tp4712
a(g228
g6
(g18
S' d\xd0<'
p4713
tp4714
Rp4715
tp4716
asg73
g32
sa(dp4717
g2
S'../../../data/emanuela/activity-recognition/images/NTCIR-Lifelog-256/u2/2015-04-26/b00004212_21i7lf_20150426_162758e.jpg'
p4718
sg4
(lp4719
(g32
g6
(g18
S'=\xa8e?'
p4720
tp4721
Rp4722
tp4723
a(g15
g6
(g18
S'\xb6\xb7\xb5='
p4724
tp4725
Rp4726
tp4727
a(g96
g6
(g18
S'\x9e\xaeN;'
p4728
tp4729
Rp4730
tp4731
a(g317
g6
(g18
S'b\x92\x1c;'
p4732
tp4733
Rp4734
tp4735
a(g56
g6
(g18
S'\x91\xeb\x0e;'
p4736
tp4737
Rp4738
tp4739
asg73
g32
sa(dp4740
g2
S'../../../data/emanuela/activity-recognition/images/NTCIR-Lifelog-256/u2/2015-05-07/b00007524_21i7lf_20150507_105219e.jpg'
p4741
sg4
(lp4742
(g32
g6
(g18
S'\xc0\x01v?'
p4743
tp4744
Rp4745
tp4746
a(g15
g6
(g18
S'\xed\r\xf3<'
p4747
tp4748
Rp4749
tp4750
a(g96
g6
(g18
S'JH4;'
p4751
tp4752
Rp4753
tp4754
a(g68
g6
(g18
S'\xb6\xd9\x11;'
p4755
tp4756
Rp4757
tp4758
a(g56
g6
(g18
S'\xbc"\x08;'
p4759
tp4760
Rp4761
tp4762
asg73
g32
sa(dp4763
g2
S'../../../data/emanuela/activity-recognition/images/NTCIR-Lifelog-256/u2/2015-05-03/b00003819_21i7lf_20150503_150710e.jpg'
p4764
sg4
(lp4765
(g15
g6
(g18
S'\xea=\x13?'
p4766
tp4767
Rp4768
tp4769
a(g32
g6
(g18
S'\xb9\xc7=>'
p4770
tp4771
Rp4772
tp4773
a(g56
g6
(g18
S'P7\xc8='
p4774
tp4775
Rp4776
tp4777
a(g204
g6
(g18
S'\x8e[\x86='
p4778
tp4779
Rp4780
tp4781
a(g228
g6
(g18
S'\xfc\xcf6='
p4782
tp4783
Rp4784
tp4785
asg73
g32
sa(dp4786
g2
S'../../../data/emanuela/activity-recognition/images/NTCIR-Lifelog-256/u2/2015-04-28/b00006674_21i7lf_20150428_124719e.jpg'
p4787
sg4
(lp4788
(g32
g6
(g18
S'\xb3\xc0.?'
p4789
tp4790
Rp4791
tp4792
a(g15
g6
(g18
S'wq\xa1>'
p4793
tp4794
Rp4795
tp4796
a(g56
g6
(g18
S'\x84\x16\xe2:'
p4797
tp4798
Rp4799
tp4800
a(g44
g6
(g18
S'o\xe1\x0b9'
p4801
tp4802
Rp4803
tp4804
a(g68
g6
(g18
S'@N08'
p4805
tp4806
Rp4807
tp4808
asg73
g32
sa(dp4809
g2
S'../../../data/emanuela/activity-recognition/images/NTCIR-Lifelog-256/u2/2015-05-01/b00002125_21i7lf_20150501_123859e.jpg'
p4810
sg4
(lp4811
(g32
g6
(g18
S'^P-?'
p4812
tp4813
Rp4814
tp4815
a(g15
g6
(g18
S'Y\x97\xa3>'
p4816
tp4817
Rp4818
tp4819
a(g56
g6
(g18
S'SqC;'
p4820
tp4821
Rp4822
tp4823
a(g68
g6
(g18
S'\xb1v\xf28'
p4824
tp4825
Rp4826
tp4827
a(g96
g6
(g18
S'\xcaI\xdb8'
p4828
tp4829
Rp4830
tp4831
asg73
g32
sa(dp4832
g2
S'../../../data/emanuela/activity-recognition/images/NTCIR-Lifelog-256/u2/2015-05-02/b00003283_21i7lf_20150502_144211e.jpg'
p4833
sg4
(lp4834
(g56
g6
(g18
S"\xcd\x14'?"
p4835
tp4836
Rp4837
tp4838
a(g68
g6
(g18
S'\x13E0>'
p4839
tp4840
Rp4841
tp4842
a(g32
g6
(g18
S'}_\xb3='
p4843
tp4844
Rp4845
tp4846
a(g701
g6
(g18
S'\xbe\x14\x9e<'
p4847
tp4848
Rp4849
tp4850
a(g15
g6
(g18
S'\x97y\x90<'
p4851
tp4852
Rp4853
tp4854
asg73
g32
sa(dp4855
g2
S'../../../data/emanuela/activity-recognition/images/NTCIR-Lifelog-256/u2/2015-05-07/b00007557_21i7lf_20150507_111224e.jpg'
p4856
sg4
(lp4857
(g32
g6
(g18
S'\x11S\xa3>'
p4858
tp4859
Rp4860
tp4861
a(g15
g6
(g18
S'\x13|\x96>'
p4862
tp4863
Rp4864
tp4865
a(g44
g6
(g18
S'\xda\xb0\x8b>'
p4866
tp4867
Rp4868
tp4869
a(g317
g6
(g18
S'e\xf4q='
p4870
tp4871
Rp4872
tp4873
a(g68
g6
(g18
S'\nV\x96<'
p4874
tp4875
Rp4876
tp4877
asg73
g32
sa(dp4878
g2
S'../../../data/emanuela/activity-recognition/images/NTCIR-Lifelog-256/u2/2015-05-02/b00003277_21i7lf_20150502_143829e.jpg'
p4879
sg4
(lp4880
(g701
g6
(g18
S'\x0c\x92e>'
p4881
tp4882
Rp4883
tp4884
a(g216
g6
(g18
S'\xa3~D>'
p4885
tp4886
Rp4887
tp4888
a(g68
g6
(g18
S'\xfb[\xc6='
p4889
tp4890
Rp4891
tp4892
a(g2895
g6
(g18
S'%%\xbc='
p4893
tp4894
Rp4895
tp4896
a(g15
g6
(g18
S"^'\xb8="
p4897
tp4898
Rp4899
tp4900
asg73
g32
sa(dp4901
g2
S'../../../data/emanuela/activity-recognition/images/NTCIR-Lifelog-256/u2/2015-04-28/b00006663_21i7lf_20150428_124030e.jpg'
p4902
sg4
(lp4903
(g32
g6
(g18
S'\xeb\x8eL?'
p4904
tp4905
Rp4906
tp4907
a(g15
g6
(g18
S'\x1d\x86M>'
p4908
tp4909
Rp4910
tp4911
a(g44
g6
(g18
S'\xfeh\xef8'
p4912
tp4913
Rp4914
tp4915
a(g56
g6
(g18
S'\xa5\xcf\xcd8'
p4916
tp4917
Rp4918
tp4919
a(g68
g6
(g18
S'2\x95#7'
p4920
tp4921
Rp4922
tp4923
asg73
g32
sa(dp4924
g2
S'../../../data/emanuela/activity-recognition/images/NTCIR-Lifelog-256/u2/2015-05-03/b00003843_21i7lf_20150503_152147e.jpg'
p4925
sg4
(lp4926
(g15
g6
(g18
S'J\n\x97>'
p4927
tp4928
Rp4929
tp4930
a(g32
g6
(g18
S'h?\x0b>'
p4931
tp4932
Rp4933
tp4934
a(g56
g6
(g18
S'n\x84\n>'
p4935
tp4936
Rp4937
tp4938
a(g228
g6
(g18
S']\x8f\xc0='
p4939
tp4940
Rp4941
tp4942
a(g68
g6
(g18
S'\xa0\xae\xb7='
p4943
tp4944
Rp4945
tp4946
asg73
g32
sa(dp4947
g2
S'../../../data/emanuela/activity-recognition/images/NTCIR-Lifelog-256/u2/2015-04-21/b00000356_21i7lf_20150421_133156e.jpg'
p4948
sg4
(lp4949
(g15
g6
(g18
S'w\x88i?'
p4950
tp4951
Rp4952
tp4953
a(g32
g6
(g18
S'\xf5h\xaa='
p4954
tp4955
Rp4956
tp4957
a(g56
g6
(g18
S'[\xad4;'
p4958
tp4959
Rp4960
tp4961
a(g228
g6
(g18
S'~\x9b]:'
p4962
tp4963
Rp4964
tp4965
a(g68
g6
(g18
S'\xc9!\x939'
p4966
tp4967
Rp4968
tp4969
asg73
g32
sa(dp4970
g2
S'../../../data/emanuela/activity-recognition/images/NTCIR-Lifelog-256/u2/2015-05-03/b00003875_21i7lf_20150503_154119e.jpg'
p4971
sg4
(lp4972
(g32
g6
(g18
S'\xd7g;?'
p4973
tp4974
Rp4975
tp4976
a(g15
g6
(g18
S'p\xc8\x88>'
p4977
tp4978
Rp4979
tp4980
a(g56
g6
(g18
S'\x851\x00:'
p4981
tp4982
Rp4983
tp4984
a(g44
g6
(g18
S'\xe3D\xe98'
p4985
tp4986
Rp4987
tp4988
a(g162
g6
(g18
S'\x1f\xac*8'
p4989
tp4990
Rp4991
tp4992
asg73
g32
sa(dp4993
g2
S'../../../data/emanuela/activity-recognition/images/NTCIR-Lifelog-256/u2/2015-05-05/b00005342_21i7lf_20150505_121412e.jpg'
p4994
sg4
(lp4995
(g32
g6
(g18
S'\xc2\xadr?'
p4996
tp4997
Rp4998
tp4999
a(g15
g6
(g18
S'\xd15A='
p5000
tp5001
Rp5002
tp5003
a(g56
g6
(g18
S'~\x9e\x07;'
p5004
tp5005
Rp5006
tp5007
a(g96
g6
(g18
S'Yk\x92:'
p5008
tp5009
Rp5010
tp5011
a(g108
g6
(g18
S't\x82T:'
p5012
tp5013
Rp5014
tp5015
asg73
g32
sa(dp5016
g2
S'../../../data/emanuela/activity-recognition/images/NTCIR-Lifelog-256/u2/2015-05-07/b00007527_21i7lf_20150507_105404e.jpg'
p5017
sg4
(lp5018
(g32
g6
(g18
S'\x01\xb7p?'
p5019
tp5020
Rp5021
tp5022
a(g15
g6
(g18
S'e\x0b\x0b='
p5023
tp5024
Rp5025
tp5026
a(g68
g6
(g18
S'\xd7Hn<'
p5027
tp5028
Rp5029
tp5030
a(g44
g6
(g18
S'ZV\x7f;'
p5031
tp5032
Rp5033
tp5034
a(g96
g6
(g18
S'J\xber;'
p5035
tp5036
Rp5037
tp5038
asg73
g32
sa(dp5039
g2
S'../../../data/emanuela/activity-recognition/images/NTCIR-Lifelog-256/u2/2015-05-06/b00006611_21i7lf_20150506_123335e.jpg'
p5040
sg4
(lp5041
(g32
g6
(g18
S'\xe7\xda\x0b?'
p5042
tp5043
Rp5044
tp5045
a(g15
g6
(g18
S'\x1a\xa8\xe3>'
p5046
tp5047
Rp5048
tp5049
a(g56
g6
(g18
S'\xb1W\xaa;'
p5050
tp5051
Rp5052
tp5053
a(g68
g6
(g18
S'\xc4\x82m;'
p5054
tp5055
Rp5056
tp5057
a(g44
g6
(g18
S'\xce\xd7r8'
p5058
tp5059
Rp5060
tp5061
asg73
g32
sa(dp5062
g2
S'../../../data/emanuela/activity-recognition/images/NTCIR-Lifelog-256/u2/2015-05-08/b00009005_21i7lf_20150508_124107e.jpg'
p5063
sg4
(lp5064
(g15
g6
(g18
S'\xde<M?'
p5065
tp5066
Rp5067
tp5068
a(g32
g6
(g18
S'\x12\x1fJ>'
p5069
tp5070
Rp5071
tp5072
a(g56
g6
(g18
S'\x84)\xbd9'
p5073
tp5074
Rp5075
tp5076
a(g44
g6
(g18
S'B\x98K9'
p5077
tp5078
Rp5079
tp5080
a(g68
g6
(g18
S'W\x85\xa18'
p5081
tp5082
Rp5083
tp5084
asg73
g32
sa(dp5085
g2
S'../../../data/emanuela/activity-recognition/images/NTCIR-Lifelog-256/u2/2015-04-26/b00004203_21i7lf_20150426_162039e.jpg'
p5086
sg4
(lp5087
(g32
g6
(g18
S'\x82\x88;?'
p5088
tp5089
Rp5090
tp5091
a(g15
g6
(g18
S'l\xb5\x83>'
p5092
tp5093
Rp5094
tp5095
a(g56
g6
(g18
S'\x89\x0fj;'
p5096
tp5097
Rp5098
tp5099
a(g44
g6
(g18
S'\xb1\x9d`;'
p5100
tp5101
Rp5102
tp5103
a(g162
g6
(g18
S'\xd1S[:'
p5104
tp5105
Rp5106
tp5107
asg73
g32
sa(dp5108
g2
S'../../../data/emanuela/activity-recognition/images/NTCIR-Lifelog-256/u2/2015-05-03/b00003881_21i7lf_20150503_154457e.jpg'
p5109
sg4
(lp5110
(g32
g6
(g18
S'\xb4O$?'
p5111
tp5112
Rp5113
tp5114
a(g96
g6
(g18
S'\xd7\x1e.>'
p5115
tp5116
Rp5117
tp5118
a(g108
g6
(g18
S'\xe5S\xd2='
p5119
tp5120
Rp5121
tp5122
a(g56
g6
(g18
S'\x94\x8bz='
p5123
tp5124
Rp5125
tp5126
a(g68
g6
(g18
S'\x0e\xc6~<'
p5127
tp5128
Rp5129
tp5130
asg73
g32
sa(dp5131
g2
S'../../../data/emanuela/activity-recognition/images/NTCIR-Lifelog-256/u2/2015-05-08/b00009010_21i7lf_20150508_124410e.jpg'
p5132
sg4
(lp5133
(g15
g6
(g18
S'\xaa\x11A?'
p5134
tp5135
Rp5136
tp5137
a(g32
g6
(g18
S'\x96&z>'
p5138
tp5139
Rp5140
tp5141
a(g44
g6
(g18
S'\xfcaV:'
p5142
tp5143
Rp5144
tp5145
a(g68
g6
(g18
S'B\x1d\x199'
p5146
tp5147
Rp5148
tp5149
a(g1821
g6
(g18
S'^}\xf98'
p5150
tp5151
Rp5152
tp5153
asg73
g32
sa(dp5154
g2
S'../../../data/emanuela/activity-recognition/images/NTCIR-Lifelog-256/u2/2015-05-03/b00003883_21i7lf_20150503_154645e.jpg'
p5155
sg4
(lp5156
(g96
g6
(g18
S'\xf6,B?'
p5157
tp5158
Rp5159
tp5160
a(g108
g6
(g18
S'\xfae\xbf='
p5161
tp5162
Rp5163
tp5164
a(g32
g6
(g18
S'\xa8\x0e\x97='
p5165
tp5166
Rp5167
tp5168
a(g317
g6
(g18
S'b6\x06='
p5169
tp5170
Rp5171
tp5172
a(g56
g6
(g18
S'\xe4\x86\xb8<'
p5173
tp5174
Rp5175
tp5176
asg73
g32
sa(dp5177
g2
S'../../../data/emanuela/activity-recognition/images/NTCIR-Lifelog-256/u2/2015-05-03/b00003917_21i7lf_20150503_160723e.jpg'
p5178
sg4
(lp5179
(g32
g6
(g18
S'\xb63\x1f?'
p5180
tp5181
Rp5182
tp5183
a(g56
g6
(g18
S'\xf1\x10K>'
p5184
tp5185
Rp5186
tp5187
a(g15
g6
(g18
S'\xe2\xfd\x8f='
p5188
tp5189
Rp5190
tp5191
a(g228
g6
(g18
S'\x16\x16\x1d='
p5192
tp5193
Rp5194
tp5195
a(g68
g6
(g18
S'\xa0\xf0\xe8<'
p5196
tp5197
Rp5198
tp5199
asg73
g32
sa(dp5200
g2
S'../../../data/emanuela/activity-recognition/images/NTCIR-Lifelog-256/u2/2015-05-03/b00003919_21i7lf_20150503_160839e.jpg'
p5201
sg4
(lp5202
(g15
g6
(g18
S'\xfb\xfe\xa6>'
p5203
tp5204
Rp5205
tp5206
a(g32
g6
(g18
S'\xf6H\x90>'
p5207
tp5208
Rp5209
tp5210
a(g56
g6
(g18
S'\x88s\x05>'
p5211
tp5212
Rp5213
tp5214
a(g228
g6
(g18
S'\xef"\xa4='
p5215
tp5216
Rp5217
tp5218
a(g204
g6
(g18
S'\x0ep\x98='
p5219
tp5220
Rp5221
tp5222
asg73
g32
sa(dp5223
g2
S'../../../data/emanuela/activity-recognition/images/NTCIR-Lifelog-256/u2/2015-04-26/b00004210_21i7lf_20150426_162609e.jpg'
p5224
sg4
(lp5225
(g32
g6
(g18
S'nYe?'
p5226
tp5227
Rp5228
tp5229
a(g15
g6
(g18
S'b%\x0f='
p5230
tp5231
Rp5232
tp5233
a(g56
g6
(g18
S'\xa7\xc1\xd1<'
p5234
tp5235
Rp5236
tp5237
a(g317
g6
(g18
S'>\xb9\x8c<'
p5238
tp5239
Rp5240
tp5241
a(g96
g6
(g18
S'&2\x14<'
p5242
tp5243
Rp5244
tp5245
asg73
g32
sa(dp5246
g2
S'../../../data/emanuela/activity-recognition/images/NTCIR-Lifelog-256/u2/2015-04-27/b00005393_21i7lf_20150427_132829e.jpg'
p5247
sg4
(lp5248
(g32
g6
(g18
S'?\xb3\xfe>'
p5249
tp5250
Rp5251
tp5252
a(g15
g6
(g18
S'i\x96\xf8>'
p5253
tp5254
Rp5255
tp5256
a(g56
g6
(g18
S'\x03\xab[<'
p5257
tp5258
Rp5259
tp5260
a(g68
g6
(g18
S'\xc7\xdb\xee:'
p5261
tp5262
Rp5263
tp5264
a(g44
g6
(g18
S'G\xc9\x06:'
p5265
tp5266
Rp5267
tp5268
asg73
g32
sa(dp5269
g2
S'../../../data/emanuela/activity-recognition/images/NTCIR-Lifelog-256/u2/2015-05-03/b00003818_21i7lf_20150503_150636e.jpg'
p5270
sg4
(lp5271
(g228
g6
(g18
S"w\x98'?"
p5272
tp5273
Rp5274
tp5275
a(g15
g6
(g18
S' \xa2\xf5='
p5276
tp5277
Rp5278
tp5279
a(g204
g6
(g18
S'\x8c/r='
p5280
tp5281
Rp5282
tp5283
a(g216
g6
(g18
S'\xc1\x8cp='
p5284
tp5285
Rp5286
tp5287
a(g317
g6
(g18
S'4\x85\xc6<'
p5288
tp5289
Rp5290
tp5291
asg73
g32
sa(dp5292
g2
S'../../../data/emanuela/activity-recognition/images/NTCIR-Lifelog-256/u2/2015-05-03/b00003879_21i7lf_20150503_154347e.jpg'
p5293
sg4
(lp5294
(g108
g6
(g18
S'\x01\xac\x1d?'
p5295
tp5296
Rp5297
tp5298
a(g96
g6
(g18
S'\x88\x17/>'
p5299
tp5300
Rp5301
tp5302
a(g317
g6
(g18
S'Bv\x9c='
p5303
tp5304
Rp5305
tp5306
a(g68
g6
(g18
S'N\xcc\xfd<'
p5307
tp5308
Rp5309
tp5310
a(g216
g6
(g18
S'\x1bS\xdc<'
p5311
tp5312
Rp5313
tp5314
asg73
g32
sa(dp5315
g2
S'../../../data/emanuela/activity-recognition/images/NTCIR-Lifelog-256/u2/2015-05-08/b00008999_21i7lf_20150508_123721e.jpg'
p5316
sg4
(lp5317
(g32
g6
(g18
S'\x1fQ7?'
p5318
tp5319
Rp5320
tp5321
a(g15
g6
(g18
S'.s\x8f>'
p5322
tp5323
Rp5324
tp5325
a(g44
g6
(g18
S'}Z\xc7:'
p5326
tp5327
Rp5328
tp5329
a(g56
g6
(g18
S'\xd2\xe5\xaa:'
p5330
tp5331
Rp5332
tp5333
a(g162
g6
(g18
S'\xb2\x8e\xa69'
p5334
tp5335
Rp5336
tp5337
asg73
g32
sa(dp5338
g2
S'../../../data/emanuela/activity-recognition/images/NTCIR-Lifelog-256/u2/2015-05-08/b00009003_21i7lf_20150508_123953e.jpg'
p5339
sg4
(lp5340
(g15
g6
(g18
S'=\xee\\?'
p5341
tp5342
Rp5343
tp5344
a(g32
g6
(g18
S'\x05\xfa\x0b>'
p5345
tp5346
Rp5347
tp5348
a(g56
g6
(g18
S'\xd8\xd7\xe48'
p5349
tp5350
Rp5351
tp5352
a(g44
g6
(g18
S'\x99Q\xad8'
p5353
tp5354
Rp5355
tp5356
a(g162
g6
(g18
S'\xa1\x88K8'
p5357
tp5358
Rp5359
tp5360
asg73
g32
sa(dp5361
g2
S'../../../data/emanuela/activity-recognition/images/NTCIR-Lifelog-256/u2/2015-05-03/b00003841_21i7lf_20150503_152037e.jpg'
p5362
sg4
(lp5363
(g228
g6
(g18
S'\xc8\xda\xa5>'
p5364
tp5365
Rp5366
tp5367
a(g15
g6
(g18
S'\x80\x8eF>'
p5368
tp5369
Rp5370
tp5371
a(g56
g6
(g18
S'\xee\xb5\x1e>'
p5372
tp5373
Rp5374
tp5375
a(g317
g6
(g18
S'\xef\xce\xa4='
p5376
tp5377
Rp5378
tp5379
a(g32
g6
(g18
S'\x9c(\x8a='
p5380
tp5381
Rp5382
tp5383
asg73
g32
sa(dp5384
g2
S'../../../data/emanuela/activity-recognition/images/NTCIR-Lifelog-256/u2/2015-05-07/b00007549_21i7lf_20150507_110743e.jpg'
p5385
sg4
(lp5386
(g32
g6
(g18
S'\xf6\xa4\x10?'
p5387
tp5388
Rp5389
tp5390
a(g15
g6
(g18
S'\x06kL>'
p5391
tp5392
Rp5393
tp5394
a(g44
g6
(g18
S'\x9a]\x1b>'
p5395
tp5396
Rp5397
tp5398
a(g68
g6
(g18
S'\x9d\xd1\xc7<'
p5399
tp5400
Rp5401
tp5402
a(g317
g6
(g18
S'8\xc7\x92<'
p5403
tp5404
Rp5405
tp5406
asg73
g32
sa(dp5407
g2
S'../../../data/emanuela/activity-recognition/images/NTCIR-Lifelog-256/u2/2015-04-30/b00001030_21i7lf_20150430_131713e.jpg'
p5408
sg4
(lp5409
(g15
g6
(g18
S'\xe4\xdf`?'
p5410
tp5411
Rp5412
tp5413
a(g32
g6
(g18
S'\xd6\xff\xf6='
p5414
tp5415
Rp5416
tp5417
a(g56
g6
(g18
S'\xcd\xb2<:'
p5418
tp5419
Rp5420
tp5421
a(g44
g6
(g18
S'6\xb2\\8'
p5422
tp5423
Rp5424
tp5425
a(g68
g6
(g18
S'\x8f\x1c?8'
p5426
tp5427
Rp5428
tp5429
asg73
g32
sa(dp5430
g2
S'../../../data/emanuela/activity-recognition/images/NTCIR-Lifelog-256/u2/2015-05-07/b00007529_21i7lf_20150507_105510e.jpg'
p5431
sg4
(lp5432
(g32
g6
(g18
S'qwl?'
p5433
tp5434
Rp5435
tp5436
a(g15
g6
(g18
S'>\\w='
p5437
tp5438
Rp5439
tp5440
a(g56
g6
(g18
S'\xc4\x89\xa9;'
p5441
tp5442
Rp5443
tp5444
a(g44
g6
(g18
S'\x08\x01\xa4;'
p5445
tp5446
Rp5447
tp5448
a(g68
g6
(g18
S'\xe1\xff\x8c;'
p5449
tp5450
Rp5451
tp5452
asg73
g32
sa(dp5453
g2
S'../../../data/emanuela/activity-recognition/images/NTCIR-Lifelog-256/u2/2015-05-07/b00007554_21i7lf_20150507_111034e.jpg'
p5454
sg4
(lp5455
(g32
g6
(g18
S'"\xce\x1d?'
p5456
tp5457
Rp5458
tp5459
a(g15
g6
(g18
S'\x8c\xccX>'
p5460
tp5461
Rp5462
tp5463
a(g68
g6
(g18
S'\xc2\xbc\xa0='
p5464
tp5465
Rp5466
tp5467
a(g44
g6
(g18
S'\x01_g='
p5468
tp5469
Rp5470
tp5471
a(g56
g6
(g18
S'\x86A\x82<'
p5472
tp5473
Rp5474
tp5475
asg73
g32
sa(dp5476
g2
S'../../../data/emanuela/activity-recognition/images/NTCIR-Lifelog-256/u2/2015-04-20/b00000292_21i7lf_20150420_123355e.jpg'
p5477
sg4
(lp5478
(g32
g6
(g18
S'\xe4/P?'
p5479
tp5480
Rp5481
tp5482
a(g68
g6
(g18
S'\xd0\xdf\x8f='
p5483
tp5484
Rp5485
tp5486
a(g15
g6
(g18
S'ng\x86='
p5487
tp5488
Rp5489
tp5490
a(g56
g6
(g18
S'Uf\x0e='
p5491
tp5492
Rp5493
tp5494
a(g44
g6
(g18
S'\x8e\xfeK<'
p5495
tp5496
Rp5497
tp5498
asg73
g32
sa(dp5499
g2
S'../../../data/emanuela/activity-recognition/images/NTCIR-Lifelog-256/u2/2015-05-08/b00008997_21i7lf_20150508_123559e.jpg'
p5500
sg4
(lp5501
(g15
g6
(g18
S'\xb4\xd8*?'
p5502
tp5503
Rp5504
tp5505
a(g32
g6
(g18
S'\x8e\xbd\xa9>'
p5506
tp5507
Rp5508
tp5509
a(g56
g6
(g18
S'D\xca\x11:'
p5510
tp5511
Rp5512
tp5513
a(g44
g6
(g18
S'\xaa}\x859'
p5514
tp5515
Rp5516
tp5517
a(g68
g6
(g18
S'~8\xc88'
p5518
tp5519
Rp5520
tp5521
asg73
g32
sa(dp5522
g2
S'../../../data/emanuela/activity-recognition/images/NTCIR-Lifelog-256/u2/2015-04-27/b00005397_21i7lf_20150427_133057e.jpg'
p5523
sg4
(lp5524
(g15
g6
(g18
S'\x86S\x13?'
p5525
tp5526
Rp5527
tp5528
a(g1967
g6
(g18
S'\x8b\xc7V>'
p5529
tp5530
Rp5531
tp5532
a(g1821
g6
(g18
S'G\xf7\x9d='
p5533
tp5534
Rp5535
tp5536
a(g32
g6
(g18
S'\x00\xa1\x8a='
p5537
tp5538
Rp5539
tp5540
a(g216
g6
(g18
S'\xe3K\xa9<'
p5541
tp5542
Rp5543
tp5544
asg73
g32
sa(dp5545
g2
S'../../../data/emanuela/activity-recognition/images/NTCIR-Lifelog-256/u2/2015-05-03/b00003889_21i7lf_20150503_155031e.jpg'
p5546
sg4
(lp5547
(g15
g6
(g18
S'\x89\xa3\xd5>'
p5548
tp5549
Rp5550
tp5551
a(g282
g6
(g18
S'\xf1\xf4\x84>'
p5552
tp5553
Rp5554
tp5555
a(g32
g6
(g18
S'\x9d+\x97='
p5556
tp5557
Rp5558
tp5559
a(g56
g6
(g18
S'\xd3\x9b\x89='
p5560
tp5561
Rp5562
tp5563
a(g228
g6
(g18
S'\x9a\xc5\xf0<'
p5564
tp5565
Rp5566
tp5567
asg73
g32
sa(dp5568
g2
S'../../../data/emanuela/activity-recognition/images/NTCIR-Lifelog-256/u2/2015-05-06/b00006602_21i7lf_20150506_122801e.jpg'
p5569
sg4
(lp5570
(g15
g6
(g18
S'N\x83"?'
p5571
tp5572
Rp5573
tp5574
a(g32
g6
(g18
S'.\xea\xb8>'
p5575
tp5576
Rp5577
tp5578
a(g68
g6
(g18
S'\x15l\x16;'
p5579
tp5580
Rp5581
tp5582
a(g56
g6
(g18
S'\x1f\x17\xba:'
p5583
tp5584
Rp5585
tp5586
a(g44
g6
(g18
S'\xfd\xac\x1c9'
p5587
tp5588
Rp5589
tp5590
asg73
g32
sa(dp5591
g2
S'../../../data/emanuela/activity-recognition/images/NTCIR-Lifelog-256/u2/2015-05-05/b00005341_21i7lf_20150505_121333e.jpg'
p5592
sg4
(lp5593
(g15
g6
(g18
S'\x93\x9fb?'
p5594
tp5595
Rp5596
tp5597
a(g32
g6
(g18
S'\xd6\xa8\xe5='
p5598
tp5599
Rp5600
tp5601
a(g56
g6
(g18
S'\xff\x92\xee:'
p5602
tp5603
Rp5604
tp5605
a(g68
g6
(g18
S'\xac\xd7\x999'
p5606
tp5607
Rp5608
tp5609
a(g204
g6
(g18
S'\xf7\x0f\xcd8'
p5610
tp5611
Rp5612
tp5613
asg73
g32
sa(dp5614
g2
S'../../../data/emanuela/activity-recognition/images/NTCIR-Lifelog-256/u2/2015-04-26/b00004204_21i7lf_20150426_162113e.jpg'
p5615
sg4
(lp5616
(g15
g6
(g18
S'\xaf\x9eV?'
p5617
tp5618
Rp5619
tp5620
a(g32
g6
(g18
S'\xf1\xc3\xbd='
p5621
tp5622
Rp5623
tp5624
a(g228
g6
(g18
S'B\x8f\xb3<'
p5625
tp5626
Rp5627
tp5628
a(g56
g6
(g18
S'A\xeb[<'
p5629
tp5630
Rp5631
tp5632
a(g204
g6
(g18
S'|-\x0e<'
p5633
tp5634
Rp5635
tp5636
asg73
g32
sa(dp5637
g2
S'../../../data/emanuela/activity-recognition/images/NTCIR-Lifelog-256/u2/2015-04-28/b00006667_21i7lf_20150428_124306e.jpg'
p5638
sg4
(lp5639
(g15
g6
(g18
S'\x9ex\x18?'
p5640
tp5641
Rp5642
tp5643
a(g32
g6
(g18
S'\xed\x12\xce>'
p5644
tp5645
Rp5646
tp5647
a(g56
g6
(g18
S'\xf9\x10\x9c:'
p5648
tp5649
Rp5650
tp5651
a(g44
g6
(g18
S'\xa2\xb5\x999'
p5652
tp5653
Rp5654
tp5655
a(g68
g6
(g18
S'\xdf\xed!9'
p5656
tp5657
Rp5658
tp5659
asg73
g32
sa(dp5660
g2
S'../../../data/emanuela/activity-recognition/images/NTCIR-Lifelog-256/u2/2015-04-30/b00001034_21i7lf_20150430_131937e.jpg'
p5661
sg4
(lp5662
(g15
g6
(g18
S'\xb6\x1e)?'
p5663
tp5664
Rp5665
tp5666
a(g32
g6
(g18
S'\xf5f\xac>'
p5667
tp5668
Rp5669
tp5670
a(g56
g6
(g18
S'\xdat\xdc:'
p5671
tp5672
Rp5673
tp5674
a(g96
g6
(g18
S'= \xdd9'
p5675
tp5676
Rp5677
tp5678
a(g108
g6
(g18
S'3n69'
p5679
tp5680
Rp5681
tp5682
asg73
g32
sa(dp5683
g2
S'../../../data/emanuela/activity-recognition/images/NTCIR-Lifelog-256/u2/2015-04-30/b00001022_21i7lf_20150430_131233e.jpg'
p5684
sg4
(lp5685
(g32
g6
(g18
S'qmB?'
p5686
tp5687
Rp5688
tp5689
a(g15
g6
(g18
S'\x97\xd6u>'
p5690
tp5691
Rp5692
tp5693
a(g56
g6
(g18
S'\xae\x0e\x829'
p5694
tp5695
Rp5696
tp5697
a(g162
g6
(g18
S"2'T8"
p5698
tp5699
Rp5700
tp5701
a(g68
g6
(g18
S'*\x17,8'
p5702
tp5703
Rp5704
tp5705
asg73
g32
sa(dp5706
g2
S'../../../data/emanuela/activity-recognition/images/NTCIR-Lifelog-256/u2/2015-05-01/b00002119_21i7lf_20150501_123513e.jpg'
p5707
sg4
(lp5708
(g32
g6
(g18
S'\xf56m?'
p5709
tp5710
Rp5711
tp5712
a(g15
g6
(g18
S'\xb5\x0f\x94='
p5713
tp5714
Rp5715
tp5716
a(g56
g6
(g18
S'!\xd8\x04:'
p5717
tp5718
Rp5719
tp5720
a(g44
g6
(g18
S'V%\x909'
p5721
tp5722
Rp5723
tp5724
a(g68
g6
(g18
S'\xd7\xf1F9'
p5725
tp5726
Rp5727
tp5728
asg73
g32
sa(dp5729
g2
S'../../../data/emanuela/activity-recognition/images/NTCIR-Lifelog-256/u2/2015-05-03/b00003871_21i7lf_20150503_153851e.jpg'
p5730
sg4
(lp5731
(g32
g6
(g18
S'\x82ah?'
p5732
tp5733
Rp5734
tp5735
a(g15
g6
(g18
S'\x0c\r\xbb='
p5736
tp5737
Rp5738
tp5739
a(g56
g6
(g18
S'\xacH\x19:'
p5740
tp5741
Rp5742
tp5743
a(g44
g6
(g18
S'A\x02:9'
p5744
tp5745
Rp5746
tp5747
a(g68
g6
(g18
S';_\x8a8'
p5748
tp5749
Rp5750
tp5751
asg73
g32
sa(dp5752
g2
S'../../../data/emanuela/activity-recognition/images/NTCIR-Lifelog-256/u2/2015-05-01/b00002613_21i7lf_20150501_183510e.jpg'
p5753
sg4
(lp5754
(g15
g6
(g18
S'\xe6\xd4H?'
p5755
tp5756
Rp5757
tp5758
a(g204
g6
(g18
S'H\xa6r='
p5759
tp5760
Rp5761
tp5762
a(g216
g6
(g18
S'r\xf3(='
p5763
tp5764
Rp5765
tp5766
a(g228
g6
(g18
S'^\xd7\r='
p5767
tp5768
Rp5769
tp5770
a(g32
g6
(g18
S'\x15#\xd3<'
p5771
tp5772
Rp5773
tp5774
asg73
g32
sa(dp5775
g2
S'../../../data/emanuela/activity-recognition/images/NTCIR-Lifelog-256/u2/2015-05-05/b00005340_21i7lf_20150505_121258e.jpg'
p5776
sg4
(lp5777
(g32
g6
(g18
S'\x0eGK?'
p5778
tp5779
Rp5780
tp5781
a(g15
g6
(g18
S'\x9aIQ>'
p5782
tp5783
Rp5784
tp5785
a(g56
g6
(g18
S',\xc8\x0e:'
p5786
tp5787
Rp5788
tp5789
a(g68
g6
(g18
S'!/\x999'
p5790
tp5791
Rp5792
tp5793
a(g282
g6
(g18
S'\xa1V?9'
p5794
tp5795
Rp5796
tp5797
asg73
g32
sa(dp5798
g2
S'../../../data/emanuela/activity-recognition/images/NTCIR-Lifelog-256/u2/2015-04-23/b00001068_21i7lf_20150423_123126e.jpg'
p5799
sg4
(lp5800
(g32
g6
(g18
S'G\x9dj?'
p5801
tp5802
Rp5803
tp5804
a(g68
g6
(g18
S'Bg\x01='
p5805
tp5806
Rp5807
tp5808
a(g96
g6
(g18
S'\xa3\xd9\xaa<'
p5809
tp5810
Rp5811
tp5812
a(g56
g6
(g18
S'\x9c\xae\x9b<'
p5813
tp5814
Rp5815
tp5816
a(g108
g6
(g18
S'\xf2)\xc8;'
p5817
tp5818
Rp5819
tp5820
asg73
g32
sa(dp5821
g2
S'../../../data/emanuela/activity-recognition/images/NTCIR-Lifelog-256/u2/2015-04-26/b00004230_21i7lf_20150426_164130e.jpg'
p5822
sg4
(lp5823
(g317
g6
(g18
S'ck\x04?'
p5824
tp5825
Rp5826
tp5827
a(g56
g6
(g18
S'\xf4m\xad='
p5828
tp5829
Rp5830
tp5831
a(g32
g6
(g18
S'\r\xbb\xa4='
p5832
tp5833
Rp5834
tp5835
a(g68
g6
(g18
S'\xaa8\x90='
p5836
tp5837
Rp5838
tp5839
a(g96
g6
(g18
S'\xbb\xb64='
p5840
tp5841
Rp5842
tp5843
asg73
g32
sa(dp5844
g2
S'../../../data/emanuela/activity-recognition/images/NTCIR-Lifelog-256/u2/2015-04-28/b00006665_21i7lf_20150428_124148e.jpg'
p5845
sg4
(lp5846
(g32
g6
(g18
S'\xb2 \x03?'
p5847
tp5848
Rp5849
tp5850
a(g15
g6
(g18
S'f6\xf9>'
p5851
tp5852
Rp5853
tp5854
a(g56
g6
(g18
S'&x\xcf9'
p5855
tp5856
Rp5857
tp5858
a(g44
g6
(g18
S'3\xce\x959'
p5859
tp5860
Rp5861
tp5862
a(g68
g6
(g18
S'1\x07\x1c9'
p5863
tp5864
Rp5865
tp5866
asg73
g32
sa(dp5867
g2
S'../../../data/emanuela/activity-recognition/images/NTCIR-Lifelog-256/u2/2015-05-03/b00003816_21i7lf_20150503_150530e.jpg'
p5868
sg4
(lp5869
(g56
g6
(g18
S'\x91\x1b\xee>'
p5870
tp5871
Rp5872
tp5873
a(g15
g6
(g18
S'\xc9\xe1\xba>'
p5874
tp5875
Rp5876
tp5877
a(g228
g6
(g18
S'\xc0\xc1f='
p5878
tp5879
Rp5880
tp5881
a(g371
g6
(g18
S'\xc3^\x01='
p5882
tp5883
Rp5884
tp5885
a(g32
g6
(g18
S'\x91\xff\xc6<'
p5886
tp5887
Rp5888
tp5889
asg73
g32
sa(dp5890
g2
S'../../../data/emanuela/activity-recognition/images/NTCIR-Lifelog-256/u2/2015-04-27/b00005396_21i7lf_20150427_133022e.jpg'
p5891
sg4
(lp5892
(g32
g6
(g18
S'\x92\xa5\x01?'
p5893
tp5894
Rp5895
tp5896
a(g15
g6
(g18
S'\xb0n\xfc>'
p5897
tp5898
Rp5899
tp5900
a(g56
g6
(g18
S'?9\x8f9'
p5901
tp5902
Rp5903
tp5904
a(g68
g6
(g18
S'\x8fb\x988'
p5905
tp5906
Rp5907
tp5908
a(g44
g6
(g18
S"'wi8"
p5909
tp5910
Rp5911
tp5912
asg73
g32
sa(dp5913
g2
S'../../../data/emanuela/activity-recognition/images/NTCIR-Lifelog-256/u2/2015-04-28/b00006655_21i7lf_20150428_123538e.jpg'
p5914
sg4
(lp5915
(g32
g6
(g18
S'\xa4\x8d\x07?'
p5916
tp5917
Rp5918
tp5919
a(g15
g6
(g18
S'\x9e\xbf\xf0>'
p5920
tp5921
Rp5922
tp5923
a(g44
g6
(g18
S'w3\xd58'
p5924
tp5925
Rp5926
tp5927
a(g56
g6
(g18
S'\xceZ\x978'
p5928
tp5929
Rp5930
tp5931
a(g68
g6
(g18
S'j\x80\x8d8'
p5932
tp5933
Rp5934
tp5935
asg73
g32
sa(dp5936
g2
S'../../../data/emanuela/activity-recognition/images/NTCIR-Lifelog-256/u2/2015-05-03/b00003832_21i7lf_20150503_151512e.jpg'
p5937
sg4
(lp5938
(g15
g6
(g18
S'\xd9R\x12?'
p5939
tp5940
Rp5941
tp5942
a(g228
g6
(g18
S'\x15#\xd4='
p5943
tp5944
Rp5945
tp5946
a(g32
g6
(g18
S'rQ\xc3='
p5947
tp5948
Rp5949
tp5950
a(g56
g6
(g18
S'"\xa8\x80='
p5951
tp5952
Rp5953
tp5954
a(g44
g6
(g18
S'\x11\re='
p5955
tp5956
Rp5957
tp5958
asg73
g32
sa(dp5959
g2
S'../../../data/emanuela/activity-recognition/images/NTCIR-Lifelog-256/u2/2015-04-28/b00006654_21i7lf_20150428_123459e.jpg'
p5960
sg4
(lp5961
(g15
g6
(g18
S'\xf4Bn?'
p5962
tp5963
Rp5964
tp5965
a(g32
g6
(g18
S'\x04D\x8d='
p5966
tp5967
Rp5968
tp5969
a(g56
g6
(g18
S'X\x98/9'
p5970
tp5971
Rp5972
tp5973
a(g44
g6
(g18
S'\x01\x82\x8b8'
p5974
tp5975
Rp5976
tp5977
a(g204
g6
(g18
S'\xb6\xfd\x8f7'
p5978
tp5979
Rp5980
tp5981
asg73
g32
sa(dp5982
g2
S'../../../data/emanuela/activity-recognition/images/NTCIR-Lifelog-256/u2/2015-05-01/b00002122_21i7lf_20150501_123704e (1).jpg'
p5983
sg4
(lp5984
(g32
g6
(g18
S'[W\x14?'
p5985
tp5986
Rp5987
tp5988
a(g15
g6
(g18
S'\x0b\xc7\xd1>'
p5989
tp5990
Rp5991
tp5992
a(g56
g6
(g18
S"\x8c\xaa'<"
p5993
tp5994
Rp5995
tp5996
a(g44
g6
(g18
S'\x80\x9f\xee8'
p5997
tp5998
Rp5999
tp6000
a(g108
g6
(g18
S'J1\xad8'
p6001
tp6002
Rp6003
tp6004
asg73
g32
sa(dp6005
g2
S'../../../data/emanuela/activity-recognition/images/NTCIR-Lifelog-256/u2/2015-05-08/b00009021_21i7lf_20150508_125104e.jpg'
p6006
sg4
(lp6007
(g15
g6
(g18
S'\xc9\x88N?'
p6008
tp6009
Rp6010
tp6011
a(g32
g6
(g18
S'\xb8\xcaD>'
p6012
tp6013
Rp6014
tp6015
a(g56
g6
(g18
S'\x0e_<:'
p6016
tp6017
Rp6018
tp6019
a(g68
g6
(g18
S'\xd8\xe2\xdf8'
p6020
tp6021
Rp6022
tp6023
a(g44
g6
(g18
S'T=\xa18'
p6024
tp6025
Rp6026
tp6027
asg73
g32
sa(dp6028
g2
S'../../../data/emanuela/activity-recognition/images/NTCIR-Lifelog-256/u2/2015-05-01/b00002124_21i7lf_20150501_123824e.jpg'
p6029
sg4
(lp6030
(g32
g6
(g18
S'\xe1\xe64?'
p6031
tp6032
Rp6033
tp6034
a(g15
g6
(g18
S'\xd4\xd5\x94>'
p6035
tp6036
Rp6037
tp6038
a(g56
g6
(g18
S'\x8b$\x17;'
p6039
tp6040
Rp6041
tp6042
a(g68
g6
(g18
S'\xe0c\x049'
p6043
tp6044
Rp6045
tp6046
a(g96
g6
(g18
S'\xd1\xbd[8'
p6047
tp6048
Rp6049
tp6050
asg73
g32
sa(dp6051
g2
S'../../../data/emanuela/activity-recognition/images/NTCIR-Lifelog-256/u2/2015-04-30/b00001023_21i7lf_20150430_131310e.jpg'
p6052
sg4
(lp6053
(g15
g6
(g18
S'\xc2\xd6\x14?'
p6054
tp6055
Rp6056
tp6057
a(g32
g6
(g18
S'\xee\xae\xd4>'
p6058
tp6059
Rp6060
tp6061
a(g56
g6
(g18
S';\x9e\xf7:'
p6062
tp6063
Rp6064
tp6065
a(g44
g6
(g18
S'kt\xc09'
p6066
tp6067
Rp6068
tp6069
a(g68
g6
(g18
S'\x9b\xb5\x849'
p6070
tp6071
Rp6072
tp6073
asg73
g32
sa(dp6074
g2
S'../../../data/emanuela/activity-recognition/images/NTCIR-Lifelog-256/u2/2015-05-01/b00002606_21i7lf_20150501_183057e.jpg'
p6075
sg4
(lp6076
(g15
g6
(g18
S'5\x86X?'
p6077
tp6078
Rp6079
tp6080
a(g282
g6
(g18
S'\x13\x01L='
p6081
tp6082
Rp6083
tp6084
a(g216
g6
(g18
S'\x1a\x81)='
p6085
tp6086
Rp6087
tp6088
a(g1821
g6
(g18
S'\\\x0eL<'
p6089
tp6090
Rp6091
tp6092
a(g204
g6
(g18
S'\xa1\x99\x13<'
p6093
tp6094
Rp6095
tp6096
asg73
g32
sa(dp6097
g2
S'../../../data/emanuela/activity-recognition/images/NTCIR-Lifelog-256/u2/2015-05-03/b00003860_21i7lf_20150503_153208e.jpg'
p6098
sg4
(lp6099
(g317
g6
(g18
S'\xfe\xa5?>'
p6100
tp6101
Rp6102
tp6103
a(g15
g6
(g18
S'\xe5\x8d\x0f>'
p6104
tp6105
Rp6106
tp6107
a(g228
g6
(g18
S'b\x06\x05>'
p6108
tp6109
Rp6110
tp6111
a(g32
g6
(g18
S'\xeb\xa4\xfd='
p6112
tp6113
Rp6114
tp6115
a(g216
g6
(g18
S'\x01\x19\xfc='
p6116
tp6117
Rp6118
tp6119
asg73
g32
sa(dp6120
g2
S'../../../data/emanuela/activity-recognition/images/NTCIR-Lifelog-256/u2/2015-05-07/b00007523_21i7lf_20150507_105144e.jpg'
p6121
sg4
(lp6122
(g32
g6
(g18
S'\x9ftX?'
p6123
tp6124
Rp6125
tp6126
a(g15
g6
(g18
S'\x00\xc6\xd6='
p6127
tp6128
Rp6129
tp6130
a(g44
g6
(g18
S'\x02!\xb8<'
p6131
tp6132
Rp6133
tp6134
a(g68
g6
(g18
S'\xc4#Y<'
p6135
tp6136
Rp6137
tp6138
a(g56
g6
(g18
S'g\xf3\xd9;'
p6139
tp6140
Rp6141
tp6142
asg73
g32
sa(dp6143
g2
S'../../../data/emanuela/activity-recognition/images/NTCIR-Lifelog-256/u2/2015-05-03/b00003829_21i7lf_20150503_151325e.jpg'
p6144
sg4
(lp6145
(g56
g6
(g18
S'p\x11\t?'
p6146
tp6147
Rp6148
tp6149
a(g228
g6
(g18
S'\xb2\xf6\x05>'
p6150
tp6151
Rp6152
tp6153
a(g68
g6
(g18
S'\xf0\x17_='
p6154
tp6155
Rp6156
tp6157
a(g32
g6
(g18
S'VsN='
p6158
tp6159
Rp6160
tp6161
a(g15
g6
(g18
S'w@9='
p6162
tp6163
Rp6164
tp6165
asg73
g32
sa(dp6166
g2
S'../../../data/emanuela/activity-recognition/images/NTCIR-Lifelog-256/u2/2015-05-05/b00005339_21i7lf_20150505_121219e.jpg'
p6167
sg4
(lp6168
(g15
g6
(g18
S'(12?'
p6169
tp6170
Rp6171
tp6172
a(g32
g6
(g18
S'07\x9b>'
p6173
tp6174
Rp6175
tp6176
a(g56
g6
(g18
S'\x16\xb199'
p6177
tp6178
Rp6179
tp6180
a(g96
g6
(g18
S'\xd0\xbf\xdd8'
p6181
tp6182
Rp6183
tp6184
a(g44
g6
(g18
S'\xd6W\xac8'
p6185
tp6186
Rp6187
tp6188
asg73
g32
sa(dp6189
g2
S'../../../data/emanuela/activity-recognition/images/NTCIR-Lifelog-256/u2/2015-04-30/b00001025_21i7lf_20150430_131422e.jpg'
p6190
sg4
(lp6191
(g15
g6
(g18
S'Z\x9b=?'
p6192
tp6193
Rp6194
tp6195
a(g32
g6
(g18
S'\xb0J\x83>'
p6196
tp6197
Rp6198
tp6199
a(g56
g6
(g18
S'\xf2\x1b\x8f:'
p6200
tp6201
Rp6202
tp6203
a(g44
g6
(g18
S'y\xd3q:'
p6204
tp6205
Rp6206
tp6207
a(g216
g6
(g18
S'V#\x9a9'
p6208
tp6209
Rp6210
tp6211
asg73
g32
sa(dp6212
g2
S'../../../data/emanuela/activity-recognition/images/NTCIR-Lifelog-256/u2/2015-05-01/b00002129_21i7lf_20150501_124125e.jpg'
p6213
sg4
(lp6214
(g15
g6
(g18
S'>\xc3+?'
p6215
tp6216
Rp6217
tp6218
a(g32
g6
(g18
S'\x06\xc1\x8d>'
p6219
tp6220
Rp6221
tp6222
a(g56
g6
(g18
S'r\xb2)='
p6223
tp6224
Rp6225
tp6226
a(g68
g6
(g18
S'\xfc\xfd\x07;'
p6227
tp6228
Rp6229
tp6230
a(g282
g6
(g18
S'\xfb\xe8\x01;'
p6231
tp6232
Rp6233
tp6234
asg73
g32
sa(dp6235
g2
S'../../../data/emanuela/activity-recognition/images/NTCIR-Lifelog-256/u2/2015-05-03/b00003835_21i7lf_20150503_151705e.jpg'
p6236
sg4
(lp6237
(g15
g6
(g18
S'\xab:9?'
p6238
tp6239
Rp6240
tp6241
a(g56
g6
(g18
S'\x9c\xb0\x9b='
p6242
tp6243
Rp6244
tp6245
a(g228
g6
(g18
S'\x96\xa0\x81='
p6246
tp6247
Rp6248
tp6249
a(g204
g6
(g18
S'"\x15e='
p6250
tp6251
Rp6252
tp6253
a(g32
g6
(g18
S'z\x1a,='
p6254
tp6255
Rp6256
tp6257
asg73
g32
sa(dp6258
g2
S'../../../data/emanuela/activity-recognition/images/NTCIR-Lifelog-256/u2/2015-05-03/b00003884_21i7lf_20150503_154724e.jpg'
p6259
sg4
(lp6260
(g32
g6
(g18
S'\xc2k\x02?'
p6261
tp6262
Rp6263
tp6264
a(g15
g6
(g18
S'A\x12\xa5>'
p6265
tp6266
Rp6267
tp6268
a(g228
g6
(g18
S'\xc6\x05=='
p6269
tp6270
Rp6271
tp6272
a(g56
g6
(g18
S'73\x10='
p6273
tp6274
Rp6275
tp6276
a(g96
g6
(g18
S'Y\x94\xac<'
p6277
tp6278
Rp6279
tp6280
asg73
g32
sa(dp6281
g2
S'../../../data/emanuela/activity-recognition/images/NTCIR-Lifelog-256/u2/2015-05-07/b00007541_21i7lf_20150507_110250e.jpg'
p6282
sg4
(lp6283
(g32
g6
(g18
S'\x1f\xcd\x10?'
p6284
tp6285
Rp6286
tp6287
a(g44
g6
(g18
S'o\x8c\xb6>'
p6288
tp6289
Rp6290
tp6291
a(g15
g6
(g18
S'\xf2A\x8b='
p6292
tp6293
Rp6294
tp6295
a(g56
g6
(g18
S'r\x91\xa3;'
p6296
tp6297
Rp6298
tp6299
a(g68
g6
(g18
S'\x1f\x82\x0f;'
p6300
tp6301
Rp6302
tp6303
asg73
g32
sa(dp6304
g2
S'../../../data/emanuela/activity-recognition/images/NTCIR-Lifelog-256/u2/2015-05-05/b00005338_21i7lf_20150505_121142e.jpg'
p6305
sg4
(lp6306
(g32
g6
(g18
S'Ct`?'
p6307
tp6308
Rp6309
tp6310
a(g15
g6
(g18
S'vQ\xf7='
p6311
tp6312
Rp6313
tp6314
a(g96
g6
(g18
S'+)\x19:'
p6315
tp6316
Rp6317
tp6318
a(g56
g6
(g18
S'c\x8a\x0b:'
p6319
tp6320
Rp6321
tp6322
a(g108
g6
(g18
S'\xe6=\xb89'
p6323
tp6324
Rp6325
tp6326
asg73
g32
sa(dp6327
g2
S'../../../data/emanuela/activity-recognition/images/NTCIR-Lifelog-256/u2/2015-05-02/b00003279_21i7lf_20150502_143947e.jpg'
p6328
sg4
(lp6329
(g56
g6
(g18
S'\x14\x94\xfe>'
p6330
tp6331
Rp6332
tp6333
a(g15
g6
(g18
S'\xc7"\x00>'
p6334
tp6335
Rp6336
tp6337
a(g32
g6
(g18
S'\xe9\x01\x9c='
p6338
tp6339
Rp6340
tp6341
a(g68
g6
(g18
S'H\xc7\x87='
p6342
tp6343
Rp6344
tp6345
a(g216
g6
(g18
S'\xf9\xa7k='
p6346
tp6347
Rp6348
tp6349
asg73
g32
sa(dp6350
g2
S'../../../data/emanuela/activity-recognition/images/NTCIR-Lifelog-256/u2/2015-05-01/b00002117_21i7lf_20150501_123403e.jpg'
p6351
sg4
(lp6352
(g32
g6
(g18
S']ga?'
p6353
tp6354
Rp6355
tp6356
a(g15
g6
(g18
S'"\xaf\xf2='
p6357
tp6358
Rp6359
tp6360
a(g44
g6
(g18
S';m\x06:'
p6361
tp6362
Rp6363
tp6364
a(g56
g6
(g18
S'9\x1d\xbb9'
p6365
tp6366
Rp6367
tp6368
a(g68
g6
(g18
S'\xd8\xa1\x998'
p6369
tp6370
Rp6371
tp6372
asg73
g32
sa(dp6373
g2
S'../../../data/emanuela/activity-recognition/images/NTCIR-Lifelog-256/u2/2015-05-03/b00003898_21i7lf_20150503_155548e.jpg'
p6374
sg4
(lp6375
(g15
g6
(g18
S'!\x93\x1e?'
p6376
tp6377
Rp6378
tp6379
a(g32
g6
(g18
S'm?6>'
p6380
tp6381
Rp6382
tp6383
a(g56
g6
(g18
S'\x86c\xdd='
p6384
tp6385
Rp6386
tp6387
a(g228
g6
(g18
S'9m\x18='
p6388
tp6389
Rp6390
tp6391
a(g44
g6
(g18
S'\xfdYa<'
p6392
tp6393
Rp6394
tp6395
asg73
g32
sa(dp6396
g2
S'../../../data/emanuela/activity-recognition/images/NTCIR-Lifelog-256/u2/2015-04-28/b00006659_21i7lf_20150428_123810e.jpg'
p6397
sg4
(lp6398
(g32
g6
(g18
S'\xfcj\x18?'
p6399
tp6400
Rp6401
tp6402
a(g15
g6
(g18
S'(\x17\xcf>'
p6403
tp6404
Rp6405
tp6406
a(g56
g6
(g18
S'\xe5\xc0\xa08'
p6407
tp6408
Rp6409
tp6410
a(g44
g6
(g18
S'\xdd\xebN8'
p6411
tp6412
Rp6413
tp6414
a(g68
g6
(g18
S'k\x1b27'
p6415
tp6416
Rp6417
tp6418
asg73
g32
sa(dp6419
g2
S'../../../data/emanuela/activity-recognition/images/NTCIR-Lifelog-256/u2/2015-05-03/b00003918_21i7lf_20150503_160758e.jpg'
p6420
sg4
(lp6421
(g56
g6
(g18
S'\x1e\xe8\xe6>'
p6422
tp6423
Rp6424
tp6425
a(g32
g6
(g18
S'M\xc8\xc8>'
p6426
tp6427
Rp6428
tp6429
a(g96
g6
(g18
S'\xe3\xbd~='
p6430
tp6431
Rp6432
tp6433
a(g317
g6
(g18
S'\x1bU\x9a<'
p6434
tp6435
Rp6436
tp6437
a(g15
g6
(g18
S'zB\x9a<'
p6438
tp6439
Rp6440
tp6441
asg73
g32
sa(dp6442
g2
S'../../../data/emanuela/activity-recognition/images/NTCIR-Lifelog-256/u2/2015-05-05/b00005333_21i7lf_20150505_120839e.jpg'
p6443
sg4
(lp6444
(g32
g6
(g18
S'|{5?'
p6445
tp6446
Rp6447
tp6448
a(g15
g6
(g18
S'\xbc.\x94>'
p6449
tp6450
Rp6451
tp6452
a(g56
g6
(g18
S'\xf4s\x17:'
p6453
tp6454
Rp6455
tp6456
a(g68
g6
(g18
S'U,\xf29'
p6457
tp6458
Rp6459
tp6460
a(g44
g6
(g18
S'm\xae$9'
p6461
tp6462
Rp6463
tp6464
asg73
g32
sa(dp6465
g2
S'../../../data/emanuela/activity-recognition/images/NTCIR-Lifelog-256/u2/2015-05-03/b00003867_21i7lf_20150503_153617e.jpg'
p6466
sg4
(lp6467
(g32
g6
(g18
S"y\x05'?"
p6468
tp6469
Rp6470
tp6471
a(g15
g6
(g18
S'{\xf1\xa9>'
p6472
tp6473
Rp6474
tp6475
a(g56
g6
(g18
S'}_]<'
p6476
tp6477
Rp6478
tp6479
a(g44
g6
(g18
S'\xe88\xaa:'
p6480
tp6481
Rp6482
tp6483
a(g68
g6
(g18
S'm\xab\x9f9'
p6484
tp6485
Rp6486
tp6487
asg73
g32
sa(dp6488
g2
S'../../../data/emanuela/activity-recognition/images/NTCIR-Lifelog-256/u2/2015-05-07/b00007540_21i7lf_20150507_110210e.jpg'
p6489
sg4
(lp6490
(g56
g6
(g18
S'\xc5\xec\xe5>'
p6491
tp6492
Rp6493
tp6494
a(g44
g6
(g18
S'\xe9T2>'
p6495
tp6496
Rp6497
tp6498
a(g317
g6
(g18
S'\xc1G\xc3='
p6499
tp6500
Rp6501
tp6502
a(g68
g6
(g18
S'zD\xc3='
p6503
tp6504
Rp6505
tp6506
a(g32
g6
(g18
S'\xde0n='
p6507
tp6508
Rp6509
tp6510
asg73
g32
sa(dp6511
g2
S'../../../data/emanuela/activity-recognition/images/NTCIR-Lifelog-256/u2/2015-05-08/b00009022_21i7lf_20150508_125140e.jpg'
p6512
sg4
(lp6513
(g15
g6
(g18
S'\x06?x?'
p6514
tp6515
Rp6516
tp6517
a(g32
g6
(g18
S'\xef\x98\xee<'
p6518
tp6519
Rp6520
tp6521
a(g56
g6
(g18
S'$\xa6\x9e9'
p6522
tp6523
Rp6524
tp6525
a(g228
g6
(g18
S'\x95F19'
p6526
tp6527
Rp6528
tp6529
a(g282
g6
(g18
S'\x8bZ\x089'
p6530
tp6531
Rp6532
tp6533
asg73
g32
sa(dp6534
g2
S'../../../data/emanuela/activity-recognition/images/NTCIR-Lifelog-256/u2/2015-04-27/b00005390_21i7lf_20150427_132642e.jpg'
p6535
sg4
(lp6536
(g32
g6
(g18
S'\xef*\x13?'
p6537
tp6538
Rp6539
tp6540
a(g15
g6
(g18
S'\xb3\x82\xd4>'
p6541
tp6542
Rp6543
tp6544
a(g56
g6
(g18
S'\xd2\x16\xe4;'
p6545
tp6546
Rp6547
tp6548
a(g68
g6
(g18
S' \x80\x9d:'
p6549
tp6550
Rp6551
tp6552
a(g44
g6
(g18
S'^l\x0b:'
p6553
tp6554
Rp6555
tp6556
asg73
g32
sa(dp6557
g2
S'../../../data/emanuela/activity-recognition/images/NTCIR-Lifelog-256/u2/2015-05-08/b00009023_21i7lf_20150508_125219e.jpg'
p6558
sg4
(lp6559
(g15
g6
(g18
S'\x88\x84\x7f?'
p6560
tp6561
Rp6562
tp6563
a(g32
g6
(g18
S'\x99\x18\xd0:'
p6564
tp6565
Rp6566
tp6567
a(g228
g6
(g18
S'y\x7f\xf78'
p6568
tp6569
Rp6570
tp6571
a(g1821
g6
(g18
S'f\xe0\xd18'
p6572
tp6573
Rp6574
tp6575
a(g56
g6
(g18
S'm*\xc67'
p6576
tp6577
Rp6578
tp6579
asg73
g32
sa(dp6580
g2
S'../../../data/emanuela/activity-recognition/images/NTCIR-Lifelog-256/u2/2015-04-30/b00001029_21i7lf_20150430_131641e.jpg'
p6581
sg4
(lp6582
(g32
g6
(g18
S'+,\x01?'
p6583
tp6584
Rp6585
tp6586
a(g15
g6
(g18
S'z\xee\xfc>'
p6587
tp6588
Rp6589
tp6590
a(g56
g6
(g18
S'\x8f\x9bT:'
p6591
tp6592
Rp6593
tp6594
a(g96
g6
(g18
S'\x0b\xdfN9'
p6595
tp6596
Rp6597
tp6598
a(g108
g6
(g18
S'Q\x0c\x1a9'
p6599
tp6600
Rp6601
tp6602
asg73
g32
sa(dp6603
g2
S'../../../data/emanuela/activity-recognition/images/NTCIR-Lifelog-256/u2/2015-05-03/b00003827_21i7lf_20150503_151212e.jpg'
p6604
sg4
(lp6605
(g32
g6
(g18
S'\xc1W\x0f?'
p6606
tp6607
Rp6608
tp6609
a(g15
g6
(g18
S'GL\xb6>'
p6610
tp6611
Rp6612
tp6613
a(g56
g6
(g18
S'O\xff\x8c='
p6614
tp6615
Rp6616
tp6617
a(g44
g6
(g18
S'\x94\xf8\xf9;'
p6618
tp6619
Rp6620
tp6621
a(g204
g6
(g18
S'X\x9f\xa0;'
p6622
tp6623
Rp6624
tp6625
asg73
g32
sa(dp6626
g2
S'../../../data/emanuela/activity-recognition/images/NTCIR-Lifelog-256/u2/2015-04-20/b00000303_21i7lf_20150420_124050e.jpg'
p6627
sg4
(lp6628
(g32
g6
(g18
S'\xe6\xd0\x15?'
p6629
tp6630
Rp6631
tp6632
a(g68
g6
(g18
S'\xbe\xc4w>'
p6633
tp6634
Rp6635
tp6636
a(g15
g6
(g18
S'g\xaf\xa0='
p6637
tp6638
Rp6639
tp6640
a(g56
g6
(g18
S'\x07\x8a\xe8<'
p6641
tp6642
Rp6643
tp6644
a(g96
g6
(g18
S'?\xb8\xcd<'
p6645
tp6646
Rp6647
tp6648
asg73
g32
sa(dp6649
g2
S'../../../data/emanuela/activity-recognition/images/NTCIR-Lifelog-256/u2/2015-04-20/b00000302_21i7lf_20150420_124019e.jpg'
p6650
sg4
(lp6651
(g32
g6
(g18
S'\xc0P=?'
p6652
tp6653
Rp6654
tp6655
a(g68
g6
(g18
S'\xa0{!>'
p6656
tp6657
Rp6658
tp6659
a(g15
g6
(g18
S'\xd2\xacy='
p6660
tp6661
Rp6662
tp6663
a(g96
g6
(g18
S'\x11\xccs<'
p6664
tp6665
Rp6666
tp6667
a(g56
g6
(g18
S'\xa5\xfd\x11<'
p6668
tp6669
Rp6670
tp6671
asg73
g32
sa(dp6672
g2
S'../../../data/emanuela/activity-recognition/images/NTCIR-Lifelog-256/u2/2015-05-03/b00003865_21i7lf_20150503_153510e.jpg'
p6673
sg4
(lp6674
(g32
g6
(g18
S'\xe8\x08d?'
p6675
tp6676
Rp6677
tp6678
a(g15
g6
(g18
S'1\xf4\xd7='
p6679
tp6680
Rp6681
tp6682
a(g56
g6
(g18
S'\xea\xc00;'
p6683
tp6684
Rp6685
tp6686
a(g44
g6
(g18
S'\xa8Iz:'
p6687
tp6688
Rp6689
tp6690
a(g68
g6
(g18
S'\x03Y\x058'
p6691
tp6692
Rp6693
tp6694
asg73
g32
sa(dp6695
g2
S'../../../data/emanuela/activity-recognition/images/NTCIR-Lifelog-256/u2/2015-05-02/b00003284_21i7lf_20150502_144244e.jpg'
p6696
sg4
(lp6697
(g15
g6
(g18
S'$\x8f}>'
p6698
tp6699
Rp6700
tp6701
a(g56
g6
(g18
S'\xd4\x00\x0c>'
p6702
tp6703
Rp6704
tp6705
a(g68
g6
(g18
S'@W\xe7='
p6706
tp6707
Rp6708
tp6709
a(g216
g6
(g18
S'\xf5\x1a\xd8='
p6710
tp6711
Rp6712
tp6713
a(g701
g6
(g18
S'\xdd\x19\xc8='
p6714
tp6715
Rp6716
tp6717
asg73
g32
sa(dp6718
g2
S'../../../data/emanuela/activity-recognition/images/NTCIR-Lifelog-256/u2/2015-04-21/b00000351_21i7lf_20150421_132847e.jpg'
p6719
sg4
(lp6720
(g15
g6
(g18
S'f\x1e\x7f?'
p6721
tp6722
Rp6723
tp6724
a(g32
g6
(g18
S'[\x8f[;'
p6725
tp6726
Rp6727
tp6728
a(g228
g6
(g18
S'C\xc9\x148'
p6729
tp6730
Rp6731
tp6732
a(g204
g6
(g18
S'\xb8\xe7O7'
p6733
tp6734
Rp6735
tp6736
a(g1821
g6
(g18
S'\x88&A7'
p6737
tp6738
Rp6739
tp6740
asg73
g32
sa(dp6741
g2
S'../../../data/emanuela/activity-recognition/images/NTCIR-Lifelog-256/u2/2015-04-20/b00000301_21i7lf_20150420_123938e.jpg'
p6742
sg4
(lp6743
(g32
g6
(g18
S'\xc6\xc7\xee>'
p6744
tp6745
Rp6746
tp6747
a(g68
g6
(g18
S'\xa9l\xb0>'
p6748
tp6749
Rp6750
tp6751
a(g56
g6
(g18
S'\x15\xf3\x97='
p6752
tp6753
Rp6754
tp6755
a(g371
g6
(g18
S'g\x9dO='
p6756
tp6757
Rp6758
tp6759
a(g96
g6
(g18
S'kJ\xb9<'
p6760
tp6761
Rp6762
tp6763
asg73
g32
sa(dp6764
g2
S'../../../data/emanuela/activity-recognition/images/NTCIR-Lifelog-256/u2/2015-05-03/b00003833_21i7lf_20150503_151549e.jpg'
p6765
sg4
(lp6766
(g15
g6
(g18
S'N\xa9K?'
p6767
tp6768
Rp6769
tp6770
a(g371
g6
(g18
S'S\xd8!='
p6771
tp6772
Rp6773
tp6774
a(g701
g6
(g18
S'\x86\x90\x1c='
p6775
tp6776
Rp6777
tp6778
a(g56
g6
(g18
S'\xe1\xd5\x00='
p6779
tp6780
Rp6781
tp6782
a(g228
g6
(g18
S'A3\xc7<'
p6783
tp6784
Rp6785
tp6786
asg73
g32
sa(dp6787
g2
S'../../../data/emanuela/activity-recognition/images/NTCIR-Lifelog-256/u2/2015-05-03/b00003893_21i7lf_20150503_155255e.jpg'
p6788
sg4
(lp6789
(g32
g6
(g18
S'?\x98\xbb>'
p6790
tp6791
Rp6792
tp6793
a(g56
g6
(g18
S'j\x88\x84>'
p6794
tp6795
Rp6796
tp6797
a(g15
g6
(g18
S'\xcd\xce~>'
p6798
tp6799
Rp6800
tp6801
a(g228
g6
(g18
S'\xd37V='
p6802
tp6803
Rp6804
tp6805
a(g68
g6
(g18
S'\xb9\x8c\xcc<'
p6806
tp6807
Rp6808
tp6809
asg73
g32
sa(dp6810
g2
S'../../../data/emanuela/activity-recognition/images/NTCIR-Lifelog-256/u2/2015-05-08/b00009014_21i7lf_20150508_124640e.jpg'
p6811
sg4
(lp6812
(g15
g6
(g18
S'\x10GH?'
p6813
tp6814
Rp6815
tp6816
a(g32
g6
(g18
S'\x04b^>'
p6817
tp6818
Rp6819
tp6820
a(g162
g6
(g18
S'X\x8c)9'
p6821
tp6822
Rp6823
tp6824
a(g56
g6
(g18
S'\xe6\xa9\xd98'
p6825
tp6826
Rp6827
tp6828
a(g44
g6
(g18
S'\x197\x808'
p6829
tp6830
Rp6831
tp6832
asg73
g32
sa(dp6833
g2
S'../../../data/emanuela/activity-recognition/images/NTCIR-Lifelog-256/u2/2015-05-06/b00006606_21i7lf_20150506_123024e.jpg'
p6834
sg4
(lp6835
(g15
g6
(g18
S'\xf6\x8d\x10?'
p6836
tp6837
Rp6838
tp6839
a(g32
g6
(g18
S'\xa4B\xde>'
p6840
tp6841
Rp6842
tp6843
a(g56
g6
(g18
S'\xab\xa3\x7f:'
p6844
tp6845
Rp6846
tp6847
a(g68
g6
(g18
S'+\x8fW9'
p6848
tp6849
Rp6850
tp6851
a(g44
g6
(g18
S'\x1a\xa7\xff7'
p6852
tp6853
Rp6854
tp6855
asg73
g32
sa(dp6856
g2
S'../../../data/emanuela/activity-recognition/images/NTCIR-Lifelog-256/u2/2015-05-01/b00002605_21i7lf_20150501_183017e.jpg'
p6857
sg4
(lp6858
(g15
g6
(g18
S'r`E?'
p6859
tp6860
Rp6861
tp6862
a(g32
g6
(g18
S'E\xea\x91='
p6863
tp6864
Rp6865
tp6866
a(g282
g6
(g18
S'\x03\x9a2='
p6867
tp6868
Rp6869
tp6870
a(g56
g6
(g18
S'\xcd\x99"='
p6871
tp6872
Rp6873
tp6874
a(g228
g6
(g18
S'\x1cZ\x86<'
p6875
tp6876
Rp6877
tp6878
asg73
g32
sa(dp6879
g2
S'../../../data/emanuela/activity-recognition/images/NTCIR-Lifelog-256/u2/2015-05-03/b00003847_21i7lf_20150503_152425e.jpg'
p6880
sg4
(lp6881
(g32
g6
(g18
S'\xfca\x93>'
p6882
tp6883
Rp6884
tp6885
a(g56
g6
(g18
S'\x8f\xe0\x8a>'
p6886
tp6887
Rp6888
tp6889
a(g15
g6
(g18
S'\xa2\x8e">'
p6890
tp6891
Rp6892
tp6893
a(g317
g6
(g18
S'\x94P\x8c='
p6894
tp6895
Rp6896
tp6897
a(g228
g6
(g18
S'-\x14p='
p6898
tp6899
Rp6900
tp6901
asg73
g32
sa(dp6902
g2
S'../../../data/emanuela/activity-recognition/images/NTCIR-Lifelog-256/u2/2015-05-07/b00007526_21i7lf_20150507_105325e.jpg'
p6903
sg4
(lp6904
(g32
g6
(g18
S'\xee<Y?'
p6905
tp6906
Rp6907
tp6908
a(g68
g6
(g18
S'\xdf\r\xa3='
p6909
tp6910
Rp6911
tp6912
a(g15
g6
(g18
S'\xb5\xffI='
p6913
tp6914
Rp6915
tp6916
a(g44
g6
(g18
S'\xa2\x9e\x0f<'
p6917
tp6918
Rp6919
tp6920
a(g56
g6
(g18
S'\xa9\x96\x07<'
p6921
tp6922
Rp6923
tp6924
asg73
g32
sa(dp6925
g2
S'../../../data/emanuela/activity-recognition/images/NTCIR-Lifelog-256/u2/2015-04-28/b00006660_21i7lf_20150428_123846e.jpg'
p6926
sg4
(lp6927
(g15
g6
(g18
S'/\xa0>?'
p6928
tp6929
Rp6930
tp6931
a(g32
g6
(g18
S'\xafv\x82>'
p6932
tp6933
Rp6934
tp6935
a(g56
g6
(g18
S'\xc7q\x949'
p6936
tp6937
Rp6938
tp6939
a(g44
g6
(g18
S'$\xa4U9'
p6940
tp6941
Rp6942
tp6943
a(g68
g6
(g18
S'\xaf\xd4j7'
p6944
tp6945
Rp6946
tp6947
asg73
g32
sa(dp6948
g2
S'../../../data/emanuela/activity-recognition/images/NTCIR-Lifelog-256/u2/2015-05-03/b00003915_21i7lf_20150503_160608e.jpg'
p6949
sg4
(lp6950
(g282
g6
(g18
S'I<\x9f>'
p6951
tp6952
Rp6953
tp6954
a(g56
g6
(g18
S'\xd8tx>'
p6955
tp6956
Rp6957
tp6958
a(g701
g6
(g18
S'F(\xd7='
p6959
tp6960
Rp6961
tp6962
a(g317
g6
(g18
S'\xbb\xf2l='
p6963
tp6964
Rp6965
tp6966
a(g68
g6
(g18
S'+\x8bZ='
p6967
tp6968
Rp6969
tp6970
asg73
g32
sa(dp6971
g2
S'../../../data/emanuela/activity-recognition/images/NTCIR-Lifelog-256/u2/2015-05-07/b00007538_21i7lf_20150507_110051e.jpg'
p6972
sg4
(lp6973
(g32
g6
(g18
S'\xf4QI?'
p6974
tp6975
Rp6976
tp6977
a(g68
g6
(g18
S'\x17\xd2!>'
p6978
tp6979
Rp6980
tp6981
a(g15
g6
(g18
S'\x82V\xbd<'
p6982
tp6983
Rp6984
tp6985
a(g56
g6
(g18
S'\x97\xdc\xb7<'
p6986
tp6987
Rp6988
tp6989
a(g44
g6
(g18
S'F1\xb0;'
p6990
tp6991
Rp6992
tp6993
asg73
g32
sa(dp6994
g2
S'../../../data/emanuela/activity-recognition/images/NTCIR-Lifelog-256/u2/2015-05-07/b00007528_21i7lf_20150507_105437e.jpg'
p6995
sg4
(lp6996
(g32
g6
(g18
S'_\xf1l?'
p6997
tp6998
Rp6999
tp7000
a(g15
g6
(g18
S'\xe5\xaf\x85='
p7001
tp7002
Rp7003
tp7004
a(g68
g6
(g18
S'\x88\xeaU;'
p7005
tp7006
Rp7007
tp7008
a(g44
g6
(g18
S'\x10TM;'
p7009
tp7010
Rp7011
tp7012
a(g56
g6
(g18
S'\x16\x13\x99:'
p7013
tp7014
Rp7015
tp7016
asg73
g32
sa(dp7017
g2
S'../../../data/emanuela/activity-recognition/images/NTCIR-Lifelog-256/u2/2015-05-01/b00002614_21i7lf_20150501_183549e.jpg'
p7018
sg4
(lp7019
(g15
g6
(g18
S'\xd9A<?'
p7020
tp7021
Rp7022
tp7023
a(g204
g6
(g18
S'\x9a{\xa1='
p7024
tp7025
Rp7026
tp7027
a(g216
g6
(g18
S'\x85x}='
p7028
tp7029
Rp7030
tp7031
a(g228
g6
(g18
S'\x96\x007='
p7032
tp7033
Rp7034
tp7035
a(g282
g6
(g18
S'co\xb4<'
p7036
tp7037
Rp7038
tp7039
asg73
g32
sa(dp7040
g2
S'../../../data/emanuela/activity-recognition/images/NTCIR-Lifelog-256/u2/2015-05-03/b00003823_21i7lf_20150503_150933e.jpg'
p7041
sg4
(lp7042
(g228
g6
(g18
S'\xad\xac\xfa>'
p7043
tp7044
Rp7045
tp7046
a(g317
g6
(g18
S'J`\xe9='
p7047
tp7048
Rp7049
tp7050
a(g371
g6
(g18
S'\xad\x0f\xb0='
p7051
tp7052
Rp7053
tp7054
a(g15
g6
(g18
S'V{\x85='
p7055
tp7056
Rp7057
tp7058
a(g204
g6
(g18
S'\x1al\x81='
p7059
tp7060
Rp7061
tp7062
asg73
g32
sa(dp7063
g2
S'../../../data/emanuela/activity-recognition/images/NTCIR-Lifelog-256/u2/2015-05-08/b00009013_21i7lf_20150508_124606e.jpg'
p7064
sg4
(lp7065
(g15
g6
(g18
S'\x82\xeb\x0f?'
p7066
tp7067
Rp7068
tp7069
a(g32
g6
(g18
S'{\xf0\xdf>'
p7070
tp7071
Rp7072
tp7073
a(g44
g6
(g18
S'\xfd\xd4T9'
p7074
tp7075
Rp7076
tp7077
a(g56
g6
(g18
S'\xc7\x93\xc38'
p7078
tp7079
Rp7080
tp7081
a(g282
g6
(g18
S'j\x0c\xf07'
p7082
tp7083
Rp7084
tp7085
asg73
g32
sa(dp7086
g2
S'../../../data/emanuela/activity-recognition/images/NTCIR-Lifelog-256/u2/2015-04-20/b00000295_21i7lf_20150420_123550e.jpg'
p7087
sg4
(lp7088
(g56
g6
(g18
S'\x9a\x89\x1f?'
p7089
tp7090
Rp7091
tp7092
a(g32
g6
(g18
S"\xf4'1>"
p7093
tp7094
Rp7095
tp7096
a(g68
g6
(g18
S'\xe5\x9d\xc2='
p7097
tp7098
Rp7099
tp7100
a(g15
g6
(g18
S'_\x0c\xa3='
p7101
tp7102
Rp7103
tp7104
a(g108
g6
(g18
S'\x9cv\x86<'
p7105
tp7106
Rp7107
tp7108
asg73
g32
sa(dp7109
g2
S'../../../data/emanuela/activity-recognition/images/NTCIR-Lifelog-256/u2/2015-04-27/b00005387_21i7lf_20150427_132453e.jpg'
p7110
sg4
(lp7111
(g15
g6
(g18
S'\xbbc\x1b?'
p7112
tp7113
Rp7114
tp7115
a(g32
g6
(g18
S'\xbf\xe4\xc7>'
p7116
tp7117
Rp7118
tp7119
a(g56
g6
(g18
S'\x16zn:'
p7120
tp7121
Rp7122
tp7123
a(g216
g6
(g18
S'C\x8c\x999'
p7124
tp7125
Rp7126
tp7127
a(g44
g6
(g18
S')\x9f\x959'
p7128
tp7129
Rp7130
tp7131
asg73
g32
sa(dp7132
g2
S'../../../data/emanuela/activity-recognition/images/NTCIR-Lifelog-256/u2/2015-05-03/b00003813_21i7lf_20150503_150341e.jpg'
p7133
sg4
(lp7134
(g15
g6
(g18
S'\x9fj\xda>'
p7135
tp7136
Rp7137
tp7138
a(g228
g6
(g18
S'\x17\x1f4>'
p7139
tp7140
Rp7141
tp7142
a(g56
g6
(g18
S'e\x86\x17>'
p7143
tp7144
Rp7145
tp7146
a(g32
g6
(g18
S'\x13J\xb1='
p7147
tp7148
Rp7149
tp7150
a(g317
g6
(g18
S'\xbe\x0cF='
p7151
tp7152
Rp7153
tp7154
asg73
g32
sa(dp7155
g2
S'../../../data/emanuela/activity-recognition/images/NTCIR-Lifelog-256/u2/2015-05-03/b00003916_21i7lf_20150503_160648e.jpg'
p7156
sg4
(lp7157
(g228
g6
(g18
S':\xc3\x9a>'
p7158
tp7159
Rp7160
tp7161
a(g56
g6
(g18
S'\xb0\xbdZ>'
p7162
tp7163
Rp7164
tp7165
a(g32
g6
(g18
S'\x08\xca0>'
p7166
tp7167
Rp7168
tp7169
a(g15
g6
(g18
S'\xdcV >'
p7170
tp7171
Rp7172
tp7173
a(g204
g6
(g18
S'\xc1\xe9\xec='
p7174
tp7175
Rp7176
tp7177
asg73
g32
sa(dp7178
g2
S'../../../data/emanuela/activity-recognition/images/NTCIR-Lifelog-256/u2/2015-04-26/b00004225_21i7lf_20150426_163831e.jpg'
p7179
sg4
(lp7180
(g15
g6
(g18
S'd\x11\x84>'
p7181
tp7182
Rp7183
tp7184
a(g32
g6
(g18
S'tXS>'
p7185
tp7186
Rp7187
tp7188
a(g317
g6
(g18
S'\xf8\r;>'
p7189
tp7190
Rp7191
tp7192
a(g56
g6
(g18
S'\x90\x04\xef='
p7193
tp7194
Rp7195
tp7196
a(g162
g6
(g18
S'x\x8bq='
p7197
tp7198
Rp7199
tp7200
asg73
g32
sa(dp7201
g2
S'../../../data/emanuela/activity-recognition/images/NTCIR-Lifelog-256/u2/2015-05-03/b00003876_21i7lf_20150503_154158e.jpg'
p7202
sg4
(lp7203
(g216
g6
(g18
S'\x9aj\xae>'
p7204
tp7205
Rp7206
tp7207
a(g317
g6
(g18
S'\xb57\x92>'
p7208
tp7209
Rp7210
tp7211
a(g371
g6
(g18
S'\x88\x17 >'
p7212
tp7213
Rp7214
tp7215
a(g15
g6
(g18
S'\xae\xa4\xcf='
p7216
tp7217
Rp7218
tp7219
a(g228
g6
(g18
S'\xff\x87v='
p7220
tp7221
Rp7222
tp7223
asg73
g32
sa(dp7224
g2
S'../../../data/emanuela/activity-recognition/images/NTCIR-Lifelog-256/u2/2015-05-01/b00002601_21i7lf_20150501_182751e.jpg'
p7225
sg4
(lp7226
(g15
g6
(g18
S'\xfcl\xf1>'
p7227
tp7228
Rp7229
tp7230
a(g32
g6
(g18
S'\xbc\xc6\xbe>'
p7231
tp7232
Rp7233
tp7234
a(g68
g6
(g18
S'\x1c\xed\x99='
p7235
tp7236
Rp7237
tp7238
a(g56
g6
(g18
S'\x9b$Q='
p7239
tp7240
Rp7241
tp7242
a(g96
g6
(g18
S'i\x9b\x17<'
p7243
tp7244
Rp7245
tp7246
asg73
g32
sa(dp7247
g2
S'../../../data/emanuela/activity-recognition/images/NTCIR-Lifelog-256/u2/2015-05-03/b00003882_21i7lf_20150503_154605e.jpg'
p7248
sg4
(lp7249
(g32
g6
(g18
S'\x9f\x07\xfb>'
p7250
tp7251
Rp7252
tp7253
a(g56
g6
(g18
S':%}>'
p7254
tp7255
Rp7256
tp7257
a(g68
g6
(g18
S'D&\xea='
p7258
tp7259
Rp7260
tp7261
a(g96
g6
(g18
S'\xbe\x14N='
p7262
tp7263
Rp7264
tp7265
a(g15
g6
(g18
S'\x92m\xdc<'
p7266
tp7267
Rp7268
tp7269
asg73
g32
sa(dp7270
g2
S'../../../data/emanuela/activity-recognition/images/NTCIR-Lifelog-256/u2/2015-05-08/b00008998_21i7lf_20150508_123641e.jpg'
p7271
sg4
(lp7272
(g32
g6
(g18
S'$\x80\t?'
p7273
tp7274
Rp7275
tp7276
a(g15
g6
(g18
S'"\x0f\xec>'
p7277
tp7278
Rp7279
tp7280
a(g56
g6
(g18
S'\x10\xab\xa9:'
p7281
tp7282
Rp7283
tp7284
a(g44
g6
(g18
S'8\x0fP9'
p7285
tp7286
Rp7287
tp7288
a(g68
g6
(g18
S'0\xd2\xfa8'
p7289
tp7290
Rp7291
tp7292
asg73
g32
sa(dp7293
g2
S'../../../data/emanuela/activity-recognition/images/NTCIR-Lifelog-256/u2/2015-04-27/b00005395_21i7lf_20150427_132949e.jpg'
p7294
sg4
(lp7295
(g15
g6
(g18
S'\x00\xe0\x02?'
p7296
tp7297
Rp7298
tp7299
a(g32
g6
(g18
S'8\x16\xfa>'
p7300
tp7301
Rp7302
tp7303
a(g44
g6
(g18
S'\xf8\xa8\xf28'
p7304
tp7305
Rp7306
tp7307
a(g56
g6
(g18
S'\x81H\xbe8'
p7308
tp7309
Rp7310
tp7311
a(g162
g6
(g18
S'nB\x108'
p7312
tp7313
Rp7314
tp7315
asg73
g32
sa(dp7316
g2
S'../../../data/emanuela/activity-recognition/images/NTCIR-Lifelog-256/u2/2015-05-03/b00003899_21i7lf_20150503_155625e.jpg'
p7317
sg4
(lp7318
(g15
g6
(g18
S'n9\xb4>'
p7319
tp7320
Rp7321
tp7322
a(g32
g6
(g18
S'\xf8\x8f\xa1>'
p7323
tp7324
Rp7325
tp7326
a(g228
g6
(g18
S'h\x0f\x03>'
p7327
tp7328
Rp7329
tp7330
a(g56
g6
(g18
S'D\xad\xcc='
p7331
tp7332
Rp7333
tp7334
a(g204
g6
(g18
S'\xf3\xe4\x8f='
p7335
tp7336
Rp7337
tp7338
asg73
g32
sa(dp7339
g2
S'../../../data/emanuela/activity-recognition/images/NTCIR-Lifelog-256/u2/2015-05-01/b00002609_21i7lf_20150501_183250e.jpg'
p7340
sg4
(lp7341
(g56
g6
(g18
S'\x0eV\xbc>'
p7342
tp7343
Rp7344
tp7345
a(g32
g6
(g18
S'\x10\xfd8>'
p7346
tp7347
Rp7348
tp7349
a(g15
g6
(g18
S'\xbf"\x12>'
p7350
tp7351
Rp7352
tp7353
a(g68
g6
(g18
S'\x16\xcd\x82='
p7354
tp7355
Rp7356
tp7357
a(g162
g6
(g18
S'\xa8\x02\x10='
p7358
tp7359
Rp7360
tp7361
asg73
g32
sa(dp7362
g2
S'../../../data/emanuela/activity-recognition/images/NTCIR-Lifelog-256/u2/2015-05-08/b00009016_21i7lf_20150508_124753e.jpg'
p7363
sg4
(lp7364
(g15
g6
(g18
S'9/z?'
p7365
tp7366
Rp7367
tp7368
a(g32
g6
(g18
S' \xd0\xb8<'
p7369
tp7370
Rp7371
tp7372
a(g56
g6
(g18
S'\xee#T8'
p7373
tp7374
Rp7375
tp7376
a(g44
g6
(g18
S'+5\x058'
p7377
tp7378
Rp7379
tp7380
a(g162
g6
(g18
S'!\x9b\x857'
p7381
tp7382
Rp7383
tp7384
asg73
g32
sa(dp7385
g2
S'../../../data/emanuela/activity-recognition/images/NTCIR-Lifelog-256/u2/2015-05-03/b00003911_21i7lf_20150503_160339e.jpg'
p7386
sg4
(lp7387
(g15
g6
(g18
S'\xbf\x02\x0b?'
p7388
tp7389
Rp7390
tp7391
a(g228
g6
(g18
S'\xe9\x1dn>'
p7392
tp7393
Rp7394
tp7395
a(g56
g6
(g18
S'P\xad\x95='
p7396
tp7397
Rp7398
tp7399
a(g32
g6
(g18
S'\x89+T='
p7400
tp7401
Rp7402
tp7403
a(g204
g6
(g18
S'\xd4\xf7)='
p7404
tp7405
Rp7406
tp7407
asg73
g32
sa(dp7408
g2
S'../../../data/emanuela/activity-recognition/images/NTCIR-Lifelog-256/u2/2015-05-02/b00003281_21i7lf_20150502_144056e.jpg'
p7409
sg4
(lp7410
(g68
g6
(g18
S'\xf7H\xe8>'
p7411
tp7412
Rp7413
tp7414
a(g56
g6
(g18
S'\xb14O>'
p7415
tp7416
Rp7417
tp7418
a(g96
g6
(g18
S'e\x03\xf6='
p7419
tp7420
Rp7421
tp7422
a(g32
g6
(g18
S'\x94J\xdf='
p7423
tp7424
Rp7425
tp7426
a(g701
g6
(g18
S'\x9cH\x19='
p7427
tp7428
Rp7429
tp7430
asg73
g32
sa(dp7431
g2
S'../../../data/emanuela/activity-recognition/images/NTCIR-Lifelog-256/u2/2015-05-03/b00003815_21i7lf_20150503_150451e.jpg'
p7432
sg4
(lp7433
(g371
g6
(g18
S'B\xcfh>'
p7434
tp7435
Rp7436
tp7437
a(g228
g6
(g18
S'f}U>'
p7438
tp7439
Rp7440
tp7441
a(g15
g6
(g18
S'J\xa9S>'
p7442
tp7443
Rp7444
tp7445
a(g317
g6
(g18
S'\x15o\x16>'
p7446
tp7447
Rp7448
tp7449
a(g56
g6
(g18
S'\xbb\x83\xa0='
p7450
tp7451
Rp7452
tp7453
asg73
g32
sa(dp7454
g2
S'../../../data/emanuela/activity-recognition/images/NTCIR-Lifelog-256/u2/2015-04-30/b00001033_21i7lf_20150430_131902e.jpg'
p7455
sg4
(lp7456
(g15
g6
(g18
S'-k\x1c?'
p7457
tp7458
Rp7459
tp7460
a(g32
g6
(g18
S'\x07\xc7\xc5>'
p7461
tp7462
Rp7463
tp7464
a(g56
g6
(g18
S'|<\xac:'
p7465
tp7466
Rp7467
tp7468
a(g96
g6
(g18
S"\x01:':"
p7469
tp7470
Rp7471
tp7472
a(g108
g6
(g18
S'\xd8\x1f\xd29'
p7473
tp7474
Rp7475
tp7476
asg73
g32
sa(dp7477
g2
S'../../../data/emanuela/activity-recognition/images/NTCIR-Lifelog-256/u2/2015-05-03/b00003809_21i7lf_20150503_150115e.jpg'
p7478
sg4
(lp7479
(g56
g6
(g18
S'F|\xd4>'
p7480
tp7481
Rp7482
tp7483
a(g32
g6
(g18
S'3/\xd1='
p7484
tp7485
Rp7486
tp7487
a(g15
g6
(g18
S'\xb5\x8a\xc4='
p7488
tp7489
Rp7490
tp7491
a(g228
g6
(g18
S'%b\xc4='
p7492
tp7493
Rp7494
tp7495
a(g96
g6
(g18
S'\x93E\x98='
p7496
tp7497
Rp7498
tp7499
asg73
g32
sa(dp7500
g2
S'../../../data/emanuela/activity-recognition/images/NTCIR-Lifelog-256/u2/2015-05-05/b00005345_21i7lf_20150505_121601e.jpg'
p7501
sg4
(lp7502
(g32
g6
(g18
S'\xb5\x159?'
p7503
tp7504
Rp7505
tp7506
a(g15
g6
(g18
S'\xb4\xf2?>'
p7507
tp7508
Rp7509
tp7510
a(g56
g6
(g18
S'xC\x94='
p7511
tp7512
Rp7513
tp7514
a(g68
g6
(g18
S'A\x10\xe7;'
p7515
tp7516
Rp7517
tp7518
a(g282
g6
(g18
S'\xa1\x83\x81;'
p7519
tp7520
Rp7521
tp7522
asg73
g32
sa(dp7523
g2
S'../../../data/emanuela/activity-recognition/images/NTCIR-Lifelog-256/u2/2015-04-26/b00004216_21i7lf_20150426_163024e.jpg'
p7524
sg4
(lp7525
(g32
g6
(g18
S'$hw?'
p7526
tp7527
Rp7528
tp7529
a(g15
g6
(g18
S'\xf0\xa4\xa5<'
p7530
tp7531
Rp7532
tp7533
a(g56
g6
(g18
S'\xf0{\xb4;'
p7534
tp7535
Rp7536
tp7537
a(g44
g6
(g18
S'Y:=;'
p7538
tp7539
Rp7540
tp7541
a(g317
g6
(g18
S'\x92b\xa1:'
p7542
tp7543
Rp7544
tp7545
asg73
g32
sa(dp7546
g2
S'../../../data/emanuela/activity-recognition/images/NTCIR-Lifelog-256/u2/2015-04-30/b00001028_21i7lf_20150430_131607e.jpg'
p7547
sg4
(lp7548
(g15
g6
(g18
S'\x95P*?'
p7549
tp7550
Rp7551
tp7552
a(g32
g6
(g18
S'\\\xfc\xa9>'
p7553
tp7554
Rp7555
tp7556
a(g56
g6
(g18
S'3\xa9\xd2:'
p7557
tp7558
Rp7559
tp7560
a(g108
g6
(g18
S'g~\x8f9'
p7561
tp7562
Rp7563
tp7564
a(g96
g6
(g18
S'T\xd8\x899'
p7565
tp7566
Rp7567
tp7568
asg73
g32
sa(dp7569
g2
S'../../../data/emanuela/activity-recognition/images/NTCIR-Lifelog-256/u2/2015-05-08/b00009011_21i7lf_20150508_124449e.jpg'
p7570
sg4
(lp7571
(g15
g6
(g18
S'\xe0:i?'
p7572
tp7573
Rp7574
tp7575
a(g32
g6
(g18
S'\xe2\xe0\xb5='
p7576
tp7577
Rp7578
tp7579
a(g56
g6
(g18
S'e.)8'
p7580
tp7581
Rp7582
tp7583
a(g44
g6
(g18
S'3\xfa\x148'
p7584
tp7585
Rp7586
tp7587
a(g1821
g6
(g18
S'\xe6"\xb87'
p7588
tp7589
Rp7590
tp7591
asg73
g32
sa(dp7592
g2
S'../../../data/emanuela/activity-recognition/images/NTCIR-Lifelog-256/u2/2015-05-07/b00007537_21i7lf_20150507_110012e.jpg'
p7593
sg4
(lp7594
(g32
g6
(g18
S"\xc8\xe0'?"
p7595
tp7596
Rp7597
tp7598
a(g15
g6
(g18
S'\xf6\x9a\x9c>'
p7599
tp7600
Rp7601
tp7602
a(g68
g6
(g18
S'\xf5B\xb6<'
p7603
tp7604
Rp7605
tp7606
a(g56
g6
(g18
S' V3<'
p7607
tp7608
Rp7609
tp7610
a(g44
g6
(g18
S'$\xf4(;'
p7611
tp7612
Rp7613
tp7614
asg73
g32
sa(dp7615
g2
S'../../../data/emanuela/activity-recognition/images/NTCIR-Lifelog-256/u2/2015-05-03/b00003888_21i7lf_20150503_154955e.jpg'
p7616
sg4
(lp7617
(g317
g6
(g18
S'\xa0\xc0e>'
p7618
tp7619
Rp7620
tp7621
a(g15
g6
(g18
S'\x87\xfe[>'
p7622
tp7623
Rp7624
tp7625
a(g32
g6
(g18
S'j\x1c(>'
p7626
tp7627
Rp7628
tp7629
a(g56
g6
(g18
S'4w\xe0='
p7630
tp7631
Rp7632
tp7633
a(g96
g6
(g18
S'\\\xe6\xab='
p7634
tp7635
Rp7636
tp7637
asg73
g32
sa(dp7638
g2
S'../../../data/emanuela/activity-recognition/images/NTCIR-Lifelog-256/u2/2015-04-30/b00001020_21i7lf_20150430_131119e.jpg'
p7639
sg4
(lp7640
(g15
g6
(g18
S'eQR?'
p7641
tp7642
Rp7643
tp7644
a(g32
g6
(g18
S'\xf4I5>'
p7645
tp7646
Rp7647
tp7648
a(g56
g6
(g18
S'[\xbf2:'
p7649
tp7650
Rp7651
tp7652
a(g162
g6
(g18
S'O\xf509'
p7653
tp7654
Rp7655
tp7656
a(g68
g6
(g18
S'\x1cV\xd88'
p7657
tp7658
Rp7659
tp7660
asg73
g32
sa(dp7661
g2
S'../../../data/emanuela/activity-recognition/images/NTCIR-Lifelog-256/u2/2015-05-01/b00002123_21i7lf_20150501_123745e.jpg'
p7662
sg4
(lp7663
(g32
g6
(g18
S'\x9b\xcd ?'
p7664
tp7665
Rp7666
tp7667
a(g15
g6
(g18
S'B`\xbb>'
p7668
tp7669
Rp7670
tp7671
a(g56
g6
(g18
S'\x8e8\xb1;'
p7672
tp7673
Rp7674
tp7675
a(g68
g6
(g18
S"\xfc'q9"
p7676
tp7677
Rp7678
tp7679
a(g44
g6
(g18
S'\xa4\x05l8'
p7680
tp7681
Rp7682
tp7683
asg73
g32
sa(dp7684
g2
S'../../../data/emanuela/activity-recognition/images/NTCIR-Lifelog-256/u2/2015-04-26/b00004228_21i7lf_20150426_164016e.jpg'
p7685
sg4
(lp7686
(g317
g6
(g18
S'\x9aG\x16?'
p7687
tp7688
Rp7689
tp7690
a(g56
g6
(g18
S'\x1f\xf5\xc2='
p7691
tp7692
Rp7693
tp7694
a(g15
g6
(g18
S'\xe5\xa6\x84='
p7695
tp7696
Rp7697
tp7698
a(g32
g6
(g18
S'\x8e\xb0M='
p7699
tp7700
Rp7701
tp7702
a(g228
g6
(g18
S'\xb0\xb5\x17='
p7703
tp7704
Rp7705
tp7706
asg73
g32
sa(dp7707
g2
S'../../../data/emanuela/activity-recognition/images/NTCIR-Lifelog-256/u2/2015-05-06/b00006601_21i7lf_20150506_122721e.jpg'
p7708
sg4
(lp7709
(g15
g6
(g18
S'\x9c\xb3;?'
p7710
tp7711
Rp7712
tp7713
a(g32
g6
(g18
S'z&\x88>'
p7714
tp7715
Rp7716
tp7717
a(g44
g6
(g18
S'&#\xd69'
p7718
tp7719
Rp7720
tp7721
a(g56
g6
(g18
S'\xaf\xbe\x8e9'
p7722
tp7723
Rp7724
tp7725
a(g204
g6
(g18
S'\x81,98'
p7726
tp7727
Rp7728
tp7729
asg73
g32
sa(dp7730
g2
S'../../../data/emanuela/activity-recognition/images/NTCIR-Lifelog-256/u2/2015-04-26/b00004232_21i7lf_20150426_164252e.jpg'
p7731
sg4
(lp7732
(g317
g6
(g18
S'np\x12?'
p7733
tp7734
Rp7735
tp7736
a(g32
g6
(g18
S'\x829\x1f>'
p7737
tp7738
Rp7739
tp7740
a(g68
g6
(g18
S'\xfb8u='
p7741
tp7742
Rp7743
tp7744
a(g56
g6
(g18
S'0pg='
p7745
tp7746
Rp7747
tp7748
a(g96
g6
(g18
S'\x92;H='
p7749
tp7750
Rp7751
tp7752
asg73
g32
sa(dp7753
g2
S'../../../data/emanuela/activity-recognition/images/NTCIR-Lifelog-256/u2/2015-04-28/b00006676_21i7lf_20150428_124837e.jpg'
p7754
sg4
(lp7755
(g32
g6
(g18
S'\xd3\xd7\t?'
p7756
tp7757
Rp7758
tp7759
a(g15
g6
(g18
S'W\xc7\xea>'
p7760
tp7761
Rp7762
tp7763
a(g56
g6
(g18
S'\x83\xea\xa6:'
p7764
tp7765
Rp7766
tp7767
a(g44
g6
(g18
S'$I<:'
p7768
tp7769
Rp7770
tp7771
a(g282
g6
(g18
S'\x93\xca\x989'
p7772
tp7773
Rp7774
tp7775
asg73
g32
sa(dp7776
g2
S'../../../data/emanuela/activity-recognition/images/NTCIR-Lifelog-256/u2/2015-05-08/b00008994_21i7lf_20150508_123414e.jpg'
p7777
sg4
(lp7778
(g96
g6
(g18
S'I\x8e\x14?'
p7779
tp7780
Rp7781
tp7782
a(g317
g6
(g18
S'`\x05&>'
p7783
tp7784
Rp7785
tp7786
a(g108
g6
(g18
S'\xd3\x85\xc8='
p7787
tp7788
Rp7789
tp7790
a(g371
g6
(g18
S'\x0c\x17\xa6='
p7791
tp7792
Rp7793
tp7794
a(g56
g6
(g18
S'\x9at\xf0<'
p7795
tp7796
Rp7797
tp7798
asg73
g32
sa(dp7799
g2
S'../../../data/emanuela/activity-recognition/images/NTCIR-Lifelog-256/u2/2015-05-01/b00002603_21i7lf_20150501_182905e.jpg'
p7800
sg4
(lp7801
(g15
g6
(g18
S'mO\xd2>'
p7802
tp7803
Rp7804
tp7805
a(g32
g6
(g18
S'{\x08(>'
p7806
tp7807
Rp7808
tp7809
a(g228
g6
(g18
S'\xf7\x08\xd4='
p7810
tp7811
Rp7812
tp7813
a(g204
g6
(g18
S'K\x89\xb7='
p7814
tp7815
Rp7816
tp7817
a(g216
g6
(g18
S'\x178Q='
p7818
tp7819
Rp7820
tp7821
asg73
g32
sa(dp7822
g2
S'../../../data/emanuela/activity-recognition/images/NTCIR-Lifelog-256/u2/2015-04-30/b00001017_21i7lf_20150430_130928e.jpg'
p7823
sg4
(lp7824
(g32
g6
(g18
S'\xcf\xffC?'
p7825
tp7826
Rp7827
tp7828
a(g15
g6
(g18
S'\x86\xbbe>'
p7829
tp7830
Rp7831
tp7832
a(g56
g6
(g18
S'\xbc\xc6\xd4;'
p7833
tp7834
Rp7835
tp7836
a(g108
g6
(g18
S'z\x9f\xb9:'
p7837
tp7838
Rp7839
tp7840
a(g162
g6
(g18
S'\x10\xaes:'
p7841
tp7842
Rp7843
tp7844
asg73
g32
sa(dp7845
g2
S'../../../data/emanuela/activity-recognition/images/NTCIR-Lifelog-256/u2/2015-05-01/b00002116_21i7lf_20150501_123329e.jpg'
p7846
sg4
(lp7847
(g15
g6
(g18
S'\x97v\x07?'
p7848
tp7849
Rp7850
tp7851
a(g32
g6
(g18
S'\x9d\x01\xf1>'
p7852
tp7853
Rp7854
tp7855
a(g44
g6
(g18
S'R\xf7A8'
p7856
tp7857
Rp7858
tp7859
a(g56
g6
(g18
S'\x84\xd5\x128'
p7860
tp7861
Rp7862
tp7863
a(g68
g6
(g18
S'(\x0c\xc07'
p7864
tp7865
Rp7866
tp7867
asg73
g32
sa(dp7868
g2
S'../../../data/emanuela/activity-recognition/images/NTCIR-Lifelog-256/u2/2015-04-30/b00001018_21i7lf_20150430_131009e.jpg'
p7869
sg4
(lp7870
(g15
g6
(g18
S'\xe0*p?'
p7871
tp7872
Rp7873
tp7874
a(g32
g6
(g18
S'/\x08}='
p7875
tp7876
Rp7877
tp7878
a(g44
g6
(g18
S'\x15F\x138'
p7879
tp7880
Rp7881
tp7882
a(g204
g6
(g18
S'\xcc\x19}7'
p7883
tp7884
Rp7885
tp7886
a(g1821
g6
(g18
S'\xd7\xe9\xe36'
p7887
tp7888
Rp7889
tp7890
asg73
g32
sa(dp7891
g2
S'../../../data/emanuela/activity-recognition/images/NTCIR-Lifelog-256/u2/2015-04-21/b00000344_21i7lf_20150421_132432e.jpg'
p7892
sg4
(lp7893
(g32
g6
(g18
S'\xb5IH?'
p7894
tp7895
Rp7896
tp7897
a(g15
g6
(g18
S'S\x9aZ>'
p7898
tp7899
Rp7900
tp7901
a(g56
g6
(g18
S'\xc5a=;'
p7902
tp7903
Rp7904
tp7905
a(g68
g6
(g18
S'\x01p\xf29'
p7906
tp7907
Rp7908
tp7909
a(g44
g6
(g18
S'\x8c.\x829'
p7910
tp7911
Rp7912
tp7913
asg73
g32
sa(dp7914
g2
S'../../../data/emanuela/activity-recognition/images/NTCIR-Lifelog-256/u2/2015-04-30/b00001021_21i7lf_20150430_131152e.jpg'
p7915
sg4
(lp7916
(g32
g6
(g18
S'E\xb1C?'
p7917
tp7918
Rp7919
tp7920
a(g15
g6
(g18
S"'\xeeo>"
p7921
tp7922
Rp7923
tp7924
a(g56
g6
(g18
S'\x01\x03,:'
p7925
tp7926
Rp7927
tp7928
a(g162
g6
(g18
S'\xcf\\L9'
p7929
tp7930
Rp7931
tp7932
a(g44
g6
(g18
S"\xc9E'9"
p7933
tp7934
Rp7935
tp7936
asg73
g32
sa(dp7937
g2
S'../../../data/emanuela/activity-recognition/images/NTCIR-Lifelog-256/u2/2015-05-03/b00003817_21i7lf_20150503_150603e.jpg'
p7938
sg4
(lp7939
(g56
g6
(g18
S'\x05]F>'
p7940
tp7941
Rp7942
tp7943
a(g228
g6
(g18
S'$\xb18>'
p7944
tp7945
Rp7946
tp7947
a(g371
g6
(g18
S'\x05\xde\x18>'
p7948
tp7949
Rp7950
tp7951
a(g317
g6
(g18
S'\xed\x1a\xef='
p7952
tp7953
Rp7954
tp7955
a(g701
g6
(g18
S'E[\xbb='
p7956
tp7957
Rp7958
tp7959
asg73
g32
sa(dp7960
g2
S'../../../data/emanuela/activity-recognition/images/NTCIR-Lifelog-256/u2/2015-05-01/b00002600_21i7lf_20150501_182713e.jpg'
p7961
sg4
(lp7962
(g56
g6
(g18
S'\xee\xcc\xba>'
p7963
tp7964
Rp7965
tp7966
a(g32
g6
(g18
S'y\xea\x83>'
p7967
tp7968
Rp7969
tp7970
a(g68
g6
(g18
S'\x80{T>'
p7971
tp7972
Rp7973
tp7974
a(g96
g6
(g18
S'B\x96\xa8='
p7975
tp7976
Rp7977
tp7978
a(g15
g6
(g18
S'\xe3\x0f&='
p7979
tp7980
Rp7981
tp7982
asg73
g32
sa(dp7983
g2
S'../../../data/emanuela/activity-recognition/images/NTCIR-Lifelog-256/u2/2015-04-26/b00004222_21i7lf_20150426_163642e.jpg'
p7984
sg4
(lp7985
(g317
g6
(g18
S'%(\xc6>'
p7986
tp7987
Rp7988
tp7989
a(g15
g6
(g18
S'\x9a^\\>'
p7990
tp7991
Rp7992
tp7993
a(g32
g6
(g18
S'X\xe9\x0c>'
p7994
tp7995
Rp7996
tp7997
a(g56
g6
(g18
S'D\x18\x94='
p7998
tp7999
Rp8000
tp8001
a(g68
g6
(g18
S'|\x97?='
p8002
tp8003
Rp8004
tp8005
asg73
g32
sa(dp8006
g2
S'../../../data/emanuela/activity-recognition/images/NTCIR-Lifelog-256/u2/2015-05-02/b00003273_21i7lf_20150502_143555e.jpg'
p8007
sg4
(lp8008
(g68
g6
(g18
S'\xfe!\xcf>'
p8009
tp8010
Rp8011
tp8012
a(g32
g6
(g18
S'\xde,a>'
p8013
tp8014
Rp8015
tp8016
a(g56
g6
(g18
S'wO\xf9='
p8017
tp8018
Rp8019
tp8020
a(g15
g6
(g18
S',\xe7\xe4='
p8021
tp8022
Rp8023
tp8024
a(g204
g6
(g18
S'R\xd2$='
p8025
tp8026
Rp8027
tp8028
asg73
g32
sa(dp8029
g2
S'../../../data/emanuela/activity-recognition/images/NTCIR-Lifelog-256/u2/2015-05-03/b00003803_21i7lf_20150503_145734e.jpg'
p8030
sg4
(lp8031
(g96
g6
(g18
S'f\xfb\xbe>'
p8032
tp8033
Rp8034
tp8035
a(g56
g6
(g18
S'\xc5#\xf8='
p8036
tp8037
Rp8038
tp8039
a(g32
g6
(g18
S'\xed\x9b\xe9='
p8040
tp8041
Rp8042
tp8043
a(g108
g6
(g18
S'W\xb6\xc9='
p8044
tp8045
Rp8046
tp8047
a(g15
g6
(g18
S'\xdd\xfa\xc7='
p8048
tp8049
Rp8050
tp8051
asg73
g32
sa(dp8052
g2
S'../../../data/emanuela/activity-recognition/images/NTCIR-Lifelog-256/u2/2015-05-07/b00007548_21i7lf_20150507_110705e.jpg'
p8053
sg4
(lp8054
(g32
g6
(g18
S'\xc3Z\xf8>'
p8055
tp8056
Rp8057
tp8058
a(g44
g6
(g18
S'1\xcb\xd7>'
p8059
tp8060
Rp8061
tp8062
a(g15
g6
(g18
S'{\xb9x='
p8063
tp8064
Rp8065
tp8066
a(g68
g6
(g18
S'[!\xf3;'
p8067
tp8068
Rp8069
tp8070
a(g162
g6
(g18
S'\xe7\xd2\xe3;'
p8071
tp8072
Rp8073
tp8074
asg73
g32
sa(dp8075
g2
S'../../../data/emanuela/activity-recognition/images/NTCIR-Lifelog-256/u2/2015-05-03/b00003857_21i7lf_20150503_153017e.jpg'
p8076
sg4
(lp8077
(g15
g6
(g18
S'\x8b\xb2\x83>'
p8078
tp8079
Rp8080
tp8081
a(g228
g6
(g18
S'\x01LG>'
p8082
tp8083
Rp8084
tp8085
a(g32
g6
(g18
S'\xc2\x87\xbf='
p8086
tp8087
Rp8088
tp8089
a(g56
g6
(g18
S'G\xb2\xad='
p8090
tp8091
Rp8092
tp8093
a(g216
g6
(g18
S'0\xfb\xa7='
p8094
tp8095
Rp8096
tp8097
asg73
g32
sa(dp8098
g2
S'../../../data/emanuela/activity-recognition/images/NTCIR-Lifelog-256/u2/2015-04-21/b00000352_21i7lf_20150421_132924e.jpg'
p8099
sg4
(lp8100
(g15
g6
(g18
S'Z\xf8|?'
p8101
tp8102
Rp8103
tp8104
a(g32
g6
(g18
S'\x9d\xd45<'
p8105
tp8106
Rp8107
tp8108
a(g228
g6
(g18
S'_\x04\x9e9'
p8109
tp8110
Rp8111
tp8112
a(g56
g6
(g18
S'n\xaeb9'
p8113
tp8114
Rp8115
tp8116
a(g204
g6
(g18
S'<\xc2\xbf8'
p8117
tp8118
Rp8119
tp8120
asg73
g32
sa(dp8121
g2
S'../../../data/emanuela/activity-recognition/images/NTCIR-Lifelog-256/u2/2015-05-03/b00003913_21i7lf_20150503_160452e.jpg'
p8122
sg4
(lp8123
(g228
g6
(g18
S'J\x7f\xea>'
p8124
tp8125
Rp8126
tp8127
a(g15
g6
(g18
S'X\xd5h>'
p8128
tp8129
Rp8130
tp8131
a(g204
g6
(g18
S'\xd7Z\xd9='
p8132
tp8133
Rp8134
tp8135
a(g56
g6
(g18
S'\xe1\x85\xd1='
p8136
tp8137
Rp8138
tp8139
a(g32
g6
(g18
S'\x18M\x99='
p8140
tp8141
Rp8142
tp8143
asg73
g32
sa(dp8144
g2
S'../../../data/emanuela/activity-recognition/images/NTCIR-Lifelog-256/u2/2015-04-20/b00000289_21i7lf_20150420_123204e.jpg'
p8145
sg4
(lp8146
(g15
g6
(g18
S']\xa6<?'
p8147
tp8148
Rp8149
tp8150
a(g32
g6
(g18
S'\xdd\x99/>'
p8151
tp8152
Rp8153
tp8154
a(g56
g6
(g18
S'tz,='
p8155
tp8156
Rp8157
tp8158
a(g68
g6
(g18
S'\xf2j ='
p8159
tp8160
Rp8161
tp8162
a(g204
g6
(g18
S'i\xca\x9f;'
p8163
tp8164
Rp8165
tp8166
asg73
g32
sa(dp8167
g2
S'../../../data/emanuela/activity-recognition/images/NTCIR-Lifelog-256/u2/2015-04-28/b00006671_21i7lf_20150428_124532e.jpg'
p8168
sg4
(lp8169
(g15
g6
(g18
S'\x15\x12\x03?'
p8170
tp8171
Rp8172
tp8173
a(g32
g6
(g18
S'~\xde\xf6>'
p8174
tp8175
Rp8176
tp8177
a(g56
g6
(g18
S'|2\x99;'
p8178
tp8179
Rp8180
tp8181
a(g44
g6
(g18
S'\xdd\xfb\x9f9'
p8182
tp8183
Rp8184
tp8185
a(g68
g6
(g18
S'\t\x97G9'
p8186
tp8187
Rp8188
tp8189
asg73
g32
sa(dp8190
g2
S'../../../data/emanuela/activity-recognition/images/NTCIR-Lifelog-256/u2/2015-04-26/b00004223_21i7lf_20150426_163719e.jpg'
p8191
sg4
(lp8192
(g15
g6
(g18
S'\xcb\x7f\xe5>'
p8193
tp8194
Rp8195
tp8196
a(g317
g6
(g18
S'\xb6k:>'
p8197
tp8198
Rp8199
tp8200
a(g32
g6
(g18
S'\x1d\xb8\x07>'
p8201
tp8202
Rp8203
tp8204
a(g56
g6
(g18
S'b\xa1\xa0='
p8205
tp8206
Rp8207
tp8208
a(g68
g6
(g18
S'\r.T='
p8209
tp8210
Rp8211
tp8212
asg73
g32
sa(dp8213
g2
S'../../../data/emanuela/activity-recognition/images/NTCIR-Lifelog-256/u2/2015-05-01/b00002612_21i7lf_20150501_183437e.jpg'
p8214
sg4
(lp8215
(g15
g6
(g18
S'u;h?'
p8216
tp8217
Rp8218
tp8219
a(g32
g6
(g18
S'y\xcc\xcd<'
p8220
tp8221
Rp8222
tp8223
a(g204
g6
(g18
S'zN\x80<'
p8224
tp8225
Rp8226
tp8227
a(g228
g6
(g18
S'r\xefO<'
p8228
tp8229
Rp8230
tp8231
a(g282
g6
(g18
S'K\x01\x1b<'
p8232
tp8233
Rp8234
tp8235
asg73
g32
sa(dp8236
g2
S'../../../data/emanuela/activity-recognition/images/NTCIR-Lifelog-256/u2/2015-05-01/b00002594_21i7lf_20150501_182329e.jpg'
p8237
sg4
(lp8238
(g15
g6
(g18
S'\x1apd?'
p8239
tp8240
Rp8241
tp8242
a(g32
g6
(g18
S'\x05\xa8\x11='
p8243
tp8244
Rp8245
tp8246
a(g68
g6
(g18
S'\xc78\xb1<'
p8247
tp8248
Rp8249
tp8250
a(g204
g6
(g18
S'\xfd\x8d\x8d<'
p8251
tp8252
Rp8253
tp8254
a(g56
g6
(g18
S'\xf1`J<'
p8255
tp8256
Rp8257
tp8258
asg73
g32
sa(dp8259
g2
S'../../../data/emanuela/activity-recognition/images/NTCIR-Lifelog-256/u2/2015-05-07/b00007546_21i7lf_20150507_110553e.jpg'
p8260
sg4
(lp8261
(g15
g6
(g18
S'\t\xe9\t?'
p8262
tp8263
Rp8264
tp8265
a(g32
g6
(g18
S'b\xbc\xd2>'
p8266
tp8267
Rp8268
tp8269
a(g44
g6
(g18
S'0\xc2\x15='
p8270
tp8271
Rp8272
tp8273
a(g68
g6
(g18
S'\t9\x87;'
p8274
tp8275
Rp8276
tp8277
a(g56
g6
(g18
S'\xe0\xb8\x83;'
p8278
tp8279
Rp8280
tp8281
asg73
g32
sa(dp8282
g2
S'../../../data/emanuela/activity-recognition/images/NTCIR-Lifelog-256/u2/2015-05-05/b00005347_21i7lf_20150505_121721e.jpg'
p8283
sg4
(lp8284
(g32
g6
(g18
S'\xc7OM?'
p8285
tp8286
Rp8287
tp8288
a(g15
g6
(g18
S'\x98\x85\xde='
p8289
tp8290
Rp8291
tp8292
a(g56
g6
(g18
S'\xbc\xdb\x87='
p8293
tp8294
Rp8295
tp8296
a(g68
g6
(g18
S'\x11\x9e\x04<'
p8297
tp8298
Rp8299
tp8300
a(g96
g6
(g18
S'v\xabN;'
p8301
tp8302
Rp8303
tp8304
asg73
g32
sa(dp8305
g2
S'../../../data/emanuela/activity-recognition/images/NTCIR-Lifelog-256/u2/2015-05-03/b00003894_21i7lf_20150503_155332e.jpg'
p8306
sg4
(lp8307
(g15
g6
(g18
S'\xaf(#?'
p8308
tp8309
Rp8310
tp8311
a(g32
g6
(g18
S'\x08\x9dm>'
p8312
tp8313
Rp8314
tp8315
a(g56
g6
(g18
S'\x8f\xa6u='
p8316
tp8317
Rp8318
tp8319
a(g44
g6
(g18
S'\xef\xc4\xd8<'
p8320
tp8321
Rp8322
tp8323
a(g204
g6
(g18
S'U\x18\xa1<'
p8324
tp8325
Rp8326
tp8327
asg73
g32
sa(dp8328
g2
S'../../../data/emanuela/activity-recognition/images/NTCIR-Lifelog-256/u2/2015-05-03/b00003872_21i7lf_20150503_153928e.jpg'
p8329
sg4
(lp8330
(g32
g6
(g18
S'\xf7\x9bZ?'
p8331
tp8332
Rp8333
tp8334
a(g15
g6
(g18
S'\n\xf9\x14>'
p8335
tp8336
Rp8337
tp8338
a(g44
g6
(g18
S'_\t\x8f9'
p8339
tp8340
Rp8341
tp8342
a(g56
g6
(g18
S'M\xd3G9'
p8343
tp8344
Rp8345
tp8346
a(g68
g6
(g18
S'_\xea\xbb7'
p8347
tp8348
Rp8349
tp8350
asg73
g32
sa(dp8351
g2
S'../../../data/emanuela/activity-recognition/images/NTCIR-Lifelog-256/u2/2015-05-02/b00003289_21i7lf_20150502_144549e.jpg'
p8352
sg4
(lp8353
(g68
g6
(g18
S'.\nj?'
p8354
tp8355
Rp8356
tp8357
a(g32
g6
(g18
S'yR\x15='
p8358
tp8359
Rp8360
tp8361
a(g56
g6
(g18
S'\x03\xc2\x9e<'
p8362
tp8363
Rp8364
tp8365
a(g96
g6
(g18
S'\x19s\x85<'
p8366
tp8367
Rp8368
tp8369
a(g824
g6
(g18
S'\x11@\x82;'
p8370
tp8371
Rp8372
tp8373
asg73
g32
sa(dp8374
g2
S'../../../data/emanuela/activity-recognition/images/NTCIR-Lifelog-256/u2/2015-05-07/b00007522_21i7lf_20150507_105111e.jpg'
p8375
sg4
(lp8376
(g32
g6
(g18
S'\xde\x95L?'
p8377
tp8378
Rp8379
tp8380
a(g15
g6
(g18
S'\x15\x1e\x00>'
p8381
tp8382
Rp8383
tp8384
a(g68
g6
(g18
S'\xe0!\x81='
p8385
tp8386
Rp8387
tp8388
a(g56
g6
(g18
S'B\xc8\xfb;'
p8389
tp8390
Rp8391
tp8392
a(g44
g6
(g18
S'I\xdf\xf0:'
p8393
tp8394
Rp8395
tp8396
asg73
g32
sa(dp8397
g2
S'../../../data/emanuela/activity-recognition/images/NTCIR-Lifelog-256/u2/2015-05-07/b00007552_21i7lf_20150507_110923e.jpg'
p8398
sg4
(lp8399
(g32
g6
(g18
S'f,\x05?'
p8400
tp8401
Rp8402
tp8403
a(g15
g6
(g18
S'\xb4\x97\x91>'
p8404
tp8405
Rp8406
tp8407
a(g44
g6
(g18
S';L4>'
p8408
tp8409
Rp8410
tp8411
a(g56
g6
(g18
S'uk\xb2;'
p8412
tp8413
Rp8414
tp8415
a(g68
g6
(g18
S'\xcd;\x8b;'
p8416
tp8417
Rp8418
tp8419
asg73
g32
sa(dp8420
g2
S'../../../data/emanuela/activity-recognition/images/NTCIR-Lifelog-256/u2/2015-05-07/b00007534_21i7lf_20150507_105825e.jpg'
p8421
sg4
(lp8422
(g32
g6
(g18
S'X\xcbn?'
p8423
tp8424
Rp8425
tp8426
a(g15
g6
(g18
S'\xc6(C='
p8427
tp8428
Rp8429
tp8430
a(g68
g6
(g18
S'5\xd8\x13<'
p8431
tp8432
Rp8433
tp8434
a(g56
g6
(g18
S'28\x9f;'
p8435
tp8436
Rp8437
tp8438
a(g44
g6
(g18
S'\xe0x\x99;'
p8439
tp8440
Rp8441
tp8442
asg73
g32
sa(dp8443
g2
S'../../../data/emanuela/activity-recognition/images/NTCIR-Lifelog-256/u2/2015-04-26/b00004217_21i7lf_20150426_163219e.jpg'
p8444
sg4
(lp8445
(g32
g6
(g18
S'`\xacZ?'
p8446
tp8447
Rp8448
tp8449
a(g15
g6
(g18
S'\xab\xaev='
p8450
tp8451
Rp8452
tp8453
a(g56
g6
(g18
S'\x9e\x19\xce<'
p8454
tp8455
Rp8456
tp8457
a(g96
g6
(g18
S'g\xdb\xb9<'
p8458
tp8459
Rp8460
tp8461
a(g317
g6
(g18
S'g\\\x80<'
p8462
tp8463
Rp8464
tp8465
asg73
g32
sa(dp8466
g2
S'../../../data/emanuela/activity-recognition/images/NTCIR-Lifelog-256/u2/2015-05-03/b00003890_21i7lf_20150503_155104e.jpg'
p8467
sg4
(lp8468
(g32
g6
(g18
S'\x193\xa5>'
p8469
tp8470
Rp8471
tp8472
a(g15
g6
(g18
S'\xae7B>'
p8473
tp8474
Rp8475
tp8476
a(g228
g6
(g18
S'\x00\x8a\x01>'
p8477
tp8478
Rp8479
tp8480
a(g317
g6
(g18
S'\xd4\xce\xb5='
p8481
tp8482
Rp8483
tp8484
a(g96
g6
(g18
S'\x19\x80\x94='
p8485
tp8486
Rp8487
tp8488
asg73
g32
sa(dp8489
g2
S'../../../data/emanuela/activity-recognition/images/NTCIR-Lifelog-256/u2/2015-05-08/b00009001_21i7lf_20150508_123838e.jpg'
p8490
sg4
(lp8491
(g32
g6
(g18
S'\x86w\x1e?'
p8492
tp8493
Rp8494
tp8495
a(g15
g6
(g18
S'\xa7\x9f\xc2>'
p8496
tp8497
Rp8498
tp8499
a(g56
g6
(g18
S'\xc2\x82\xc19'
p8500
tp8501
Rp8502
tp8503
a(g44
g6
(g18
S'\x1d\x87V9'
p8504
tp8505
Rp8506
tp8507
a(g162
g6
(g18
S'_\x7f\x0c9'
p8508
tp8509
Rp8510
tp8511
asg73
g32
sa(dp8512
g2
S'../../../data/emanuela/activity-recognition/images/NTCIR-Lifelog-256/u2/2015-05-07/b00007558_21i7lf_20150507_111305e.jpg'
p8513
sg4
(lp8514
(g32
g6
(g18
S'\xb9\x07\xf7>'
p8515
tp8516
Rp8517
tp8518
a(g15
g6
(g18
S'\x14\x97\xbe>'
p8519
tp8520
Rp8521
tp8522
a(g44
g6
(g18
S'<\x0c\x8e='
p8523
tp8524
Rp8525
tp8526
a(g56
g6
(g18
S'\x82(\xa0<'
p8527
tp8528
Rp8529
tp8530
a(g317
g6
(g18
S'\xb1\xfcz<'
p8531
tp8532
Rp8533
tp8534
asg73
g32
sa(dp8535
g2
S'../../../data/emanuela/activity-recognition/images/NTCIR-Lifelog-256/u2/2015-05-03/b00003808_21i7lf_20150503_150038e.jpg'
p8536
sg4
(lp8537
(g96
g6
(g18
S'\xa0m\xdc>'
p8538
tp8539
Rp8540
tp8541
a(g108
g6
(g18
S'\x06\xd1[>'
p8542
tp8543
Rp8544
tp8545
a(g56
g6
(g18
S'\xf2k\x1b>'
p8546
tp8547
Rp8548
tp8549
a(g32
g6
(g18
S'\xf7\xda\xd6='
p8550
tp8551
Rp8552
tp8553
a(g15
g6
(g18
S'\xe3x\xc7<'
p8554
tp8555
Rp8556
tp8557
asg73
g32
sa(dp8558
g2
S'../../../data/emanuela/activity-recognition/images/NTCIR-Lifelog-256/u2/2015-05-05/b00005334_21i7lf_20150505_120914e.jpg'
p8559
sg4
(lp8560
(g32
g6
(g18
S'\xc4\xd3\x1c?'
p8561
tp8562
Rp8563
tp8564
a(g15
g6
(g18
S'~\x8a\xc3>'
p8565
tp8566
Rp8567
tp8568
a(g56
g6
(g18
S'\xd4\xe8A;'
p8569
tp8570
Rp8571
tp8572
a(g68
g6
(g18
S'\xf0\x05%:'
p8573
tp8574
Rp8575
tp8576
a(g96
g6
(g18
S'm\x90\xba9'
p8577
tp8578
Rp8579
tp8580
asg73
g32
sa(dp8581
g2
S'../../../data/emanuela/activity-recognition/images/NTCIR-Lifelog-256/u2/2015-04-30/b00001016_21i7lf_20150430_130849e.jpg'
p8582
sg4
(lp8583
(g32
g6
(g18
S':x\x0b?'
p8584
tp8585
Rp8586
tp8587
a(g15
g6
(g18
S'\xd7\xaf\xe6>'
p8588
tp8589
Rp8590
tp8591
a(g56
g6
(g18
S'\xb5\x1a\xf7:'
p8592
tp8593
Rp8594
tp8595
a(g68
g6
(g18
S'\xd1\xe7f:'
p8596
tp8597
Rp8598
tp8599
a(g162
g6
(g18
S'\xa4X\r:'
p8600
tp8601
Rp8602
tp8603
asg73
g32
sa(dp8604
g2
S'../../../data/emanuela/activity-recognition/images/NTCIR-Lifelog-256/u2/2015-05-03/b00003861_21i7lf_20150503_153246e.jpg'
p8605
sg4
(lp8606
(g15
g6
(g18
S'\xb46;?'
p8607
tp8608
Rp8609
tp8610
a(g32
g6
(g18
S'\xa8g\x86>'
p8611
tp8612
Rp8613
tp8614
a(g56
g6
(g18
S'\xf7\xa3\x81;'
p8615
tp8616
Rp8617
tp8618
a(g44
g6
(g18
S'\x03}\x8a:'
p8619
tp8620
Rp8621
tp8622
a(g204
g6
(g18
S'^\xc4\x0f:'
p8623
tp8624
Rp8625
tp8626
asg73
g32
sa(dp8627
g2
S'../../../data/emanuela/activity-recognition/images/NTCIR-Lifelog-256/u2/2015-05-08/b00008995_21i7lf_20150508_123450e.jpg'
p8628
sg4
(lp8629
(g15
g6
(g18
S'S"B?'
p8630
tp8631
Rp8632
tp8633
a(g32
g6
(g18
S'\xcd\xb3v>'
p8634
tp8635
Rp8636
tp8637
a(g44
g6
(g18
S'PHT9'
p8638
tp8639
Rp8640
tp8641
a(g56
g6
(g18
S'\xf8\x1cB9'
p8642
tp8643
Rp8644
tp8645
a(g1821
g6
(g18
S'\xb5G\xa38'
p8646
tp8647
Rp8648
tp8649
asg73
g32
sa(dp8650
g2
S'../../../data/emanuela/activity-recognition/images/NTCIR-Lifelog-256/u2/2015-05-07/b00007553_21i7lf_20150507_110958e.jpg'
p8651
sg4
(lp8652
(g32
g6
(g18
S'\xae\xd2\x08?'
p8653
tp8654
Rp8655
tp8656
a(g15
g6
(g18
S'\xb7\x00\xa8>'
p8657
tp8658
Rp8659
tp8660
a(g44
g6
(g18
S'dP\xea='
p8661
tp8662
Rp8663
tp8664
a(g317
g6
(g18
S'\xbbZ\t<'
p8665
tp8666
Rp8667
tp8668
a(g56
g6
(g18
S'\xce&h;'
p8669
tp8670
Rp8671
tp8672
asg73
g32
sa(dp8673
g2
S'../../../data/emanuela/activity-recognition/images/NTCIR-Lifelog-256/u2/2015-05-08/b00009015_21i7lf_20150508_124717e.jpg'
p8674
sg4
(lp8675
(g15
g6
(g18
S'\xbd\xc2W?'
p8676
tp8677
Rp8678
tp8679
a(g32
g6
(g18
S'E\xbb >'
p8680
tp8681
Rp8682
tp8683
a(g44
g6
(g18
S'\xce\x8e\x928'
p8684
tp8685
Rp8686
tp8687
a(g162
g6
(g18
S'\xd7\xed;8'
p8688
tp8689
Rp8690
tp8691
a(g56
g6
(g18
S'R\xd1\x158'
p8692
tp8693
Rp8694
tp8695
asg73
g32
sa(dp8696
g2
S'../../../data/emanuela/activity-recognition/images/NTCIR-Lifelog-256/u2/2015-05-01/b00002596_21i7lf_20150501_182441e.jpg'
p8697
sg4
(lp8698
(g32
g6
(g18
S'L\xccD?'
p8699
tp8700
Rp8701
tp8702
a(g15
g6
(g18
S'?T\xe0='
p8703
tp8704
Rp8705
tp8706
a(g56
g6
(g18
S'z\x00\x82='
p8707
tp8708
Rp8709
tp8710
a(g68
g6
(g18
S'1\x1e-='
p8711
tp8712
Rp8713
tp8714
a(g44
g6
(g18
S'5"\xa1;'
p8715
tp8716
Rp8717
tp8718
asg73
g32
sa(dp8719
g2
S'../../../data/emanuela/activity-recognition/images/NTCIR-Lifelog-256/u2/2015-04-20/b00000291_21i7lf_20150420_123317e.jpg'
p8720
sg4
(lp8721
(g15
g6
(g18
S'\x17\xa8P?'
p8722
tp8723
Rp8724
tp8725
a(g32
g6
(g18
S'\xb5\xca\xa3='
p8726
tp8727
Rp8728
tp8729
a(g56
g6
(g18
S'\x01\xcc\x99='
p8730
tp8731
Rp8732
tp8733
a(g68
g6
(g18
S'\xe6\x1d\xab<'
p8734
tp8735
Rp8736
tp8737
a(g282
g6
(g18
S'\xa3\x04Y;'
p8738
tp8739
Rp8740
tp8741
asg73
g32
sa(dp8742
g2
S'../../../data/emanuela/activity-recognition/images/NTCIR-Lifelog-256/u2/2015-04-26/b00004219_21i7lf_20150426_163451e.jpg'
p8743
sg4
(lp8744
(g15
g6
(g18
S'\xc1\xce\x86>'
p8745
tp8746
Rp8747
tp8748
a(g56
g6
(g18
S'2\x0bt>'
p8749
tp8750
Rp8751
tp8752
a(g32
g6
(g18
S'\xf3\x94?>'
p8753
tp8754
Rp8755
tp8756
a(g317
g6
(g18
S'\x94\x02\x0b>'
p8757
tp8758
Rp8759
tp8760
a(g228
g6
(g18
S'o\n\xc6<'
p8761
tp8762
Rp8763
tp8764
asg73
g32
sa(dp8765
g2
S'../../../data/emanuela/activity-recognition/images/NTCIR-Lifelog-256/u2/2015-05-08/b00009004_21i7lf_20150508_124030e.jpg'
p8766
sg4
(lp8767
(g15
g6
(g18
S'\xd7\xf00?'
p8768
tp8769
Rp8770
tp8771
a(g32
g6
(g18
S'j\xe9\x9d>'
p8772
tp8773
Rp8774
tp8775
a(g56
g6
(g18
S'\x9b\xbd\x1f9'
p8776
tp8777
Rp8778
tp8779
a(g44
g6
(g18
S'\xebl\xe58'
p8780
tp8781
Rp8782
tp8783
a(g162
g6
(g18
S'\xa1\xda18'
p8784
tp8785
Rp8786
tp8787
asg73
g32
sa(dp8788
g2
S'../../../data/emanuela/activity-recognition/images/NTCIR-Lifelog-256/u2/2015-05-03/b00003880_21i7lf_20150503_154422e.jpg'
p8789
sg4
(lp8790
(g32
g6
(g18
S'\r\xd6-?'
p8791
tp8792
Rp8793
tp8794
a(g15
g6
(g18
S'\xa0\xa7J>'
p8795
tp8796
Rp8797
tp8798
a(g56
g6
(g18
S'\xe7W\xda='
p8799
tp8800
Rp8801
tp8802
a(g44
g6
(g18
S'\x97\xa9\xb2;'
p8803
tp8804
Rp8805
tp8806
a(g68
g6
(g18
S'E``;'
p8807
tp8808
Rp8809
tp8810
asg73
g32
sa(dp8811
g2
S'../../../data/emanuela/activity-recognition/images/NTCIR-Lifelog-256/u2/2015-05-02/b00003274_21i7lf_20150502_143630e.jpg'
p8812
sg4
(lp8813
(g15
g6
(g18
S'\x0e\xdf\xe6>'
p8814
tp8815
Rp8816
tp8817
a(g68
g6
(g18
S'D\xb8\x07>'
p8818
tp8819
Rp8820
tp8821
a(g216
g6
(g18
S'\xdd\x1d\x04>'
p8822
tp8823
Rp8824
tp8825
a(g1967
g6
(g18
S'\x19\xea\xa6='
p8826
tp8827
Rp8828
tp8829
a(g56
g6
(g18
S'X\x1b\x02='
p8830
tp8831
Rp8832
tp8833
asg73
g32
sa(dp8834
g2
S'../../../data/emanuela/activity-recognition/images/NTCIR-Lifelog-256/u2/2015-05-03/b00003820_21i7lf_20150503_150742e.jpg'
p8835
sg4
(lp8836
(g15
g6
(g18
S'\xf5\xd2r>'
p8837
tp8838
Rp8839
tp8840
a(g228
g6
(g18
S'\xe3\xebY>'
p8841
tp8842
Rp8843
tp8844
a(g371
g6
(g18
S'\x8d\x1eR>'
p8845
tp8846
Rp8847
tp8848
a(g317
g6
(g18
S'\xf3\xd7\x13>'
p8849
tp8850
Rp8851
tp8852
a(g56
g6
(g18
S'\x17\x99\x98='
p8853
tp8854
Rp8855
tp8856
asg73
g32
sa(dp8857
g2
S'../../../data/emanuela/activity-recognition/images/NTCIR-Lifelog-256/u2/2015-05-03/b00003821_21i7lf_20150503_150817e.jpg'
p8858
sg4
(lp8859
(g15
g6
(g18
S'\xa7\xdc\xa3>'
p8860
tp8861
Rp8862
tp8863
a(g228
g6
(g18
S'\xde|]>'
p8864
tp8865
Rp8866
tp8867
a(g317
g6
(g18
S'\xe4\x95\x14>'
p8868
tp8869
Rp8870
tp8871
a(g371
g6
(g18
S'\xf1\xb4\xec='
p8872
tp8873
Rp8874
tp8875
a(g56
g6
(g18
S'\xbc\xb8\xa5='
p8876
tp8877
Rp8878
tp8879
asg73
g32
sa(dp8880
g2
S'../../../data/emanuela/activity-recognition/images/NTCIR-Lifelog-256/u2/2015-05-06/b00006615_21i7lf_20150506_123609e.jpg'
p8881
sg4
(lp8882
(g15
g6
(g18
S'L\xe7l?'
p8883
tp8884
Rp8885
tp8886
a(g32
g6
(g18
S'\xbc\x91\x90='
p8887
tp8888
Rp8889
tp8890
a(g56
g6
(g18
S'>\xd5\x9b:'
p8891
tp8892
Rp8893
tp8894
a(g228
g6
(g18
S'pz\x1b:'
p8895
tp8896
Rp8897
tp8898
a(g216
g6
(g18
S'\xa95\xf49'
p8899
tp8900
Rp8901
tp8902
asg73
g32
sa(dp8903
g2
S'../../../data/emanuela/activity-recognition/images/NTCIR-Lifelog-256/u2/2015-05-07/b00007547_21i7lf_20150507_110632e.jpg'
p8904
sg4
(lp8905
(g32
g6
(g18
S'enJ?'
p8906
tp8907
Rp8908
tp8909
a(g15
g6
(g18
S'\xee\xce#>'
p8910
tp8911
Rp8912
tp8913
a(g44
g6
(g18
S'\xd1z"='
p8914
tp8915
Rp8916
tp8917
a(g68
g6
(g18
S'<\x19a;'
p8918
tp8919
Rp8920
tp8921
a(g56
g6
(g18
S'W\xc7\x1b;'
p8922
tp8923
Rp8924
tp8925
asg73
g32
sa(dp8926
g2
S'../../../data/emanuela/activity-recognition/images/NTCIR-Lifelog-256/u2/2015-05-03/b00003849_21i7lf_20150503_152532e.jpg'
p8927
sg4
(lp8928
(g32
g6
(g18
S'\x94[\xdd>'
p8929
tp8930
Rp8931
tp8932
a(g15
g6
(g18
S'\xd8\xbd\x97>'
p8933
tp8934
Rp8935
tp8936
a(g56
g6
(g18
S'V\x07]>'
p8937
tp8938
Rp8939
tp8940
a(g228
g6
(g18
S'\x98\xc7j<'
p8941
tp8942
Rp8943
tp8944
a(g317
g6
(g18
S'\x9a}\xeb;'
p8945
tp8946
Rp8947
tp8948
asg73
g32
sa(dp8949
g2
S'../../../data/emanuela/activity-recognition/images/NTCIR-Lifelog-256/u2/2015-05-07/b00007550_21i7lf_20150507_110816e.jpg'
p8950
sg4
(lp8951
(g15
g6
(g18
S'`]9?'
p8952
tp8953
Rp8954
tp8955
a(g32
g6
(g18
S'\x13):>'
p8956
tp8957
Rp8958
tp8959
a(g44
g6
(g18
S'\x1cY\xae='
p8960
tp8961
Rp8962
tp8963
a(g317
g6
(g18
S'\xb4\xe3W;'
p8964
tp8965
Rp8966
tp8967
a(g162
g6
(g18
S'6\xf3K;'
p8968
tp8969
Rp8970
tp8971
asg73
g32
sa(dp8972
g2
S'../../../data/emanuela/activity-recognition/images/NTCIR-Lifelog-256/u2/2015-05-03/b00003873_21i7lf_20150503_154003e.jpg'
p8973
sg4
(lp8974
(g32
g6
(g18
S'\xd6\xacn?'
p8975
tp8976
Rp8977
tp8978
a(g15
g6
(g18
S'\xb9\xdf\x89='
p8979
tp8980
Rp8981
tp8982
a(g56
g6
(g18
S'wiX9'
p8983
tp8984
Rp8985
tp8986
a(g44
g6
(g18
S'|\x0c\xbf8'
p8987
tp8988
Rp8989
tp8990
a(g68
g6
(g18
S'G\xd8\xc87'
p8991
tp8992
Rp8993
tp8994
asg73
g32
sa(dp8995
g2
S'../../../data/emanuela/activity-recognition/images/NTCIR-Lifelog-256/u2/2015-04-20/b00000299_21i7lf_20150420_123818e.jpg'
p8996
sg4
(lp8997
(g32
g6
(g18
S'\xe7rO?'
p8998
tp8999
Rp9000
tp9001
a(g15
g6
(g18
S'[\x1a\xa2='
p9002
tp9003
Rp9004
tp9005
a(g56
g6
(g18
S'0\xcb\r='
p9006
tp9007
Rp9008
tp9009
a(g68
g6
(g18
S'\x9c\x87\xcd<'
p9010
tp9011
Rp9012
tp9013
a(g44
g6
(g18
S'b\x8b\x94<'
p9014
tp9015
Rp9016
tp9017
asg73
g32
sa(dp9018
g2
S'../../../data/emanuela/activity-recognition/images/NTCIR-Lifelog-256/u2/2015-05-05/b00005343_21i7lf_20150505_121445e.jpg'
p9019
sg4
(lp9020
(g32
g6
(g18
S'\xf3\xa6u?'
p9021
tp9022
Rp9023
tp9024
a(g15
g6
(g18
S'\xc3"\xe2<'
p9025
tp9026
Rp9027
tp9028
a(g96
g6
(g18
S'\xd0\x9a\x9d;'
p9029
tp9030
Rp9031
tp9032
a(g56
g6
(g18
S'\x0f\xdc\x99;'
p9033
tp9034
Rp9035
tp9036
a(g108
g6
(g18
S'\xfdz\x00;'
p9037
tp9038
Rp9039
tp9040
asg73
g32
sa(dp9041
g2
S'../../../data/emanuela/activity-recognition/images/NTCIR-Lifelog-256/u2/2015-04-28/b00006677_21i7lf_20150428_124911e.jpg'
p9042
sg4
(lp9043
(g701
g6
(g18
S'\xb7\x86\xb6>'
p9044
tp9045
Rp9046
tp9047
a(g282
g6
(g18
S'\xa3q\xbf='
p9048
tp9049
Rp9050
tp9051
a(g15
g6
(g18
S'\x84|\xb6='
p9052
tp9053
Rp9054
tp9055
a(g317
g6
(g18
S':\x98\xaf='
p9056
tp9057
Rp9058
tp9059
a(g96
g6
(g18
S'\x04\x12\xae='
p9060
tp9061
Rp9062
tp9063
asg73
g32
sa(dp9064
g2
S'../../../data/emanuela/activity-recognition/images/NTCIR-Lifelog-256/u2/2015-04-30/b00001026_21i7lf_20150430_131459e.jpg'
p9065
sg4
(lp9066
(g32
g6
(g18
S'l\xee6?'
p9067
tp9068
Rp9069
tp9070
a(g15
g6
(g18
S'\\\x91\x8f>'
p9071
tp9072
Rp9073
tp9074
a(g56
g6
(g18
S'\x0c\xe0~;'
p9075
tp9076
Rp9077
tp9078
a(g44
g6
(g18
S'8\x10\x9f9'
p9079
tp9080
Rp9081
tp9082
a(g96
g6
(g18
S'\xcc\xf5X9'
p9083
tp9084
Rp9085
tp9086
asg73
g32
sa(dp9087
g2
S'../../../data/emanuela/activity-recognition/images/NTCIR-Lifelog-256/u2/2015-05-08/b00009020_21i7lf_20150508_125024e.jpg'
p9088
sg4
(lp9089
(g15
g6
(g18
S'\x93-<?'
p9090
tp9091
Rp9092
tp9093
a(g32
g6
(g18
S'\xa3\xa1\x82>'
p9094
tp9095
Rp9096
tp9097
a(g56
g6
(g18
S'\x8c\xaa\xc4;'
p9098
tp9099
Rp9100
tp9101
a(g108
g6
(g18
S'C\xc2\xba:'
p9102
tp9103
Rp9104
tp9105
a(g282
g6
(g18
S'\xbca\xa8:'
p9106
tp9107
Rp9108
tp9109
asg73
g32
sa(dp9110
g2
S'../../../data/emanuela/activity-recognition/images/NTCIR-Lifelog-256/u2/2015-05-03/b00003870_21i7lf_20150503_153813e.jpg'
p9111
sg4
(lp9112
(g32
g6
(g18
S'\xbee8?'
p9113
tp9114
Rp9115
tp9116
a(g15
g6
(g18
S'\xaa\x1b\x87>'
p9117
tp9118
Rp9119
tp9120
a(g56
g6
(g18
S'\x02\xedY<'
p9121
tp9122
Rp9123
tp9124
a(g44
g6
(g18
S'\xca\x04=:'
p9125
tp9126
Rp9127
tp9128
a(g68
g6
(g18
S'{\x96\xa59'
p9129
tp9130
Rp9131
tp9132
asg73
g32
sa(dp9133
g2
S'../../../data/emanuela/activity-recognition/images/NTCIR-Lifelog-256/u2/2015-05-03/b00003839_21i7lf_20150503_151923e.jpg'
p9134
sg4
(lp9135
(g228
g6
(g18
S'KKs>'
p9136
tp9137
Rp9138
tp9139
a(g15
g6
(g18
S'\n\xa9B>'
p9140
tp9141
Rp9142
tp9143
a(g108
g6
(g18
S'\x8e\xf3\x1d>'
p9144
tp9145
Rp9146
tp9147
a(g317
g6
(g18
S'i\xc8\xad='
p9148
tp9149
Rp9150
tp9151
a(g32
g6
(g18
S'\x19\xdb|='
p9152
tp9153
Rp9154
tp9155
asg73
g32
sa(dp9156
g2
S'../../../data/emanuela/activity-recognition/images/NTCIR-Lifelog-256/u2/2015-05-01/b00002110_21i7lf_20150501_122948e.jpg'
p9157
sg4
(lp9158
(g15
g6
(g18
S'\xe4t\x15?'
p9159
tp9160
Rp9161
tp9162
a(g32
g6
(g18
S'\xdb\x05\xd5>'
p9163
tp9164
Rp9165
tp9166
a(g56
g6
(g18
S'[\xd0\xc58'
p9167
tp9168
Rp9169
tp9170
a(g44
g6
(g18
S'o\x05\xbd7'
p9171
tp9172
Rp9173
tp9174
a(g68
g6
(g18
S'\xcb4\x886'
p9175
tp9176
Rp9177
tp9178
asg73
g32
sa(dp9179
g2
S'../../../data/emanuela/activity-recognition/images/NTCIR-Lifelog-256/u2/2015-04-30/b00001024_21i7lf_20150430_131349e.jpg'
p9180
sg4
(lp9181
(g15
g6
(g18
S'\x8dA3?'
p9182
tp9183
Rp9184
tp9185
a(g32
g6
(g18
S'\xec\xba\x98>'
p9186
tp9187
Rp9188
tp9189
a(g56
g6
(g18
S'\xca\xcer:'
p9190
tp9191
Rp9192
tp9193
a(g44
g6
(g18
S'\x9c[n9'
p9194
tp9195
Rp9196
tp9197
a(g216
g6
(g18
S'\xffPq8'
p9198
tp9199
Rp9200
tp9201
asg73
g32
sa(dp9202
g2
S'../../../data/emanuela/activity-recognition/images/NTCIR-Lifelog-256/u2/2015-05-01/b00002122_21i7lf_20150501_123704e.jpg'
p9203
sg4
(lp9204
(g32
g6
(g18
S'[W\x14?'
p9205
tp9206
Rp9207
tp9208
a(g15
g6
(g18
S'\x0b\xc7\xd1>'
p9209
tp9210
Rp9211
tp9212
a(g56
g6
(g18
S"\x8c\xaa'<"
p9213
tp9214
Rp9215
tp9216
a(g44
g6
(g18
S'\x80\x9f\xee8'
p9217
tp9218
Rp9219
tp9220
a(g108
g6
(g18
S'J1\xad8'
p9221
tp9222
Rp9223
tp9224
asg73
g32
sa(dp9225
g2
S'../../../data/emanuela/activity-recognition/images/NTCIR-Lifelog-256/u2/2015-05-01/b00002604_21i7lf_20150501_182937e.jpg'
p9226
sg4
(lp9227
(g15
g6
(g18
S'\xa4\x94D?'
p9228
tp9229
Rp9230
tp9231
a(g56
g6
(g18
S'\xeb\x9d\x94='
p9232
tp9233
Rp9234
tp9235
a(g32
g6
(g18
S'\xb5&,='
p9236
tp9237
Rp9238
tp9239
a(g68
g6
(g18
S'.\xea\x05='
p9240
tp9241
Rp9242
tp9243
a(g1967
g6
(g18
S'\x1b \x95<'
p9244
tp9245
Rp9246
tp9247
asg73
g32
sa(dp9248
g2
S'../../../data/emanuela/activity-recognition/images/NTCIR-Lifelog-256/u2/2015-05-01/b00002130_21i7lf_20150501_124158e.jpg'
p9249
sg4
(lp9250
(g15
g6
(g18
S"\x05\x93'?"
p9251
tp9252
Rp9253
tp9254
a(g32
g6
(g18
S'\xccz\x95>'
p9255
tp9256
Rp9257
tp9258
a(g56
g6
(g18
S'U\x8a\xd7<'
p9259
tp9260
Rp9261
tp9262
a(g282
g6
(g18
S'!\xb1\x0e<'
p9263
tp9264
Rp9265
tp9266
a(g228
g6
(g18
S'\xc2`e;'
p9267
tp9268
Rp9269
tp9270
asg73
g32
sa(dp9271
g2
S'../../../data/emanuela/activity-recognition/images/NTCIR-Lifelog-256/u2/2015-05-03/b00003842_21i7lf_20150503_152112e.jpg'
p9272
sg4
(lp9273
(g32
g6
(g18
S'S\xae\xfc>'
p9274
tp9275
Rp9276
tp9277
a(g56
g6
(g18
S'j\x0e}>'
p9278
tp9279
Rp9280
tp9281
a(g15
g6
(g18
S'\x9e\xd22>'
p9282
tp9283
Rp9284
tp9285
a(g68
g6
(g18
S'L\xda\xec<'
p9286
tp9287
Rp9288
tp9289
a(g108
g6
(g18
S'Qfu<'
p9290
tp9291
Rp9292
tp9293
asg73
g32
sa(dp9294
g2
S'../../../data/emanuela/activity-recognition/images/NTCIR-Lifelog-256/u2/2015-04-30/b00001014_21i7lf_20150430_130741e.jpg'
p9295
sg4
(lp9296
(g32
g6
(g18
S'\x99\xedw?'
p9297
tp9298
Rp9299
tp9300
a(g15
g6
(g18
S'\x83\xff\xf3<'
p9301
tp9302
Rp9303
tp9304
a(g68
g6
(g18
S'\xb2jl:'
p9305
tp9306
Rp9307
tp9308
a(g56
g6
(g18
S'\x9a\xb6\x1a:'
p9309
tp9310
Rp9311
tp9312
a(g44
g6
(g18
S'\xa0\x12\xa18'
p9313
tp9314
Rp9315
tp9316
asg73
g32
sa(dp9317
g2
S'../../../data/emanuela/activity-recognition/images/NTCIR-Lifelog-256/u2/2015-04-21/b00000332_21i7lf_20150421_131711e.jpg'
p9318
sg4
(lp9319
(g32
g6
(g18
S'>/V?'
p9320
tp9321
Rp9322
tp9323
a(g15
g6
(g18
S'+\xb5&>'
p9324
tp9325
Rp9326
tp9327
a(g56
g6
(g18
S'\x00\xcc\xa09'
p9328
tp9329
Rp9330
tp9331
a(g68
g6
(g18
S"V\x07'9"
p9332
tp9333
Rp9334
tp9335
a(g44
g6
(g18
S'\xec\xd1\xe47'
p9336
tp9337
Rp9338
tp9339
asg73
g32
sa(dp9340
g2
S'../../../data/emanuela/activity-recognition/images/NTCIR-Lifelog-256/u2/2015-05-03/b00003892_21i7lf_20150503_155219e.jpg'
p9341
sg4
(lp9342
(g15
g6
(g18
S'[8\xc3>'
p9343
tp9344
Rp9345
tp9346
a(g32
g6
(g18
S'Nq\x9e>'
p9347
tp9348
Rp9349
tp9350
a(g56
g6
(g18
S'\xf1sA>'
p9351
tp9352
Rp9353
tp9354
a(g228
g6
(g18
S'\x07\x96\xae='
p9355
tp9356
Rp9357
tp9358
a(g204
g6
(g18
S'\x0f*[<'
p9359
tp9360
Rp9361
tp9362
asg73
g32
sa(dp9363
g2
S'../../../data/emanuela/activity-recognition/images/NTCIR-Lifelog-256/u2/2015-04-21/b00000358_21i7lf_20150421_133307e.jpg'
p9364
sg4
(lp9365
(g15
g6
(g18
S'\xb0\nv?'
p9366
tp9367
Rp9368
tp9369
a(g32
g6
(g18
S'Vr\x08='
p9370
tp9371
Rp9372
tp9373
a(g56
g6
(g18
S']\xa7d;'
p9374
tp9375
Rp9376
tp9377
a(g228
g6
(g18
S'\xda\xddp:'
p9378
tp9379
Rp9380
tp9381
a(g204
g6
(g18
S'9\xa8\xfb9'
p9382
tp9383
Rp9384
tp9385
asg73
g32
sa(dp9386
g2
S'../../../data/emanuela/activity-recognition/images/NTCIR-Lifelog-256/u2/2015-05-01/b00002114_21i7lf_20150501_123220e.jpg'
p9387
sg4
(lp9388
(g32
g6
(g18
S'\xaeO\x1c?'
p9389
tp9390
Rp9391
tp9392
a(g15
g6
(g18
S'\x982\xc7>'
p9393
tp9394
Rp9395
tp9396
a(g56
g6
(g18
S'\x14\x9aJ9'
p9397
tp9398
Rp9399
tp9400
a(g68
g6
(g18
S'U4\xe48'
p9401
tp9402
Rp9403
tp9404
a(g216
g6
(g18
S'\xf1\x99m7'
p9405
tp9406
Rp9407
tp9408
asg73
g32
sa(dp9409
g2
S'../../../data/emanuela/activity-recognition/images/NTCIR-Lifelog-256/u2/2015-05-07/b00007542_21i7lf_20150507_110323e.jpg'
p9410
sg4
(lp9411
(g32
g6
(g18
S'R\xbaE?'
p9412
tp9413
Rp9414
tp9415
a(g15
g6
(g18
S'\x17\xc27>'
p9416
tp9417
Rp9418
tp9419
a(g44
g6
(g18
S'\x89F\xfc<'
p9420
tp9421
Rp9422
tp9423
a(g68
g6
(g18
S'\xcc%\xaf;'
p9424
tp9425
Rp9426
tp9427
a(g56
g6
(g18
S'\x1a\x9c\x80;'
p9428
tp9429
Rp9430
tp9431
asg73
g32
sa(dp9432
g2
S'../../../data/emanuela/activity-recognition/images/NTCIR-Lifelog-256/u2/2015-05-03/b00003804_21i7lf_20150503_145813e.jpg'
p9433
sg4
(lp9434
(g701
g6
(g18
S'\x95\x0bE>'
p9435
tp9436
Rp9437
tp9438
a(g228
g6
(g18
S'\xea\xce\x1a>'
p9439
tp9440
Rp9441
tp9442
a(g282
g6
(g18
S'\x06h\x13>'
p9443
tp9444
Rp9445
tp9446
a(g216
g6
(g18
S'\xdc\x88\x0c>'
p9447
tp9448
Rp9449
tp9450
a(g15
g6
(g18
S'U\x00\xa6='
p9451
tp9452
Rp9453
tp9454
asg73
g32
sa(dp9455
g2
S'../../../data/emanuela/activity-recognition/images/NTCIR-Lifelog-256/u2/2015-05-01/b00002126_21i7lf_20150501_123932e.jpg'
p9456
sg4
(lp9457
(g15
g6
(g18
S'\xa5Yn?'
p9458
tp9459
Rp9460
tp9461
a(g32
g6
(g18
S'\xad\xc1\x88='
p9462
tp9463
Rp9464
tp9465
a(g56
g6
(g18
S'\xf2T\xe0:'
p9466
tp9467
Rp9468
tp9469
a(g282
g6
(g18
S'\x14\x86P9'
p9470
tp9471
Rp9472
tp9473
a(g228
g6
(g18
S'\xa44\xcd8'
p9474
tp9475
Rp9476
tp9477
asg73
g32
sa(dp9478
g2
S'../../../data/emanuela/activity-recognition/images/NTCIR-Lifelog-256/u2/2015-04-26/b00004215_21i7lf_20150426_162949e.jpg'
p9479
sg4
(lp9480
(g32
g6
(g18
S'\x94au?'
p9481
tp9482
Rp9483
tp9484
a(g15
g6
(g18
S'\x95\xc6\xe7<'
p9485
tp9486
Rp9487
tp9488
a(g96
g6
(g18
S'\xdf)v;'
p9489
tp9490
Rp9491
tp9492
a(g56
g6
(g18
S':j4;'
p9493
tp9494
Rp9495
tp9496
a(g317
g6
(g18
S'\x82\x04\xdf:'
p9497
tp9498
Rp9499
tp9500
asg73
g32
sa.