(lp0
(dp1
S'image'
p2
S'../../../data/emanuela/activity-recognition/images/NTCIR-Lifelog-256/u3/2015-07-11/b00000212_21i79q_20150711_084712e.jpg'
p3
sS'result'
p4
(lp5
(cnumpy.core.multiarray
scalar
p6
(cnumpy
dtype
p7
(S'S7'
p8
I0
I1
tp9
Rp10
(I3
S'|'
p11
NNNI7
I1
I0
tp12
bS'reading'
p13
tp14
Rp15
g6
(g7
(S'f4'
p16
I0
I1
tp17
Rp18
(I3
S'<'
p19
NNNI-1
I-1
I0
tp20
bS'\x7f\xc2\xae>'
p21
tp22
Rp23
tp24
a(g6
(g7
(S'S7'
p25
I0
I1
tp26
Rp27
(I3
S'|'
p28
NNNI7
I1
I0
tp29
bS'cooking'
p30
tp31
Rp32
g6
(g18
S'+\xed\x93>'
p33
tp34
Rp35
tp36
a(g6
(g7
(S'S5'
p37
I0
I1
tp38
Rp39
(I3
S'|'
p40
NNNI5
I1
I0
tp41
bS'plane'
p42
tp43
Rp44
g6
(g18
S'\xa3\x86&>'
p45
tp46
Rp47
tp48
a(g6
(g7
(S'S19'
p49
I0
I1
tp50
Rp51
(I3
S'|'
p52
NNNI19
I1
I0
tp53
bS'cleaning and chores'
p54
tp55
Rp56
g6
(g18
S'\x7f\x03\x1c>'
p57
tp58
Rp59
tp60
a(g6
(g7
(S'S14'
p61
I0
I1
tp62
Rp63
(I3
S'|'
p64
NNNI14
I1
I0
tp65
bS'walking indoor'
p66
tp67
Rp68
g6
(g18
S'`\x1c\xb6<'
p69
tp70
Rp71
tp72
asS'label'
p73
g6
(g7
(S'S16'
p74
I0
I1
tp75
Rp76
(I3
S'|'
p77
NNNI16
I1
I0
tp78
bS'public transport'
p79
tp80
Rp81
sa(dp82
g2
S'../../../data/emanuela/activity-recognition/images/NTCIR-Lifelog-256/u3/2015-07-11/b00000136_21i79q_20150711_075943e.jpg'
p83
sg4
(lp84
(g44
g6
(g18
S'\xd5$\x89>'
p85
tp86
Rp87
tp88
a(g6
(g7
(S'S24'
p89
I0
I1
tp90
Rp91
(I3
S'|'
p92
NNNI24
I1
I0
tp93
bS'having drinks/meal alone'
p94
tp95
Rp96
g6
(g18
S'\xfa;\x85>'
p97
tp98
Rp99
tp100
a(g15
g6
(g18
S'y\x07\x1f>'
p101
tp102
Rp103
tp104
a(g56
g6
(g18
S'\t\xf8\xb5='
p105
tp106
Rp107
tp108
a(g6
(g7
(S'S6'
p109
I0
I1
tp110
Rp111
(I3
S'|'
p112
NNNI6
I1
I0
tp113
bS'mobile'
p114
tp115
Rp116
g6
(g18
S'j_\x8a='
p117
tp118
Rp119
tp120
asg73
g81
sa(dp121
g2
S'../../../data/emanuela/activity-recognition/images/NTCIR-Lifelog-256/u3/2015-07-11/b00000123_21i79q_20150711_075149e.jpg'
p122
sg4
(lp123
(g44
g6
(g18
S'\x0b\xec\xab>'
p124
tp125
Rp126
tp127
a(g15
g6
(g18
S'\xe4\xbdh>'
p128
tp129
Rp130
tp131
a(g56
g6
(g18
S'g16>'
p132
tp133
Rp134
tp135
a(g32
g6
(g18
S'$\x0b\xda='
p136
tp137
Rp138
tp139
a(g96
g6
(g18
S'qW\x9a='
p140
tp141
Rp142
tp143
asg73
g81
sa(dp144
g2
S'../../../data/emanuela/activity-recognition/images/NTCIR-Lifelog-256/u3/2015-07-15/b00000196_21i79q_20150715_135302e.jpg'
p145
sg4
(lp146
(g6
(g7
(S'S7'
p147
I0
I1
tp148
Rp149
(I3
S'|'
p150
NNNI7
I1
I0
tp151
bS'driving'
p152
tp153
Rp154
g6
(g18
S'\x86_\x84>'
p155
tp156
Rp157
tp158
a(g15
g6
(g18
S'\x8a\xc6\x83>'
p159
tp160
Rp161
tp162
a(g81
g6
(g18
S'[aJ>'
p163
tp164
Rp165
tp166
a(g96
g6
(g18
S'\xec}\x94='
p167
tp168
Rp169
tp170
a(g56
g6
(g18
S'\x0e$\x92='
p171
tp172
Rp173
tp174
asg73
g81
sa(dp175
g2
S'../../../data/emanuela/activity-recognition/images/NTCIR-Lifelog-256/u3/2015-07-28/b00003176_21i79q_20150728_162645e.jpg'
p176
sg4
(lp177
(g6
(g7
(S'S7'
p178
I0
I1
tp179
Rp180
(I3
S'|'
p181
NNNI7
I1
I0
tp182
bS'resting'
p183
tp184
Rp185
g6
(g18
S'\xc8:\xc6>'
p186
tp187
Rp188
tp189
a(g15
g6
(g18
S'\xd5cn>'
p190
tp191
Rp192
tp193
a(g6
(g7
(S'S7'
p194
I0
I1
tp195
Rp196
(I3
S'|'
p197
NNNI7
I1
I0
tp198
bS'talking'
p199
tp200
Rp201
g6
(g18
S'\x9c\xecc='
p202
tp203
Rp204
tp205
a(g68
g6
(g18
S'{\x9a@='
p206
tp207
Rp208
tp209
a(g116
g6
(g18
S"}\xd5'="
p210
tp211
Rp212
tp213
asg73
g81
sa(dp214
g2
S'../../../data/emanuela/activity-recognition/images/NTCIR-Lifelog-256/u3/2015-07-11/b00000101_21i79q_20150711_073913e.jpg'
p215
sg4
(lp216
(g116
g6
(g18
S'\xa2\x82\n?'
p217
tp218
Rp219
tp220
a(g32
g6
(g18
S'\xc6)/>'
p221
tp222
Rp223
tp224
a(g44
g6
(g18
S'\x88`\xdb='
p225
tp226
Rp227
tp228
a(g96
g6
(g18
S'\xb1:-='
p229
tp230
Rp231
tp232
a(g56
g6
(g18
S'\x80F\x1f='
p233
tp234
Rp235
tp236
asg73
g81
sa(dp237
g2
S'../../../data/emanuela/activity-recognition/images/NTCIR-Lifelog-256/u3/2015-07-28/b00002997_21i79q_20150728_144054e.jpg'
p238
sg4
(lp239
(g81
g6
(g18
S'\xd0\xce\xc9>'
p240
tp241
Rp242
tp243
a(g96
g6
(g18
S'\xde\xcc\xad>'
p244
tp245
Rp246
tp247
a(g6
(g7
(S'S25'
p248
I0
I1
tp249
Rp250
(I3
S'|'
p251
NNNI25
I1
I0
tp252
bS'having meal with somebody'
p253
tp254
Rp255
g6
(g18
S'\xadQ\x1d>'
p256
tp257
Rp258
tp259
a(g6
(g7
(S'S8'
p260
I0
I1
tp261
Rp262
(I3
S'|'
p263
NNNI8
I1
I0
tp264
bS'shopping'
p265
tp266
Rp267
g6
(g18
S'\xd9n\x10='
p268
tp269
Rp270
tp271
a(g68
g6
(g18
S'\xd1(\xe1<'
p272
tp273
Rp274
tp275
asg73
g81
sa(dp276
g2
S'../../../data/emanuela/activity-recognition/images/NTCIR-Lifelog-256/u3/2015-07-25/b00001096_21i79q_20150725_143414e.jpg'
p277
sg4
(lp278
(g116
g6
(g18
S'R\xd5:?'
p279
tp280
Rp281
tp282
a(g81
g6
(g18
S'w^?>'
p283
tp284
Rp285
tp286
a(g6
(g7
(S'S15'
p287
I0
I1
tp288
Rp289
(I3
S'|'
p290
NNNI15
I1
I0
tp291
bS'walking outdoor'
p292
tp293
Rp294
g6
(g18
S'L\xbb\xce<'
p295
tp296
Rp297
tp298
a(g96
g6
(g18
S'!B\xc3<'
p299
tp300
Rp301
tp302
a(g267
g6
(g18
S'N\xb5\x95<'
p303
tp304
Rp305
tp306
asg73
g81
sa(dp307
g2
S'../../../data/emanuela/activity-recognition/images/NTCIR-Lifelog-256/u3/2015-07-28/b00003048_21i79q_20150728_151021e.jpg'
p308
sg4
(lp309
(g81
g6
(g18
S'V\x7fm?'
p310
tp311
Rp312
tp313
a(g294
g6
(g18
S'\xcf\x0b/='
p314
tp315
Rp316
tp317
a(g96
g6
(g18
S'tv8<'
p318
tp319
Rp320
tp321
a(g116
g6
(g18
S'\x8bhs;'
p322
tp323
Rp324
tp325
a(g68
g6
(g18
S'\x92\x058;'
p326
tp327
Rp328
tp329
asg73
g81
sa(dp330
g2
S'../../../data/emanuela/activity-recognition/images/NTCIR-Lifelog-256/u3/2015-07-28/b00003170_21i79q_20150728_162310e.jpg'
p331
sg4
(lp332
(g185
g6
(g18
S'\xd9\x1a@>'
p333
tp334
Rp335
tp336
a(g96
g6
(g18
S'\x93\xb1#>'
p337
tp338
Rp339
tp340
a(g294
g6
(g18
S'*\xbf!>'
p341
tp342
Rp343
tp344
a(g68
g6
(g18
S'\x01d\xad='
p345
tp346
Rp347
tp348
a(g255
g6
(g18
S'\xac\x95\x94='
p349
tp350
Rp351
tp352
asg73
g81
sa(dp353
g2
S'../../../data/emanuela/activity-recognition/images/NTCIR-Lifelog-256/u3/2015-07-18/b00000057_21i79q_20150718_115649e.jpg'
p354
sg4
(lp355
(g116
g6
(g18
S'\xfe\x14\x14?'
p356
tp357
Rp358
tp359
a(g96
g6
(g18
S'w\x16;>'
p360
tp361
Rp362
tp363
a(g6
(g7
(S'S7'
p364
I0
I1
tp365
Rp366
(I3
S'|'
p367
NNNI7
I1
I0
tp368
bS'working'
p369
tp370
Rp371
g6
(g18
S'\xa7\xc9&='
p372
tp373
Rp374
tp375
a(g81
g6
(g18
S'=\xcb ='
p376
tp377
Rp378
tp379
a(g6
(g7
(S'S11'
p380
I0
I1
tp381
Rp382
(I3
S'|'
p383
NNNI11
I1
I0
tp384
bS'socializing'
p385
tp386
Rp387
g6
(g18
S'\x86\xa7\x00='
p388
tp389
Rp390
tp391
asg73
g81
sa(dp392
g2
S'../../../data/emanuela/activity-recognition/images/NTCIR-Lifelog-256/u3/2015-08-01/b00006142_21i79q_20150801_123913e.jpg'
p393
sg4
(lp394
(g81
g6
(g18
S'\xcf\xe1%?'
p395
tp396
Rp397
tp398
a(g387
g6
(g18
S'vy\xe2='
p399
tp400
Rp401
tp402
a(g116
g6
(g18
S'\xb8\x02\x97='
p403
tp404
Rp405
tp406
a(g6
(g7
(S'S27'
p407
I0
I1
tp408
Rp409
(I3
S'|'
p410
NNNI27
I1
I0
tp411
bS'having drinks with somebody'
p412
tp413
Rp414
g6
(g18
S'\x16\x1a\x83='
p415
tp416
Rp417
tp418
a(g294
g6
(g18
S'B\xfb6='
p419
tp420
Rp421
tp422
asg73
g81
sa(dp423
g2
S'../../../data/emanuela/activity-recognition/images/NTCIR-Lifelog-256/u3/2015-07-18/b00000062_21i79q_20150718_115942e.jpg'
p424
sg4
(lp425
(g294
g6
(g18
S'Z$A>'
p426
tp427
Rp428
tp429
a(g81
g6
(g18
S'\xabH=>'
p430
tp431
Rp432
tp433
a(g371
g6
(g18
S'\xbfU\xeb='
p434
tp435
Rp436
tp437
a(g116
g6
(g18
S'\xd41\xde='
p438
tp439
Rp440
tp441
a(g185
g6
(g18
S'\xfa\x80\xad='
p442
tp443
Rp444
tp445
asg73
g81
sa(dp446
g2
S'../../../data/emanuela/activity-recognition/images/NTCIR-Lifelog-256/u3/2015-07-18/b00000162_21i79q_20150718_125413e.jpg'
p447
sg4
(lp448
(g116
g6
(g18
S'\x0c\nM?'
p449
tp450
Rp451
tp452
a(g96
g6
(g18
S'\x0c\x05o='
p453
tp454
Rp455
tp456
a(g371
g6
(g18
S'\x07\x19\x8a<'
p457
tp458
Rp459
tp460
a(g44
g6
(g18
S'\x0e\x95\x85<'
p461
tp462
Rp463
tp464
a(g15
g6
(g18
S'\xdcOd<'
p465
tp466
Rp467
tp468
asg73
g81
sa(dp469
g2
S'../../../data/emanuela/activity-recognition/images/NTCIR-Lifelog-256/u3/2015-07-18/b00000131_21i79q_20150718_124030e.jpg'
p470
sg4
(lp471
(g15
g6
(g18
S'Up\xa5>'
p472
tp473
Rp474
tp475
a(g185
g6
(g18
S'\xc7\xb2O>'
p476
tp477
Rp478
tp479
a(g96
g6
(g18
S'\xe5\x9a\x19>'
p480
tp481
Rp482
tp483
a(g56
g6
(g18
S'!\xdb\xed='
p484
tp485
Rp486
tp487
a(g32
g6
(g18
S'\x03\t5='
p488
tp489
Rp490
tp491
asg73
g81
sa(dp492
g2
S'../../../data/emanuela/activity-recognition/images/NTCIR-Lifelog-256/u3/2015-07-28/b00003155_21i79q_20150728_161420e.jpg'
p493
sg4
(lp494
(g15
g6
(g18
S'5\x89!?'
p495
tp496
Rp497
tp498
a(g81
g6
(g18
S'\xed\xa78>'
p499
tp500
Rp501
tp502
a(g371
g6
(g18
S'\x03Q:='
p503
tp504
Rp505
tp506
a(g96
g6
(g18
S'\x08\xdd\xdd<'
p507
tp508
Rp509
tp510
a(g116
g6
(g18
S'\xfa\xec\xa0<'
p511
tp512
Rp513
tp514
asg73
g81
sa(dp515
g2
S'../../../data/emanuela/activity-recognition/images/NTCIR-Lifelog-256/u3/2015-07-18/b00000067_21i79q_20150718_120242e.jpg'
p516
sg4
(lp517
(g116
g6
(g18
S'\x97\xd6|?'
p518
tp519
Rp520
tp521
a(g96
g6
(g18
S'B\x14O;'
p522
tp523
Rp524
tp525
a(g294
g6
(g18
S'\xb8\xd4\x1b;'
p526
tp527
Rp528
tp529
a(g81
g6
(g18
S'\xbb@\xf7:'
p530
tp531
Rp532
tp533
a(g371
g6
(g18
S'\x17\x19\x89:'
p534
tp535
Rp536
tp537
asg73
g81
sa(dp538
g2
S'../../../data/emanuela/activity-recognition/images/NTCIR-Lifelog-256/u3/2015-07-28/b00002784_21i79q_20150728_104556e.jpg'
p539
sg4
(lp540
(g81
g6
(g18
S'\xdc\x0f\x1d?'
p541
tp542
Rp543
tp544
a(g116
g6
(g18
S'z\xb3\xcb='
p545
tp546
Rp547
tp548
a(g294
g6
(g18
S'\xea6\xa0='
p549
tp550
Rp551
tp552
a(g68
g6
(g18
S'\xbb\xaf}='
p553
tp554
Rp555
tp556
a(g387
g6
(g18
S't\xd9>='
p557
tp558
Rp559
tp560
asg73
g81
sa(dp561
g2
S'../../../data/emanuela/activity-recognition/images/NTCIR-Lifelog-256/u3/2015-07-15/b00000170_21i79q_20150715_133737e.jpg'
p562
sg4
(lp563
(g267
g6
(g18
S'\xb8\xcb\x88>'
p564
tp565
Rp566
tp567
a(g81
g6
(g18
S'c\rC>'
p568
tp569
Rp570
tp571
a(g56
g6
(g18
S'\xb9\\:>'
p572
tp573
Rp574
tp575
a(g414
g6
(g18
S'\xa9\xb2*>'
p576
tp577
Rp578
tp579
a(g96
g6
(g18
S'\x1d[W='
p580
tp581
Rp582
tp583
asg73
g81
sa(dp584
g2
S'../../../data/emanuela/activity-recognition/images/NTCIR-Lifelog-256/u3/2015-08-03/b00000134_21i79q_20150803_131335e.jpg'
p585
sg4
(lp586
(g81
g6
(g18
S'C@\x1b?'
p587
tp588
Rp589
tp590
a(g116
g6
(g18
S'\xfb<\x96='
p591
tp592
Rp593
tp594
a(g387
g6
(g18
S'g \x7f='
p595
tp596
Rp597
tp598
a(g294
g6
(g18
S'<A4='
p599
tp600
Rp601
tp602
a(g96
g6
(g18
S'\xcd\x82$='
p603
tp604
Rp605
tp606
asg73
g81
sa(dp607
g2
S'../../../data/emanuela/activity-recognition/images/NTCIR-Lifelog-256/u3/2015-07-11/b00000174_21i79q_20150711_082237e.jpg'
p608
sg4
(lp609
(g44
g6
(g18
S':d\x1a?'
p610
tp611
Rp612
tp613
a(g15
g6
(g18
S'\xe5\xd02>'
p614
tp615
Rp616
tp617
a(g32
g6
(g18
S'|\n\x95='
p618
tp619
Rp620
tp621
a(g96
g6
(g18
S"\xa5\xa4'="
p622
tp623
Rp624
tp625
a(g81
g6
(g18
S'\xff\xee"='
p626
tp627
Rp628
tp629
asg73
g81
sa(dp630
g2
S'../../../data/emanuela/activity-recognition/images/NTCIR-Lifelog-256/u3/2015-07-28/b00003051_21i79q_20150728_151156e.jpg'
p631
sg4
(lp632
(g68
g6
(g18
S'\x19\xe2J>'
p633
tp634
Rp635
tp636
a(g294
g6
(g18
S'\xc8\xa3D>'
p637
tp638
Rp639
tp640
a(g81
g6
(g18
S'\x8a\x17*>'
p641
tp642
Rp643
tp644
a(g56
g6
(g18
S'\xd5\x11\xba='
p645
tp646
Rp647
tp648
a(g96
g6
(g18
S'\x1dy\xa6='
p649
tp650
Rp651
tp652
asg73
g81
sa(dp653
g2
S'../../../data/emanuela/activity-recognition/images/NTCIR-Lifelog-256/u3/2015-07-28/b00002678_21i79q_20150728_093411e.jpg'
p654
sg4
(lp655
(g81
g6
(g18
S'\xd9\x8c\xd4>'
p656
tp657
Rp658
tp659
a(g387
g6
(g18
S'\xec\xa4\xa6>'
p660
tp661
Rp662
tp663
a(g96
g6
(g18
S'\xb8)\xea='
p664
tp665
Rp666
tp667
a(g414
g6
(g18
S'tQ\x13='
p668
tp669
Rp670
tp671
a(g294
g6
(g18
S'\x03h\x9e<'
p672
tp673
Rp674
tp675
asg73
g81
sa(dp676
g2
S'../../../data/emanuela/activity-recognition/images/NTCIR-Lifelog-256/u3/2015-08-01/b00006121_21i79q_20150801_122750e.jpg'
p677
sg4
(lp678
(g116
g6
(g18
S'\x9c\xaf\x1c?'
p679
tp680
Rp681
tp682
a(g81
g6
(g18
S'\xd7\x18c>'
p683
tp684
Rp685
tp686
a(g294
g6
(g18
S'\t\x08\x01='
p687
tp688
Rp689
tp690
a(g96
g6
(g18
S'\xed\xe1\xed<'
p691
tp692
Rp693
tp694
a(g387
g6
(g18
S'\x9b\xf6\xc6<'
p695
tp696
Rp697
tp698
asg73
g81
sa(dp699
g2
S'../../../data/emanuela/activity-recognition/images/NTCIR-Lifelog-256/u3/2015-08-01/b00006109_21i79q_20150801_122122e.jpg'
p700
sg4
(lp701
(g116
g6
(g18
S'\n~i>'
p702
tp703
Rp704
tp705
a(g15
g6
(g18
S'5\xc4E>'
p706
tp707
Rp708
tp709
a(g154
g6
(g18
S'\x89p@>'
p710
tp711
Rp712
tp713
a(g96
g6
(g18
S'\xdc\x8b\xad='
p714
tp715
Rp716
tp717
a(g185
g6
(g18
S'\xde\x12\x86='
p718
tp719
Rp720
tp721
asg73
g81
sa(dp722
g2
S'../../../data/emanuela/activity-recognition/images/NTCIR-Lifelog-256/u3/2015-07-11/b00001625_21i79q_20150711_224342e.jpg'
p723
sg4
(lp724
(g116
g6
(g18
S'\xa7\x8ev?'
p725
tp726
Rp727
tp728
a(g81
g6
(g18
S'\x02\xa6v<'
p729
tp730
Rp731
tp732
a(g267
g6
(g18
S'q\xb7\xac;'
p733
tp734
Rp735
tp736
a(g294
g6
(g18
S'(\x9d\x96;'
p737
tp738
Rp739
tp740
a(g96
g6
(g18
S'\x9c\x98\x93;'
p741
tp742
Rp743
tp744
asg73
g81
sa(dp745
g2
S'../../../data/emanuela/activity-recognition/images/NTCIR-Lifelog-256/u3/2015-07-11/b00000170_21i79q_20150711_082019e.jpg'
p746
sg4
(lp747
(g44
g6
(g18
S'\xf4\xae\xe8>'
p748
tp749
Rp750
tp751
a(g15
g6
(g18
S'\x94@\xbe>'
p752
tp753
Rp754
tp755
a(g32
g6
(g18
S'{\xd5}='
p756
tp757
Rp758
tp759
a(g96
g6
(g18
S"\xec'A="
p760
tp761
Rp762
tp763
a(g81
g6
(g18
S'x\xe8\xc9<'
p764
tp765
Rp766
tp767
asg73
g81
sa(dp768
g2
S'../../../data/emanuela/activity-recognition/images/NTCIR-Lifelog-256/u3/2015-07-28/b00002994_21i79q_20150728_143909e.jpg'
p769
sg4
(lp770
(g15
g6
(g18
S'\xfes\r?'
p771
tp772
Rp773
tp774
a(g81
g6
(g18
S'\xe3t\x1a>'
p775
tp776
Rp777
tp778
a(g294
g6
(g18
S'\x18\xfcX='
p779
tp780
Rp781
tp782
a(g56
g6
(g18
S'\xb8A;='
p783
tp784
Rp785
tp786
a(g68
g6
(g18
S'\x8d\x134='
p787
tp788
Rp789
tp790
asg73
g81
sa(dp791
g2
S'../../../data/emanuela/activity-recognition/images/NTCIR-Lifelog-256/u3/2015-07-11/b00000057_21i79q_20150711_071156e.jpg'
p792
sg4
(lp793
(g44
g6
(g18
S'\xc5\xa9\xb3>'
p794
tp795
Rp796
tp797
a(g15
g6
(g18
S'\x93g\x8f>'
p798
tp799
Rp800
tp801
a(g56
g6
(g18
S"'i\x1c>"
p802
tp803
Rp804
tp805
a(g32
g6
(g18
S'\xa7\xb3\xc2='
p806
tp807
Rp808
tp809
a(g81
g6
(g18
S'\xb1r&='
p810
tp811
Rp812
tp813
asg73
g81
sa(dp814
g2
S'../../../data/emanuela/activity-recognition/images/NTCIR-Lifelog-256/u3/2015-07-25/b00001094_21i79q_20150725_143310e.jpg'
p815
sg4
(lp816
(g81
g6
(g18
S'\x0b\xafA?'
p817
tp818
Rp819
tp820
a(g116
g6
(g18
S'\x00O\x1a>'
p821
tp822
Rp823
tp824
a(g294
g6
(g18
S'\xd0\xe3\x11='
p825
tp826
Rp827
tp828
a(g96
g6
(g18
S'\xad\xd0A<'
p829
tp830
Rp831
tp832
a(g387
g6
(g18
S'\xc34=<'
p833
tp834
Rp835
tp836
asg73
g81
sa(dp837
g2
S'../../../data/emanuela/activity-recognition/images/NTCIR-Lifelog-256/u3/2015-07-28/b00002692_21i79q_20150728_094211e.jpg'
p838
sg4
(lp839
(g81
g6
(g18
S'\x1bw\xdf>'
p840
tp841
Rp842
tp843
a(g96
g6
(g18
S'~W]>'
p844
tp845
Rp846
tp847
a(g56
g6
(g18
S'!\x8d\xbb='
p848
tp849
Rp850
tp851
a(g387
g6
(g18
S'\xdb=V='
p852
tp853
Rp854
tp855
a(g32
g6
(g18
S'\x0c\x10D='
p856
tp857
Rp858
tp859
asg73
g81
sa(dp860
g2
S'../../../data/emanuela/activity-recognition/images/NTCIR-Lifelog-256/u3/2015-07-25/b00001722_21i79q_20150725_233056e.jpg'
p861
sg4
(lp862
(g81
g6
(g18
S'AY\xe5>'
p863
tp864
Rp865
tp866
a(g116
g6
(g18
S'\x19\xa2\xe1>'
p867
tp868
Rp869
tp870
a(g294
g6
(g18
S'\xdeOi='
p871
tp872
Rp873
tp874
a(g96
g6
(g18
S'\xa9\x97\x02='
p875
tp876
Rp877
tp878
a(g387
g6
(g18
S'5\xc6\x8c;'
p879
tp880
Rp881
tp882
asg73
g81
sa(dp883
g2
S'../../../data/emanuela/activity-recognition/images/NTCIR-Lifelog-256/u3/2015-07-18/b00000119_21i79q_20150718_123348e.jpg'
p884
sg4
(lp885
(g185
g6
(g18
S'~\xf4\x99>'
p886
tp887
Rp888
tp889
a(g294
g6
(g18
S'6\x8a4>'
p890
tp891
Rp892
tp893
a(g116
g6
(g18
S'\xd2\xf6 >'
p894
tp895
Rp896
tp897
a(g81
g6
(g18
S'\xeck\xce='
p898
tp899
Rp900
tp901
a(g15
g6
(g18
S'\x05\xbe\x8f='
p902
tp903
Rp904
tp905
asg73
g81
sa(dp906
g2
S'../../../data/emanuela/activity-recognition/images/NTCIR-Lifelog-256/u3/2015-07-28/b00003142_21i79q_20150728_160658e.jpg'
p907
sg4
(lp908
(g116
g6
(g18
S'\xa8\xd3\xc0>'
p909
tp910
Rp911
tp912
a(g96
g6
(g18
S'a\x880>'
p913
tp914
Rp915
tp916
a(g15
g6
(g18
S'\xd5\xcc\x10>'
p917
tp918
Rp919
tp920
a(g81
g6
(g18
S'\xc7t\x10>'
p921
tp922
Rp923
tp924
a(g371
g6
(g18
S'\xc6\x07Q='
p925
tp926
Rp927
tp928
asg73
g81
sa(dp929
g2
S'../../../data/emanuela/activity-recognition/images/NTCIR-Lifelog-256/u3/2015-07-28/b00003027_21i79q_20150728_145813e.jpg'
p930
sg4
(lp931
(g81
g6
(g18
S'\xdck8?'
p932
tp933
Rp934
tp935
a(g294
g6
(g18
S'<n\xfd='
p936
tp937
Rp938
tp939
a(g96
g6
(g18
S'\x86\xc0p='
p940
tp941
Rp942
tp943
a(g68
g6
(g18
S'\xeeT(='
p944
tp945
Rp946
tp947
a(g15
g6
(g18
S'8\xec\x88<'
p948
tp949
Rp950
tp951
asg73
g81
sa(dp952
g2
S'../../../data/emanuela/activity-recognition/images/NTCIR-Lifelog-256/u3/2015-08-03/b00000089_21i79q_20150803_124614e.jpg'
p953
sg4
(lp954
(g81
g6
(g18
S'\xc2\xc6\xd0>'
p955
tp956
Rp957
tp958
a(g68
g6
(g18
S'\xf9\xb4j>'
p959
tp960
Rp961
tp962
a(g267
g6
(g18
S'\xf0\x81\xdc='
p963
tp964
Rp965
tp966
a(g56
g6
(g18
S'pg\xa8='
p967
tp968
Rp969
tp970
a(g294
g6
(g18
S'\x85\xc22='
p971
tp972
Rp973
tp974
asg73
g81
sa(dp975
g2
S'../../../data/emanuela/activity-recognition/images/NTCIR-Lifelog-256/u3/2015-07-28/b00003177_21i79q_20150728_162728e.jpg'
p976
sg4
(lp977
(g81
g6
(g18
S'h\x8cT?'
p978
tp979
Rp980
tp981
a(g68
g6
(g18
S'-Qf='
p982
tp983
Rp984
tp985
a(g294
g6
(g18
S'\x16.\xaa<'
p986
tp987
Rp988
tp989
a(g116
g6
(g18
S'\xef\x94\xa8<'
p990
tp991
Rp992
tp993
a(g267
g6
(g18
S'\xe6\xb8t<'
p994
tp995
Rp996
tp997
asg73
g81
sa(dp998
g2
S'../../../data/emanuela/activity-recognition/images/NTCIR-Lifelog-256/u3/2015-07-11/b00000010_21i79q_20150711_064351e.jpg'
p999
sg4
(lp1000
(g15
g6
(g18
S'\x0eB5?'
p1001
tp1002
Rp1003
tp1004
a(g154
g6
(g18
S'\xdf\xef>>'
p1005
tp1006
Rp1007
tp1008
a(g44
g6
(g18
S'\xca\xca\xeb<'
p1009
tp1010
Rp1011
tp1012
a(g81
g6
(g18
S'\xc3\x17\xd2<'
p1013
tp1014
Rp1015
tp1016
a(g56
g6
(g18
S'\xac\xf3\xcc<'
p1017
tp1018
Rp1019
tp1020
asg73
g81
sa(dp1021
g2
S'../../../data/emanuela/activity-recognition/images/NTCIR-Lifelog-256/u3/2015-08-01/b00006090_21i79q_20150801_121057e.jpg'
p1022
sg4
(lp1023
(g116
g6
(g18
S'\xb4OL?'
p1024
tp1025
Rp1026
tp1027
a(g81
g6
(g18
S'\xba%\x00>'
p1028
tp1029
Rp1030
tp1031
a(g294
g6
(g18
S'\xc6\x0b\xc0<'
p1032
tp1033
Rp1034
tp1035
a(g96
g6
(g18
S':\x10s<'
p1036
tp1037
Rp1038
tp1039
a(g267
g6
(g18
S'\xf5\x997<'
p1040
tp1041
Rp1042
tp1043
asg73
g81
sa(dp1044
g2
S'../../../data/emanuela/activity-recognition/images/NTCIR-Lifelog-256/u3/2015-07-28/b00003136_21i79q_20150728_160336e.jpg'
p1045
sg4
(lp1046
(g96
g6
(g18
S'\xc2\xdae>'
p1047
tp1048
Rp1049
tp1050
a(g15
g6
(g18
S'\xf3\x7f\x15>'
p1051
tp1052
Rp1053
tp1054
a(g81
g6
(g18
S'\x81\xbe\xd8='
p1055
tp1056
Rp1057
tp1058
a(g387
g6
(g18
S'.\xeb\xd1='
p1059
tp1060
Rp1061
tp1062
a(g294
g6
(g18
S'q\xb0\xa1='
p1063
tp1064
Rp1065
tp1066
asg73
g81
sa(dp1067
g2
S'../../../data/emanuela/activity-recognition/images/NTCIR-Lifelog-256/u3/2015-07-15/b00000317_21i79q_20150715_150652e.jpg'
p1068
sg4
(lp1069
(g81
g6
(g18
S'\xf8\xc7\x94>'
p1070
tp1071
Rp1072
tp1073
a(g96
g6
(g18
S'\xe1\x9e\x8d>'
p1074
tp1075
Rp1076
tp1077
a(g255
g6
(g18
S'\xacc\xe2='
p1078
tp1079
Rp1080
tp1081
a(g414
g6
(g18
S'\xe2\xda\xd6='
p1082
tp1083
Rp1084
tp1085
a(g56
g6
(g18
S'+v\xa8='
p1086
tp1087
Rp1088
tp1089
asg73
g81
sa(dp1090
g2
S'../../../data/emanuela/activity-recognition/images/NTCIR-Lifelog-256/u3/2015-07-15/b00000331_21i79q_20150715_151502e.jpg'
p1091
sg4
(lp1092
(g81
g6
(g18
S'\x82-??'
p1093
tp1094
Rp1095
tp1096
a(g387
g6
(g18
S'x\xb7\xfe='
p1097
tp1098
Rp1099
tp1100
a(g414
g6
(g18
S'\x015\xfe<'
p1101
tp1102
Rp1103
tp1104
a(g294
g6
(g18
S']V\xf2<'
p1105
tp1106
Rp1107
tp1108
a(g96
g6
(g18
S'kOe<'
p1109
tp1110
Rp1111
tp1112
asg73
g81
sa(dp1113
g2
S'../../../data/emanuela/activity-recognition/images/NTCIR-Lifelog-256/u3/2015-07-11/b00000085_21i79q_20150711_073017e.jpg'
p1114
sg4
(lp1115
(g56
g6
(g18
S'\x19du>'
p1116
tp1117
Rp1118
tp1119
a(g44
g6
(g18
S'\xb1\xe7h>'
p1120
tp1121
Rp1122
tp1123
a(g32
g6
(g18
S'\x1b\xd8\\>'
p1124
tp1125
Rp1126
tp1127
a(g15
g6
(g18
S'pCY>'
p1128
tp1129
Rp1130
tp1131
a(g68
g6
(g18
S'\xbe\xc0\x18='
p1132
tp1133
Rp1134
tp1135
asg73
g81
sa(dp1136
g2
S'../../../data/emanuela/activity-recognition/images/NTCIR-Lifelog-256/u3/2015-07-25/b00001118_21i79q_20150725_144635e.jpg'
p1137
sg4
(lp1138
(g81
g6
(g18
S'O\ru?'
p1139
tp1140
Rp1141
tp1142
a(g294
g6
(g18
S'\x85\x81d<'
p1143
tp1144
Rp1145
tp1146
a(g96
g6
(g18
S'z\x065<'
p1147
tp1148
Rp1149
tp1150
a(g387
g6
(g18
S'l\\\xd0;'
p1151
tp1152
Rp1153
tp1154
a(g116
g6
(g18
S',\xc6\xae;'
p1155
tp1156
Rp1157
tp1158
asg73
g81
sa(dp1159
g2
S'../../../data/emanuela/activity-recognition/images/NTCIR-Lifelog-256/u3/2015-07-18/b00000061_21i79q_20150718_115906e.jpg'
p1160
sg4
(lp1161
(g116
g6
(g18
S'\xc1g\x0b?'
p1162
tp1163
Rp1164
tp1165
a(g96
g6
(g18
S'\xe0CK>'
p1166
tp1167
Rp1168
tp1169
a(g255
g6
(g18
S'\xda\x11\x87='
p1170
tp1171
Rp1172
tp1173
a(g371
g6
(g18
S'\xd3\x99\x11='
p1174
tp1175
Rp1176
tp1177
a(g15
g6
(g18
S'9\xe6\xe3<'
p1178
tp1179
Rp1180
tp1181
asg73
g81
sa(dp1182
g2
S'../../../data/emanuela/activity-recognition/images/NTCIR-Lifelog-256/u3/2015-07-28/b00003037_21i79q_20150728_150356e.jpg'
p1183
sg4
(lp1184
(g81
g6
(g18
S'\xe4\x19b?'
p1185
tp1186
Rp1187
tp1188
a(g294
g6
(g18
S'\x11\xf0\x9a='
p1189
tp1190
Rp1191
tp1192
a(g96
g6
(g18
S"'\xb5`<"
p1193
tp1194
Rp1195
tp1196
a(g15
g6
(g18
S'\xf0}\xdc;'
p1197
tp1198
Rp1199
tp1200
a(g116
g6
(g18
S':S\x9e;'
p1201
tp1202
Rp1203
tp1204
asg73
g81
sa(dp1205
g2
S'../../../data/emanuela/activity-recognition/images/NTCIR-Lifelog-256/u3/2015-07-29/b00003976_21i79q_20150729_134910e.jpg'
p1206
sg4
(lp1207
(g81
g6
(g18
S'\x870\xe9>'
p1208
tp1209
Rp1210
tp1211
a(g387
g6
(g18
S'\x92"\xd3>'
p1212
tp1213
Rp1214
tp1215
a(g414
g6
(g18
S'\xfcy&='
p1216
tp1217
Rp1218
tp1219
a(g6
(g7
(S'S19'
p1220
I0
I1
tp1221
Rp1222
(I3
S'|'
p1223
NNNI19
I1
I0
tp1224
bS'attending a seminar'
p1225
tp1226
Rp1227
g6
(g18
S'"%\xa6<'
p1228
tp1229
Rp1230
tp1231
a(g6
(g7
(S'S7'
p1232
I0
I1
tp1233
Rp1234
(I3
S'|'
p1235
NNNI7
I1
I0
tp1236
bS'meeting'
p1237
tp1238
Rp1239
g6
(g18
S'}\xdb\x94<'
p1240
tp1241
Rp1242
tp1243
asg73
g81
sa(dp1244
g2
S'../../../data/emanuela/activity-recognition/images/NTCIR-Lifelog-256/u3/2015-07-11/b00000065_21i79q_20150711_071612e.jpg'
p1245
sg4
(lp1246
(g44
g6
(g18
S'\xeal\xe6>'
p1247
tp1248
Rp1249
tp1250
a(g15
g6
(g18
S'\xac\nd>'
p1251
tp1252
Rp1253
tp1254
a(g56
g6
(g18
S'\xf5\xcf\x15>'
p1255
tp1256
Rp1257
tp1258
a(g32
g6
(g18
S'\xf5\x02\xd6='
p1259
tp1260
Rp1261
tp1262
a(g68
g6
(g18
S';&\xf8<'
p1263
tp1264
Rp1265
tp1266
asg73
g81
sa(dp1267
g2
S'../../../data/emanuela/activity-recognition/images/NTCIR-Lifelog-256/u3/2015-07-11/b00000110_21i79q_20150711_074419e.jpg'
p1268
sg4
(lp1269
(g15
g6
(g18
S'\xaa\x85x>'
p1270
tp1271
Rp1272
tp1273
a(g116
g6
(g18
S'@Vp>'
p1274
tp1275
Rp1276
tp1277
a(g44
g6
(g18
S'\xce\x8e<>'
p1278
tp1279
Rp1280
tp1281
a(g32
g6
(g18
S'\xadV\xdd='
p1282
tp1283
Rp1284
tp1285
a(g81
g6
(g18
S'\xa1K\xa2='
p1286
tp1287
Rp1288
tp1289
asg73
g81
sa(dp1290
g2
S'../../../data/emanuela/activity-recognition/images/NTCIR-Lifelog-256/u3/2015-07-25/b00001723_21i79q_20150725_233126e.jpg'
p1291
sg4
(lp1292
(g116
g6
(g18
S'J\xceB?'
p1293
tp1294
Rp1295
tp1296
a(g81
g6
(g18
S'\xd9B\xfa='
p1297
tp1298
Rp1299
tp1300
a(g96
g6
(g18
S'I\xfd\xa2='
p1301
tp1302
Rp1303
tp1304
a(g294
g6
(g18
S'\x1etm<'
p1305
tp1306
Rp1307
tp1308
a(g1227
g6
(g18
S'\xfa\xb6|;'
p1309
tp1310
Rp1311
tp1312
asg73
g81
sa(dp1313
g2
S'../../../data/emanuela/activity-recognition/images/NTCIR-Lifelog-256/u3/2015-07-11/b00000005_21i79q_20150711_064103e.jpg'
p1314
sg4
(lp1315
(g81
g6
(g18
S'\xfe\xe9\xb8>'
p1316
tp1317
Rp1318
tp1319
a(g387
g6
(g18
S"\x03'\x8c>"
p1320
tp1321
Rp1322
tp1323
a(g414
g6
(g18
S'\x7f\x8a\x01>'
p1324
tp1325
Rp1326
tp1327
a(g255
g6
(g18
S'J\x18\x9c='
p1328
tp1329
Rp1330
tp1331
a(g96
g6
(g18
S'\xbbvi='
p1332
tp1333
Rp1334
tp1335
asg73
g81
sa(dp1336
g2
S'../../../data/emanuela/activity-recognition/images/NTCIR-Lifelog-256/u3/2015-07-28/b00002677_21i79q_20150728_093334e.jpg'
p1337
sg4
(lp1338
(g81
g6
(g18
S'\x92\r\x0f?'
p1339
tp1340
Rp1341
tp1342
a(g387
g6
(g18
S'%\x81z>'
p1343
tp1344
Rp1345
tp1346
a(g96
g6
(g18
S'\x14WV='
p1347
tp1348
Rp1349
tp1350
a(g294
g6
(g18
S'\x84\xbb ='
p1351
tp1352
Rp1353
tp1354
a(g414
g6
(g18
S'\xee\xbc\xb2<'
p1355
tp1356
Rp1357
tp1358
asg73
g81
sa(dp1359
g2
S'../../../data/emanuela/activity-recognition/images/NTCIR-Lifelog-256/u3/2015-07-28/b00003052_21i79q_20150728_151236e.jpg'
p1360
sg4
(lp1361
(g81
g6
(g18
S'2\x1c`?'
p1362
tp1363
Rp1364
tp1365
a(g294
g6
(g18
S'\xa3qJ='
p1366
tp1367
Rp1368
tp1369
a(g96
g6
(g18
S'\xe2\x92*='
p1370
tp1371
Rp1372
tp1373
a(g116
g6
(g18
S'd\x99\x08<'
p1374
tp1375
Rp1376
tp1377
a(g68
g6
(g18
S'\x9cY\xc5;'
p1378
tp1379
Rp1380
tp1381
asg73
g81
sa(dp1382
g2
S'../../../data/emanuela/activity-recognition/images/NTCIR-Lifelog-256/u3/2015-07-28/b00002781_21i79q_20150728_104411e.jpg'
p1383
sg4
(lp1384
(g81
g6
(g18
S'\x8b\x1e<?'
p1385
tp1386
Rp1387
tp1388
a(g116
g6
(g18
S'd\xae\xd9='
p1389
tp1390
Rp1391
tp1392
a(g96
g6
(g18
S'>\xff\x13='
p1393
tp1394
Rp1395
tp1396
a(g68
g6
(g18
S'\xdd\xe0\x0b='
p1397
tp1398
Rp1399
tp1400
a(g294
g6
(g18
S'\xd5\xce\xf8<'
p1401
tp1402
Rp1403
tp1404
asg73
g81
sa(dp1405
g2
S'../../../data/emanuela/activity-recognition/images/NTCIR-Lifelog-256/u3/2015-07-18/b00000170_21i79q_20150718_125928e.jpg'
p1406
sg4
(lp1407
(g116
g6
(g18
S'N\x1c7?'
p1408
tp1409
Rp1410
tp1411
a(g96
g6
(g18
S'\xfcb\x81='
p1412
tp1413
Rp1414
tp1415
a(g294
g6
(g18
S'\xb2&y='
p1416
tp1417
Rp1418
tp1419
a(g81
g6
(g18
S'`(\x01='
p1420
tp1421
Rp1422
tp1423
a(g185
g6
(g18
S'\xf9\x86\x93<'
p1424
tp1425
Rp1426
tp1427
asg73
g81
sa(dp1428
g2
S'../../../data/emanuela/activity-recognition/images/NTCIR-Lifelog-256/u3/2015-07-28/b00003150_21i79q_20150728_161125e.jpg'
p1429
sg4
(lp1430
(g96
g6
(g18
S'f\xbb\xae>'
p1431
tp1432
Rp1433
tp1434
a(g116
g6
(g18
S"s\xfb'>"
p1435
tp1436
Rp1437
tp1438
a(g56
g6
(g18
S'\xb2\x94\xdc='
p1439
tp1440
Rp1441
tp1442
a(g15
g6
(g18
S'U\x92\xab='
p1443
tp1444
Rp1445
tp1446
a(g371
g6
(g18
S'\xd3}_='
p1447
tp1448
Rp1449
tp1450
asg73
g81
sa(dp1451
g2
S'../../../data/emanuela/activity-recognition/images/NTCIR-Lifelog-256/u3/2015-08-03/b00000106_21i79q_20150803_125623e.jpg'
p1452
sg4
(lp1453
(g294
g6
(g18
S'$/d>'
p1454
tp1455
Rp1456
tp1457
a(g96
g6
(g18
S'\x10+7>'
p1458
tp1459
Rp1460
tp1461
a(g387
g6
(g18
S'k\x95\x05>'
p1462
tp1463
Rp1464
tp1465
a(g116
g6
(g18
S'\x8bq\xf2='
p1466
tp1467
Rp1468
tp1469
a(g81
g6
(g18
S'\xc33\xbe='
p1470
tp1471
Rp1472
tp1473
asg73
g81
sa(dp1474
g2
S'../../../data/emanuela/activity-recognition/images/NTCIR-Lifelog-256/u3/2015-07-11/b00000250_21i79q_20150711_090907e.jpg'
p1475
sg4
(lp1476
(g44
g6
(g18
S'M_\t?'
p1477
tp1478
Rp1479
tp1480
a(g15
g6
(g18
S'\xea\xc4\xb2>'
p1481
tp1482
Rp1483
tp1484
a(g81
g6
(g18
S'\x1c\xdb\x11='
p1485
tp1486
Rp1487
tp1488
a(g96
g6
(g18
S'\xbf\xb3\xe2<'
p1489
tp1490
Rp1491
tp1492
a(g32
g6
(g18
S'\xfa\x11\x8a<'
p1493
tp1494
Rp1495
tp1496
asg73
g81
sa(dp1497
g2
S'../../../data/emanuela/activity-recognition/images/NTCIR-Lifelog-256/u3/2015-07-29/b00004141_21i79q_20150729_154754e.jpg'
p1498
sg4
(lp1499
(g96
g6
(g18
S'\xd3\x8e\xaf>'
p1500
tp1501
Rp1502
tp1503
a(g15
g6
(g18
S'\xe3\x85L>'
p1504
tp1505
Rp1506
tp1507
a(g255
g6
(g18
S'\xc4q\xdc='
p1508
tp1509
Rp1510
tp1511
a(g56
g6
(g18
S'\xf3qt='
p1512
tp1513
Rp1514
tp1515
a(g387
g6
(g18
S'\xf0lP='
p1516
tp1517
Rp1518
tp1519
asg73
g81
sa(dp1520
g2
S'../../../data/emanuela/activity-recognition/images/NTCIR-Lifelog-256/u3/2015-07-11/b00000018_21i79q_20150711_064820e.jpg'
p1521
sg4
(lp1522
(g15
g6
(g18
S'k>\xd2>'
p1523
tp1524
Rp1525
tp1526
a(g154
g6
(g18
S';e\xa2>'
p1527
tp1528
Rp1529
tp1530
a(g56
g6
(g18
S'`N#>'
p1531
tp1532
Rp1533
tp1534
a(g32
g6
(g18
S'\x86\x92\xb7<'
p1535
tp1536
Rp1537
tp1538
a(g44
g6
(g18
S'\x1e+\xb4<'
p1539
tp1540
Rp1541
tp1542
asg73
g81
sa(dp1543
g2
S'../../../data/emanuela/activity-recognition/images/NTCIR-Lifelog-256/u3/2015-07-18/b00000199_21i79q_20150718_131653e.jpg'
p1544
sg4
(lp1545
(g81
g6
(g18
S'\x93\xc6c>'
p1546
tp1547
Rp1548
tp1549
a(g185
g6
(g18
S'\xe8\xaaR>'
p1550
tp1551
Rp1552
tp1553
a(g387
g6
(g18
S'g\xe4\xe3='
p1554
tp1555
Rp1556
tp1557
a(g15
g6
(g18
S'<:\xca='
p1558
tp1559
Rp1560
tp1561
a(g201
g6
(g18
S'G\x0b\x8d='
p1562
tp1563
Rp1564
tp1565
asg73
g81
sa(dp1566
g2
S'../../../data/emanuela/activity-recognition/images/NTCIR-Lifelog-256/u3/2015-07-29/b00003970_21i79q_20150729_134557e.jpg'
p1567
sg4
(lp1568
(g387
g6
(g18
S'\x7f\x82\x06?'
p1569
tp1570
Rp1571
tp1572
a(g81
g6
(g18
S'\x83\xe5\xae>'
p1573
tp1574
Rp1575
tp1576
a(g414
g6
(g18
S'\xb4\x13\xf7<'
p1577
tp1578
Rp1579
tp1580
a(g96
g6
(g18
S'\xc8\xb7\x8b<'
p1581
tp1582
Rp1583
tp1584
a(g1227
g6
(g18
S'Zck<'
p1585
tp1586
Rp1587
tp1588
asg73
g81
sa(dp1589
g2
S'../../../data/emanuela/activity-recognition/images/NTCIR-Lifelog-256/u3/2015-07-28/b00002685_21i79q_20150728_093816e.jpg'
p1590
sg4
(lp1591
(g81
g6
(g18
S'\xb9\xf7\xd8>'
p1592
tp1593
Rp1594
tp1595
a(g96
g6
(g18
S'3J\x8b>'
p1596
tp1597
Rp1598
tp1599
a(g387
g6
(g18
S'U\xc7\xc7='
p1600
tp1601
Rp1602
tp1603
a(g68
g6
(g18
S'{\xa0"='
p1604
tp1605
Rp1606
tp1607
a(g56
g6
(g18
S'\xc4\xff\x07='
p1608
tp1609
Rp1610
tp1611
asg73
g81
sa(dp1612
g2
S'../../../data/emanuela/activity-recognition/images/NTCIR-Lifelog-256/u3/2015-07-11/b00000204_21i79q_20150711_084228e.jpg'
p1613
sg4
(lp1614
(g15
g6
(g18
S'u\xc6\xff>'
p1615
tp1616
Rp1617
tp1618
a(g44
g6
(g18
S'_\x83\xbd>'
p1619
tp1620
Rp1621
tp1622
a(g56
g6
(g18
S'\x94Sd='
p1623
tp1624
Rp1625
tp1626
a(g32
g6
(g18
S'f\xe3\x1d='
p1627
tp1628
Rp1629
tp1630
a(g68
g6
(g18
S'ZY#<'
p1631
tp1632
Rp1633
tp1634
asg73
g81
sa(dp1635
g2
S'../../../data/emanuela/activity-recognition/images/NTCIR-Lifelog-256/u3/2015-07-28/b00003034_21i79q_20150728_150212e.jpg'
p1636
sg4
(lp1637
(g81
g6
(g18
S'\xe8\x97N?'
p1638
tp1639
Rp1640
tp1641
a(g96
g6
(g18
S'\xba\xf5\x90='
p1642
tp1643
Rp1644
tp1645
a(g294
g6
(g18
S'O\xe5W='
p1646
tp1647
Rp1648
tp1649
a(g68
g6
(g18
S'\x92\xd2\xb5<'
p1650
tp1651
Rp1652
tp1653
a(g116
g6
(g18
S'6\x1a4<'
p1654
tp1655
Rp1656
tp1657
asg73
g81
sa(dp1658
g2
S'../../../data/emanuela/activity-recognition/images/NTCIR-Lifelog-256/u3/2015-08-03/b00000098_21i79q_20150803_125125e.jpg'
p1659
sg4
(lp1660
(g15
g6
(g18
S'\x94j\t?'
p1661
tp1662
Rp1663
tp1664
a(g116
g6
(g18
S'P\xa0\xba>'
p1665
tp1666
Rp1667
tp1668
a(g96
g6
(g18
S'`\xf0\x9b<'
p1669
tp1670
Rp1671
tp1672
a(g371
g6
(g18
S"'\x81\x88<"
p1673
tp1674
Rp1675
tp1676
a(g294
g6
(g18
S'K\ty<'
p1677
tp1678
Rp1679
tp1680
asg73
g81
sa(dp1681
g2
S'../../../data/emanuela/activity-recognition/images/NTCIR-Lifelog-256/u3/2015-07-27/b00001841_21i79q_20150727_111703e.jpg'
p1682
sg4
(lp1683
(g387
g6
(g18
S'\x0c\x9d\x9e>'
p1684
tp1685
Rp1686
tp1687
a(g201
g6
(g18
S'\x89\x01q>'
p1688
tp1689
Rp1690
tp1691
a(g1239
g6
(g18
S'\xac\x04\x0e>'
p1692
tp1693
Rp1694
tp1695
a(g1227
g6
(g18
S'\xb7\x02\xcc='
p1696
tp1697
Rp1698
tp1699
a(g255
g6
(g18
S'\x8f\\\x95='
p1700
tp1701
Rp1702
tp1703
asg73
g81
sa(dp1704
g2
S'../../../data/emanuela/activity-recognition/images/NTCIR-Lifelog-256/u3/2015-07-18/b00000176_21i79q_20150718_130317e.jpg'
p1705
sg4
(lp1706
(g116
g6
(g18
S'^\xa3\xc8>'
p1707
tp1708
Rp1709
tp1710
a(g96
g6
(g18
S'\xa0\xe2w>'
p1711
tp1712
Rp1713
tp1714
a(g81
g6
(g18
S'\xac\xf0K='
p1715
tp1716
Rp1717
tp1718
a(g294
g6
(g18
S'\x08nD='
p1719
tp1720
Rp1721
tp1722
a(g44
g6
(g18
S'\t\x858='
p1723
tp1724
Rp1725
tp1726
asg73
g81
sa(dp1727
g2
S'../../../data/emanuela/activity-recognition/images/NTCIR-Lifelog-256/u3/2015-07-28/b00002682_21i79q_20150728_093632e.jpg'
p1728
sg4
(lp1729
(g81
g6
(g18
S'&\x0b\xc8>'
p1730
tp1731
Rp1732
tp1733
a(g96
g6
(g18
S't&\xa7>'
p1734
tp1735
Rp1736
tp1737
a(g387
g6
(g18
S'\xe4i\xb6='
p1738
tp1739
Rp1740
tp1741
a(g56
g6
(g18
S'\xe8\xfc\x13='
p1742
tp1743
Rp1744
tp1745
a(g68
g6
(g18
S'N,\t='
p1746
tp1747
Rp1748
tp1749
asg73
g81
sa(dp1750
g2
S'../../../data/emanuela/activity-recognition/images/NTCIR-Lifelog-256/u3/2015-07-11/b00000243_21i79q_20150711_090517e.jpg'
p1751
sg4
(lp1752
(g15
g6
(g18
S'kq\xbb>'
p1753
tp1754
Rp1755
tp1756
a(g44
g6
(g18
S'\x0e_k>'
p1757
tp1758
Rp1759
tp1760
a(g56
g6
(g18
S'\xee\xc4B>'
p1761
tp1762
Rp1763
tp1764
a(g32
g6
(g18
S'\n\xa3\xd9='
p1765
tp1766
Rp1767
tp1768
a(g185
g6
(g18
S'\xe99U='
p1769
tp1770
Rp1771
tp1772
asg73
g81
sa(dp1773
g2
S'../../../data/emanuela/activity-recognition/images/NTCIR-Lifelog-256/u3/2015-07-11/b00000254_21i79q_20150711_091122e.jpg'
p1774
sg4
(lp1775
(g15
g6
(g18
S'\x0c\x05\x18?'
p1776
tp1777
Rp1778
tp1779
a(g44
g6
(g18
S'\x05\x8f#>'
p1780
tp1781
Rp1782
tp1783
a(g32
g6
(g18
S'\x00\xdf\xcf='
p1784
tp1785
Rp1786
tp1787
a(g56
g6
(g18
S'k\x9a\x9e='
p1788
tp1789
Rp1790
tp1791
a(g81
g6
(g18
S'Uk\xc8<'
p1792
tp1793
Rp1794
tp1795
asg73
g81
sa(dp1796
g2
S'../../../data/emanuela/activity-recognition/images/NTCIR-Lifelog-256/u3/2015-07-11/b00000242_21i79q_20150711_090447e.jpg'
p1797
sg4
(lp1798
(g15
g6
(g18
S"\xf8\xaf'?"
p1799
tp1800
Rp1801
tp1802
a(g44
g6
(g18
S'$\xaf\xf9='
p1803
tp1804
Rp1805
tp1806
a(g185
g6
(g18
S'LJ\x88='
p1807
tp1808
Rp1809
tp1810
a(g56
g6
(g18
S'^C\x84='
p1811
tp1812
Rp1813
tp1814
a(g32
g6
(g18
S'\xa31B='
p1815
tp1816
Rp1817
tp1818
asg73
g81
sa(dp1819
g2
S'../../../data/emanuela/activity-recognition/images/NTCIR-Lifelog-256/u3/2015-07-29/b00003969_21i79q_20150729_134527e.jpg'
p1820
sg4
(lp1821
(g387
g6
(g18
S'\x13G\xe2>'
p1822
tp1823
Rp1824
tp1825
a(g81
g6
(g18
S'\xf9\n\xd9>'
p1826
tp1827
Rp1828
tp1829
a(g414
g6
(g18
S'\xb3\x8b\x93='
p1830
tp1831
Rp1832
tp1833
a(g1227
g6
(g18
S'\xcas\xb3<'
p1834
tp1835
Rp1836
tp1837
a(g96
g6
(g18
S'\xd1\x88*<'
p1838
tp1839
Rp1840
tp1841
asg73
g81
sa(dp1842
g2
S'../../../data/emanuela/activity-recognition/images/NTCIR-Lifelog-256/u3/2015-07-18/b00000052_21i79q_20150718_115411e.jpg'
p1843
sg4
(lp1844
(g96
g6
(g18
S'\x00p3?'
p1845
tp1846
Rp1847
tp1848
a(g185
g6
(g18
S'O\x89\x81='
p1849
tp1850
Rp1851
tp1852
a(g371
g6
(g18
S'H\xe9T='
p1853
tp1854
Rp1855
tp1856
a(g294
g6
(g18
S'S;?='
p1857
tp1858
Rp1859
tp1860
a(g255
g6
(g18
S'\xbbg\xda<'
p1861
tp1862
Rp1863
tp1864
asg73
g81
sa(dp1865
g2
S'../../../data/emanuela/activity-recognition/images/NTCIR-Lifelog-256/u3/2015-07-29/b00003960_21i79q_20150729_134021e.jpg'
p1866
sg4
(lp1867
(g387
g6
(g18
S'\x00w&?'
p1868
tp1869
Rp1870
tp1871
a(g81
g6
(g18
S'\xe5KT='
p1872
tp1873
Rp1874
tp1875
a(g255
g6
(g18
S'\x90\xf0H='
p1876
tp1877
Rp1878
tp1879
a(g201
g6
(g18
S'&\xaf6='
p1880
tp1881
Rp1882
tp1883
a(g116
g6
(g18
S'\xe4s\n='
p1884
tp1885
Rp1886
tp1887
asg73
g81
sa(dp1888
g2
S'../../../data/emanuela/activity-recognition/images/NTCIR-Lifelog-256/u3/2015-07-15/b00000318_21i79q_20150715_150728e.jpg'
p1889
sg4
(lp1890
(g414
g6
(g18
S'i;\xc4>'
p1891
tp1892
Rp1893
tp1894
a(g255
g6
(g18
S'%O6>'
p1895
tp1896
Rp1897
tp1898
a(g96
g6
(g18
S'S\xa7\x1b>'
p1899
tp1900
Rp1901
tp1902
a(g56
g6
(g18
S'g\x1a\xa3='
p1903
tp1904
Rp1905
tp1906
a(g387
g6
(g18
S'\xdb\xb2\x9a='
p1907
tp1908
Rp1909
tp1910
asg73
g81
sa(dp1911
g2
S'../../../data/emanuela/activity-recognition/images/NTCIR-Lifelog-256/u3/2015-07-11/b00000793_21i79q_20150711_142345e.jpg'
p1912
sg4
(lp1913
(g387
g6
(g18
S'q\x86;?'
p1914
tp1915
Rp1916
tp1917
a(g81
g6
(g18
S'\xc6h9>'
p1918
tp1919
Rp1920
tp1921
a(g1239
g6
(g18
S'A\xc3\xda<'
p1922
tp1923
Rp1924
tp1925
a(g1227
g6
(g18
S'Kg\x8e<'
p1926
tp1927
Rp1928
tp1929
a(g201
g6
(g18
S'\xfa#\x8b<'
p1930
tp1931
Rp1932
tp1933
asg73
g81
sa(dp1934
g2
S'../../../data/emanuela/activity-recognition/images/NTCIR-Lifelog-256/u3/2015-07-25/b00001110_21i79q_20150725_144212e.jpg'
p1935
sg4
(lp1936
(g81
g6
(g18
S'8\x8do?'
p1937
tp1938
Rp1939
tp1940
a(g294
g6
(g18
S'\x9am\xf2<'
p1941
tp1942
Rp1943
tp1944
a(g387
g6
(g18
S'{JO<'
p1945
tp1946
Rp1947
tp1948
a(g96
g6
(g18
S'\x13\x03\x17<'
p1949
tp1950
Rp1951
tp1952
a(g116
g6
(g18
S'\xa4\x0fh;'
p1953
tp1954
Rp1955
tp1956
asg73
g81
sa(dp1957
g2
S'../../../data/emanuela/activity-recognition/images/NTCIR-Lifelog-256/u3/2015-07-11/b00001654_21i79q_20150711_230050e.jpg'
p1958
sg4
(lp1959
(g116
g6
(g18
S'\xb7 z?'
p1960
tp1961
Rp1962
tp1963
a(g81
g6
(g18
S'\xe7\xd5d<'
p1964
tp1965
Rp1966
tp1967
a(g294
g6
(g18
S'\xa3O\x16;'
p1968
tp1969
Rp1970
tp1971
a(g96
g6
(g18
S'\xcc\xf6\x03;'
p1972
tp1973
Rp1974
tp1975
a(g387
g6
(g18
S'\xfa\xb1\x8f:'
p1976
tp1977
Rp1978
tp1979
asg73
g81
sa(dp1980
g2
S'../../../data/emanuela/activity-recognition/images/NTCIR-Lifelog-256/u3/2015-07-11/b00000089_21i79q_20150711_073237e.jpg'
p1981
sg4
(lp1982
(g15
g6
(g18
S'\x19`\x13?'
p1983
tp1984
Rp1985
tp1986
a(g44
g6
(g18
S'\x9d\x06W>'
p1987
tp1988
Rp1989
tp1990
a(g32
g6
(g18
S'1"\xea='
p1991
tp1992
Rp1993
tp1994
a(g56
g6
(g18
S'\xf8\x9bF='
p1995
tp1996
Rp1997
tp1998
a(g96
g6
(g18
S'\xab\x16\x02='
p1999
tp2000
Rp2001
tp2002
asg73
g81
sa(dp2003
g2
S'../../../data/emanuela/activity-recognition/images/NTCIR-Lifelog-256/u3/2015-07-25/b00001084_21i79q_20150725_142701e.jpg'
p2004
sg4
(lp2005
(g116
g6
(g18
S'5\x1b\xdb>'
p2006
tp2007
Rp2008
tp2009
a(g96
g6
(g18
S'8\x9ap>'
p2010
tp2011
Rp2012
tp2013
a(g81
g6
(g18
S'N\xbb6>'
p2014
tp2015
Rp2016
tp2017
a(g267
g6
(g18
S'\x99\xc7\x81='
p2018
tp2019
Rp2020
tp2021
a(g414
g6
(g18
S'|\xe7\xb9<'
p2022
tp2023
Rp2024
tp2025
asg73
g81
sa(dp2026
g2
S'../../../data/emanuela/activity-recognition/images/NTCIR-Lifelog-256/u3/2015-08-01/b00006120_21i79q_20150801_122717e.jpg'
p2027
sg4
(lp2028
(g116
g6
(g18
S'\xcc\xfd\xd6>'
p2029
tp2030
Rp2031
tp2032
a(g81
g6
(g18
S'\x96m\xd3>'
p2033
tp2034
Rp2035
tp2036
a(g96
g6
(g18
S'F\xf5Q='
p2037
tp2038
Rp2039
tp2040
a(g294
g6
(g18
S'\xb0\x0f\x00='
p2041
tp2042
Rp2043
tp2044
a(g267
g6
(g18
S'\xf1\x81\x95<'
p2045
tp2046
Rp2047
tp2048
asg73
g81
sa(dp2049
g2
S'../../../data/emanuela/activity-recognition/images/NTCIR-Lifelog-256/u3/2015-07-28/b00003016_21i79q_20150728_145204e.jpg'
p2050
sg4
(lp2051
(g96
g6
(g18
S'\x82\xbb\xda>'
p2052
tp2053
Rp2054
tp2055
a(g116
g6
(g18
S'\xd3RY>'
p2056
tp2057
Rp2058
tp2059
a(g294
g6
(g18
S'\x8f\xc9\xe4='
p2060
tp2061
Rp2062
tp2063
a(g81
g6
(g18
S'u\x7f\x85='
p2064
tp2065
Rp2066
tp2067
a(g56
g6
(g18
S'[aF='
p2068
tp2069
Rp2070
tp2071
asg73
g81
sa(dp2072
g2
S'../../../data/emanuela/activity-recognition/images/NTCIR-Lifelog-256/u3/2015-07-25/b00001099_21i79q_20150725_143602e.jpg'
p2073
sg4
(lp2074
(g116
g6
(g18
S'\xf4q:?'
p2075
tp2076
Rp2077
tp2078
a(g81
g6
(g18
S'A.U>'
p2079
tp2080
Rp2081
tp2082
a(g96
g6
(g18
S'l}\xa2<'
p2083
tp2084
Rp2085
tp2086
a(g294
g6
(g18
S'c\xe4\x8c<'
p2087
tp2088
Rp2089
tp2090
a(g44
g6
(g18
S'r\x02\xaf;'
p2091
tp2092
Rp2093
tp2094
asg73
g81
sa(dp2095
g2
S'../../../data/emanuela/activity-recognition/images/NTCIR-Lifelog-256/u3/2015-07-28/b00002666_21i79q_20150728_092706e.jpg'
p2096
sg4
(lp2097
(g387
g6
(g18
S'\x1e\xb7\x9f>'
p2098
tp2099
Rp2100
tp2101
a(g81
g6
(g18
S'\x04\x17\x8b>'
p2102
tp2103
Rp2104
tp2105
a(g96
g6
(g18
S'FCG>'
p2106
tp2107
Rp2108
tp2109
a(g414
g6
(g18
S'i\xc2\x93='
p2110
tp2111
Rp2112
tp2113
a(g255
g6
(g18
S'\x13\xcf\xde<'
p2114
tp2115
Rp2116
tp2117
asg73
g81
sa(dp2118
g2
S'../../../data/emanuela/activity-recognition/images/NTCIR-Lifelog-256/u3/2015-07-18/b00000193_21i79q_20150718_131322e.jpg'
p2119
sg4
(lp2120
(g185
g6
(g18
S'\x8e\x85\x14?'
p2121
tp2122
Rp2123
tp2124
a(g294
g6
(g18
S'\xe1\x81\x05>'
p2125
tp2126
Rp2127
tp2128
a(g81
g6
(g18
S'\x03]s='
p2129
tp2130
Rp2131
tp2132
a(g68
g6
(g18
S'\x0bcM='
p2133
tp2134
Rp2135
tp2136
a(g56
g6
(g18
S'\x9cu\x0b='
p2137
tp2138
Rp2139
tp2140
asg73
g81
sa(dp2141
g2
S'../../../data/emanuela/activity-recognition/images/NTCIR-Lifelog-256/u3/2015-07-11/b00001661_21i79q_20150711_230448e.jpg'
p2142
sg4
(lp2143
(g116
g6
(g18
S'g<\\?'
p2144
tp2145
Rp2146
tp2147
a(g81
g6
(g18
S'\xba%\x9c='
p2148
tp2149
Rp2150
tp2151
a(g387
g6
(g18
S'\x98\x13\x8b<'
p2152
tp2153
Rp2154
tp2155
a(g1227
g6
(g18
S'\xdc\xf5"<'
p2156
tp2157
Rp2158
tp2159
a(g96
g6
(g18
S'\x0e\x85\x15<'
p2160
tp2161
Rp2162
tp2163
asg73
g81
sa(dp2164
g2
S'../../../data/emanuela/activity-recognition/images/NTCIR-Lifelog-256/u3/2015-07-25/b00001742_21i79q_20150725_234254e.jpg'
p2165
sg4
(lp2166
(g116
g6
(g18
S'e\xc3\x03?'
p2167
tp2168
Rp2169
tp2170
a(g81
g6
(g18
S'\xda\xb5\xe5>'
p2171
tp2172
Rp2173
tp2174
a(g294
g6
(g18
S'\x12\xed\x84<'
p2175
tp2176
Rp2177
tp2178
a(g387
g6
(g18
S'<f\x03<'
p2179
tp2180
Rp2181
tp2182
a(g96
g6
(g18
S'\x12G\xcc;'
p2183
tp2184
Rp2185
tp2186
asg73
g81
sa(dp2187
g2
S'../../../data/emanuela/activity-recognition/images/NTCIR-Lifelog-256/u3/2015-07-25/b00001120_21i79q_20150725_144735e.jpg'
p2188
sg4
(lp2189
(g81
g6
(g18
S'\x88\xf2d?'
p2190
tp2191
Rp2192
tp2193
a(g294
g6
(g18
S'\x8c\x81\xf8<'
p2194
tp2195
Rp2196
tp2197
a(g387
g6
(g18
S'm\x80\xf2<'
p2198
tp2199
Rp2200
tp2201
a(g96
g6
(g18
S'b\x9a\x9d<'
p2202
tp2203
Rp2204
tp2205
a(g185
g6
(g18
S'4\xaa,<'
p2206
tp2207
Rp2208
tp2209
asg73
g81
sa(dp2210
g2
S'../../../data/emanuela/activity-recognition/images/NTCIR-Lifelog-256/u3/2015-08-03/b00000090_21i79q_20150803_124647e.jpg'
p2211
sg4
(lp2212
(g81
g6
(g18
S'\xb7\x18\xcc>'
p2213
tp2214
Rp2215
tp2216
a(g387
g6
(g18
S'\x1a\x98\x84>'
p2217
tp2218
Rp2219
tp2220
a(g414
g6
(g18
S'nj\xea='
p2221
tp2222
Rp2223
tp2224
a(g96
g6
(g18
S'\xacL\xb0='
p2225
tp2226
Rp2227
tp2228
a(g68
g6
(g18
S'\xa3\xc9B='
p2229
tp2230
Rp2231
tp2232
asg73
g81
sa(dp2233
g2
S'../../../data/emanuela/activity-recognition/images/NTCIR-Lifelog-256/u3/2015-07-11/b00000239_21i79q_20150711_090259e.jpg'
p2234
sg4
(lp2235
(g44
g6
(g18
S'^J\r?'
p2236
tp2237
Rp2238
tp2239
a(g15
g6
(g18
S'\xee\xbb\xad>'
p2240
tp2241
Rp2242
tp2243
a(g32
g6
(g18
S'\xab=\x16='
p2244
tp2245
Rp2246
tp2247
a(g56
g6
(g18
S'\xaf \x00='
p2248
tp2249
Rp2250
tp2251
a(g68
g6
(g18
S'\xcb\xeeO<'
p2252
tp2253
Rp2254
tp2255
asg73
g81
sa(dp2256
g2
S'../../../data/emanuela/activity-recognition/images/NTCIR-Lifelog-256/u3/2015-07-25/b00001083_21i79q_20150725_142628e.jpg'
p2257
sg4
(lp2258
(g116
g6
(g18
S'\xbcp\xdf>'
p2259
tp2260
Rp2261
tp2262
a(g96
g6
(g18
S'@$\xbb>'
p2263
tp2264
Rp2265
tp2266
a(g81
g6
(g18
S'\xeb\xac\xc3='
p2267
tp2268
Rp2269
tp2270
a(g294
g6
(g18
S'\xac\r\x01='
p2271
tp2272
Rp2273
tp2274
a(g267
g6
(g18
S'M@\xb4<'
p2275
tp2276
Rp2277
tp2278
asg73
g81
sa(dp2279
g2
S'../../../data/emanuela/activity-recognition/images/NTCIR-Lifelog-256/u3/2015-07-29/b00003946_21i79q_20150729_133202e.jpg'
p2280
sg4
(lp2281
(g68
g6
(g18
S'\xa7\xfc\x83>'
p2282
tp2283
Rp2284
tp2285
a(g201
g6
(g18
S'\x9c\x1eo>'
p2286
tp2287
Rp2288
tp2289
a(g81
g6
(g18
S'Q\x8bG>'
p2290
tp2291
Rp2292
tp2293
a(g387
g6
(g18
S"\xab'->"
p2294
tp2295
Rp2296
tp2297
a(g294
g6
(g18
S'\xf1\xff\x10='
p2298
tp2299
Rp2300
tp2301
asg73
g81
sa(dp2302
g2
S'../../../data/emanuela/activity-recognition/images/NTCIR-Lifelog-256/u3/2015-07-28/b00003756_21i79q_20150728_220241e.jpg'
p2303
sg4
(lp2304
(g96
g6
(g18
S'8p\xce>'
p2305
tp2306
Rp2307
tp2308
a(g81
g6
(g18
S'\xda\xa1\x13>'
p2309
tp2310
Rp2311
tp2312
a(g294
g6
(g18
S'\x06\xc2\xa5='
p2313
tp2314
Rp2315
tp2316
a(g116
g6
(g18
S'\xae\x86\x8c='
p2317
tp2318
Rp2319
tp2320
a(g255
g6
(g18
S'DT\x84='
p2321
tp2322
Rp2323
tp2324
asg73
g81
sa(dp2325
g2
S'../../../data/emanuela/activity-recognition/images/NTCIR-Lifelog-256/u3/2015-07-18/b00000187_21i79q_20150718_130939e.jpg'
p2326
sg4
(lp2327
(g116
g6
(g18
S'\xc3P-?'
p2328
tp2329
Rp2330
tp2331
a(g81
g6
(g18
S'\xd2\x00\xb2='
p2332
tp2333
Rp2334
tp2335
a(g294
g6
(g18
S'\xfb\xbdp='
p2336
tp2337
Rp2338
tp2339
a(g44
g6
(g18
S'?\xfb\x1f='
p2340
tp2341
Rp2342
tp2343
a(g96
g6
(g18
S'x\x01\x97<'
p2344
tp2345
Rp2346
tp2347
asg73
g81
sa(dp2348
g2
S'../../../data/emanuela/activity-recognition/images/NTCIR-Lifelog-256/u3/2015-07-18/b00000157_21i79q_20150718_125048e.jpg'
p2349
sg4
(lp2350
(g116
g6
(g18
S'\xfaFo?'
p2351
tp2352
Rp2353
tp2354
a(g96
g6
(g18
S'B\x1d\x10<'
p2355
tp2356
Rp2357
tp2358
a(g81
g6
(g18
S'e}\x0f<'
p2359
tp2360
Rp2361
tp2362
a(g294
g6
(g18
S'_\x12\xdc;'
p2363
tp2364
Rp2365
tp2366
a(g255
g6
(g18
S'2\xb9\xbe;'
p2367
tp2368
Rp2369
tp2370
asg73
g81
sa(dp2371
g2
S'../../../data/emanuela/activity-recognition/images/NTCIR-Lifelog-256/u3/2015-08-01/b00006100_21i79q_20150801_121628e.jpg'
p2372
sg4
(lp2373
(g81
g6
(g18
S'\x9dq0?'
p2374
tp2375
Rp2376
tp2377
a(g116
g6
(g18
S'\x84\x8b\xc1='
p2378
tp2379
Rp2380
tp2381
a(g96
g6
(g18
S'%P&='
p2382
tp2383
Rp2384
tp2385
a(g294
g6
(g18
S'\xb7F\x16='
p2386
tp2387
Rp2388
tp2389
a(g414
g6
(g18
S'h\xb2\x13='
p2390
tp2391
Rp2392
tp2393
asg73
g81
sa(dp2394
g2
S'../../../data/emanuela/activity-recognition/images/NTCIR-Lifelog-256/u3/2015-07-28/b00002989_21i79q_20150728_143551e.jpg'
p2395
sg4
(lp2396
(g81
g6
(g18
S'\xbb\x8d1?'
p2397
tp2398
Rp2399
tp2400
a(g387
g6
(g18
S'\x8az\x00>'
p2401
tp2402
Rp2403
tp2404
a(g201
g6
(g18
S'G\x98\x95='
p2405
tp2406
Rp2407
tp2408
a(g96
g6
(g18
S'\x8e{<='
p2409
tp2410
Rp2411
tp2412
a(g1239
g6
(g18
S'\xf2\xc4J<'
p2413
tp2414
Rp2415
tp2416
asg73
g81
sa(dp2417
g2
S'../../../data/emanuela/activity-recognition/images/NTCIR-Lifelog-256/u3/2015-07-11/b00001665_21i79q_20150711_230705e.jpg'
p2418
sg4
(lp2419
(g81
g6
(g18
S'\x07\x15\x0c?'
p2420
tp2421
Rp2422
tp2423
a(g387
g6
(g18
S'8\xabx>'
p2424
tp2425
Rp2426
tp2427
a(g414
g6
(g18
S'\xefN\xb3='
p2428
tp2429
Rp2430
tp2431
a(g96
g6
(g18
S'r\xee\x1c='
p2432
tp2433
Rp2434
tp2435
a(g116
g6
(g18
S'"R\x0f='
p2436
tp2437
Rp2438
tp2439
asg73
g81
sa(dp2440
g2
S'../../../data/emanuela/activity-recognition/images/NTCIR-Lifelog-256/u3/2015-07-11/b00001620_21i79q_20150711_224044e.jpg'
p2441
sg4
(lp2442
(g116
g6
(g18
S'\x96\xb5Z?'
p2443
tp2444
Rp2445
tp2446
a(g81
g6
(g18
S'&\xb1\xc1='
p2447
tp2448
Rp2449
tp2450
a(g96
g6
(g18
S'\x02\xc8\xa8<'
p2451
tp2452
Rp2453
tp2454
a(g267
g6
(g18
S'\x9e\xcd\x1e<'
p2455
tp2456
Rp2457
tp2458
a(g294
g6
(g18
S'\x80\xf4\x9e;'
p2459
tp2460
Rp2461
tp2462
asg73
g81
sa(dp2463
g2
S'../../../data/emanuela/activity-recognition/images/NTCIR-Lifelog-256/u3/2015-07-11/b00000205_21i79q_20150711_084302e.jpg'
p2464
sg4
(lp2465
(g44
g6
(g18
S'/a\x19?'
p2466
tp2467
Rp2468
tp2469
a(g15
g6
(g18
S'\xf4n\x89>'
p2470
tp2471
Rp2472
tp2473
a(g56
g6
(g18
S'E\xcb\x1d='
p2474
tp2475
Rp2476
tp2477
a(g81
g6
(g18
S'/i\x06='
p2478
tp2479
Rp2480
tp2481
a(g32
g6
(g18
S'X\x01\x03='
p2482
tp2483
Rp2484
tp2485
asg73
g81
sa(dp2486
g2
S'../../../data/emanuela/activity-recognition/images/NTCIR-Lifelog-256/u3/2015-07-29/b00003947_21i79q_20150729_133240e.jpg'
p2487
sg4
(lp2488
(g81
g6
(g18
S'\x89y\xc7>'
p2489
tp2490
Rp2491
tp2492
a(g387
g6
(g18
S'\xd7\x8cz>'
p2493
tp2494
Rp2495
tp2496
a(g294
g6
(g18
S'\xe8\x80\xc5='
p2497
tp2498
Rp2499
tp2500
a(g68
g6
(g18
S'\xf5\xe1\xb8='
p2501
tp2502
Rp2503
tp2504
a(g201
g6
(g18
S'\xbbk(='
p2505
tp2506
Rp2507
tp2508
asg73
g81
sa(dp2509
g2
S'../../../data/emanuela/activity-recognition/images/NTCIR-Lifelog-256/u3/2015-07-11/b00000076_21i79q_20150711_072522e.jpg'
p2510
sg4
(lp2511
(g44
g6
(g18
S'L7\x08?'
p2512
tp2513
Rp2514
tp2515
a(g15
g6
(g18
S'\x0c\x81v>'
p2516
tp2517
Rp2518
tp2519
a(g56
g6
(g18
S'R\t\x8a='
p2520
tp2521
Rp2522
tp2523
a(g68
g6
(g18
S'(\x1ab='
p2524
tp2525
Rp2526
tp2527
a(g32
g6
(g18
S'\x19z\x1a='
p2528
tp2529
Rp2530
tp2531
asg73
g81
sa(dp2532
g2
S'../../../data/emanuela/activity-recognition/images/NTCIR-Lifelog-256/u3/2015-07-28/b00002971_21i79q_20150728_142500e.jpg'
p2533
sg4
(lp2534
(g294
g6
(g18
S'\xa6\x97\xe3>'
p2535
tp2536
Rp2537
tp2538
a(g81
g6
(g18
S'\xd9\xe5\xe0>'
p2539
tp2540
Rp2541
tp2542
a(g116
g6
(g18
S"\x8f\xc4'="
p2543
tp2544
Rp2545
tp2546
a(g68
g6
(g18
S'\x98\xb2K<'
p2547
tp2548
Rp2549
tp2550
a(g185
g6
(g18
S'\x85\x819<'
p2551
tp2552
Rp2553
tp2554
asg73
g81
sa(dp2555
g2
S'../../../data/emanuela/activity-recognition/images/NTCIR-Lifelog-256/u3/2015-07-25/b00001106_21i79q_20150725_143948e.jpg'
p2556
sg4
(lp2557
(g81
g6
(g18
S'\x9e3\x1c?'
p2558
tp2559
Rp2560
tp2561
a(g116
g6
(g18
S'\xdd\xda}>'
p2562
tp2563
Rp2564
tp2565
a(g96
g6
(g18
S'\xe0\xbc\xaa='
p2566
tp2567
Rp2568
tp2569
a(g371
g6
(g18
S'1\xfa\x86<'
p2570
tp2571
Rp2572
tp2573
a(g294
g6
(g18
S'eok<'
p2574
tp2575
Rp2576
tp2577
asg73
g81
sa.